ARM GAS  /var/folders/1y/_321xjh9623c014x9_qw12rr0000gn/T//ccXZVGQV.s 			page 1


   1              		.cpu cortex-m7
   2              		.arch armv7e-m
   3              		.fpu fpv5-d16
   4              		.eabi_attribute 28, 1
   5              		.eabi_attribute 20, 1
   6              		.eabi_attribute 21, 1
   7              		.eabi_attribute 23, 3
   8              		.eabi_attribute 24, 1
   9              		.eabi_attribute 25, 1
  10              		.eabi_attribute 26, 1
  11              		.eabi_attribute 30, 2
  12              		.eabi_attribute 34, 1
  13              		.eabi_attribute 18, 4
  14              		.file	"Dubby.cpp"
  15              		.text
  16              	.Ltext0:
  17              		.cfi_sections	.debug_frame
  18              		.section	.text._ZNK5daisy11OledDisplayINS_13SSD130xDriverILj128ELj64ENS_24SSD130x4WireSpiTransport
  19              		.align	1
  20              		.p2align 2,,3
  21              		.weak	_ZNK5daisy11OledDisplayINS_13SSD130xDriverILj128ELj64ENS_24SSD130x4WireSpiTransportEEEE6Heig
  22              		.syntax unified
  23              		.thumb
  24              		.thumb_func
  26              	_ZNK5daisy11OledDisplayINS_13SSD130xDriverILj128ELj64ENS_24SSD130x4WireSpiTransportEEEE6HeightEv:
  27              	.LVL0:
  28              	.LFB4339:
  29              		.file 1 "../../libDaisy//src/hid/disp/oled_display.h"
   1:../../libDaisy//src/hid/disp/oled_display.h **** #pragma once
   2:../../libDaisy//src/hid/disp/oled_display.h **** #ifndef DSY_OLED_DISPLAY_H
   3:../../libDaisy//src/hid/disp/oled_display.h **** #define DSY_OLED_DISPLAY_H /**< Macro */
   4:../../libDaisy//src/hid/disp/oled_display.h **** 
   5:../../libDaisy//src/hid/disp/oled_display.h **** #include "display.h"
   6:../../libDaisy//src/hid/disp/oled_display.h **** 
   7:../../libDaisy//src/hid/disp/oled_display.h **** namespace daisy
   8:../../libDaisy//src/hid/disp/oled_display.h **** {
   9:../../libDaisy//src/hid/disp/oled_display.h **** /** 
  10:../../libDaisy//src/hid/disp/oled_display.h ****  * This class is for drawing to a monochrome OLED display. 
  11:../../libDaisy//src/hid/disp/oled_display.h ****  * @ingroup device
  12:../../libDaisy//src/hid/disp/oled_display.h **** */
  13:../../libDaisy//src/hid/disp/oled_display.h **** template <typename DisplayDriver>
  14:../../libDaisy//src/hid/disp/oled_display.h **** class OledDisplay : public OneBitGraphicsDisplayImpl<OledDisplay<DisplayDriver>>
  15:../../libDaisy//src/hid/disp/oled_display.h **** {
  16:../../libDaisy//src/hid/disp/oled_display.h ****   public:
  17:../../libDaisy//src/hid/disp/oled_display.h ****     OledDisplay() {}
  18:../../libDaisy//src/hid/disp/oled_display.h ****     virtual ~OledDisplay() {}
  19:../../libDaisy//src/hid/disp/oled_display.h **** 
  20:../../libDaisy//src/hid/disp/oled_display.h ****     struct Config
  21:../../libDaisy//src/hid/disp/oled_display.h ****     {
  22:../../libDaisy//src/hid/disp/oled_display.h ****         typename DisplayDriver::Config driver_config;
  23:../../libDaisy//src/hid/disp/oled_display.h ****     };
  24:../../libDaisy//src/hid/disp/oled_display.h **** 
  25:../../libDaisy//src/hid/disp/oled_display.h ****     void Init(Config config) { driver_.Init(config.driver_config); }
  26:../../libDaisy//src/hid/disp/oled_display.h **** 
  27:../../libDaisy//src/hid/disp/oled_display.h ****     uint16_t Height() const override { return driver_.Height(); }
  30              		.loc 1 27 14 view -0
  31              		.cfi_startproc
ARM GAS  /var/folders/1y/_321xjh9623c014x9_qw12rr0000gn/T//ccXZVGQV.s 			page 2


  32              		@ args = 0, pretend = 0, frame = 0
  33              		@ frame_needed = 0, uses_anonymous_args = 0
  34              		@ link register save eliminated.
  35              		.loc 1 27 65 is_stmt 0 view .LVU1
  36 0000 4020     		movs	r0, #64
  37              	.LVL1:
  38              		.loc 1 27 65 view .LVU2
  39 0002 7047     		bx	lr
  40              		.cfi_endproc
  41              	.LFE4339:
  43              		.section	.text._ZNK5daisy11OledDisplayINS_13SSD130xDriverILj128ELj64ENS_24SSD130x4WireSpiTransport
  44              		.align	1
  45              		.p2align 2,,3
  46              		.weak	_ZNK5daisy11OledDisplayINS_13SSD130xDriverILj128ELj64ENS_24SSD130x4WireSpiTransportEEEE5Widt
  47              		.syntax unified
  48              		.thumb
  49              		.thumb_func
  51              	_ZNK5daisy11OledDisplayINS_13SSD130xDriverILj128ELj64ENS_24SSD130x4WireSpiTransportEEEE5WidthEv:
  52              	.LVL2:
  53              	.LFB4340:
  28:../../libDaisy//src/hid/disp/oled_display.h ****     uint16_t Width() const override { return driver_.Width(); }
  54              		.loc 1 28 14 is_stmt 1 view -0
  55              		.cfi_startproc
  56              		@ args = 0, pretend = 0, frame = 0
  57              		@ frame_needed = 0, uses_anonymous_args = 0
  58              		@ link register save eliminated.
  59              		.loc 1 28 63 is_stmt 0 view .LVU4
  60 0000 8020     		movs	r0, #128
  61              	.LVL3:
  62              		.loc 1 28 63 view .LVU5
  63 0002 7047     		bx	lr
  64              		.cfi_endproc
  65              	.LFE4340:
  67              		.section	.text._ZN5daisy5Dubby11RenderScopeEv.part.0,"ax",%progbits
  68              		.align	1
  69              		.p2align 2,,3
  70              		.syntax unified
  71              		.thumb
  72              		.thumb_func
  74              	_ZN5daisy5Dubby11RenderScopeEv.part.0:
  75              	.LVL4:
  76              	.LFB4352:
  77              		.file 2 "Dubby.cpp"
   1:Dubby.cpp     **** #include "Dubby.h"
   2:Dubby.cpp     **** 
   3:Dubby.cpp     **** using namespace daisy;
   4:Dubby.cpp     **** 
   5:Dubby.cpp     **** // Hardware Definitions
   6:Dubby.cpp     **** #define PIN_GATE_IN_1 32
   7:Dubby.cpp     **** #define PIN_GATE_IN_2 23
   8:Dubby.cpp     **** #define PIN_GATE_IN_3 17
   9:Dubby.cpp     **** #define PIN_GATE_IN_4 19
  10:Dubby.cpp     **** #define PIN_KNOB_1 18
  11:Dubby.cpp     **** #define PIN_KNOB_2 15
  12:Dubby.cpp     **** #define PIN_KNOB_3 21
  13:Dubby.cpp     **** #define PIN_KNOB_4 22
  14:Dubby.cpp     **** #define PIN_JS_CLICK 3
ARM GAS  /var/folders/1y/_321xjh9623c014x9_qw12rr0000gn/T//ccXZVGQV.s 			page 3


  15:Dubby.cpp     **** #define PIN_JS_V 20
  16:Dubby.cpp     **** #define PIN_JS_H 16
  17:Dubby.cpp     **** #define PIN_ENC_CLICK 4
  18:Dubby.cpp     **** #define PIN_ENC_A 6
  19:Dubby.cpp     **** #define PIN_ENC_B 5 
  20:Dubby.cpp     **** #define PIN_OLED_DC 9
  21:Dubby.cpp     **** #define PIN_OLED_RESET 31
  22:Dubby.cpp     **** #define PIN_MIDI_OUT 13
  23:Dubby.cpp     **** #define PIN_MIDI_IN 14
  24:Dubby.cpp     **** #define PIN_MIDI_SWITCH 1
  25:Dubby.cpp     **** 
  26:Dubby.cpp     **** #define OLED_WIDTH 128
  27:Dubby.cpp     **** #define OLED_HEIGHT 64
  28:Dubby.cpp     **** 
  29:Dubby.cpp     **** #define PANE_X_START 1
  30:Dubby.cpp     **** #define PANE_X_END 126
  31:Dubby.cpp     **** #define PANE_Y_START 1
  32:Dubby.cpp     **** #define PANE_Y_END 51
  33:Dubby.cpp     **** 
  34:Dubby.cpp     **** #define SUBMENU_X_START 1
  35:Dubby.cpp     **** #define SUBMENU_X_END 63
  36:Dubby.cpp     **** #define SUBMENU_Y_START 1
  37:Dubby.cpp     **** #define SUBMENU_Y_END 11
  38:Dubby.cpp     **** 
  39:Dubby.cpp     **** void Dubby::Init() 
  40:Dubby.cpp     **** {
  41:Dubby.cpp     ****     InitControls();
  42:Dubby.cpp     ****     InitButtons();
  43:Dubby.cpp     ****     
  44:Dubby.cpp     ****     screen_update_period_ = 17; // roughly 60Hz
  45:Dubby.cpp     ****     screen_update_last_   = seed.system.GetNow();
  46:Dubby.cpp     **** 
  47:Dubby.cpp     ****     for (int i = 0; i < 5; i++) 
  48:Dubby.cpp     ****     {
  49:Dubby.cpp     ****         submenuBoxBounding[i][0] = SUBMENU_X_START;
  50:Dubby.cpp     ****         submenuBoxBounding[i][1] = SUBMENU_Y_START + i * 10;
  51:Dubby.cpp     ****         submenuBoxBounding[i][2] = SUBMENU_X_END;
  52:Dubby.cpp     ****         submenuBoxBounding[i][3] = SUBMENU_Y_END + i * 10;
  53:Dubby.cpp     ****     }
  54:Dubby.cpp     **** 
  55:Dubby.cpp     ****     InitDisplay();
  56:Dubby.cpp     ****     InitEncoder();
  57:Dubby.cpp     ****     InitAudio();
  58:Dubby.cpp     ****     InitMidi();
  59:Dubby.cpp     **** }
  60:Dubby.cpp     **** 
  61:Dubby.cpp     **** void Dubby::InitControls()
  62:Dubby.cpp     **** {
  63:Dubby.cpp     ****     AdcChannelConfig cfg[CTRL_LAST];
  64:Dubby.cpp     **** 
  65:Dubby.cpp     ****     // Init ADC channels with Pins
  66:Dubby.cpp     ****     cfg[CTRL_1].InitSingle(seed.GetPin(PIN_KNOB_1));
  67:Dubby.cpp     ****     cfg[CTRL_2].InitSingle(seed.GetPin(PIN_KNOB_2));
  68:Dubby.cpp     ****     cfg[CTRL_3].InitSingle(seed.GetPin(PIN_KNOB_3));
  69:Dubby.cpp     ****     cfg[CTRL_4].InitSingle(seed.GetPin(PIN_KNOB_4));
  70:Dubby.cpp     ****     cfg[CTRL_5].InitSingle(seed.GetPin(PIN_JS_H));
  71:Dubby.cpp     ****     cfg[CTRL_6].InitSingle(seed.GetPin(PIN_JS_V));
ARM GAS  /var/folders/1y/_321xjh9623c014x9_qw12rr0000gn/T//ccXZVGQV.s 			page 4


  72:Dubby.cpp     **** 
  73:Dubby.cpp     ****     // Initialize ADC
  74:Dubby.cpp     ****     seed.adc.Init(cfg, CTRL_LAST);
  75:Dubby.cpp     **** 
  76:Dubby.cpp     ****     // Initialize analogInputs, with flip set to true
  77:Dubby.cpp     ****     for(size_t i = 0; i < CTRL_LAST; i++)
  78:Dubby.cpp     ****     {
  79:Dubby.cpp     ****         analogInputs[i].Init(seed.adc.GetPtr(i), seed.AudioCallbackRate(), true);
  80:Dubby.cpp     ****     }
  81:Dubby.cpp     **** 
  82:Dubby.cpp     ****     seed.adc.Start();
  83:Dubby.cpp     **** }
  84:Dubby.cpp     **** 
  85:Dubby.cpp     **** void Dubby::InitButtons()
  86:Dubby.cpp     **** {
  87:Dubby.cpp     ****     //Set button to pins, to be updated at a 1kHz  samplerate
  88:Dubby.cpp     ****     buttons[0].Init(seed.GetPin(PIN_GATE_IN_1), 1000);
  89:Dubby.cpp     ****     buttons[1].Init(seed.GetPin(PIN_GATE_IN_2), 1000);
  90:Dubby.cpp     ****     buttons[2].Init(seed.GetPin(PIN_GATE_IN_3), 1000);
  91:Dubby.cpp     ****     buttons[3].Init(seed.GetPin(PIN_GATE_IN_4), 1000);
  92:Dubby.cpp     **** }
  93:Dubby.cpp     **** 
  94:Dubby.cpp     **** void Dubby::InitMidi()
  95:Dubby.cpp     **** {
  96:Dubby.cpp     ****     MidiUartHandler::Config midi_uart_config;
  97:Dubby.cpp     ****     midi_uart.Init(midi_uart_config);
  98:Dubby.cpp     **** 
  99:Dubby.cpp     ****     // RELAY FOR SWITCHING MIDI OUT / MIDI THRU
 100:Dubby.cpp     ****     midi_sw_output.pin  = seed.GetPin(PIN_MIDI_SWITCH);
 101:Dubby.cpp     ****     midi_sw_output.mode = DSY_GPIO_MODE_OUTPUT_PP;
 102:Dubby.cpp     ****     midi_sw_output.pull = DSY_GPIO_NOPULL;
 103:Dubby.cpp     ****     dsy_gpio_init(&midi_sw_output);
 104:Dubby.cpp     **** 
 105:Dubby.cpp     ****     dsy_gpio_write(&midi_sw_output, false); 
 106:Dubby.cpp     **** 
 107:Dubby.cpp     ****     MidiUsbHandler::Config midi_usb_cfg;
 108:Dubby.cpp     ****     midi_usb_cfg.transport_config.periph = MidiUsbTransport::Config::EXTERNAL;
 109:Dubby.cpp     ****     midi_usb.Init(midi_usb_cfg);
 110:Dubby.cpp     **** }
 111:Dubby.cpp     **** 
 112:Dubby.cpp     **** void Dubby::InitDisplay() 
 113:Dubby.cpp     **** {
 114:Dubby.cpp     ****     /** Configure the Display */
 115:Dubby.cpp     ****     OledDisplay<SSD130x4WireSpi128x64Driver>::Config disp_cfg;
 116:Dubby.cpp     ****     disp_cfg.driver_config.transport_config.pin_config.dc    = seed.GetPin(9);
 117:Dubby.cpp     ****     disp_cfg.driver_config.transport_config.pin_config.reset = seed.GetPin(31);
 118:Dubby.cpp     ****     /** And Initialize */
 119:Dubby.cpp     ****     display.Init(disp_cfg);
 120:Dubby.cpp     **** }
 121:Dubby.cpp     **** 
 122:Dubby.cpp     **** void Dubby::UpdateDisplay() 
 123:Dubby.cpp     **** {
 124:Dubby.cpp     ****     if (encoder.TimeHeldMs() > 300) 
 125:Dubby.cpp     ****     {
 126:Dubby.cpp     ****         if (!menuActive) 
 127:Dubby.cpp     ****         {
 128:Dubby.cpp     ****             HightlightMenuItem();
ARM GAS  /var/folders/1y/_321xjh9623c014x9_qw12rr0000gn/T//ccXZVGQV.s 			page 5


 129:Dubby.cpp     ****             menuActive = true;
 130:Dubby.cpp     ****         }
 131:Dubby.cpp     **** 
 132:Dubby.cpp     ****         if (encoder.Increment()) UpdateMenu(encoder.Increment(), true);
 133:Dubby.cpp     ****     } 
 134:Dubby.cpp     **** 
 135:Dubby.cpp     ****     switch(menuItemSelected) 
 136:Dubby.cpp     ****     {
 137:Dubby.cpp     ****         case MENU1:
 138:Dubby.cpp     ****             RenderScope();
 139:Dubby.cpp     ****             break;
 140:Dubby.cpp     ****         case MENU2:
 141:Dubby.cpp     ****             UpdateMixerPane();
 142:Dubby.cpp     ****             break;
 143:Dubby.cpp     ****         case MENU3:
 144:Dubby.cpp     ****             if (encoder.Pressed() && preferencesMenuItemSelected == OPTION4) ResetToBootloader();
 145:Dubby.cpp     ****             if (encoder.Increment() && !menuActive) UpdatePreferencesMenu(encoder.Increment());
 146:Dubby.cpp     ****             break;
 147:Dubby.cpp     ****         default:
 148:Dubby.cpp     ****             break;
 149:Dubby.cpp     ****     }
 150:Dubby.cpp     ****     
 151:Dubby.cpp     ****     if (encoder.TimeHeldMs() < 300 && menuActive)
 152:Dubby.cpp     ****     {
 153:Dubby.cpp     ****         menuActive = false;
 154:Dubby.cpp     ****         
 155:Dubby.cpp     ****         ReleaseMenu();
 156:Dubby.cpp     ****         UpdateSubmenu();
 157:Dubby.cpp     ****     }
 158:Dubby.cpp     **** }
 159:Dubby.cpp     **** 
 160:Dubby.cpp     **** void Dubby::DrawLogo() 
 161:Dubby.cpp     **** {
 162:Dubby.cpp     ****     DrawBitmap(0);   
 163:Dubby.cpp     **** }
 164:Dubby.cpp     **** 
 165:Dubby.cpp     **** void Dubby::DrawBitmap(int bitmapIndex)
 166:Dubby.cpp     **** {
 167:Dubby.cpp     ****     display.Fill(false);
 168:Dubby.cpp     ****     display.SetCursor(30, 30);
 169:Dubby.cpp     ****     
 170:Dubby.cpp     ****     for (int x = 0; x < OLED_WIDTH; x += 8) {
 171:Dubby.cpp     ****         for (int y = 0; y < OLED_HEIGHT; y++) {
 172:Dubby.cpp     ****             // Calculate the index in the array
 173:Dubby.cpp     ****             int byteIndex = (y * OLED_WIDTH + x) / 8;
 174:Dubby.cpp     **** 
 175:Dubby.cpp     ****             // Get the byte containing 8 pixels
 176:Dubby.cpp     ****             char byte = bitmaps[bitmapIndex][byteIndex];
 177:Dubby.cpp     **** 
 178:Dubby.cpp     ****             // Process 8 pixels in the byte
 179:Dubby.cpp     ****             for (int bitIndex = 0; bitIndex < 8; bitIndex++) {
 180:Dubby.cpp     **** 
 181:Dubby.cpp     ****                 // Get the pixel value (0 or 1)
 182:Dubby.cpp     ****                 char pixel = (byte >> (7 - bitIndex)) & 0x01;
 183:Dubby.cpp     **** 
 184:Dubby.cpp     ****                 bool isWhite = (pixel == 1);
 185:Dubby.cpp     **** 
ARM GAS  /var/folders/1y/_321xjh9623c014x9_qw12rr0000gn/T//ccXZVGQV.s 			page 6


 186:Dubby.cpp     ****                 display.DrawPixel(x + bitIndex, y, isWhite);
 187:Dubby.cpp     ****             }
 188:Dubby.cpp     **** 
 189:Dubby.cpp     ****             if (y % 6 == 0) display.Update();
 190:Dubby.cpp     ****         }
 191:Dubby.cpp     ****     }
 192:Dubby.cpp     **** }
 193:Dubby.cpp     **** 
 194:Dubby.cpp     **** void Dubby::UpdateMenu(int increment, bool higlight) 
 195:Dubby.cpp     **** {
 196:Dubby.cpp     ****     // if ((menuItemSelected >= 0 && increment == 1 && menuItemSelected < 2) || (increment != 1 && 
 197:Dubby.cpp     ****     // {
 198:Dubby.cpp     ****         int mItemSelected = menuItemSelected;
 199:Dubby.cpp     ****         if ((int)menuItemSelected + increment >= 3) mItemSelected = 0;
 200:Dubby.cpp     ****         else if ((int)menuItemSelected + increment < 0) mItemSelected = 3;
 201:Dubby.cpp     ****         else mItemSelected += increment;
 202:Dubby.cpp     **** 
 203:Dubby.cpp     ****         menuItemSelected = (MenuItems)(mItemSelected);
 204:Dubby.cpp     ****     // }
 205:Dubby.cpp     **** 
 206:Dubby.cpp     ****     display.Fill(false);
 207:Dubby.cpp     **** 
 208:Dubby.cpp     ****     if (higlight) HightlightMenuItem();
 209:Dubby.cpp     ****     else ReleaseMenu();
 210:Dubby.cpp     ****     
 211:Dubby.cpp     ****     UpdateSubmenu();
 212:Dubby.cpp     **** 
 213:Dubby.cpp     ****     display.Update();
 214:Dubby.cpp     **** }
 215:Dubby.cpp     **** 
 216:Dubby.cpp     **** void Dubby::HightlightMenuItem() 
 217:Dubby.cpp     **** {
 218:Dubby.cpp     ****     // display.DrawRect(menuBoxBounding[menuItemSelected][0], menuBoxBounding[menuItemSelected][1],
 219:Dubby.cpp     ****     display.DrawRect(menuBoxBounding[0][0], menuBoxBounding[0][1], menuBoxBounding[0][2], menuBoxBo
 220:Dubby.cpp     **** 
 221:Dubby.cpp     ****     for (int i = 0; i < 3; i++) 
 222:Dubby.cpp     ****     {
 223:Dubby.cpp     ****         display.SetCursor(menuTextCursors[i][0], menuTextCursors[i][1]);
 224:Dubby.cpp     ****         int currentText = menuItemSelected + i < 3 ? menuItemSelected + i : (menuItemSelected + i) 
 225:Dubby.cpp     ****         
 226:Dubby.cpp     ****          display.WriteString(GetTextForEnum(MAINMENU, currentText), Font_6x8, f_truncate/*, i == me
 227:Dubby.cpp     ****     }
 228:Dubby.cpp     **** 
 229:Dubby.cpp     ****     display.DrawRect(PANE_X_START - 1, PANE_Y_START - 1, PANE_X_END + 1, PANE_Y_END + 1, true);
 230:Dubby.cpp     **** 
 231:Dubby.cpp     ****     display.Update();
 232:Dubby.cpp     **** }
 233:Dubby.cpp     **** 
 234:Dubby.cpp     **** void Dubby::ReleaseMenu() 
 235:Dubby.cpp     **** {        
 236:Dubby.cpp     ****     display.Fill(false);
 237:Dubby.cpp     ****     //display.DrawRect(menuBoxBounding[menuItemSelected][0], menuBoxBounding[menuItemSelected][1], 
 238:Dubby.cpp     **** 
 239:Dubby.cpp     ****     // for (int i = 0; i < MENU_LAST; i++) 
 240:Dubby.cpp     ****     // {
 241:Dubby.cpp     ****         display.SetCursor(menuTextCursors[0][0], menuTextCursors[0][1]);
 242:Dubby.cpp     ****         display.WriteString(GetTextForEnum(MAINMENU, menuItemSelected), Font_6x8, true);
ARM GAS  /var/folders/1y/_321xjh9623c014x9_qw12rr0000gn/T//ccXZVGQV.s 			page 7


 243:Dubby.cpp     ****     // }
 244:Dubby.cpp     **** 
 245:Dubby.cpp     ****     display.Update();
 246:Dubby.cpp     ****     
 247:Dubby.cpp     **** }
 248:Dubby.cpp     **** 
 249:Dubby.cpp     **** void Dubby::UpdateMixerPane() 
 250:Dubby.cpp     **** {
 251:Dubby.cpp     ****     if(seed.system.GetNow() - screen_update_last_ > screen_update_period_)
 252:Dubby.cpp     ****     {
 253:Dubby.cpp     ****         screen_update_last_ = seed.system.GetNow();
 254:Dubby.cpp     ****         for (int i = 0; i < 4; i++) UpdateBar(i);
 255:Dubby.cpp     ****     }
 256:Dubby.cpp     **** }
 257:Dubby.cpp     **** 
 258:Dubby.cpp     **** void Dubby::UpdateSubmenu()
 259:Dubby.cpp     **** {
 260:Dubby.cpp     ****     switch(menuItemSelected) 
 261:Dubby.cpp     ****     {
 262:Dubby.cpp     ****         case MENU1:
 263:Dubby.cpp     ****             RenderScope();
 264:Dubby.cpp     ****             break;
 265:Dubby.cpp     ****         case MENU2:
 266:Dubby.cpp     ****             // for (int i = 0; i < 4; i++) UpdateBar(i);
 267:Dubby.cpp     ****             break;
 268:Dubby.cpp     ****         case MENU3:
 269:Dubby.cpp     ****             DisplayPreferencesMenu();
 270:Dubby.cpp     ****             break;
 271:Dubby.cpp     ****         default:
 272:Dubby.cpp     ****             break;
 273:Dubby.cpp     ****     }
 274:Dubby.cpp     **** 
 275:Dubby.cpp     ****     display.Update();
 276:Dubby.cpp     **** }
 277:Dubby.cpp     **** 
 278:Dubby.cpp     **** void Dubby::UpdateBar(int i) 
 279:Dubby.cpp     **** {
 280:Dubby.cpp     ****     display.DrawRect((i * 32)  + margin, 1, ((i + 1) * 31) - margin, 51, false, true);
 281:Dubby.cpp     ****     display.DrawRect((i * 32)  + margin, int(abs(1.0f - GetKnobValue(static_cast<Dubby::Ctrl>(i))) 
 282:Dubby.cpp     ****     display.DrawRect((i * 32)  + margin, int(abs((currentLevels[i] * 5.0f) - 1.0f) * 51.0f) + 1, ((
 283:Dubby.cpp     ****     
 284:Dubby.cpp     ****     display.Update();
 285:Dubby.cpp     **** }
 286:Dubby.cpp     **** 
 287:Dubby.cpp     **** void Dubby::RenderScope()
  78              		.loc 2 287 6 is_stmt 1 view -0
  79              		.cfi_startproc
  80              		@ args = 0, pretend = 0, frame = 32
  81              		@ frame_needed = 0, uses_anonymous_args = 0
  82              	.LBB291:
 288:Dubby.cpp     **** {
 289:Dubby.cpp     ****     if(seed.system.GetNow() - screen_update_last_ > screen_update_period_)
 290:Dubby.cpp     ****     {
 291:Dubby.cpp     ****         screen_update_last_ = seed.system.GetNow();
  83              		.loc 2 291 9 view .LVU7
  84              	.LBE291:
 287:Dubby.cpp     **** {
ARM GAS  /var/folders/1y/_321xjh9623c014x9_qw12rr0000gn/T//ccXZVGQV.s 			page 8


  85              		.loc 2 287 6 is_stmt 0 view .LVU8
  86 0000 2DE9F04F 		push	{r4, r5, r6, r7, r8, r9, r10, fp, lr}
  87              		.cfi_def_cfa_offset 36
  88              		.cfi_offset 4, -36
  89              		.cfi_offset 5, -32
  90              		.cfi_offset 6, -28
  91              		.cfi_offset 7, -24
  92              		.cfi_offset 8, -20
  93              		.cfi_offset 9, -16
  94              		.cfi_offset 10, -12
  95              		.cfi_offset 11, -8
  96              		.cfi_offset 14, -4
  97 0004 8246     		mov	r10, r0
  98 0006 89B0     		sub	sp, sp, #36
  99              		.cfi_def_cfa_offset 72
 100              	.LBB368:
 101              		.loc 2 291 49 view .LVU9
 102 0008 FFF7FEFF 		bl	_ZN5daisy6System6GetNowEv
 103              	.LVL5:
 104              	.LBB292:
 105              	.LBB293:
 106              	.LBB294:
 107              		.file 3 "../../libDaisy//src/hid/disp/display.h"
   1:../../libDaisy//src/hid/disp/display.h **** #pragma once
   2:../../libDaisy//src/hid/disp/display.h **** #ifndef DSY_DISPLAY_H
   3:../../libDaisy//src/hid/disp/display.h **** #define DSY_DISPLAY_H /**< Macro */
   4:../../libDaisy//src/hid/disp/display.h **** #include <cmath>
   5:../../libDaisy//src/hid/disp/display.h **** #include "util/oled_fonts.h"
   6:../../libDaisy//src/hid/disp/display.h **** #include "daisy_core.h"
   7:../../libDaisy//src/hid/disp/display.h **** #include "graphics_common.h"
   8:../../libDaisy//src/hid/disp/display.h **** 
   9:../../libDaisy//src/hid/disp/display.h **** #ifndef deg2rad
  10:../../libDaisy//src/hid/disp/display.h **** #define deg2rad(deg) ((deg)*3.141592 / 180.0)
  11:../../libDaisy//src/hid/disp/display.h **** #endif
  12:../../libDaisy//src/hid/disp/display.h **** 
  13:../../libDaisy//src/hid/disp/display.h **** namespace daisy
  14:../../libDaisy//src/hid/disp/display.h **** {
  15:../../libDaisy//src/hid/disp/display.h **** /** 
  16:../../libDaisy//src/hid/disp/display.h ****  * This interface is used as a base class for all types of 1bit-per-pixel
  17:../../libDaisy//src/hid/disp/display.h ****  * graphics displays.
  18:../../libDaisy//src/hid/disp/display.h **** */
  19:../../libDaisy//src/hid/disp/display.h **** class OneBitGraphicsDisplay
  20:../../libDaisy//src/hid/disp/display.h **** {
  21:../../libDaisy//src/hid/disp/display.h ****   public:
  22:../../libDaisy//src/hid/disp/display.h ****     OneBitGraphicsDisplay() {}
  23:../../libDaisy//src/hid/disp/display.h ****     virtual ~OneBitGraphicsDisplay() {}
  24:../../libDaisy//src/hid/disp/display.h **** 
  25:../../libDaisy//src/hid/disp/display.h ****     virtual uint16_t Height() const = 0;
  26:../../libDaisy//src/hid/disp/display.h ****     virtual uint16_t Width() const  = 0;
  27:../../libDaisy//src/hid/disp/display.h **** 
  28:../../libDaisy//src/hid/disp/display.h ****     Rectangle GetBounds() const
  29:../../libDaisy//src/hid/disp/display.h ****     {
  30:../../libDaisy//src/hid/disp/display.h ****         return Rectangle(int16_t(Width()), int16_t(Height()));
  31:../../libDaisy//src/hid/disp/display.h ****     }
  32:../../libDaisy//src/hid/disp/display.h **** 
  33:../../libDaisy//src/hid/disp/display.h **** 
  34:../../libDaisy//src/hid/disp/display.h ****     size_t CurrentX() { return currentX_; };
ARM GAS  /var/folders/1y/_321xjh9623c014x9_qw12rr0000gn/T//ccXZVGQV.s 			page 9


  35:../../libDaisy//src/hid/disp/display.h ****     size_t CurrentY() { return currentY_; };
  36:../../libDaisy//src/hid/disp/display.h **** 
  37:../../libDaisy//src/hid/disp/display.h ****     /** 
  38:../../libDaisy//src/hid/disp/display.h ****     Fills the entire display with either on/off.
  39:../../libDaisy//src/hid/disp/display.h ****     \param on Sets on or off.
  40:../../libDaisy//src/hid/disp/display.h ****     */
  41:../../libDaisy//src/hid/disp/display.h ****     virtual void Fill(bool on) = 0;
  42:../../libDaisy//src/hid/disp/display.h **** 
  43:../../libDaisy//src/hid/disp/display.h ****     /**
  44:../../libDaisy//src/hid/disp/display.h ****     Sets the pixel at the specified coordinate to be on/off.
  45:../../libDaisy//src/hid/disp/display.h ****     \param x   x Coordinate
  46:../../libDaisy//src/hid/disp/display.h ****     \param y   y coordinate
  47:../../libDaisy//src/hid/disp/display.h ****     \param on  on or off
  48:../../libDaisy//src/hid/disp/display.h ****     */
  49:../../libDaisy//src/hid/disp/display.h ****     virtual void DrawPixel(uint_fast8_t x, uint_fast8_t y, bool on) = 0;
  50:../../libDaisy//src/hid/disp/display.h **** 
  51:../../libDaisy//src/hid/disp/display.h ****     /**
  52:../../libDaisy//src/hid/disp/display.h ****     Draws a line from (x1, y1) to (y1, y2)
  53:../../libDaisy//src/hid/disp/display.h ****     \param x1  x Coordinate of the starting point
  54:../../libDaisy//src/hid/disp/display.h ****     \param y1  y Coordinate of the starting point
  55:../../libDaisy//src/hid/disp/display.h ****     \param x2  x Coordinate of the ending point
  56:../../libDaisy//src/hid/disp/display.h ****     \param y2  y Coordinate of the ending point
  57:../../libDaisy//src/hid/disp/display.h ****     \param on  on or off
  58:../../libDaisy//src/hid/disp/display.h ****     */
  59:../../libDaisy//src/hid/disp/display.h ****     virtual void DrawLine(uint_fast8_t x1,
  60:../../libDaisy//src/hid/disp/display.h ****                           uint_fast8_t y1,
  61:../../libDaisy//src/hid/disp/display.h ****                           uint_fast8_t x2,
  62:../../libDaisy//src/hid/disp/display.h ****                           uint_fast8_t y2,
  63:../../libDaisy//src/hid/disp/display.h ****                           bool         on)
  64:../../libDaisy//src/hid/disp/display.h ****         = 0;
  65:../../libDaisy//src/hid/disp/display.h **** 
  66:../../libDaisy//src/hid/disp/display.h ****     /**
  67:../../libDaisy//src/hid/disp/display.h ****     Draws a rectangle based on two coordinates.
  68:../../libDaisy//src/hid/disp/display.h ****     \param x1 x Coordinate of the first point
  69:../../libDaisy//src/hid/disp/display.h ****     \param y1 y Coordinate of the first point
  70:../../libDaisy//src/hid/disp/display.h ****     \param x2 x Coordinate of the second point
  71:../../libDaisy//src/hid/disp/display.h ****     \param y2 y Coordinate of the second point
  72:../../libDaisy//src/hid/disp/display.h ****     \param on on or off
  73:../../libDaisy//src/hid/disp/display.h ****     \param fill fill the rectangle or draw only the outline
  74:../../libDaisy//src/hid/disp/display.h ****     */
  75:../../libDaisy//src/hid/disp/display.h ****     virtual void DrawRect(uint_fast8_t x1,
  76:../../libDaisy//src/hid/disp/display.h ****                           uint_fast8_t y1,
  77:../../libDaisy//src/hid/disp/display.h ****                           uint_fast8_t x2,
  78:../../libDaisy//src/hid/disp/display.h ****                           uint_fast8_t y2,
  79:../../libDaisy//src/hid/disp/display.h ****                           bool         on,
  80:../../libDaisy//src/hid/disp/display.h ****                           bool         fill = false)
  81:../../libDaisy//src/hid/disp/display.h ****         = 0;
  82:../../libDaisy//src/hid/disp/display.h **** 
  83:../../libDaisy//src/hid/disp/display.h ****     /**
  84:../../libDaisy//src/hid/disp/display.h ****     Draws a rectangle.
  85:../../libDaisy//src/hid/disp/display.h ****     \param rect the rectangle
  86:../../libDaisy//src/hid/disp/display.h ****     \param on   on or off
  87:../../libDaisy//src/hid/disp/display.h ****     \param fill fill the rectangle or draw only the outline
  88:../../libDaisy//src/hid/disp/display.h ****     */
  89:../../libDaisy//src/hid/disp/display.h ****     void DrawRect(const Rectangle& rect, bool on, bool fill = false)
  90:../../libDaisy//src/hid/disp/display.h ****     {
  91:../../libDaisy//src/hid/disp/display.h ****         DrawRect(rect.GetX(),
ARM GAS  /var/folders/1y/_321xjh9623c014x9_qw12rr0000gn/T//ccXZVGQV.s 			page 10


  92:../../libDaisy//src/hid/disp/display.h ****                  rect.GetY(),
  93:../../libDaisy//src/hid/disp/display.h ****                  rect.GetRight(),
  94:../../libDaisy//src/hid/disp/display.h ****                  rect.GetBottom(),
  95:../../libDaisy//src/hid/disp/display.h ****                  on,
  96:../../libDaisy//src/hid/disp/display.h ****                  fill);
  97:../../libDaisy//src/hid/disp/display.h ****     }
  98:../../libDaisy//src/hid/disp/display.h **** 
  99:../../libDaisy//src/hid/disp/display.h ****     /**
 100:../../libDaisy//src/hid/disp/display.h ****     Draws an arc around the specified coordinate
 101:../../libDaisy//src/hid/disp/display.h ****     \param x           x Coordinate of the center of the arc
 102:../../libDaisy//src/hid/disp/display.h ****     \param y           y Coordinate of the center of the arc
 103:../../libDaisy//src/hid/disp/display.h ****     \param radius      radius of the arc
 104:../../libDaisy//src/hid/disp/display.h ****     \param start_angle angle where to start the arc
 105:../../libDaisy//src/hid/disp/display.h ****     \param sweep       total angle of the arc
 106:../../libDaisy//src/hid/disp/display.h ****     \param on  on or off
 107:../../libDaisy//src/hid/disp/display.h ****     */
 108:../../libDaisy//src/hid/disp/display.h ****     virtual void DrawArc(uint_fast8_t x,
 109:../../libDaisy//src/hid/disp/display.h ****                          uint_fast8_t y,
 110:../../libDaisy//src/hid/disp/display.h ****                          uint_fast8_t radius,
 111:../../libDaisy//src/hid/disp/display.h ****                          int_fast16_t start_angle,
 112:../../libDaisy//src/hid/disp/display.h ****                          int_fast16_t sweep,
 113:../../libDaisy//src/hid/disp/display.h ****                          bool         on)
 114:../../libDaisy//src/hid/disp/display.h ****         = 0;
 115:../../libDaisy//src/hid/disp/display.h **** 
 116:../../libDaisy//src/hid/disp/display.h ****     /**
 117:../../libDaisy//src/hid/disp/display.h ****     Draws a circle around the specified coordinate
 118:../../libDaisy//src/hid/disp/display.h ****     \param x           x Coordinate of the center of the circle
 119:../../libDaisy//src/hid/disp/display.h ****     \param y           y Coordinate of the center of the circle
 120:../../libDaisy//src/hid/disp/display.h ****     \param radius      radius of the circle
 121:../../libDaisy//src/hid/disp/display.h ****     \param on  on or off
 122:../../libDaisy//src/hid/disp/display.h ****     */
 123:../../libDaisy//src/hid/disp/display.h ****     void
 124:../../libDaisy//src/hid/disp/display.h ****     DrawCircle(uint_fast8_t x, uint_fast8_t y, uint_fast8_t radius, bool on)
 125:../../libDaisy//src/hid/disp/display.h ****     {
 126:../../libDaisy//src/hid/disp/display.h ****         DrawArc(x, y, radius, 0, 360, on);
 127:../../libDaisy//src/hid/disp/display.h ****     };
 128:../../libDaisy//src/hid/disp/display.h **** 
 129:../../libDaisy//src/hid/disp/display.h ****     /** 
 130:../../libDaisy//src/hid/disp/display.h ****     Writes the character with the specific FontDef
 131:../../libDaisy//src/hid/disp/display.h ****     to the display buffer at the current Cursor position.
 132:../../libDaisy//src/hid/disp/display.h ****     \param ch character to be written
 133:../../libDaisy//src/hid/disp/display.h ****     \param font font to be written in
 134:../../libDaisy//src/hid/disp/display.h ****     \param on    on or off
 135:../../libDaisy//src/hid/disp/display.h ****     \return &
 136:../../libDaisy//src/hid/disp/display.h ****     */
 137:../../libDaisy//src/hid/disp/display.h ****     virtual char WriteChar(char ch, FontDef font, bool on) = 0;
 138:../../libDaisy//src/hid/disp/display.h **** 
 139:../../libDaisy//src/hid/disp/display.h ****     /** 
 140:../../libDaisy//src/hid/disp/display.h ****     Similar to WriteChar, except it will handle an entire String.
 141:../../libDaisy//src/hid/disp/display.h ****     Wrapping does not happen automatically, so the width
 142:../../libDaisy//src/hid/disp/display.h ****     of the string must be kept within the dimensions of the screen.
 143:../../libDaisy//src/hid/disp/display.h ****     \param str string to be written
 144:../../libDaisy//src/hid/disp/display.h ****     \param font font to use
 145:../../libDaisy//src/hid/disp/display.h ****     \param on  on or off
 146:../../libDaisy//src/hid/disp/display.h ****     \return &
 147:../../libDaisy//src/hid/disp/display.h ****     */
 148:../../libDaisy//src/hid/disp/display.h ****     virtual char WriteString(const char* str, FontDef font, bool on) = 0;
ARM GAS  /var/folders/1y/_321xjh9623c014x9_qw12rr0000gn/T//ccXZVGQV.s 			page 11


 149:../../libDaisy//src/hid/disp/display.h **** 
 150:../../libDaisy//src/hid/disp/display.h ****     /** 
 151:../../libDaisy//src/hid/disp/display.h ****     Similar to WriteString but justified within a bounding box.
 152:../../libDaisy//src/hid/disp/display.h ****     \param str          string to be written
 153:../../libDaisy//src/hid/disp/display.h ****     \param font         font to use
 154:../../libDaisy//src/hid/disp/display.h ****     \param boundingBox  the bounding box to draw the text in
 155:../../libDaisy//src/hid/disp/display.h ****     \param alignment    the alignment to use
 156:../../libDaisy//src/hid/disp/display.h ****     \param on           on or off
 157:../../libDaisy//src/hid/disp/display.h ****     \return The rectangle that was drawn to
 158:../../libDaisy//src/hid/disp/display.h ****     */
 159:../../libDaisy//src/hid/disp/display.h ****     virtual Rectangle WriteStringAligned(const char*    str,
 160:../../libDaisy//src/hid/disp/display.h ****                                          const FontDef& font,
 161:../../libDaisy//src/hid/disp/display.h ****                                          Rectangle      boundingBox,
 162:../../libDaisy//src/hid/disp/display.h ****                                          Alignment      alignment,
 163:../../libDaisy//src/hid/disp/display.h ****                                          bool           on)
 164:../../libDaisy//src/hid/disp/display.h ****         = 0;
 165:../../libDaisy//src/hid/disp/display.h **** 
 166:../../libDaisy//src/hid/disp/display.h ****     /** 
 167:../../libDaisy//src/hid/disp/display.h ****     Moves the 'Cursor' position used for WriteChar, and WriteStr to the specified coordinate.
 168:../../libDaisy//src/hid/disp/display.h ****     \param x x pos
 169:../../libDaisy//src/hid/disp/display.h ****     \param y y pos
 170:../../libDaisy//src/hid/disp/display.h ****     */
 171:../../libDaisy//src/hid/disp/display.h ****     void SetCursor(uint16_t x, uint16_t y)
 172:../../libDaisy//src/hid/disp/display.h ****     {
 173:../../libDaisy//src/hid/disp/display.h ****         currentX_ = (x >= Width()) ? Width() - 1 : x;
 174:../../libDaisy//src/hid/disp/display.h ****         currentY_ = (y >= Height()) ? Height() - 1 : y;
 175:../../libDaisy//src/hid/disp/display.h ****     }
 176:../../libDaisy//src/hid/disp/display.h **** 
 177:../../libDaisy//src/hid/disp/display.h ****     /** 
 178:../../libDaisy//src/hid/disp/display.h ****     Writes the current display buffer to the OLED device using SPI or I2C depending on 
 179:../../libDaisy//src/hid/disp/display.h ****     how the object was initialized.
 180:../../libDaisy//src/hid/disp/display.h ****     */
 181:../../libDaisy//src/hid/disp/display.h ****     virtual void Update() = 0;
 182:../../libDaisy//src/hid/disp/display.h **** 
 183:../../libDaisy//src/hid/disp/display.h ****   protected:
 184:../../libDaisy//src/hid/disp/display.h ****     uint16_t currentX_;
 185:../../libDaisy//src/hid/disp/display.h ****     uint16_t currentY_;
 186:../../libDaisy//src/hid/disp/display.h **** };
 187:../../libDaisy//src/hid/disp/display.h **** 
 188:../../libDaisy//src/hid/disp/display.h **** /** This class is intended as a intermediary class for your actual implementation of the OneBitGrap
 189:../../libDaisy//src/hid/disp/display.h ****  *  interface. It uses the CRTP design pattern where the template argument is the child class. It p
 190:../../libDaisy//src/hid/disp/display.h ****  *  implementations for most of the functions, except DrawPixel(), Update() and Fill(), which you'l
 191:../../libDaisy//src/hid/disp/display.h ****  *  to provide in your child class.
 192:../../libDaisy//src/hid/disp/display.h ****  *  The main goal of this class is to provide common drawing functions without relying on massive a
 193:../../libDaisy//src/hid/disp/display.h ****  *  virtual function calls that would result in a performance loss. To achieve this, any drawing fu
 194:../../libDaisy//src/hid/disp/display.h ****  *  is implemented here and internally calls other drawing functions (e.g. DrawRect() which interna
 195:../../libDaisy//src/hid/disp/display.h ****  *  DrawPixel() and DrawLine()) makes these calls via the qualified name of these functions to expl
 196:../../libDaisy//src/hid/disp/display.h ****  *  suppress the virtual dispatch mechanism like this:
 197:../../libDaisy//src/hid/disp/display.h ****  * 
 198:../../libDaisy//src/hid/disp/display.h ****  *      ChildType::DrawPixel(...); // no virtual function call; direct call into the child class fu
 199:../../libDaisy//src/hid/disp/display.h ****  *  
 200:../../libDaisy//src/hid/disp/display.h ****  *  To create a custom OneBitGraphicsDisplay implementation, you can 
 201:../../libDaisy//src/hid/disp/display.h ****  *  A) inherit from OneBitGraphicsDisplay directly and provide all the drawing functions yourself
 202:../../libDaisy//src/hid/disp/display.h ****  *  B) Inherit from OneBitGraphicsDisplayImpl and only provide DrawPixel(), Fill() and Update()
 203:../../libDaisy//src/hid/disp/display.h ****  *     like this:
 204:../../libDaisy//src/hid/disp/display.h ****  *  
 205:../../libDaisy//src/hid/disp/display.h ****  *      class MyDisplayClass : public OneBitGraphicsDisplayImpl<MyDisplayClass> 
ARM GAS  /var/folders/1y/_321xjh9623c014x9_qw12rr0000gn/T//ccXZVGQV.s 			page 12


 206:../../libDaisy//src/hid/disp/display.h ****  *      {
 207:../../libDaisy//src/hid/disp/display.h ****  *      public:
 208:../../libDaisy//src/hid/disp/display.h ****  *          void Fill() override { ... };
 209:../../libDaisy//src/hid/disp/display.h ****  *          void DrawPixel(uint_fast8_t x, uint_fast8_t y, bool on) override { ... };
 210:../../libDaisy//src/hid/disp/display.h ****  *          void Update() override { ... }
 211:../../libDaisy//src/hid/disp/display.h ****  *      };
 212:../../libDaisy//src/hid/disp/display.h ****  *  
 213:../../libDaisy//src/hid/disp/display.h ****  */
 214:../../libDaisy//src/hid/disp/display.h **** template <class ChildType>
 215:../../libDaisy//src/hid/disp/display.h **** class OneBitGraphicsDisplayImpl : public OneBitGraphicsDisplay
 216:../../libDaisy//src/hid/disp/display.h **** {
 217:../../libDaisy//src/hid/disp/display.h ****   public:
 218:../../libDaisy//src/hid/disp/display.h ****     OneBitGraphicsDisplayImpl() {}
 219:../../libDaisy//src/hid/disp/display.h ****     virtual ~OneBitGraphicsDisplayImpl() {}
 220:../../libDaisy//src/hid/disp/display.h **** 
 221:../../libDaisy//src/hid/disp/display.h ****     void DrawLine(uint_fast8_t x1,
 222:../../libDaisy//src/hid/disp/display.h ****                   uint_fast8_t y1,
 223:../../libDaisy//src/hid/disp/display.h ****                   uint_fast8_t x2,
 224:../../libDaisy//src/hid/disp/display.h ****                   uint_fast8_t y2,
 225:../../libDaisy//src/hid/disp/display.h ****                   bool         on) override
 226:../../libDaisy//src/hid/disp/display.h ****     {
 227:../../libDaisy//src/hid/disp/display.h ****         int_fast16_t deltaX = abs((int_fast16_t)x2 - (int_fast16_t)x1);
 228:../../libDaisy//src/hid/disp/display.h ****         int_fast16_t deltaY = abs((int_fast16_t)y2 - (int_fast16_t)y1);
 229:../../libDaisy//src/hid/disp/display.h ****         int_fast16_t signX  = ((x1 < x2) ? 1 : -1);
 230:../../libDaisy//src/hid/disp/display.h ****         int_fast16_t signY  = ((y1 < y2) ? 1 : -1);
 231:../../libDaisy//src/hid/disp/display.h ****         int_fast16_t error  = deltaX - deltaY;
 232:../../libDaisy//src/hid/disp/display.h ****         int_fast16_t error2;
 233:../../libDaisy//src/hid/disp/display.h **** 
 234:../../libDaisy//src/hid/disp/display.h ****         // If we write "ChildType::DrawPixel(x2, y2, on);", we end up with
 235:../../libDaisy//src/hid/disp/display.h ****         // all sorts of weird compiler errors when the Child class is a template
 236:../../libDaisy//src/hid/disp/display.h ****         // class. The only way around this is to use this very verbose syntax:
 237:../../libDaisy//src/hid/disp/display.h ****         ((ChildType*)(this))->ChildType::DrawPixel(x2, y2, on);
 238:../../libDaisy//src/hid/disp/display.h **** 
 239:../../libDaisy//src/hid/disp/display.h ****         while((x1 != x2) || (y1 != y2))
 240:../../libDaisy//src/hid/disp/display.h ****         {
 241:../../libDaisy//src/hid/disp/display.h ****             ((ChildType*)(this))->ChildType::DrawPixel(x1, y1, on);
 242:../../libDaisy//src/hid/disp/display.h ****             error2 = error * 2;
 243:../../libDaisy//src/hid/disp/display.h ****             if(error2 > -deltaY)
 244:../../libDaisy//src/hid/disp/display.h ****             {
 245:../../libDaisy//src/hid/disp/display.h ****                 error -= deltaY;
 246:../../libDaisy//src/hid/disp/display.h ****                 x1 += signX;
 247:../../libDaisy//src/hid/disp/display.h ****             }
 248:../../libDaisy//src/hid/disp/display.h **** 
 249:../../libDaisy//src/hid/disp/display.h ****             if(error2 < deltaX)
 250:../../libDaisy//src/hid/disp/display.h ****             {
 251:../../libDaisy//src/hid/disp/display.h ****                 error += deltaX;
 252:../../libDaisy//src/hid/disp/display.h ****                 y1 += signY;
 253:../../libDaisy//src/hid/disp/display.h ****             }
 254:../../libDaisy//src/hid/disp/display.h ****         }
 255:../../libDaisy//src/hid/disp/display.h ****     }
 256:../../libDaisy//src/hid/disp/display.h **** 
 257:../../libDaisy//src/hid/disp/display.h ****     void DrawRect(uint_fast8_t x1,
 258:../../libDaisy//src/hid/disp/display.h ****                   uint_fast8_t y1,
 259:../../libDaisy//src/hid/disp/display.h ****                   uint_fast8_t x2,
 260:../../libDaisy//src/hid/disp/display.h ****                   uint_fast8_t y2,
 261:../../libDaisy//src/hid/disp/display.h ****                   bool         on,
 262:../../libDaisy//src/hid/disp/display.h ****                   bool         fill = false) override
ARM GAS  /var/folders/1y/_321xjh9623c014x9_qw12rr0000gn/T//ccXZVGQV.s 			page 13


 263:../../libDaisy//src/hid/disp/display.h ****     {
 264:../../libDaisy//src/hid/disp/display.h ****         if(fill)
 265:../../libDaisy//src/hid/disp/display.h ****         {
 266:../../libDaisy//src/hid/disp/display.h ****             for(uint_fast8_t x = x1; x <= x2; x++)
 108              		.loc 3 266 30 view .LVU10
 109 000c 0125     		movs	r5, #1
 110              	.LBE294:
 111              	.LBE293:
 112              	.LBE292:
 113              		.loc 2 291 29 view .LVU11
 114 000e 0AF59033 		add	r3, r10, #73728
 115 0012 C3F8700B 		str	r0, [r3, #2928]
 292:Dubby.cpp     ****         display.DrawRect(PANE_X_START, PANE_Y_START, PANE_X_END, PANE_Y_END, false, true);
 116              		.loc 2 292 9 is_stmt 1 view .LVU12
 117              	.LVL6:
 118              	.LBB313:
 119              	.LBI292:
 257:../../libDaisy//src/hid/disp/display.h ****                   uint_fast8_t y1,
 120              		.loc 3 257 10 view .LVU13
 121              	.LBB311:
 122              	.LBI293:
 257:../../libDaisy//src/hid/disp/display.h ****                   uint_fast8_t y1,
 123              		.loc 3 257 10 view .LVU14
 124              	.LBB309:
 125              		.loc 3 266 40 view .LVU15
 126              	.L6:
 127              	.LBB295:
 267:../../libDaisy//src/hid/disp/display.h ****             {
 268:../../libDaisy//src/hid/disp/display.h ****                 for(uint_fast8_t y = y1; y <= y2; y++)
 128              		.loc 3 268 44 view .LVU16
 129              		.loc 3 268 34 is_stmt 0 view .LVU17
 130 0016 0122     		movs	r2, #1
 131              	.LVL7:
 132              	.L5:
 133              	.LBB296:
 134              	.LBI296:
  29:../../libDaisy//src/hid/disp/oled_display.h **** 
  30:../../libDaisy//src/hid/disp/oled_display.h ****     /** 
  31:../../libDaisy//src/hid/disp/oled_display.h ****     Fills the entire display with either on/off.
  32:../../libDaisy//src/hid/disp/oled_display.h ****     \param on Sets on or off.
  33:../../libDaisy//src/hid/disp/oled_display.h ****     */
  34:../../libDaisy//src/hid/disp/oled_display.h ****     void Fill(bool on) override { driver_.Fill(on); }
  35:../../libDaisy//src/hid/disp/oled_display.h **** 
  36:../../libDaisy//src/hid/disp/oled_display.h ****     /**
  37:../../libDaisy//src/hid/disp/oled_display.h ****     Sets the pixel at the specified coordinate to be on/off.
  38:../../libDaisy//src/hid/disp/oled_display.h ****     \param x   x Coordinate
  39:../../libDaisy//src/hid/disp/oled_display.h ****     \param y   y coordinate
  40:../../libDaisy//src/hid/disp/oled_display.h ****     \param on  on or off
  41:../../libDaisy//src/hid/disp/oled_display.h ****     */
  42:../../libDaisy//src/hid/disp/oled_display.h ****     void DrawPixel(uint_fast8_t x, uint_fast8_t y, bool on) override
 135              		.loc 1 42 10 is_stmt 1 view .LVU18
 136              	.LBB297:
 137              	.LBI297:
 138              		.file 4 "../../libDaisy//src/dev/oled_ssd130x.h"
   1:../../libDaisy//src/dev/oled_ssd130x.h **** #pragma once
   2:../../libDaisy//src/dev/oled_ssd130x.h **** #ifndef SA_OLED_SSD130X_H
   3:../../libDaisy//src/dev/oled_ssd130x.h **** #define SA_OLED_SSD130X_H /**< & */
ARM GAS  /var/folders/1y/_321xjh9623c014x9_qw12rr0000gn/T//ccXZVGQV.s 			page 14


   4:../../libDaisy//src/dev/oled_ssd130x.h **** 
   5:../../libDaisy//src/dev/oled_ssd130x.h **** #include "per/i2c.h"
   6:../../libDaisy//src/dev/oled_ssd130x.h **** #include "per/spi.h"
   7:../../libDaisy//src/dev/oled_ssd130x.h **** #include "per/gpio.h"
   8:../../libDaisy//src/dev/oled_ssd130x.h **** #include "sys/system.h"
   9:../../libDaisy//src/dev/oled_ssd130x.h **** 
  10:../../libDaisy//src/dev/oled_ssd130x.h **** namespace daisy
  11:../../libDaisy//src/dev/oled_ssd130x.h **** {
  12:../../libDaisy//src/dev/oled_ssd130x.h **** /**
  13:../../libDaisy//src/dev/oled_ssd130x.h ****  * I2C Transport for SSD1306 / SSD1309 OLED display devices
  14:../../libDaisy//src/dev/oled_ssd130x.h ****  */
  15:../../libDaisy//src/dev/oled_ssd130x.h **** class SSD130xI2CTransport
  16:../../libDaisy//src/dev/oled_ssd130x.h **** {
  17:../../libDaisy//src/dev/oled_ssd130x.h ****   public:
  18:../../libDaisy//src/dev/oled_ssd130x.h ****     struct Config
  19:../../libDaisy//src/dev/oled_ssd130x.h ****     {
  20:../../libDaisy//src/dev/oled_ssd130x.h ****         Config()
  21:../../libDaisy//src/dev/oled_ssd130x.h ****         {
  22:../../libDaisy//src/dev/oled_ssd130x.h ****             // Intialize using defaults
  23:../../libDaisy//src/dev/oled_ssd130x.h ****             Defaults();
  24:../../libDaisy//src/dev/oled_ssd130x.h ****         }
  25:../../libDaisy//src/dev/oled_ssd130x.h ****         I2CHandle::Config i2c_config;
  26:../../libDaisy//src/dev/oled_ssd130x.h ****         uint8_t           i2c_address;
  27:../../libDaisy//src/dev/oled_ssd130x.h ****         void              Defaults()
  28:../../libDaisy//src/dev/oled_ssd130x.h ****         {
  29:../../libDaisy//src/dev/oled_ssd130x.h ****             i2c_config.periph         = I2CHandle::Config::Peripheral::I2C_1;
  30:../../libDaisy//src/dev/oled_ssd130x.h ****             i2c_config.speed          = I2CHandle::Config::Speed::I2C_1MHZ;
  31:../../libDaisy//src/dev/oled_ssd130x.h ****             i2c_config.mode           = I2CHandle::Config::Mode::I2C_MASTER;
  32:../../libDaisy//src/dev/oled_ssd130x.h ****             i2c_config.pin_config.scl = {DSY_GPIOB, 8};
  33:../../libDaisy//src/dev/oled_ssd130x.h ****             i2c_config.pin_config.sda = {DSY_GPIOB, 9};
  34:../../libDaisy//src/dev/oled_ssd130x.h ****             i2c_address               = 0x3C;
  35:../../libDaisy//src/dev/oled_ssd130x.h ****         }
  36:../../libDaisy//src/dev/oled_ssd130x.h ****     };
  37:../../libDaisy//src/dev/oled_ssd130x.h ****     void Init(const Config& config)
  38:../../libDaisy//src/dev/oled_ssd130x.h ****     {
  39:../../libDaisy//src/dev/oled_ssd130x.h ****         i2c_address_ = config.i2c_address;
  40:../../libDaisy//src/dev/oled_ssd130x.h ****         i2c_.Init(config.i2c_config);
  41:../../libDaisy//src/dev/oled_ssd130x.h ****     };
  42:../../libDaisy//src/dev/oled_ssd130x.h ****     void SendCommand(uint8_t cmd)
  43:../../libDaisy//src/dev/oled_ssd130x.h ****     {
  44:../../libDaisy//src/dev/oled_ssd130x.h ****         uint8_t buf[2] = {0X00, cmd};
  45:../../libDaisy//src/dev/oled_ssd130x.h ****         i2c_.TransmitBlocking(i2c_address_, buf, 2, 1000);
  46:../../libDaisy//src/dev/oled_ssd130x.h ****     };
  47:../../libDaisy//src/dev/oled_ssd130x.h **** 
  48:../../libDaisy//src/dev/oled_ssd130x.h ****     void SendData(uint8_t* buff, size_t size)
  49:../../libDaisy//src/dev/oled_ssd130x.h ****     {
  50:../../libDaisy//src/dev/oled_ssd130x.h ****         for(size_t i = 0; i < size; i++)
  51:../../libDaisy//src/dev/oled_ssd130x.h ****         {
  52:../../libDaisy//src/dev/oled_ssd130x.h ****             uint8_t buf[2] = {0X40, buff[i]};
  53:../../libDaisy//src/dev/oled_ssd130x.h ****             i2c_.TransmitBlocking(i2c_address_, buf, 2, 1000);
  54:../../libDaisy//src/dev/oled_ssd130x.h ****         }
  55:../../libDaisy//src/dev/oled_ssd130x.h ****     };
  56:../../libDaisy//src/dev/oled_ssd130x.h **** 
  57:../../libDaisy//src/dev/oled_ssd130x.h ****   private:
  58:../../libDaisy//src/dev/oled_ssd130x.h ****     daisy::I2CHandle i2c_;
  59:../../libDaisy//src/dev/oled_ssd130x.h ****     uint8_t          i2c_address_;
  60:../../libDaisy//src/dev/oled_ssd130x.h **** };
ARM GAS  /var/folders/1y/_321xjh9623c014x9_qw12rr0000gn/T//ccXZVGQV.s 			page 15


  61:../../libDaisy//src/dev/oled_ssd130x.h **** 
  62:../../libDaisy//src/dev/oled_ssd130x.h **** /**
  63:../../libDaisy//src/dev/oled_ssd130x.h ****  * 4 Wire SPI Transport for SSD1306 / SSD1309 OLED display devices
  64:../../libDaisy//src/dev/oled_ssd130x.h ****  */
  65:../../libDaisy//src/dev/oled_ssd130x.h **** class SSD130x4WireSpiTransport
  66:../../libDaisy//src/dev/oled_ssd130x.h **** {
  67:../../libDaisy//src/dev/oled_ssd130x.h ****   public:
  68:../../libDaisy//src/dev/oled_ssd130x.h ****     struct Config
  69:../../libDaisy//src/dev/oled_ssd130x.h ****     {
  70:../../libDaisy//src/dev/oled_ssd130x.h ****         Config()
  71:../../libDaisy//src/dev/oled_ssd130x.h ****         {
  72:../../libDaisy//src/dev/oled_ssd130x.h ****             // Initialize using defaults
  73:../../libDaisy//src/dev/oled_ssd130x.h ****             Defaults();
  74:../../libDaisy//src/dev/oled_ssd130x.h ****         }
  75:../../libDaisy//src/dev/oled_ssd130x.h ****         SpiHandle::Config spi_config;
  76:../../libDaisy//src/dev/oled_ssd130x.h ****         struct
  77:../../libDaisy//src/dev/oled_ssd130x.h ****         {
  78:../../libDaisy//src/dev/oled_ssd130x.h ****             dsy_gpio_pin dc;    /**< & */
  79:../../libDaisy//src/dev/oled_ssd130x.h ****             dsy_gpio_pin reset; /**< & */
  80:../../libDaisy//src/dev/oled_ssd130x.h ****         } pin_config;
  81:../../libDaisy//src/dev/oled_ssd130x.h ****         void Defaults()
  82:../../libDaisy//src/dev/oled_ssd130x.h ****         {
  83:../../libDaisy//src/dev/oled_ssd130x.h ****             // SPI peripheral config
  84:../../libDaisy//src/dev/oled_ssd130x.h ****             spi_config.periph = SpiHandle::Config::Peripheral::SPI_1;
  85:../../libDaisy//src/dev/oled_ssd130x.h ****             spi_config.mode   = SpiHandle::Config::Mode::MASTER;
  86:../../libDaisy//src/dev/oled_ssd130x.h ****             spi_config.direction
  87:../../libDaisy//src/dev/oled_ssd130x.h ****                 = SpiHandle::Config::Direction::TWO_LINES_TX_ONLY;
  88:../../libDaisy//src/dev/oled_ssd130x.h ****             spi_config.datasize       = 8;
  89:../../libDaisy//src/dev/oled_ssd130x.h ****             spi_config.clock_polarity = SpiHandle::Config::ClockPolarity::LOW;
  90:../../libDaisy//src/dev/oled_ssd130x.h ****             spi_config.clock_phase    = SpiHandle::Config::ClockPhase::ONE_EDGE;
  91:../../libDaisy//src/dev/oled_ssd130x.h ****             spi_config.nss            = SpiHandle::Config::NSS::HARD_OUTPUT;
  92:../../libDaisy//src/dev/oled_ssd130x.h ****             spi_config.baud_prescaler = SpiHandle::Config::BaudPrescaler::PS_8;
  93:../../libDaisy//src/dev/oled_ssd130x.h ****             // SPI pin config
  94:../../libDaisy//src/dev/oled_ssd130x.h ****             spi_config.pin_config.sclk = {DSY_GPIOG, 11};
  95:../../libDaisy//src/dev/oled_ssd130x.h ****             spi_config.pin_config.miso = {DSY_GPIOX, 0};
  96:../../libDaisy//src/dev/oled_ssd130x.h ****             spi_config.pin_config.mosi = {DSY_GPIOB, 5};
  97:../../libDaisy//src/dev/oled_ssd130x.h ****             spi_config.pin_config.nss  = {DSY_GPIOG, 10};
  98:../../libDaisy//src/dev/oled_ssd130x.h ****             // SSD130x control pin config
  99:../../libDaisy//src/dev/oled_ssd130x.h ****             pin_config.dc    = {DSY_GPIOB, 4};
 100:../../libDaisy//src/dev/oled_ssd130x.h ****             pin_config.reset = {DSY_GPIOB, 15};
 101:../../libDaisy//src/dev/oled_ssd130x.h ****         }
 102:../../libDaisy//src/dev/oled_ssd130x.h ****     };
 103:../../libDaisy//src/dev/oled_ssd130x.h ****     void Init(const Config& config)
 104:../../libDaisy//src/dev/oled_ssd130x.h ****     {
 105:../../libDaisy//src/dev/oled_ssd130x.h ****         // Initialize both GPIO
 106:../../libDaisy//src/dev/oled_ssd130x.h ****         pin_dc_.mode = DSY_GPIO_MODE_OUTPUT_PP;
 107:../../libDaisy//src/dev/oled_ssd130x.h ****         pin_dc_.pin  = config.pin_config.dc;
 108:../../libDaisy//src/dev/oled_ssd130x.h ****         dsy_gpio_init(&pin_dc_);
 109:../../libDaisy//src/dev/oled_ssd130x.h ****         pin_reset_.mode = DSY_GPIO_MODE_OUTPUT_PP;
 110:../../libDaisy//src/dev/oled_ssd130x.h ****         pin_reset_.pin  = config.pin_config.reset;
 111:../../libDaisy//src/dev/oled_ssd130x.h ****         dsy_gpio_init(&pin_reset_);
 112:../../libDaisy//src/dev/oled_ssd130x.h **** 
 113:../../libDaisy//src/dev/oled_ssd130x.h ****         // Initialize SPI
 114:../../libDaisy//src/dev/oled_ssd130x.h ****         spi_.Init(config.spi_config);
 115:../../libDaisy//src/dev/oled_ssd130x.h **** 
 116:../../libDaisy//src/dev/oled_ssd130x.h ****         // Reset and Configure OLED.
 117:../../libDaisy//src/dev/oled_ssd130x.h ****         dsy_gpio_write(&pin_reset_, 0);
ARM GAS  /var/folders/1y/_321xjh9623c014x9_qw12rr0000gn/T//ccXZVGQV.s 			page 16


 118:../../libDaisy//src/dev/oled_ssd130x.h ****         System::Delay(10);
 119:../../libDaisy//src/dev/oled_ssd130x.h ****         dsy_gpio_write(&pin_reset_, 1);
 120:../../libDaisy//src/dev/oled_ssd130x.h ****         System::Delay(10);
 121:../../libDaisy//src/dev/oled_ssd130x.h ****     };
 122:../../libDaisy//src/dev/oled_ssd130x.h ****     void SendCommand(uint8_t cmd)
 123:../../libDaisy//src/dev/oled_ssd130x.h ****     {
 124:../../libDaisy//src/dev/oled_ssd130x.h ****         dsy_gpio_write(&pin_dc_, 0);
 125:../../libDaisy//src/dev/oled_ssd130x.h ****         spi_.BlockingTransmit(&cmd, 1);
 126:../../libDaisy//src/dev/oled_ssd130x.h ****     };
 127:../../libDaisy//src/dev/oled_ssd130x.h **** 
 128:../../libDaisy//src/dev/oled_ssd130x.h ****     void SendData(uint8_t* buff, size_t size)
 129:../../libDaisy//src/dev/oled_ssd130x.h ****     {
 130:../../libDaisy//src/dev/oled_ssd130x.h ****         dsy_gpio_write(&pin_dc_, 1);
 131:../../libDaisy//src/dev/oled_ssd130x.h ****         spi_.BlockingTransmit(buff, size);
 132:../../libDaisy//src/dev/oled_ssd130x.h ****     };
 133:../../libDaisy//src/dev/oled_ssd130x.h **** 
 134:../../libDaisy//src/dev/oled_ssd130x.h ****   private:
 135:../../libDaisy//src/dev/oled_ssd130x.h ****     SpiHandle spi_;
 136:../../libDaisy//src/dev/oled_ssd130x.h ****     dsy_gpio  pin_reset_;
 137:../../libDaisy//src/dev/oled_ssd130x.h ****     dsy_gpio  pin_dc_;
 138:../../libDaisy//src/dev/oled_ssd130x.h **** };
 139:../../libDaisy//src/dev/oled_ssd130x.h **** 
 140:../../libDaisy//src/dev/oled_ssd130x.h **** /**
 141:../../libDaisy//src/dev/oled_ssd130x.h ****  * Soft SPI Transport for SSD1306 / SSD1309 OLED display devices
 142:../../libDaisy//src/dev/oled_ssd130x.h ****  */
 143:../../libDaisy//src/dev/oled_ssd130x.h **** class SSD130x4WireSoftSpiTransport
 144:../../libDaisy//src/dev/oled_ssd130x.h **** {
 145:../../libDaisy//src/dev/oled_ssd130x.h ****   public:
 146:../../libDaisy//src/dev/oled_ssd130x.h ****     struct Config
 147:../../libDaisy//src/dev/oled_ssd130x.h ****     {
 148:../../libDaisy//src/dev/oled_ssd130x.h ****         Config()
 149:../../libDaisy//src/dev/oled_ssd130x.h ****         {
 150:../../libDaisy//src/dev/oled_ssd130x.h ****             // Initialize using defaults
 151:../../libDaisy//src/dev/oled_ssd130x.h ****             Defaults();
 152:../../libDaisy//src/dev/oled_ssd130x.h ****         }
 153:../../libDaisy//src/dev/oled_ssd130x.h ****         struct
 154:../../libDaisy//src/dev/oled_ssd130x.h ****         {
 155:../../libDaisy//src/dev/oled_ssd130x.h ****             uint32_t     sclk_delay;
 156:../../libDaisy//src/dev/oled_ssd130x.h ****             dsy_gpio_pin sclk;
 157:../../libDaisy//src/dev/oled_ssd130x.h ****             dsy_gpio_pin mosi;
 158:../../libDaisy//src/dev/oled_ssd130x.h ****             dsy_gpio_pin dc;
 159:../../libDaisy//src/dev/oled_ssd130x.h ****             dsy_gpio_pin reset;
 160:../../libDaisy//src/dev/oled_ssd130x.h ****         } pin_config;
 161:../../libDaisy//src/dev/oled_ssd130x.h ****         void Defaults()
 162:../../libDaisy//src/dev/oled_ssd130x.h ****         {
 163:../../libDaisy//src/dev/oled_ssd130x.h ****             pin_config.sclk_delay = 0; // fast as possible?!
 164:../../libDaisy//src/dev/oled_ssd130x.h ****             // SPI peripheral config
 165:../../libDaisy//src/dev/oled_ssd130x.h ****             pin_config.sclk = {DSY_GPIOD, 3}; /**< D10 - SPI2 SCK  */
 166:../../libDaisy//src/dev/oled_ssd130x.h ****             pin_config.mosi = {DSY_GPIOC, 3}; /**< D9  - SPI2 MOSI */
 167:../../libDaisy//src/dev/oled_ssd130x.h ****             // SSD130x control pin config
 168:../../libDaisy//src/dev/oled_ssd130x.h ****             pin_config.dc    = {DSY_GPIOC, 11}; //D2
 169:../../libDaisy//src/dev/oled_ssd130x.h ****             pin_config.reset = {DSY_GPIOC, 10}; //D3
 170:../../libDaisy//src/dev/oled_ssd130x.h ****         }
 171:../../libDaisy//src/dev/oled_ssd130x.h ****     };
 172:../../libDaisy//src/dev/oled_ssd130x.h ****     void Init(const Config& config)
 173:../../libDaisy//src/dev/oled_ssd130x.h ****     {
 174:../../libDaisy//src/dev/oled_ssd130x.h ****         // Initialize both GPIO
ARM GAS  /var/folders/1y/_321xjh9623c014x9_qw12rr0000gn/T//ccXZVGQV.s 			page 17


 175:../../libDaisy//src/dev/oled_ssd130x.h ****         pin_sclk_.mode = DSY_GPIO_MODE_OUTPUT_PP;
 176:../../libDaisy//src/dev/oled_ssd130x.h ****         pin_sclk_.pin  = config.pin_config.sclk;
 177:../../libDaisy//src/dev/oled_ssd130x.h ****         dsy_gpio_init(&pin_sclk_);
 178:../../libDaisy//src/dev/oled_ssd130x.h ****         dsy_gpio_write(&pin_sclk_, 1); //ClockPolarity::LOW
 179:../../libDaisy//src/dev/oled_ssd130x.h ****         clk_delay      = config.pin_config.sclk_delay;
 180:../../libDaisy//src/dev/oled_ssd130x.h ****         pin_mosi_.mode = DSY_GPIO_MODE_OUTPUT_PP;
 181:../../libDaisy//src/dev/oled_ssd130x.h ****         pin_mosi_.pin  = config.pin_config.mosi;
 182:../../libDaisy//src/dev/oled_ssd130x.h ****         dsy_gpio_init(&pin_mosi_);
 183:../../libDaisy//src/dev/oled_ssd130x.h ****         dsy_gpio_write(&pin_mosi_, 0);
 184:../../libDaisy//src/dev/oled_ssd130x.h **** 
 185:../../libDaisy//src/dev/oled_ssd130x.h ****         pin_dc_.mode = DSY_GPIO_MODE_OUTPUT_PP;
 186:../../libDaisy//src/dev/oled_ssd130x.h ****         pin_dc_.pin  = config.pin_config.dc;
 187:../../libDaisy//src/dev/oled_ssd130x.h ****         dsy_gpio_init(&pin_dc_);
 188:../../libDaisy//src/dev/oled_ssd130x.h ****         pin_reset_.mode = DSY_GPIO_MODE_OUTPUT_PP;
 189:../../libDaisy//src/dev/oled_ssd130x.h ****         pin_reset_.pin  = config.pin_config.reset;
 190:../../libDaisy//src/dev/oled_ssd130x.h ****         dsy_gpio_init(&pin_reset_);
 191:../../libDaisy//src/dev/oled_ssd130x.h **** 
 192:../../libDaisy//src/dev/oled_ssd130x.h ****         // Reset and Configure OLED.
 193:../../libDaisy//src/dev/oled_ssd130x.h ****         dsy_gpio_write(&pin_reset_, 0);
 194:../../libDaisy//src/dev/oled_ssd130x.h ****         System::Delay(10);
 195:../../libDaisy//src/dev/oled_ssd130x.h ****         dsy_gpio_write(&pin_reset_, 1);
 196:../../libDaisy//src/dev/oled_ssd130x.h ****         System::Delay(10);
 197:../../libDaisy//src/dev/oled_ssd130x.h ****     };
 198:../../libDaisy//src/dev/oled_ssd130x.h ****     void SendCommand(uint8_t cmd)
 199:../../libDaisy//src/dev/oled_ssd130x.h ****     {
 200:../../libDaisy//src/dev/oled_ssd130x.h ****         dsy_gpio_write(&pin_dc_, 0);
 201:../../libDaisy//src/dev/oled_ssd130x.h ****         SoftSpiTransmit(cmd);
 202:../../libDaisy//src/dev/oled_ssd130x.h ****     };
 203:../../libDaisy//src/dev/oled_ssd130x.h **** 
 204:../../libDaisy//src/dev/oled_ssd130x.h ****     void SendData(uint8_t* buff, size_t size)
 205:../../libDaisy//src/dev/oled_ssd130x.h ****     {
 206:../../libDaisy//src/dev/oled_ssd130x.h ****         dsy_gpio_write(&pin_dc_, 1);
 207:../../libDaisy//src/dev/oled_ssd130x.h ****         for(size_t i = 0; i < size; i++)
 208:../../libDaisy//src/dev/oled_ssd130x.h ****             SoftSpiTransmit(buff[i]);
 209:../../libDaisy//src/dev/oled_ssd130x.h ****     };
 210:../../libDaisy//src/dev/oled_ssd130x.h **** 
 211:../../libDaisy//src/dev/oled_ssd130x.h ****   private:
 212:../../libDaisy//src/dev/oled_ssd130x.h ****     void SoftSpiTransmit(uint8_t val)
 213:../../libDaisy//src/dev/oled_ssd130x.h ****     {
 214:../../libDaisy//src/dev/oled_ssd130x.h ****         // bit flip
 215:../../libDaisy//src/dev/oled_ssd130x.h ****         val = ((val & 0x01) << 7) | ((val & 0x02) << 5) | ((val & 0x04) << 3)
 216:../../libDaisy//src/dev/oled_ssd130x.h ****               | ((val & 0x08) << 1) | ((val & 0x10) >> 1) | ((val & 0x20) >> 3)
 217:../../libDaisy//src/dev/oled_ssd130x.h ****               | ((val & 0x40) >> 5) | ((val & 0x80) >> 7);
 218:../../libDaisy//src/dev/oled_ssd130x.h **** 
 219:../../libDaisy//src/dev/oled_ssd130x.h ****         for(uint8_t bit = 0u; bit < 8u; bit++)
 220:../../libDaisy//src/dev/oled_ssd130x.h ****         {
 221:../../libDaisy//src/dev/oled_ssd130x.h ****             dsy_gpio_write(&pin_mosi_, ((val & (1 << bit)) ? 1 : 0));
 222:../../libDaisy//src/dev/oled_ssd130x.h **** 
 223:../../libDaisy//src/dev/oled_ssd130x.h ****             System::DelayTicks(clk_delay);
 224:../../libDaisy//src/dev/oled_ssd130x.h **** 
 225:../../libDaisy//src/dev/oled_ssd130x.h ****             dsy_gpio_toggle(&pin_sclk_);
 226:../../libDaisy//src/dev/oled_ssd130x.h **** 
 227:../../libDaisy//src/dev/oled_ssd130x.h ****             System::DelayTicks(clk_delay);
 228:../../libDaisy//src/dev/oled_ssd130x.h **** 
 229:../../libDaisy//src/dev/oled_ssd130x.h ****             dsy_gpio_toggle(&pin_sclk_);
 230:../../libDaisy//src/dev/oled_ssd130x.h ****         }
 231:../../libDaisy//src/dev/oled_ssd130x.h ****     }
ARM GAS  /var/folders/1y/_321xjh9623c014x9_qw12rr0000gn/T//ccXZVGQV.s 			page 18


 232:../../libDaisy//src/dev/oled_ssd130x.h **** 
 233:../../libDaisy//src/dev/oled_ssd130x.h ****     uint32_t clk_delay;
 234:../../libDaisy//src/dev/oled_ssd130x.h ****     dsy_gpio pin_sclk_;
 235:../../libDaisy//src/dev/oled_ssd130x.h ****     dsy_gpio pin_mosi_;
 236:../../libDaisy//src/dev/oled_ssd130x.h ****     dsy_gpio pin_reset_;
 237:../../libDaisy//src/dev/oled_ssd130x.h ****     dsy_gpio pin_dc_;
 238:../../libDaisy//src/dev/oled_ssd130x.h **** };
 239:../../libDaisy//src/dev/oled_ssd130x.h **** 
 240:../../libDaisy//src/dev/oled_ssd130x.h **** 
 241:../../libDaisy//src/dev/oled_ssd130x.h **** /**
 242:../../libDaisy//src/dev/oled_ssd130x.h ****  * A driver implementation for the SSD1306/SSD1309
 243:../../libDaisy//src/dev/oled_ssd130x.h ****  */
 244:../../libDaisy//src/dev/oled_ssd130x.h **** template <size_t width, size_t height, typename Transport>
 245:../../libDaisy//src/dev/oled_ssd130x.h **** class SSD130xDriver
 246:../../libDaisy//src/dev/oled_ssd130x.h **** {
 247:../../libDaisy//src/dev/oled_ssd130x.h ****   public:
 248:../../libDaisy//src/dev/oled_ssd130x.h ****     struct Config
 249:../../libDaisy//src/dev/oled_ssd130x.h ****     {
 250:../../libDaisy//src/dev/oled_ssd130x.h ****         typename Transport::Config transport_config;
 251:../../libDaisy//src/dev/oled_ssd130x.h ****     };
 252:../../libDaisy//src/dev/oled_ssd130x.h **** 
 253:../../libDaisy//src/dev/oled_ssd130x.h ****     void Init(Config config)
 254:../../libDaisy//src/dev/oled_ssd130x.h ****     {
 255:../../libDaisy//src/dev/oled_ssd130x.h ****         transport_.Init(config.transport_config);
 256:../../libDaisy//src/dev/oled_ssd130x.h **** 
 257:../../libDaisy//src/dev/oled_ssd130x.h ****         // Init routine...
 258:../../libDaisy//src/dev/oled_ssd130x.h **** 
 259:../../libDaisy//src/dev/oled_ssd130x.h ****         // Display Off
 260:../../libDaisy//src/dev/oled_ssd130x.h ****         transport_.SendCommand(0xaE);
 261:../../libDaisy//src/dev/oled_ssd130x.h ****         // Dimension dependent commands...
 262:../../libDaisy//src/dev/oled_ssd130x.h ****         switch(height)
 263:../../libDaisy//src/dev/oled_ssd130x.h ****         {
 264:../../libDaisy//src/dev/oled_ssd130x.h ****             case 16:
 265:../../libDaisy//src/dev/oled_ssd130x.h ****                 // Display Clock Divide Ratio
 266:../../libDaisy//src/dev/oled_ssd130x.h ****                 transport_.SendCommand(0xD5);
 267:../../libDaisy//src/dev/oled_ssd130x.h ****                 transport_.SendCommand(0x60);
 268:../../libDaisy//src/dev/oled_ssd130x.h ****                 // Multiplex Ratio
 269:../../libDaisy//src/dev/oled_ssd130x.h ****                 transport_.SendCommand(0xA8);
 270:../../libDaisy//src/dev/oled_ssd130x.h ****                 transport_.SendCommand(0x0F);
 271:../../libDaisy//src/dev/oled_ssd130x.h ****                 // COM Pins
 272:../../libDaisy//src/dev/oled_ssd130x.h ****                 transport_.SendCommand(0xDA);
 273:../../libDaisy//src/dev/oled_ssd130x.h ****                 transport_.SendCommand(0x02);
 274:../../libDaisy//src/dev/oled_ssd130x.h ****                 break;
 275:../../libDaisy//src/dev/oled_ssd130x.h ****             case 32:
 276:../../libDaisy//src/dev/oled_ssd130x.h ****                 // Display Clock Divide Ratio
 277:../../libDaisy//src/dev/oled_ssd130x.h ****                 transport_.SendCommand(0xD5);
 278:../../libDaisy//src/dev/oled_ssd130x.h ****                 transport_.SendCommand(0x80);
 279:../../libDaisy//src/dev/oled_ssd130x.h ****                 // Multiplex Ratio
 280:../../libDaisy//src/dev/oled_ssd130x.h ****                 transport_.SendCommand(0xA8);
 281:../../libDaisy//src/dev/oled_ssd130x.h ****                 transport_.SendCommand(0x1F);
 282:../../libDaisy//src/dev/oled_ssd130x.h ****                 // COM Pins
 283:../../libDaisy//src/dev/oled_ssd130x.h ****                 transport_.SendCommand(0xDA);
 284:../../libDaisy//src/dev/oled_ssd130x.h ****                 if(width == 64)
 285:../../libDaisy//src/dev/oled_ssd130x.h ****                 {
 286:../../libDaisy//src/dev/oled_ssd130x.h ****                     transport_.SendCommand(0x12);
 287:../../libDaisy//src/dev/oled_ssd130x.h ****                 }
 288:../../libDaisy//src/dev/oled_ssd130x.h ****                 else
ARM GAS  /var/folders/1y/_321xjh9623c014x9_qw12rr0000gn/T//ccXZVGQV.s 			page 19


 289:../../libDaisy//src/dev/oled_ssd130x.h ****                 {
 290:../../libDaisy//src/dev/oled_ssd130x.h ****                     transport_.SendCommand(0x02);
 291:../../libDaisy//src/dev/oled_ssd130x.h ****                 }
 292:../../libDaisy//src/dev/oled_ssd130x.h **** 
 293:../../libDaisy//src/dev/oled_ssd130x.h ****                 break;
 294:../../libDaisy//src/dev/oled_ssd130x.h ****             case 48:
 295:../../libDaisy//src/dev/oled_ssd130x.h ****                 // Display Clock Divide Ratio
 296:../../libDaisy//src/dev/oled_ssd130x.h ****                 transport_.SendCommand(0xD5);
 297:../../libDaisy//src/dev/oled_ssd130x.h ****                 transport_.SendCommand(0x80);
 298:../../libDaisy//src/dev/oled_ssd130x.h ****                 // Multiplex Ratio
 299:../../libDaisy//src/dev/oled_ssd130x.h ****                 transport_.SendCommand(0xA8);
 300:../../libDaisy//src/dev/oled_ssd130x.h ****                 transport_.SendCommand(0x2F);
 301:../../libDaisy//src/dev/oled_ssd130x.h ****                 // COM Pins
 302:../../libDaisy//src/dev/oled_ssd130x.h ****                 transport_.SendCommand(0xDA);
 303:../../libDaisy//src/dev/oled_ssd130x.h ****                 transport_.SendCommand(0x12);
 304:../../libDaisy//src/dev/oled_ssd130x.h ****                 break;
 305:../../libDaisy//src/dev/oled_ssd130x.h ****             default: // 128
 306:../../libDaisy//src/dev/oled_ssd130x.h ****                 // Display Clock Divide Ratio
 307:../../libDaisy//src/dev/oled_ssd130x.h ****                 transport_.SendCommand(0xD5);
 308:../../libDaisy//src/dev/oled_ssd130x.h ****                 transport_.SendCommand(0x80);
 309:../../libDaisy//src/dev/oled_ssd130x.h ****                 // Multiplex Ratio
 310:../../libDaisy//src/dev/oled_ssd130x.h ****                 transport_.SendCommand(0xA8);
 311:../../libDaisy//src/dev/oled_ssd130x.h ****                 transport_.SendCommand(0x3F);
 312:../../libDaisy//src/dev/oled_ssd130x.h ****                 // COM Pins
 313:../../libDaisy//src/dev/oled_ssd130x.h ****                 transport_.SendCommand(0xDA);
 314:../../libDaisy//src/dev/oled_ssd130x.h ****                 transport_.SendCommand(0x12);
 315:../../libDaisy//src/dev/oled_ssd130x.h ****                 break;
 316:../../libDaisy//src/dev/oled_ssd130x.h ****         }
 317:../../libDaisy//src/dev/oled_ssd130x.h **** 
 318:../../libDaisy//src/dev/oled_ssd130x.h ****         // Display Offset
 319:../../libDaisy//src/dev/oled_ssd130x.h ****         transport_.SendCommand(0xD3);
 320:../../libDaisy//src/dev/oled_ssd130x.h ****         transport_.SendCommand(0x00);
 321:../../libDaisy//src/dev/oled_ssd130x.h ****         // Start Line Address
 322:../../libDaisy//src/dev/oled_ssd130x.h ****         transport_.SendCommand(0x40);
 323:../../libDaisy//src/dev/oled_ssd130x.h ****         // Normal Display
 324:../../libDaisy//src/dev/oled_ssd130x.h ****         transport_.SendCommand(0xA6);
 325:../../libDaisy//src/dev/oled_ssd130x.h ****         // All On Resume
 326:../../libDaisy//src/dev/oled_ssd130x.h ****         transport_.SendCommand(0xA4);
 327:../../libDaisy//src/dev/oled_ssd130x.h ****         // Charge Pump
 328:../../libDaisy//src/dev/oled_ssd130x.h ****         transport_.SendCommand(0x8D);
 329:../../libDaisy//src/dev/oled_ssd130x.h ****         transport_.SendCommand(0x14);
 330:../../libDaisy//src/dev/oled_ssd130x.h ****         // Set Segment Remap
 331:../../libDaisy//src/dev/oled_ssd130x.h ****         transport_.SendCommand(0xA1);
 332:../../libDaisy//src/dev/oled_ssd130x.h ****         // COM Output Scan Direction
 333:../../libDaisy//src/dev/oled_ssd130x.h ****         transport_.SendCommand(0xC8);
 334:../../libDaisy//src/dev/oled_ssd130x.h ****         // Contrast Control
 335:../../libDaisy//src/dev/oled_ssd130x.h ****         transport_.SendCommand(0x81);
 336:../../libDaisy//src/dev/oled_ssd130x.h ****         transport_.SendCommand(0x8F);
 337:../../libDaisy//src/dev/oled_ssd130x.h ****         // Pre Charge
 338:../../libDaisy//src/dev/oled_ssd130x.h ****         transport_.SendCommand(0xD9);
 339:../../libDaisy//src/dev/oled_ssd130x.h ****         transport_.SendCommand(0x25);
 340:../../libDaisy//src/dev/oled_ssd130x.h ****         // VCOM Detect
 341:../../libDaisy//src/dev/oled_ssd130x.h ****         transport_.SendCommand(0xDB);
 342:../../libDaisy//src/dev/oled_ssd130x.h ****         transport_.SendCommand(0x34);
 343:../../libDaisy//src/dev/oled_ssd130x.h **** 
 344:../../libDaisy//src/dev/oled_ssd130x.h **** 
 345:../../libDaisy//src/dev/oled_ssd130x.h ****         // Display On
ARM GAS  /var/folders/1y/_321xjh9623c014x9_qw12rr0000gn/T//ccXZVGQV.s 			page 20


 346:../../libDaisy//src/dev/oled_ssd130x.h ****         transport_.SendCommand(0xAF); //--turn on oled panel
 347:../../libDaisy//src/dev/oled_ssd130x.h ****     };
 348:../../libDaisy//src/dev/oled_ssd130x.h **** 
 349:../../libDaisy//src/dev/oled_ssd130x.h ****     size_t Width() const { return width; };
 350:../../libDaisy//src/dev/oled_ssd130x.h ****     size_t Height() const { return height; };
 351:../../libDaisy//src/dev/oled_ssd130x.h **** 
 352:../../libDaisy//src/dev/oled_ssd130x.h ****     void DrawPixel(uint_fast8_t x, uint_fast8_t y, bool on)
 139              		.loc 4 352 10 view .LVU19
 140              	.LBB298:
 141              	.LBI298:
 142              		.loc 4 352 10 view .LVU20
 143              	.LBB299:
 353:../../libDaisy//src/dev/oled_ssd130x.h ****     {
 354:../../libDaisy//src/dev/oled_ssd130x.h ****         if(x >= width || y >= height)
 355:../../libDaisy//src/dev/oled_ssd130x.h ****             return;
 356:../../libDaisy//src/dev/oled_ssd130x.h ****         if(on)
 357:../../libDaisy//src/dev/oled_ssd130x.h ****             buffer_[x + (y / 8) * width] |= (1 << (y % 8));
 358:../../libDaisy//src/dev/oled_ssd130x.h ****         else
 359:../../libDaisy//src/dev/oled_ssd130x.h ****             buffer_[x + (y / 8) * width] &= ~(1 << (y % 8));
 144              		.loc 4 359 28 is_stmt 0 view .LVU21
 145 0018 D308     		lsrs	r3, r2, #3
 146              		.loc 4 359 55 view .LVU22
 147 001a 02F00701 		and	r1, r2, #7
 148              		.loc 4 359 49 view .LVU23
 149 001e 0124     		movs	r4, #1
 150              		.loc 4 359 42 view .LVU24
 151 0020 05EBC313 		add	r3, r5, r3, lsl #7
 152              		.loc 4 359 49 view .LVU25
 153 0024 04FA01F0 		lsl	r0, r4, r1
 154              	.LBE299:
 155              	.LBE298:
 156              	.LBE297:
 157              	.LBE296:
 158              		.loc 3 268 17 view .LVU26
 159 0028 2244     		add	r2, r2, r4
 160              	.LVL8:
 161              	.LBB306:
 162              	.LBB304:
 163              	.LBB302:
 164              	.LBB300:
 165              		.loc 4 359 42 view .LVU27
 166 002a 5344     		add	r3, r3, r10
 167              	.LBE300:
 168              	.LBE302:
 169              	.LBE304:
 170              	.LBE306:
 171              		.loc 3 268 44 view .LVU28
 172 002c 342A     		cmp	r2, #52
 173              	.LBB307:
 174              	.LBB305:
 175              	.LBB303:
 176              	.LBB301:
 177              		.loc 4 359 42 view .LVU29
 178 002e 93F8C014 		ldrb	r1, [r3, #1216]	@ zero_extendqisi2
 179 0032 21EA0001 		bic	r1, r1, r0
 180 0036 83F8C014 		strb	r1, [r3, #1216]
 181              	.LVL9:
ARM GAS  /var/folders/1y/_321xjh9623c014x9_qw12rr0000gn/T//ccXZVGQV.s 			page 21


 182              		.loc 4 359 42 view .LVU30
 183              	.LBE301:
 184              	.LBE303:
 185              	.LBE305:
 186              	.LBE307:
 187              		.loc 3 268 17 is_stmt 1 view .LVU31
 188              		.loc 3 268 44 view .LVU32
 189 003a EDD1     		bne	.L5
 190              	.LBE295:
 266:../../libDaisy//src/hid/disp/display.h ****             {
 191              		.loc 3 266 13 view .LVU33
 192 003c 2544     		add	r5, r5, r4
 193              	.LVL10:
 266:../../libDaisy//src/hid/disp/display.h ****             {
 194              		.loc 3 266 40 view .LVU34
 195 003e 7F2D     		cmp	r5, #127
 196 0040 E9D1     		bne	.L6
 197 0042 0023     		movs	r3, #0
 198 0044 0AF52772 		add	r2, r10, #668
 199              	.LVL11:
 266:../../libDaisy//src/hid/disp/display.h ****             {
 200              		.loc 3 266 40 is_stmt 0 view .LVU35
 201 0048 A146     		mov	r9, r4
 202              	.LBE309:
 203              	.LBE311:
 204              	.LBE313:
 293:Dubby.cpp     ****         int prev_x = 0;
 294:Dubby.cpp     ****         int prev_y = (OLED_HEIGHT - 15) / 2;
 205              		.loc 2 294 13 view .LVU36
 206 004a 1826     		movs	r6, #24
 207              	.LBB314:
 208              	.LBB312:
 209              	.LBB310:
 266:../../libDaisy//src/hid/disp/display.h ****             {
 210              		.loc 3 266 40 view .LVU37
 211 004c 0193     		str	r3, [sp, #4]
 212 004e 0492     		str	r2, [sp, #16]
 213 0050 06E0     		b	.L21
 214              	.LVL12:
 215              	.L9:
 266:../../libDaisy//src/hid/disp/display.h ****             {
 216              		.loc 3 266 40 view .LVU38
 217 0052 019B     		ldr	r3, [sp, #4]
 218 0054 09F10109 		add	r9, r9, #1
 219              	.LVL13:
 220              	.LBB308:
 221              		.loc 3 268 34 view .LVU39
 222 0058 2646     		mov	r6, r4
 223 005a 7E33     		adds	r3, r3, #126
 224 005c 0193     		str	r3, [sp, #4]
 225              	.LBE308:
 226              	.LBE310:
 227              	.LBE312:
 228              	.LBE314:
 229              	.LBB315:
 230              	.LBB316:
 295:Dubby.cpp     ****         for(size_t i = 0; i < AUDIO_BLOCK_SIZE; i++)
ARM GAS  /var/folders/1y/_321xjh9623c014x9_qw12rr0000gn/T//ccXZVGQV.s 			page 22


 296:Dubby.cpp     ****         {
 297:Dubby.cpp     ****             int y = 1 + std::min(std::max((OLED_HEIGHT - 15) / 2
 298:Dubby.cpp     ****                                         - int(scope_buffer[i] * 150),
 299:Dubby.cpp     ****                                     0),
 300:Dubby.cpp     ****                             OLED_HEIGHT - 15);
 301:Dubby.cpp     ****             int x = 1 + i * (OLED_WIDTH - 2) / AUDIO_BLOCK_SIZE;
 302:Dubby.cpp     ****             if(i != 0)
 303:Dubby.cpp     ****             {
 304:Dubby.cpp     ****                 display.DrawLine(prev_x, prev_y, x, y, true);
 305:Dubby.cpp     ****             }
 306:Dubby.cpp     ****             prev_x = x;
 231              		.loc 2 306 20 view .LVU40
 232 005e 2B46     		mov	r3, r5
 233              	.LVL14:
 234              	.L21:
 297:Dubby.cpp     ****                                         - int(scope_buffer[i] * 150),
 235              		.loc 2 297 13 is_stmt 1 view .LVU41
 236              	.LBB317:
 237              	.LBI317:
 238              		.file 5 "/Library/DaisyToolchain/0.2.0/arm/arm-none-eabi/include/c++/10.3.1/bits/stl_algobase.h"
   1:/Library/DaisyToolchain/0.2.0/arm/arm-none-eabi/include/c++/10.3.1/bits/stl_algobase.h **** // Core algorithmic facilities -*- C++ -*-
   2:/Library/DaisyToolchain/0.2.0/arm/arm-none-eabi/include/c++/10.3.1/bits/stl_algobase.h **** 
   3:/Library/DaisyToolchain/0.2.0/arm/arm-none-eabi/include/c++/10.3.1/bits/stl_algobase.h **** // Copyright (C) 2001-2020 Free Software Foundation, Inc.
   4:/Library/DaisyToolchain/0.2.0/arm/arm-none-eabi/include/c++/10.3.1/bits/stl_algobase.h **** //
   5:/Library/DaisyToolchain/0.2.0/arm/arm-none-eabi/include/c++/10.3.1/bits/stl_algobase.h **** // This file is part of the GNU ISO C++ Library.  This library is free
   6:/Library/DaisyToolchain/0.2.0/arm/arm-none-eabi/include/c++/10.3.1/bits/stl_algobase.h **** // software; you can redistribute it and/or modify it under the
   7:/Library/DaisyToolchain/0.2.0/arm/arm-none-eabi/include/c++/10.3.1/bits/stl_algobase.h **** // terms of the GNU General Public License as published by the
   8:/Library/DaisyToolchain/0.2.0/arm/arm-none-eabi/include/c++/10.3.1/bits/stl_algobase.h **** // Free Software Foundation; either version 3, or (at your option)
   9:/Library/DaisyToolchain/0.2.0/arm/arm-none-eabi/include/c++/10.3.1/bits/stl_algobase.h **** // any later version.
  10:/Library/DaisyToolchain/0.2.0/arm/arm-none-eabi/include/c++/10.3.1/bits/stl_algobase.h **** 
  11:/Library/DaisyToolchain/0.2.0/arm/arm-none-eabi/include/c++/10.3.1/bits/stl_algobase.h **** // This library is distributed in the hope that it will be useful,
  12:/Library/DaisyToolchain/0.2.0/arm/arm-none-eabi/include/c++/10.3.1/bits/stl_algobase.h **** // but WITHOUT ANY WARRANTY; without even the implied warranty of
  13:/Library/DaisyToolchain/0.2.0/arm/arm-none-eabi/include/c++/10.3.1/bits/stl_algobase.h **** // MERCHANTABILITY or FITNESS FOR A PARTICULAR PURPOSE.  See the
  14:/Library/DaisyToolchain/0.2.0/arm/arm-none-eabi/include/c++/10.3.1/bits/stl_algobase.h **** // GNU General Public License for more details.
  15:/Library/DaisyToolchain/0.2.0/arm/arm-none-eabi/include/c++/10.3.1/bits/stl_algobase.h **** 
  16:/Library/DaisyToolchain/0.2.0/arm/arm-none-eabi/include/c++/10.3.1/bits/stl_algobase.h **** // Under Section 7 of GPL version 3, you are granted additional
  17:/Library/DaisyToolchain/0.2.0/arm/arm-none-eabi/include/c++/10.3.1/bits/stl_algobase.h **** // permissions described in the GCC Runtime Library Exception, version
  18:/Library/DaisyToolchain/0.2.0/arm/arm-none-eabi/include/c++/10.3.1/bits/stl_algobase.h **** // 3.1, as published by the Free Software Foundation.
  19:/Library/DaisyToolchain/0.2.0/arm/arm-none-eabi/include/c++/10.3.1/bits/stl_algobase.h **** 
  20:/Library/DaisyToolchain/0.2.0/arm/arm-none-eabi/include/c++/10.3.1/bits/stl_algobase.h **** // You should have received a copy of the GNU General Public License and
  21:/Library/DaisyToolchain/0.2.0/arm/arm-none-eabi/include/c++/10.3.1/bits/stl_algobase.h **** // a copy of the GCC Runtime Library Exception along with this program;
  22:/Library/DaisyToolchain/0.2.0/arm/arm-none-eabi/include/c++/10.3.1/bits/stl_algobase.h **** // see the files COPYING3 and COPYING.RUNTIME respectively.  If not, see
  23:/Library/DaisyToolchain/0.2.0/arm/arm-none-eabi/include/c++/10.3.1/bits/stl_algobase.h **** // <http://www.gnu.org/licenses/>.
  24:/Library/DaisyToolchain/0.2.0/arm/arm-none-eabi/include/c++/10.3.1/bits/stl_algobase.h **** 
  25:/Library/DaisyToolchain/0.2.0/arm/arm-none-eabi/include/c++/10.3.1/bits/stl_algobase.h **** /*
  26:/Library/DaisyToolchain/0.2.0/arm/arm-none-eabi/include/c++/10.3.1/bits/stl_algobase.h ****  *
  27:/Library/DaisyToolchain/0.2.0/arm/arm-none-eabi/include/c++/10.3.1/bits/stl_algobase.h ****  * Copyright (c) 1994
  28:/Library/DaisyToolchain/0.2.0/arm/arm-none-eabi/include/c++/10.3.1/bits/stl_algobase.h ****  * Hewlett-Packard Company
  29:/Library/DaisyToolchain/0.2.0/arm/arm-none-eabi/include/c++/10.3.1/bits/stl_algobase.h ****  *
  30:/Library/DaisyToolchain/0.2.0/arm/arm-none-eabi/include/c++/10.3.1/bits/stl_algobase.h ****  * Permission to use, copy, modify, distribute and sell this software
  31:/Library/DaisyToolchain/0.2.0/arm/arm-none-eabi/include/c++/10.3.1/bits/stl_algobase.h ****  * and its documentation for any purpose is hereby granted without fee,
  32:/Library/DaisyToolchain/0.2.0/arm/arm-none-eabi/include/c++/10.3.1/bits/stl_algobase.h ****  * provided that the above copyright notice appear in all copies and
  33:/Library/DaisyToolchain/0.2.0/arm/arm-none-eabi/include/c++/10.3.1/bits/stl_algobase.h ****  * that both that copyright notice and this permission notice appear
  34:/Library/DaisyToolchain/0.2.0/arm/arm-none-eabi/include/c++/10.3.1/bits/stl_algobase.h ****  * in supporting documentation.  Hewlett-Packard Company makes no
  35:/Library/DaisyToolchain/0.2.0/arm/arm-none-eabi/include/c++/10.3.1/bits/stl_algobase.h ****  * representations about the suitability of this software for any
  36:/Library/DaisyToolchain/0.2.0/arm/arm-none-eabi/include/c++/10.3.1/bits/stl_algobase.h ****  * purpose.  It is provided "as is" without express or implied warranty.
  37:/Library/DaisyToolchain/0.2.0/arm/arm-none-eabi/include/c++/10.3.1/bits/stl_algobase.h ****  *
ARM GAS  /var/folders/1y/_321xjh9623c014x9_qw12rr0000gn/T//ccXZVGQV.s 			page 23


  38:/Library/DaisyToolchain/0.2.0/arm/arm-none-eabi/include/c++/10.3.1/bits/stl_algobase.h ****  *
  39:/Library/DaisyToolchain/0.2.0/arm/arm-none-eabi/include/c++/10.3.1/bits/stl_algobase.h ****  * Copyright (c) 1996-1998
  40:/Library/DaisyToolchain/0.2.0/arm/arm-none-eabi/include/c++/10.3.1/bits/stl_algobase.h ****  * Silicon Graphics Computer Systems, Inc.
  41:/Library/DaisyToolchain/0.2.0/arm/arm-none-eabi/include/c++/10.3.1/bits/stl_algobase.h ****  *
  42:/Library/DaisyToolchain/0.2.0/arm/arm-none-eabi/include/c++/10.3.1/bits/stl_algobase.h ****  * Permission to use, copy, modify, distribute and sell this software
  43:/Library/DaisyToolchain/0.2.0/arm/arm-none-eabi/include/c++/10.3.1/bits/stl_algobase.h ****  * and its documentation for any purpose is hereby granted without fee,
  44:/Library/DaisyToolchain/0.2.0/arm/arm-none-eabi/include/c++/10.3.1/bits/stl_algobase.h ****  * provided that the above copyright notice appear in all copies and
  45:/Library/DaisyToolchain/0.2.0/arm/arm-none-eabi/include/c++/10.3.1/bits/stl_algobase.h ****  * that both that copyright notice and this permission notice appear
  46:/Library/DaisyToolchain/0.2.0/arm/arm-none-eabi/include/c++/10.3.1/bits/stl_algobase.h ****  * in supporting documentation.  Silicon Graphics makes no
  47:/Library/DaisyToolchain/0.2.0/arm/arm-none-eabi/include/c++/10.3.1/bits/stl_algobase.h ****  * representations about the suitability of this software for any
  48:/Library/DaisyToolchain/0.2.0/arm/arm-none-eabi/include/c++/10.3.1/bits/stl_algobase.h ****  * purpose.  It is provided "as is" without express or implied warranty.
  49:/Library/DaisyToolchain/0.2.0/arm/arm-none-eabi/include/c++/10.3.1/bits/stl_algobase.h ****  */
  50:/Library/DaisyToolchain/0.2.0/arm/arm-none-eabi/include/c++/10.3.1/bits/stl_algobase.h **** 
  51:/Library/DaisyToolchain/0.2.0/arm/arm-none-eabi/include/c++/10.3.1/bits/stl_algobase.h **** /** @file bits/stl_algobase.h
  52:/Library/DaisyToolchain/0.2.0/arm/arm-none-eabi/include/c++/10.3.1/bits/stl_algobase.h ****  *  This is an internal header file, included by other library headers.
  53:/Library/DaisyToolchain/0.2.0/arm/arm-none-eabi/include/c++/10.3.1/bits/stl_algobase.h ****  *  Do not attempt to use it directly. @headername{algorithm}
  54:/Library/DaisyToolchain/0.2.0/arm/arm-none-eabi/include/c++/10.3.1/bits/stl_algobase.h ****  */
  55:/Library/DaisyToolchain/0.2.0/arm/arm-none-eabi/include/c++/10.3.1/bits/stl_algobase.h **** 
  56:/Library/DaisyToolchain/0.2.0/arm/arm-none-eabi/include/c++/10.3.1/bits/stl_algobase.h **** #ifndef _STL_ALGOBASE_H
  57:/Library/DaisyToolchain/0.2.0/arm/arm-none-eabi/include/c++/10.3.1/bits/stl_algobase.h **** #define _STL_ALGOBASE_H 1
  58:/Library/DaisyToolchain/0.2.0/arm/arm-none-eabi/include/c++/10.3.1/bits/stl_algobase.h **** 
  59:/Library/DaisyToolchain/0.2.0/arm/arm-none-eabi/include/c++/10.3.1/bits/stl_algobase.h **** #include <bits/c++config.h>
  60:/Library/DaisyToolchain/0.2.0/arm/arm-none-eabi/include/c++/10.3.1/bits/stl_algobase.h **** #include <bits/functexcept.h>
  61:/Library/DaisyToolchain/0.2.0/arm/arm-none-eabi/include/c++/10.3.1/bits/stl_algobase.h **** #include <bits/cpp_type_traits.h>
  62:/Library/DaisyToolchain/0.2.0/arm/arm-none-eabi/include/c++/10.3.1/bits/stl_algobase.h **** #include <ext/type_traits.h>
  63:/Library/DaisyToolchain/0.2.0/arm/arm-none-eabi/include/c++/10.3.1/bits/stl_algobase.h **** #include <ext/numeric_traits.h>
  64:/Library/DaisyToolchain/0.2.0/arm/arm-none-eabi/include/c++/10.3.1/bits/stl_algobase.h **** #include <bits/stl_pair.h>
  65:/Library/DaisyToolchain/0.2.0/arm/arm-none-eabi/include/c++/10.3.1/bits/stl_algobase.h **** #include <bits/stl_iterator_base_types.h>
  66:/Library/DaisyToolchain/0.2.0/arm/arm-none-eabi/include/c++/10.3.1/bits/stl_algobase.h **** #include <bits/stl_iterator_base_funcs.h>
  67:/Library/DaisyToolchain/0.2.0/arm/arm-none-eabi/include/c++/10.3.1/bits/stl_algobase.h **** #include <bits/stl_iterator.h>
  68:/Library/DaisyToolchain/0.2.0/arm/arm-none-eabi/include/c++/10.3.1/bits/stl_algobase.h **** #include <bits/concept_check.h>
  69:/Library/DaisyToolchain/0.2.0/arm/arm-none-eabi/include/c++/10.3.1/bits/stl_algobase.h **** #include <debug/debug.h>
  70:/Library/DaisyToolchain/0.2.0/arm/arm-none-eabi/include/c++/10.3.1/bits/stl_algobase.h **** #include <bits/move.h> // For std::swap
  71:/Library/DaisyToolchain/0.2.0/arm/arm-none-eabi/include/c++/10.3.1/bits/stl_algobase.h **** #include <bits/predefined_ops.h>
  72:/Library/DaisyToolchain/0.2.0/arm/arm-none-eabi/include/c++/10.3.1/bits/stl_algobase.h **** #if __cplusplus >= 201103L
  73:/Library/DaisyToolchain/0.2.0/arm/arm-none-eabi/include/c++/10.3.1/bits/stl_algobase.h **** # include <type_traits>
  74:/Library/DaisyToolchain/0.2.0/arm/arm-none-eabi/include/c++/10.3.1/bits/stl_algobase.h **** #endif
  75:/Library/DaisyToolchain/0.2.0/arm/arm-none-eabi/include/c++/10.3.1/bits/stl_algobase.h **** #if __cplusplus > 201703L
  76:/Library/DaisyToolchain/0.2.0/arm/arm-none-eabi/include/c++/10.3.1/bits/stl_algobase.h **** # include <compare>
  77:/Library/DaisyToolchain/0.2.0/arm/arm-none-eabi/include/c++/10.3.1/bits/stl_algobase.h **** #endif
  78:/Library/DaisyToolchain/0.2.0/arm/arm-none-eabi/include/c++/10.3.1/bits/stl_algobase.h **** 
  79:/Library/DaisyToolchain/0.2.0/arm/arm-none-eabi/include/c++/10.3.1/bits/stl_algobase.h **** namespace std _GLIBCXX_VISIBILITY(default)
  80:/Library/DaisyToolchain/0.2.0/arm/arm-none-eabi/include/c++/10.3.1/bits/stl_algobase.h **** {
  81:/Library/DaisyToolchain/0.2.0/arm/arm-none-eabi/include/c++/10.3.1/bits/stl_algobase.h **** _GLIBCXX_BEGIN_NAMESPACE_VERSION
  82:/Library/DaisyToolchain/0.2.0/arm/arm-none-eabi/include/c++/10.3.1/bits/stl_algobase.h **** 
  83:/Library/DaisyToolchain/0.2.0/arm/arm-none-eabi/include/c++/10.3.1/bits/stl_algobase.h ****   /*
  84:/Library/DaisyToolchain/0.2.0/arm/arm-none-eabi/include/c++/10.3.1/bits/stl_algobase.h ****    * A constexpr wrapper for __builtin_memcmp.
  85:/Library/DaisyToolchain/0.2.0/arm/arm-none-eabi/include/c++/10.3.1/bits/stl_algobase.h ****    * @param __num The number of elements of type _Tp (not bytes).
  86:/Library/DaisyToolchain/0.2.0/arm/arm-none-eabi/include/c++/10.3.1/bits/stl_algobase.h ****    */
  87:/Library/DaisyToolchain/0.2.0/arm/arm-none-eabi/include/c++/10.3.1/bits/stl_algobase.h ****   template<typename _Tp, typename _Up>
  88:/Library/DaisyToolchain/0.2.0/arm/arm-none-eabi/include/c++/10.3.1/bits/stl_algobase.h ****     _GLIBCXX14_CONSTEXPR
  89:/Library/DaisyToolchain/0.2.0/arm/arm-none-eabi/include/c++/10.3.1/bits/stl_algobase.h ****     inline int
  90:/Library/DaisyToolchain/0.2.0/arm/arm-none-eabi/include/c++/10.3.1/bits/stl_algobase.h ****     __memcmp(const _Tp* __first1, const _Up* __first2, size_t __num)
  91:/Library/DaisyToolchain/0.2.0/arm/arm-none-eabi/include/c++/10.3.1/bits/stl_algobase.h ****     {
  92:/Library/DaisyToolchain/0.2.0/arm/arm-none-eabi/include/c++/10.3.1/bits/stl_algobase.h **** #if __cplusplus >= 201103L
  93:/Library/DaisyToolchain/0.2.0/arm/arm-none-eabi/include/c++/10.3.1/bits/stl_algobase.h ****       static_assert(sizeof(_Tp) == sizeof(_Up), "can be compared with memcmp");
  94:/Library/DaisyToolchain/0.2.0/arm/arm-none-eabi/include/c++/10.3.1/bits/stl_algobase.h **** #endif
ARM GAS  /var/folders/1y/_321xjh9623c014x9_qw12rr0000gn/T//ccXZVGQV.s 			page 24


  95:/Library/DaisyToolchain/0.2.0/arm/arm-none-eabi/include/c++/10.3.1/bits/stl_algobase.h **** #ifdef __cpp_lib_is_constant_evaluated
  96:/Library/DaisyToolchain/0.2.0/arm/arm-none-eabi/include/c++/10.3.1/bits/stl_algobase.h ****       if (std::is_constant_evaluated())
  97:/Library/DaisyToolchain/0.2.0/arm/arm-none-eabi/include/c++/10.3.1/bits/stl_algobase.h **** 	{
  98:/Library/DaisyToolchain/0.2.0/arm/arm-none-eabi/include/c++/10.3.1/bits/stl_algobase.h **** 	  for(; __num > 0; ++__first1, ++__first2, --__num)
  99:/Library/DaisyToolchain/0.2.0/arm/arm-none-eabi/include/c++/10.3.1/bits/stl_algobase.h **** 	    if (*__first1 != *__first2)
 100:/Library/DaisyToolchain/0.2.0/arm/arm-none-eabi/include/c++/10.3.1/bits/stl_algobase.h **** 	      return *__first1 < *__first2 ? -1 : 1;
 101:/Library/DaisyToolchain/0.2.0/arm/arm-none-eabi/include/c++/10.3.1/bits/stl_algobase.h **** 	  return 0;
 102:/Library/DaisyToolchain/0.2.0/arm/arm-none-eabi/include/c++/10.3.1/bits/stl_algobase.h **** 	}
 103:/Library/DaisyToolchain/0.2.0/arm/arm-none-eabi/include/c++/10.3.1/bits/stl_algobase.h ****       else
 104:/Library/DaisyToolchain/0.2.0/arm/arm-none-eabi/include/c++/10.3.1/bits/stl_algobase.h **** #endif
 105:/Library/DaisyToolchain/0.2.0/arm/arm-none-eabi/include/c++/10.3.1/bits/stl_algobase.h **** 	return __builtin_memcmp(__first1, __first2, sizeof(_Tp) * __num);
 106:/Library/DaisyToolchain/0.2.0/arm/arm-none-eabi/include/c++/10.3.1/bits/stl_algobase.h ****     }
 107:/Library/DaisyToolchain/0.2.0/arm/arm-none-eabi/include/c++/10.3.1/bits/stl_algobase.h **** 
 108:/Library/DaisyToolchain/0.2.0/arm/arm-none-eabi/include/c++/10.3.1/bits/stl_algobase.h **** #if __cplusplus < 201103L
 109:/Library/DaisyToolchain/0.2.0/arm/arm-none-eabi/include/c++/10.3.1/bits/stl_algobase.h ****   // See http://gcc.gnu.org/ml/libstdc++/2004-08/msg00167.html: in a
 110:/Library/DaisyToolchain/0.2.0/arm/arm-none-eabi/include/c++/10.3.1/bits/stl_algobase.h ****   // nutshell, we are partially implementing the resolution of DR 187,
 111:/Library/DaisyToolchain/0.2.0/arm/arm-none-eabi/include/c++/10.3.1/bits/stl_algobase.h ****   // when it's safe, i.e., the value_types are equal.
 112:/Library/DaisyToolchain/0.2.0/arm/arm-none-eabi/include/c++/10.3.1/bits/stl_algobase.h ****   template<bool _BoolType>
 113:/Library/DaisyToolchain/0.2.0/arm/arm-none-eabi/include/c++/10.3.1/bits/stl_algobase.h ****     struct __iter_swap
 114:/Library/DaisyToolchain/0.2.0/arm/arm-none-eabi/include/c++/10.3.1/bits/stl_algobase.h ****     {
 115:/Library/DaisyToolchain/0.2.0/arm/arm-none-eabi/include/c++/10.3.1/bits/stl_algobase.h ****       template<typename _ForwardIterator1, typename _ForwardIterator2>
 116:/Library/DaisyToolchain/0.2.0/arm/arm-none-eabi/include/c++/10.3.1/bits/stl_algobase.h **** 	static void
 117:/Library/DaisyToolchain/0.2.0/arm/arm-none-eabi/include/c++/10.3.1/bits/stl_algobase.h **** 	iter_swap(_ForwardIterator1 __a, _ForwardIterator2 __b)
 118:/Library/DaisyToolchain/0.2.0/arm/arm-none-eabi/include/c++/10.3.1/bits/stl_algobase.h **** 	{
 119:/Library/DaisyToolchain/0.2.0/arm/arm-none-eabi/include/c++/10.3.1/bits/stl_algobase.h **** 	  typedef typename iterator_traits<_ForwardIterator1>::value_type
 120:/Library/DaisyToolchain/0.2.0/arm/arm-none-eabi/include/c++/10.3.1/bits/stl_algobase.h **** 	    _ValueType1;
 121:/Library/DaisyToolchain/0.2.0/arm/arm-none-eabi/include/c++/10.3.1/bits/stl_algobase.h **** 	  _ValueType1 __tmp = *__a;
 122:/Library/DaisyToolchain/0.2.0/arm/arm-none-eabi/include/c++/10.3.1/bits/stl_algobase.h **** 	  *__a = *__b;
 123:/Library/DaisyToolchain/0.2.0/arm/arm-none-eabi/include/c++/10.3.1/bits/stl_algobase.h **** 	  *__b = __tmp;
 124:/Library/DaisyToolchain/0.2.0/arm/arm-none-eabi/include/c++/10.3.1/bits/stl_algobase.h **** 	}
 125:/Library/DaisyToolchain/0.2.0/arm/arm-none-eabi/include/c++/10.3.1/bits/stl_algobase.h ****     };
 126:/Library/DaisyToolchain/0.2.0/arm/arm-none-eabi/include/c++/10.3.1/bits/stl_algobase.h **** 
 127:/Library/DaisyToolchain/0.2.0/arm/arm-none-eabi/include/c++/10.3.1/bits/stl_algobase.h ****   template<>
 128:/Library/DaisyToolchain/0.2.0/arm/arm-none-eabi/include/c++/10.3.1/bits/stl_algobase.h ****     struct __iter_swap<true>
 129:/Library/DaisyToolchain/0.2.0/arm/arm-none-eabi/include/c++/10.3.1/bits/stl_algobase.h ****     {
 130:/Library/DaisyToolchain/0.2.0/arm/arm-none-eabi/include/c++/10.3.1/bits/stl_algobase.h ****       template<typename _ForwardIterator1, typename _ForwardIterator2>
 131:/Library/DaisyToolchain/0.2.0/arm/arm-none-eabi/include/c++/10.3.1/bits/stl_algobase.h **** 	static void
 132:/Library/DaisyToolchain/0.2.0/arm/arm-none-eabi/include/c++/10.3.1/bits/stl_algobase.h **** 	iter_swap(_ForwardIterator1 __a, _ForwardIterator2 __b)
 133:/Library/DaisyToolchain/0.2.0/arm/arm-none-eabi/include/c++/10.3.1/bits/stl_algobase.h **** 	{
 134:/Library/DaisyToolchain/0.2.0/arm/arm-none-eabi/include/c++/10.3.1/bits/stl_algobase.h **** 	  swap(*__a, *__b);
 135:/Library/DaisyToolchain/0.2.0/arm/arm-none-eabi/include/c++/10.3.1/bits/stl_algobase.h **** 	}
 136:/Library/DaisyToolchain/0.2.0/arm/arm-none-eabi/include/c++/10.3.1/bits/stl_algobase.h ****     };
 137:/Library/DaisyToolchain/0.2.0/arm/arm-none-eabi/include/c++/10.3.1/bits/stl_algobase.h **** #endif // C++03
 138:/Library/DaisyToolchain/0.2.0/arm/arm-none-eabi/include/c++/10.3.1/bits/stl_algobase.h **** 
 139:/Library/DaisyToolchain/0.2.0/arm/arm-none-eabi/include/c++/10.3.1/bits/stl_algobase.h ****   /**
 140:/Library/DaisyToolchain/0.2.0/arm/arm-none-eabi/include/c++/10.3.1/bits/stl_algobase.h ****    *  @brief Swaps the contents of two iterators.
 141:/Library/DaisyToolchain/0.2.0/arm/arm-none-eabi/include/c++/10.3.1/bits/stl_algobase.h ****    *  @ingroup mutating_algorithms
 142:/Library/DaisyToolchain/0.2.0/arm/arm-none-eabi/include/c++/10.3.1/bits/stl_algobase.h ****    *  @param  __a  An iterator.
 143:/Library/DaisyToolchain/0.2.0/arm/arm-none-eabi/include/c++/10.3.1/bits/stl_algobase.h ****    *  @param  __b  Another iterator.
 144:/Library/DaisyToolchain/0.2.0/arm/arm-none-eabi/include/c++/10.3.1/bits/stl_algobase.h ****    *  @return   Nothing.
 145:/Library/DaisyToolchain/0.2.0/arm/arm-none-eabi/include/c++/10.3.1/bits/stl_algobase.h ****    *
 146:/Library/DaisyToolchain/0.2.0/arm/arm-none-eabi/include/c++/10.3.1/bits/stl_algobase.h ****    *  This function swaps the values pointed to by two iterators, not the
 147:/Library/DaisyToolchain/0.2.0/arm/arm-none-eabi/include/c++/10.3.1/bits/stl_algobase.h ****    *  iterators themselves.
 148:/Library/DaisyToolchain/0.2.0/arm/arm-none-eabi/include/c++/10.3.1/bits/stl_algobase.h ****   */
 149:/Library/DaisyToolchain/0.2.0/arm/arm-none-eabi/include/c++/10.3.1/bits/stl_algobase.h ****   template<typename _ForwardIterator1, typename _ForwardIterator2>
 150:/Library/DaisyToolchain/0.2.0/arm/arm-none-eabi/include/c++/10.3.1/bits/stl_algobase.h ****     _GLIBCXX20_CONSTEXPR
 151:/Library/DaisyToolchain/0.2.0/arm/arm-none-eabi/include/c++/10.3.1/bits/stl_algobase.h ****     inline void
ARM GAS  /var/folders/1y/_321xjh9623c014x9_qw12rr0000gn/T//ccXZVGQV.s 			page 25


 152:/Library/DaisyToolchain/0.2.0/arm/arm-none-eabi/include/c++/10.3.1/bits/stl_algobase.h ****     iter_swap(_ForwardIterator1 __a, _ForwardIterator2 __b)
 153:/Library/DaisyToolchain/0.2.0/arm/arm-none-eabi/include/c++/10.3.1/bits/stl_algobase.h ****     {
 154:/Library/DaisyToolchain/0.2.0/arm/arm-none-eabi/include/c++/10.3.1/bits/stl_algobase.h ****       // concept requirements
 155:/Library/DaisyToolchain/0.2.0/arm/arm-none-eabi/include/c++/10.3.1/bits/stl_algobase.h ****       __glibcxx_function_requires(_Mutable_ForwardIteratorConcept<
 156:/Library/DaisyToolchain/0.2.0/arm/arm-none-eabi/include/c++/10.3.1/bits/stl_algobase.h **** 				  _ForwardIterator1>)
 157:/Library/DaisyToolchain/0.2.0/arm/arm-none-eabi/include/c++/10.3.1/bits/stl_algobase.h ****       __glibcxx_function_requires(_Mutable_ForwardIteratorConcept<
 158:/Library/DaisyToolchain/0.2.0/arm/arm-none-eabi/include/c++/10.3.1/bits/stl_algobase.h **** 				  _ForwardIterator2>)
 159:/Library/DaisyToolchain/0.2.0/arm/arm-none-eabi/include/c++/10.3.1/bits/stl_algobase.h **** 
 160:/Library/DaisyToolchain/0.2.0/arm/arm-none-eabi/include/c++/10.3.1/bits/stl_algobase.h **** #if __cplusplus < 201103L
 161:/Library/DaisyToolchain/0.2.0/arm/arm-none-eabi/include/c++/10.3.1/bits/stl_algobase.h ****       typedef typename iterator_traits<_ForwardIterator1>::value_type
 162:/Library/DaisyToolchain/0.2.0/arm/arm-none-eabi/include/c++/10.3.1/bits/stl_algobase.h **** 	_ValueType1;
 163:/Library/DaisyToolchain/0.2.0/arm/arm-none-eabi/include/c++/10.3.1/bits/stl_algobase.h ****       typedef typename iterator_traits<_ForwardIterator2>::value_type
 164:/Library/DaisyToolchain/0.2.0/arm/arm-none-eabi/include/c++/10.3.1/bits/stl_algobase.h **** 	_ValueType2;
 165:/Library/DaisyToolchain/0.2.0/arm/arm-none-eabi/include/c++/10.3.1/bits/stl_algobase.h **** 
 166:/Library/DaisyToolchain/0.2.0/arm/arm-none-eabi/include/c++/10.3.1/bits/stl_algobase.h ****       __glibcxx_function_requires(_ConvertibleConcept<_ValueType1,
 167:/Library/DaisyToolchain/0.2.0/arm/arm-none-eabi/include/c++/10.3.1/bits/stl_algobase.h **** 				  _ValueType2>)
 168:/Library/DaisyToolchain/0.2.0/arm/arm-none-eabi/include/c++/10.3.1/bits/stl_algobase.h ****       __glibcxx_function_requires(_ConvertibleConcept<_ValueType2,
 169:/Library/DaisyToolchain/0.2.0/arm/arm-none-eabi/include/c++/10.3.1/bits/stl_algobase.h **** 				  _ValueType1>)
 170:/Library/DaisyToolchain/0.2.0/arm/arm-none-eabi/include/c++/10.3.1/bits/stl_algobase.h **** 
 171:/Library/DaisyToolchain/0.2.0/arm/arm-none-eabi/include/c++/10.3.1/bits/stl_algobase.h ****       typedef typename iterator_traits<_ForwardIterator1>::reference
 172:/Library/DaisyToolchain/0.2.0/arm/arm-none-eabi/include/c++/10.3.1/bits/stl_algobase.h **** 	_ReferenceType1;
 173:/Library/DaisyToolchain/0.2.0/arm/arm-none-eabi/include/c++/10.3.1/bits/stl_algobase.h ****       typedef typename iterator_traits<_ForwardIterator2>::reference
 174:/Library/DaisyToolchain/0.2.0/arm/arm-none-eabi/include/c++/10.3.1/bits/stl_algobase.h **** 	_ReferenceType2;
 175:/Library/DaisyToolchain/0.2.0/arm/arm-none-eabi/include/c++/10.3.1/bits/stl_algobase.h ****       std::__iter_swap<__are_same<_ValueType1, _ValueType2>::__value
 176:/Library/DaisyToolchain/0.2.0/arm/arm-none-eabi/include/c++/10.3.1/bits/stl_algobase.h **** 	&& __are_same<_ValueType1&, _ReferenceType1>::__value
 177:/Library/DaisyToolchain/0.2.0/arm/arm-none-eabi/include/c++/10.3.1/bits/stl_algobase.h **** 	&& __are_same<_ValueType2&, _ReferenceType2>::__value>::
 178:/Library/DaisyToolchain/0.2.0/arm/arm-none-eabi/include/c++/10.3.1/bits/stl_algobase.h **** 	iter_swap(__a, __b);
 179:/Library/DaisyToolchain/0.2.0/arm/arm-none-eabi/include/c++/10.3.1/bits/stl_algobase.h **** #else
 180:/Library/DaisyToolchain/0.2.0/arm/arm-none-eabi/include/c++/10.3.1/bits/stl_algobase.h ****       // _GLIBCXX_RESOLVE_LIB_DEFECTS
 181:/Library/DaisyToolchain/0.2.0/arm/arm-none-eabi/include/c++/10.3.1/bits/stl_algobase.h ****       // 187. iter_swap underspecified
 182:/Library/DaisyToolchain/0.2.0/arm/arm-none-eabi/include/c++/10.3.1/bits/stl_algobase.h ****       swap(*__a, *__b);
 183:/Library/DaisyToolchain/0.2.0/arm/arm-none-eabi/include/c++/10.3.1/bits/stl_algobase.h **** #endif
 184:/Library/DaisyToolchain/0.2.0/arm/arm-none-eabi/include/c++/10.3.1/bits/stl_algobase.h ****     }
 185:/Library/DaisyToolchain/0.2.0/arm/arm-none-eabi/include/c++/10.3.1/bits/stl_algobase.h **** 
 186:/Library/DaisyToolchain/0.2.0/arm/arm-none-eabi/include/c++/10.3.1/bits/stl_algobase.h ****   /**
 187:/Library/DaisyToolchain/0.2.0/arm/arm-none-eabi/include/c++/10.3.1/bits/stl_algobase.h ****    *  @brief Swap the elements of two sequences.
 188:/Library/DaisyToolchain/0.2.0/arm/arm-none-eabi/include/c++/10.3.1/bits/stl_algobase.h ****    *  @ingroup mutating_algorithms
 189:/Library/DaisyToolchain/0.2.0/arm/arm-none-eabi/include/c++/10.3.1/bits/stl_algobase.h ****    *  @param  __first1  A forward iterator.
 190:/Library/DaisyToolchain/0.2.0/arm/arm-none-eabi/include/c++/10.3.1/bits/stl_algobase.h ****    *  @param  __last1   A forward iterator.
 191:/Library/DaisyToolchain/0.2.0/arm/arm-none-eabi/include/c++/10.3.1/bits/stl_algobase.h ****    *  @param  __first2  A forward iterator.
 192:/Library/DaisyToolchain/0.2.0/arm/arm-none-eabi/include/c++/10.3.1/bits/stl_algobase.h ****    *  @return   An iterator equal to @p first2+(last1-first1).
 193:/Library/DaisyToolchain/0.2.0/arm/arm-none-eabi/include/c++/10.3.1/bits/stl_algobase.h ****    *
 194:/Library/DaisyToolchain/0.2.0/arm/arm-none-eabi/include/c++/10.3.1/bits/stl_algobase.h ****    *  Swaps each element in the range @p [first1,last1) with the
 195:/Library/DaisyToolchain/0.2.0/arm/arm-none-eabi/include/c++/10.3.1/bits/stl_algobase.h ****    *  corresponding element in the range @p [first2,(last1-first1)).
 196:/Library/DaisyToolchain/0.2.0/arm/arm-none-eabi/include/c++/10.3.1/bits/stl_algobase.h ****    *  The ranges must not overlap.
 197:/Library/DaisyToolchain/0.2.0/arm/arm-none-eabi/include/c++/10.3.1/bits/stl_algobase.h ****   */
 198:/Library/DaisyToolchain/0.2.0/arm/arm-none-eabi/include/c++/10.3.1/bits/stl_algobase.h ****   template<typename _ForwardIterator1, typename _ForwardIterator2>
 199:/Library/DaisyToolchain/0.2.0/arm/arm-none-eabi/include/c++/10.3.1/bits/stl_algobase.h ****     _GLIBCXX20_CONSTEXPR
 200:/Library/DaisyToolchain/0.2.0/arm/arm-none-eabi/include/c++/10.3.1/bits/stl_algobase.h ****     _ForwardIterator2
 201:/Library/DaisyToolchain/0.2.0/arm/arm-none-eabi/include/c++/10.3.1/bits/stl_algobase.h ****     swap_ranges(_ForwardIterator1 __first1, _ForwardIterator1 __last1,
 202:/Library/DaisyToolchain/0.2.0/arm/arm-none-eabi/include/c++/10.3.1/bits/stl_algobase.h **** 		_ForwardIterator2 __first2)
 203:/Library/DaisyToolchain/0.2.0/arm/arm-none-eabi/include/c++/10.3.1/bits/stl_algobase.h ****     {
 204:/Library/DaisyToolchain/0.2.0/arm/arm-none-eabi/include/c++/10.3.1/bits/stl_algobase.h ****       // concept requirements
 205:/Library/DaisyToolchain/0.2.0/arm/arm-none-eabi/include/c++/10.3.1/bits/stl_algobase.h ****       __glibcxx_function_requires(_Mutable_ForwardIteratorConcept<
 206:/Library/DaisyToolchain/0.2.0/arm/arm-none-eabi/include/c++/10.3.1/bits/stl_algobase.h **** 				  _ForwardIterator1>)
 207:/Library/DaisyToolchain/0.2.0/arm/arm-none-eabi/include/c++/10.3.1/bits/stl_algobase.h ****       __glibcxx_function_requires(_Mutable_ForwardIteratorConcept<
 208:/Library/DaisyToolchain/0.2.0/arm/arm-none-eabi/include/c++/10.3.1/bits/stl_algobase.h **** 				  _ForwardIterator2>)
ARM GAS  /var/folders/1y/_321xjh9623c014x9_qw12rr0000gn/T//ccXZVGQV.s 			page 26


 209:/Library/DaisyToolchain/0.2.0/arm/arm-none-eabi/include/c++/10.3.1/bits/stl_algobase.h ****       __glibcxx_requires_valid_range(__first1, __last1);
 210:/Library/DaisyToolchain/0.2.0/arm/arm-none-eabi/include/c++/10.3.1/bits/stl_algobase.h **** 
 211:/Library/DaisyToolchain/0.2.0/arm/arm-none-eabi/include/c++/10.3.1/bits/stl_algobase.h ****       for (; __first1 != __last1; ++__first1, (void)++__first2)
 212:/Library/DaisyToolchain/0.2.0/arm/arm-none-eabi/include/c++/10.3.1/bits/stl_algobase.h **** 	std::iter_swap(__first1, __first2);
 213:/Library/DaisyToolchain/0.2.0/arm/arm-none-eabi/include/c++/10.3.1/bits/stl_algobase.h ****       return __first2;
 214:/Library/DaisyToolchain/0.2.0/arm/arm-none-eabi/include/c++/10.3.1/bits/stl_algobase.h ****     }
 215:/Library/DaisyToolchain/0.2.0/arm/arm-none-eabi/include/c++/10.3.1/bits/stl_algobase.h **** 
 216:/Library/DaisyToolchain/0.2.0/arm/arm-none-eabi/include/c++/10.3.1/bits/stl_algobase.h ****   /**
 217:/Library/DaisyToolchain/0.2.0/arm/arm-none-eabi/include/c++/10.3.1/bits/stl_algobase.h ****    *  @brief This does what you think it does.
 218:/Library/DaisyToolchain/0.2.0/arm/arm-none-eabi/include/c++/10.3.1/bits/stl_algobase.h ****    *  @ingroup sorting_algorithms
 219:/Library/DaisyToolchain/0.2.0/arm/arm-none-eabi/include/c++/10.3.1/bits/stl_algobase.h ****    *  @param  __a  A thing of arbitrary type.
 220:/Library/DaisyToolchain/0.2.0/arm/arm-none-eabi/include/c++/10.3.1/bits/stl_algobase.h ****    *  @param  __b  Another thing of arbitrary type.
 221:/Library/DaisyToolchain/0.2.0/arm/arm-none-eabi/include/c++/10.3.1/bits/stl_algobase.h ****    *  @return   The lesser of the parameters.
 222:/Library/DaisyToolchain/0.2.0/arm/arm-none-eabi/include/c++/10.3.1/bits/stl_algobase.h ****    *
 223:/Library/DaisyToolchain/0.2.0/arm/arm-none-eabi/include/c++/10.3.1/bits/stl_algobase.h ****    *  This is the simple classic generic implementation.  It will work on
 224:/Library/DaisyToolchain/0.2.0/arm/arm-none-eabi/include/c++/10.3.1/bits/stl_algobase.h ****    *  temporary expressions, since they are only evaluated once, unlike a
 225:/Library/DaisyToolchain/0.2.0/arm/arm-none-eabi/include/c++/10.3.1/bits/stl_algobase.h ****    *  preprocessor macro.
 226:/Library/DaisyToolchain/0.2.0/arm/arm-none-eabi/include/c++/10.3.1/bits/stl_algobase.h ****   */
 227:/Library/DaisyToolchain/0.2.0/arm/arm-none-eabi/include/c++/10.3.1/bits/stl_algobase.h ****   template<typename _Tp>
 228:/Library/DaisyToolchain/0.2.0/arm/arm-none-eabi/include/c++/10.3.1/bits/stl_algobase.h ****     _GLIBCXX14_CONSTEXPR
 229:/Library/DaisyToolchain/0.2.0/arm/arm-none-eabi/include/c++/10.3.1/bits/stl_algobase.h ****     inline const _Tp&
 230:/Library/DaisyToolchain/0.2.0/arm/arm-none-eabi/include/c++/10.3.1/bits/stl_algobase.h ****     min(const _Tp& __a, const _Tp& __b)
 231:/Library/DaisyToolchain/0.2.0/arm/arm-none-eabi/include/c++/10.3.1/bits/stl_algobase.h ****     {
 232:/Library/DaisyToolchain/0.2.0/arm/arm-none-eabi/include/c++/10.3.1/bits/stl_algobase.h ****       // concept requirements
 233:/Library/DaisyToolchain/0.2.0/arm/arm-none-eabi/include/c++/10.3.1/bits/stl_algobase.h ****       __glibcxx_function_requires(_LessThanComparableConcept<_Tp>)
 234:/Library/DaisyToolchain/0.2.0/arm/arm-none-eabi/include/c++/10.3.1/bits/stl_algobase.h ****       //return __b < __a ? __b : __a;
 235:/Library/DaisyToolchain/0.2.0/arm/arm-none-eabi/include/c++/10.3.1/bits/stl_algobase.h ****       if (__b < __a)
 236:/Library/DaisyToolchain/0.2.0/arm/arm-none-eabi/include/c++/10.3.1/bits/stl_algobase.h **** 	return __b;
 237:/Library/DaisyToolchain/0.2.0/arm/arm-none-eabi/include/c++/10.3.1/bits/stl_algobase.h ****       return __a;
 238:/Library/DaisyToolchain/0.2.0/arm/arm-none-eabi/include/c++/10.3.1/bits/stl_algobase.h ****     }
 239:/Library/DaisyToolchain/0.2.0/arm/arm-none-eabi/include/c++/10.3.1/bits/stl_algobase.h **** 
 240:/Library/DaisyToolchain/0.2.0/arm/arm-none-eabi/include/c++/10.3.1/bits/stl_algobase.h ****   /**
 241:/Library/DaisyToolchain/0.2.0/arm/arm-none-eabi/include/c++/10.3.1/bits/stl_algobase.h ****    *  @brief This does what you think it does.
 242:/Library/DaisyToolchain/0.2.0/arm/arm-none-eabi/include/c++/10.3.1/bits/stl_algobase.h ****    *  @ingroup sorting_algorithms
 243:/Library/DaisyToolchain/0.2.0/arm/arm-none-eabi/include/c++/10.3.1/bits/stl_algobase.h ****    *  @param  __a  A thing of arbitrary type.
 244:/Library/DaisyToolchain/0.2.0/arm/arm-none-eabi/include/c++/10.3.1/bits/stl_algobase.h ****    *  @param  __b  Another thing of arbitrary type.
 245:/Library/DaisyToolchain/0.2.0/arm/arm-none-eabi/include/c++/10.3.1/bits/stl_algobase.h ****    *  @return   The greater of the parameters.
 246:/Library/DaisyToolchain/0.2.0/arm/arm-none-eabi/include/c++/10.3.1/bits/stl_algobase.h ****    *
 247:/Library/DaisyToolchain/0.2.0/arm/arm-none-eabi/include/c++/10.3.1/bits/stl_algobase.h ****    *  This is the simple classic generic implementation.  It will work on
 248:/Library/DaisyToolchain/0.2.0/arm/arm-none-eabi/include/c++/10.3.1/bits/stl_algobase.h ****    *  temporary expressions, since they are only evaluated once, unlike a
 249:/Library/DaisyToolchain/0.2.0/arm/arm-none-eabi/include/c++/10.3.1/bits/stl_algobase.h ****    *  preprocessor macro.
 250:/Library/DaisyToolchain/0.2.0/arm/arm-none-eabi/include/c++/10.3.1/bits/stl_algobase.h ****   */
 251:/Library/DaisyToolchain/0.2.0/arm/arm-none-eabi/include/c++/10.3.1/bits/stl_algobase.h ****   template<typename _Tp>
 252:/Library/DaisyToolchain/0.2.0/arm/arm-none-eabi/include/c++/10.3.1/bits/stl_algobase.h ****     _GLIBCXX14_CONSTEXPR
 253:/Library/DaisyToolchain/0.2.0/arm/arm-none-eabi/include/c++/10.3.1/bits/stl_algobase.h ****     inline const _Tp&
 254:/Library/DaisyToolchain/0.2.0/arm/arm-none-eabi/include/c++/10.3.1/bits/stl_algobase.h ****     max(const _Tp& __a, const _Tp& __b)
 239              		.loc 5 254 5 view .LVU42
 240              	.LBE317:
 298:Dubby.cpp     ****                                     0),
 241              		.loc 2 298 61 is_stmt 0 view .LVU43
 242 0060 049A     		ldr	r2, [sp, #16]
 298:Dubby.cpp     ****                                     0),
 243              		.loc 2 298 63 view .LVU44
 244 0062 9FED617A 		vldr.32	s14, .L44
 298:Dubby.cpp     ****                                     0),
 245              		.loc 2 298 61 view .LVU45
 246 0066 F2EC017A 		vldmia.32	r2!, {s15}
ARM GAS  /var/folders/1y/_321xjh9623c014x9_qw12rr0000gn/T//ccXZVGQV.s 			page 27


 298:Dubby.cpp     ****                                     0),
 247              		.loc 2 298 63 view .LVU46
 248 006a 67EE877A 		vmul.f32	s15, s15, s14
 298:Dubby.cpp     ****                                     0),
 249              		.loc 2 298 61 view .LVU47
 250 006e 0492     		str	r2, [sp, #16]
 298:Dubby.cpp     ****                                     0),
 251              		.loc 2 298 43 view .LVU48
 252 0070 FDEEE77A 		vcvt.s32.f32	s15, s15
 253              	.LBB320:
 254              	.LBB318:
 255:/Library/DaisyToolchain/0.2.0/arm/arm-none-eabi/include/c++/10.3.1/bits/stl_algobase.h ****     {
 256:/Library/DaisyToolchain/0.2.0/arm/arm-none-eabi/include/c++/10.3.1/bits/stl_algobase.h ****       // concept requirements
 257:/Library/DaisyToolchain/0.2.0/arm/arm-none-eabi/include/c++/10.3.1/bits/stl_algobase.h ****       __glibcxx_function_requires(_LessThanComparableConcept<_Tp>)
 258:/Library/DaisyToolchain/0.2.0/arm/arm-none-eabi/include/c++/10.3.1/bits/stl_algobase.h ****       //return  __a < __b ? __b : __a;
 259:/Library/DaisyToolchain/0.2.0/arm/arm-none-eabi/include/c++/10.3.1/bits/stl_algobase.h ****       if (__a < __b)
 255              		.loc 5 259 7 view .LVU49
 256 0074 17EE902A 		vmov	r2, s15	@ int
 257 0078 D2F11804 		rsbs	r4, r2, #24
 258 007c 00F1AD80 		bmi	.L26
 259              	.LVL15:
 260              		.loc 5 259 7 view .LVU50
 261              	.LBE318:
 262              	.LBE320:
 263              	.LBB321:
 264              	.LBI321:
 230:/Library/DaisyToolchain/0.2.0/arm/arm-none-eabi/include/c++/10.3.1/bits/stl_algobase.h ****     {
 265              		.loc 5 230 5 is_stmt 1 view .LVU51
 266              	.LBB322:
 235:/Library/DaisyToolchain/0.2.0/arm/arm-none-eabi/include/c++/10.3.1/bits/stl_algobase.h **** 	return __b;
 267              		.loc 5 235 7 is_stmt 0 view .LVU52
 268 0080 312C     		cmp	r4, #49
 269 0082 40F3AB80 		ble	.L7
 270 0086 3224     		movs	r4, #50
 271              	.LVL16:
 272              	.L8:
 235:/Library/DaisyToolchain/0.2.0/arm/arm-none-eabi/include/c++/10.3.1/bits/stl_algobase.h **** 	return __b;
 273              		.loc 5 235 7 view .LVU53
 274              	.LBE322:
 275              	.LBE321:
 301:Dubby.cpp     ****             if(i != 0)
 276              		.loc 2 301 13 is_stmt 1 view .LVU54
 301:Dubby.cpp     ****             if(i != 0)
 277              		.loc 2 301 46 is_stmt 0 view .LVU55
 278 0088 019A     		ldr	r2, [sp, #4]
 302:Dubby.cpp     ****             {
 279              		.loc 2 302 13 view .LVU56
 280 008a B9F1010F 		cmp	r9, #1
 301:Dubby.cpp     ****             if(i != 0)
 281              		.loc 2 301 46 view .LVU57
 282 008e 4FEAD215 		lsr	r5, r2, #7
 301:Dubby.cpp     ****             if(i != 0)
 283              		.loc 2 301 23 view .LVU58
 284 0092 05F10105 		add	r5, r5, #1
 285              	.LVL17:
 302:Dubby.cpp     ****             {
 286              		.loc 2 302 13 is_stmt 1 view .LVU59
ARM GAS  /var/folders/1y/_321xjh9623c014x9_qw12rr0000gn/T//ccXZVGQV.s 			page 28


 287 0096 DCD0     		beq	.L9
 304:Dubby.cpp     ****             }
 288              		.loc 2 304 17 view .LVU60
 289              	.LBB323:
 290              	.LBB324:
 227:../../libDaisy//src/hid/disp/display.h ****         int_fast16_t deltaY = abs((int_fast16_t)y2 - (int_fast16_t)y1);
 291              		.loc 3 227 52 is_stmt 0 view .LVU61
 292 0098 EF1A     		subs	r7, r5, r3
 228:../../libDaisy//src/hid/disp/display.h ****         int_fast16_t signX  = ((x1 < x2) ? 1 : -1);
 293              		.loc 3 228 52 view .LVU62
 294 009a A4EB060E 		sub	lr, r4, r6
 295              	.LBE324:
 296              	.LBE323:
 304:Dubby.cpp     ****             }
 297              		.loc 2 304 33 view .LVU63
 298 009e 1946     		mov	r1, r3
 299 00a0 3246     		mov	r2, r6
 300              	.LVL18:
 301              	.LBB343:
 302              	.LBI323:
 221:../../libDaisy//src/hid/disp/display.h ****                   uint_fast8_t y1,
 303              		.loc 3 221 10 is_stmt 1 view .LVU64
 304              	.LBB341:
 227:../../libDaisy//src/hid/disp/display.h ****         int_fast16_t deltaY = abs((int_fast16_t)y2 - (int_fast16_t)y1);
 305              		.loc 3 227 22 is_stmt 0 view .LVU65
 306 00a2 002F     		cmp	r7, #0
 307 00a4 B8BF     		it	lt
 308 00a6 7F42     		rsblt	r7, r7, #0
 309              	.LVL19:
 228:../../libDaisy//src/hid/disp/display.h ****         int_fast16_t signX  = ((x1 < x2) ? 1 : -1);
 310              		.loc 3 228 22 view .LVU66
 311 00a8 BEF1000F 		cmp	lr, #0
 312 00ac B8BF     		it	lt
 313 00ae CEF1000E 		rsblt	lr, lr, #0
 314              	.LVL20:
 229:../../libDaisy//src/hid/disp/display.h ****         int_fast16_t signY  = ((y1 < y2) ? 1 : -1);
 315              		.loc 3 229 42 view .LVU67
 316 00b2 9D42     		cmp	r5, r3
 317 00b4 8CBF     		ite	hi
 318 00b6 0120     		movhi	r0, #1
 319 00b8 4FF0FF30 		movls	r0, #-1
 230:../../libDaisy//src/hid/disp/display.h ****         int_fast16_t error  = deltaX - deltaY;
 320              		.loc 3 230 42 view .LVU68
 321 00bc A642     		cmp	r6, r4
 229:../../libDaisy//src/hid/disp/display.h ****         int_fast16_t signY  = ((y1 < y2) ? 1 : -1);
 322              		.loc 3 229 42 view .LVU69
 323 00be 0290     		str	r0, [sp, #8]
 324              	.LVL21:
 231:../../libDaisy//src/hid/disp/display.h ****         int_fast16_t error2;
 325              		.loc 3 231 22 view .LVU70
 326 00c0 A7EB0E00 		sub	r0, r7, lr
 327              	.LVL22:
 231:../../libDaisy//src/hid/disp/display.h ****         int_fast16_t error2;
 328              		.loc 3 231 22 view .LVU71
 329 00c4 0590     		str	r0, [sp, #20]
 230:../../libDaisy//src/hid/disp/display.h ****         int_fast16_t error  = deltaX - deltaY;
 330              		.loc 3 230 42 view .LVU72
ARM GAS  /var/folders/1y/_321xjh9623c014x9_qw12rr0000gn/T//ccXZVGQV.s 			page 29


 331 00c6 C0F08B80 		bcc	.L24
 332              	.LVL23:
 333              	.LBB325:
 334              	.LBI325:
 335              		.loc 1 42 10 is_stmt 1 view .LVU73
 336              	.LBB326:
 337              	.LBI326:
 352:../../libDaisy//src/dev/oled_ssd130x.h ****     {
 338              		.loc 4 352 10 view .LVU74
 339              	.LBE326:
 340              	.LBE325:
 230:../../libDaisy//src/hid/disp/display.h ****         int_fast16_t error  = deltaX - deltaY;
 341              		.loc 3 230 42 is_stmt 0 view .LVU75
 342 00ca 4FF0FF30 		mov	r0, #-1
 343              	.LVL24:
 230:../../libDaisy//src/hid/disp/display.h ****         int_fast16_t error  = deltaX - deltaY;
 344              		.loc 3 230 42 view .LVU76
 345 00ce 0390     		str	r0, [sp, #12]
 346              	.LVL25:
 347              	.L23:
 348              	.LBB332:
 349              	.LBB329:
 350              	.LBB327:
 357:../../libDaisy//src/dev/oled_ssd130x.h ****         else
 351              		.loc 4 357 28 view .LVU77
 352 00d0 4FEAD40C 		lsr	ip, r4, #3
 357:../../libDaisy//src/dev/oled_ssd130x.h ****         else
 353              		.loc 4 357 48 view .LVU78
 354 00d4 4FF0010B 		mov	fp, #1
 357:../../libDaisy//src/dev/oled_ssd130x.h ****         else
 355              		.loc 4 357 54 view .LVU79
 356 00d8 04F00708 		and	r8, r4, #7
 357              	.LBE327:
 358              	.LBE329:
 359              	.LBE332:
 239:../../libDaisy//src/hid/disp/display.h ****         {
 360              		.loc 3 239 26 view .LVU80
 361 00dc 9D42     		cmp	r5, r3
 362              	.LBB333:
 363              	.LBB330:
 364              	.LBB328:
 357:../../libDaisy//src/dev/oled_ssd130x.h ****         else
 365              		.loc 4 357 42 view .LVU81
 366 00de 05EBCC1C 		add	ip, r5, ip, lsl #7
 357:../../libDaisy//src/dev/oled_ssd130x.h ****         else
 367              		.loc 4 357 48 view .LVU82
 368 00e2 0BFA08F8 		lsl	r8, fp, r8
 357:../../libDaisy//src/dev/oled_ssd130x.h ****         else
 369              		.loc 4 357 42 view .LVU83
 370 00e6 D444     		add	ip, ip, r10
 371 00e8 9CF8C0B4 		ldrb	fp, [ip, #1216]	@ zero_extendqisi2
 372 00ec 48EA0B08 		orr	r8, r8, fp
 373 00f0 8CF8C084 		strb	r8, [ip, #1216]
 374              	.LVL26:
 357:../../libDaisy//src/dev/oled_ssd130x.h ****         else
 375              		.loc 4 357 42 view .LVU84
 376              	.LBE328:
ARM GAS  /var/folders/1y/_321xjh9623c014x9_qw12rr0000gn/T//ccXZVGQV.s 			page 30


 377              	.LBE330:
 378              	.LBE333:
 239:../../libDaisy//src/hid/disp/display.h ****         {
 379              		.loc 3 239 26 is_stmt 1 view .LVU85
 380 00f4 01D1     		bne	.L14
 381 00f6 A642     		cmp	r6, r4
 382 00f8 28D0     		beq	.L12
 383              	.L14:
 384              	.LVL27:
 243:../../libDaisy//src/hid/disp/display.h ****             {
 385              		.loc 3 243 23 is_stmt 0 view .LVU86
 386 00fa CEF10008 		rsb	r8, lr, #0
 387 00fe 0598     		ldr	r0, [sp, #20]
 388              	.LVL28:
 389              	.L16:
 390              	.LBB334:
 391              	.LBI334:
 392              		.loc 1 42 10 is_stmt 1 view .LVU87
 393              	.LBB335:
 394              	.LBI335:
 352:../../libDaisy//src/dev/oled_ssd130x.h ****     {
 395              		.loc 4 352 10 view .LVU88
 396              	.LBB336:
 357:../../libDaisy//src/dev/oled_ssd130x.h ****         else
 397              		.loc 4 357 48 is_stmt 0 view .LVU89
 398 0100 4FF0010C 		mov	ip, #1
 357:../../libDaisy//src/dev/oled_ssd130x.h ****         else
 399              		.loc 4 357 28 view .LVU90
 400 0104 D308     		lsrs	r3, r2, #3
 357:../../libDaisy//src/dev/oled_ssd130x.h ****         else
 401              		.loc 4 357 54 view .LVU91
 402 0106 02F00706 		and	r6, r2, #7
 354:../../libDaisy//src/dev/oled_ssd130x.h ****             return;
 403              		.loc 4 354 9 view .LVU92
 404 010a 7F29     		cmp	r1, #127
 357:../../libDaisy//src/dev/oled_ssd130x.h ****         else
 405              		.loc 4 357 42 view .LVU93
 406 010c 01EBC313 		add	r3, r1, r3, lsl #7
 407              	.LBE336:
 408              	.LBE335:
 409              	.LBE334:
 242:../../libDaisy//src/hid/disp/display.h ****             if(error2 > -deltaY)
 410              		.loc 3 242 20 view .LVU94
 411 0110 00FA0CFB 		lsl	fp, r0, ip
 412              	.LVL29:
 413              	.LBB339:
 414              	.LBB338:
 415              	.LBB337:
 357:../../libDaisy//src/dev/oled_ssd130x.h ****         else
 416              		.loc 4 357 48 view .LVU95
 417 0114 0CFA06F6 		lsl	r6, ip, r6
 354:../../libDaisy//src/dev/oled_ssd130x.h ****             return;
 418              		.loc 4 354 9 view .LVU96
 419 0118 08D8     		bhi	.L17
 420 011a 3F2A     		cmp	r2, #63
 357:../../libDaisy//src/dev/oled_ssd130x.h ****         else
 421              		.loc 4 357 42 view .LVU97
ARM GAS  /var/folders/1y/_321xjh9623c014x9_qw12rr0000gn/T//ccXZVGQV.s 			page 31


 422 011c 5344     		add	r3, r3, r10
 354:../../libDaisy//src/dev/oled_ssd130x.h ****             return;
 423              		.loc 4 354 9 view .LVU98
 424 011e 05D8     		bhi	.L17
 357:../../libDaisy//src/dev/oled_ssd130x.h ****         else
 425              		.loc 4 357 42 view .LVU99
 426 0120 93F8C0C4 		ldrb	ip, [r3, #1216]	@ zero_extendqisi2
 427 0124 46EA0C06 		orr	r6, r6, ip
 428 0128 83F8C064 		strb	r6, [r3, #1216]
 429              	.L17:
 357:../../libDaisy//src/dev/oled_ssd130x.h ****         else
 430              		.loc 4 357 42 view .LVU100
 431              	.LBE337:
 432              	.LBE338:
 433              	.LBE339:
 243:../../libDaisy//src/hid/disp/display.h ****             {
 434              		.loc 3 243 13 view .LVU101
 435 012c B8EB400F 		cmp	r8, r0, lsl #1
 436 0130 03DA     		bge	.L18
 246:../../libDaisy//src/hid/disp/display.h ****             }
 437              		.loc 3 246 20 view .LVU102
 438 0132 029B     		ldr	r3, [sp, #8]
 245:../../libDaisy//src/hid/disp/display.h ****                 x1 += signX;
 439              		.loc 3 245 23 view .LVU103
 440 0134 A0EB0E00 		sub	r0, r0, lr
 441              	.LVL30:
 246:../../libDaisy//src/hid/disp/display.h ****             }
 442              		.loc 3 246 20 view .LVU104
 443 0138 1944     		add	r1, r1, r3
 444              	.LVL31:
 445              	.L18:
 249:../../libDaisy//src/hid/disp/display.h ****             {
 446              		.loc 3 249 13 view .LVU105
 447 013a 5F45     		cmp	r7, fp
 448 013c 02DD     		ble	.L19
 252:../../libDaisy//src/hid/disp/display.h ****             }
 449              		.loc 3 252 20 view .LVU106
 450 013e 039B     		ldr	r3, [sp, #12]
 251:../../libDaisy//src/hid/disp/display.h ****                 y1 += signY;
 451              		.loc 3 251 23 view .LVU107
 452 0140 3844     		add	r0, r0, r7
 453              	.LVL32:
 252:../../libDaisy//src/hid/disp/display.h ****             }
 454              		.loc 3 252 20 view .LVU108
 455 0142 1A44     		add	r2, r2, r3
 456              	.LVL33:
 457              	.L19:
 239:../../libDaisy//src/hid/disp/display.h ****         {
 458              		.loc 3 239 26 is_stmt 1 view .LVU109
 459 0144 8D42     		cmp	r5, r1
 460 0146 DBD1     		bne	.L16
 239:../../libDaisy//src/hid/disp/display.h ****         {
 461              		.loc 3 239 26 is_stmt 0 view .LVU110
 462 0148 9442     		cmp	r4, r2
 463 014a D9D1     		bne	.L16
 464              	.LVL34:
 465              	.L12:
ARM GAS  /var/folders/1y/_321xjh9623c014x9_qw12rr0000gn/T//ccXZVGQV.s 			page 32


 239:../../libDaisy//src/hid/disp/display.h ****         {
 466              		.loc 3 239 26 view .LVU111
 467              	.LBE341:
 468              	.LBE343:
 469              		.loc 2 306 13 is_stmt 1 view .LVU112
 307:Dubby.cpp     ****             prev_y = y;
 470              		.loc 2 307 13 view .LVU113
 471              		.loc 2 307 13 is_stmt 0 view .LVU114
 472              	.LBE316:
 295:Dubby.cpp     ****         {
 473              		.loc 2 295 9 is_stmt 1 view .LVU115
 295:Dubby.cpp     ****         {
 474              		.loc 2 295 29 view .LVU116
 475 014c B9F1800F 		cmp	r9, #128
 476 0150 7FF47FAF 		bne	.L9
 477              	.LBE315:
 478              	.LBB347:
 479              	.LBB348:
 480              	.LBB349:
 481              	.LBB350:
 482              	.LBB351:
 124:../../libDaisy//src/dev/oled_ssd130x.h ****         spi_.BlockingTransmit(&cmd, 1);
 483              		.loc 4 124 24 is_stmt 0 view .LVU117
 484 0154 0AF2B447 		addw	r7, r10, #1204
 485 0158 0AF2BC46 		addw	r6, r10, #1212
 486 015c 0AF59864 		add	r4, r10, #1216
 125:../../libDaisy//src/dev/oled_ssd130x.h ****     };
 487              		.loc 4 125 30 view .LVU118
 488 0160 B025     		movs	r5, #176
 489              	.LVL35:
 490              	.L22:
 125:../../libDaisy//src/dev/oled_ssd130x.h ****     };
 491              		.loc 4 125 30 view .LVU119
 492 0162 4FF00008 		mov	r8, #0
 124:../../libDaisy//src/dev/oled_ssd130x.h ****         spi_.BlockingTransmit(&cmd, 1);
 493              		.loc 4 124 23 view .LVU120
 494 0166 3046     		mov	r0, r6
 495 0168 8DF81F50 		strb	r5, [sp, #31]
 496              	.LVL36:
 124:../../libDaisy//src/dev/oled_ssd130x.h ****         spi_.BlockingTransmit(&cmd, 1);
 497              		.loc 4 124 23 view .LVU121
 498              	.LBE351:
 499              	.LBI350:
 122:../../libDaisy//src/dev/oled_ssd130x.h ****     {
 500              		.loc 4 122 10 is_stmt 1 view .LVU122
 501              	.LBB352:
 124:../../libDaisy//src/dev/oled_ssd130x.h ****         spi_.BlockingTransmit(&cmd, 1);
 502              		.loc 4 124 9 view .LVU123
 503              	.LBE352:
 504              	.LBE350:
 360:../../libDaisy//src/dev/oled_ssd130x.h ****     }
 361:../../libDaisy//src/dev/oled_ssd130x.h **** 
 362:../../libDaisy//src/dev/oled_ssd130x.h ****     void Fill(bool on)
 363:../../libDaisy//src/dev/oled_ssd130x.h ****     {
 364:../../libDaisy//src/dev/oled_ssd130x.h ****         for(size_t i = 0; i < sizeof(buffer_); i++)
 365:../../libDaisy//src/dev/oled_ssd130x.h ****         {
 366:../../libDaisy//src/dev/oled_ssd130x.h ****             buffer_[i] = on ? 0xff : 0x00;
ARM GAS  /var/folders/1y/_321xjh9623c014x9_qw12rr0000gn/T//ccXZVGQV.s 			page 33


 367:../../libDaisy//src/dev/oled_ssd130x.h ****         }
 368:../../libDaisy//src/dev/oled_ssd130x.h ****     };
 369:../../libDaisy//src/dev/oled_ssd130x.h **** 
 370:../../libDaisy//src/dev/oled_ssd130x.h ****     /**
 371:../../libDaisy//src/dev/oled_ssd130x.h ****      * Update the display 
 372:../../libDaisy//src/dev/oled_ssd130x.h ****     */
 373:../../libDaisy//src/dev/oled_ssd130x.h ****     void Update()
 374:../../libDaisy//src/dev/oled_ssd130x.h ****     {
 375:../../libDaisy//src/dev/oled_ssd130x.h ****         uint8_t i;
 376:../../libDaisy//src/dev/oled_ssd130x.h ****         uint8_t high_column_addr;
 377:../../libDaisy//src/dev/oled_ssd130x.h ****         switch(height)
 378:../../libDaisy//src/dev/oled_ssd130x.h ****         {
 379:../../libDaisy//src/dev/oled_ssd130x.h ****             case 32: high_column_addr = 0x12; break;
 380:../../libDaisy//src/dev/oled_ssd130x.h **** 
 381:../../libDaisy//src/dev/oled_ssd130x.h ****             default: high_column_addr = 0x10; break;
 382:../../libDaisy//src/dev/oled_ssd130x.h ****         }
 383:../../libDaisy//src/dev/oled_ssd130x.h ****         for(i = 0; i < (height / 8); i++)
 505              		.loc 4 383 22 is_stmt 0 view .LVU124
 506 016c 0135     		adds	r5, r5, #1
 507              	.LVL37:
 508              	.LBB355:
 509              	.LBB353:
 124:../../libDaisy//src/dev/oled_ssd130x.h ****         spi_.BlockingTransmit(&cmd, 1);
 510              		.loc 4 124 23 view .LVU125
 511 016e 4146     		mov	r1, r8
 512 0170 FFF7FEFF 		bl	dsy_gpio_write
 513              	.LVL38:
 125:../../libDaisy//src/dev/oled_ssd130x.h ****     };
 514              		.loc 4 125 9 is_stmt 1 view .LVU126
 125:../../libDaisy//src/dev/oled_ssd130x.h ****     };
 515              		.loc 4 125 30 is_stmt 0 view .LVU127
 516 0174 6423     		movs	r3, #100
 517 0176 0122     		movs	r2, #1
 518 0178 0DF11F01 		add	r1, sp, #31
 519 017c 3846     		mov	r0, r7
 520              	.LBE353:
 521              	.LBE355:
 522              		.loc 4 383 22 view .LVU128
 523 017e EDB2     		uxtb	r5, r5
 524              	.LBB356:
 525              	.LBB354:
 125:../../libDaisy//src/dev/oled_ssd130x.h ****     };
 526              		.loc 4 125 30 view .LVU129
 527 0180 FFF7FEFF 		bl	_ZN5daisy9SpiHandle16BlockingTransmitEPhjm
 528              	.LVL39:
 125:../../libDaisy//src/dev/oled_ssd130x.h ****     };
 529              		.loc 4 125 30 view .LVU130
 530              	.LBE354:
 531              	.LBE356:
 532              	.LBB357:
 533              	.LBB358:
 124:../../libDaisy//src/dev/oled_ssd130x.h ****         spi_.BlockingTransmit(&cmd, 1);
 534              		.loc 4 124 23 view .LVU131
 535 0184 4146     		mov	r1, r8
 536 0186 3046     		mov	r0, r6
 537 0188 8DF81F80 		strb	r8, [sp, #31]
 538              	.LVL40:
ARM GAS  /var/folders/1y/_321xjh9623c014x9_qw12rr0000gn/T//ccXZVGQV.s 			page 34


 124:../../libDaisy//src/dev/oled_ssd130x.h ****         spi_.BlockingTransmit(&cmd, 1);
 539              		.loc 4 124 23 view .LVU132
 540              	.LBE358:
 541              	.LBI357:
 122:../../libDaisy//src/dev/oled_ssd130x.h ****     {
 542              		.loc 4 122 10 is_stmt 1 view .LVU133
 543              	.LBB359:
 124:../../libDaisy//src/dev/oled_ssd130x.h ****         spi_.BlockingTransmit(&cmd, 1);
 544              		.loc 4 124 9 view .LVU134
 124:../../libDaisy//src/dev/oled_ssd130x.h ****         spi_.BlockingTransmit(&cmd, 1);
 545              		.loc 4 124 23 is_stmt 0 view .LVU135
 546 018c FFF7FEFF 		bl	dsy_gpio_write
 547              	.LVL41:
 125:../../libDaisy//src/dev/oled_ssd130x.h ****     };
 548              		.loc 4 125 9 is_stmt 1 view .LVU136
 125:../../libDaisy//src/dev/oled_ssd130x.h ****     };
 549              		.loc 4 125 30 is_stmt 0 view .LVU137
 550 0190 0122     		movs	r2, #1
 551 0192 6423     		movs	r3, #100
 552 0194 0DF11F01 		add	r1, sp, #31
 553 0198 3846     		mov	r0, r7
 554 019a FFF7FEFF 		bl	_ZN5daisy9SpiHandle16BlockingTransmitEPhjm
 555              	.LVL42:
 125:../../libDaisy//src/dev/oled_ssd130x.h ****     };
 556              		.loc 4 125 30 view .LVU138
 557 019e 1023     		movs	r3, #16
 558              	.LBE359:
 559              	.LBE357:
 560              	.LBB360:
 561              	.LBB361:
 124:../../libDaisy//src/dev/oled_ssd130x.h ****         spi_.BlockingTransmit(&cmd, 1);
 562              		.loc 4 124 23 view .LVU139
 563 01a0 4146     		mov	r1, r8
 564 01a2 3046     		mov	r0, r6
 565 01a4 8DF81F30 		strb	r3, [sp, #31]
 566              	.LVL43:
 124:../../libDaisy//src/dev/oled_ssd130x.h ****         spi_.BlockingTransmit(&cmd, 1);
 567              		.loc 4 124 23 view .LVU140
 568              	.LBE361:
 569              	.LBI360:
 122:../../libDaisy//src/dev/oled_ssd130x.h ****     {
 570              		.loc 4 122 10 is_stmt 1 view .LVU141
 571              	.LBB362:
 124:../../libDaisy//src/dev/oled_ssd130x.h ****         spi_.BlockingTransmit(&cmd, 1);
 572              		.loc 4 124 9 view .LVU142
 124:../../libDaisy//src/dev/oled_ssd130x.h ****         spi_.BlockingTransmit(&cmd, 1);
 573              		.loc 4 124 23 is_stmt 0 view .LVU143
 574 01a8 FFF7FEFF 		bl	dsy_gpio_write
 575              	.LVL44:
 125:../../libDaisy//src/dev/oled_ssd130x.h ****     };
 576              		.loc 4 125 9 is_stmt 1 view .LVU144
 125:../../libDaisy//src/dev/oled_ssd130x.h ****     };
 577              		.loc 4 125 30 is_stmt 0 view .LVU145
 578 01ac 6423     		movs	r3, #100
 579 01ae 0122     		movs	r2, #1
 580 01b0 0DF11F01 		add	r1, sp, #31
 581 01b4 3846     		mov	r0, r7
ARM GAS  /var/folders/1y/_321xjh9623c014x9_qw12rr0000gn/T//ccXZVGQV.s 			page 35


 582 01b6 FFF7FEFF 		bl	_ZN5daisy9SpiHandle16BlockingTransmitEPhjm
 583              	.LVL45:
 125:../../libDaisy//src/dev/oled_ssd130x.h ****     };
 584              		.loc 4 125 30 view .LVU146
 585              	.LBE362:
 586              	.LBE360:
 587              	.LBB363:
 588              	.LBI363:
 128:../../libDaisy//src/dev/oled_ssd130x.h ****     {
 589              		.loc 4 128 10 is_stmt 1 view .LVU147
 590              	.LBB364:
 130:../../libDaisy//src/dev/oled_ssd130x.h ****         spi_.BlockingTransmit(buff, size);
 591              		.loc 4 130 9 view .LVU148
 130:../../libDaisy//src/dev/oled_ssd130x.h ****         spi_.BlockingTransmit(buff, size);
 592              		.loc 4 130 23 is_stmt 0 view .LVU149
 593 01ba 0121     		movs	r1, #1
 594 01bc 3046     		mov	r0, r6
 595 01be FFF7FEFF 		bl	dsy_gpio_write
 596              	.LVL46:
 131:../../libDaisy//src/dev/oled_ssd130x.h ****     };
 597              		.loc 4 131 9 is_stmt 1 view .LVU150
 131:../../libDaisy//src/dev/oled_ssd130x.h ****     };
 598              		.loc 4 131 30 is_stmt 0 view .LVU151
 599 01c2 8022     		movs	r2, #128
 600 01c4 2146     		mov	r1, r4
 601 01c6 6423     		movs	r3, #100
 602 01c8 3846     		mov	r0, r7
 603              	.LBE364:
 604              	.LBE363:
 605              		.loc 4 383 22 view .LVU152
 606 01ca 1444     		add	r4, r4, r2
 607              	.LVL47:
 608              	.LBB366:
 609              	.LBB365:
 131:../../libDaisy//src/dev/oled_ssd130x.h ****     };
 610              		.loc 4 131 30 view .LVU153
 611 01cc FFF7FEFF 		bl	_ZN5daisy9SpiHandle16BlockingTransmitEPhjm
 612              	.LVL48:
 131:../../libDaisy//src/dev/oled_ssd130x.h ****     };
 613              		.loc 4 131 30 view .LVU154
 614              	.LBE365:
 615              	.LBE366:
 616              		.loc 4 383 9 is_stmt 1 view .LVU155
 617              		.loc 4 383 22 view .LVU156
 618 01d0 B82D     		cmp	r5, #184
 619 01d2 C6D1     		bne	.L22
 620              	.LBE349:
 621              	.LBE348:
 622              	.LBE347:
 623              	.LBE368:
 308:Dubby.cpp     ****         }
 309:Dubby.cpp     **** 
 310:Dubby.cpp     ****         display.Update();
 311:Dubby.cpp     ****     }   
 312:Dubby.cpp     **** }
 624              		.loc 2 312 1 is_stmt 0 view .LVU157
 625 01d4 09B0     		add	sp, sp, #36
ARM GAS  /var/folders/1y/_321xjh9623c014x9_qw12rr0000gn/T//ccXZVGQV.s 			page 36


 626              		.cfi_remember_state
 627              		.cfi_def_cfa_offset 36
 628              		@ sp needed
 629 01d6 BDE8F08F 		pop	{r4, r5, r6, r7, r8, r9, r10, fp, pc}
 630              	.LVL49:
 631              	.L26:
 632              		.cfi_restore_state
 633              	.LBB369:
 634              	.LBB367:
 635              	.LBB346:
 636              	.LBB344:
 637              	.LBB319:
 638              		.loc 2 312 1 view .LVU158
 639 01da 0024     		movs	r4, #0
 640              	.LVL50:
 641              	.L7:
 642              		.loc 2 312 1 view .LVU159
 643              	.LBE319:
 644              	.LBE344:
 300:Dubby.cpp     ****             int x = 1 + i * (OLED_WIDTH - 2) / AUDIO_BLOCK_SIZE;
 645              		.loc 2 300 45 view .LVU160
 646 01dc 0134     		adds	r4, r4, #1
 647 01de 53E7     		b	.L8
 648              	.LVL51:
 649              	.L24:
 650              	.LBB345:
 651              	.LBB342:
 652              	.LBB340:
 653              		.loc 1 42 10 is_stmt 1 view .LVU161
 654              	.LBB331:
 352:../../libDaisy//src/dev/oled_ssd130x.h ****     {
 655              		.loc 4 352 10 view .LVU162
 656              	.LBE331:
 657              	.LBE340:
 230:../../libDaisy//src/hid/disp/display.h ****         int_fast16_t error  = deltaX - deltaY;
 658              		.loc 3 230 42 is_stmt 0 view .LVU163
 659 01e0 0120     		movs	r0, #1
 660 01e2 0390     		str	r0, [sp, #12]
 661 01e4 74E7     		b	.L23
 662              	.L45:
 663 01e6 00BF     		.align	2
 664              	.L44:
 665 01e8 00001643 		.word	1125515264
 666              	.LBE342:
 667              	.LBE345:
 668              	.LBE346:
 669              	.LBE367:
 670              	.LBE369:
 671              		.cfi_endproc
 672              	.LFE4352:
 674              		.section	.text._ZN5daisy5Dubby12InitControlsEv,"ax",%progbits
 675              		.align	1
 676              		.p2align 2,,3
 677              		.global	_ZN5daisy5Dubby12InitControlsEv
 678              		.syntax unified
 679              		.thumb
 680              		.thumb_func
ARM GAS  /var/folders/1y/_321xjh9623c014x9_qw12rr0000gn/T//ccXZVGQV.s 			page 37


 682              	_ZN5daisy5Dubby12InitControlsEv:
 683              	.LVL52:
 684              	.LFB3733:
  62:Dubby.cpp     ****     AdcChannelConfig cfg[CTRL_LAST];
 685              		.loc 2 62 1 is_stmt 1 view -0
 686              		.cfi_startproc
 687              		@ args = 0, pretend = 0, frame = 144
 688              		@ frame_needed = 0, uses_anonymous_args = 0
  63:Dubby.cpp     **** 
 689              		.loc 2 63 5 view .LVU165
  66:Dubby.cpp     ****     cfg[CTRL_2].InitSingle(seed.GetPin(PIN_KNOB_2));
 690              		.loc 2 66 5 view .LVU166
  62:Dubby.cpp     ****     AdcChannelConfig cfg[CTRL_LAST];
 691              		.loc 2 62 1 is_stmt 0 view .LVU167
 692 0000 F0B5     		push	{r4, r5, r6, r7, lr}
 693              		.cfi_def_cfa_offset 20
 694              		.cfi_offset 4, -20
 695              		.cfi_offset 5, -16
 696              		.cfi_offset 6, -12
 697              		.cfi_offset 7, -8
 698              		.cfi_offset 14, -4
 699 0002 A5B0     		sub	sp, sp, #148
 700              		.cfi_def_cfa_offset 168
  62:Dubby.cpp     ****     AdcChannelConfig cfg[CTRL_LAST];
 701              		.loc 2 62 1 view .LVU168
 702 0004 0546     		mov	r5, r0
  66:Dubby.cpp     ****     cfg[CTRL_2].InitSingle(seed.GetPin(PIN_KNOB_2));
 703              		.loc 2 66 27 view .LVU169
 704 0006 1220     		movs	r0, #18
 705              	.LVL53:
 706              	.LBB370:
  77:Dubby.cpp     ****     {
 707              		.loc 2 77 16 view .LVU170
 708 0008 0024     		movs	r4, #0
 709              	.LBE370:
  66:Dubby.cpp     ****     cfg[CTRL_2].InitSingle(seed.GetPin(PIN_KNOB_2));
 710              		.loc 2 66 27 view .LVU171
 711 000a FFF7FEFF 		bl	_ZN5daisy9DaisySeed6GetPinEh
 712              	.LVL54:
 713 000e ADF80C00 		strh	r0, [sp, #12]	@ movhi
 714 0012 0222     		movs	r2, #2
 715 0014 0399     		ldr	r1, [sp, #12]
 716 0016 09A8     		add	r0, sp, #36
  74:Dubby.cpp     **** 
 717              		.loc 2 74 18 view .LVU172
 718 0018 05F13406 		add	r6, r5, #52
  66:Dubby.cpp     ****     cfg[CTRL_2].InitSingle(seed.GetPin(PIN_KNOB_2));
 719              		.loc 2 66 27 view .LVU173
 720 001c FFF7FEFF 		bl	_ZN5daisy16AdcChannelConfig10InitSingleE12dsy_gpio_pinNS0_15ConversionSpeedE
 721              	.LVL55:
  67:Dubby.cpp     ****     cfg[CTRL_3].InitSingle(seed.GetPin(PIN_KNOB_3));
 722              		.loc 2 67 5 is_stmt 1 view .LVU174
  67:Dubby.cpp     ****     cfg[CTRL_3].InitSingle(seed.GetPin(PIN_KNOB_3));
 723              		.loc 2 67 27 is_stmt 0 view .LVU175
 724 0020 0F20     		movs	r0, #15
 725 0022 FFF7FEFF 		bl	_ZN5daisy9DaisySeed6GetPinEh
 726              	.LVL56:
ARM GAS  /var/folders/1y/_321xjh9623c014x9_qw12rr0000gn/T//ccXZVGQV.s 			page 38


 727 0026 ADF81000 		strh	r0, [sp, #16]	@ movhi
 728 002a 0222     		movs	r2, #2
 729 002c 0499     		ldr	r1, [sp, #16]
 730 002e 0DF13600 		add	r0, sp, #54
 731              	.LBB371:
  79:Dubby.cpp     ****     }
 732              		.loc 2 79 29 view .LVU176
 733 0032 05F11C07 		add	r7, r5, #28
 734              	.LBE371:
  67:Dubby.cpp     ****     cfg[CTRL_3].InitSingle(seed.GetPin(PIN_KNOB_3));
 735              		.loc 2 67 27 view .LVU177
 736 0036 FFF7FEFF 		bl	_ZN5daisy16AdcChannelConfig10InitSingleE12dsy_gpio_pinNS0_15ConversionSpeedE
 737              	.LVL57:
  68:Dubby.cpp     ****     cfg[CTRL_4].InitSingle(seed.GetPin(PIN_KNOB_4));
 738              		.loc 2 68 5 is_stmt 1 view .LVU178
  68:Dubby.cpp     ****     cfg[CTRL_4].InitSingle(seed.GetPin(PIN_KNOB_4));
 739              		.loc 2 68 27 is_stmt 0 view .LVU179
 740 003a 1520     		movs	r0, #21
 741 003c FFF7FEFF 		bl	_ZN5daisy9DaisySeed6GetPinEh
 742              	.LVL58:
 743 0040 ADF81400 		strh	r0, [sp, #20]	@ movhi
 744 0044 0222     		movs	r2, #2
 745 0046 0599     		ldr	r1, [sp, #20]
 746 0048 12A8     		add	r0, sp, #72
 747 004a 05F59275 		add	r5, r5, #292
 748              	.LVL59:
  68:Dubby.cpp     ****     cfg[CTRL_4].InitSingle(seed.GetPin(PIN_KNOB_4));
 749              		.loc 2 68 27 view .LVU180
 750 004e FFF7FEFF 		bl	_ZN5daisy16AdcChannelConfig10InitSingleE12dsy_gpio_pinNS0_15ConversionSpeedE
 751              	.LVL60:
  69:Dubby.cpp     ****     cfg[CTRL_5].InitSingle(seed.GetPin(PIN_JS_H));
 752              		.loc 2 69 5 is_stmt 1 view .LVU181
  69:Dubby.cpp     ****     cfg[CTRL_5].InitSingle(seed.GetPin(PIN_JS_H));
 753              		.loc 2 69 27 is_stmt 0 view .LVU182
 754 0052 1620     		movs	r0, #22
 755 0054 FFF7FEFF 		bl	_ZN5daisy9DaisySeed6GetPinEh
 756              	.LVL61:
 757 0058 ADF81800 		strh	r0, [sp, #24]	@ movhi
 758 005c 0222     		movs	r2, #2
 759 005e 0699     		ldr	r1, [sp, #24]
 760 0060 0DF15A00 		add	r0, sp, #90
 761 0064 FFF7FEFF 		bl	_ZN5daisy16AdcChannelConfig10InitSingleE12dsy_gpio_pinNS0_15ConversionSpeedE
 762              	.LVL62:
  70:Dubby.cpp     ****     cfg[CTRL_6].InitSingle(seed.GetPin(PIN_JS_V));
 763              		.loc 2 70 5 is_stmt 1 view .LVU183
  70:Dubby.cpp     ****     cfg[CTRL_6].InitSingle(seed.GetPin(PIN_JS_V));
 764              		.loc 2 70 27 is_stmt 0 view .LVU184
 765 0068 1020     		movs	r0, #16
 766 006a FFF7FEFF 		bl	_ZN5daisy9DaisySeed6GetPinEh
 767              	.LVL63:
 768 006e ADF81C00 		strh	r0, [sp, #28]	@ movhi
 769 0072 0222     		movs	r2, #2
 770 0074 0799     		ldr	r1, [sp, #28]
 771 0076 1BA8     		add	r0, sp, #108
 772 0078 FFF7FEFF 		bl	_ZN5daisy16AdcChannelConfig10InitSingleE12dsy_gpio_pinNS0_15ConversionSpeedE
 773              	.LVL64:
  71:Dubby.cpp     **** 
ARM GAS  /var/folders/1y/_321xjh9623c014x9_qw12rr0000gn/T//ccXZVGQV.s 			page 39


 774              		.loc 2 71 5 is_stmt 1 view .LVU185
  71:Dubby.cpp     **** 
 775              		.loc 2 71 27 is_stmt 0 view .LVU186
 776 007c 1420     		movs	r0, #20
 777 007e FFF7FEFF 		bl	_ZN5daisy9DaisySeed6GetPinEh
 778              	.LVL65:
 779 0082 ADF82000 		strh	r0, [sp, #32]	@ movhi
 780 0086 0222     		movs	r2, #2
 781 0088 0899     		ldr	r1, [sp, #32]
 782 008a 0DF17E00 		add	r0, sp, #126
 783 008e FFF7FEFF 		bl	_ZN5daisy16AdcChannelConfig10InitSingleE12dsy_gpio_pinNS0_15ConversionSpeedE
 784              	.LVL66:
  74:Dubby.cpp     **** 
 785              		.loc 2 74 5 is_stmt 1 view .LVU187
  74:Dubby.cpp     **** 
 786              		.loc 2 74 18 is_stmt 0 view .LVU188
 787 0092 0423     		movs	r3, #4
 788 0094 0622     		movs	r2, #6
 789 0096 09A9     		add	r1, sp, #36
 790 0098 3046     		mov	r0, r6
 791 009a FFF7FEFF 		bl	_ZN5daisy9AdcHandle4InitEPNS_16AdcChannelConfigEjNS0_12OverSamplingE
 792              	.LVL67:
  77:Dubby.cpp     ****     {
 793              		.loc 2 77 5 is_stmt 1 view .LVU189
 794              	.LBB372:
  77:Dubby.cpp     ****     {
 795              		.loc 2 77 25 view .LVU190
 796              	.L47:
  79:Dubby.cpp     ****     }
 797              		.loc 2 79 9 discriminator 2 view .LVU191
  79:Dubby.cpp     ****     }
 798              		.loc 2 79 29 is_stmt 0 discriminator 2 view .LVU192
 799 009e E1B2     		uxtb	r1, r4
 800 00a0 3046     		mov	r0, r6
 801 00a2 FFF7FEFF 		bl	_ZNK5daisy9AdcHandle6GetPtrEh
 802              	.LVL68:
 803 00a6 0146     		mov	r1, r0
  77:Dubby.cpp     ****     {
 804              		.loc 2 77 5 discriminator 2 view .LVU193
 805 00a8 0134     		adds	r4, r4, #1
 806              	.LVL69:
  79:Dubby.cpp     ****     }
 807              		.loc 2 79 29 discriminator 2 view .LVU194
 808 00aa 3846     		mov	r0, r7
 809 00ac 0191     		str	r1, [sp, #4]
 810 00ae FFF7FEFF 		bl	_ZNK5daisy9DaisySeed17AudioCallbackRateEv
 811              	.LVL70:
 812 00b2 2846     		mov	r0, r5
 813 00b4 DFED070A 		vldr.32	s1, .L50
 814 00b8 0023     		movs	r3, #0
 815 00ba 0122     		movs	r2, #1
 816 00bc 0199     		ldr	r1, [sp, #4]
  77:Dubby.cpp     ****     {
 817              		.loc 2 77 25 discriminator 2 view .LVU195
 818 00be 2035     		adds	r5, r5, #32
  79:Dubby.cpp     ****     }
 819              		.loc 2 79 29 discriminator 2 view .LVU196
ARM GAS  /var/folders/1y/_321xjh9623c014x9_qw12rr0000gn/T//ccXZVGQV.s 			page 40


 820 00c0 FFF7FEFF 		bl	_ZN5daisy13AnalogControl4InitEPtfbbf
 821              	.LVL71:
  77:Dubby.cpp     ****     {
 822              		.loc 2 77 5 is_stmt 1 discriminator 2 view .LVU197
  77:Dubby.cpp     ****     {
 823              		.loc 2 77 25 discriminator 2 view .LVU198
 824 00c4 062C     		cmp	r4, #6
 825 00c6 EAD1     		bne	.L47
 826              	.LBE372:
  82:Dubby.cpp     **** }
 827              		.loc 2 82 5 view .LVU199
  82:Dubby.cpp     **** }
 828              		.loc 2 82 19 is_stmt 0 view .LVU200
 829 00c8 3046     		mov	r0, r6
 830 00ca FFF7FEFF 		bl	_ZN5daisy9AdcHandle5StartEv
 831              	.LVL72:
  83:Dubby.cpp     **** 
 832              		.loc 2 83 1 view .LVU201
 833 00ce 25B0     		add	sp, sp, #148
 834              		.cfi_def_cfa_offset 20
 835              		@ sp needed
 836 00d0 F0BD     		pop	{r4, r5, r6, r7, pc}
 837              	.LVL73:
 838              	.L51:
  83:Dubby.cpp     **** 
 839              		.loc 2 83 1 view .LVU202
 840 00d2 00BF     		.align	2
 841              	.L50:
 842 00d4 6F12033B 		.word	990057071
 843              		.cfi_endproc
 844              	.LFE3733:
 846              		.section	.text._ZN5daisy5Dubby11InitButtonsEv,"ax",%progbits
 847              		.align	1
 848              		.p2align 2,,3
 849              		.global	_ZN5daisy5Dubby11InitButtonsEv
 850              		.syntax unified
 851              		.thumb
 852              		.thumb_func
 854              	_ZN5daisy5Dubby11InitButtonsEv:
 855              	.LVL74:
 856              	.LFB3734:
  86:Dubby.cpp     ****     //Set button to pins, to be updated at a 1kHz  samplerate
 857              		.loc 2 86 1 is_stmt 1 view -0
 858              		.cfi_startproc
 859              		@ args = 0, pretend = 0, frame = 16
 860              		@ frame_needed = 0, uses_anonymous_args = 0
  88:Dubby.cpp     ****     buttons[1].Init(seed.GetPin(PIN_GATE_IN_2), 1000);
 861              		.loc 2 88 5 view .LVU204
  86:Dubby.cpp     ****     //Set button to pins, to be updated at a 1kHz  samplerate
 862              		.loc 2 86 1 is_stmt 0 view .LVU205
 863 0000 10B5     		push	{r4, lr}
 864              		.cfi_def_cfa_offset 8
 865              		.cfi_offset 4, -8
 866              		.cfi_offset 14, -4
 867 0002 0446     		mov	r4, r0
  88:Dubby.cpp     ****     buttons[1].Init(seed.GetPin(PIN_GATE_IN_2), 1000);
 868              		.loc 2 88 20 view .LVU206
ARM GAS  /var/folders/1y/_321xjh9623c014x9_qw12rr0000gn/T//ccXZVGQV.s 			page 41


 869 0004 2020     		movs	r0, #32
 870              	.LVL75:
  86:Dubby.cpp     ****     //Set button to pins, to be updated at a 1kHz  samplerate
 871              		.loc 2 86 1 view .LVU207
 872 0006 2DED028B 		vpush.64	{d8}
 873              		.cfi_def_cfa_offset 16
 874              		.cfi_offset 80, -16
 875              		.cfi_offset 81, -12
 876 000a 84B0     		sub	sp, sp, #16
 877              		.cfi_def_cfa_offset 32
  88:Dubby.cpp     ****     buttons[1].Init(seed.GetPin(PIN_GATE_IN_2), 1000);
 878              		.loc 2 88 20 view .LVU208
 879 000c 9FED1C8A 		vldr.32	s16, .L54
 880 0010 FFF7FEFF 		bl	_ZN5daisy9DaisySeed6GetPinEh
 881              	.LVL76:
 882 0014 0346     		mov	r3, r0	@ movhi
 883 0016 B0EE480A 		vmov.f32	s0, s16
 884 001a 04F51770 		add	r0, r4, #604
 885 001e ADF80030 		strh	r3, [sp]	@ movhi
 886 0022 0099     		ldr	r1, [sp]
 887 0024 FFF7FEFF 		bl	_ZN5daisy6Switch4InitE12dsy_gpio_pinf
 888              	.LVL77:
  89:Dubby.cpp     ****     buttons[2].Init(seed.GetPin(PIN_GATE_IN_3), 1000);
 889              		.loc 2 89 5 is_stmt 1 view .LVU209
  89:Dubby.cpp     ****     buttons[2].Init(seed.GetPin(PIN_GATE_IN_3), 1000);
 890              		.loc 2 89 20 is_stmt 0 view .LVU210
 891 0028 1720     		movs	r0, #23
 892 002a FFF7FEFF 		bl	_ZN5daisy9DaisySeed6GetPinEh
 893              	.LVL78:
 894 002e 0346     		mov	r3, r0	@ movhi
 895 0030 B0EE480A 		vmov.f32	s0, s16
 896 0034 04F51B70 		add	r0, r4, #620
 897 0038 ADF80430 		strh	r3, [sp, #4]	@ movhi
 898 003c 0199     		ldr	r1, [sp, #4]
 899 003e FFF7FEFF 		bl	_ZN5daisy6Switch4InitE12dsy_gpio_pinf
 900              	.LVL79:
  90:Dubby.cpp     ****     buttons[3].Init(seed.GetPin(PIN_GATE_IN_4), 1000);
 901              		.loc 2 90 5 is_stmt 1 view .LVU211
  90:Dubby.cpp     ****     buttons[3].Init(seed.GetPin(PIN_GATE_IN_4), 1000);
 902              		.loc 2 90 20 is_stmt 0 view .LVU212
 903 0042 1120     		movs	r0, #17
 904 0044 FFF7FEFF 		bl	_ZN5daisy9DaisySeed6GetPinEh
 905              	.LVL80:
 906 0048 0346     		mov	r3, r0	@ movhi
 907 004a B0EE480A 		vmov.f32	s0, s16
 908 004e 04F51F70 		add	r0, r4, #636
 909 0052 ADF80830 		strh	r3, [sp, #8]	@ movhi
 910 0056 0299     		ldr	r1, [sp, #8]
 911 0058 FFF7FEFF 		bl	_ZN5daisy6Switch4InitE12dsy_gpio_pinf
 912              	.LVL81:
  91:Dubby.cpp     **** }
 913              		.loc 2 91 5 is_stmt 1 view .LVU213
  91:Dubby.cpp     **** }
 914              		.loc 2 91 20 is_stmt 0 view .LVU214
 915 005c 1320     		movs	r0, #19
 916 005e FFF7FEFF 		bl	_ZN5daisy9DaisySeed6GetPinEh
 917              	.LVL82:
ARM GAS  /var/folders/1y/_321xjh9623c014x9_qw12rr0000gn/T//ccXZVGQV.s 			page 42


 918 0062 0346     		mov	r3, r0	@ movhi
 919 0064 B0EE480A 		vmov.f32	s0, s16
 920 0068 04F52370 		add	r0, r4, #652
 921 006c ADF80C30 		strh	r3, [sp, #12]	@ movhi
 922 0070 0399     		ldr	r1, [sp, #12]
  92:Dubby.cpp     **** 
 923              		.loc 2 92 1 view .LVU215
 924 0072 04B0     		add	sp, sp, #16
 925              		.cfi_def_cfa_offset 16
 926              		@ sp needed
 927 0074 BDEC028B 		vldm	sp!, {d8}
 928              		.cfi_restore 80
 929              		.cfi_restore 81
 930              		.cfi_def_cfa_offset 8
 931 0078 BDE81040 		pop	{r4, lr}
 932              		.cfi_restore 14
 933              		.cfi_restore 4
 934              		.cfi_def_cfa_offset 0
 935              	.LVL83:
  91:Dubby.cpp     **** }
 936              		.loc 2 91 20 view .LVU216
 937 007c FFF7FEBF 		b	_ZN5daisy6Switch4InitE12dsy_gpio_pinf
 938              	.LVL84:
 939              	.L55:
  91:Dubby.cpp     **** }
 940              		.loc 2 91 20 view .LVU217
 941              		.align	2
 942              	.L54:
 943 0080 00007A44 		.word	1148846080
 944              		.cfi_endproc
 945              	.LFE3734:
 947              		.section	.text._ZN5daisy5Dubby8InitMidiEv,"ax",%progbits
 948              		.align	1
 949              		.p2align 2,,3
 950              		.global	_ZN5daisy5Dubby8InitMidiEv
 951              		.syntax unified
 952              		.thumb
 953              		.thumb_func
 955              	_ZN5daisy5Dubby8InitMidiEv:
 956              	.LVL85:
 957              	.LFB3735:
  95:Dubby.cpp     ****     MidiUartHandler::Config midi_uart_config;
 958              		.loc 2 95 1 is_stmt 1 view -0
 959              		.cfi_startproc
 960              		@ args = 0, pretend = 0, frame = 80
 961              		@ frame_needed = 0, uses_anonymous_args = 0
  96:Dubby.cpp     ****     midi_uart.Init(midi_uart_config);
 962              		.loc 2 96 5 view .LVU219
  95:Dubby.cpp     ****     MidiUartHandler::Config midi_uart_config;
 963              		.loc 2 95 1 is_stmt 0 view .LVU220
 964 0000 2DE9F043 		push	{r4, r5, r6, r7, r8, r9, lr}
 965              		.cfi_def_cfa_offset 28
 966              		.cfi_offset 4, -28
 967              		.cfi_offset 5, -24
 968              		.cfi_offset 6, -20
 969              		.cfi_offset 7, -16
 970              		.cfi_offset 8, -12
ARM GAS  /var/folders/1y/_321xjh9623c014x9_qw12rr0000gn/T//ccXZVGQV.s 			page 43


 971              		.cfi_offset 9, -8
 972              		.cfi_offset 14, -4
 973 0004 95B0     		sub	sp, sp, #84
 974              		.cfi_def_cfa_offset 112
 975              	.LVL86:
 976              	.LBB396:
 977              	.LBI396:
 978              		.file 6 "../../libDaisy//src/hid/midi.h"
   1:../../libDaisy//src/hid/midi.h **** #pragma once
   2:../../libDaisy//src/hid/midi.h **** #ifndef DSY_MIDI_H
   3:../../libDaisy//src/hid/midi.h **** #define DSY_MIDI_H
   4:../../libDaisy//src/hid/midi.h **** 
   5:../../libDaisy//src/hid/midi.h **** #include <stdint.h>
   6:../../libDaisy//src/hid/midi.h **** #include <stdlib.h>
   7:../../libDaisy//src/hid/midi.h **** #include <algorithm>
   8:../../libDaisy//src/hid/midi.h **** #include "per/uart.h"
   9:../../libDaisy//src/hid/midi.h **** #include "util/ringbuffer.h"
  10:../../libDaisy//src/hid/midi.h **** #include "util/FIFO.h"
  11:../../libDaisy//src/hid/midi.h **** #include "hid/midi_parser.h"
  12:../../libDaisy//src/hid/midi.h **** #include "hid/usb_midi.h"
  13:../../libDaisy//src/hid/midi.h **** #include "sys/dma.h"
  14:../../libDaisy//src/hid/midi.h **** #include "sys/system.h"
  15:../../libDaisy//src/hid/midi.h **** 
  16:../../libDaisy//src/hid/midi.h **** namespace daisy
  17:../../libDaisy//src/hid/midi.h **** {
  18:../../libDaisy//src/hid/midi.h **** /** @brief   Transport layer for sending and receiving MIDI data over UART
  19:../../libDaisy//src/hid/midi.h ****  *  @details This is the mode of communication used for TRS and DIN MIDI
  20:../../libDaisy//src/hid/midi.h ****  *           There is an additional 2kB of RAM data used within this class
  21:../../libDaisy//src/hid/midi.h ****  *           for processing bulk data from the UART peripheral
  22:../../libDaisy//src/hid/midi.h ****  *  @ingroup midi
  23:../../libDaisy//src/hid/midi.h **** */
  24:../../libDaisy//src/hid/midi.h **** class MidiUartTransport
  25:../../libDaisy//src/hid/midi.h **** {
  26:../../libDaisy//src/hid/midi.h ****   public:
  27:../../libDaisy//src/hid/midi.h ****     typedef void (*MidiRxParseCallback)(uint8_t* data,
  28:../../libDaisy//src/hid/midi.h ****                                         size_t   size,
  29:../../libDaisy//src/hid/midi.h ****                                         void*    context);
  30:../../libDaisy//src/hid/midi.h **** 
  31:../../libDaisy//src/hid/midi.h ****     MidiUartTransport() {}
  32:../../libDaisy//src/hid/midi.h ****     ~MidiUartTransport() {}
  33:../../libDaisy//src/hid/midi.h **** 
  34:../../libDaisy//src/hid/midi.h ****     /** @brief Configuration structure for UART MIDI */
  35:../../libDaisy//src/hid/midi.h ****     struct Config
  36:../../libDaisy//src/hid/midi.h ****     {
  37:../../libDaisy//src/hid/midi.h ****         UartHandler::Config::Peripheral periph;
  38:../../libDaisy//src/hid/midi.h ****         dsy_gpio_pin                    rx;
  39:../../libDaisy//src/hid/midi.h ****         dsy_gpio_pin                    tx;
  40:../../libDaisy//src/hid/midi.h **** 
  41:../../libDaisy//src/hid/midi.h ****         /** Pointer to buffer for DMA UART rx byte transfer in background.
  42:../../libDaisy//src/hid/midi.h ****          *
  43:../../libDaisy//src/hid/midi.h ****          *  @details By default this uses a shared buffer in DMA_BUFFER_MEM_SECTION,
  44:../../libDaisy//src/hid/midi.h ****          *           which can only be utilized for a single UART peripheral. To
  45:../../libDaisy//src/hid/midi.h ****          *           use MIDI with multiple UART peripherals, you must provide your own
  46:../../libDaisy//src/hid/midi.h ****          *           buffer, allocated to a DMA-capable memory section.
  47:../../libDaisy//src/hid/midi.h ****          */
  48:../../libDaisy//src/hid/midi.h ****         uint8_t* rx_buffer;
  49:../../libDaisy//src/hid/midi.h **** 
ARM GAS  /var/folders/1y/_321xjh9623c014x9_qw12rr0000gn/T//ccXZVGQV.s 			page 44


  50:../../libDaisy//src/hid/midi.h ****         /** Size in bytes of rx_buffer.
  51:../../libDaisy//src/hid/midi.h ****          *
  52:../../libDaisy//src/hid/midi.h ****          *  @details This size determines the maximum Rx bytes readable by the UART in the backgrou
  53:../../libDaisy//src/hid/midi.h ****          *           By default it's set to the size of the default shared rx_buffer (256 bytes).
  54:../../libDaisy//src/hid/midi.h ****          *           While much smaller sizes can be used, data can get missed if the buffer is too
  55:../../libDaisy//src/hid/midi.h ****          */
  56:../../libDaisy//src/hid/midi.h ****         size_t rx_buffer_size;
  57:../../libDaisy//src/hid/midi.h **** 
  58:../../libDaisy//src/hid/midi.h ****         Config();
  59:../../libDaisy//src/hid/midi.h ****     };
  60:../../libDaisy//src/hid/midi.h **** 
  61:../../libDaisy//src/hid/midi.h ****     /** @brief Initialization of UART using config struct */
  62:../../libDaisy//src/hid/midi.h ****     inline void Init(Config config)
  63:../../libDaisy//src/hid/midi.h ****     {
  64:../../libDaisy//src/hid/midi.h ****         UartHandler::Config uart_config;
  65:../../libDaisy//src/hid/midi.h **** 
  66:../../libDaisy//src/hid/midi.h ****         //defaults
  67:../../libDaisy//src/hid/midi.h ****         uart_config.baudrate   = 31250;
  68:../../libDaisy//src/hid/midi.h ****         uart_config.stopbits   = UartHandler::Config::StopBits::BITS_1;
  69:../../libDaisy//src/hid/midi.h ****         uart_config.parity     = UartHandler::Config::Parity::NONE;
  70:../../libDaisy//src/hid/midi.h ****         uart_config.mode       = UartHandler::Config::Mode::TX_RX;
  71:../../libDaisy//src/hid/midi.h ****         uart_config.wordlength = UartHandler::Config::WordLength::BITS_8;
  72:../../libDaisy//src/hid/midi.h **** 
  73:../../libDaisy//src/hid/midi.h ****         //user settings
  74:../../libDaisy//src/hid/midi.h ****         uart_config.periph        = config.periph;
  75:../../libDaisy//src/hid/midi.h ****         uart_config.pin_config.rx = config.rx;
  76:../../libDaisy//src/hid/midi.h ****         uart_config.pin_config.tx = config.tx;
  77:../../libDaisy//src/hid/midi.h **** 
  78:../../libDaisy//src/hid/midi.h ****         rx_buffer      = config.rx_buffer;
  79:../../libDaisy//src/hid/midi.h ****         rx_buffer_size = config.rx_buffer_size;
  80:../../libDaisy//src/hid/midi.h **** 
  81:../../libDaisy//src/hid/midi.h ****         /** zero the buffer to ensure emptiness regardless of source memory */
  82:../../libDaisy//src/hid/midi.h ****         std::fill(rx_buffer, rx_buffer + rx_buffer_size, 0);
  83:../../libDaisy//src/hid/midi.h **** 
  84:../../libDaisy//src/hid/midi.h ****         uart_.Init(uart_config);
  85:../../libDaisy//src/hid/midi.h ****     }
  86:../../libDaisy//src/hid/midi.h **** 
  87:../../libDaisy//src/hid/midi.h ****     /** @brief Start the UART peripheral in listening mode.
  88:../../libDaisy//src/hid/midi.h ****      *  This will fill an internal data structure in the background */
  89:../../libDaisy//src/hid/midi.h ****     inline void StartRx(MidiRxParseCallback parse_callback, void* context)
  90:../../libDaisy//src/hid/midi.h ****     {
  91:../../libDaisy//src/hid/midi.h ****         parse_context_  = context;
  92:../../libDaisy//src/hid/midi.h ****         parse_callback_ = parse_callback;
  93:../../libDaisy//src/hid/midi.h ****         dsy_dma_clear_cache_for_buffer((uint8_t*)this,
  94:../../libDaisy//src/hid/midi.h ****                                        sizeof(MidiUartTransport));
  95:../../libDaisy//src/hid/midi.h ****         uart_.DmaListenStart(
  96:../../libDaisy//src/hid/midi.h ****             rx_buffer, rx_buffer_size, MidiUartTransport::rxCallback, this);
  97:../../libDaisy//src/hid/midi.h ****     }
  98:../../libDaisy//src/hid/midi.h **** 
  99:../../libDaisy//src/hid/midi.h ****     /** @brief returns whether the UART peripheral is actively listening in the background or not *
 100:../../libDaisy//src/hid/midi.h ****     inline bool RxActive() { return uart_.IsListening(); }
 101:../../libDaisy//src/hid/midi.h **** 
 102:../../libDaisy//src/hid/midi.h ****     /** @brief This is a no-op for UART transport - Rx is via DMA callback with circular buffer */
 103:../../libDaisy//src/hid/midi.h ****     inline void FlushRx() {}
 104:../../libDaisy//src/hid/midi.h **** 
 105:../../libDaisy//src/hid/midi.h ****     /** @brief sends the buffer of bytes out of the UART peripheral */
 106:../../libDaisy//src/hid/midi.h ****     inline void Tx(uint8_t* buff, size_t size) { uart_.PollTx(buff, size); }
ARM GAS  /var/folders/1y/_321xjh9623c014x9_qw12rr0000gn/T//ccXZVGQV.s 			page 45


 107:../../libDaisy//src/hid/midi.h **** 
 108:../../libDaisy//src/hid/midi.h ****   private:
 109:../../libDaisy//src/hid/midi.h ****     UartHandler         uart_;
 110:../../libDaisy//src/hid/midi.h ****     uint8_t*            rx_buffer;
 111:../../libDaisy//src/hid/midi.h ****     size_t              rx_buffer_size;
 112:../../libDaisy//src/hid/midi.h ****     void*               parse_context_;
 113:../../libDaisy//src/hid/midi.h ****     MidiRxParseCallback parse_callback_;
 114:../../libDaisy//src/hid/midi.h **** 
 115:../../libDaisy//src/hid/midi.h ****     /** Static callback for Uart MIDI that occurs when
 116:../../libDaisy//src/hid/midi.h ****          *  new data is available from the peripheral.
 117:../../libDaisy//src/hid/midi.h ****          *  The new data is transferred from the peripheral to the
 118:../../libDaisy//src/hid/midi.h ****          *  MIDI instance's byte FIFO that feeds the MIDI parser.
 119:../../libDaisy//src/hid/midi.h ****          *
 120:../../libDaisy//src/hid/midi.h ****          *  TODO: Handle UartHandler errors better/at all.
 121:../../libDaisy//src/hid/midi.h ****          *  (If there is a UART error, there's not really any recovery
 122:../../libDaisy//src/hid/midi.h ****          *  option at the moment)
 123:../../libDaisy//src/hid/midi.h ****          */
 124:../../libDaisy//src/hid/midi.h ****     static void rxCallback(uint8_t*            data,
 125:../../libDaisy//src/hid/midi.h ****                            size_t              size,
 126:../../libDaisy//src/hid/midi.h ****                            void*               context,
 127:../../libDaisy//src/hid/midi.h ****                            UartHandler::Result res)
 128:../../libDaisy//src/hid/midi.h ****     {
 129:../../libDaisy//src/hid/midi.h ****         /** Read context as transport type */
 130:../../libDaisy//src/hid/midi.h ****         MidiUartTransport* transport
 131:../../libDaisy//src/hid/midi.h ****             = reinterpret_cast<MidiUartTransport*>(context);
 132:../../libDaisy//src/hid/midi.h ****         if(res == UartHandler::Result::OK)
 133:../../libDaisy//src/hid/midi.h ****         {
 134:../../libDaisy//src/hid/midi.h ****             if(transport->parse_callback_)
 135:../../libDaisy//src/hid/midi.h ****             {
 136:../../libDaisy//src/hid/midi.h ****                 transport->parse_callback_(
 137:../../libDaisy//src/hid/midi.h ****                     data, size, transport->parse_context_);
 138:../../libDaisy//src/hid/midi.h ****             }
 139:../../libDaisy//src/hid/midi.h ****         }
 140:../../libDaisy//src/hid/midi.h ****     }
 141:../../libDaisy//src/hid/midi.h **** };
 142:../../libDaisy//src/hid/midi.h **** 
 143:../../libDaisy//src/hid/midi.h **** /**
 144:../../libDaisy//src/hid/midi.h ****     @brief Simple MIDI Handler \n
 145:../../libDaisy//src/hid/midi.h ****     Parses bytes from an input into valid MidiEvents. \n
 146:../../libDaisy//src/hid/midi.h ****     The MidiEvents fill a FIFO queue that the user can pop messages from.
 147:../../libDaisy//src/hid/midi.h ****     @author shensley
 148:../../libDaisy//src/hid/midi.h ****     @date March 2020
 149:../../libDaisy//src/hid/midi.h ****     @ingroup midi
 150:../../libDaisy//src/hid/midi.h **** */
 151:../../libDaisy//src/hid/midi.h **** template <typename Transport>
 152:../../libDaisy//src/hid/midi.h **** class MidiHandler
 153:../../libDaisy//src/hid/midi.h **** {
 154:../../libDaisy//src/hid/midi.h ****   public:
 155:../../libDaisy//src/hid/midi.h ****     MidiHandler() {}
 156:../../libDaisy//src/hid/midi.h ****     ~MidiHandler() {}
 157:../../libDaisy//src/hid/midi.h **** 
 158:../../libDaisy//src/hid/midi.h ****     struct Config
 979              		.loc 6 158 12 is_stmt 1 view .LVU221
 980              	.LBE396:
  95:Dubby.cpp     ****     MidiUartHandler::Config midi_uart_config;
 981              		.loc 2 95 1 is_stmt 0 view .LVU222
 982 0006 0446     		mov	r4, r0
ARM GAS  /var/folders/1y/_321xjh9623c014x9_qw12rr0000gn/T//ccXZVGQV.s 			page 46


 983              	.LBB399:
 984              	.LBB400:
 985              	.LBB401:
 986              	.LBB402:
 987              	.LBB403:
 988              	.LBB404:
 989              	.LBB405:
 990              		.file 7 "../../libDaisy//src/per/uart.h"
   1:../../libDaisy//src/per/uart.h **** /* 
   2:../../libDaisy//src/per/uart.h **** TODO
   3:../../libDaisy//src/per/uart.h **** - Overflow handling, etc. for Rx Queue.
   4:../../libDaisy//src/per/uart.h **** */
   5:../../libDaisy//src/per/uart.h **** 
   6:../../libDaisy//src/per/uart.h **** #pragma once
   7:../../libDaisy//src/per/uart.h **** #ifndef DSY_UART_H
   8:../../libDaisy//src/per/uart.h **** #define DSY_UART_H /**< macro */
   9:../../libDaisy//src/per/uart.h **** #include "daisy_core.h"
  10:../../libDaisy//src/per/uart.h **** 
  11:../../libDaisy//src/per/uart.h **** 
  12:../../libDaisy//src/per/uart.h **** namespace daisy
  13:../../libDaisy//src/per/uart.h **** {
  14:../../libDaisy//src/per/uart.h **** /** @addtogroup serial
  15:../../libDaisy//src/per/uart.h ****     @{
  16:../../libDaisy//src/per/uart.h ****     */
  17:../../libDaisy//src/per/uart.h **** 
  18:../../libDaisy//src/per/uart.h **** /** 
  19:../../libDaisy//src/per/uart.h ****     Uart Peripheral
  20:../../libDaisy//src/per/uart.h ****     @author shensley
  21:../../libDaisy//src/per/uart.h ****     @date March 2020
  22:../../libDaisy//src/per/uart.h ****     */
  23:../../libDaisy//src/per/uart.h **** class UartHandler
  24:../../libDaisy//src/per/uart.h **** {
  25:../../libDaisy//src/per/uart.h ****   public:
  26:../../libDaisy//src/per/uart.h ****     struct Config
  27:../../libDaisy//src/per/uart.h ****     {
  28:../../libDaisy//src/per/uart.h ****         enum class Peripheral
  29:../../libDaisy//src/per/uart.h ****         {
  30:../../libDaisy//src/per/uart.h ****             USART_1,
  31:../../libDaisy//src/per/uart.h ****             USART_2,
  32:../../libDaisy//src/per/uart.h ****             USART_3,
  33:../../libDaisy//src/per/uart.h ****             UART_4,
  34:../../libDaisy//src/per/uart.h ****             UART_5,
  35:../../libDaisy//src/per/uart.h ****             USART_6,
  36:../../libDaisy//src/per/uart.h ****             UART_7,
  37:../../libDaisy//src/per/uart.h ****             UART_8,
  38:../../libDaisy//src/per/uart.h ****             LPUART_1,
  39:../../libDaisy//src/per/uart.h ****         };
  40:../../libDaisy//src/per/uart.h **** 
  41:../../libDaisy//src/per/uart.h ****         enum class StopBits
  42:../../libDaisy//src/per/uart.h ****         {
  43:../../libDaisy//src/per/uart.h ****             BITS_0_5,
  44:../../libDaisy//src/per/uart.h ****             BITS_1,
  45:../../libDaisy//src/per/uart.h ****             BITS_1_5,
  46:../../libDaisy//src/per/uart.h ****             BITS_2,
  47:../../libDaisy//src/per/uart.h ****         };
  48:../../libDaisy//src/per/uart.h **** 
  49:../../libDaisy//src/per/uart.h ****         enum class Parity
ARM GAS  /var/folders/1y/_321xjh9623c014x9_qw12rr0000gn/T//ccXZVGQV.s 			page 47


  50:../../libDaisy//src/per/uart.h ****         {
  51:../../libDaisy//src/per/uart.h ****             NONE,
  52:../../libDaisy//src/per/uart.h ****             EVEN,
  53:../../libDaisy//src/per/uart.h ****             ODD,
  54:../../libDaisy//src/per/uart.h ****         };
  55:../../libDaisy//src/per/uart.h **** 
  56:../../libDaisy//src/per/uart.h ****         enum class Mode
  57:../../libDaisy//src/per/uart.h ****         {
  58:../../libDaisy//src/per/uart.h ****             RX,
  59:../../libDaisy//src/per/uart.h ****             TX,
  60:../../libDaisy//src/per/uart.h ****             TX_RX,
  61:../../libDaisy//src/per/uart.h ****         };
  62:../../libDaisy//src/per/uart.h **** 
  63:../../libDaisy//src/per/uart.h ****         enum class WordLength
  64:../../libDaisy//src/per/uart.h ****         {
  65:../../libDaisy//src/per/uart.h ****             BITS_7,
  66:../../libDaisy//src/per/uart.h ****             BITS_8,
  67:../../libDaisy//src/per/uart.h ****             BITS_9,
  68:../../libDaisy//src/per/uart.h ****         };
  69:../../libDaisy//src/per/uart.h **** 
  70:../../libDaisy//src/per/uart.h ****         struct
  71:../../libDaisy//src/per/uart.h ****         {
  72:../../libDaisy//src/per/uart.h ****             dsy_gpio_pin tx; /**< & */
  73:../../libDaisy//src/per/uart.h ****             dsy_gpio_pin rx; /**< & */
  74:../../libDaisy//src/per/uart.h ****         } pin_config;        /**< & */
  75:../../libDaisy//src/per/uart.h **** 
  76:../../libDaisy//src/per/uart.h ****         Config()
  77:../../libDaisy//src/per/uart.h ****         {
  78:../../libDaisy//src/per/uart.h ****             // user must init periph, pin_config, and mode
  79:../../libDaisy//src/per/uart.h ****             stopbits   = StopBits::BITS_1;
  80:../../libDaisy//src/per/uart.h ****             parity     = Parity::NONE;
 991              		.loc 7 80 24 view .LVU223
 992 0008 4FF00009 		mov	r9, #0
 993              	.LBE405:
 994              	.LBE404:
 995              	.LBE403:
 996              	.LBE402:
 997              	.LBE401:
 998              	.LBE400:
 999              	.LBE399:
 1000              	.LBB433:
 1001              	.LBB397:
 1002              		.loc 6 158 12 view .LVU224
 1003 000c 01AD     		add	r5, sp, #4
 1004              	.LVL87:
 1005              		.loc 6 158 12 view .LVU225
 1006              	.LBE397:
 1007              	.LBE433:
 1008              	.LBB434:
 1009              	.LBB428:
 159:../../libDaisy//src/hid/midi.h ****     {
 160:../../libDaisy//src/hid/midi.h ****         typename Transport::Config transport_config;
 161:../../libDaisy//src/hid/midi.h ****     };
 162:../../libDaisy//src/hid/midi.h **** 
 163:../../libDaisy//src/hid/midi.h ****     /** Initializes the MidiHandler
 164:../../libDaisy//src/hid/midi.h ****      *  \param config Configuration structure used to define specifics to the MIDI Handler.
 165:../../libDaisy//src/hid/midi.h ****      */
ARM GAS  /var/folders/1y/_321xjh9623c014x9_qw12rr0000gn/T//ccXZVGQV.s 			page 48


 166:../../libDaisy//src/hid/midi.h ****     void Init(Config config)
 167:../../libDaisy//src/hid/midi.h ****     {
 168:../../libDaisy//src/hid/midi.h ****         config_ = config;
 169:../../libDaisy//src/hid/midi.h ****         transport_.Init(config_.transport_config);
 1010              		.loc 6 169 24 view .LVU226
 1011 000e 04F50D68 		add	r8, r4, #2256
 1012              	.LBE428:
 1013              	.LBE434:
 1014              	.LBB435:
 1015              	.LBB398:
 158:../../libDaisy//src/hid/midi.h ****     {
 1016              		.loc 6 158 12 view .LVU227
 1017 0012 2846     		mov	r0, r5
 1018              	.LVL88:
 158:../../libDaisy//src/hid/midi.h ****     {
 1019              		.loc 6 158 12 view .LVU228
 1020 0014 FFF7FEFF 		bl	_ZN5daisy17MidiUartTransport6ConfigC1Ev
 1021              	.LVL89:
 158:../../libDaisy//src/hid/midi.h ****     {
 1022              		.loc 6 158 12 view .LVU229
 1023              	.LBE398:
 1024              	.LBE435:
  97:Dubby.cpp     **** 
 1025              		.loc 2 97 5 is_stmt 1 view .LVU230
 1026              	.LBB436:
 1027              	.LBB429:
 168:../../libDaisy//src/hid/midi.h ****         transport_.Init(config_.transport_config);
 1028              		.loc 6 168 9 is_stmt 0 view .LVU231
 1029 0018 04F50C6C 		add	ip, r4, #2240
 1030              	.LVL90:
 168:../../libDaisy//src/hid/midi.h ****         transport_.Init(config_.transport_config);
 1031              		.loc 6 168 9 view .LVU232
 1032 001c 0DF1140E 		add	lr, sp, #20
 1033 0020 95E80F00 		ldm	r5, {r0, r1, r2, r3}
 1034 0024 8CE80F00 		stm	ip, {r0, r1, r2, r3}
 1035 0028 8EE80F00 		stm	lr, {r0, r1, r2, r3}
 1036              	.LBE429:
 1037              	.LBI399:
 166:../../libDaisy//src/hid/midi.h ****     {
 1038              		.loc 6 166 10 is_stmt 1 view .LVU233
 1039              	.LVL91:
 1040              	.LBB430:
 1041              	.LBB421:
 1042              	.LBB419:
 1043              	.LBB412:
 1044              	.LBB409:
 1045              	.LBB406:
  79:../../libDaisy//src/per/uart.h ****             parity     = Parity::NONE;
 1046              		.loc 7 79 24 is_stmt 0 view .LVU234
 1047 002c 0123     		movs	r3, #1
 1048 002e 09AD     		add	r5, sp, #36
 1049 0030 D4F8C868 		ldr	r6, [r4, #2248]
 1050              	.LVL92:
  79:../../libDaisy//src/per/uart.h ****             parity     = Parity::NONE;
 1051              		.loc 7 79 24 view .LVU235
 1052 0034 0F93     		str	r3, [sp, #60]
  81:../../libDaisy//src/per/uart.h ****             wordlength = WordLength::BITS_8;
ARM GAS  /var/folders/1y/_321xjh9623c014x9_qw12rr0000gn/T//ccXZVGQV.s 			page 49


 1053              		.loc 7 81 24 view .LVU236
 1054 0036 1293     		str	r3, [sp, #72]
  82:../../libDaisy//src/per/uart.h ****             baudrate   = 31250;
 1055              		.loc 7 82 24 view .LVU237
 1056 0038 47F61223 		movw	r3, #31250
 1057 003c D4F8CC78 		ldr	r7, [r4, #2252]
 1058              	.LVL93:
 1059              		.loc 7 82 24 view .LVU238
 1060              	.LBE406:
 1061              	.LBE409:
 1062              	.LBE412:
 1063              	.LBE419:
 1064              	.LBI401:
  62:../../libDaisy//src/hid/midi.h ****     {
 1065              		.loc 6 62 17 is_stmt 1 view .LVU239
 1066              	.LBB420:
  64:../../libDaisy//src/hid/midi.h **** 
 1067              		.loc 6 64 9 view .LVU240
 1068              	.LBB413:
 1069              	.LBI403:
  76:../../libDaisy//src/per/uart.h ****         {
 1070              		.loc 7 76 9 view .LVU241
 1071              	.LBB410:
 1072              	.LBB407:
  79:../../libDaisy//src/per/uart.h ****             parity     = Parity::NONE;
 1073              		.loc 7 79 13 view .LVU242
  80:../../libDaisy//src/per/uart.h ****             wordlength = WordLength::BITS_8;
 1074              		.loc 7 80 13 view .LVU243
  81:../../libDaisy//src/per/uart.h ****             baudrate   = 31250;
 1075              		.loc 7 81 13 view .LVU244
 1076              		.loc 7 82 13 view .LVU245
 1077              		.loc 7 82 13 is_stmt 0 view .LVU246
 1078              	.LBE407:
 1079              	.LBE410:
 1080              	.LBE413:
  67:../../libDaisy//src/hid/midi.h ****         uart_config.stopbits   = UartHandler::Config::StopBits::BITS_1;
 1081              		.loc 6 67 9 is_stmt 1 view .LVU247
  68:../../libDaisy//src/hid/midi.h ****         uart_config.parity     = UartHandler::Config::Parity::NONE;
 1082              		.loc 6 68 9 view .LVU248
  69:../../libDaisy//src/hid/midi.h ****         uart_config.mode       = UartHandler::Config::Mode::TX_RX;
 1083              		.loc 6 69 9 view .LVU249
  70:../../libDaisy//src/hid/midi.h ****         uart_config.wordlength = UartHandler::Config::WordLength::BITS_8;
 1084              		.loc 6 70 9 view .LVU250
  71:../../libDaisy//src/hid/midi.h **** 
 1085              		.loc 6 71 9 view .LVU251
  74:../../libDaisy//src/hid/midi.h ****         uart_config.pin_config.rx = config.rx;
 1086              		.loc 6 74 9 view .LVU252
 1087              	.LBB414:
 1088              	.LBB411:
 1089              	.LBB408:
 1090              		.loc 7 82 24 is_stmt 0 view .LVU253
 1091 0040 1393     		str	r3, [sp, #76]
  80:../../libDaisy//src/per/uart.h ****             wordlength = WordLength::BITS_8;
 1092              		.loc 7 80 24 view .LVU254
 1093 0042 0223     		movs	r3, #2
 1094 0044 CDE91093 		strd	r9, r3, [sp, #64]
 1095 0048 9CE80F00 		ldm	ip, {r0, r1, r2, r3}
ARM GAS  /var/folders/1y/_321xjh9623c014x9_qw12rr0000gn/T//ccXZVGQV.s 			page 50


 1096 004c 85E80F00 		stm	r5, {r0, r1, r2, r3}
 1097              	.LBE408:
 1098              	.LBE411:
 1099              	.LBE414:
  75:../../libDaisy//src/hid/midi.h ****         uart_config.pin_config.tx = config.tx;
 1100              		.loc 6 75 35 view .LVU255
 1101 0050 BDF82830 		ldrh	r3, [sp, #40]
  74:../../libDaisy//src/hid/midi.h ****         uart_config.pin_config.rx = config.rx;
 1102              		.loc 6 74 35 view .LVU256
 1103 0054 0E90     		str	r0, [sp, #56]
  75:../../libDaisy//src/hid/midi.h ****         uart_config.pin_config.tx = config.tx;
 1104              		.loc 6 75 9 is_stmt 1 view .LVU257
  78:../../libDaisy//src/hid/midi.h ****         rx_buffer_size = config.rx_buffer_size;
 1105              		.loc 6 78 24 is_stmt 0 view .LVU258
 1106 0056 C4F8D468 		str	r6, [r4, #2260]
  79:../../libDaisy//src/hid/midi.h **** 
 1107              		.loc 6 79 24 view .LVU259
 1108 005a C4F8D878 		str	r7, [r4, #2264]
  75:../../libDaisy//src/hid/midi.h ****         uart_config.pin_config.tx = config.tx;
 1109              		.loc 6 75 35 view .LVU260
 1110 005e ADF83630 		strh	r3, [sp, #54]	@ movhi
  76:../../libDaisy//src/hid/midi.h **** 
 1111              		.loc 6 76 9 is_stmt 1 view .LVU261
  76:../../libDaisy//src/hid/midi.h **** 
 1112              		.loc 6 76 35 is_stmt 0 view .LVU262
 1113 0062 BDF82A30 		ldrh	r3, [sp, #42]
 1114 0066 ADF83430 		strh	r3, [sp, #52]	@ movhi
  78:../../libDaisy//src/hid/midi.h ****         rx_buffer_size = config.rx_buffer_size;
 1115              		.loc 6 78 9 is_stmt 1 view .LVU263
  79:../../libDaisy//src/hid/midi.h **** 
 1116              		.loc 6 79 9 view .LVU264
  82:../../libDaisy//src/hid/midi.h **** 
 1117              		.loc 6 82 9 view .LVU265
 1118              	.LVL94:
 1119              	.LBB415:
 1120              	.LBI415:
 260:/Library/DaisyToolchain/0.2.0/arm/arm-none-eabi/include/c++/10.3.1/bits/stl_algobase.h **** 	return __b;
 261:/Library/DaisyToolchain/0.2.0/arm/arm-none-eabi/include/c++/10.3.1/bits/stl_algobase.h ****       return __a;
 262:/Library/DaisyToolchain/0.2.0/arm/arm-none-eabi/include/c++/10.3.1/bits/stl_algobase.h ****     }
 263:/Library/DaisyToolchain/0.2.0/arm/arm-none-eabi/include/c++/10.3.1/bits/stl_algobase.h **** 
 264:/Library/DaisyToolchain/0.2.0/arm/arm-none-eabi/include/c++/10.3.1/bits/stl_algobase.h ****   /**
 265:/Library/DaisyToolchain/0.2.0/arm/arm-none-eabi/include/c++/10.3.1/bits/stl_algobase.h ****    *  @brief This does what you think it does.
 266:/Library/DaisyToolchain/0.2.0/arm/arm-none-eabi/include/c++/10.3.1/bits/stl_algobase.h ****    *  @ingroup sorting_algorithms
 267:/Library/DaisyToolchain/0.2.0/arm/arm-none-eabi/include/c++/10.3.1/bits/stl_algobase.h ****    *  @param  __a  A thing of arbitrary type.
 268:/Library/DaisyToolchain/0.2.0/arm/arm-none-eabi/include/c++/10.3.1/bits/stl_algobase.h ****    *  @param  __b  Another thing of arbitrary type.
 269:/Library/DaisyToolchain/0.2.0/arm/arm-none-eabi/include/c++/10.3.1/bits/stl_algobase.h ****    *  @param  __comp  A @link comparison_functors comparison functor@endlink.
 270:/Library/DaisyToolchain/0.2.0/arm/arm-none-eabi/include/c++/10.3.1/bits/stl_algobase.h ****    *  @return   The lesser of the parameters.
 271:/Library/DaisyToolchain/0.2.0/arm/arm-none-eabi/include/c++/10.3.1/bits/stl_algobase.h ****    *
 272:/Library/DaisyToolchain/0.2.0/arm/arm-none-eabi/include/c++/10.3.1/bits/stl_algobase.h ****    *  This will work on temporary expressions, since they are only evaluated
 273:/Library/DaisyToolchain/0.2.0/arm/arm-none-eabi/include/c++/10.3.1/bits/stl_algobase.h ****    *  once, unlike a preprocessor macro.
 274:/Library/DaisyToolchain/0.2.0/arm/arm-none-eabi/include/c++/10.3.1/bits/stl_algobase.h ****   */
 275:/Library/DaisyToolchain/0.2.0/arm/arm-none-eabi/include/c++/10.3.1/bits/stl_algobase.h ****   template<typename _Tp, typename _Compare>
 276:/Library/DaisyToolchain/0.2.0/arm/arm-none-eabi/include/c++/10.3.1/bits/stl_algobase.h ****     _GLIBCXX14_CONSTEXPR
 277:/Library/DaisyToolchain/0.2.0/arm/arm-none-eabi/include/c++/10.3.1/bits/stl_algobase.h ****     inline const _Tp&
 278:/Library/DaisyToolchain/0.2.0/arm/arm-none-eabi/include/c++/10.3.1/bits/stl_algobase.h ****     min(const _Tp& __a, const _Tp& __b, _Compare __comp)
 279:/Library/DaisyToolchain/0.2.0/arm/arm-none-eabi/include/c++/10.3.1/bits/stl_algobase.h ****     {
 280:/Library/DaisyToolchain/0.2.0/arm/arm-none-eabi/include/c++/10.3.1/bits/stl_algobase.h ****       //return __comp(__b, __a) ? __b : __a;
ARM GAS  /var/folders/1y/_321xjh9623c014x9_qw12rr0000gn/T//ccXZVGQV.s 			page 51


 281:/Library/DaisyToolchain/0.2.0/arm/arm-none-eabi/include/c++/10.3.1/bits/stl_algobase.h ****       if (__comp(__b, __a))
 282:/Library/DaisyToolchain/0.2.0/arm/arm-none-eabi/include/c++/10.3.1/bits/stl_algobase.h **** 	return __b;
 283:/Library/DaisyToolchain/0.2.0/arm/arm-none-eabi/include/c++/10.3.1/bits/stl_algobase.h ****       return __a;
 284:/Library/DaisyToolchain/0.2.0/arm/arm-none-eabi/include/c++/10.3.1/bits/stl_algobase.h ****     }
 285:/Library/DaisyToolchain/0.2.0/arm/arm-none-eabi/include/c++/10.3.1/bits/stl_algobase.h **** 
 286:/Library/DaisyToolchain/0.2.0/arm/arm-none-eabi/include/c++/10.3.1/bits/stl_algobase.h ****   /**
 287:/Library/DaisyToolchain/0.2.0/arm/arm-none-eabi/include/c++/10.3.1/bits/stl_algobase.h ****    *  @brief This does what you think it does.
 288:/Library/DaisyToolchain/0.2.0/arm/arm-none-eabi/include/c++/10.3.1/bits/stl_algobase.h ****    *  @ingroup sorting_algorithms
 289:/Library/DaisyToolchain/0.2.0/arm/arm-none-eabi/include/c++/10.3.1/bits/stl_algobase.h ****    *  @param  __a  A thing of arbitrary type.
 290:/Library/DaisyToolchain/0.2.0/arm/arm-none-eabi/include/c++/10.3.1/bits/stl_algobase.h ****    *  @param  __b  Another thing of arbitrary type.
 291:/Library/DaisyToolchain/0.2.0/arm/arm-none-eabi/include/c++/10.3.1/bits/stl_algobase.h ****    *  @param  __comp  A @link comparison_functors comparison functor@endlink.
 292:/Library/DaisyToolchain/0.2.0/arm/arm-none-eabi/include/c++/10.3.1/bits/stl_algobase.h ****    *  @return   The greater of the parameters.
 293:/Library/DaisyToolchain/0.2.0/arm/arm-none-eabi/include/c++/10.3.1/bits/stl_algobase.h ****    *
 294:/Library/DaisyToolchain/0.2.0/arm/arm-none-eabi/include/c++/10.3.1/bits/stl_algobase.h ****    *  This will work on temporary expressions, since they are only evaluated
 295:/Library/DaisyToolchain/0.2.0/arm/arm-none-eabi/include/c++/10.3.1/bits/stl_algobase.h ****    *  once, unlike a preprocessor macro.
 296:/Library/DaisyToolchain/0.2.0/arm/arm-none-eabi/include/c++/10.3.1/bits/stl_algobase.h ****   */
 297:/Library/DaisyToolchain/0.2.0/arm/arm-none-eabi/include/c++/10.3.1/bits/stl_algobase.h ****   template<typename _Tp, typename _Compare>
 298:/Library/DaisyToolchain/0.2.0/arm/arm-none-eabi/include/c++/10.3.1/bits/stl_algobase.h ****     _GLIBCXX14_CONSTEXPR
 299:/Library/DaisyToolchain/0.2.0/arm/arm-none-eabi/include/c++/10.3.1/bits/stl_algobase.h ****     inline const _Tp&
 300:/Library/DaisyToolchain/0.2.0/arm/arm-none-eabi/include/c++/10.3.1/bits/stl_algobase.h ****     max(const _Tp& __a, const _Tp& __b, _Compare __comp)
 301:/Library/DaisyToolchain/0.2.0/arm/arm-none-eabi/include/c++/10.3.1/bits/stl_algobase.h ****     {
 302:/Library/DaisyToolchain/0.2.0/arm/arm-none-eabi/include/c++/10.3.1/bits/stl_algobase.h ****       //return __comp(__a, __b) ? __b : __a;
 303:/Library/DaisyToolchain/0.2.0/arm/arm-none-eabi/include/c++/10.3.1/bits/stl_algobase.h ****       if (__comp(__a, __b))
 304:/Library/DaisyToolchain/0.2.0/arm/arm-none-eabi/include/c++/10.3.1/bits/stl_algobase.h **** 	return __b;
 305:/Library/DaisyToolchain/0.2.0/arm/arm-none-eabi/include/c++/10.3.1/bits/stl_algobase.h ****       return __a;
 306:/Library/DaisyToolchain/0.2.0/arm/arm-none-eabi/include/c++/10.3.1/bits/stl_algobase.h ****     }
 307:/Library/DaisyToolchain/0.2.0/arm/arm-none-eabi/include/c++/10.3.1/bits/stl_algobase.h **** 
 308:/Library/DaisyToolchain/0.2.0/arm/arm-none-eabi/include/c++/10.3.1/bits/stl_algobase.h ****   // Fallback implementation of the function in bits/stl_iterator.h used to
 309:/Library/DaisyToolchain/0.2.0/arm/arm-none-eabi/include/c++/10.3.1/bits/stl_algobase.h ****   // remove the __normal_iterator wrapper. See copy, fill, ...
 310:/Library/DaisyToolchain/0.2.0/arm/arm-none-eabi/include/c++/10.3.1/bits/stl_algobase.h ****   template<typename _Iterator>
 311:/Library/DaisyToolchain/0.2.0/arm/arm-none-eabi/include/c++/10.3.1/bits/stl_algobase.h ****     _GLIBCXX20_CONSTEXPR
 312:/Library/DaisyToolchain/0.2.0/arm/arm-none-eabi/include/c++/10.3.1/bits/stl_algobase.h ****     inline _Iterator
 313:/Library/DaisyToolchain/0.2.0/arm/arm-none-eabi/include/c++/10.3.1/bits/stl_algobase.h ****     __niter_base(_Iterator __it)
 314:/Library/DaisyToolchain/0.2.0/arm/arm-none-eabi/include/c++/10.3.1/bits/stl_algobase.h ****     _GLIBCXX_NOEXCEPT_IF(std::is_nothrow_copy_constructible<_Iterator>::value)
 315:/Library/DaisyToolchain/0.2.0/arm/arm-none-eabi/include/c++/10.3.1/bits/stl_algobase.h ****     { return __it; }
 316:/Library/DaisyToolchain/0.2.0/arm/arm-none-eabi/include/c++/10.3.1/bits/stl_algobase.h **** 
 317:/Library/DaisyToolchain/0.2.0/arm/arm-none-eabi/include/c++/10.3.1/bits/stl_algobase.h ****   // Reverse the __niter_base transformation to get a
 318:/Library/DaisyToolchain/0.2.0/arm/arm-none-eabi/include/c++/10.3.1/bits/stl_algobase.h ****   // __normal_iterator back again (this assumes that __normal_iterator
 319:/Library/DaisyToolchain/0.2.0/arm/arm-none-eabi/include/c++/10.3.1/bits/stl_algobase.h ****   // is only used to wrap random access iterators, like pointers).
 320:/Library/DaisyToolchain/0.2.0/arm/arm-none-eabi/include/c++/10.3.1/bits/stl_algobase.h ****   template<typename _From, typename _To>
 321:/Library/DaisyToolchain/0.2.0/arm/arm-none-eabi/include/c++/10.3.1/bits/stl_algobase.h ****     _GLIBCXX20_CONSTEXPR
 322:/Library/DaisyToolchain/0.2.0/arm/arm-none-eabi/include/c++/10.3.1/bits/stl_algobase.h ****     inline _From
 323:/Library/DaisyToolchain/0.2.0/arm/arm-none-eabi/include/c++/10.3.1/bits/stl_algobase.h ****     __niter_wrap(_From __from, _To __res)
 324:/Library/DaisyToolchain/0.2.0/arm/arm-none-eabi/include/c++/10.3.1/bits/stl_algobase.h ****     { return __from + (__res - std::__niter_base(__from)); }
 325:/Library/DaisyToolchain/0.2.0/arm/arm-none-eabi/include/c++/10.3.1/bits/stl_algobase.h **** 
 326:/Library/DaisyToolchain/0.2.0/arm/arm-none-eabi/include/c++/10.3.1/bits/stl_algobase.h ****   // No need to wrap, iterator already has the right type.
 327:/Library/DaisyToolchain/0.2.0/arm/arm-none-eabi/include/c++/10.3.1/bits/stl_algobase.h ****   template<typename _Iterator>
 328:/Library/DaisyToolchain/0.2.0/arm/arm-none-eabi/include/c++/10.3.1/bits/stl_algobase.h ****     _GLIBCXX20_CONSTEXPR
 329:/Library/DaisyToolchain/0.2.0/arm/arm-none-eabi/include/c++/10.3.1/bits/stl_algobase.h ****     inline _Iterator
 330:/Library/DaisyToolchain/0.2.0/arm/arm-none-eabi/include/c++/10.3.1/bits/stl_algobase.h ****     __niter_wrap(const _Iterator&, _Iterator __res)
 331:/Library/DaisyToolchain/0.2.0/arm/arm-none-eabi/include/c++/10.3.1/bits/stl_algobase.h ****     { return __res; }
 332:/Library/DaisyToolchain/0.2.0/arm/arm-none-eabi/include/c++/10.3.1/bits/stl_algobase.h **** 
 333:/Library/DaisyToolchain/0.2.0/arm/arm-none-eabi/include/c++/10.3.1/bits/stl_algobase.h ****   // All of these auxiliary structs serve two purposes.  (1) Replace
 334:/Library/DaisyToolchain/0.2.0/arm/arm-none-eabi/include/c++/10.3.1/bits/stl_algobase.h ****   // calls to copy with memmove whenever possible.  (Memmove, not memcpy,
 335:/Library/DaisyToolchain/0.2.0/arm/arm-none-eabi/include/c++/10.3.1/bits/stl_algobase.h ****   // because the input and output ranges are permitted to overlap.)
 336:/Library/DaisyToolchain/0.2.0/arm/arm-none-eabi/include/c++/10.3.1/bits/stl_algobase.h ****   // (2) If we're using random access iterators, then write the loop as
 337:/Library/DaisyToolchain/0.2.0/arm/arm-none-eabi/include/c++/10.3.1/bits/stl_algobase.h ****   // a for loop with an explicit count.
ARM GAS  /var/folders/1y/_321xjh9623c014x9_qw12rr0000gn/T//ccXZVGQV.s 			page 52


 338:/Library/DaisyToolchain/0.2.0/arm/arm-none-eabi/include/c++/10.3.1/bits/stl_algobase.h **** 
 339:/Library/DaisyToolchain/0.2.0/arm/arm-none-eabi/include/c++/10.3.1/bits/stl_algobase.h ****   template<bool _IsMove, bool _IsSimple, typename _Category>
 340:/Library/DaisyToolchain/0.2.0/arm/arm-none-eabi/include/c++/10.3.1/bits/stl_algobase.h ****     struct __copy_move
 341:/Library/DaisyToolchain/0.2.0/arm/arm-none-eabi/include/c++/10.3.1/bits/stl_algobase.h ****     {
 342:/Library/DaisyToolchain/0.2.0/arm/arm-none-eabi/include/c++/10.3.1/bits/stl_algobase.h ****       template<typename _II, typename _OI>
 343:/Library/DaisyToolchain/0.2.0/arm/arm-none-eabi/include/c++/10.3.1/bits/stl_algobase.h **** 	_GLIBCXX20_CONSTEXPR
 344:/Library/DaisyToolchain/0.2.0/arm/arm-none-eabi/include/c++/10.3.1/bits/stl_algobase.h **** 	static _OI
 345:/Library/DaisyToolchain/0.2.0/arm/arm-none-eabi/include/c++/10.3.1/bits/stl_algobase.h **** 	__copy_m(_II __first, _II __last, _OI __result)
 346:/Library/DaisyToolchain/0.2.0/arm/arm-none-eabi/include/c++/10.3.1/bits/stl_algobase.h **** 	{
 347:/Library/DaisyToolchain/0.2.0/arm/arm-none-eabi/include/c++/10.3.1/bits/stl_algobase.h **** 	  for (; __first != __last; ++__result, (void)++__first)
 348:/Library/DaisyToolchain/0.2.0/arm/arm-none-eabi/include/c++/10.3.1/bits/stl_algobase.h **** 	    *__result = *__first;
 349:/Library/DaisyToolchain/0.2.0/arm/arm-none-eabi/include/c++/10.3.1/bits/stl_algobase.h **** 	  return __result;
 350:/Library/DaisyToolchain/0.2.0/arm/arm-none-eabi/include/c++/10.3.1/bits/stl_algobase.h **** 	}
 351:/Library/DaisyToolchain/0.2.0/arm/arm-none-eabi/include/c++/10.3.1/bits/stl_algobase.h ****     };
 352:/Library/DaisyToolchain/0.2.0/arm/arm-none-eabi/include/c++/10.3.1/bits/stl_algobase.h **** 
 353:/Library/DaisyToolchain/0.2.0/arm/arm-none-eabi/include/c++/10.3.1/bits/stl_algobase.h **** #if __cplusplus >= 201103L
 354:/Library/DaisyToolchain/0.2.0/arm/arm-none-eabi/include/c++/10.3.1/bits/stl_algobase.h ****   template<typename _Category>
 355:/Library/DaisyToolchain/0.2.0/arm/arm-none-eabi/include/c++/10.3.1/bits/stl_algobase.h ****     struct __copy_move<true, false, _Category>
 356:/Library/DaisyToolchain/0.2.0/arm/arm-none-eabi/include/c++/10.3.1/bits/stl_algobase.h ****     {
 357:/Library/DaisyToolchain/0.2.0/arm/arm-none-eabi/include/c++/10.3.1/bits/stl_algobase.h ****       template<typename _II, typename _OI>
 358:/Library/DaisyToolchain/0.2.0/arm/arm-none-eabi/include/c++/10.3.1/bits/stl_algobase.h **** 	_GLIBCXX20_CONSTEXPR
 359:/Library/DaisyToolchain/0.2.0/arm/arm-none-eabi/include/c++/10.3.1/bits/stl_algobase.h **** 	static _OI
 360:/Library/DaisyToolchain/0.2.0/arm/arm-none-eabi/include/c++/10.3.1/bits/stl_algobase.h **** 	__copy_m(_II __first, _II __last, _OI __result)
 361:/Library/DaisyToolchain/0.2.0/arm/arm-none-eabi/include/c++/10.3.1/bits/stl_algobase.h **** 	{
 362:/Library/DaisyToolchain/0.2.0/arm/arm-none-eabi/include/c++/10.3.1/bits/stl_algobase.h **** 	  for (; __first != __last; ++__result, (void)++__first)
 363:/Library/DaisyToolchain/0.2.0/arm/arm-none-eabi/include/c++/10.3.1/bits/stl_algobase.h **** 	    *__result = std::move(*__first);
 364:/Library/DaisyToolchain/0.2.0/arm/arm-none-eabi/include/c++/10.3.1/bits/stl_algobase.h **** 	  return __result;
 365:/Library/DaisyToolchain/0.2.0/arm/arm-none-eabi/include/c++/10.3.1/bits/stl_algobase.h **** 	}
 366:/Library/DaisyToolchain/0.2.0/arm/arm-none-eabi/include/c++/10.3.1/bits/stl_algobase.h ****     };
 367:/Library/DaisyToolchain/0.2.0/arm/arm-none-eabi/include/c++/10.3.1/bits/stl_algobase.h **** #endif
 368:/Library/DaisyToolchain/0.2.0/arm/arm-none-eabi/include/c++/10.3.1/bits/stl_algobase.h **** 
 369:/Library/DaisyToolchain/0.2.0/arm/arm-none-eabi/include/c++/10.3.1/bits/stl_algobase.h ****   template<>
 370:/Library/DaisyToolchain/0.2.0/arm/arm-none-eabi/include/c++/10.3.1/bits/stl_algobase.h ****     struct __copy_move<false, false, random_access_iterator_tag>
 371:/Library/DaisyToolchain/0.2.0/arm/arm-none-eabi/include/c++/10.3.1/bits/stl_algobase.h ****     {
 372:/Library/DaisyToolchain/0.2.0/arm/arm-none-eabi/include/c++/10.3.1/bits/stl_algobase.h ****       template<typename _II, typename _OI>
 373:/Library/DaisyToolchain/0.2.0/arm/arm-none-eabi/include/c++/10.3.1/bits/stl_algobase.h **** 	_GLIBCXX20_CONSTEXPR
 374:/Library/DaisyToolchain/0.2.0/arm/arm-none-eabi/include/c++/10.3.1/bits/stl_algobase.h **** 	static _OI
 375:/Library/DaisyToolchain/0.2.0/arm/arm-none-eabi/include/c++/10.3.1/bits/stl_algobase.h **** 	__copy_m(_II __first, _II __last, _OI __result)
 376:/Library/DaisyToolchain/0.2.0/arm/arm-none-eabi/include/c++/10.3.1/bits/stl_algobase.h **** 	{
 377:/Library/DaisyToolchain/0.2.0/arm/arm-none-eabi/include/c++/10.3.1/bits/stl_algobase.h **** 	  typedef typename iterator_traits<_II>::difference_type _Distance;
 378:/Library/DaisyToolchain/0.2.0/arm/arm-none-eabi/include/c++/10.3.1/bits/stl_algobase.h **** 	  for(_Distance __n = __last - __first; __n > 0; --__n)
 379:/Library/DaisyToolchain/0.2.0/arm/arm-none-eabi/include/c++/10.3.1/bits/stl_algobase.h **** 	    {
 380:/Library/DaisyToolchain/0.2.0/arm/arm-none-eabi/include/c++/10.3.1/bits/stl_algobase.h **** 	      *__result = *__first;
 381:/Library/DaisyToolchain/0.2.0/arm/arm-none-eabi/include/c++/10.3.1/bits/stl_algobase.h **** 	      ++__first;
 382:/Library/DaisyToolchain/0.2.0/arm/arm-none-eabi/include/c++/10.3.1/bits/stl_algobase.h **** 	      ++__result;
 383:/Library/DaisyToolchain/0.2.0/arm/arm-none-eabi/include/c++/10.3.1/bits/stl_algobase.h **** 	    }
 384:/Library/DaisyToolchain/0.2.0/arm/arm-none-eabi/include/c++/10.3.1/bits/stl_algobase.h **** 	  return __result;
 385:/Library/DaisyToolchain/0.2.0/arm/arm-none-eabi/include/c++/10.3.1/bits/stl_algobase.h **** 	}
 386:/Library/DaisyToolchain/0.2.0/arm/arm-none-eabi/include/c++/10.3.1/bits/stl_algobase.h ****     };
 387:/Library/DaisyToolchain/0.2.0/arm/arm-none-eabi/include/c++/10.3.1/bits/stl_algobase.h **** 
 388:/Library/DaisyToolchain/0.2.0/arm/arm-none-eabi/include/c++/10.3.1/bits/stl_algobase.h **** #if __cplusplus >= 201103L
 389:/Library/DaisyToolchain/0.2.0/arm/arm-none-eabi/include/c++/10.3.1/bits/stl_algobase.h ****   template<>
 390:/Library/DaisyToolchain/0.2.0/arm/arm-none-eabi/include/c++/10.3.1/bits/stl_algobase.h ****     struct __copy_move<true, false, random_access_iterator_tag>
 391:/Library/DaisyToolchain/0.2.0/arm/arm-none-eabi/include/c++/10.3.1/bits/stl_algobase.h ****     {
 392:/Library/DaisyToolchain/0.2.0/arm/arm-none-eabi/include/c++/10.3.1/bits/stl_algobase.h ****       template<typename _II, typename _OI>
 393:/Library/DaisyToolchain/0.2.0/arm/arm-none-eabi/include/c++/10.3.1/bits/stl_algobase.h **** 	_GLIBCXX20_CONSTEXPR
 394:/Library/DaisyToolchain/0.2.0/arm/arm-none-eabi/include/c++/10.3.1/bits/stl_algobase.h **** 	static _OI
ARM GAS  /var/folders/1y/_321xjh9623c014x9_qw12rr0000gn/T//ccXZVGQV.s 			page 53


 395:/Library/DaisyToolchain/0.2.0/arm/arm-none-eabi/include/c++/10.3.1/bits/stl_algobase.h **** 	__copy_m(_II __first, _II __last, _OI __result)
 396:/Library/DaisyToolchain/0.2.0/arm/arm-none-eabi/include/c++/10.3.1/bits/stl_algobase.h **** 	{
 397:/Library/DaisyToolchain/0.2.0/arm/arm-none-eabi/include/c++/10.3.1/bits/stl_algobase.h **** 	  typedef typename iterator_traits<_II>::difference_type _Distance;
 398:/Library/DaisyToolchain/0.2.0/arm/arm-none-eabi/include/c++/10.3.1/bits/stl_algobase.h **** 	  for(_Distance __n = __last - __first; __n > 0; --__n)
 399:/Library/DaisyToolchain/0.2.0/arm/arm-none-eabi/include/c++/10.3.1/bits/stl_algobase.h **** 	    {
 400:/Library/DaisyToolchain/0.2.0/arm/arm-none-eabi/include/c++/10.3.1/bits/stl_algobase.h **** 	      *__result = std::move(*__first);
 401:/Library/DaisyToolchain/0.2.0/arm/arm-none-eabi/include/c++/10.3.1/bits/stl_algobase.h **** 	      ++__first;
 402:/Library/DaisyToolchain/0.2.0/arm/arm-none-eabi/include/c++/10.3.1/bits/stl_algobase.h **** 	      ++__result;
 403:/Library/DaisyToolchain/0.2.0/arm/arm-none-eabi/include/c++/10.3.1/bits/stl_algobase.h **** 	    }
 404:/Library/DaisyToolchain/0.2.0/arm/arm-none-eabi/include/c++/10.3.1/bits/stl_algobase.h **** 	  return __result;
 405:/Library/DaisyToolchain/0.2.0/arm/arm-none-eabi/include/c++/10.3.1/bits/stl_algobase.h **** 	}
 406:/Library/DaisyToolchain/0.2.0/arm/arm-none-eabi/include/c++/10.3.1/bits/stl_algobase.h ****     };
 407:/Library/DaisyToolchain/0.2.0/arm/arm-none-eabi/include/c++/10.3.1/bits/stl_algobase.h **** #endif
 408:/Library/DaisyToolchain/0.2.0/arm/arm-none-eabi/include/c++/10.3.1/bits/stl_algobase.h **** 
 409:/Library/DaisyToolchain/0.2.0/arm/arm-none-eabi/include/c++/10.3.1/bits/stl_algobase.h ****   template<bool _IsMove>
 410:/Library/DaisyToolchain/0.2.0/arm/arm-none-eabi/include/c++/10.3.1/bits/stl_algobase.h ****     struct __copy_move<_IsMove, true, random_access_iterator_tag>
 411:/Library/DaisyToolchain/0.2.0/arm/arm-none-eabi/include/c++/10.3.1/bits/stl_algobase.h ****     {
 412:/Library/DaisyToolchain/0.2.0/arm/arm-none-eabi/include/c++/10.3.1/bits/stl_algobase.h ****       template<typename _Tp>
 413:/Library/DaisyToolchain/0.2.0/arm/arm-none-eabi/include/c++/10.3.1/bits/stl_algobase.h **** 	_GLIBCXX20_CONSTEXPR
 414:/Library/DaisyToolchain/0.2.0/arm/arm-none-eabi/include/c++/10.3.1/bits/stl_algobase.h **** 	static _Tp*
 415:/Library/DaisyToolchain/0.2.0/arm/arm-none-eabi/include/c++/10.3.1/bits/stl_algobase.h **** 	__copy_m(const _Tp* __first, const _Tp* __last, _Tp* __result)
 416:/Library/DaisyToolchain/0.2.0/arm/arm-none-eabi/include/c++/10.3.1/bits/stl_algobase.h **** 	{
 417:/Library/DaisyToolchain/0.2.0/arm/arm-none-eabi/include/c++/10.3.1/bits/stl_algobase.h **** #if __cplusplus >= 201103L
 418:/Library/DaisyToolchain/0.2.0/arm/arm-none-eabi/include/c++/10.3.1/bits/stl_algobase.h **** 	  using __assignable = conditional<_IsMove,
 419:/Library/DaisyToolchain/0.2.0/arm/arm-none-eabi/include/c++/10.3.1/bits/stl_algobase.h **** 					   is_move_assignable<_Tp>,
 420:/Library/DaisyToolchain/0.2.0/arm/arm-none-eabi/include/c++/10.3.1/bits/stl_algobase.h **** 					   is_copy_assignable<_Tp>>;
 421:/Library/DaisyToolchain/0.2.0/arm/arm-none-eabi/include/c++/10.3.1/bits/stl_algobase.h **** 	  // trivial types can have deleted assignment
 422:/Library/DaisyToolchain/0.2.0/arm/arm-none-eabi/include/c++/10.3.1/bits/stl_algobase.h **** 	  static_assert( __assignable::type::value, "type is not assignable" );
 423:/Library/DaisyToolchain/0.2.0/arm/arm-none-eabi/include/c++/10.3.1/bits/stl_algobase.h **** #endif
 424:/Library/DaisyToolchain/0.2.0/arm/arm-none-eabi/include/c++/10.3.1/bits/stl_algobase.h **** 	  const ptrdiff_t _Num = __last - __first;
 425:/Library/DaisyToolchain/0.2.0/arm/arm-none-eabi/include/c++/10.3.1/bits/stl_algobase.h **** 	  if (_Num)
 426:/Library/DaisyToolchain/0.2.0/arm/arm-none-eabi/include/c++/10.3.1/bits/stl_algobase.h **** 	    __builtin_memmove(__result, __first, sizeof(_Tp) * _Num);
 427:/Library/DaisyToolchain/0.2.0/arm/arm-none-eabi/include/c++/10.3.1/bits/stl_algobase.h **** 	  return __result + _Num;
 428:/Library/DaisyToolchain/0.2.0/arm/arm-none-eabi/include/c++/10.3.1/bits/stl_algobase.h **** 	}
 429:/Library/DaisyToolchain/0.2.0/arm/arm-none-eabi/include/c++/10.3.1/bits/stl_algobase.h ****     };
 430:/Library/DaisyToolchain/0.2.0/arm/arm-none-eabi/include/c++/10.3.1/bits/stl_algobase.h **** 
 431:/Library/DaisyToolchain/0.2.0/arm/arm-none-eabi/include/c++/10.3.1/bits/stl_algobase.h ****   // Helpers for streambuf iterators (either istream or ostream).
 432:/Library/DaisyToolchain/0.2.0/arm/arm-none-eabi/include/c++/10.3.1/bits/stl_algobase.h ****   // NB: avoid including <iosfwd>, relatively large.
 433:/Library/DaisyToolchain/0.2.0/arm/arm-none-eabi/include/c++/10.3.1/bits/stl_algobase.h ****   template<typename _CharT>
 434:/Library/DaisyToolchain/0.2.0/arm/arm-none-eabi/include/c++/10.3.1/bits/stl_algobase.h ****     struct char_traits;
 435:/Library/DaisyToolchain/0.2.0/arm/arm-none-eabi/include/c++/10.3.1/bits/stl_algobase.h **** 
 436:/Library/DaisyToolchain/0.2.0/arm/arm-none-eabi/include/c++/10.3.1/bits/stl_algobase.h ****   template<typename _CharT, typename _Traits>
 437:/Library/DaisyToolchain/0.2.0/arm/arm-none-eabi/include/c++/10.3.1/bits/stl_algobase.h ****     class istreambuf_iterator;
 438:/Library/DaisyToolchain/0.2.0/arm/arm-none-eabi/include/c++/10.3.1/bits/stl_algobase.h **** 
 439:/Library/DaisyToolchain/0.2.0/arm/arm-none-eabi/include/c++/10.3.1/bits/stl_algobase.h ****   template<typename _CharT, typename _Traits>
 440:/Library/DaisyToolchain/0.2.0/arm/arm-none-eabi/include/c++/10.3.1/bits/stl_algobase.h ****     class ostreambuf_iterator;
 441:/Library/DaisyToolchain/0.2.0/arm/arm-none-eabi/include/c++/10.3.1/bits/stl_algobase.h **** 
 442:/Library/DaisyToolchain/0.2.0/arm/arm-none-eabi/include/c++/10.3.1/bits/stl_algobase.h ****   template<bool _IsMove, typename _CharT>
 443:/Library/DaisyToolchain/0.2.0/arm/arm-none-eabi/include/c++/10.3.1/bits/stl_algobase.h ****     typename __gnu_cxx::__enable_if<__is_char<_CharT>::__value,
 444:/Library/DaisyToolchain/0.2.0/arm/arm-none-eabi/include/c++/10.3.1/bits/stl_algobase.h **** 	     ostreambuf_iterator<_CharT, char_traits<_CharT> > >::__type
 445:/Library/DaisyToolchain/0.2.0/arm/arm-none-eabi/include/c++/10.3.1/bits/stl_algobase.h ****     __copy_move_a2(_CharT*, _CharT*,
 446:/Library/DaisyToolchain/0.2.0/arm/arm-none-eabi/include/c++/10.3.1/bits/stl_algobase.h **** 		   ostreambuf_iterator<_CharT, char_traits<_CharT> >);
 447:/Library/DaisyToolchain/0.2.0/arm/arm-none-eabi/include/c++/10.3.1/bits/stl_algobase.h **** 
 448:/Library/DaisyToolchain/0.2.0/arm/arm-none-eabi/include/c++/10.3.1/bits/stl_algobase.h ****   template<bool _IsMove, typename _CharT>
 449:/Library/DaisyToolchain/0.2.0/arm/arm-none-eabi/include/c++/10.3.1/bits/stl_algobase.h ****     typename __gnu_cxx::__enable_if<__is_char<_CharT>::__value,
 450:/Library/DaisyToolchain/0.2.0/arm/arm-none-eabi/include/c++/10.3.1/bits/stl_algobase.h **** 	     ostreambuf_iterator<_CharT, char_traits<_CharT> > >::__type
 451:/Library/DaisyToolchain/0.2.0/arm/arm-none-eabi/include/c++/10.3.1/bits/stl_algobase.h ****     __copy_move_a2(const _CharT*, const _CharT*,
ARM GAS  /var/folders/1y/_321xjh9623c014x9_qw12rr0000gn/T//ccXZVGQV.s 			page 54


 452:/Library/DaisyToolchain/0.2.0/arm/arm-none-eabi/include/c++/10.3.1/bits/stl_algobase.h **** 		   ostreambuf_iterator<_CharT, char_traits<_CharT> >);
 453:/Library/DaisyToolchain/0.2.0/arm/arm-none-eabi/include/c++/10.3.1/bits/stl_algobase.h **** 
 454:/Library/DaisyToolchain/0.2.0/arm/arm-none-eabi/include/c++/10.3.1/bits/stl_algobase.h ****   template<bool _IsMove, typename _CharT>
 455:/Library/DaisyToolchain/0.2.0/arm/arm-none-eabi/include/c++/10.3.1/bits/stl_algobase.h ****     typename __gnu_cxx::__enable_if<__is_char<_CharT>::__value,
 456:/Library/DaisyToolchain/0.2.0/arm/arm-none-eabi/include/c++/10.3.1/bits/stl_algobase.h **** 				    _CharT*>::__type
 457:/Library/DaisyToolchain/0.2.0/arm/arm-none-eabi/include/c++/10.3.1/bits/stl_algobase.h ****     __copy_move_a2(istreambuf_iterator<_CharT, char_traits<_CharT> >,
 458:/Library/DaisyToolchain/0.2.0/arm/arm-none-eabi/include/c++/10.3.1/bits/stl_algobase.h **** 		   istreambuf_iterator<_CharT, char_traits<_CharT> >, _CharT*);
 459:/Library/DaisyToolchain/0.2.0/arm/arm-none-eabi/include/c++/10.3.1/bits/stl_algobase.h **** 
 460:/Library/DaisyToolchain/0.2.0/arm/arm-none-eabi/include/c++/10.3.1/bits/stl_algobase.h ****   template<bool _IsMove, typename _II, typename _OI>
 461:/Library/DaisyToolchain/0.2.0/arm/arm-none-eabi/include/c++/10.3.1/bits/stl_algobase.h ****     _GLIBCXX20_CONSTEXPR
 462:/Library/DaisyToolchain/0.2.0/arm/arm-none-eabi/include/c++/10.3.1/bits/stl_algobase.h ****     inline _OI
 463:/Library/DaisyToolchain/0.2.0/arm/arm-none-eabi/include/c++/10.3.1/bits/stl_algobase.h ****     __copy_move_a2(_II __first, _II __last, _OI __result)
 464:/Library/DaisyToolchain/0.2.0/arm/arm-none-eabi/include/c++/10.3.1/bits/stl_algobase.h ****     {
 465:/Library/DaisyToolchain/0.2.0/arm/arm-none-eabi/include/c++/10.3.1/bits/stl_algobase.h ****       typedef typename iterator_traits<_II>::iterator_category _Category;
 466:/Library/DaisyToolchain/0.2.0/arm/arm-none-eabi/include/c++/10.3.1/bits/stl_algobase.h **** #ifdef __cpp_lib_is_constant_evaluated
 467:/Library/DaisyToolchain/0.2.0/arm/arm-none-eabi/include/c++/10.3.1/bits/stl_algobase.h ****       if (std::is_constant_evaluated())
 468:/Library/DaisyToolchain/0.2.0/arm/arm-none-eabi/include/c++/10.3.1/bits/stl_algobase.h **** 	return std::__copy_move<_IsMove, false, _Category>::
 469:/Library/DaisyToolchain/0.2.0/arm/arm-none-eabi/include/c++/10.3.1/bits/stl_algobase.h **** 	  __copy_m(__first, __last, __result);
 470:/Library/DaisyToolchain/0.2.0/arm/arm-none-eabi/include/c++/10.3.1/bits/stl_algobase.h **** #endif
 471:/Library/DaisyToolchain/0.2.0/arm/arm-none-eabi/include/c++/10.3.1/bits/stl_algobase.h ****       return std::__copy_move<_IsMove, __memcpyable<_OI, _II>::__value,
 472:/Library/DaisyToolchain/0.2.0/arm/arm-none-eabi/include/c++/10.3.1/bits/stl_algobase.h **** 			      _Category>::__copy_m(__first, __last, __result);
 473:/Library/DaisyToolchain/0.2.0/arm/arm-none-eabi/include/c++/10.3.1/bits/stl_algobase.h ****     }
 474:/Library/DaisyToolchain/0.2.0/arm/arm-none-eabi/include/c++/10.3.1/bits/stl_algobase.h **** 
 475:/Library/DaisyToolchain/0.2.0/arm/arm-none-eabi/include/c++/10.3.1/bits/stl_algobase.h **** _GLIBCXX_BEGIN_NAMESPACE_CONTAINER
 476:/Library/DaisyToolchain/0.2.0/arm/arm-none-eabi/include/c++/10.3.1/bits/stl_algobase.h **** 
 477:/Library/DaisyToolchain/0.2.0/arm/arm-none-eabi/include/c++/10.3.1/bits/stl_algobase.h ****   template<typename _Tp, typename _Ref, typename _Ptr>
 478:/Library/DaisyToolchain/0.2.0/arm/arm-none-eabi/include/c++/10.3.1/bits/stl_algobase.h ****     struct _Deque_iterator;
 479:/Library/DaisyToolchain/0.2.0/arm/arm-none-eabi/include/c++/10.3.1/bits/stl_algobase.h **** 
 480:/Library/DaisyToolchain/0.2.0/arm/arm-none-eabi/include/c++/10.3.1/bits/stl_algobase.h **** _GLIBCXX_END_NAMESPACE_CONTAINER
 481:/Library/DaisyToolchain/0.2.0/arm/arm-none-eabi/include/c++/10.3.1/bits/stl_algobase.h **** 
 482:/Library/DaisyToolchain/0.2.0/arm/arm-none-eabi/include/c++/10.3.1/bits/stl_algobase.h ****   template<bool _IsMove,
 483:/Library/DaisyToolchain/0.2.0/arm/arm-none-eabi/include/c++/10.3.1/bits/stl_algobase.h **** 	   typename _Tp, typename _Ref, typename _Ptr, typename _OI>
 484:/Library/DaisyToolchain/0.2.0/arm/arm-none-eabi/include/c++/10.3.1/bits/stl_algobase.h ****     _OI
 485:/Library/DaisyToolchain/0.2.0/arm/arm-none-eabi/include/c++/10.3.1/bits/stl_algobase.h ****     __copy_move_a1(_GLIBCXX_STD_C::_Deque_iterator<_Tp, _Ref, _Ptr>,
 486:/Library/DaisyToolchain/0.2.0/arm/arm-none-eabi/include/c++/10.3.1/bits/stl_algobase.h **** 		   _GLIBCXX_STD_C::_Deque_iterator<_Tp, _Ref, _Ptr>,
 487:/Library/DaisyToolchain/0.2.0/arm/arm-none-eabi/include/c++/10.3.1/bits/stl_algobase.h **** 		   _OI);
 488:/Library/DaisyToolchain/0.2.0/arm/arm-none-eabi/include/c++/10.3.1/bits/stl_algobase.h **** 
 489:/Library/DaisyToolchain/0.2.0/arm/arm-none-eabi/include/c++/10.3.1/bits/stl_algobase.h ****   template<bool _IsMove,
 490:/Library/DaisyToolchain/0.2.0/arm/arm-none-eabi/include/c++/10.3.1/bits/stl_algobase.h **** 	   typename _ITp, typename _IRef, typename _IPtr, typename _OTp>
 491:/Library/DaisyToolchain/0.2.0/arm/arm-none-eabi/include/c++/10.3.1/bits/stl_algobase.h ****     _GLIBCXX_STD_C::_Deque_iterator<_OTp, _OTp&, _OTp*>
 492:/Library/DaisyToolchain/0.2.0/arm/arm-none-eabi/include/c++/10.3.1/bits/stl_algobase.h ****     __copy_move_a1(_GLIBCXX_STD_C::_Deque_iterator<_ITp, _IRef, _IPtr>,
 493:/Library/DaisyToolchain/0.2.0/arm/arm-none-eabi/include/c++/10.3.1/bits/stl_algobase.h **** 		   _GLIBCXX_STD_C::_Deque_iterator<_ITp, _IRef, _IPtr>,
 494:/Library/DaisyToolchain/0.2.0/arm/arm-none-eabi/include/c++/10.3.1/bits/stl_algobase.h **** 		   _GLIBCXX_STD_C::_Deque_iterator<_OTp, _OTp&, _OTp*>);
 495:/Library/DaisyToolchain/0.2.0/arm/arm-none-eabi/include/c++/10.3.1/bits/stl_algobase.h **** 
 496:/Library/DaisyToolchain/0.2.0/arm/arm-none-eabi/include/c++/10.3.1/bits/stl_algobase.h ****   template<bool _IsMove, typename _II, typename _Tp>
 497:/Library/DaisyToolchain/0.2.0/arm/arm-none-eabi/include/c++/10.3.1/bits/stl_algobase.h ****     typename __gnu_cxx::__enable_if<
 498:/Library/DaisyToolchain/0.2.0/arm/arm-none-eabi/include/c++/10.3.1/bits/stl_algobase.h ****       __is_random_access_iter<_II>::__value,
 499:/Library/DaisyToolchain/0.2.0/arm/arm-none-eabi/include/c++/10.3.1/bits/stl_algobase.h ****       _GLIBCXX_STD_C::_Deque_iterator<_Tp, _Tp&, _Tp*> >::__type
 500:/Library/DaisyToolchain/0.2.0/arm/arm-none-eabi/include/c++/10.3.1/bits/stl_algobase.h ****     __copy_move_a1(_II, _II, _GLIBCXX_STD_C::_Deque_iterator<_Tp, _Tp&, _Tp*>);
 501:/Library/DaisyToolchain/0.2.0/arm/arm-none-eabi/include/c++/10.3.1/bits/stl_algobase.h **** 
 502:/Library/DaisyToolchain/0.2.0/arm/arm-none-eabi/include/c++/10.3.1/bits/stl_algobase.h ****   template<bool _IsMove, typename _II, typename _OI>
 503:/Library/DaisyToolchain/0.2.0/arm/arm-none-eabi/include/c++/10.3.1/bits/stl_algobase.h ****     _GLIBCXX20_CONSTEXPR
 504:/Library/DaisyToolchain/0.2.0/arm/arm-none-eabi/include/c++/10.3.1/bits/stl_algobase.h ****     inline _OI
 505:/Library/DaisyToolchain/0.2.0/arm/arm-none-eabi/include/c++/10.3.1/bits/stl_algobase.h ****     __copy_move_a1(_II __first, _II __last, _OI __result)
 506:/Library/DaisyToolchain/0.2.0/arm/arm-none-eabi/include/c++/10.3.1/bits/stl_algobase.h ****     { return std::__copy_move_a2<_IsMove>(__first, __last, __result); }
 507:/Library/DaisyToolchain/0.2.0/arm/arm-none-eabi/include/c++/10.3.1/bits/stl_algobase.h **** 
 508:/Library/DaisyToolchain/0.2.0/arm/arm-none-eabi/include/c++/10.3.1/bits/stl_algobase.h ****   template<bool _IsMove, typename _II, typename _OI>
ARM GAS  /var/folders/1y/_321xjh9623c014x9_qw12rr0000gn/T//ccXZVGQV.s 			page 55


 509:/Library/DaisyToolchain/0.2.0/arm/arm-none-eabi/include/c++/10.3.1/bits/stl_algobase.h ****     _GLIBCXX20_CONSTEXPR
 510:/Library/DaisyToolchain/0.2.0/arm/arm-none-eabi/include/c++/10.3.1/bits/stl_algobase.h ****     inline _OI
 511:/Library/DaisyToolchain/0.2.0/arm/arm-none-eabi/include/c++/10.3.1/bits/stl_algobase.h ****     __copy_move_a(_II __first, _II __last, _OI __result)
 512:/Library/DaisyToolchain/0.2.0/arm/arm-none-eabi/include/c++/10.3.1/bits/stl_algobase.h ****     {
 513:/Library/DaisyToolchain/0.2.0/arm/arm-none-eabi/include/c++/10.3.1/bits/stl_algobase.h ****       return std::__niter_wrap(__result,
 514:/Library/DaisyToolchain/0.2.0/arm/arm-none-eabi/include/c++/10.3.1/bits/stl_algobase.h **** 		std::__copy_move_a1<_IsMove>(std::__niter_base(__first),
 515:/Library/DaisyToolchain/0.2.0/arm/arm-none-eabi/include/c++/10.3.1/bits/stl_algobase.h **** 					     std::__niter_base(__last),
 516:/Library/DaisyToolchain/0.2.0/arm/arm-none-eabi/include/c++/10.3.1/bits/stl_algobase.h **** 					     std::__niter_base(__result)));
 517:/Library/DaisyToolchain/0.2.0/arm/arm-none-eabi/include/c++/10.3.1/bits/stl_algobase.h ****     }
 518:/Library/DaisyToolchain/0.2.0/arm/arm-none-eabi/include/c++/10.3.1/bits/stl_algobase.h **** 
 519:/Library/DaisyToolchain/0.2.0/arm/arm-none-eabi/include/c++/10.3.1/bits/stl_algobase.h ****   template<bool _IsMove,
 520:/Library/DaisyToolchain/0.2.0/arm/arm-none-eabi/include/c++/10.3.1/bits/stl_algobase.h **** 	   typename _Ite, typename _Seq, typename _Cat, typename _OI>
 521:/Library/DaisyToolchain/0.2.0/arm/arm-none-eabi/include/c++/10.3.1/bits/stl_algobase.h ****     _OI
 522:/Library/DaisyToolchain/0.2.0/arm/arm-none-eabi/include/c++/10.3.1/bits/stl_algobase.h ****     __copy_move_a(const ::__gnu_debug::_Safe_iterator<_Ite, _Seq, _Cat>&,
 523:/Library/DaisyToolchain/0.2.0/arm/arm-none-eabi/include/c++/10.3.1/bits/stl_algobase.h **** 		  const ::__gnu_debug::_Safe_iterator<_Ite, _Seq, _Cat>&,
 524:/Library/DaisyToolchain/0.2.0/arm/arm-none-eabi/include/c++/10.3.1/bits/stl_algobase.h **** 		  _OI);
 525:/Library/DaisyToolchain/0.2.0/arm/arm-none-eabi/include/c++/10.3.1/bits/stl_algobase.h **** 
 526:/Library/DaisyToolchain/0.2.0/arm/arm-none-eabi/include/c++/10.3.1/bits/stl_algobase.h ****   template<bool _IsMove,
 527:/Library/DaisyToolchain/0.2.0/arm/arm-none-eabi/include/c++/10.3.1/bits/stl_algobase.h **** 	   typename _II, typename _Ite, typename _Seq, typename _Cat>
 528:/Library/DaisyToolchain/0.2.0/arm/arm-none-eabi/include/c++/10.3.1/bits/stl_algobase.h ****     __gnu_debug::_Safe_iterator<_Ite, _Seq, _Cat>
 529:/Library/DaisyToolchain/0.2.0/arm/arm-none-eabi/include/c++/10.3.1/bits/stl_algobase.h ****     __copy_move_a(_II, _II,
 530:/Library/DaisyToolchain/0.2.0/arm/arm-none-eabi/include/c++/10.3.1/bits/stl_algobase.h **** 		  const ::__gnu_debug::_Safe_iterator<_Ite, _Seq, _Cat>&);
 531:/Library/DaisyToolchain/0.2.0/arm/arm-none-eabi/include/c++/10.3.1/bits/stl_algobase.h **** 
 532:/Library/DaisyToolchain/0.2.0/arm/arm-none-eabi/include/c++/10.3.1/bits/stl_algobase.h ****   template<bool _IsMove,
 533:/Library/DaisyToolchain/0.2.0/arm/arm-none-eabi/include/c++/10.3.1/bits/stl_algobase.h **** 	   typename _IIte, typename _ISeq, typename _ICat,
 534:/Library/DaisyToolchain/0.2.0/arm/arm-none-eabi/include/c++/10.3.1/bits/stl_algobase.h **** 	   typename _OIte, typename _OSeq, typename _OCat>
 535:/Library/DaisyToolchain/0.2.0/arm/arm-none-eabi/include/c++/10.3.1/bits/stl_algobase.h ****     ::__gnu_debug::_Safe_iterator<_OIte, _OSeq, _OCat>
 536:/Library/DaisyToolchain/0.2.0/arm/arm-none-eabi/include/c++/10.3.1/bits/stl_algobase.h ****     __copy_move_a(const ::__gnu_debug::_Safe_iterator<_IIte, _ISeq, _ICat>&,
 537:/Library/DaisyToolchain/0.2.0/arm/arm-none-eabi/include/c++/10.3.1/bits/stl_algobase.h **** 		  const ::__gnu_debug::_Safe_iterator<_IIte, _ISeq, _ICat>&,
 538:/Library/DaisyToolchain/0.2.0/arm/arm-none-eabi/include/c++/10.3.1/bits/stl_algobase.h **** 		  const ::__gnu_debug::_Safe_iterator<_OIte, _OSeq, _OCat>&);
 539:/Library/DaisyToolchain/0.2.0/arm/arm-none-eabi/include/c++/10.3.1/bits/stl_algobase.h **** 
 540:/Library/DaisyToolchain/0.2.0/arm/arm-none-eabi/include/c++/10.3.1/bits/stl_algobase.h ****   /**
 541:/Library/DaisyToolchain/0.2.0/arm/arm-none-eabi/include/c++/10.3.1/bits/stl_algobase.h ****    *  @brief Copies the range [first,last) into result.
 542:/Library/DaisyToolchain/0.2.0/arm/arm-none-eabi/include/c++/10.3.1/bits/stl_algobase.h ****    *  @ingroup mutating_algorithms
 543:/Library/DaisyToolchain/0.2.0/arm/arm-none-eabi/include/c++/10.3.1/bits/stl_algobase.h ****    *  @param  __first  An input iterator.
 544:/Library/DaisyToolchain/0.2.0/arm/arm-none-eabi/include/c++/10.3.1/bits/stl_algobase.h ****    *  @param  __last   An input iterator.
 545:/Library/DaisyToolchain/0.2.0/arm/arm-none-eabi/include/c++/10.3.1/bits/stl_algobase.h ****    *  @param  __result An output iterator.
 546:/Library/DaisyToolchain/0.2.0/arm/arm-none-eabi/include/c++/10.3.1/bits/stl_algobase.h ****    *  @return   result + (last - first)
 547:/Library/DaisyToolchain/0.2.0/arm/arm-none-eabi/include/c++/10.3.1/bits/stl_algobase.h ****    *
 548:/Library/DaisyToolchain/0.2.0/arm/arm-none-eabi/include/c++/10.3.1/bits/stl_algobase.h ****    *  This inline function will boil down to a call to @c memmove whenever
 549:/Library/DaisyToolchain/0.2.0/arm/arm-none-eabi/include/c++/10.3.1/bits/stl_algobase.h ****    *  possible.  Failing that, if random access iterators are passed, then the
 550:/Library/DaisyToolchain/0.2.0/arm/arm-none-eabi/include/c++/10.3.1/bits/stl_algobase.h ****    *  loop count will be known (and therefore a candidate for compiler
 551:/Library/DaisyToolchain/0.2.0/arm/arm-none-eabi/include/c++/10.3.1/bits/stl_algobase.h ****    *  optimizations such as unrolling).  Result may not be contained within
 552:/Library/DaisyToolchain/0.2.0/arm/arm-none-eabi/include/c++/10.3.1/bits/stl_algobase.h ****    *  [first,last); the copy_backward function should be used instead.
 553:/Library/DaisyToolchain/0.2.0/arm/arm-none-eabi/include/c++/10.3.1/bits/stl_algobase.h ****    *
 554:/Library/DaisyToolchain/0.2.0/arm/arm-none-eabi/include/c++/10.3.1/bits/stl_algobase.h ****    *  Note that the end of the output range is permitted to be contained
 555:/Library/DaisyToolchain/0.2.0/arm/arm-none-eabi/include/c++/10.3.1/bits/stl_algobase.h ****    *  within [first,last).
 556:/Library/DaisyToolchain/0.2.0/arm/arm-none-eabi/include/c++/10.3.1/bits/stl_algobase.h ****   */
 557:/Library/DaisyToolchain/0.2.0/arm/arm-none-eabi/include/c++/10.3.1/bits/stl_algobase.h ****   template<typename _II, typename _OI>
 558:/Library/DaisyToolchain/0.2.0/arm/arm-none-eabi/include/c++/10.3.1/bits/stl_algobase.h ****     _GLIBCXX20_CONSTEXPR
 559:/Library/DaisyToolchain/0.2.0/arm/arm-none-eabi/include/c++/10.3.1/bits/stl_algobase.h ****     inline _OI
 560:/Library/DaisyToolchain/0.2.0/arm/arm-none-eabi/include/c++/10.3.1/bits/stl_algobase.h ****     copy(_II __first, _II __last, _OI __result)
 561:/Library/DaisyToolchain/0.2.0/arm/arm-none-eabi/include/c++/10.3.1/bits/stl_algobase.h ****     {
 562:/Library/DaisyToolchain/0.2.0/arm/arm-none-eabi/include/c++/10.3.1/bits/stl_algobase.h ****       // concept requirements
 563:/Library/DaisyToolchain/0.2.0/arm/arm-none-eabi/include/c++/10.3.1/bits/stl_algobase.h ****       __glibcxx_function_requires(_InputIteratorConcept<_II>)
 564:/Library/DaisyToolchain/0.2.0/arm/arm-none-eabi/include/c++/10.3.1/bits/stl_algobase.h ****       __glibcxx_function_requires(_OutputIteratorConcept<_OI,
 565:/Library/DaisyToolchain/0.2.0/arm/arm-none-eabi/include/c++/10.3.1/bits/stl_algobase.h **** 	    typename iterator_traits<_II>::value_type>)
ARM GAS  /var/folders/1y/_321xjh9623c014x9_qw12rr0000gn/T//ccXZVGQV.s 			page 56


 566:/Library/DaisyToolchain/0.2.0/arm/arm-none-eabi/include/c++/10.3.1/bits/stl_algobase.h ****       __glibcxx_requires_can_increment_range(__first, __last, __result);
 567:/Library/DaisyToolchain/0.2.0/arm/arm-none-eabi/include/c++/10.3.1/bits/stl_algobase.h **** 
 568:/Library/DaisyToolchain/0.2.0/arm/arm-none-eabi/include/c++/10.3.1/bits/stl_algobase.h ****       return std::__copy_move_a<__is_move_iterator<_II>::__value>
 569:/Library/DaisyToolchain/0.2.0/arm/arm-none-eabi/include/c++/10.3.1/bits/stl_algobase.h **** 	     (std::__miter_base(__first), std::__miter_base(__last), __result);
 570:/Library/DaisyToolchain/0.2.0/arm/arm-none-eabi/include/c++/10.3.1/bits/stl_algobase.h ****     }
 571:/Library/DaisyToolchain/0.2.0/arm/arm-none-eabi/include/c++/10.3.1/bits/stl_algobase.h **** 
 572:/Library/DaisyToolchain/0.2.0/arm/arm-none-eabi/include/c++/10.3.1/bits/stl_algobase.h **** #if __cplusplus >= 201103L
 573:/Library/DaisyToolchain/0.2.0/arm/arm-none-eabi/include/c++/10.3.1/bits/stl_algobase.h ****   /**
 574:/Library/DaisyToolchain/0.2.0/arm/arm-none-eabi/include/c++/10.3.1/bits/stl_algobase.h ****    *  @brief Moves the range [first,last) into result.
 575:/Library/DaisyToolchain/0.2.0/arm/arm-none-eabi/include/c++/10.3.1/bits/stl_algobase.h ****    *  @ingroup mutating_algorithms
 576:/Library/DaisyToolchain/0.2.0/arm/arm-none-eabi/include/c++/10.3.1/bits/stl_algobase.h ****    *  @param  __first  An input iterator.
 577:/Library/DaisyToolchain/0.2.0/arm/arm-none-eabi/include/c++/10.3.1/bits/stl_algobase.h ****    *  @param  __last   An input iterator.
 578:/Library/DaisyToolchain/0.2.0/arm/arm-none-eabi/include/c++/10.3.1/bits/stl_algobase.h ****    *  @param  __result An output iterator.
 579:/Library/DaisyToolchain/0.2.0/arm/arm-none-eabi/include/c++/10.3.1/bits/stl_algobase.h ****    *  @return   result + (last - first)
 580:/Library/DaisyToolchain/0.2.0/arm/arm-none-eabi/include/c++/10.3.1/bits/stl_algobase.h ****    *
 581:/Library/DaisyToolchain/0.2.0/arm/arm-none-eabi/include/c++/10.3.1/bits/stl_algobase.h ****    *  This inline function will boil down to a call to @c memmove whenever
 582:/Library/DaisyToolchain/0.2.0/arm/arm-none-eabi/include/c++/10.3.1/bits/stl_algobase.h ****    *  possible.  Failing that, if random access iterators are passed, then the
 583:/Library/DaisyToolchain/0.2.0/arm/arm-none-eabi/include/c++/10.3.1/bits/stl_algobase.h ****    *  loop count will be known (and therefore a candidate for compiler
 584:/Library/DaisyToolchain/0.2.0/arm/arm-none-eabi/include/c++/10.3.1/bits/stl_algobase.h ****    *  optimizations such as unrolling).  Result may not be contained within
 585:/Library/DaisyToolchain/0.2.0/arm/arm-none-eabi/include/c++/10.3.1/bits/stl_algobase.h ****    *  [first,last); the move_backward function should be used instead.
 586:/Library/DaisyToolchain/0.2.0/arm/arm-none-eabi/include/c++/10.3.1/bits/stl_algobase.h ****    *
 587:/Library/DaisyToolchain/0.2.0/arm/arm-none-eabi/include/c++/10.3.1/bits/stl_algobase.h ****    *  Note that the end of the output range is permitted to be contained
 588:/Library/DaisyToolchain/0.2.0/arm/arm-none-eabi/include/c++/10.3.1/bits/stl_algobase.h ****    *  within [first,last).
 589:/Library/DaisyToolchain/0.2.0/arm/arm-none-eabi/include/c++/10.3.1/bits/stl_algobase.h ****   */
 590:/Library/DaisyToolchain/0.2.0/arm/arm-none-eabi/include/c++/10.3.1/bits/stl_algobase.h ****   template<typename _II, typename _OI>
 591:/Library/DaisyToolchain/0.2.0/arm/arm-none-eabi/include/c++/10.3.1/bits/stl_algobase.h ****     _GLIBCXX20_CONSTEXPR
 592:/Library/DaisyToolchain/0.2.0/arm/arm-none-eabi/include/c++/10.3.1/bits/stl_algobase.h ****     inline _OI
 593:/Library/DaisyToolchain/0.2.0/arm/arm-none-eabi/include/c++/10.3.1/bits/stl_algobase.h ****     move(_II __first, _II __last, _OI __result)
 594:/Library/DaisyToolchain/0.2.0/arm/arm-none-eabi/include/c++/10.3.1/bits/stl_algobase.h ****     {
 595:/Library/DaisyToolchain/0.2.0/arm/arm-none-eabi/include/c++/10.3.1/bits/stl_algobase.h ****       // concept requirements
 596:/Library/DaisyToolchain/0.2.0/arm/arm-none-eabi/include/c++/10.3.1/bits/stl_algobase.h ****       __glibcxx_function_requires(_InputIteratorConcept<_II>)
 597:/Library/DaisyToolchain/0.2.0/arm/arm-none-eabi/include/c++/10.3.1/bits/stl_algobase.h ****       __glibcxx_function_requires(_OutputIteratorConcept<_OI,
 598:/Library/DaisyToolchain/0.2.0/arm/arm-none-eabi/include/c++/10.3.1/bits/stl_algobase.h **** 	    typename iterator_traits<_II>::value_type>)
 599:/Library/DaisyToolchain/0.2.0/arm/arm-none-eabi/include/c++/10.3.1/bits/stl_algobase.h ****       __glibcxx_requires_can_increment_range(__first, __last, __result);
 600:/Library/DaisyToolchain/0.2.0/arm/arm-none-eabi/include/c++/10.3.1/bits/stl_algobase.h **** 
 601:/Library/DaisyToolchain/0.2.0/arm/arm-none-eabi/include/c++/10.3.1/bits/stl_algobase.h ****       return std::__copy_move_a<true>(std::__miter_base(__first),
 602:/Library/DaisyToolchain/0.2.0/arm/arm-none-eabi/include/c++/10.3.1/bits/stl_algobase.h **** 				      std::__miter_base(__last), __result);
 603:/Library/DaisyToolchain/0.2.0/arm/arm-none-eabi/include/c++/10.3.1/bits/stl_algobase.h ****     }
 604:/Library/DaisyToolchain/0.2.0/arm/arm-none-eabi/include/c++/10.3.1/bits/stl_algobase.h **** 
 605:/Library/DaisyToolchain/0.2.0/arm/arm-none-eabi/include/c++/10.3.1/bits/stl_algobase.h **** #define _GLIBCXX_MOVE3(_Tp, _Up, _Vp) std::move(_Tp, _Up, _Vp)
 606:/Library/DaisyToolchain/0.2.0/arm/arm-none-eabi/include/c++/10.3.1/bits/stl_algobase.h **** #else
 607:/Library/DaisyToolchain/0.2.0/arm/arm-none-eabi/include/c++/10.3.1/bits/stl_algobase.h **** #define _GLIBCXX_MOVE3(_Tp, _Up, _Vp) std::copy(_Tp, _Up, _Vp)
 608:/Library/DaisyToolchain/0.2.0/arm/arm-none-eabi/include/c++/10.3.1/bits/stl_algobase.h **** #endif
 609:/Library/DaisyToolchain/0.2.0/arm/arm-none-eabi/include/c++/10.3.1/bits/stl_algobase.h **** 
 610:/Library/DaisyToolchain/0.2.0/arm/arm-none-eabi/include/c++/10.3.1/bits/stl_algobase.h ****   template<bool _IsMove, bool _IsSimple, typename _Category>
 611:/Library/DaisyToolchain/0.2.0/arm/arm-none-eabi/include/c++/10.3.1/bits/stl_algobase.h ****     struct __copy_move_backward
 612:/Library/DaisyToolchain/0.2.0/arm/arm-none-eabi/include/c++/10.3.1/bits/stl_algobase.h ****     {
 613:/Library/DaisyToolchain/0.2.0/arm/arm-none-eabi/include/c++/10.3.1/bits/stl_algobase.h ****       template<typename _BI1, typename _BI2>
 614:/Library/DaisyToolchain/0.2.0/arm/arm-none-eabi/include/c++/10.3.1/bits/stl_algobase.h **** 	_GLIBCXX20_CONSTEXPR
 615:/Library/DaisyToolchain/0.2.0/arm/arm-none-eabi/include/c++/10.3.1/bits/stl_algobase.h **** 	static _BI2
 616:/Library/DaisyToolchain/0.2.0/arm/arm-none-eabi/include/c++/10.3.1/bits/stl_algobase.h **** 	__copy_move_b(_BI1 __first, _BI1 __last, _BI2 __result)
 617:/Library/DaisyToolchain/0.2.0/arm/arm-none-eabi/include/c++/10.3.1/bits/stl_algobase.h **** 	{
 618:/Library/DaisyToolchain/0.2.0/arm/arm-none-eabi/include/c++/10.3.1/bits/stl_algobase.h **** 	  while (__first != __last)
 619:/Library/DaisyToolchain/0.2.0/arm/arm-none-eabi/include/c++/10.3.1/bits/stl_algobase.h **** 	    *--__result = *--__last;
 620:/Library/DaisyToolchain/0.2.0/arm/arm-none-eabi/include/c++/10.3.1/bits/stl_algobase.h **** 	  return __result;
 621:/Library/DaisyToolchain/0.2.0/arm/arm-none-eabi/include/c++/10.3.1/bits/stl_algobase.h **** 	}
 622:/Library/DaisyToolchain/0.2.0/arm/arm-none-eabi/include/c++/10.3.1/bits/stl_algobase.h ****     };
ARM GAS  /var/folders/1y/_321xjh9623c014x9_qw12rr0000gn/T//ccXZVGQV.s 			page 57


 623:/Library/DaisyToolchain/0.2.0/arm/arm-none-eabi/include/c++/10.3.1/bits/stl_algobase.h **** 
 624:/Library/DaisyToolchain/0.2.0/arm/arm-none-eabi/include/c++/10.3.1/bits/stl_algobase.h **** #if __cplusplus >= 201103L
 625:/Library/DaisyToolchain/0.2.0/arm/arm-none-eabi/include/c++/10.3.1/bits/stl_algobase.h ****   template<typename _Category>
 626:/Library/DaisyToolchain/0.2.0/arm/arm-none-eabi/include/c++/10.3.1/bits/stl_algobase.h ****     struct __copy_move_backward<true, false, _Category>
 627:/Library/DaisyToolchain/0.2.0/arm/arm-none-eabi/include/c++/10.3.1/bits/stl_algobase.h ****     {
 628:/Library/DaisyToolchain/0.2.0/arm/arm-none-eabi/include/c++/10.3.1/bits/stl_algobase.h ****       template<typename _BI1, typename _BI2>
 629:/Library/DaisyToolchain/0.2.0/arm/arm-none-eabi/include/c++/10.3.1/bits/stl_algobase.h **** 	_GLIBCXX20_CONSTEXPR
 630:/Library/DaisyToolchain/0.2.0/arm/arm-none-eabi/include/c++/10.3.1/bits/stl_algobase.h **** 	static _BI2
 631:/Library/DaisyToolchain/0.2.0/arm/arm-none-eabi/include/c++/10.3.1/bits/stl_algobase.h **** 	__copy_move_b(_BI1 __first, _BI1 __last, _BI2 __result)
 632:/Library/DaisyToolchain/0.2.0/arm/arm-none-eabi/include/c++/10.3.1/bits/stl_algobase.h **** 	{
 633:/Library/DaisyToolchain/0.2.0/arm/arm-none-eabi/include/c++/10.3.1/bits/stl_algobase.h **** 	  while (__first != __last)
 634:/Library/DaisyToolchain/0.2.0/arm/arm-none-eabi/include/c++/10.3.1/bits/stl_algobase.h **** 	    *--__result = std::move(*--__last);
 635:/Library/DaisyToolchain/0.2.0/arm/arm-none-eabi/include/c++/10.3.1/bits/stl_algobase.h **** 	  return __result;
 636:/Library/DaisyToolchain/0.2.0/arm/arm-none-eabi/include/c++/10.3.1/bits/stl_algobase.h **** 	}
 637:/Library/DaisyToolchain/0.2.0/arm/arm-none-eabi/include/c++/10.3.1/bits/stl_algobase.h ****     };
 638:/Library/DaisyToolchain/0.2.0/arm/arm-none-eabi/include/c++/10.3.1/bits/stl_algobase.h **** #endif
 639:/Library/DaisyToolchain/0.2.0/arm/arm-none-eabi/include/c++/10.3.1/bits/stl_algobase.h **** 
 640:/Library/DaisyToolchain/0.2.0/arm/arm-none-eabi/include/c++/10.3.1/bits/stl_algobase.h ****   template<>
 641:/Library/DaisyToolchain/0.2.0/arm/arm-none-eabi/include/c++/10.3.1/bits/stl_algobase.h ****     struct __copy_move_backward<false, false, random_access_iterator_tag>
 642:/Library/DaisyToolchain/0.2.0/arm/arm-none-eabi/include/c++/10.3.1/bits/stl_algobase.h ****     {
 643:/Library/DaisyToolchain/0.2.0/arm/arm-none-eabi/include/c++/10.3.1/bits/stl_algobase.h ****       template<typename _BI1, typename _BI2>
 644:/Library/DaisyToolchain/0.2.0/arm/arm-none-eabi/include/c++/10.3.1/bits/stl_algobase.h **** 	_GLIBCXX20_CONSTEXPR
 645:/Library/DaisyToolchain/0.2.0/arm/arm-none-eabi/include/c++/10.3.1/bits/stl_algobase.h **** 	static _BI2
 646:/Library/DaisyToolchain/0.2.0/arm/arm-none-eabi/include/c++/10.3.1/bits/stl_algobase.h **** 	__copy_move_b(_BI1 __first, _BI1 __last, _BI2 __result)
 647:/Library/DaisyToolchain/0.2.0/arm/arm-none-eabi/include/c++/10.3.1/bits/stl_algobase.h **** 	{
 648:/Library/DaisyToolchain/0.2.0/arm/arm-none-eabi/include/c++/10.3.1/bits/stl_algobase.h **** 	  typename iterator_traits<_BI1>::difference_type
 649:/Library/DaisyToolchain/0.2.0/arm/arm-none-eabi/include/c++/10.3.1/bits/stl_algobase.h **** 	    __n = __last - __first;
 650:/Library/DaisyToolchain/0.2.0/arm/arm-none-eabi/include/c++/10.3.1/bits/stl_algobase.h **** 	  for (; __n > 0; --__n)
 651:/Library/DaisyToolchain/0.2.0/arm/arm-none-eabi/include/c++/10.3.1/bits/stl_algobase.h **** 	    *--__result = *--__last;
 652:/Library/DaisyToolchain/0.2.0/arm/arm-none-eabi/include/c++/10.3.1/bits/stl_algobase.h **** 	  return __result;
 653:/Library/DaisyToolchain/0.2.0/arm/arm-none-eabi/include/c++/10.3.1/bits/stl_algobase.h **** 	}
 654:/Library/DaisyToolchain/0.2.0/arm/arm-none-eabi/include/c++/10.3.1/bits/stl_algobase.h ****     };
 655:/Library/DaisyToolchain/0.2.0/arm/arm-none-eabi/include/c++/10.3.1/bits/stl_algobase.h **** 
 656:/Library/DaisyToolchain/0.2.0/arm/arm-none-eabi/include/c++/10.3.1/bits/stl_algobase.h **** #if __cplusplus >= 201103L
 657:/Library/DaisyToolchain/0.2.0/arm/arm-none-eabi/include/c++/10.3.1/bits/stl_algobase.h ****   template<>
 658:/Library/DaisyToolchain/0.2.0/arm/arm-none-eabi/include/c++/10.3.1/bits/stl_algobase.h ****     struct __copy_move_backward<true, false, random_access_iterator_tag>
 659:/Library/DaisyToolchain/0.2.0/arm/arm-none-eabi/include/c++/10.3.1/bits/stl_algobase.h ****     {
 660:/Library/DaisyToolchain/0.2.0/arm/arm-none-eabi/include/c++/10.3.1/bits/stl_algobase.h ****       template<typename _BI1, typename _BI2>
 661:/Library/DaisyToolchain/0.2.0/arm/arm-none-eabi/include/c++/10.3.1/bits/stl_algobase.h **** 	_GLIBCXX20_CONSTEXPR
 662:/Library/DaisyToolchain/0.2.0/arm/arm-none-eabi/include/c++/10.3.1/bits/stl_algobase.h **** 	static _BI2
 663:/Library/DaisyToolchain/0.2.0/arm/arm-none-eabi/include/c++/10.3.1/bits/stl_algobase.h **** 	__copy_move_b(_BI1 __first, _BI1 __last, _BI2 __result)
 664:/Library/DaisyToolchain/0.2.0/arm/arm-none-eabi/include/c++/10.3.1/bits/stl_algobase.h **** 	{
 665:/Library/DaisyToolchain/0.2.0/arm/arm-none-eabi/include/c++/10.3.1/bits/stl_algobase.h **** 	  typename iterator_traits<_BI1>::difference_type
 666:/Library/DaisyToolchain/0.2.0/arm/arm-none-eabi/include/c++/10.3.1/bits/stl_algobase.h **** 	    __n = __last - __first;
 667:/Library/DaisyToolchain/0.2.0/arm/arm-none-eabi/include/c++/10.3.1/bits/stl_algobase.h **** 	  for (; __n > 0; --__n)
 668:/Library/DaisyToolchain/0.2.0/arm/arm-none-eabi/include/c++/10.3.1/bits/stl_algobase.h **** 	    *--__result = std::move(*--__last);
 669:/Library/DaisyToolchain/0.2.0/arm/arm-none-eabi/include/c++/10.3.1/bits/stl_algobase.h **** 	  return __result;
 670:/Library/DaisyToolchain/0.2.0/arm/arm-none-eabi/include/c++/10.3.1/bits/stl_algobase.h **** 	}
 671:/Library/DaisyToolchain/0.2.0/arm/arm-none-eabi/include/c++/10.3.1/bits/stl_algobase.h ****     };
 672:/Library/DaisyToolchain/0.2.0/arm/arm-none-eabi/include/c++/10.3.1/bits/stl_algobase.h **** #endif
 673:/Library/DaisyToolchain/0.2.0/arm/arm-none-eabi/include/c++/10.3.1/bits/stl_algobase.h **** 
 674:/Library/DaisyToolchain/0.2.0/arm/arm-none-eabi/include/c++/10.3.1/bits/stl_algobase.h ****   template<bool _IsMove>
 675:/Library/DaisyToolchain/0.2.0/arm/arm-none-eabi/include/c++/10.3.1/bits/stl_algobase.h ****     struct __copy_move_backward<_IsMove, true, random_access_iterator_tag>
 676:/Library/DaisyToolchain/0.2.0/arm/arm-none-eabi/include/c++/10.3.1/bits/stl_algobase.h ****     {
 677:/Library/DaisyToolchain/0.2.0/arm/arm-none-eabi/include/c++/10.3.1/bits/stl_algobase.h ****       template<typename _Tp>
 678:/Library/DaisyToolchain/0.2.0/arm/arm-none-eabi/include/c++/10.3.1/bits/stl_algobase.h **** 	_GLIBCXX20_CONSTEXPR
 679:/Library/DaisyToolchain/0.2.0/arm/arm-none-eabi/include/c++/10.3.1/bits/stl_algobase.h **** 	static _Tp*
ARM GAS  /var/folders/1y/_321xjh9623c014x9_qw12rr0000gn/T//ccXZVGQV.s 			page 58


 680:/Library/DaisyToolchain/0.2.0/arm/arm-none-eabi/include/c++/10.3.1/bits/stl_algobase.h **** 	__copy_move_b(const _Tp* __first, const _Tp* __last, _Tp* __result)
 681:/Library/DaisyToolchain/0.2.0/arm/arm-none-eabi/include/c++/10.3.1/bits/stl_algobase.h **** 	{
 682:/Library/DaisyToolchain/0.2.0/arm/arm-none-eabi/include/c++/10.3.1/bits/stl_algobase.h **** #if __cplusplus >= 201103L
 683:/Library/DaisyToolchain/0.2.0/arm/arm-none-eabi/include/c++/10.3.1/bits/stl_algobase.h **** 	  using __assignable = conditional<_IsMove,
 684:/Library/DaisyToolchain/0.2.0/arm/arm-none-eabi/include/c++/10.3.1/bits/stl_algobase.h **** 					   is_move_assignable<_Tp>,
 685:/Library/DaisyToolchain/0.2.0/arm/arm-none-eabi/include/c++/10.3.1/bits/stl_algobase.h **** 					   is_copy_assignable<_Tp>>;
 686:/Library/DaisyToolchain/0.2.0/arm/arm-none-eabi/include/c++/10.3.1/bits/stl_algobase.h **** 	  // trivial types can have deleted assignment
 687:/Library/DaisyToolchain/0.2.0/arm/arm-none-eabi/include/c++/10.3.1/bits/stl_algobase.h **** 	  static_assert( __assignable::type::value, "type is not assignable" );
 688:/Library/DaisyToolchain/0.2.0/arm/arm-none-eabi/include/c++/10.3.1/bits/stl_algobase.h **** #endif
 689:/Library/DaisyToolchain/0.2.0/arm/arm-none-eabi/include/c++/10.3.1/bits/stl_algobase.h **** 	  const ptrdiff_t _Num = __last - __first;
 690:/Library/DaisyToolchain/0.2.0/arm/arm-none-eabi/include/c++/10.3.1/bits/stl_algobase.h **** 	  if (_Num)
 691:/Library/DaisyToolchain/0.2.0/arm/arm-none-eabi/include/c++/10.3.1/bits/stl_algobase.h **** 	    __builtin_memmove(__result - _Num, __first, sizeof(_Tp) * _Num);
 692:/Library/DaisyToolchain/0.2.0/arm/arm-none-eabi/include/c++/10.3.1/bits/stl_algobase.h **** 	  return __result - _Num;
 693:/Library/DaisyToolchain/0.2.0/arm/arm-none-eabi/include/c++/10.3.1/bits/stl_algobase.h **** 	}
 694:/Library/DaisyToolchain/0.2.0/arm/arm-none-eabi/include/c++/10.3.1/bits/stl_algobase.h ****     };
 695:/Library/DaisyToolchain/0.2.0/arm/arm-none-eabi/include/c++/10.3.1/bits/stl_algobase.h **** 
 696:/Library/DaisyToolchain/0.2.0/arm/arm-none-eabi/include/c++/10.3.1/bits/stl_algobase.h ****   template<bool _IsMove, typename _BI1, typename _BI2>
 697:/Library/DaisyToolchain/0.2.0/arm/arm-none-eabi/include/c++/10.3.1/bits/stl_algobase.h ****     _GLIBCXX20_CONSTEXPR
 698:/Library/DaisyToolchain/0.2.0/arm/arm-none-eabi/include/c++/10.3.1/bits/stl_algobase.h ****     inline _BI2
 699:/Library/DaisyToolchain/0.2.0/arm/arm-none-eabi/include/c++/10.3.1/bits/stl_algobase.h ****     __copy_move_backward_a2(_BI1 __first, _BI1 __last, _BI2 __result)
 700:/Library/DaisyToolchain/0.2.0/arm/arm-none-eabi/include/c++/10.3.1/bits/stl_algobase.h ****     {
 701:/Library/DaisyToolchain/0.2.0/arm/arm-none-eabi/include/c++/10.3.1/bits/stl_algobase.h ****       typedef typename iterator_traits<_BI1>::iterator_category _Category;
 702:/Library/DaisyToolchain/0.2.0/arm/arm-none-eabi/include/c++/10.3.1/bits/stl_algobase.h **** #ifdef __cpp_lib_is_constant_evaluated
 703:/Library/DaisyToolchain/0.2.0/arm/arm-none-eabi/include/c++/10.3.1/bits/stl_algobase.h ****       if (std::is_constant_evaluated())
 704:/Library/DaisyToolchain/0.2.0/arm/arm-none-eabi/include/c++/10.3.1/bits/stl_algobase.h **** 	return std::__copy_move_backward<_IsMove, false, _Category>::
 705:/Library/DaisyToolchain/0.2.0/arm/arm-none-eabi/include/c++/10.3.1/bits/stl_algobase.h **** 	  __copy_move_b(__first, __last, __result);
 706:/Library/DaisyToolchain/0.2.0/arm/arm-none-eabi/include/c++/10.3.1/bits/stl_algobase.h **** #endif
 707:/Library/DaisyToolchain/0.2.0/arm/arm-none-eabi/include/c++/10.3.1/bits/stl_algobase.h ****       return std::__copy_move_backward<_IsMove,
 708:/Library/DaisyToolchain/0.2.0/arm/arm-none-eabi/include/c++/10.3.1/bits/stl_algobase.h **** 				       __memcpyable<_BI2, _BI1>::__value,
 709:/Library/DaisyToolchain/0.2.0/arm/arm-none-eabi/include/c++/10.3.1/bits/stl_algobase.h **** 				       _Category>::__copy_move_b(__first,
 710:/Library/DaisyToolchain/0.2.0/arm/arm-none-eabi/include/c++/10.3.1/bits/stl_algobase.h **** 								 __last,
 711:/Library/DaisyToolchain/0.2.0/arm/arm-none-eabi/include/c++/10.3.1/bits/stl_algobase.h **** 								 __result);
 712:/Library/DaisyToolchain/0.2.0/arm/arm-none-eabi/include/c++/10.3.1/bits/stl_algobase.h ****     }
 713:/Library/DaisyToolchain/0.2.0/arm/arm-none-eabi/include/c++/10.3.1/bits/stl_algobase.h **** 
 714:/Library/DaisyToolchain/0.2.0/arm/arm-none-eabi/include/c++/10.3.1/bits/stl_algobase.h ****   template<bool _IsMove, typename _BI1, typename _BI2>
 715:/Library/DaisyToolchain/0.2.0/arm/arm-none-eabi/include/c++/10.3.1/bits/stl_algobase.h ****     _GLIBCXX20_CONSTEXPR
 716:/Library/DaisyToolchain/0.2.0/arm/arm-none-eabi/include/c++/10.3.1/bits/stl_algobase.h ****     inline _BI2
 717:/Library/DaisyToolchain/0.2.0/arm/arm-none-eabi/include/c++/10.3.1/bits/stl_algobase.h ****     __copy_move_backward_a1(_BI1 __first, _BI1 __last, _BI2 __result)
 718:/Library/DaisyToolchain/0.2.0/arm/arm-none-eabi/include/c++/10.3.1/bits/stl_algobase.h ****     { return std::__copy_move_backward_a2<_IsMove>(__first, __last, __result); }
 719:/Library/DaisyToolchain/0.2.0/arm/arm-none-eabi/include/c++/10.3.1/bits/stl_algobase.h **** 
 720:/Library/DaisyToolchain/0.2.0/arm/arm-none-eabi/include/c++/10.3.1/bits/stl_algobase.h ****   template<bool _IsMove,
 721:/Library/DaisyToolchain/0.2.0/arm/arm-none-eabi/include/c++/10.3.1/bits/stl_algobase.h **** 	   typename _Tp, typename _Ref, typename _Ptr, typename _OI>
 722:/Library/DaisyToolchain/0.2.0/arm/arm-none-eabi/include/c++/10.3.1/bits/stl_algobase.h ****     _OI
 723:/Library/DaisyToolchain/0.2.0/arm/arm-none-eabi/include/c++/10.3.1/bits/stl_algobase.h ****     __copy_move_backward_a1(_GLIBCXX_STD_C::_Deque_iterator<_Tp, _Ref, _Ptr>,
 724:/Library/DaisyToolchain/0.2.0/arm/arm-none-eabi/include/c++/10.3.1/bits/stl_algobase.h **** 			    _GLIBCXX_STD_C::_Deque_iterator<_Tp, _Ref, _Ptr>,
 725:/Library/DaisyToolchain/0.2.0/arm/arm-none-eabi/include/c++/10.3.1/bits/stl_algobase.h **** 			    _OI);
 726:/Library/DaisyToolchain/0.2.0/arm/arm-none-eabi/include/c++/10.3.1/bits/stl_algobase.h **** 
 727:/Library/DaisyToolchain/0.2.0/arm/arm-none-eabi/include/c++/10.3.1/bits/stl_algobase.h ****   template<bool _IsMove,
 728:/Library/DaisyToolchain/0.2.0/arm/arm-none-eabi/include/c++/10.3.1/bits/stl_algobase.h **** 	   typename _ITp, typename _IRef, typename _IPtr, typename _OTp>
 729:/Library/DaisyToolchain/0.2.0/arm/arm-none-eabi/include/c++/10.3.1/bits/stl_algobase.h ****     _GLIBCXX_STD_C::_Deque_iterator<_OTp, _OTp&, _OTp*>
 730:/Library/DaisyToolchain/0.2.0/arm/arm-none-eabi/include/c++/10.3.1/bits/stl_algobase.h ****     __copy_move_backward_a1(
 731:/Library/DaisyToolchain/0.2.0/arm/arm-none-eabi/include/c++/10.3.1/bits/stl_algobase.h **** 			_GLIBCXX_STD_C::_Deque_iterator<_ITp, _IRef, _IPtr>,
 732:/Library/DaisyToolchain/0.2.0/arm/arm-none-eabi/include/c++/10.3.1/bits/stl_algobase.h **** 			_GLIBCXX_STD_C::_Deque_iterator<_ITp, _IRef, _IPtr>,
 733:/Library/DaisyToolchain/0.2.0/arm/arm-none-eabi/include/c++/10.3.1/bits/stl_algobase.h **** 			_GLIBCXX_STD_C::_Deque_iterator<_OTp, _OTp&, _OTp*>);
 734:/Library/DaisyToolchain/0.2.0/arm/arm-none-eabi/include/c++/10.3.1/bits/stl_algobase.h **** 
 735:/Library/DaisyToolchain/0.2.0/arm/arm-none-eabi/include/c++/10.3.1/bits/stl_algobase.h ****   template<bool _IsMove, typename _II, typename _Tp>
 736:/Library/DaisyToolchain/0.2.0/arm/arm-none-eabi/include/c++/10.3.1/bits/stl_algobase.h ****     typename __gnu_cxx::__enable_if<
ARM GAS  /var/folders/1y/_321xjh9623c014x9_qw12rr0000gn/T//ccXZVGQV.s 			page 59


 737:/Library/DaisyToolchain/0.2.0/arm/arm-none-eabi/include/c++/10.3.1/bits/stl_algobase.h ****       __is_random_access_iter<_II>::__value,
 738:/Library/DaisyToolchain/0.2.0/arm/arm-none-eabi/include/c++/10.3.1/bits/stl_algobase.h ****       _GLIBCXX_STD_C::_Deque_iterator<_Tp, _Tp&, _Tp*> >::__type
 739:/Library/DaisyToolchain/0.2.0/arm/arm-none-eabi/include/c++/10.3.1/bits/stl_algobase.h ****     __copy_move_backward_a1(_II, _II,
 740:/Library/DaisyToolchain/0.2.0/arm/arm-none-eabi/include/c++/10.3.1/bits/stl_algobase.h **** 			    _GLIBCXX_STD_C::_Deque_iterator<_Tp, _Tp&, _Tp*>);
 741:/Library/DaisyToolchain/0.2.0/arm/arm-none-eabi/include/c++/10.3.1/bits/stl_algobase.h **** 
 742:/Library/DaisyToolchain/0.2.0/arm/arm-none-eabi/include/c++/10.3.1/bits/stl_algobase.h ****   template<bool _IsMove, typename _II, typename _OI>
 743:/Library/DaisyToolchain/0.2.0/arm/arm-none-eabi/include/c++/10.3.1/bits/stl_algobase.h ****     _GLIBCXX20_CONSTEXPR
 744:/Library/DaisyToolchain/0.2.0/arm/arm-none-eabi/include/c++/10.3.1/bits/stl_algobase.h ****     inline _OI
 745:/Library/DaisyToolchain/0.2.0/arm/arm-none-eabi/include/c++/10.3.1/bits/stl_algobase.h ****     __copy_move_backward_a(_II __first, _II __last, _OI __result)
 746:/Library/DaisyToolchain/0.2.0/arm/arm-none-eabi/include/c++/10.3.1/bits/stl_algobase.h ****     {
 747:/Library/DaisyToolchain/0.2.0/arm/arm-none-eabi/include/c++/10.3.1/bits/stl_algobase.h ****       return std::__niter_wrap(__result,
 748:/Library/DaisyToolchain/0.2.0/arm/arm-none-eabi/include/c++/10.3.1/bits/stl_algobase.h **** 		std::__copy_move_backward_a1<_IsMove>
 749:/Library/DaisyToolchain/0.2.0/arm/arm-none-eabi/include/c++/10.3.1/bits/stl_algobase.h **** 		  (std::__niter_base(__first), std::__niter_base(__last),
 750:/Library/DaisyToolchain/0.2.0/arm/arm-none-eabi/include/c++/10.3.1/bits/stl_algobase.h **** 		   std::__niter_base(__result)));
 751:/Library/DaisyToolchain/0.2.0/arm/arm-none-eabi/include/c++/10.3.1/bits/stl_algobase.h ****     }
 752:/Library/DaisyToolchain/0.2.0/arm/arm-none-eabi/include/c++/10.3.1/bits/stl_algobase.h **** 
 753:/Library/DaisyToolchain/0.2.0/arm/arm-none-eabi/include/c++/10.3.1/bits/stl_algobase.h ****   template<bool _IsMove,
 754:/Library/DaisyToolchain/0.2.0/arm/arm-none-eabi/include/c++/10.3.1/bits/stl_algobase.h **** 	   typename _Ite, typename _Seq, typename _Cat, typename _OI>
 755:/Library/DaisyToolchain/0.2.0/arm/arm-none-eabi/include/c++/10.3.1/bits/stl_algobase.h ****     _OI
 756:/Library/DaisyToolchain/0.2.0/arm/arm-none-eabi/include/c++/10.3.1/bits/stl_algobase.h ****     __copy_move_backward_a(
 757:/Library/DaisyToolchain/0.2.0/arm/arm-none-eabi/include/c++/10.3.1/bits/stl_algobase.h **** 		const ::__gnu_debug::_Safe_iterator<_Ite, _Seq, _Cat>&,
 758:/Library/DaisyToolchain/0.2.0/arm/arm-none-eabi/include/c++/10.3.1/bits/stl_algobase.h **** 		const ::__gnu_debug::_Safe_iterator<_Ite, _Seq, _Cat>&,
 759:/Library/DaisyToolchain/0.2.0/arm/arm-none-eabi/include/c++/10.3.1/bits/stl_algobase.h **** 		_OI);
 760:/Library/DaisyToolchain/0.2.0/arm/arm-none-eabi/include/c++/10.3.1/bits/stl_algobase.h **** 
 761:/Library/DaisyToolchain/0.2.0/arm/arm-none-eabi/include/c++/10.3.1/bits/stl_algobase.h ****   template<bool _IsMove,
 762:/Library/DaisyToolchain/0.2.0/arm/arm-none-eabi/include/c++/10.3.1/bits/stl_algobase.h **** 	   typename _II, typename _Ite, typename _Seq, typename _Cat>
 763:/Library/DaisyToolchain/0.2.0/arm/arm-none-eabi/include/c++/10.3.1/bits/stl_algobase.h ****     __gnu_debug::_Safe_iterator<_Ite, _Seq, _Cat>
 764:/Library/DaisyToolchain/0.2.0/arm/arm-none-eabi/include/c++/10.3.1/bits/stl_algobase.h ****     __copy_move_backward_a(_II, _II,
 765:/Library/DaisyToolchain/0.2.0/arm/arm-none-eabi/include/c++/10.3.1/bits/stl_algobase.h **** 		const ::__gnu_debug::_Safe_iterator<_Ite, _Seq, _Cat>&);
 766:/Library/DaisyToolchain/0.2.0/arm/arm-none-eabi/include/c++/10.3.1/bits/stl_algobase.h **** 
 767:/Library/DaisyToolchain/0.2.0/arm/arm-none-eabi/include/c++/10.3.1/bits/stl_algobase.h ****   template<bool _IsMove,
 768:/Library/DaisyToolchain/0.2.0/arm/arm-none-eabi/include/c++/10.3.1/bits/stl_algobase.h **** 	   typename _IIte, typename _ISeq, typename _ICat,
 769:/Library/DaisyToolchain/0.2.0/arm/arm-none-eabi/include/c++/10.3.1/bits/stl_algobase.h **** 	   typename _OIte, typename _OSeq, typename _OCat>
 770:/Library/DaisyToolchain/0.2.0/arm/arm-none-eabi/include/c++/10.3.1/bits/stl_algobase.h ****     ::__gnu_debug::_Safe_iterator<_OIte, _OSeq, _OCat>
 771:/Library/DaisyToolchain/0.2.0/arm/arm-none-eabi/include/c++/10.3.1/bits/stl_algobase.h ****     __copy_move_backward_a(
 772:/Library/DaisyToolchain/0.2.0/arm/arm-none-eabi/include/c++/10.3.1/bits/stl_algobase.h **** 		const ::__gnu_debug::_Safe_iterator<_IIte, _ISeq, _ICat>&,
 773:/Library/DaisyToolchain/0.2.0/arm/arm-none-eabi/include/c++/10.3.1/bits/stl_algobase.h **** 		const ::__gnu_debug::_Safe_iterator<_IIte, _ISeq, _ICat>&,
 774:/Library/DaisyToolchain/0.2.0/arm/arm-none-eabi/include/c++/10.3.1/bits/stl_algobase.h **** 		const ::__gnu_debug::_Safe_iterator<_OIte, _OSeq, _OCat>&);
 775:/Library/DaisyToolchain/0.2.0/arm/arm-none-eabi/include/c++/10.3.1/bits/stl_algobase.h **** 
 776:/Library/DaisyToolchain/0.2.0/arm/arm-none-eabi/include/c++/10.3.1/bits/stl_algobase.h ****   /**
 777:/Library/DaisyToolchain/0.2.0/arm/arm-none-eabi/include/c++/10.3.1/bits/stl_algobase.h ****    *  @brief Copies the range [first,last) into result.
 778:/Library/DaisyToolchain/0.2.0/arm/arm-none-eabi/include/c++/10.3.1/bits/stl_algobase.h ****    *  @ingroup mutating_algorithms
 779:/Library/DaisyToolchain/0.2.0/arm/arm-none-eabi/include/c++/10.3.1/bits/stl_algobase.h ****    *  @param  __first  A bidirectional iterator.
 780:/Library/DaisyToolchain/0.2.0/arm/arm-none-eabi/include/c++/10.3.1/bits/stl_algobase.h ****    *  @param  __last   A bidirectional iterator.
 781:/Library/DaisyToolchain/0.2.0/arm/arm-none-eabi/include/c++/10.3.1/bits/stl_algobase.h ****    *  @param  __result A bidirectional iterator.
 782:/Library/DaisyToolchain/0.2.0/arm/arm-none-eabi/include/c++/10.3.1/bits/stl_algobase.h ****    *  @return   result - (last - first)
 783:/Library/DaisyToolchain/0.2.0/arm/arm-none-eabi/include/c++/10.3.1/bits/stl_algobase.h ****    *
 784:/Library/DaisyToolchain/0.2.0/arm/arm-none-eabi/include/c++/10.3.1/bits/stl_algobase.h ****    *  The function has the same effect as copy, but starts at the end of the
 785:/Library/DaisyToolchain/0.2.0/arm/arm-none-eabi/include/c++/10.3.1/bits/stl_algobase.h ****    *  range and works its way to the start, returning the start of the result.
 786:/Library/DaisyToolchain/0.2.0/arm/arm-none-eabi/include/c++/10.3.1/bits/stl_algobase.h ****    *  This inline function will boil down to a call to @c memmove whenever
 787:/Library/DaisyToolchain/0.2.0/arm/arm-none-eabi/include/c++/10.3.1/bits/stl_algobase.h ****    *  possible.  Failing that, if random access iterators are passed, then the
 788:/Library/DaisyToolchain/0.2.0/arm/arm-none-eabi/include/c++/10.3.1/bits/stl_algobase.h ****    *  loop count will be known (and therefore a candidate for compiler
 789:/Library/DaisyToolchain/0.2.0/arm/arm-none-eabi/include/c++/10.3.1/bits/stl_algobase.h ****    *  optimizations such as unrolling).
 790:/Library/DaisyToolchain/0.2.0/arm/arm-none-eabi/include/c++/10.3.1/bits/stl_algobase.h ****    *
 791:/Library/DaisyToolchain/0.2.0/arm/arm-none-eabi/include/c++/10.3.1/bits/stl_algobase.h ****    *  Result may not be in the range (first,last].  Use copy instead.  Note
 792:/Library/DaisyToolchain/0.2.0/arm/arm-none-eabi/include/c++/10.3.1/bits/stl_algobase.h ****    *  that the start of the output range may overlap [first,last).
 793:/Library/DaisyToolchain/0.2.0/arm/arm-none-eabi/include/c++/10.3.1/bits/stl_algobase.h ****   */
ARM GAS  /var/folders/1y/_321xjh9623c014x9_qw12rr0000gn/T//ccXZVGQV.s 			page 60


 794:/Library/DaisyToolchain/0.2.0/arm/arm-none-eabi/include/c++/10.3.1/bits/stl_algobase.h ****   template<typename _BI1, typename _BI2>
 795:/Library/DaisyToolchain/0.2.0/arm/arm-none-eabi/include/c++/10.3.1/bits/stl_algobase.h ****     _GLIBCXX20_CONSTEXPR
 796:/Library/DaisyToolchain/0.2.0/arm/arm-none-eabi/include/c++/10.3.1/bits/stl_algobase.h ****     inline _BI2
 797:/Library/DaisyToolchain/0.2.0/arm/arm-none-eabi/include/c++/10.3.1/bits/stl_algobase.h ****     copy_backward(_BI1 __first, _BI1 __last, _BI2 __result)
 798:/Library/DaisyToolchain/0.2.0/arm/arm-none-eabi/include/c++/10.3.1/bits/stl_algobase.h ****     {
 799:/Library/DaisyToolchain/0.2.0/arm/arm-none-eabi/include/c++/10.3.1/bits/stl_algobase.h ****       // concept requirements
 800:/Library/DaisyToolchain/0.2.0/arm/arm-none-eabi/include/c++/10.3.1/bits/stl_algobase.h ****       __glibcxx_function_requires(_BidirectionalIteratorConcept<_BI1>)
 801:/Library/DaisyToolchain/0.2.0/arm/arm-none-eabi/include/c++/10.3.1/bits/stl_algobase.h ****       __glibcxx_function_requires(_Mutable_BidirectionalIteratorConcept<_BI2>)
 802:/Library/DaisyToolchain/0.2.0/arm/arm-none-eabi/include/c++/10.3.1/bits/stl_algobase.h ****       __glibcxx_function_requires(_ConvertibleConcept<
 803:/Library/DaisyToolchain/0.2.0/arm/arm-none-eabi/include/c++/10.3.1/bits/stl_algobase.h **** 	    typename iterator_traits<_BI1>::value_type,
 804:/Library/DaisyToolchain/0.2.0/arm/arm-none-eabi/include/c++/10.3.1/bits/stl_algobase.h **** 	    typename iterator_traits<_BI2>::value_type>)
 805:/Library/DaisyToolchain/0.2.0/arm/arm-none-eabi/include/c++/10.3.1/bits/stl_algobase.h ****       __glibcxx_requires_can_decrement_range(__first, __last, __result);
 806:/Library/DaisyToolchain/0.2.0/arm/arm-none-eabi/include/c++/10.3.1/bits/stl_algobase.h **** 
 807:/Library/DaisyToolchain/0.2.0/arm/arm-none-eabi/include/c++/10.3.1/bits/stl_algobase.h ****       return std::__copy_move_backward_a<__is_move_iterator<_BI1>::__value>
 808:/Library/DaisyToolchain/0.2.0/arm/arm-none-eabi/include/c++/10.3.1/bits/stl_algobase.h **** 	     (std::__miter_base(__first), std::__miter_base(__last), __result);
 809:/Library/DaisyToolchain/0.2.0/arm/arm-none-eabi/include/c++/10.3.1/bits/stl_algobase.h ****     }
 810:/Library/DaisyToolchain/0.2.0/arm/arm-none-eabi/include/c++/10.3.1/bits/stl_algobase.h **** 
 811:/Library/DaisyToolchain/0.2.0/arm/arm-none-eabi/include/c++/10.3.1/bits/stl_algobase.h **** #if __cplusplus >= 201103L
 812:/Library/DaisyToolchain/0.2.0/arm/arm-none-eabi/include/c++/10.3.1/bits/stl_algobase.h ****   /**
 813:/Library/DaisyToolchain/0.2.0/arm/arm-none-eabi/include/c++/10.3.1/bits/stl_algobase.h ****    *  @brief Moves the range [first,last) into result.
 814:/Library/DaisyToolchain/0.2.0/arm/arm-none-eabi/include/c++/10.3.1/bits/stl_algobase.h ****    *  @ingroup mutating_algorithms
 815:/Library/DaisyToolchain/0.2.0/arm/arm-none-eabi/include/c++/10.3.1/bits/stl_algobase.h ****    *  @param  __first  A bidirectional iterator.
 816:/Library/DaisyToolchain/0.2.0/arm/arm-none-eabi/include/c++/10.3.1/bits/stl_algobase.h ****    *  @param  __last   A bidirectional iterator.
 817:/Library/DaisyToolchain/0.2.0/arm/arm-none-eabi/include/c++/10.3.1/bits/stl_algobase.h ****    *  @param  __result A bidirectional iterator.
 818:/Library/DaisyToolchain/0.2.0/arm/arm-none-eabi/include/c++/10.3.1/bits/stl_algobase.h ****    *  @return   result - (last - first)
 819:/Library/DaisyToolchain/0.2.0/arm/arm-none-eabi/include/c++/10.3.1/bits/stl_algobase.h ****    *
 820:/Library/DaisyToolchain/0.2.0/arm/arm-none-eabi/include/c++/10.3.1/bits/stl_algobase.h ****    *  The function has the same effect as move, but starts at the end of the
 821:/Library/DaisyToolchain/0.2.0/arm/arm-none-eabi/include/c++/10.3.1/bits/stl_algobase.h ****    *  range and works its way to the start, returning the start of the result.
 822:/Library/DaisyToolchain/0.2.0/arm/arm-none-eabi/include/c++/10.3.1/bits/stl_algobase.h ****    *  This inline function will boil down to a call to @c memmove whenever
 823:/Library/DaisyToolchain/0.2.0/arm/arm-none-eabi/include/c++/10.3.1/bits/stl_algobase.h ****    *  possible.  Failing that, if random access iterators are passed, then the
 824:/Library/DaisyToolchain/0.2.0/arm/arm-none-eabi/include/c++/10.3.1/bits/stl_algobase.h ****    *  loop count will be known (and therefore a candidate for compiler
 825:/Library/DaisyToolchain/0.2.0/arm/arm-none-eabi/include/c++/10.3.1/bits/stl_algobase.h ****    *  optimizations such as unrolling).
 826:/Library/DaisyToolchain/0.2.0/arm/arm-none-eabi/include/c++/10.3.1/bits/stl_algobase.h ****    *
 827:/Library/DaisyToolchain/0.2.0/arm/arm-none-eabi/include/c++/10.3.1/bits/stl_algobase.h ****    *  Result may not be in the range (first,last].  Use move instead.  Note
 828:/Library/DaisyToolchain/0.2.0/arm/arm-none-eabi/include/c++/10.3.1/bits/stl_algobase.h ****    *  that the start of the output range may overlap [first,last).
 829:/Library/DaisyToolchain/0.2.0/arm/arm-none-eabi/include/c++/10.3.1/bits/stl_algobase.h ****   */
 830:/Library/DaisyToolchain/0.2.0/arm/arm-none-eabi/include/c++/10.3.1/bits/stl_algobase.h ****   template<typename _BI1, typename _BI2>
 831:/Library/DaisyToolchain/0.2.0/arm/arm-none-eabi/include/c++/10.3.1/bits/stl_algobase.h ****     _GLIBCXX20_CONSTEXPR
 832:/Library/DaisyToolchain/0.2.0/arm/arm-none-eabi/include/c++/10.3.1/bits/stl_algobase.h ****     inline _BI2
 833:/Library/DaisyToolchain/0.2.0/arm/arm-none-eabi/include/c++/10.3.1/bits/stl_algobase.h ****     move_backward(_BI1 __first, _BI1 __last, _BI2 __result)
 834:/Library/DaisyToolchain/0.2.0/arm/arm-none-eabi/include/c++/10.3.1/bits/stl_algobase.h ****     {
 835:/Library/DaisyToolchain/0.2.0/arm/arm-none-eabi/include/c++/10.3.1/bits/stl_algobase.h ****       // concept requirements
 836:/Library/DaisyToolchain/0.2.0/arm/arm-none-eabi/include/c++/10.3.1/bits/stl_algobase.h ****       __glibcxx_function_requires(_BidirectionalIteratorConcept<_BI1>)
 837:/Library/DaisyToolchain/0.2.0/arm/arm-none-eabi/include/c++/10.3.1/bits/stl_algobase.h ****       __glibcxx_function_requires(_Mutable_BidirectionalIteratorConcept<_BI2>)
 838:/Library/DaisyToolchain/0.2.0/arm/arm-none-eabi/include/c++/10.3.1/bits/stl_algobase.h ****       __glibcxx_function_requires(_ConvertibleConcept<
 839:/Library/DaisyToolchain/0.2.0/arm/arm-none-eabi/include/c++/10.3.1/bits/stl_algobase.h **** 	    typename iterator_traits<_BI1>::value_type,
 840:/Library/DaisyToolchain/0.2.0/arm/arm-none-eabi/include/c++/10.3.1/bits/stl_algobase.h **** 	    typename iterator_traits<_BI2>::value_type>)
 841:/Library/DaisyToolchain/0.2.0/arm/arm-none-eabi/include/c++/10.3.1/bits/stl_algobase.h ****       __glibcxx_requires_can_decrement_range(__first, __last, __result);
 842:/Library/DaisyToolchain/0.2.0/arm/arm-none-eabi/include/c++/10.3.1/bits/stl_algobase.h **** 
 843:/Library/DaisyToolchain/0.2.0/arm/arm-none-eabi/include/c++/10.3.1/bits/stl_algobase.h ****       return std::__copy_move_backward_a<true>(std::__miter_base(__first),
 844:/Library/DaisyToolchain/0.2.0/arm/arm-none-eabi/include/c++/10.3.1/bits/stl_algobase.h **** 					       std::__miter_base(__last),
 845:/Library/DaisyToolchain/0.2.0/arm/arm-none-eabi/include/c++/10.3.1/bits/stl_algobase.h **** 					       __result);
 846:/Library/DaisyToolchain/0.2.0/arm/arm-none-eabi/include/c++/10.3.1/bits/stl_algobase.h ****     }
 847:/Library/DaisyToolchain/0.2.0/arm/arm-none-eabi/include/c++/10.3.1/bits/stl_algobase.h **** 
 848:/Library/DaisyToolchain/0.2.0/arm/arm-none-eabi/include/c++/10.3.1/bits/stl_algobase.h **** #define _GLIBCXX_MOVE_BACKWARD3(_Tp, _Up, _Vp) std::move_backward(_Tp, _Up, _Vp)
 849:/Library/DaisyToolchain/0.2.0/arm/arm-none-eabi/include/c++/10.3.1/bits/stl_algobase.h **** #else
 850:/Library/DaisyToolchain/0.2.0/arm/arm-none-eabi/include/c++/10.3.1/bits/stl_algobase.h **** #define _GLIBCXX_MOVE_BACKWARD3(_Tp, _Up, _Vp) std::copy_backward(_Tp, _Up, _Vp)
ARM GAS  /var/folders/1y/_321xjh9623c014x9_qw12rr0000gn/T//ccXZVGQV.s 			page 61


 851:/Library/DaisyToolchain/0.2.0/arm/arm-none-eabi/include/c++/10.3.1/bits/stl_algobase.h **** #endif
 852:/Library/DaisyToolchain/0.2.0/arm/arm-none-eabi/include/c++/10.3.1/bits/stl_algobase.h **** 
 853:/Library/DaisyToolchain/0.2.0/arm/arm-none-eabi/include/c++/10.3.1/bits/stl_algobase.h ****   template<typename _ForwardIterator, typename _Tp>
 854:/Library/DaisyToolchain/0.2.0/arm/arm-none-eabi/include/c++/10.3.1/bits/stl_algobase.h ****     _GLIBCXX20_CONSTEXPR
 855:/Library/DaisyToolchain/0.2.0/arm/arm-none-eabi/include/c++/10.3.1/bits/stl_algobase.h ****     inline typename
 856:/Library/DaisyToolchain/0.2.0/arm/arm-none-eabi/include/c++/10.3.1/bits/stl_algobase.h ****     __gnu_cxx::__enable_if<!__is_scalar<_Tp>::__value, void>::__type
 857:/Library/DaisyToolchain/0.2.0/arm/arm-none-eabi/include/c++/10.3.1/bits/stl_algobase.h ****     __fill_a1(_ForwardIterator __first, _ForwardIterator __last,
 858:/Library/DaisyToolchain/0.2.0/arm/arm-none-eabi/include/c++/10.3.1/bits/stl_algobase.h **** 	      const _Tp& __value)
 859:/Library/DaisyToolchain/0.2.0/arm/arm-none-eabi/include/c++/10.3.1/bits/stl_algobase.h ****     {
 860:/Library/DaisyToolchain/0.2.0/arm/arm-none-eabi/include/c++/10.3.1/bits/stl_algobase.h ****       for (; __first != __last; ++__first)
 861:/Library/DaisyToolchain/0.2.0/arm/arm-none-eabi/include/c++/10.3.1/bits/stl_algobase.h **** 	*__first = __value;
 862:/Library/DaisyToolchain/0.2.0/arm/arm-none-eabi/include/c++/10.3.1/bits/stl_algobase.h ****     }
 863:/Library/DaisyToolchain/0.2.0/arm/arm-none-eabi/include/c++/10.3.1/bits/stl_algobase.h **** 
 864:/Library/DaisyToolchain/0.2.0/arm/arm-none-eabi/include/c++/10.3.1/bits/stl_algobase.h ****   template<typename _ForwardIterator, typename _Tp>
 865:/Library/DaisyToolchain/0.2.0/arm/arm-none-eabi/include/c++/10.3.1/bits/stl_algobase.h ****     _GLIBCXX20_CONSTEXPR
 866:/Library/DaisyToolchain/0.2.0/arm/arm-none-eabi/include/c++/10.3.1/bits/stl_algobase.h ****     inline typename
 867:/Library/DaisyToolchain/0.2.0/arm/arm-none-eabi/include/c++/10.3.1/bits/stl_algobase.h ****     __gnu_cxx::__enable_if<__is_scalar<_Tp>::__value, void>::__type
 868:/Library/DaisyToolchain/0.2.0/arm/arm-none-eabi/include/c++/10.3.1/bits/stl_algobase.h ****     __fill_a1(_ForwardIterator __first, _ForwardIterator __last,
 869:/Library/DaisyToolchain/0.2.0/arm/arm-none-eabi/include/c++/10.3.1/bits/stl_algobase.h **** 	      const _Tp& __value)
 870:/Library/DaisyToolchain/0.2.0/arm/arm-none-eabi/include/c++/10.3.1/bits/stl_algobase.h ****     {
 871:/Library/DaisyToolchain/0.2.0/arm/arm-none-eabi/include/c++/10.3.1/bits/stl_algobase.h ****       const _Tp __tmp = __value;
 872:/Library/DaisyToolchain/0.2.0/arm/arm-none-eabi/include/c++/10.3.1/bits/stl_algobase.h ****       for (; __first != __last; ++__first)
 873:/Library/DaisyToolchain/0.2.0/arm/arm-none-eabi/include/c++/10.3.1/bits/stl_algobase.h **** 	*__first = __tmp;
 874:/Library/DaisyToolchain/0.2.0/arm/arm-none-eabi/include/c++/10.3.1/bits/stl_algobase.h ****     }
 875:/Library/DaisyToolchain/0.2.0/arm/arm-none-eabi/include/c++/10.3.1/bits/stl_algobase.h **** 
 876:/Library/DaisyToolchain/0.2.0/arm/arm-none-eabi/include/c++/10.3.1/bits/stl_algobase.h ****   // Specialization: for char types we can use memset.
 877:/Library/DaisyToolchain/0.2.0/arm/arm-none-eabi/include/c++/10.3.1/bits/stl_algobase.h ****   template<typename _Tp>
 878:/Library/DaisyToolchain/0.2.0/arm/arm-none-eabi/include/c++/10.3.1/bits/stl_algobase.h ****     _GLIBCXX20_CONSTEXPR
 879:/Library/DaisyToolchain/0.2.0/arm/arm-none-eabi/include/c++/10.3.1/bits/stl_algobase.h ****     inline typename
 880:/Library/DaisyToolchain/0.2.0/arm/arm-none-eabi/include/c++/10.3.1/bits/stl_algobase.h ****     __gnu_cxx::__enable_if<__is_byte<_Tp>::__value, void>::__type
 881:/Library/DaisyToolchain/0.2.0/arm/arm-none-eabi/include/c++/10.3.1/bits/stl_algobase.h ****     __fill_a1(_Tp* __first, _Tp* __last, const _Tp& __c)
 882:/Library/DaisyToolchain/0.2.0/arm/arm-none-eabi/include/c++/10.3.1/bits/stl_algobase.h ****     {
 883:/Library/DaisyToolchain/0.2.0/arm/arm-none-eabi/include/c++/10.3.1/bits/stl_algobase.h ****       const _Tp __tmp = __c;
 884:/Library/DaisyToolchain/0.2.0/arm/arm-none-eabi/include/c++/10.3.1/bits/stl_algobase.h **** #if __cpp_lib_is_constant_evaluated
 885:/Library/DaisyToolchain/0.2.0/arm/arm-none-eabi/include/c++/10.3.1/bits/stl_algobase.h ****       if (std::is_constant_evaluated())
 886:/Library/DaisyToolchain/0.2.0/arm/arm-none-eabi/include/c++/10.3.1/bits/stl_algobase.h **** 	{
 887:/Library/DaisyToolchain/0.2.0/arm/arm-none-eabi/include/c++/10.3.1/bits/stl_algobase.h **** 	  for (; __first != __last; ++__first)
 888:/Library/DaisyToolchain/0.2.0/arm/arm-none-eabi/include/c++/10.3.1/bits/stl_algobase.h **** 	    *__first = __tmp;
 889:/Library/DaisyToolchain/0.2.0/arm/arm-none-eabi/include/c++/10.3.1/bits/stl_algobase.h **** 	  return;
 890:/Library/DaisyToolchain/0.2.0/arm/arm-none-eabi/include/c++/10.3.1/bits/stl_algobase.h **** 	}
 891:/Library/DaisyToolchain/0.2.0/arm/arm-none-eabi/include/c++/10.3.1/bits/stl_algobase.h **** #endif
 892:/Library/DaisyToolchain/0.2.0/arm/arm-none-eabi/include/c++/10.3.1/bits/stl_algobase.h ****       if (const size_t __len = __last - __first)
 893:/Library/DaisyToolchain/0.2.0/arm/arm-none-eabi/include/c++/10.3.1/bits/stl_algobase.h **** 	__builtin_memset(__first, static_cast<unsigned char>(__tmp), __len);
 894:/Library/DaisyToolchain/0.2.0/arm/arm-none-eabi/include/c++/10.3.1/bits/stl_algobase.h ****     }
 895:/Library/DaisyToolchain/0.2.0/arm/arm-none-eabi/include/c++/10.3.1/bits/stl_algobase.h **** 
 896:/Library/DaisyToolchain/0.2.0/arm/arm-none-eabi/include/c++/10.3.1/bits/stl_algobase.h ****   template<typename _Ite, typename _Cont, typename _Tp>
 897:/Library/DaisyToolchain/0.2.0/arm/arm-none-eabi/include/c++/10.3.1/bits/stl_algobase.h ****     _GLIBCXX20_CONSTEXPR
 898:/Library/DaisyToolchain/0.2.0/arm/arm-none-eabi/include/c++/10.3.1/bits/stl_algobase.h ****     inline void
 899:/Library/DaisyToolchain/0.2.0/arm/arm-none-eabi/include/c++/10.3.1/bits/stl_algobase.h ****     __fill_a1(::__gnu_cxx::__normal_iterator<_Ite, _Cont> __first,
 900:/Library/DaisyToolchain/0.2.0/arm/arm-none-eabi/include/c++/10.3.1/bits/stl_algobase.h **** 	      ::__gnu_cxx::__normal_iterator<_Ite, _Cont> __last,
 901:/Library/DaisyToolchain/0.2.0/arm/arm-none-eabi/include/c++/10.3.1/bits/stl_algobase.h **** 	      const _Tp& __value)
 902:/Library/DaisyToolchain/0.2.0/arm/arm-none-eabi/include/c++/10.3.1/bits/stl_algobase.h ****     { std::__fill_a1(__first.base(), __last.base(), __value); }
 903:/Library/DaisyToolchain/0.2.0/arm/arm-none-eabi/include/c++/10.3.1/bits/stl_algobase.h **** 
 904:/Library/DaisyToolchain/0.2.0/arm/arm-none-eabi/include/c++/10.3.1/bits/stl_algobase.h ****   template<typename _Tp, typename _VTp>
 905:/Library/DaisyToolchain/0.2.0/arm/arm-none-eabi/include/c++/10.3.1/bits/stl_algobase.h ****     void
 906:/Library/DaisyToolchain/0.2.0/arm/arm-none-eabi/include/c++/10.3.1/bits/stl_algobase.h ****     __fill_a1(const _GLIBCXX_STD_C::_Deque_iterator<_Tp, _Tp&, _Tp*>&,
 907:/Library/DaisyToolchain/0.2.0/arm/arm-none-eabi/include/c++/10.3.1/bits/stl_algobase.h **** 	      const _GLIBCXX_STD_C::_Deque_iterator<_Tp, _Tp&, _Tp*>&,
ARM GAS  /var/folders/1y/_321xjh9623c014x9_qw12rr0000gn/T//ccXZVGQV.s 			page 62


 908:/Library/DaisyToolchain/0.2.0/arm/arm-none-eabi/include/c++/10.3.1/bits/stl_algobase.h **** 	      const _VTp&);
 909:/Library/DaisyToolchain/0.2.0/arm/arm-none-eabi/include/c++/10.3.1/bits/stl_algobase.h **** 
 910:/Library/DaisyToolchain/0.2.0/arm/arm-none-eabi/include/c++/10.3.1/bits/stl_algobase.h ****   template<typename _FIte, typename _Tp>
 911:/Library/DaisyToolchain/0.2.0/arm/arm-none-eabi/include/c++/10.3.1/bits/stl_algobase.h ****     _GLIBCXX20_CONSTEXPR
 912:/Library/DaisyToolchain/0.2.0/arm/arm-none-eabi/include/c++/10.3.1/bits/stl_algobase.h ****     inline void
 913:/Library/DaisyToolchain/0.2.0/arm/arm-none-eabi/include/c++/10.3.1/bits/stl_algobase.h ****     __fill_a(_FIte __first, _FIte __last, const _Tp& __value)
 914:/Library/DaisyToolchain/0.2.0/arm/arm-none-eabi/include/c++/10.3.1/bits/stl_algobase.h ****     { std::__fill_a1(__first, __last, __value); }
 915:/Library/DaisyToolchain/0.2.0/arm/arm-none-eabi/include/c++/10.3.1/bits/stl_algobase.h **** 
 916:/Library/DaisyToolchain/0.2.0/arm/arm-none-eabi/include/c++/10.3.1/bits/stl_algobase.h ****   template<typename _Ite, typename _Seq, typename _Cat, typename _Tp>
 917:/Library/DaisyToolchain/0.2.0/arm/arm-none-eabi/include/c++/10.3.1/bits/stl_algobase.h ****     void
 918:/Library/DaisyToolchain/0.2.0/arm/arm-none-eabi/include/c++/10.3.1/bits/stl_algobase.h ****     __fill_a(const ::__gnu_debug::_Safe_iterator<_Ite, _Seq, _Cat>&,
 919:/Library/DaisyToolchain/0.2.0/arm/arm-none-eabi/include/c++/10.3.1/bits/stl_algobase.h **** 	     const ::__gnu_debug::_Safe_iterator<_Ite, _Seq, _Cat>&,
 920:/Library/DaisyToolchain/0.2.0/arm/arm-none-eabi/include/c++/10.3.1/bits/stl_algobase.h **** 	     const _Tp&);
 921:/Library/DaisyToolchain/0.2.0/arm/arm-none-eabi/include/c++/10.3.1/bits/stl_algobase.h **** 
 922:/Library/DaisyToolchain/0.2.0/arm/arm-none-eabi/include/c++/10.3.1/bits/stl_algobase.h ****   /**
 923:/Library/DaisyToolchain/0.2.0/arm/arm-none-eabi/include/c++/10.3.1/bits/stl_algobase.h ****    *  @brief Fills the range [first,last) with copies of value.
 924:/Library/DaisyToolchain/0.2.0/arm/arm-none-eabi/include/c++/10.3.1/bits/stl_algobase.h ****    *  @ingroup mutating_algorithms
 925:/Library/DaisyToolchain/0.2.0/arm/arm-none-eabi/include/c++/10.3.1/bits/stl_algobase.h ****    *  @param  __first  A forward iterator.
 926:/Library/DaisyToolchain/0.2.0/arm/arm-none-eabi/include/c++/10.3.1/bits/stl_algobase.h ****    *  @param  __last   A forward iterator.
 927:/Library/DaisyToolchain/0.2.0/arm/arm-none-eabi/include/c++/10.3.1/bits/stl_algobase.h ****    *  @param  __value  A reference-to-const of arbitrary type.
 928:/Library/DaisyToolchain/0.2.0/arm/arm-none-eabi/include/c++/10.3.1/bits/stl_algobase.h ****    *  @return   Nothing.
 929:/Library/DaisyToolchain/0.2.0/arm/arm-none-eabi/include/c++/10.3.1/bits/stl_algobase.h ****    *
 930:/Library/DaisyToolchain/0.2.0/arm/arm-none-eabi/include/c++/10.3.1/bits/stl_algobase.h ****    *  This function fills a range with copies of the same value.  For char
 931:/Library/DaisyToolchain/0.2.0/arm/arm-none-eabi/include/c++/10.3.1/bits/stl_algobase.h ****    *  types filling contiguous areas of memory, this becomes an inline call
 932:/Library/DaisyToolchain/0.2.0/arm/arm-none-eabi/include/c++/10.3.1/bits/stl_algobase.h ****    *  to @c memset or @c wmemset.
 933:/Library/DaisyToolchain/0.2.0/arm/arm-none-eabi/include/c++/10.3.1/bits/stl_algobase.h ****   */
 934:/Library/DaisyToolchain/0.2.0/arm/arm-none-eabi/include/c++/10.3.1/bits/stl_algobase.h ****   template<typename _ForwardIterator, typename _Tp>
 935:/Library/DaisyToolchain/0.2.0/arm/arm-none-eabi/include/c++/10.3.1/bits/stl_algobase.h ****     _GLIBCXX20_CONSTEXPR
 936:/Library/DaisyToolchain/0.2.0/arm/arm-none-eabi/include/c++/10.3.1/bits/stl_algobase.h ****     inline void
 937:/Library/DaisyToolchain/0.2.0/arm/arm-none-eabi/include/c++/10.3.1/bits/stl_algobase.h ****     fill(_ForwardIterator __first, _ForwardIterator __last, const _Tp& __value)
 1121              		.loc 5 937 5 view .LVU266
 1122              	.LBB416:
 1123              	.LBI416:
 913:/Library/DaisyToolchain/0.2.0/arm/arm-none-eabi/include/c++/10.3.1/bits/stl_algobase.h ****     { std::__fill_a1(__first, __last, __value); }
 1124              		.loc 5 913 5 view .LVU267
 1125              	.LBB417:
 1126              	.LBI417:
 868:/Library/DaisyToolchain/0.2.0/arm/arm-none-eabi/include/c++/10.3.1/bits/stl_algobase.h **** 	      const _Tp& __value)
 1127              		.loc 5 868 5 view .LVU268
 1128              	.LBB418:
 872:/Library/DaisyToolchain/0.2.0/arm/arm-none-eabi/include/c++/10.3.1/bits/stl_algobase.h **** 	*__first = __tmp;
 1129              		.loc 5 872 22 view .LVU269
 1130 006a 27B1     		cbz	r7, .L57
 873:/Library/DaisyToolchain/0.2.0/arm/arm-none-eabi/include/c++/10.3.1/bits/stl_algobase.h ****     }
 1131              		.loc 5 873 11 is_stmt 0 view .LVU270
 1132 006c 3A46     		mov	r2, r7
 1133 006e 4946     		mov	r1, r9
 1134 0070 3046     		mov	r0, r6
 1135 0072 FFF7FEFF 		bl	memset
 1136              	.LVL95:
 1137              	.L57:
 873:/Library/DaisyToolchain/0.2.0/arm/arm-none-eabi/include/c++/10.3.1/bits/stl_algobase.h ****     }
 1138              		.loc 5 873 11 view .LVU271
 1139              	.LBE418:
 1140              	.LBE417:
 1141              	.LBE416:
 1142              	.LBE415:
ARM GAS  /var/folders/1y/_321xjh9623c014x9_qw12rr0000gn/T//ccXZVGQV.s 			page 63


  84:../../libDaisy//src/hid/midi.h ****     }
 1143              		.loc 6 84 9 is_stmt 1 view .LVU272
  84:../../libDaisy//src/hid/midi.h ****     }
 1144              		.loc 6 84 19 is_stmt 0 view .LVU273
 1145 0076 0DA9     		add	r1, sp, #52
 1146 0078 4046     		mov	r0, r8
 1147 007a FFF7FEFF 		bl	_ZN5daisy11UartHandler4InitERKNS0_6ConfigE
 1148              	.LVL96:
  84:../../libDaisy//src/hid/midi.h ****     }
 1149              		.loc 6 84 19 view .LVU274
 1150              	.LBE420:
 1151              	.LBE421:
 1152              	.LBB422:
 1153              	.LBI422:
 1154              		.file 8 "../../libDaisy//src/hid/midi_parser.h"
   1:../../libDaisy//src/hid/midi_parser.h **** #pragma once
   2:../../libDaisy//src/hid/midi_parser.h **** #ifndef DSY_MIDI_PARSER_H
   3:../../libDaisy//src/hid/midi_parser.h **** #define DSY_MIDI_PARSER_H
   4:../../libDaisy//src/hid/midi_parser.h **** 
   5:../../libDaisy//src/hid/midi_parser.h **** #include <stdint.h>
   6:../../libDaisy//src/hid/midi_parser.h **** #include <stdlib.h>
   7:../../libDaisy//src/hid/midi_parser.h **** #include "hid/MidiEvent.h"
   8:../../libDaisy//src/hid/midi_parser.h **** 
   9:../../libDaisy//src/hid/midi_parser.h **** namespace daisy
  10:../../libDaisy//src/hid/midi_parser.h **** {
  11:../../libDaisy//src/hid/midi_parser.h **** /** @brief   Utility class for parsing raw byte streams into MIDI messages
  12:../../libDaisy//src/hid/midi_parser.h ****  *  @details Implemented as a state machine designed to parse one byte at a time
  13:../../libDaisy//src/hid/midi_parser.h ****  *  @ingroup midi
  14:../../libDaisy//src/hid/midi_parser.h ****  */
  15:../../libDaisy//src/hid/midi_parser.h **** class MidiParser
  16:../../libDaisy//src/hid/midi_parser.h **** {
  17:../../libDaisy//src/hid/midi_parser.h ****   public:
  18:../../libDaisy//src/hid/midi_parser.h ****     MidiParser(){};
  19:../../libDaisy//src/hid/midi_parser.h ****     ~MidiParser() {}
  20:../../libDaisy//src/hid/midi_parser.h **** 
  21:../../libDaisy//src/hid/midi_parser.h ****     inline void Init() { Reset(); }
 1155              		.loc 8 21 17 is_stmt 1 view .LVU275
 1156              	.LBB423:
 1157              		.loc 8 21 26 view .LVU276
 1158              	.LBE423:
 1159              	.LBE422:
 1160              	.LBE430:
 1161              	.LBE436:
 103:Dubby.cpp     **** 
 1162              		.loc 2 103 19 is_stmt 0 view .LVU277
 1163 007e 49F62025 		movw	r5, #39456
 1164              	.LBB437:
 1165              	.LBB431:
 1166              	.LBB426:
 1167              	.LBB424:
 1168              		.loc 8 21 31 view .LVU278
 1169 0082 04F6E400 		addw	r0, r4, #2276
 1170              	.LVL97:
 1171              		.loc 8 21 31 view .LVU279
 1172              	.LBE424:
 1173              	.LBE426:
 1174              	.LBE431:
ARM GAS  /var/folders/1y/_321xjh9623c014x9_qw12rr0000gn/T//ccXZVGQV.s 			page 64


 1175              	.LBE437:
 100:Dubby.cpp     ****     midi_sw_output.mode = DSY_GPIO_MODE_OUTPUT_PP;
 1176              		.loc 2 100 54 view .LVU280
 1177 0086 04F51046 		add	r6, r4, #36864
 1178              	.LBB438:
 1179              	.LBB432:
 1180              	.LBB427:
 1181              	.LBB425:
 1182              		.loc 8 21 31 view .LVU281
 1183 008a FFF7FEFF 		bl	_ZN5daisy10MidiParser5ResetEv
 1184              	.LVL98:
 1185              		.loc 8 21 31 view .LVU282
 1186              	.LBE425:
 1187              	.LBE427:
 1188              	.LBE432:
 1189              	.LBE438:
 100:Dubby.cpp     ****     midi_sw_output.mode = DSY_GPIO_MODE_OUTPUT_PP;
 1190              		.loc 2 100 5 is_stmt 1 view .LVU283
 100:Dubby.cpp     ****     midi_sw_output.mode = DSY_GPIO_MODE_OUTPUT_PP;
 1191              		.loc 2 100 54 is_stmt 0 view .LVU284
 1192 008e 0120     		movs	r0, #1
 1193 0090 FFF7FEFF 		bl	_ZN5daisy9DaisySeed6GetPinEh
 1194              	.LVL99:
 103:Dubby.cpp     **** 
 1195              		.loc 2 103 19 view .LVU285
 1196 0094 2544     		add	r5, r5, r4
 101:Dubby.cpp     ****     midi_sw_output.pull = DSY_GPIO_NOPULL;
 1197              		.loc 2 101 25 view .LVU286
 1198 0096 0123     		movs	r3, #1
 100:Dubby.cpp     ****     midi_sw_output.mode = DSY_GPIO_MODE_OUTPUT_PP;
 1199              		.loc 2 100 54 view .LVU287
 1200 0098 A6F8200A 		strh	r0, [r6, #2592]	@ movhi
 101:Dubby.cpp     ****     midi_sw_output.pull = DSY_GPIO_NOPULL;
 1201              		.loc 2 101 5 is_stmt 1 view .LVU288
 102:Dubby.cpp     ****     dsy_gpio_init(&midi_sw_output);
 1202              		.loc 2 102 5 view .LVU289
 103:Dubby.cpp     **** 
 1203              		.loc 2 103 18 is_stmt 0 view .LVU290
 1204 009c 2846     		mov	r0, r5
 101:Dubby.cpp     ****     midi_sw_output.pull = DSY_GPIO_NOPULL;
 1205              		.loc 2 101 25 view .LVU291
 1206 009e A6F8223A 		strh	r3, [r6, #2594]	@ movhi
 103:Dubby.cpp     **** 
 1207              		.loc 2 103 5 is_stmt 1 view .LVU292
 103:Dubby.cpp     **** 
 1208              		.loc 2 103 18 is_stmt 0 view .LVU293
 1209 00a2 FFF7FEFF 		bl	dsy_gpio_init
 1210              	.LVL100:
 105:Dubby.cpp     **** 
 1211              		.loc 2 105 5 is_stmt 1 view .LVU294
 105:Dubby.cpp     **** 
 1212              		.loc 2 105 19 is_stmt 0 view .LVU295
 1213 00a6 2846     		mov	r0, r5
 1214              	.LBB439:
 1215              	.LBB440:
 1216              		.loc 6 169 24 view .LVU296
 1217 00a8 49F62425 		movw	r5, #39460
ARM GAS  /var/folders/1y/_321xjh9623c014x9_qw12rr0000gn/T//ccXZVGQV.s 			page 65


 1218              	.LBE440:
 1219              	.LBE439:
 105:Dubby.cpp     **** 
 1220              		.loc 2 105 19 view .LVU297
 1221 00ac 0021     		movs	r1, #0
 1222 00ae FFF7FEFF 		bl	dsy_gpio_write
 1223              	.LVL101:
 107:Dubby.cpp     ****     midi_usb_cfg.transport_config.periph = MidiUsbTransport::Config::EXTERNAL;
 1224              		.loc 2 107 5 is_stmt 1 view .LVU298
 1225              	.LBB444:
 1226              	.LBI444:
 158:../../libDaisy//src/hid/midi.h ****     {
 1227              		.loc 6 158 12 view .LVU299
 1228              	.LBB445:
 1229              	.LBI445:
 1230              		.file 9 "../../libDaisy//src/hid/usb_midi.h"
   1:../../libDaisy//src/hid/usb_midi.h **** #pragma once
   2:../../libDaisy//src/hid/usb_midi.h **** #ifndef __DSY_MIDIUSBTRANSPORT_H__
   3:../../libDaisy//src/hid/usb_midi.h **** #define __DSY_MIDIUSBTRANSPORT_H__
   4:../../libDaisy//src/hid/usb_midi.h **** 
   5:../../libDaisy//src/hid/usb_midi.h **** #include "hid/usb.h"
   6:../../libDaisy//src/hid/usb_midi.h **** #include "sys/system.h"
   7:../../libDaisy//src/hid/usb_midi.h **** #include "util/ringbuffer.h"
   8:../../libDaisy//src/hid/usb_midi.h **** 
   9:../../libDaisy//src/hid/usb_midi.h **** namespace daisy
  10:../../libDaisy//src/hid/usb_midi.h **** {
  11:../../libDaisy//src/hid/usb_midi.h **** /** @brief USB Transport for MIDI
  12:../../libDaisy//src/hid/usb_midi.h ****  *  @ingroup midi
  13:../../libDaisy//src/hid/usb_midi.h ****  */
  14:../../libDaisy//src/hid/usb_midi.h **** class MidiUsbTransport
  15:../../libDaisy//src/hid/usb_midi.h **** {
  16:../../libDaisy//src/hid/usb_midi.h ****   public:
  17:../../libDaisy//src/hid/usb_midi.h ****     typedef void (*MidiRxParseCallback)(uint8_t* data,
  18:../../libDaisy//src/hid/usb_midi.h ****                                         size_t   size,
  19:../../libDaisy//src/hid/usb_midi.h ****                                         void*    context);
  20:../../libDaisy//src/hid/usb_midi.h **** 
  21:../../libDaisy//src/hid/usb_midi.h ****     struct Config
  22:../../libDaisy//src/hid/usb_midi.h ****     {
  23:../../libDaisy//src/hid/usb_midi.h ****         enum Periph
  24:../../libDaisy//src/hid/usb_midi.h ****         {
  25:../../libDaisy//src/hid/usb_midi.h ****             INTERNAL = 0,
  26:../../libDaisy//src/hid/usb_midi.h ****             EXTERNAL
  27:../../libDaisy//src/hid/usb_midi.h ****         };
  28:../../libDaisy//src/hid/usb_midi.h **** 
  29:../../libDaisy//src/hid/usb_midi.h ****         Periph periph;
  30:../../libDaisy//src/hid/usb_midi.h **** 
  31:../../libDaisy//src/hid/usb_midi.h ****         /**
  32:../../libDaisy//src/hid/usb_midi.h ****          * When sending MIDI messages immediately back-to-back in user code,
  33:../../libDaisy//src/hid/usb_midi.h ****          * sometimes the USB CDC driver is still "busy".
  34:../../libDaisy//src/hid/usb_midi.h ****          *
  35:../../libDaisy//src/hid/usb_midi.h ****          * This option configures the number of times to retry a Tx after
  36:../../libDaisy//src/hid/usb_midi.h ****          * delaying for 100 microseconds (default = 3 retries).
  37:../../libDaisy//src/hid/usb_midi.h ****          *
  38:../../libDaisy//src/hid/usb_midi.h ****          * If you set this to zero, Tx will not retry so the attempt will block
  39:../../libDaisy//src/hid/usb_midi.h ****          * for slightly less time, but transmit can fail if the Tx state is busy.
  40:../../libDaisy//src/hid/usb_midi.h ****          */
  41:../../libDaisy//src/hid/usb_midi.h ****         uint8_t tx_retry_count;
ARM GAS  /var/folders/1y/_321xjh9623c014x9_qw12rr0000gn/T//ccXZVGQV.s 			page 66


  42:../../libDaisy//src/hid/usb_midi.h **** 
  43:../../libDaisy//src/hid/usb_midi.h ****         Config() : periph(INTERNAL), tx_retry_count(3) {}
 1231              		.loc 9 43 9 view .LVU300
 1232              		.loc 9 43 9 is_stmt 0 view .LVU301
 1233              	.LBE445:
 1234              	.LBE444:
 108:Dubby.cpp     ****     midi_usb.Init(midi_usb_cfg);
 1235              		.loc 2 108 5 is_stmt 1 view .LVU302
 109:Dubby.cpp     **** }
 1236              		.loc 2 109 5 view .LVU303
 1237              	.LBB446:
 1238              	.LBI439:
 166:../../libDaisy//src/hid/midi.h ****     {
 1239              		.loc 6 166 10 view .LVU304
 1240              	.LBB443:
 168:../../libDaisy//src/hid/midi.h ****         transport_.Init(config_.transport_config);
 1241              		.loc 6 168 9 is_stmt 0 view .LVU305
 1242 00b2 40F20133 		movw	r3, #769
 1243              		.loc 6 169 24 view .LVU306
 1244 00b6 2544     		add	r5, r5, r4
 1245              	.LVL102:
 168:../../libDaisy//src/hid/midi.h ****         transport_.Init(config_.transport_config);
 1246              		.loc 6 168 9 view .LVU307
 1247 00b8 A6F8243A 		strh	r3, [r6, #2596]	@ movhi
 1248              		.loc 6 169 24 view .LVU308
 1249 00bc 281D     		adds	r0, r5, #4
 1250 00be D6F8241A 		ldr	r1, [r6, #2596]
 1251 00c2 FFF7FEFF 		bl	_ZN5daisy16MidiUsbTransport4InitENS0_6ConfigE
 1252              	.LVL103:
 1253              	.LBB441:
 1254              	.LBI441:
 1255              		.loc 8 21 17 is_stmt 1 view .LVU309
 1256              	.LBB442:
 1257              		.loc 8 21 26 view .LVU310
 1258              		.loc 8 21 31 is_stmt 0 view .LVU311
 1259 00c6 05F10800 		add	r0, r5, #8
 1260 00ca FFF7FEFF 		bl	_ZN5daisy10MidiParser5ResetEv
 1261              	.LVL104:
 1262              		.loc 8 21 31 view .LVU312
 1263              	.LBE442:
 1264              	.LBE441:
 1265              	.LBE443:
 1266              	.LBE446:
 110:Dubby.cpp     **** 
 1267              		.loc 2 110 1 view .LVU313
 1268 00ce 15B0     		add	sp, sp, #84
 1269              		.cfi_def_cfa_offset 28
 1270              		@ sp needed
 1271 00d0 BDE8F083 		pop	{r4, r5, r6, r7, r8, r9, pc}
 110:Dubby.cpp     **** 
 1272              		.loc 2 110 1 view .LVU314
 1273              		.cfi_endproc
 1274              	.LFE3735:
 1276              		.section	.text._ZN5daisy5Dubby10DrawBitmapEi,"ax",%progbits
 1277              		.align	1
 1278              		.p2align 2,,3
 1279              		.global	_ZN5daisy5Dubby10DrawBitmapEi
ARM GAS  /var/folders/1y/_321xjh9623c014x9_qw12rr0000gn/T//ccXZVGQV.s 			page 67


 1280              		.syntax unified
 1281              		.thumb
 1282              		.thumb_func
 1284              	_ZN5daisy5Dubby10DrawBitmapEi:
 1285              	.LVL105:
 1286              	.LFB3751:
 166:Dubby.cpp     ****     display.Fill(false);
 1287              		.loc 2 166 1 is_stmt 1 view -0
 1288              		.cfi_startproc
 1289              		@ args = 0, pretend = 0, frame = 24
 1290              		@ frame_needed = 0, uses_anonymous_args = 0
 166:Dubby.cpp     ****     display.Fill(false);
 1291              		.loc 2 166 1 is_stmt 0 view .LVU316
 1292 0000 0B46     		mov	r3, r1
 1293              	.LBB483:
 1294              	.LBB484:
 1295              	.LBB485:
 366:../../libDaisy//src/dev/oled_ssd130x.h ****         }
 1296              		.loc 4 366 24 view .LVU317
 1297 0002 0021     		movs	r1, #0
 1298              	.LVL106:
 366:../../libDaisy//src/dev/oled_ssd130x.h ****         }
 1299              		.loc 4 366 24 view .LVU318
 1300 0004 4FF48062 		mov	r2, #1024
 1301 0008 9B02     		lsls	r3, r3, #10
 1302              	.LVL107:
 366:../../libDaisy//src/dev/oled_ssd130x.h ****         }
 1303              		.loc 4 366 24 view .LVU319
 1304              	.LBE485:
 1305              	.LBE484:
 1306              	.LBE483:
 166:Dubby.cpp     ****     display.Fill(false);
 1307              		.loc 2 166 1 view .LVU320
 1308 000a 2DE9F04F 		push	{r4, r5, r6, r7, r8, r9, r10, fp, lr}
 1309              		.cfi_def_cfa_offset 36
 1310              		.cfi_offset 4, -36
 1311              		.cfi_offset 5, -32
 1312              		.cfi_offset 6, -28
 1313              		.cfi_offset 7, -24
 1314              		.cfi_offset 8, -20
 1315              		.cfi_offset 9, -16
 1316              		.cfi_offset 10, -12
 1317              		.cfi_offset 11, -8
 1318              		.cfi_offset 14, -4
 1319 000e 8246     		mov	r10, r0
 167:Dubby.cpp     ****     display.SetCursor(30, 30);
 1320              		.loc 2 167 5 is_stmt 1 view .LVU321
 1321              	.LVL108:
 1322              	.LBB490:
 1323              	.LBI483:
  34:../../libDaisy//src/hid/disp/oled_display.h **** 
 1324              		.loc 1 34 10 view .LVU322
 1325              	.LBB488:
 1326              	.LBI484:
 362:../../libDaisy//src/dev/oled_ssd130x.h ****     {
 1327              		.loc 4 362 10 view .LVU323
 1328              	.LBB486:
ARM GAS  /var/folders/1y/_321xjh9623c014x9_qw12rr0000gn/T//ccXZVGQV.s 			page 68


 364:../../libDaisy//src/dev/oled_ssd130x.h ****         {
 1329              		.loc 4 364 29 view .LVU324
 1330              	.LBE486:
 1331              	.LBE488:
 1332              	.LBE490:
 166:Dubby.cpp     ****     display.Fill(false);
 1333              		.loc 2 166 1 is_stmt 0 view .LVU325
 1334 0010 87B0     		sub	sp, sp, #28
 1335              		.cfi_def_cfa_offset 64
 1336 0012 00F59860 		add	r0, r0, #1216
 1337              	.LVL109:
 1338              	.LBB491:
 170:Dubby.cpp     ****         for (int y = 0; y < OLED_HEIGHT; y++) {
 1339              		.loc 2 170 14 view .LVU326
 1340 0016 8B46     		mov	fp, r1
 1341 0018 0293     		str	r3, [sp, #8]
 1342 001a 0390     		str	r0, [sp, #12]
 1343              	.LBE491:
 1344              	.LBB561:
 1345              	.LBB489:
 1346              	.LBB487:
 366:../../libDaisy//src/dev/oled_ssd130x.h ****         }
 1347              		.loc 4 366 24 view .LVU327
 1348 001c FFF7FEFF 		bl	memset
 1349              	.LVL110:
 366:../../libDaisy//src/dev/oled_ssd130x.h ****         }
 1350              		.loc 4 366 24 view .LVU328
 1351              	.LBE487:
 1352              	.LBE489:
 1353              	.LBE561:
 168:Dubby.cpp     ****     
 1354              		.loc 2 168 5 is_stmt 1 view .LVU329
 1355              	.LBB562:
 1356              	.LBI562:
 171:../../libDaisy//src/hid/disp/display.h ****     {
 1357              		.loc 3 171 10 view .LVU330
 1358              	.LBB563:
 173:../../libDaisy//src/hid/disp/display.h ****         currentY_ = (y >= Height()) ? Height() - 1 : y;
 1359              		.loc 3 173 9 view .LVU331
 174:../../libDaisy//src/hid/disp/display.h ****     }
 1360              		.loc 3 174 9 view .LVU332
 173:../../libDaisy//src/hid/disp/display.h ****         currentY_ = (y >= Height()) ? Height() - 1 : y;
 1361              		.loc 3 173 19 is_stmt 0 view .LVU333
 1362 0020 4FF01E13 		mov	r3, #1966110
 1363 0024 CAF8B034 		str	r3, [r10, #1200]
 1364              	.LVL111:
 173:../../libDaisy//src/hid/disp/display.h ****         currentY_ = (y >= Height()) ? Height() - 1 : y;
 1365              		.loc 3 173 19 view .LVU334
 1366              	.LBE563:
 1367              	.LBE562:
 1368              	.LBB564:
 170:Dubby.cpp     ****         for (int y = 0; y < OLED_HEIGHT; y++) {
 1369              		.loc 2 170 23 is_stmt 1 view .LVU335
 1370              	.L71:
 1371              	.LBB492:
 171:Dubby.cpp     ****             // Calculate the index in the array
 1372              		.loc 2 171 27 view .LVU336
ARM GAS  /var/folders/1y/_321xjh9623c014x9_qw12rr0000gn/T//ccXZVGQV.s 			page 69


 1373 0028 0BF59863 		add	r3, fp, #1216
 171:Dubby.cpp     ****             // Calculate the index in the array
 1374              		.loc 2 171 18 is_stmt 0 view .LVU337
 1375 002c 4FF00009 		mov	r9, #0
 1376 0030 0193     		str	r3, [sp, #4]
 1377              	.LVL112:
 1378              	.L68:
 1379              	.LBB493:
 173:Dubby.cpp     **** 
 1380              		.loc 2 173 13 is_stmt 1 view .LVU338
 176:Dubby.cpp     **** 
 1381              		.loc 2 176 13 view .LVU339
 179:Dubby.cpp     **** 
 1382              		.loc 2 179 13 view .LVU340
 1383              	.LBB494:
 179:Dubby.cpp     **** 
 1384              		.loc 2 179 45 view .LVU341
 1385              	.LBB495:
 1386              	.LBB496:
 1387              	.LBB497:
 1388              	.LBB498:
 1389              	.LBB499:
 1390              	.LBB500:
 359:../../libDaisy//src/dev/oled_ssd130x.h ****     }
 1391              		.loc 4 359 55 is_stmt 0 view .LVU342
 1392 0032 09F00702 		and	r2, r9, #7
 1393              	.LBE500:
 1394              	.LBE499:
 1395              	.LBE498:
 1396              	.LBE497:
 1397              	.LBE496:
 1398              	.LBE495:
 1399              	.LBE494:
 176:Dubby.cpp     **** 
 1400              		.loc 2 176 18 view .LVU343
 1401 0036 3B48     		ldr	r0, .L78
 1402              	.LBB534:
 1403              	.LBB530:
 1404              	.LBB524:
 1405              	.LBB518:
 1406              	.LBB512:
 1407              	.LBB506:
 1408              	.LBB501:
 359:../../libDaisy//src/dev/oled_ssd130x.h ****     }
 1409              		.loc 4 359 49 view .LVU344
 1410 0038 0124     		movs	r4, #1
 1411              	.LBE501:
 1412              	.LBE506:
 1413              	.LBE512:
 1414              	.LBE518:
 1415              	.LBE524:
 1416              	.LBE530:
 1417              	.LBE534:
 173:Dubby.cpp     **** 
 1418              		.loc 2 173 17 view .LVU345
 1419 003a 0BEBC911 		add	r1, fp, r9, lsl #7
 1420              	.LBB535:
ARM GAS  /var/folders/1y/_321xjh9623c014x9_qw12rr0000gn/T//ccXZVGQV.s 			page 70


 1421              	.LBB531:
 1422              	.LBB525:
 1423              	.LBB519:
 1424              	.LBB513:
 1425              	.LBB507:
 1426              	.LBB502:
 359:../../libDaisy//src/dev/oled_ssd130x.h ****     }
 1427              		.loc 4 359 28 view .LVU346
 1428 003e 4FEAD903 		lsr	r3, r9, #3
 359:../../libDaisy//src/dev/oled_ssd130x.h ****     }
 1429              		.loc 4 359 49 view .LVU347
 1430 0042 9440     		lsls	r4, r4, r2
 1431              	.LBE502:
 1432              	.LBE507:
 1433              	.LBE513:
 1434              	.LBE519:
 1435              	.LBE525:
 1436              	.LBE531:
 1437              	.LBE535:
 176:Dubby.cpp     **** 
 1438              		.loc 2 176 18 view .LVU348
 1439 0044 00EBE101 		add	r1, r0, r1, asr #3
 1440 0048 0198     		ldr	r0, [sp, #4]
 1441              	.LBB536:
 1442              	.LBB532:
 182:Dubby.cpp     **** 
 1443              		.loc 2 182 31 view .LVU349
 1444 004a 0722     		movs	r2, #7
 1445              	.LBB526:
 1446              	.LBB520:
 1447              	.LBB514:
 1448              	.LBB508:
 1449              	.LBB503:
 359:../../libDaisy//src/dev/oled_ssd130x.h ****     }
 1450              		.loc 4 359 42 view .LVU350
 1451 004c 64B2     		sxtb	r4, r4
 1452 004e 00EBC313 		add	r3, r0, r3, lsl #7
 1453              	.LBE503:
 1454              	.LBE508:
 1455              	.LBE514:
 1456              	.LBE520:
 1457              	.LBE526:
 182:Dubby.cpp     **** 
 1458              		.loc 2 182 31 view .LVU351
 1459 0052 0298     		ldr	r0, [sp, #8]
 1460              	.LBB527:
 1461              	.LBB521:
 1462              	.LBB515:
 1463              	.LBB509:
 1464              	.LBB504:
 359:../../libDaisy//src/dev/oled_ssd130x.h ****     }
 1465              		.loc 4 359 42 view .LVU352
 1466 0054 E543     		mvns	r5, r4
 1467              	.LBE504:
 1468              	.LBE509:
 1469              	.LBE515:
 1470              	.LBE521:
ARM GAS  /var/folders/1y/_321xjh9623c014x9_qw12rr0000gn/T//ccXZVGQV.s 			page 71


 1471              	.LBE527:
 182:Dubby.cpp     **** 
 1472              		.loc 2 182 31 view .LVU353
 1473 0056 085C     		ldrb	r0, [r1, r0]	@ zero_extendqisi2
 1474 0058 5344     		add	r3, r3, r10
 1475              	.LVL113:
 1476              	.L65:
 182:Dubby.cpp     **** 
 1477              		.loc 2 182 17 is_stmt 1 discriminator 2 view .LVU354
 184:Dubby.cpp     **** 
 1478              		.loc 2 184 17 discriminator 2 view .LVU355
 186:Dubby.cpp     ****             }
 1479              		.loc 2 186 17 discriminator 2 view .LVU356
 1480              	.LBB528:
 1481              	.LBI496:
 1482              		.loc 1 42 10 discriminator 2 view .LVU357
 1483              	.LBB522:
 1484              	.LBI497:
 352:../../libDaisy//src/dev/oled_ssd130x.h ****     {
 1485              		.loc 4 352 10 discriminator 2 view .LVU358
 1486              	.LBB516:
 1487              	.LBB510:
 1488              	.LBI499:
 352:../../libDaisy//src/dev/oled_ssd130x.h ****     {
 1489              		.loc 4 352 10 discriminator 2 view .LVU359
 352:../../libDaisy//src/dev/oled_ssd130x.h ****     {
 1490              		.loc 4 352 10 is_stmt 0 discriminator 2 view .LVU360
 1491              	.LBE510:
 1492              	.LBE516:
 1493              	.LBE522:
 1494              	.LBE528:
 182:Dubby.cpp     **** 
 1495              		.loc 2 182 36 discriminator 2 view .LVU361
 1496 005a 40FA02F1 		asr	r1, r0, r2
 1497              	.LBE532:
 179:Dubby.cpp     **** 
 1498              		.loc 2 179 45 discriminator 2 view .LVU362
 1499 005e 013A     		subs	r2, r2, #1
 1500 0060 0133     		adds	r3, r3, #1
 1501              	.LBB533:
 1502              	.LBB529:
 1503              	.LBB523:
 1504              	.LBB517:
 356:../../libDaisy//src/dev/oled_ssd130x.h ****             buffer_[x + (y / 8) * width] |= (1 << (y % 8));
 1505              		.loc 4 356 9 discriminator 2 view .LVU363
 1506 0062 11F0010F 		tst	r1, #1
 357:../../libDaisy//src/dev/oled_ssd130x.h ****         else
 1507              		.loc 4 357 42 discriminator 2 view .LVU364
 1508 0066 13F8011C 		ldrb	r1, [r3, #-1]	@ zero_extendqisi2
 1509 006a 14BF     		ite	ne
 1510 006c 2143     		orrne	r1, r1, r4
 1511              	.LBB511:
 1512              	.LBB505:
 359:../../libDaisy//src/dev/oled_ssd130x.h ****     }
 1513              		.loc 4 359 42 discriminator 2 view .LVU365
 1514 006e 2940     		andeq	r1, r1, r5
 1515 0070 03F8011C 		strb	r1, [r3, #-1]
ARM GAS  /var/folders/1y/_321xjh9623c014x9_qw12rr0000gn/T//ccXZVGQV.s 			page 72


 1516              	.LVL114:
 359:../../libDaisy//src/dev/oled_ssd130x.h ****     }
 1517              		.loc 4 359 42 discriminator 2 view .LVU366
 1518              	.LBE505:
 1519              	.LBE511:
 1520              	.LBE517:
 1521              	.LBE523:
 1522              	.LBE529:
 1523              	.LBE533:
 179:Dubby.cpp     **** 
 1524              		.loc 2 179 13 is_stmt 1 discriminator 2 view .LVU367
 179:Dubby.cpp     **** 
 1525              		.loc 2 179 45 discriminator 2 view .LVU368
 1526 0074 511C     		adds	r1, r2, #1
 1527 0076 F0D1     		bne	.L65
 1528              	.LBE536:
 189:Dubby.cpp     ****         }
 1529              		.loc 2 189 13 view .LVU369
 1530              	.LBB537:
 1531 0078 2B4B     		ldr	r3, .L78+4
 1532              	.LBE537:
 1533 007a 2C4A     		ldr	r2, .L78+8
 1534              	.LBB538:
 1535 007c 03FB09F3 		mul	r3, r3, r9
 1536              	.LBE538:
 1537 0080 B2EB730F 		cmp	r2, r3, ror #1
 1538 0084 0CD2     		bcs	.L66
 1539              	.L69:
 189:Dubby.cpp     ****         }
 1540              		.loc 2 189 13 is_stmt 0 view .LVU370
 1541              	.LBE493:
 171:Dubby.cpp     ****             // Calculate the index in the array
 1542              		.loc 2 171 9 is_stmt 1 view .LVU371
 1543 0086 09F10109 		add	r9, r9, #1
 1544              	.LVL115:
 171:Dubby.cpp     ****             // Calculate the index in the array
 1545              		.loc 2 171 27 view .LVU372
 1546 008a B9F1400F 		cmp	r9, #64
 1547 008e D0D1     		bne	.L68
 1548              	.LBE492:
 170:Dubby.cpp     ****         for (int y = 0; y < OLED_HEIGHT; y++) {
 1549              		.loc 2 170 5 discriminator 2 view .LVU373
 170:Dubby.cpp     ****         for (int y = 0; y < OLED_HEIGHT; y++) {
 1550              		.loc 2 170 39 is_stmt 0 discriminator 2 view .LVU374
 1551 0090 0BF1080B 		add	fp, fp, #8
 1552              	.LVL116:
 170:Dubby.cpp     ****         for (int y = 0; y < OLED_HEIGHT; y++) {
 1553              		.loc 2 170 23 is_stmt 1 discriminator 2 view .LVU375
 1554 0094 BBF1800F 		cmp	fp, #128
 1555 0098 C6D1     		bne	.L71
 1556              	.LBE564:
 192:Dubby.cpp     **** 
 1557              		.loc 2 192 1 is_stmt 0 view .LVU376
 1558 009a 07B0     		add	sp, sp, #28
 1559              		.cfi_remember_state
 1560              		.cfi_def_cfa_offset 36
 1561              		@ sp needed
ARM GAS  /var/folders/1y/_321xjh9623c014x9_qw12rr0000gn/T//ccXZVGQV.s 			page 73


 1562 009c BDE8F08F 		pop	{r4, r5, r6, r7, r8, r9, r10, fp, pc}
 1563              	.LVL117:
 1564              	.L66:
 1565              		.cfi_restore_state
 1566              	.LBB565:
 1567              	.LBB560:
 1568              	.LBB559:
 1569              	.LBB539:
 1570              	.LBB540:
 1571              	.LBB541:
 1572              	.LBB542:
 1573              	.LBB543:
 124:../../libDaisy//src/dev/oled_ssd130x.h ****         spi_.BlockingTransmit(&cmd, 1);
 1574              		.loc 4 124 24 view .LVU377
 1575 00a0 0AF2B446 		addw	r6, r10, #1204
 1576 00a4 0AF2BC45 		addw	r5, r10, #1212
 1577 00a8 DDF80C80 		ldr	r8, [sp, #12]
 125:../../libDaisy//src/dev/oled_ssd130x.h ****     };
 1578              		.loc 4 125 30 view .LVU378
 1579 00ac B024     		movs	r4, #176
 1580              	.L70:
 1581              	.LVL118:
 124:../../libDaisy//src/dev/oled_ssd130x.h ****         spi_.BlockingTransmit(&cmd, 1);
 1582              		.loc 4 124 23 view .LVU379
 1583 00ae 0021     		movs	r1, #0
 1584 00b0 2846     		mov	r0, r5
 1585 00b2 8DF81740 		strb	r4, [sp, #23]
 1586              	.LVL119:
 124:../../libDaisy//src/dev/oled_ssd130x.h ****         spi_.BlockingTransmit(&cmd, 1);
 1587              		.loc 4 124 23 view .LVU380
 1588              	.LBE543:
 1589              	.LBI542:
 122:../../libDaisy//src/dev/oled_ssd130x.h ****     {
 1590              		.loc 4 122 10 is_stmt 1 view .LVU381
 1591              	.LBB544:
 124:../../libDaisy//src/dev/oled_ssd130x.h ****         spi_.BlockingTransmit(&cmd, 1);
 1592              		.loc 4 124 9 view .LVU382
 1593              	.LBE544:
 1594              	.LBE542:
 1595              		.loc 4 383 22 is_stmt 0 view .LVU383
 1596 00b6 0134     		adds	r4, r4, #1
 1597              	.LVL120:
 1598              		.loc 4 383 22 view .LVU384
 1599 00b8 0F46     		mov	r7, r1
 1600              	.LBB546:
 1601              	.LBB545:
 124:../../libDaisy//src/dev/oled_ssd130x.h ****         spi_.BlockingTransmit(&cmd, 1);
 1602              		.loc 4 124 23 view .LVU385
 1603 00ba FFF7FEFF 		bl	dsy_gpio_write
 1604              	.LVL121:
 125:../../libDaisy//src/dev/oled_ssd130x.h ****     };
 1605              		.loc 4 125 9 is_stmt 1 view .LVU386
 125:../../libDaisy//src/dev/oled_ssd130x.h ****     };
 1606              		.loc 4 125 30 is_stmt 0 view .LVU387
 1607 00be 6423     		movs	r3, #100
 1608 00c0 0122     		movs	r2, #1
 1609 00c2 0DF11701 		add	r1, sp, #23
ARM GAS  /var/folders/1y/_321xjh9623c014x9_qw12rr0000gn/T//ccXZVGQV.s 			page 74


 1610 00c6 3046     		mov	r0, r6
 1611 00c8 FFF7FEFF 		bl	_ZN5daisy9SpiHandle16BlockingTransmitEPhjm
 1612              	.LVL122:
 125:../../libDaisy//src/dev/oled_ssd130x.h ****     };
 1613              		.loc 4 125 30 view .LVU388
 1614              	.LBE545:
 1615              	.LBE546:
 1616              	.LBB547:
 1617              	.LBB548:
 124:../../libDaisy//src/dev/oled_ssd130x.h ****         spi_.BlockingTransmit(&cmd, 1);
 1618              		.loc 4 124 23 view .LVU389
 1619 00cc 3946     		mov	r1, r7
 1620 00ce 2846     		mov	r0, r5
 1621 00d0 8DF81770 		strb	r7, [sp, #23]
 1622              	.LVL123:
 124:../../libDaisy//src/dev/oled_ssd130x.h ****         spi_.BlockingTransmit(&cmd, 1);
 1623              		.loc 4 124 23 view .LVU390
 1624              	.LBE548:
 1625              	.LBI547:
 122:../../libDaisy//src/dev/oled_ssd130x.h ****     {
 1626              		.loc 4 122 10 is_stmt 1 view .LVU391
 1627              	.LBB549:
 124:../../libDaisy//src/dev/oled_ssd130x.h ****         spi_.BlockingTransmit(&cmd, 1);
 1628              		.loc 4 124 9 view .LVU392
 124:../../libDaisy//src/dev/oled_ssd130x.h ****         spi_.BlockingTransmit(&cmd, 1);
 1629              		.loc 4 124 23 is_stmt 0 view .LVU393
 1630 00d4 FFF7FEFF 		bl	dsy_gpio_write
 1631              	.LVL124:
 125:../../libDaisy//src/dev/oled_ssd130x.h ****     };
 1632              		.loc 4 125 9 is_stmt 1 view .LVU394
 125:../../libDaisy//src/dev/oled_ssd130x.h ****     };
 1633              		.loc 4 125 30 is_stmt 0 view .LVU395
 1634 00d8 0122     		movs	r2, #1
 1635 00da 6423     		movs	r3, #100
 1636 00dc 0DF11701 		add	r1, sp, #23
 1637 00e0 3046     		mov	r0, r6
 1638              	.LBE549:
 1639              	.LBE547:
 1640              		.loc 4 383 22 view .LVU396
 1641 00e2 E4B2     		uxtb	r4, r4
 1642              	.LBB551:
 1643              	.LBB550:
 125:../../libDaisy//src/dev/oled_ssd130x.h ****     };
 1644              		.loc 4 125 30 view .LVU397
 1645 00e4 FFF7FEFF 		bl	_ZN5daisy9SpiHandle16BlockingTransmitEPhjm
 1646              	.LVL125:
 125:../../libDaisy//src/dev/oled_ssd130x.h ****     };
 1647              		.loc 4 125 30 view .LVU398
 1648 00e8 1023     		movs	r3, #16
 1649              	.LBE550:
 1650              	.LBE551:
 1651              	.LBB552:
 1652              	.LBB553:
 124:../../libDaisy//src/dev/oled_ssd130x.h ****         spi_.BlockingTransmit(&cmd, 1);
 1653              		.loc 4 124 23 view .LVU399
 1654 00ea 3946     		mov	r1, r7
 1655 00ec 2846     		mov	r0, r5
ARM GAS  /var/folders/1y/_321xjh9623c014x9_qw12rr0000gn/T//ccXZVGQV.s 			page 75


 1656 00ee 8DF81730 		strb	r3, [sp, #23]
 1657              	.LVL126:
 124:../../libDaisy//src/dev/oled_ssd130x.h ****         spi_.BlockingTransmit(&cmd, 1);
 1658              		.loc 4 124 23 view .LVU400
 1659              	.LBE553:
 1660              	.LBI552:
 122:../../libDaisy//src/dev/oled_ssd130x.h ****     {
 1661              		.loc 4 122 10 is_stmt 1 view .LVU401
 1662              	.LBB554:
 124:../../libDaisy//src/dev/oled_ssd130x.h ****         spi_.BlockingTransmit(&cmd, 1);
 1663              		.loc 4 124 9 view .LVU402
 124:../../libDaisy//src/dev/oled_ssd130x.h ****         spi_.BlockingTransmit(&cmd, 1);
 1664              		.loc 4 124 23 is_stmt 0 view .LVU403
 1665 00f2 FFF7FEFF 		bl	dsy_gpio_write
 1666              	.LVL127:
 125:../../libDaisy//src/dev/oled_ssd130x.h ****     };
 1667              		.loc 4 125 9 is_stmt 1 view .LVU404
 125:../../libDaisy//src/dev/oled_ssd130x.h ****     };
 1668              		.loc 4 125 30 is_stmt 0 view .LVU405
 1669 00f6 6423     		movs	r3, #100
 1670 00f8 0122     		movs	r2, #1
 1671 00fa 0DF11701 		add	r1, sp, #23
 1672 00fe 3046     		mov	r0, r6
 1673 0100 FFF7FEFF 		bl	_ZN5daisy9SpiHandle16BlockingTransmitEPhjm
 1674              	.LVL128:
 125:../../libDaisy//src/dev/oled_ssd130x.h ****     };
 1675              		.loc 4 125 30 view .LVU406
 1676              	.LBE554:
 1677              	.LBE552:
 1678              	.LBB555:
 1679              	.LBI555:
 128:../../libDaisy//src/dev/oled_ssd130x.h ****     {
 1680              		.loc 4 128 10 is_stmt 1 view .LVU407
 1681              	.LBB556:
 130:../../libDaisy//src/dev/oled_ssd130x.h ****         spi_.BlockingTransmit(buff, size);
 1682              		.loc 4 130 9 view .LVU408
 130:../../libDaisy//src/dev/oled_ssd130x.h ****         spi_.BlockingTransmit(buff, size);
 1683              		.loc 4 130 23 is_stmt 0 view .LVU409
 1684 0104 0121     		movs	r1, #1
 1685 0106 2846     		mov	r0, r5
 1686 0108 FFF7FEFF 		bl	dsy_gpio_write
 1687              	.LVL129:
 131:../../libDaisy//src/dev/oled_ssd130x.h ****     };
 1688              		.loc 4 131 9 is_stmt 1 view .LVU410
 131:../../libDaisy//src/dev/oled_ssd130x.h ****     };
 1689              		.loc 4 131 30 is_stmt 0 view .LVU411
 1690 010c 4146     		mov	r1, r8
 1691 010e 6423     		movs	r3, #100
 1692 0110 8022     		movs	r2, #128
 1693 0112 3046     		mov	r0, r6
 1694              	.LBE556:
 1695              	.LBE555:
 1696              		.loc 4 383 22 view .LVU412
 1697 0114 08F18008 		add	r8, r8, #128
 1698              	.LVL130:
 1699              	.LBB558:
 1700              	.LBB557:
ARM GAS  /var/folders/1y/_321xjh9623c014x9_qw12rr0000gn/T//ccXZVGQV.s 			page 76


 131:../../libDaisy//src/dev/oled_ssd130x.h ****     };
 1701              		.loc 4 131 30 view .LVU413
 1702 0118 FFF7FEFF 		bl	_ZN5daisy9SpiHandle16BlockingTransmitEPhjm
 1703              	.LVL131:
 131:../../libDaisy//src/dev/oled_ssd130x.h ****     };
 1704              		.loc 4 131 30 view .LVU414
 1705              	.LBE557:
 1706              	.LBE558:
 1707              		.loc 4 383 9 is_stmt 1 view .LVU415
 1708              		.loc 4 383 22 view .LVU416
 1709 011c B82C     		cmp	r4, #184
 1710 011e C6D1     		bne	.L70
 1711 0120 B1E7     		b	.L69
 1712              	.L79:
 1713 0122 00BF     		.align	2
 1714              	.L78:
 1715 0124 00000000 		.word	.LANCHOR0
 1716 0128 ABAAAAAA 		.word	-1431655765
 1717 012c AAAAAA2A 		.word	715827882
 1718              	.LBE541:
 1719              	.LBE540:
 1720              	.LBE539:
 1721              	.LBE559:
 1722              	.LBE560:
 1723              	.LBE565:
 1724              		.cfi_endproc
 1725              	.LFE3751:
 1727              		.section	.text._ZN5daisy5Dubby8DrawLogoEv,"ax",%progbits
 1728              		.align	1
 1729              		.p2align 2,,3
 1730              		.global	_ZN5daisy5Dubby8DrawLogoEv
 1731              		.syntax unified
 1732              		.thumb
 1733              		.thumb_func
 1735              	_ZN5daisy5Dubby8DrawLogoEv:
 1736              	.LVL132:
 1737              	.LFB3750:
 161:Dubby.cpp     ****     DrawBitmap(0);   
 1738              		.loc 2 161 1 view -0
 1739              		.cfi_startproc
 1740              		@ args = 0, pretend = 0, frame = 0
 1741              		@ frame_needed = 0, uses_anonymous_args = 0
 1742              		@ link register save eliminated.
 162:Dubby.cpp     **** }
 1743              		.loc 2 162 5 view .LVU418
 162:Dubby.cpp     **** }
 1744              		.loc 2 162 15 is_stmt 0 view .LVU419
 1745 0000 0021     		movs	r1, #0
 1746 0002 FFF7FEBF 		b	_ZN5daisy5Dubby10DrawBitmapEi
 1747              	.LVL133:
 162:Dubby.cpp     **** }
 1748              		.loc 2 162 15 view .LVU420
 1749              		.cfi_endproc
 1750              	.LFE3750:
 1752 0006 00BF     		.section	.text._ZN5daisy5Dubby9UpdateBarEi,"ax",%progbits
 1753              		.align	1
 1754              		.p2align 2,,3
ARM GAS  /var/folders/1y/_321xjh9623c014x9_qw12rr0000gn/T//ccXZVGQV.s 			page 77


 1755              		.global	_ZN5daisy5Dubby9UpdateBarEi
 1756              		.syntax unified
 1757              		.thumb
 1758              		.thumb_func
 1760              	_ZN5daisy5Dubby9UpdateBarEi:
 1761              	.LVL134:
 1762              	.LFB3757:
 279:Dubby.cpp     ****     display.DrawRect((i * 32)  + margin, 1, ((i + 1) * 31) - margin, 51, false, true);
 1763              		.loc 2 279 1 is_stmt 1 view -0
 1764              		.cfi_startproc
 1765              		@ args = 0, pretend = 0, frame = 48
 1766              		@ frame_needed = 0, uses_anonymous_args = 0
 280:Dubby.cpp     ****     display.DrawRect((i * 32)  + margin, int(abs(1.0f - GetKnobValue(static_cast<Dubby::Ctrl>(i))) 
 1767              		.loc 2 280 5 view .LVU422
 279:Dubby.cpp     ****     display.DrawRect((i * 32)  + margin, 1, ((i + 1) * 31) - margin, 51, false, true);
 1768              		.loc 2 279 1 is_stmt 0 view .LVU423
 1769 0000 2DE9F04F 		push	{r4, r5, r6, r7, r8, r9, r10, fp, lr}
 1770              		.cfi_def_cfa_offset 36
 1771              		.cfi_offset 4, -36
 1772              		.cfi_offset 5, -32
 1773              		.cfi_offset 6, -28
 1774              		.cfi_offset 7, -24
 1775              		.cfi_offset 8, -20
 1776              		.cfi_offset 9, -16
 1777              		.cfi_offset 10, -12
 1778              		.cfi_offset 11, -8
 1779              		.cfi_offset 14, -4
 280:Dubby.cpp     ****     display.DrawRect((i * 32)  + margin, int(abs(1.0f - GetKnobValue(static_cast<Dubby::Ctrl>(i))) 
 1780              		.loc 2 280 34 view .LVU424
 1781 0004 00F59033 		add	r3, r0, #73728
 279:Dubby.cpp     ****     display.DrawRect((i * 32)  + margin, 1, ((i + 1) * 31) - margin, 51, false, true);
 1782              		.loc 2 279 1 view .LVU425
 1783 0008 8DB0     		sub	sp, sp, #52
 1784              		.cfi_def_cfa_offset 88
 280:Dubby.cpp     ****     display.DrawRect((i * 32)  + margin, int(abs(1.0f - GetKnobValue(static_cast<Dubby::Ctrl>(i))) 
 1785              		.loc 2 280 25 view .LVU426
 1786 000a 4A01     		lsls	r2, r1, #5
 280:Dubby.cpp     ****     display.DrawRect((i * 32)  + margin, int(abs(1.0f - GetKnobValue(static_cast<Dubby::Ctrl>(i))) 
 1787              		.loc 2 280 34 view .LVU427
 1788 000c 0993     		str	r3, [sp, #36]
 280:Dubby.cpp     ****     display.DrawRect((i * 32)  + margin, int(abs(1.0f - GetKnobValue(static_cast<Dubby::Ctrl>(i))) 
 1789              		.loc 2 280 25 view .LVU428
 1790 000e 0692     		str	r2, [sp, #24]
 280:Dubby.cpp     ****     display.DrawRect((i * 32)  + margin, int(abs(1.0f - GetKnobValue(static_cast<Dubby::Ctrl>(i))) 
 1791              		.loc 2 280 34 view .LVU429
 1792 0010 D3F8682B 		ldr	r2, [r3, #2920]
 280:Dubby.cpp     ****     display.DrawRect((i * 32)  + margin, int(abs(1.0f - GetKnobValue(static_cast<Dubby::Ctrl>(i))) 
 1793              		.loc 2 280 49 view .LVU430
 1794 0014 4B1C     		adds	r3, r1, #1
 279:Dubby.cpp     ****     display.DrawRect((i * 32)  + margin, 1, ((i + 1) * 31) - margin, 51, false, true);
 1795              		.loc 2 279 1 view .LVU431
 1796 0016 0391     		str	r1, [sp, #12]
 280:Dubby.cpp     ****     display.DrawRect((i * 32)  + margin, int(abs(1.0f - GetKnobValue(static_cast<Dubby::Ctrl>(i))) 
 1797              		.loc 2 280 54 view .LVU432
 1798 0018 C3EB4313 		rsb	r3, r3, r3, lsl #5
 280:Dubby.cpp     ****     display.DrawRect((i * 32)  + margin, int(abs(1.0f - GetKnobValue(static_cast<Dubby::Ctrl>(i))) 
 1799              		.loc 2 280 32 view .LVU433
ARM GAS  /var/folders/1y/_321xjh9623c014x9_qw12rr0000gn/T//ccXZVGQV.s 			page 78


 1800 001c 02EB4115 		add	r5, r2, r1, lsl #5
 280:Dubby.cpp     ****     display.DrawRect((i * 32)  + margin, int(abs(1.0f - GetKnobValue(static_cast<Dubby::Ctrl>(i))) 
 1801              		.loc 2 280 60 view .LVU434
 1802 0020 9A1A     		subs	r2, r3, r2
 280:Dubby.cpp     ****     display.DrawRect((i * 32)  + margin, int(abs(1.0f - GetKnobValue(static_cast<Dubby::Ctrl>(i))) 
 1803              		.loc 2 280 54 view .LVU435
 1804 0022 0793     		str	r3, [sp, #28]
 1805              	.LBB680:
 1806              	.LBB681:
 1807              	.LBB682:
 266:../../libDaisy//src/hid/disp/display.h ****             {
 1808              		.loc 3 266 40 view .LVU436
 1809 0024 9542     		cmp	r5, r2
 1810              	.LBE682:
 1811              	.LBE681:
 1812              	.LBE680:
 280:Dubby.cpp     ****     display.DrawRect((i * 32)  + margin, int(abs(1.0f - GetKnobValue(static_cast<Dubby::Ctrl>(i))) 
 1813              		.loc 2 280 21 view .LVU437
 1814 0026 9446     		mov	ip, r2
 1815              	.LVL135:
 1816              	.LBB699:
 1817              	.LBI680:
 257:../../libDaisy//src/hid/disp/display.h ****                   uint_fast8_t y1,
 1818              		.loc 3 257 10 is_stmt 1 view .LVU438
 1819              	.LBB698:
 1820              	.LBI681:
 257:../../libDaisy//src/hid/disp/display.h ****                   uint_fast8_t y1,
 1821              		.loc 3 257 10 view .LVU439
 1822              	.LBB697:
 266:../../libDaisy//src/hid/disp/display.h ****             {
 1823              		.loc 3 266 40 view .LVU440
 1824 0028 18D8     		bhi	.L87
 1825 002a 2E46     		mov	r6, r5
 1826              	.LVL136:
 1827              	.L82:
 1828              	.LBB683:
 1829              		.loc 3 268 34 is_stmt 0 view .LVU441
 1830 002c 0121     		movs	r1, #1
 1831              	.L86:
 1832              	.LVL137:
 1833              	.LBB684:
 1834              	.LBI684:
 1835              		.loc 1 42 10 is_stmt 1 view .LVU442
 1836              	.LBB685:
 1837              	.LBI685:
 352:../../libDaisy//src/dev/oled_ssd130x.h ****     {
 1838              		.loc 4 352 10 view .LVU443
 1839              	.LBB686:
 1840              	.LBB687:
 1841              	.LBI687:
 352:../../libDaisy//src/dev/oled_ssd130x.h ****     {
 1842              		.loc 4 352 10 view .LVU444
 352:../../libDaisy//src/dev/oled_ssd130x.h ****     {
 1843              		.loc 4 352 10 is_stmt 0 view .LVU445
 1844              	.LBE687:
 1845              	.LBE686:
 1846              	.LBE685:
ARM GAS  /var/folders/1y/_321xjh9623c014x9_qw12rr0000gn/T//ccXZVGQV.s 			page 79


 1847              	.LBE684:
 1848              		.loc 3 268 17 is_stmt 1 view .LVU446
 1849              		.loc 3 268 44 view .LVU447
 1850              	.LBB696:
 1851              	.LBB695:
 1852              	.LBB694:
 1853              	.LBB691:
 1854              	.LBB688:
 359:../../libDaisy//src/dev/oled_ssd130x.h ****     }
 1855              		.loc 4 359 28 is_stmt 0 view .LVU448
 1856 002e CB08     		lsrs	r3, r1, #3
 359:../../libDaisy//src/dev/oled_ssd130x.h ****     }
 1857              		.loc 4 359 55 view .LVU449
 1858 0030 01F00707 		and	r7, r1, #7
 359:../../libDaisy//src/dev/oled_ssd130x.h ****     }
 1859              		.loc 4 359 49 view .LVU450
 1860 0034 0124     		movs	r4, #1
 1861              	.LBE688:
 1862              	.LBE691:
 354:../../libDaisy//src/dev/oled_ssd130x.h ****             return;
 1863              		.loc 4 354 9 view .LVU451
 1864 0036 7F2E     		cmp	r6, #127
 1865              	.LBB692:
 1866              	.LBB689:
 359:../../libDaisy//src/dev/oled_ssd130x.h ****     }
 1867              		.loc 4 359 42 view .LVU452
 1868 0038 06EBC313 		add	r3, r6, r3, lsl #7
 1869 003c 2144     		add	r1, r1, r4
 1870              	.LVL138:
 359:../../libDaisy//src/dev/oled_ssd130x.h ****     }
 1871              		.loc 4 359 49 view .LVU453
 1872 003e 04FA07F4 		lsl	r4, r4, r7
 359:../../libDaisy//src/dev/oled_ssd130x.h ****     }
 1873              		.loc 4 359 42 view .LVU454
 1874 0042 0344     		add	r3, r3, r0
 1875              	.LBE689:
 1876              	.LBE692:
 354:../../libDaisy//src/dev/oled_ssd130x.h ****             return;
 1877              		.loc 4 354 9 view .LVU455
 1878 0044 05D8     		bhi	.L85
 1879              	.LBB693:
 1880              	.LBB690:
 359:../../libDaisy//src/dev/oled_ssd130x.h ****     }
 1881              		.loc 4 359 42 view .LVU456
 1882 0046 93F8C074 		ldrb	r7, [r3, #1216]	@ zero_extendqisi2
 1883 004a 27EA0404 		bic	r4, r7, r4
 1884 004e 83F8C044 		strb	r4, [r3, #1216]
 1885              	.L85:
 1886              	.LBE690:
 1887              	.LBE693:
 1888              	.LBE694:
 1889              	.LBE695:
 1890              	.LBE696:
 1891              		.loc 3 268 44 view .LVU457
 1892 0052 3429     		cmp	r1, #52
 1893 0054 EBD1     		bne	.L86
 1894              	.LBE683:
ARM GAS  /var/folders/1y/_321xjh9623c014x9_qw12rr0000gn/T//ccXZVGQV.s 			page 80


 266:../../libDaisy//src/hid/disp/display.h ****             {
 1895              		.loc 3 266 13 is_stmt 1 view .LVU458
 1896 0056 0136     		adds	r6, r6, #1
 1897              	.LVL139:
 266:../../libDaisy//src/hid/disp/display.h ****             {
 1898              		.loc 3 266 40 view .LVU459
 1899 0058 B242     		cmp	r2, r6
 1900 005a E7D2     		bcs	.L82
 1901              	.LVL140:
 1902              	.L87:
 266:../../libDaisy//src/hid/disp/display.h ****             {
 1903              		.loc 3 266 40 is_stmt 0 view .LVU460
 1904              	.LBE697:
 1905              	.LBE698:
 1906              	.LBE699:
 281:Dubby.cpp     ****     display.DrawRect((i * 32)  + margin, int(abs((currentLevels[i] * 5.0f) - 1.0f) * 51.0f) + 1, ((
 1907              		.loc 2 281 5 is_stmt 1 view .LVU461
 1908              	.LBB700:
 1909              	.LBI700:
 313:Dubby.cpp     **** 
 314:Dubby.cpp     **** void Dubby::DisplayPreferencesMenu()
 315:Dubby.cpp     **** {
 316:Dubby.cpp     ****     display.DrawRect(PANE_X_START, PANE_Y_START, PANE_X_END, PANE_Y_END, false, true);
 317:Dubby.cpp     **** 
 318:Dubby.cpp     ****     for (int i = 0; i < PREFERENCESMENU_LAST; i++)
 319:Dubby.cpp     ****     {
 320:Dubby.cpp     ****         display.SetCursor(5, 3 + (i * 10));
 321:Dubby.cpp     ****         display.WriteString(GetTextForEnum(PREFERENCESMENU, i), Font_6x8, true);
 322:Dubby.cpp     **** 
 323:Dubby.cpp     ****         if (preferencesMenuItemSelected == i)
 324:Dubby.cpp     ****             display.DrawRect(submenuBoxBounding[i][0], submenuBoxBounding[i][1], submenuBoxBounding
 325:Dubby.cpp     ****     }
 326:Dubby.cpp     **** 
 327:Dubby.cpp     ****     display.Update();
 328:Dubby.cpp     **** }
 329:Dubby.cpp     **** 
 330:Dubby.cpp     **** void Dubby::UpdatePreferencesMenu(int increment) 
 331:Dubby.cpp     **** {
 332:Dubby.cpp     ****     if (((preferencesMenuItemSelected >= 0 && increment == 1 && preferencesMenuItemSelected < PREFE
 333:Dubby.cpp     ****     {
 334:Dubby.cpp     ****         preferencesMenuItemSelected = (PreferenesMenuItems)(preferencesMenuItemSelected + increment
 335:Dubby.cpp     ****         
 336:Dubby.cpp     ****         DisplayPreferencesMenu();
 337:Dubby.cpp     ****     }
 338:Dubby.cpp     **** }
 339:Dubby.cpp     **** 
 340:Dubby.cpp     **** void Dubby::ResetToBootloader() 
 341:Dubby.cpp     **** {
 342:Dubby.cpp     ****     DrawBitmap(1);
 343:Dubby.cpp     **** 
 344:Dubby.cpp     ****     display.SetCursor(20, 55);
 345:Dubby.cpp     ****     display.WriteString("FIRMWARE UPDATE", Font_6x8, true);
 346:Dubby.cpp     **** 
 347:Dubby.cpp     ****     display.Update();
 348:Dubby.cpp     **** 
 349:Dubby.cpp     ****     System::ResetToBootloader(System::DAISY_INFINITE_TIMEOUT);
 350:Dubby.cpp     **** }
ARM GAS  /var/folders/1y/_321xjh9623c014x9_qw12rr0000gn/T//ccXZVGQV.s 			page 81


 351:Dubby.cpp     **** 
 352:Dubby.cpp     **** void Dubby::SwitchMIDIOutThru(bool state) 
 353:Dubby.cpp     **** {
 354:Dubby.cpp     ****     // state == true => PIN IS HIGH => MIDI THRU
 355:Dubby.cpp     ****     // state == false => PIN IS LOW => MIDI OUT
 356:Dubby.cpp     ****     dsy_gpio_write(&midi_sw_output, state); 
 357:Dubby.cpp     **** }
 358:Dubby.cpp     **** 
 359:Dubby.cpp     **** void Dubby::InitEncoder()
 360:Dubby.cpp     **** {
 361:Dubby.cpp     ****     encoder.Init(seed.GetPin(PIN_ENC_A),
 362:Dubby.cpp     ****                 seed.GetPin(PIN_ENC_B),
 363:Dubby.cpp     ****                 seed.GetPin(PIN_ENC_CLICK));
 364:Dubby.cpp     **** }
 365:Dubby.cpp     **** 
 366:Dubby.cpp     **** void Dubby::ProcessAllControls()
 367:Dubby.cpp     **** {
 368:Dubby.cpp     ****     ProcessAnalogControls();
 369:Dubby.cpp     ****     ProcessDigitalControls();
 370:Dubby.cpp     **** }
 371:Dubby.cpp     **** 
 372:Dubby.cpp     **** void Dubby::ProcessAnalogControls()
 373:Dubby.cpp     **** {
 374:Dubby.cpp     ****     for(size_t i = 0; i < CTRL_LAST; i++)
 375:Dubby.cpp     ****         analogInputs[i].Process();
 376:Dubby.cpp     **** }
 377:Dubby.cpp     **** 
 378:Dubby.cpp     **** void Dubby::ProcessDigitalControls()
 379:Dubby.cpp     **** {
 380:Dubby.cpp     ****     encoder.Debounce();
 381:Dubby.cpp     **** 
 382:Dubby.cpp     ****     for (int i = 0; i < 4; i++) buttons[i].Debounce();
 383:Dubby.cpp     **** }
 384:Dubby.cpp     **** 
 385:Dubby.cpp     **** float Dubby::GetKnobValue(Ctrl k)
 1910              		.loc 2 385 7 view .LVU462
 1911              	.LBE700:
 386:Dubby.cpp     **** {
 387:Dubby.cpp     ****     return (analogInputs[k].Value());
 1912              		.loc 2 387 5 view .LVU463
 1913              	.LBB707:
 1914              	.LBB701:
 1915              	.LBI701:
 1916              		.file 10 "../../libDaisy//src/hid/ctrl.h"
   1:../../libDaisy//src/hid/ctrl.h **** #pragma once
   2:../../libDaisy//src/hid/ctrl.h **** #ifndef DSY_KNOB_H
   3:../../libDaisy//src/hid/ctrl.h **** #define DSY_KNOB_H /**< & */
   4:../../libDaisy//src/hid/ctrl.h **** #include <stdint.h>
   5:../../libDaisy//src/hid/ctrl.h **** 
   6:../../libDaisy//src/hid/ctrl.h **** #ifdef __cplusplus
   7:../../libDaisy//src/hid/ctrl.h **** namespace daisy
   8:../../libDaisy//src/hid/ctrl.h **** {
   9:../../libDaisy//src/hid/ctrl.h **** /**
  10:../../libDaisy//src/hid/ctrl.h ****     @brief Hardware Interface for control inputs \n 
  11:../../libDaisy//src/hid/ctrl.h ****     Primarily designed for ADC input controls such as \n 
  12:../../libDaisy//src/hid/ctrl.h ****     potentiometers, and control voltage. \n 
  13:../../libDaisy//src/hid/ctrl.h ****     @author Stephen Hensley
ARM GAS  /var/folders/1y/_321xjh9623c014x9_qw12rr0000gn/T//ccXZVGQV.s 			page 82


  14:../../libDaisy//src/hid/ctrl.h ****     @date November 2019
  15:../../libDaisy//src/hid/ctrl.h ****     @ingroup controls
  16:../../libDaisy//src/hid/ctrl.h **** */
  17:../../libDaisy//src/hid/ctrl.h **** class AnalogControl
  18:../../libDaisy//src/hid/ctrl.h **** {
  19:../../libDaisy//src/hid/ctrl.h ****   public:
  20:../../libDaisy//src/hid/ctrl.h ****     /** Constructor */
  21:../../libDaisy//src/hid/ctrl.h ****     AnalogControl() {}
  22:../../libDaisy//src/hid/ctrl.h ****     /** destructor */
  23:../../libDaisy//src/hid/ctrl.h ****     ~AnalogControl() {}
  24:../../libDaisy//src/hid/ctrl.h **** 
  25:../../libDaisy//src/hid/ctrl.h ****     /** 
  26:../../libDaisy//src/hid/ctrl.h ****     Initializes the control
  27:../../libDaisy//src/hid/ctrl.h ****     \param *adcptr is a pointer to the raw adc read value -- This can be acquired with dsy_adc_get_
  28:../../libDaisy//src/hid/ctrl.h ****     \param sr is the samplerate in Hz that the Process function will be called at.
  29:../../libDaisy//src/hid/ctrl.h ****     \param flip determines whether the input is flipped (i.e. 1.f - input) or not before being proc
  30:../../libDaisy//src/hid/ctrl.h ****     \param invert determines whether the input is inverted (i.e. -1.f * input) or note before being
  31:../../libDaisy//src/hid/ctrl.h ****     \param slew_seconds is the slew time in seconds that it takes for the control to change to a ne
  32:../../libDaisy//src/hid/ctrl.h ****     */
  33:../../libDaisy//src/hid/ctrl.h ****     void Init(uint16_t *adcptr,
  34:../../libDaisy//src/hid/ctrl.h ****               float     sr,
  35:../../libDaisy//src/hid/ctrl.h ****               bool      flip         = false,
  36:../../libDaisy//src/hid/ctrl.h ****               bool      invert       = false,
  37:../../libDaisy//src/hid/ctrl.h ****               float     slew_seconds = 0.002f);
  38:../../libDaisy//src/hid/ctrl.h **** 
  39:../../libDaisy//src/hid/ctrl.h ****     /** 
  40:../../libDaisy//src/hid/ctrl.h ****     This Initializes the AnalogControl for a -5V to 5V inverted input
  41:../../libDaisy//src/hid/ctrl.h ****     All of the Init details are the same otherwise
  42:../../libDaisy//src/hid/ctrl.h ****     \param *adcptr Pointer to analog digital converter
  43:../../libDaisy//src/hid/ctrl.h ****     \param sr Audio engine sample rate
  44:../../libDaisy//src/hid/ctrl.h ****     */
  45:../../libDaisy//src/hid/ctrl.h ****     void InitBipolarCv(uint16_t *adcptr, float sr);
  46:../../libDaisy//src/hid/ctrl.h **** 
  47:../../libDaisy//src/hid/ctrl.h ****     /** 
  48:../../libDaisy//src/hid/ctrl.h ****     Filters, and transforms a raw ADC read into a normalized range.
  49:../../libDaisy//src/hid/ctrl.h ****     this should be called at the rate of specified by samplerate at Init time.   
  50:../../libDaisy//src/hid/ctrl.h ****     Default Initializations will return 0.0 -> 1.0
  51:../../libDaisy//src/hid/ctrl.h ****     Bi-polar CV inputs will return -1.0 -> 1.0
  52:../../libDaisy//src/hid/ctrl.h ****     */
  53:../../libDaisy//src/hid/ctrl.h ****     float Process();
  54:../../libDaisy//src/hid/ctrl.h **** 
  55:../../libDaisy//src/hid/ctrl.h ****     /** Returns the current stored value, without reprocessing */
  56:../../libDaisy//src/hid/ctrl.h ****     inline float Value() const { return val_; }
 1917              		.loc 10 56 18 view .LVU464
 1918              	.LBB702:
 1919              		.loc 10 56 34 view .LVU465
 1920              		.loc 10 56 34 is_stmt 0 view .LVU466
 1921              	.LBE702:
 1922              	.LBE701:
 1923              	.LBE707:
 1924              	.LBB708:
 1925              	.LBI708:
 1926              		.file 11 "/Library/DaisyToolchain/0.2.0/arm/arm-none-eabi/include/c++/10.3.1/bits/std_abs.h"
   1:/Library/DaisyToolchain/0.2.0/arm/arm-none-eabi/include/c++/10.3.1/bits/std_abs.h **** // -*- C++ -*- C library enhancements header.
   2:/Library/DaisyToolchain/0.2.0/arm/arm-none-eabi/include/c++/10.3.1/bits/std_abs.h **** 
   3:/Library/DaisyToolchain/0.2.0/arm/arm-none-eabi/include/c++/10.3.1/bits/std_abs.h **** // Copyright (C) 2016-2020 Free Software Foundation, Inc.
   4:/Library/DaisyToolchain/0.2.0/arm/arm-none-eabi/include/c++/10.3.1/bits/std_abs.h **** //
ARM GAS  /var/folders/1y/_321xjh9623c014x9_qw12rr0000gn/T//ccXZVGQV.s 			page 83


   5:/Library/DaisyToolchain/0.2.0/arm/arm-none-eabi/include/c++/10.3.1/bits/std_abs.h **** // This file is part of the GNU ISO C++ Library.  This library is free
   6:/Library/DaisyToolchain/0.2.0/arm/arm-none-eabi/include/c++/10.3.1/bits/std_abs.h **** // software; you can redistribute it and/or modify it under the
   7:/Library/DaisyToolchain/0.2.0/arm/arm-none-eabi/include/c++/10.3.1/bits/std_abs.h **** // terms of the GNU General Public License as published by the
   8:/Library/DaisyToolchain/0.2.0/arm/arm-none-eabi/include/c++/10.3.1/bits/std_abs.h **** // Free Software Foundation; either version 3, or (at your option)
   9:/Library/DaisyToolchain/0.2.0/arm/arm-none-eabi/include/c++/10.3.1/bits/std_abs.h **** // any later version.
  10:/Library/DaisyToolchain/0.2.0/arm/arm-none-eabi/include/c++/10.3.1/bits/std_abs.h **** 
  11:/Library/DaisyToolchain/0.2.0/arm/arm-none-eabi/include/c++/10.3.1/bits/std_abs.h **** // This library is distributed in the hope that it will be useful,
  12:/Library/DaisyToolchain/0.2.0/arm/arm-none-eabi/include/c++/10.3.1/bits/std_abs.h **** // but WITHOUT ANY WARRANTY; without even the implied warranty of
  13:/Library/DaisyToolchain/0.2.0/arm/arm-none-eabi/include/c++/10.3.1/bits/std_abs.h **** // MERCHANTABILITY or FITNESS FOR A PARTICULAR PURPOSE.  See the
  14:/Library/DaisyToolchain/0.2.0/arm/arm-none-eabi/include/c++/10.3.1/bits/std_abs.h **** // GNU General Public License for more details.
  15:/Library/DaisyToolchain/0.2.0/arm/arm-none-eabi/include/c++/10.3.1/bits/std_abs.h **** 
  16:/Library/DaisyToolchain/0.2.0/arm/arm-none-eabi/include/c++/10.3.1/bits/std_abs.h **** // Under Section 7 of GPL version 3, you are granted additional
  17:/Library/DaisyToolchain/0.2.0/arm/arm-none-eabi/include/c++/10.3.1/bits/std_abs.h **** // permissions described in the GCC Runtime Library Exception, version
  18:/Library/DaisyToolchain/0.2.0/arm/arm-none-eabi/include/c++/10.3.1/bits/std_abs.h **** // 3.1, as published by the Free Software Foundation.
  19:/Library/DaisyToolchain/0.2.0/arm/arm-none-eabi/include/c++/10.3.1/bits/std_abs.h **** 
  20:/Library/DaisyToolchain/0.2.0/arm/arm-none-eabi/include/c++/10.3.1/bits/std_abs.h **** // You should have received a copy of the GNU General Public License and
  21:/Library/DaisyToolchain/0.2.0/arm/arm-none-eabi/include/c++/10.3.1/bits/std_abs.h **** // a copy of the GCC Runtime Library Exception along with this program;
  22:/Library/DaisyToolchain/0.2.0/arm/arm-none-eabi/include/c++/10.3.1/bits/std_abs.h **** // see the files COPYING3 and COPYING.RUNTIME respectively.  If not, see
  23:/Library/DaisyToolchain/0.2.0/arm/arm-none-eabi/include/c++/10.3.1/bits/std_abs.h **** // <http://www.gnu.org/licenses/>.
  24:/Library/DaisyToolchain/0.2.0/arm/arm-none-eabi/include/c++/10.3.1/bits/std_abs.h **** 
  25:/Library/DaisyToolchain/0.2.0/arm/arm-none-eabi/include/c++/10.3.1/bits/std_abs.h **** /** @file include/bits/std_abs.h
  26:/Library/DaisyToolchain/0.2.0/arm/arm-none-eabi/include/c++/10.3.1/bits/std_abs.h ****  *  This is an internal header file, included by other library headers.
  27:/Library/DaisyToolchain/0.2.0/arm/arm-none-eabi/include/c++/10.3.1/bits/std_abs.h ****  *  Do not attempt to use it directly. @headername{cmath, cstdlib}
  28:/Library/DaisyToolchain/0.2.0/arm/arm-none-eabi/include/c++/10.3.1/bits/std_abs.h ****  */
  29:/Library/DaisyToolchain/0.2.0/arm/arm-none-eabi/include/c++/10.3.1/bits/std_abs.h **** 
  30:/Library/DaisyToolchain/0.2.0/arm/arm-none-eabi/include/c++/10.3.1/bits/std_abs.h **** #ifndef _GLIBCXX_BITS_STD_ABS_H
  31:/Library/DaisyToolchain/0.2.0/arm/arm-none-eabi/include/c++/10.3.1/bits/std_abs.h **** #define _GLIBCXX_BITS_STD_ABS_H
  32:/Library/DaisyToolchain/0.2.0/arm/arm-none-eabi/include/c++/10.3.1/bits/std_abs.h **** 
  33:/Library/DaisyToolchain/0.2.0/arm/arm-none-eabi/include/c++/10.3.1/bits/std_abs.h **** #pragma GCC system_header
  34:/Library/DaisyToolchain/0.2.0/arm/arm-none-eabi/include/c++/10.3.1/bits/std_abs.h **** 
  35:/Library/DaisyToolchain/0.2.0/arm/arm-none-eabi/include/c++/10.3.1/bits/std_abs.h **** #include <bits/c++config.h>
  36:/Library/DaisyToolchain/0.2.0/arm/arm-none-eabi/include/c++/10.3.1/bits/std_abs.h **** 
  37:/Library/DaisyToolchain/0.2.0/arm/arm-none-eabi/include/c++/10.3.1/bits/std_abs.h **** #define _GLIBCXX_INCLUDE_NEXT_C_HEADERS
  38:/Library/DaisyToolchain/0.2.0/arm/arm-none-eabi/include/c++/10.3.1/bits/std_abs.h **** #include_next <stdlib.h>
  39:/Library/DaisyToolchain/0.2.0/arm/arm-none-eabi/include/c++/10.3.1/bits/std_abs.h **** #ifdef __CORRECT_ISO_CPP_MATH_H_PROTO
  40:/Library/DaisyToolchain/0.2.0/arm/arm-none-eabi/include/c++/10.3.1/bits/std_abs.h **** # include_next <math.h>
  41:/Library/DaisyToolchain/0.2.0/arm/arm-none-eabi/include/c++/10.3.1/bits/std_abs.h **** #endif
  42:/Library/DaisyToolchain/0.2.0/arm/arm-none-eabi/include/c++/10.3.1/bits/std_abs.h **** #undef _GLIBCXX_INCLUDE_NEXT_C_HEADERS
  43:/Library/DaisyToolchain/0.2.0/arm/arm-none-eabi/include/c++/10.3.1/bits/std_abs.h **** 
  44:/Library/DaisyToolchain/0.2.0/arm/arm-none-eabi/include/c++/10.3.1/bits/std_abs.h **** #undef abs
  45:/Library/DaisyToolchain/0.2.0/arm/arm-none-eabi/include/c++/10.3.1/bits/std_abs.h **** 
  46:/Library/DaisyToolchain/0.2.0/arm/arm-none-eabi/include/c++/10.3.1/bits/std_abs.h **** extern "C++"
  47:/Library/DaisyToolchain/0.2.0/arm/arm-none-eabi/include/c++/10.3.1/bits/std_abs.h **** {
  48:/Library/DaisyToolchain/0.2.0/arm/arm-none-eabi/include/c++/10.3.1/bits/std_abs.h **** namespace std _GLIBCXX_VISIBILITY(default)
  49:/Library/DaisyToolchain/0.2.0/arm/arm-none-eabi/include/c++/10.3.1/bits/std_abs.h **** {
  50:/Library/DaisyToolchain/0.2.0/arm/arm-none-eabi/include/c++/10.3.1/bits/std_abs.h **** _GLIBCXX_BEGIN_NAMESPACE_VERSION
  51:/Library/DaisyToolchain/0.2.0/arm/arm-none-eabi/include/c++/10.3.1/bits/std_abs.h **** 
  52:/Library/DaisyToolchain/0.2.0/arm/arm-none-eabi/include/c++/10.3.1/bits/std_abs.h ****   using ::abs;
  53:/Library/DaisyToolchain/0.2.0/arm/arm-none-eabi/include/c++/10.3.1/bits/std_abs.h **** 
  54:/Library/DaisyToolchain/0.2.0/arm/arm-none-eabi/include/c++/10.3.1/bits/std_abs.h **** #ifndef __CORRECT_ISO_CPP_STDLIB_H_PROTO
  55:/Library/DaisyToolchain/0.2.0/arm/arm-none-eabi/include/c++/10.3.1/bits/std_abs.h ****   inline long
  56:/Library/DaisyToolchain/0.2.0/arm/arm-none-eabi/include/c++/10.3.1/bits/std_abs.h ****   abs(long __i) { return __builtin_labs(__i); }
  57:/Library/DaisyToolchain/0.2.0/arm/arm-none-eabi/include/c++/10.3.1/bits/std_abs.h **** #endif
  58:/Library/DaisyToolchain/0.2.0/arm/arm-none-eabi/include/c++/10.3.1/bits/std_abs.h **** 
  59:/Library/DaisyToolchain/0.2.0/arm/arm-none-eabi/include/c++/10.3.1/bits/std_abs.h **** #ifdef _GLIBCXX_USE_LONG_LONG
  60:/Library/DaisyToolchain/0.2.0/arm/arm-none-eabi/include/c++/10.3.1/bits/std_abs.h ****   inline long long
  61:/Library/DaisyToolchain/0.2.0/arm/arm-none-eabi/include/c++/10.3.1/bits/std_abs.h ****   abs(long long __x) { return __builtin_llabs (__x); }
ARM GAS  /var/folders/1y/_321xjh9623c014x9_qw12rr0000gn/T//ccXZVGQV.s 			page 84


  62:/Library/DaisyToolchain/0.2.0/arm/arm-none-eabi/include/c++/10.3.1/bits/std_abs.h **** #endif
  63:/Library/DaisyToolchain/0.2.0/arm/arm-none-eabi/include/c++/10.3.1/bits/std_abs.h **** 
  64:/Library/DaisyToolchain/0.2.0/arm/arm-none-eabi/include/c++/10.3.1/bits/std_abs.h **** // _GLIBCXX_RESOLVE_LIB_DEFECTS
  65:/Library/DaisyToolchain/0.2.0/arm/arm-none-eabi/include/c++/10.3.1/bits/std_abs.h **** // 2192. Validity and return type of std::abs(0u) is unclear
  66:/Library/DaisyToolchain/0.2.0/arm/arm-none-eabi/include/c++/10.3.1/bits/std_abs.h **** // 2294. <cstdlib> should declare abs(double)
  67:/Library/DaisyToolchain/0.2.0/arm/arm-none-eabi/include/c++/10.3.1/bits/std_abs.h **** // 2735. std::abs(short), std::abs(signed char) and others should return int
  68:/Library/DaisyToolchain/0.2.0/arm/arm-none-eabi/include/c++/10.3.1/bits/std_abs.h **** 
  69:/Library/DaisyToolchain/0.2.0/arm/arm-none-eabi/include/c++/10.3.1/bits/std_abs.h **** #ifndef __CORRECT_ISO_CPP_MATH_H_PROTO
  70:/Library/DaisyToolchain/0.2.0/arm/arm-none-eabi/include/c++/10.3.1/bits/std_abs.h ****   inline _GLIBCXX_CONSTEXPR double
  71:/Library/DaisyToolchain/0.2.0/arm/arm-none-eabi/include/c++/10.3.1/bits/std_abs.h ****   abs(double __x)
  72:/Library/DaisyToolchain/0.2.0/arm/arm-none-eabi/include/c++/10.3.1/bits/std_abs.h ****   { return __builtin_fabs(__x); }
  73:/Library/DaisyToolchain/0.2.0/arm/arm-none-eabi/include/c++/10.3.1/bits/std_abs.h **** 
  74:/Library/DaisyToolchain/0.2.0/arm/arm-none-eabi/include/c++/10.3.1/bits/std_abs.h ****   inline _GLIBCXX_CONSTEXPR float
  75:/Library/DaisyToolchain/0.2.0/arm/arm-none-eabi/include/c++/10.3.1/bits/std_abs.h ****   abs(float __x)
 1927              		.loc 11 75 3 is_stmt 1 view .LVU467
 1928              	.LBB709:
  76:/Library/DaisyToolchain/0.2.0/arm/arm-none-eabi/include/c++/10.3.1/bits/std_abs.h ****   { return __builtin_fabsf(__x); }
 1929              		.loc 11 76 5 view .LVU468
 1930              		.loc 11 76 5 is_stmt 0 view .LVU469
 1931              	.LBE709:
 1932              	.LBE708:
 1933              	.LBB711:
 1934              	.LBB705:
 1935              	.LBB703:
 1936              		.loc 10 56 41 view .LVU470
 1937 005c 9DF80C30 		ldrb	r3, [sp, #12]	@ zero_extendqisi2
 1938              	.LBE703:
 1939              	.LBE705:
 1940              	.LBE711:
 281:Dubby.cpp     ****     display.DrawRect((i * 32)  + margin, int(abs((currentLevels[i] * 5.0f) - 1.0f) * 51.0f) + 1, ((
 1941              		.loc 2 281 49 view .LVU471
 1942 0060 F7EE007A 		vmov.f32	s15, #1.0e+0
 281:Dubby.cpp     ****     display.DrawRect((i * 32)  + margin, int(abs((currentLevels[i] * 5.0f) - 1.0f) * 51.0f) + 1, ((
 1943              		.loc 2 281 100 view .LVU472
 1944 0064 9FEDC97A 		vldr.32	s14, .L185
 1945              	.LBB712:
 1946              	.LBB713:
 1947              	.LBB714:
 227:../../libDaisy//src/hid/disp/display.h ****         int_fast16_t deltaY = abs((int_fast16_t)y2 - (int_fast16_t)y1);
 1948              		.loc 3 227 52 view .LVU473
 1949 0068 A2EB050A 		sub	r10, r2, r5
 1950              	.LBE714:
 1951              	.LBE713:
 1952              	.LBE712:
 1953              	.LBB791:
 1954              	.LBB706:
 1955              	.LBB704:
 1956              		.loc 10 56 41 view .LVU474
 1957 006c 00EB4313 		add	r3, r0, r3, lsl #5
 1958              	.LBE704:
 1959              	.LBE706:
 1960              	.LBE791:
 1961              	.LBB792:
 1962              	.LBB741:
 1963              	.LBB736:
 227:../../libDaisy//src/hid/disp/display.h ****         int_fast16_t deltaY = abs((int_fast16_t)y2 - (int_fast16_t)y1);
 1964              		.loc 3 227 22 view .LVU475
ARM GAS  /var/folders/1y/_321xjh9623c014x9_qw12rr0000gn/T//ccXZVGQV.s 			page 85


 1965 0070 BAF1000F 		cmp	r10, #0
 1966              	.LBE736:
 1967              	.LBE741:
 1968              	.LBE792:
 281:Dubby.cpp     ****     display.DrawRect((i * 32)  + margin, int(abs((currentLevels[i] * 5.0f) - 1.0f) * 51.0f) + 1, ((
 1969              		.loc 2 281 49 view .LVU476
 1970 0074 D3ED4C6A 		vldr.32	s13, [r3, #304]
 1971              	.LBB793:
 1972              	.LBB742:
 1973              	.LBB737:
 227:../../libDaisy//src/hid/disp/display.h ****         int_fast16_t deltaY = abs((int_fast16_t)y2 - (int_fast16_t)y1);
 1974              		.loc 3 227 22 view .LVU477
 1975 0078 B8BF     		it	lt
 1976 007a CAF1000A 		rsblt	r10, r10, #0
 229:../../libDaisy//src/hid/disp/display.h ****         int_fast16_t signY  = ((y1 < y2) ? 1 : -1);
 1977              		.loc 3 229 42 view .LVU478
 1978 007e 9542     		cmp	r5, r2
 1979              	.LBE737:
 1980              	.LBE742:
 1981              	.LBE793:
 281:Dubby.cpp     ****     display.DrawRect((i * 32)  + margin, int(abs((currentLevels[i] * 5.0f) - 1.0f) * 51.0f) + 1, ((
 1982              		.loc 2 281 49 view .LVU479
 1983 0080 77EEE67A 		vsub.f32	s15, s15, s13
 1984              	.LBB794:
 1985              	.LBB710:
 1986              		.loc 11 76 31 view .LVU480
 1987 0084 F0EEE77A 		vabs.f32	s15, s15
 1988              	.LBE710:
 1989              	.LBE794:
 281:Dubby.cpp     ****     display.DrawRect((i * 32)  + margin, int(abs((currentLevels[i] * 5.0f) - 1.0f) * 51.0f) + 1, ((
 1990              		.loc 2 281 100 view .LVU481
 1991 0088 67EE877A 		vmul.f32	s15, s15, s14
 281:Dubby.cpp     ****     display.DrawRect((i * 32)  + margin, int(abs((currentLevels[i] * 5.0f) - 1.0f) * 51.0f) + 1, ((
 1992              		.loc 2 281 42 view .LVU482
 1993 008c FDEEE77A 		vcvt.s32.f32	s15, s15
 281:Dubby.cpp     ****     display.DrawRect((i * 32)  + margin, int(abs((currentLevels[i] * 5.0f) - 1.0f) * 51.0f) + 1, ((
 1994              		.loc 2 281 109 view .LVU483
 1995 0090 17EE903A 		vmov	r3, s15	@ int
 1996 0094 03F10107 		add	r7, r3, #1
 1997              	.LVL141:
 1998              	.LBB795:
 1999              	.LBI712:
 257:../../libDaisy//src/hid/disp/display.h ****                   uint_fast8_t y1,
 2000              		.loc 3 257 10 is_stmt 1 view .LVU484
 2001              	.LBB743:
 2002              	.LBI713:
 221:../../libDaisy//src/hid/disp/display.h ****                   uint_fast8_t y1,
 2003              		.loc 3 221 10 view .LVU485
 2004              	.LBB738:
 229:../../libDaisy//src/hid/disp/display.h ****         int_fast16_t signY  = ((y1 < y2) ? 1 : -1);
 2005              		.loc 3 229 42 is_stmt 0 view .LVU486
 2006 0098 80F08E81 		bcs	.L184
 2007              	.LVL142:
 2008              	.LBB715:
 2009              	.LBI715:
 2010              		.loc 1 42 10 is_stmt 1 view .LVU487
 2011              	.LBB716:
ARM GAS  /var/folders/1y/_321xjh9623c014x9_qw12rr0000gn/T//ccXZVGQV.s 			page 86


 2012              	.LBB717:
 2013              	.LBB718:
 354:../../libDaisy//src/dev/oled_ssd130x.h ****             return;
 2014              		.loc 4 354 14 is_stmt 0 view .LVU488
 2015 009c 7F2A     		cmp	r2, #127
 2016              	.LBE718:
 2017              	.LBE717:
  43:../../libDaisy//src/hid/disp/oled_display.h ****     {
  44:../../libDaisy//src/hid/disp/oled_display.h ****         driver_.DrawPixel(x, y, on);
 2018              		.loc 1 44 26 view .LVU489
 2019 009e 00F2B444 		addw	r4, r0, #1204
 2020              	.LVL143:
 2021              	.LBB722:
 2022              	.LBI717:
 352:../../libDaisy//src/dev/oled_ssd130x.h ****     {
 2023              		.loc 4 352 10 is_stmt 1 view .LVU490
 2024              	.LBE722:
 2025              	.LBE716:
 2026              	.LBE715:
 229:../../libDaisy//src/hid/disp/display.h ****         int_fast16_t signY  = ((y1 < y2) ? 1 : -1);
 2027              		.loc 3 229 42 is_stmt 0 view .LVU491
 2028 00a2 4FF0010B 		mov	fp, #1
 2029              	.LBB730:
 2030              	.LBB727:
 2031              	.LBB723:
 2032              	.LBB719:
 354:../../libDaisy//src/dev/oled_ssd130x.h ****             return;
 2033              		.loc 4 354 14 view .LVU492
 2034 00a6 94BF     		ite	ls
 2035 00a8 0023     		movls	r3, #0
 2036 00aa 0123     		movhi	r3, #1
 354:../../libDaisy//src/dev/oled_ssd130x.h ****             return;
 2037              		.loc 4 354 28 view .LVU493
 2038 00ac 3F2F     		cmp	r7, #63
 354:../../libDaisy//src/dev/oled_ssd130x.h ****             return;
 2039              		.loc 4 354 14 view .LVU494
 2040 00ae 0493     		str	r3, [sp, #16]
 354:../../libDaisy//src/dev/oled_ssd130x.h ****             return;
 2041              		.loc 4 354 28 view .LVU495
 2042 00b0 94BF     		ite	ls
 2043 00b2 0021     		movls	r1, #0
 2044 00b4 0121     		movhi	r1, #1
 2045 00b6 0591     		str	r1, [sp, #20]
 354:../../libDaisy//src/dev/oled_ssd130x.h ****             return;
 2046              		.loc 4 354 9 view .LVU496
 2047 00b8 13B9     		cbnz	r3, .L90
 2048 00ba 0029     		cmp	r1, #0
 2049 00bc 00F08C81 		beq	.L127
 2050              	.LVL144:
 2051              	.L90:
 354:../../libDaisy//src/dev/oled_ssd130x.h ****             return;
 2052              		.loc 4 354 9 view .LVU497
 2053              	.LBE719:
 2054              	.LBE723:
 2055              	.LBE727:
 2056              	.LBE730:
 227:../../libDaisy//src/hid/disp/display.h ****         int_fast16_t deltaY = abs((int_fast16_t)y2 - (int_fast16_t)y1);
ARM GAS  /var/folders/1y/_321xjh9623c014x9_qw12rr0000gn/T//ccXZVGQV.s 			page 87


 2057              		.loc 3 227 22 view .LVU498
 2058 00c0 D046     		mov	r8, r10
 2059              	.LBE738:
 2060              	.LBE743:
 2061              	.LBE795:
 281:Dubby.cpp     ****     display.DrawRect((i * 32)  + margin, int(abs((currentLevels[i] * 5.0f) - 1.0f) * 51.0f) + 1, ((
 2062              		.loc 2 281 21 view .LVU499
 2063 00c2 3E46     		mov	r6, r7
 280:Dubby.cpp     ****     display.DrawRect((i * 32)  + margin, int(abs(1.0f - GetKnobValue(static_cast<Dubby::Ctrl>(i))) 
 2064              		.loc 2 280 21 view .LVU500
 2065 00c4 AE46     		mov	lr, r5
 2066              	.L92:
 2067              	.LVL145:
 2068              	.LBB796:
 2069              	.LBB744:
 2070              	.LBB739:
 2071              	.LBB731:
 2072              	.LBI731:
  42:../../libDaisy//src/hid/disp/oled_display.h ****     {
 2073              		.loc 1 42 10 is_stmt 1 view .LVU501
 2074              	.LBB732:
 2075              	.LBI732:
 352:../../libDaisy//src/dev/oled_ssd130x.h ****     {
 2076              		.loc 4 352 10 view .LVU502
 2077              	.LBB733:
 357:../../libDaisy//src/dev/oled_ssd130x.h ****         else
 2078              		.loc 4 357 28 is_stmt 0 view .LVU503
 2079 00c6 F108     		lsrs	r1, r6, #3
 357:../../libDaisy//src/dev/oled_ssd130x.h ****         else
 2080              		.loc 4 357 54 view .LVU504
 2081 00c8 06F00703 		and	r3, r6, #7
 357:../../libDaisy//src/dev/oled_ssd130x.h ****         else
 2082              		.loc 4 357 48 view .LVU505
 2083 00cc 4FF00109 		mov	r9, #1
 354:../../libDaisy//src/dev/oled_ssd130x.h ****             return;
 2084              		.loc 4 354 9 view .LVU506
 2085 00d0 BEF17F0F 		cmp	lr, #127
 357:../../libDaisy//src/dev/oled_ssd130x.h ****         else
 2086              		.loc 4 357 42 view .LVU507
 2087 00d4 0EEBC111 		add	r1, lr, r1, lsl #7
 357:../../libDaisy//src/dev/oled_ssd130x.h ****         else
 2088              		.loc 4 357 48 view .LVU508
 2089 00d8 09FA03F3 		lsl	r3, r9, r3
 354:../../libDaisy//src/dev/oled_ssd130x.h ****             return;
 2090              		.loc 4 354 9 view .LVU509
 2091 00dc 08D8     		bhi	.L93
 2092 00de 3F2E     		cmp	r6, #63
 357:../../libDaisy//src/dev/oled_ssd130x.h ****         else
 2093              		.loc 4 357 42 view .LVU510
 2094 00e0 0144     		add	r1, r1, r0
 354:../../libDaisy//src/dev/oled_ssd130x.h ****             return;
 2095              		.loc 4 354 9 view .LVU511
 2096 00e2 05D8     		bhi	.L93
 357:../../libDaisy//src/dev/oled_ssd130x.h ****         else
 2097              		.loc 4 357 42 view .LVU512
 2098 00e4 91F8C094 		ldrb	r9, [r1, #1216]	@ zero_extendqisi2
 2099 00e8 43EA0903 		orr	r3, r3, r9
ARM GAS  /var/folders/1y/_321xjh9623c014x9_qw12rr0000gn/T//ccXZVGQV.s 			page 88


 2100 00ec 81F8C034 		strb	r3, [r1, #1216]
 2101              	.L93:
 357:../../libDaisy//src/dev/oled_ssd130x.h ****         else
 2102              		.loc 4 357 42 view .LVU513
 2103              	.LBE733:
 2104              	.LBE732:
 2105              	.LBE731:
 243:../../libDaisy//src/hid/disp/display.h ****             {
 2106              		.loc 3 243 13 view .LVU514
 2107 00f0 5FEA4803 		lsls	r3, r8, #1
 246:../../libDaisy//src/hid/disp/display.h ****             }
 2108              		.loc 3 246 20 view .LVU515
 2109 00f4 18BF     		it	ne
 2110 00f6 DE44     		addne	lr, lr, fp
 2111              	.LVL146:
 249:../../libDaisy//src/hid/disp/display.h ****             {
 2112              		.loc 3 249 13 view .LVU516
 2113 00f8 9A45     		cmp	r10, r3
 2114 00fa 01DD     		ble	.L95
 251:../../libDaisy//src/hid/disp/display.h ****                 y1 += signY;
 2115              		.loc 3 251 23 view .LVU517
 2116 00fc D044     		add	r8, r8, r10
 2117              	.LVL147:
 252:../../libDaisy//src/hid/disp/display.h ****             }
 2118              		.loc 3 252 20 view .LVU518
 2119 00fe 013E     		subs	r6, r6, #1
 2120              	.LVL148:
 2121              	.L95:
 239:../../libDaisy//src/hid/disp/display.h ****         {
 2122              		.loc 3 239 26 is_stmt 1 view .LVU519
 2123 0100 7245     		cmp	r2, lr
 2124 0102 E0D1     		bne	.L92
 239:../../libDaisy//src/hid/disp/display.h ****         {
 2125              		.loc 3 239 26 is_stmt 0 view .LVU520
 2126 0104 B742     		cmp	r7, r6
 2127 0106 DED1     		bne	.L92
 2128 0108 0023     		movs	r3, #0
 2129 010a 0893     		str	r3, [sp, #32]
 2130              	.LVL149:
 2131              	.L89:
 239:../../libDaisy//src/hid/disp/display.h ****         {
 2132              		.loc 3 239 26 view .LVU521
 2133              	.LBE739:
 2134              	.LBE744:
 2135              	.LBB745:
 2136              	.LBI745:
 221:../../libDaisy//src/hid/disp/display.h ****                   uint_fast8_t y1,
 2137              		.loc 3 221 10 is_stmt 1 view .LVU522
 2138              	.LBB746:
 228:../../libDaisy//src/hid/disp/display.h ****         int_fast16_t signX  = ((x1 < x2) ? 1 : -1);
 2139              		.loc 3 228 52 is_stmt 0 view .LVU523
 2140 010c C7F13303 		rsb	r3, r7, #51
 230:../../libDaisy//src/hid/disp/display.h ****         int_fast16_t error  = deltaX - deltaY;
 2141              		.loc 3 230 42 view .LVU524
 2142 0110 332F     		cmp	r7, #51
 228:../../libDaisy//src/hid/disp/display.h ****         int_fast16_t signX  = ((x1 < x2) ? 1 : -1);
 2143              		.loc 3 228 22 view .LVU525
ARM GAS  /var/folders/1y/_321xjh9623c014x9_qw12rr0000gn/T//ccXZVGQV.s 			page 89


 2144 0112 83EAE371 		eor	r1, r3, r3, asr #31
 2145 0116 A1EBE371 		sub	r1, r1, r3, asr #31
 2146 011a 0B46     		mov	r3, r1
 230:../../libDaisy//src/hid/disp/display.h ****         int_fast16_t error  = deltaX - deltaY;
 2147              		.loc 3 230 42 view .LVU526
 2148 011c B4BF     		ite	lt
 2149 011e 0123     		movlt	r3, #1
 2150 0120 4FF0FF33 		movge	r3, #-1
 231:../../libDaisy//src/hid/disp/display.h ****         int_fast16_t error2;
 2151              		.loc 3 231 22 view .LVU527
 2152 0124 C1F1000A 		rsb	r10, r1, #0
 228:../../libDaisy//src/hid/disp/display.h ****         int_fast16_t signX  = ((x1 < x2) ? 1 : -1);
 2153              		.loc 3 228 22 view .LVU528
 2154 0128 0191     		str	r1, [sp, #4]
 2155              	.LVL150:
 230:../../libDaisy//src/hid/disp/display.h ****         int_fast16_t error  = deltaX - deltaY;
 2156              		.loc 3 230 42 view .LVU529
 2157 012a 0293     		str	r3, [sp, #8]
 2158              	.LVL151:
 2159              	.LBB747:
 2160              	.LBI747:
  42:../../libDaisy//src/hid/disp/oled_display.h ****     {
 2161              		.loc 1 42 10 is_stmt 1 view .LVU530
 2162              	.LBB748:
 2163              	.LBI748:
 352:../../libDaisy//src/dev/oled_ssd130x.h ****     {
 2164              		.loc 4 352 10 view .LVU531
 2165              	.LBB749:
 354:../../libDaisy//src/dev/oled_ssd130x.h ****             return;
 2166              		.loc 4 354 9 is_stmt 0 view .LVU532
 2167 012c 049B     		ldr	r3, [sp, #16]
 2168              	.LVL152:
 354:../../libDaisy//src/dev/oled_ssd130x.h ****             return;
 2169              		.loc 4 354 9 view .LVU533
 2170 012e 43B9     		cbnz	r3, .L97
 357:../../libDaisy//src/dev/oled_ssd130x.h ****         else
 2171              		.loc 4 357 42 view .LVU534
 2172 0130 02F54073 		add	r3, r2, #768
 2173 0134 0344     		add	r3, r3, r0
 2174 0136 93F8C014 		ldrb	r1, [r3, #1216]	@ zero_extendqisi2
 2175              	.LVL153:
 357:../../libDaisy//src/dev/oled_ssd130x.h ****         else
 2176              		.loc 4 357 42 view .LVU535
 2177 013a 41F00801 		orr	r1, r1, #8
 2178 013e 83F8C014 		strb	r1, [r3, #1216]
 2179              	.L97:
 2180              	.LVL154:
 357:../../libDaisy//src/dev/oled_ssd130x.h ****         else
 2181              		.loc 4 357 42 view .LVU536
 2182              	.LBE749:
 2183              	.LBE748:
 2184              	.LBE747:
 239:../../libDaisy//src/hid/disp/display.h ****         {
 2185              		.loc 3 239 26 is_stmt 1 view .LVU537
 2186 0142 332F     		cmp	r7, #51
 2187 0144 29D0     		beq	.L98
 2188 0146 5646     		mov	r6, r10
ARM GAS  /var/folders/1y/_321xjh9623c014x9_qw12rr0000gn/T//ccXZVGQV.s 			page 90


 2189 0148 3946     		mov	r1, r7
 2190              	.LBE746:
 2191              	.LBE745:
 2192              	.LBE796:
 280:Dubby.cpp     ****     display.DrawRect((i * 32)  + margin, int(abs(1.0f - GetKnobValue(static_cast<Dubby::Ctrl>(i))) 
 2193              		.loc 2 280 21 is_stmt 0 view .LVU538
 2194 014a 9646     		mov	lr, r2
 2195              	.LVL155:
 2196              	.L99:
 2197              	.LBB797:
 2198              	.LBB757:
 2199              	.LBB756:
 2200              	.LBB750:
 2201              	.LBI750:
  42:../../libDaisy//src/hid/disp/oled_display.h ****     {
 2202              		.loc 1 42 10 is_stmt 1 view .LVU539
 2203              	.LBB751:
 2204              	.LBI751:
 352:../../libDaisy//src/dev/oled_ssd130x.h ****     {
 2205              		.loc 4 352 10 view .LVU540
 2206              	.LBB752:
 357:../../libDaisy//src/dev/oled_ssd130x.h ****         else
 2207              		.loc 4 357 48 is_stmt 0 view .LVU541
 2208 014c 4FF0010B 		mov	fp, #1
 357:../../libDaisy//src/dev/oled_ssd130x.h ****         else
 2209              		.loc 4 357 28 view .LVU542
 2210 0150 CB08     		lsrs	r3, r1, #3
 357:../../libDaisy//src/dev/oled_ssd130x.h ****         else
 2211              		.loc 4 357 54 view .LVU543
 2212 0152 01F00708 		and	r8, r1, #7
 354:../../libDaisy//src/dev/oled_ssd130x.h ****             return;
 2213              		.loc 4 354 9 view .LVU544
 2214 0156 BEF17F0F 		cmp	lr, #127
 357:../../libDaisy//src/dev/oled_ssd130x.h ****         else
 2215              		.loc 4 357 42 view .LVU545
 2216 015a 0EEBC313 		add	r3, lr, r3, lsl #7
 2217              	.LBE752:
 2218              	.LBE751:
 2219              	.LBE750:
 242:../../libDaisy//src/hid/disp/display.h ****             if(error2 > -deltaY)
 2220              		.loc 3 242 20 view .LVU546
 2221 015e 06FA0BF9 		lsl	r9, r6, fp
 2222              	.LVL156:
 2223              	.LBB755:
 2224              	.LBB754:
 2225              	.LBB753:
 357:../../libDaisy//src/dev/oled_ssd130x.h ****         else
 2226              		.loc 4 357 48 view .LVU547
 2227 0162 0BFA08F8 		lsl	r8, fp, r8
 354:../../libDaisy//src/dev/oled_ssd130x.h ****             return;
 2228              		.loc 4 354 9 view .LVU548
 2229 0166 08D8     		bhi	.L101
 354:../../libDaisy//src/dev/oled_ssd130x.h ****             return;
 2230              		.loc 4 354 9 view .LVU549
 2231 0168 3F29     		cmp	r1, #63
 357:../../libDaisy//src/dev/oled_ssd130x.h ****         else
 2232              		.loc 4 357 42 view .LVU550
ARM GAS  /var/folders/1y/_321xjh9623c014x9_qw12rr0000gn/T//ccXZVGQV.s 			page 91


 2233 016a 0344     		add	r3, r3, r0
 354:../../libDaisy//src/dev/oled_ssd130x.h ****             return;
 2234              		.loc 4 354 9 view .LVU551
 2235 016c 05D8     		bhi	.L101
 357:../../libDaisy//src/dev/oled_ssd130x.h ****         else
 2236              		.loc 4 357 42 view .LVU552
 2237 016e 93F8C0B4 		ldrb	fp, [r3, #1216]	@ zero_extendqisi2
 2238 0172 48EA0B08 		orr	r8, r8, fp
 2239 0176 83F8C084 		strb	r8, [r3, #1216]
 2240              	.L101:
 357:../../libDaisy//src/dev/oled_ssd130x.h ****         else
 2241              		.loc 4 357 42 view .LVU553
 2242              	.LBE753:
 2243              	.LBE754:
 2244              	.LBE755:
 243:../../libDaisy//src/hid/disp/display.h ****             {
 2245              		.loc 3 243 13 view .LVU554
 2246 017a BAEB460F 		cmp	r10, r6, lsl #1
 2247 017e 03DA     		bge	.L102
 245:../../libDaisy//src/hid/disp/display.h ****                 x1 += signX;
 2248              		.loc 3 245 23 view .LVU555
 2249 0180 019B     		ldr	r3, [sp, #4]
 246:../../libDaisy//src/hid/disp/display.h ****             }
 2250              		.loc 3 246 20 view .LVU556
 2251 0182 0EF1FF3E 		add	lr, lr, #-1
 2252              	.LVL157:
 245:../../libDaisy//src/hid/disp/display.h ****                 x1 += signX;
 2253              		.loc 3 245 23 view .LVU557
 2254 0186 F61A     		subs	r6, r6, r3
 2255              	.LVL158:
 2256              	.L102:
 249:../../libDaisy//src/hid/disp/display.h ****             {
 2257              		.loc 3 249 13 view .LVU558
 2258 0188 B9F1000F 		cmp	r9, #0
 2259 018c 01D0     		beq	.L103
 252:../../libDaisy//src/hid/disp/display.h ****             }
 2260              		.loc 3 252 20 view .LVU559
 2261 018e 029B     		ldr	r3, [sp, #8]
 2262 0190 1944     		add	r1, r1, r3
 2263              	.LVL159:
 2264              	.L103:
 239:../../libDaisy//src/hid/disp/display.h ****         {
 2265              		.loc 3 239 26 is_stmt 1 view .LVU560
 2266 0192 7245     		cmp	r2, lr
 2267 0194 DAD1     		bne	.L99
 239:../../libDaisy//src/hid/disp/display.h ****         {
 2268              		.loc 3 239 26 is_stmt 0 view .LVU561
 2269 0196 3329     		cmp	r1, #51
 2270 0198 D8D1     		bne	.L99
 2271              	.LVL160:
 2272              	.L98:
 239:../../libDaisy//src/hid/disp/display.h ****         {
 2273              		.loc 3 239 26 view .LVU562
 2274              	.LBE756:
 2275              	.LBE757:
 2276              	.LBB758:
 2277              	.LBI758:
ARM GAS  /var/folders/1y/_321xjh9623c014x9_qw12rr0000gn/T//ccXZVGQV.s 			page 92


 221:../../libDaisy//src/hid/disp/display.h ****                   uint_fast8_t y1,
 2278              		.loc 3 221 10 is_stmt 1 view .LVU563
 2279              	.LBB759:
 227:../../libDaisy//src/hid/disp/display.h ****         int_fast16_t deltaY = abs((int_fast16_t)y2 - (int_fast16_t)y1);
 2280              		.loc 3 227 52 is_stmt 0 view .LVU564
 2281 019a A5EB0208 		sub	r8, r5, r2
 229:../../libDaisy//src/hid/disp/display.h ****         int_fast16_t signY  = ((y1 < y2) ? 1 : -1);
 2282              		.loc 3 229 42 view .LVU565
 2283 019e 9542     		cmp	r5, r2
 2284 01a0 8CBF     		ite	hi
 2285 01a2 0122     		movhi	r2, #1
 2286 01a4 4FF0FF32 		movls	r2, #-1
 227:../../libDaisy//src/hid/disp/display.h ****         int_fast16_t deltaY = abs((int_fast16_t)y2 - (int_fast16_t)y1);
 2287              		.loc 3 227 22 view .LVU566
 2288 01a8 B8F1000F 		cmp	r8, #0
 2289 01ac B8BF     		it	lt
 2290 01ae C8F10008 		rsblt	r8, r8, #0
 2291              	.LVL161:
 2292              	.LBB760:
 2293              	.LBI760:
  42:../../libDaisy//src/hid/disp/oled_display.h ****     {
 2294              		.loc 1 42 10 is_stmt 1 view .LVU567
 2295              	.LBB761:
 2296              	.LBI761:
 352:../../libDaisy//src/dev/oled_ssd130x.h ****     {
 2297              		.loc 4 352 10 view .LVU568
 2298              	.LBB762:
 354:../../libDaisy//src/dev/oled_ssd130x.h ****             return;
 2299              		.loc 4 354 9 is_stmt 0 view .LVU569
 2300 01b2 7F2D     		cmp	r5, #127
 2301 01b4 08D8     		bhi	.L105
 357:../../libDaisy//src/dev/oled_ssd130x.h ****         else
 2302              		.loc 4 357 42 view .LVU570
 2303 01b6 05F54073 		add	r3, r5, #768
 2304 01ba 0344     		add	r3, r3, r0
 2305 01bc 93F8C014 		ldrb	r1, [r3, #1216]	@ zero_extendqisi2
 2306 01c0 41F00801 		orr	r1, r1, #8
 2307 01c4 83F8C014 		strb	r1, [r3, #1216]
 2308              	.L105:
 2309              	.LVL162:
 357:../../libDaisy//src/dev/oled_ssd130x.h ****         else
 2310              		.loc 4 357 42 view .LVU571
 2311              	.LBE762:
 2312              	.LBE761:
 2313              	.LBE760:
 239:../../libDaisy//src/hid/disp/display.h ****         {
 2314              		.loc 3 239 26 is_stmt 1 view .LVU572
 2315 01c8 089B     		ldr	r3, [sp, #32]
 2316 01ca 0BBB     		cbnz	r3, .L106
 227:../../libDaisy//src/hid/disp/display.h ****         int_fast16_t deltaY = abs((int_fast16_t)y2 - (int_fast16_t)y1);
 2317              		.loc 3 227 22 is_stmt 0 view .LVU573
 2318 01cc C646     		mov	lr, r8
 239:../../libDaisy//src/hid/disp/display.h ****         {
 2319              		.loc 3 239 26 view .LVU574
 2320 01ce 3326     		movs	r6, #51
 2321              	.LVL163:
 2322              	.L107:
ARM GAS  /var/folders/1y/_321xjh9623c014x9_qw12rr0000gn/T//ccXZVGQV.s 			page 93


 2323              	.LBB763:
 2324              	.LBI763:
  42:../../libDaisy//src/hid/disp/oled_display.h ****     {
 2325              		.loc 1 42 10 is_stmt 1 view .LVU575
 2326              	.LBB764:
 2327              	.LBI764:
 352:../../libDaisy//src/dev/oled_ssd130x.h ****     {
 2328              		.loc 4 352 10 view .LVU576
 2329              	.LBB765:
 357:../../libDaisy//src/dev/oled_ssd130x.h ****         else
 2330              		.loc 4 357 28 is_stmt 0 view .LVU577
 2331 01d0 F308     		lsrs	r3, r6, #3
 357:../../libDaisy//src/dev/oled_ssd130x.h ****         else
 2332              		.loc 4 357 54 view .LVU578
 2333 01d2 06F00709 		and	r9, r6, #7
 357:../../libDaisy//src/dev/oled_ssd130x.h ****         else
 2334              		.loc 4 357 48 view .LVU579
 2335 01d6 0121     		movs	r1, #1
 354:../../libDaisy//src/dev/oled_ssd130x.h ****             return;
 2336              		.loc 4 354 9 view .LVU580
 2337 01d8 BCF17F0F 		cmp	ip, #127
 357:../../libDaisy//src/dev/oled_ssd130x.h ****         else
 2338              		.loc 4 357 42 view .LVU581
 2339 01dc 0CEBC313 		add	r3, ip, r3, lsl #7
 357:../../libDaisy//src/dev/oled_ssd130x.h ****         else
 2340              		.loc 4 357 48 view .LVU582
 2341 01e0 01FA09F1 		lsl	r1, r1, r9
 354:../../libDaisy//src/dev/oled_ssd130x.h ****             return;
 2342              		.loc 4 354 9 view .LVU583
 2343 01e4 08D8     		bhi	.L109
 354:../../libDaisy//src/dev/oled_ssd130x.h ****             return;
 2344              		.loc 4 354 9 view .LVU584
 2345 01e6 3F2E     		cmp	r6, #63
 357:../../libDaisy//src/dev/oled_ssd130x.h ****         else
 2346              		.loc 4 357 42 view .LVU585
 2347 01e8 0344     		add	r3, r3, r0
 354:../../libDaisy//src/dev/oled_ssd130x.h ****             return;
 2348              		.loc 4 354 9 view .LVU586
 2349 01ea 05D8     		bhi	.L109
 357:../../libDaisy//src/dev/oled_ssd130x.h ****         else
 2350              		.loc 4 357 42 view .LVU587
 2351 01ec 93F8C094 		ldrb	r9, [r3, #1216]	@ zero_extendqisi2
 2352 01f0 41EA0901 		orr	r1, r1, r9
 2353 01f4 83F8C014 		strb	r1, [r3, #1216]
 2354              	.L109:
 357:../../libDaisy//src/dev/oled_ssd130x.h ****         else
 2355              		.loc 4 357 42 view .LVU588
 2356              	.LBE765:
 2357              	.LBE764:
 2358              	.LBE763:
 243:../../libDaisy//src/hid/disp/display.h ****             {
 2359              		.loc 3 243 13 view .LVU589
 2360 01f8 5FEA4E03 		lsls	r3, lr, #1
 246:../../libDaisy//src/hid/disp/display.h ****             }
 2361              		.loc 3 246 20 view .LVU590
 2362 01fc 18BF     		it	ne
 2363 01fe 9444     		addne	ip, ip, r2
ARM GAS  /var/folders/1y/_321xjh9623c014x9_qw12rr0000gn/T//ccXZVGQV.s 			page 94


 2364              	.LVL164:
 249:../../libDaisy//src/hid/disp/display.h ****             {
 2365              		.loc 3 249 13 view .LVU591
 2366 0200 9845     		cmp	r8, r3
 2367 0202 01DD     		ble	.L111
 251:../../libDaisy//src/hid/disp/display.h ****                 y1 += signY;
 2368              		.loc 3 251 23 view .LVU592
 2369 0204 C644     		add	lr, lr, r8
 2370              	.LVL165:
 252:../../libDaisy//src/hid/disp/display.h ****             }
 2371              		.loc 3 252 20 view .LVU593
 2372 0206 013E     		subs	r6, r6, #1
 2373              	.LVL166:
 2374              	.L111:
 239:../../libDaisy//src/hid/disp/display.h ****         {
 2375              		.loc 3 239 26 is_stmt 1 view .LVU594
 2376 0208 6545     		cmp	r5, ip
 2377 020a E1D1     		bne	.L107
 239:../../libDaisy//src/hid/disp/display.h ****         {
 2378              		.loc 3 239 26 is_stmt 0 view .LVU595
 2379 020c 332E     		cmp	r6, #51
 2380 020e DFD1     		bne	.L107
 2381              	.LVL167:
 2382              	.L106:
 239:../../libDaisy//src/hid/disp/display.h ****         {
 2383              		.loc 3 239 26 view .LVU596
 2384              	.LBE759:
 2385              	.LBE758:
 2386              	.LBB766:
 2387              	.LBI766:
 221:../../libDaisy//src/hid/disp/display.h ****                   uint_fast8_t y1,
 2388              		.loc 3 221 10 is_stmt 1 view .LVU597
 2389              	.LBB767:
 228:../../libDaisy//src/hid/disp/display.h ****         int_fast16_t signX  = ((x1 < x2) ? 1 : -1);
 2390              		.loc 3 228 52 is_stmt 0 view .LVU598
 2391 0210 17EE903A 		vmov	r3, s15	@ int
 2392 0214 A3F1320C 		sub	ip, r3, #50
 228:../../libDaisy//src/hid/disp/display.h ****         int_fast16_t signX  = ((x1 < x2) ? 1 : -1);
 2393              		.loc 3 228 22 view .LVU599
 2394 0218 BCF1000F 		cmp	ip, #0
 2395 021c B8BF     		it	lt
 2396 021e CCF1000C 		rsblt	ip, ip, #0
 2397              	.LVL168:
 230:../../libDaisy//src/hid/disp/display.h ****         int_fast16_t error  = deltaX - deltaY;
 2398              		.loc 3 230 42 view .LVU600
 2399 0222 332F     		cmp	r7, #51
 231:../../libDaisy//src/hid/disp/display.h ****         int_fast16_t error2;
 2400              		.loc 3 231 22 view .LVU601
 2401 0224 CCF10006 		rsb	r6, ip, #0
 230:../../libDaisy//src/hid/disp/display.h ****         int_fast16_t error  = deltaX - deltaY;
 2402              		.loc 3 230 42 view .LVU602
 2403 0228 00F3B280 		bgt	.L112
 2404              	.LVL169:
 2405              	.LBB768:
 2406              	.LBI768:
  42:../../libDaisy//src/hid/disp/oled_display.h ****     {
 2407              		.loc 1 42 10 is_stmt 1 view .LVU603
ARM GAS  /var/folders/1y/_321xjh9623c014x9_qw12rr0000gn/T//ccXZVGQV.s 			page 95


 2408              	.LBB769:
 2409              	.LBI769:
 352:../../libDaisy//src/dev/oled_ssd130x.h ****     {
 2410              		.loc 4 352 10 view .LVU604
 2411              	.LBB770:
 354:../../libDaisy//src/dev/oled_ssd130x.h ****             return;
 2412              		.loc 4 354 9 is_stmt 0 view .LVU605
 2413 022c 7F2D     		cmp	r5, #127
 2414              	.LBE770:
 2415              	.LBE769:
 2416              	.LBE768:
 230:../../libDaisy//src/hid/disp/display.h ****         int_fast16_t error  = deltaX - deltaY;
 2417              		.loc 3 230 42 view .LVU606
 2418 022e 4FF0FF3A 		mov	r10, #-1
 2419              	.LBB777:
 2420              	.LBB774:
 2421              	.LBB771:
 354:../../libDaisy//src/dev/oled_ssd130x.h ****             return;
 2422              		.loc 4 354 9 view .LVU607
 2423 0232 03D8     		bhi	.L113
 2424 0234 059B     		ldr	r3, [sp, #20]
 2425 0236 002B     		cmp	r3, #0
 2426 0238 00F0B080 		beq	.L128
 2427              	.LVL170:
 2428              	.L113:
 354:../../libDaisy//src/dev/oled_ssd130x.h ****             return;
 2429              		.loc 4 354 9 view .LVU608
 2430              	.LBE771:
 2431              	.LBE774:
 2432              	.LBE777:
 239:../../libDaisy//src/hid/disp/display.h ****         {
 2433              		.loc 3 239 26 is_stmt 1 view .LVU609
 2434 023c 332F     		cmp	r7, #51
 2435 023e 26D0     		beq	.L114
 2436 0240 B146     		mov	r9, r6
 2437              	.L115:
 2438              	.LVL171:
 230:../../libDaisy//src/hid/disp/display.h ****         int_fast16_t error  = deltaX - deltaY;
 2439              		.loc 3 230 42 is_stmt 0 view .LVU610
 2440 0242 2946     		mov	r1, r5
 2441 0244 3322     		movs	r2, #51
 2442              	.L117:
 2443              	.LVL172:
 2444              	.LBB778:
 2445              	.LBI778:
  42:../../libDaisy//src/hid/disp/oled_display.h ****     {
 2446              		.loc 1 42 10 is_stmt 1 view .LVU611
 2447              	.LBB779:
 2448              	.LBI779:
 352:../../libDaisy//src/dev/oled_ssd130x.h ****     {
 2449              		.loc 4 352 10 view .LVU612
 2450              	.LBB780:
 357:../../libDaisy//src/dev/oled_ssd130x.h ****         else
 2451              		.loc 4 357 48 is_stmt 0 view .LVU613
 2452 0246 4FF0010B 		mov	fp, #1
 357:../../libDaisy//src/dev/oled_ssd130x.h ****         else
 2453              		.loc 4 357 28 view .LVU614
ARM GAS  /var/folders/1y/_321xjh9623c014x9_qw12rr0000gn/T//ccXZVGQV.s 			page 96


 2454 024a D308     		lsrs	r3, r2, #3
 357:../../libDaisy//src/dev/oled_ssd130x.h ****         else
 2455              		.loc 4 357 54 view .LVU615
 2456 024c 02F0070E 		and	lr, r2, #7
 354:../../libDaisy//src/dev/oled_ssd130x.h ****             return;
 2457              		.loc 4 354 9 view .LVU616
 2458 0250 7F29     		cmp	r1, #127
 357:../../libDaisy//src/dev/oled_ssd130x.h ****         else
 2459              		.loc 4 357 42 view .LVU617
 2460 0252 01EBC313 		add	r3, r1, r3, lsl #7
 2461              	.LBE780:
 2462              	.LBE779:
 2463              	.LBE778:
 242:../../libDaisy//src/hid/disp/display.h ****             if(error2 > -deltaY)
 2464              		.loc 3 242 20 view .LVU618
 2465 0256 06FA0BF8 		lsl	r8, r6, fp
 2466              	.LVL173:
 2467              	.LBB783:
 2468              	.LBB782:
 2469              	.LBB781:
 357:../../libDaisy//src/dev/oled_ssd130x.h ****         else
 2470              		.loc 4 357 48 view .LVU619
 2471 025a 0BFA0EFE 		lsl	lr, fp, lr
 354:../../libDaisy//src/dev/oled_ssd130x.h ****             return;
 2472              		.loc 4 354 9 view .LVU620
 2473 025e 08D8     		bhi	.L118
 2474 0260 3F2A     		cmp	r2, #63
 357:../../libDaisy//src/dev/oled_ssd130x.h ****         else
 2475              		.loc 4 357 42 view .LVU621
 2476 0262 0344     		add	r3, r3, r0
 354:../../libDaisy//src/dev/oled_ssd130x.h ****             return;
 2477              		.loc 4 354 9 view .LVU622
 2478 0264 05D8     		bhi	.L118
 357:../../libDaisy//src/dev/oled_ssd130x.h ****         else
 2479              		.loc 4 357 42 view .LVU623
 2480 0266 93F8C0B4 		ldrb	fp, [r3, #1216]	@ zero_extendqisi2
 2481 026a 4EEA0B0E 		orr	lr, lr, fp
 2482 026e 83F8C0E4 		strb	lr, [r3, #1216]
 2483              	.L118:
 357:../../libDaisy//src/dev/oled_ssd130x.h ****         else
 2484              		.loc 4 357 42 view .LVU624
 2485              	.LBE781:
 2486              	.LBE782:
 2487              	.LBE783:
 243:../../libDaisy//src/hid/disp/display.h ****             {
 2488              		.loc 3 243 13 view .LVU625
 2489 0272 B9EB460F 		cmp	r9, r6, lsl #1
 2490 0276 02DA     		bge	.L119
 246:../../libDaisy//src/hid/disp/display.h ****             }
 2491              		.loc 3 246 20 view .LVU626
 2492 0278 0139     		subs	r1, r1, #1
 2493              	.LVL174:
 245:../../libDaisy//src/hid/disp/display.h ****                 x1 += signX;
 2494              		.loc 3 245 23 view .LVU627
 2495 027a A6EB0C06 		sub	r6, r6, ip
 2496              	.LVL175:
 2497              	.L119:
ARM GAS  /var/folders/1y/_321xjh9623c014x9_qw12rr0000gn/T//ccXZVGQV.s 			page 97


 249:../../libDaisy//src/hid/disp/display.h ****             {
 2498              		.loc 3 249 13 view .LVU628
 2499 027e B8F1000F 		cmp	r8, #0
 2500 0282 00D0     		beq	.L120
 252:../../libDaisy//src/hid/disp/display.h ****             }
 2501              		.loc 3 252 20 view .LVU629
 2502 0284 5244     		add	r2, r2, r10
 2503              	.LVL176:
 2504              	.L120:
 239:../../libDaisy//src/hid/disp/display.h ****         {
 2505              		.loc 3 239 26 is_stmt 1 view .LVU630
 2506 0286 8D42     		cmp	r5, r1
 2507 0288 DDD1     		bne	.L117
 239:../../libDaisy//src/hid/disp/display.h ****         {
 2508              		.loc 3 239 26 is_stmt 0 view .LVU631
 2509 028a 9742     		cmp	r7, r2
 2510 028c DBD1     		bne	.L117
 2511              	.LVL177:
 2512              	.L114:
 239:../../libDaisy//src/hid/disp/display.h ****         {
 2513              		.loc 3 239 26 view .LVU632
 2514              	.LBE767:
 2515              	.LBE766:
 2516              	.LBE797:
 282:Dubby.cpp     ****     
 2517              		.loc 2 282 5 is_stmt 1 view .LVU633
 282:Dubby.cpp     ****     
 2518              		.loc 2 282 66 is_stmt 0 view .LVU634
 2519 028e 039B     		ldr	r3, [sp, #12]
 282:Dubby.cpp     ****     
 2520              		.loc 2 282 49 view .LVU635
 2521 0290 F1EE046A 		vmov.f32	s13, #5.0e+0
 2522 0294 FFEE007A 		vmov.f32	s15, #-1.0e+0
 282:Dubby.cpp     ****     
 2523              		.loc 2 282 84 view .LVU636
 2524 0298 9FED3C7A 		vldr.32	s14, .L185
 282:Dubby.cpp     ****     
 2525              		.loc 2 282 66 view .LVU637
 2526 029c 03F59373 		add	r3, r3, #294
 282:Dubby.cpp     ****     
 2527              		.loc 2 282 32 view .LVU638
 2528 02a0 069D     		ldr	r5, [sp, #24]
 282:Dubby.cpp     ****     
 2529              		.loc 2 282 113 view .LVU639
 2530 02a2 079A     		ldr	r2, [sp, #28]
 282:Dubby.cpp     ****     
 2531              		.loc 2 282 66 view .LVU640
 2532 02a4 00EB8303 		add	r3, r0, r3, lsl #2
 282:Dubby.cpp     ****     
 2533              		.loc 2 282 49 view .LVU641
 2534 02a8 93ED016A 		vldr.32	s12, [r3, #4]
 282:Dubby.cpp     ****     
 2535              		.loc 2 282 34 view .LVU642
 2536 02ac 099B     		ldr	r3, [sp, #36]
 282:Dubby.cpp     ****     
 2537              		.loc 2 282 49 view .LVU643
 2538 02ae E6EE267A 		vfma.f32	s15, s12, s13
ARM GAS  /var/folders/1y/_321xjh9623c014x9_qw12rr0000gn/T//ccXZVGQV.s 			page 98


 2539              	.LVL178:
 2540              	.LBB798:
 2541              	.LBI798:
  75:/Library/DaisyToolchain/0.2.0/arm/arm-none-eabi/include/c++/10.3.1/bits/std_abs.h ****   { return __builtin_fabsf(__x); }
 2542              		.loc 11 75 3 is_stmt 1 view .LVU644
 2543              	.LBB799:
 2544              		.loc 11 76 5 view .LVU645
 2545              		.loc 11 76 5 is_stmt 0 view .LVU646
 2546              	.LBE799:
 2547              	.LBE798:
 282:Dubby.cpp     ****     
 2548              		.loc 2 282 34 view .LVU647
 2549 02b2 D3F8683B 		ldr	r3, [r3, #2920]
 282:Dubby.cpp     ****     
 2550              		.loc 2 282 32 view .LVU648
 2551 02b6 1D44     		add	r5, r5, r3
 282:Dubby.cpp     ****     
 2552              		.loc 2 282 113 view .LVU649
 2553 02b8 A2EB030C 		sub	ip, r2, r3
 2554              	.LVL179:
 2555              	.LBB801:
 2556              	.LBB802:
 2557              	.LBB803:
 266:../../libDaisy//src/hid/disp/display.h ****             {
 2558              		.loc 3 266 40 view .LVU650
 2559 02bc 6545     		cmp	r5, ip
 2560              	.LBE803:
 2561              	.LBE802:
 2562              	.LBE801:
 2563              	.LBB812:
 2564              	.LBB800:
 2565              		.loc 11 76 31 view .LVU651
 2566 02be F0EEE77A 		vabs.f32	s15, s15
 2567              	.LBE800:
 2568              	.LBE812:
 282:Dubby.cpp     ****     
 2569              		.loc 2 282 84 view .LVU652
 2570 02c2 67EE877A 		vmul.f32	s15, s15, s14
 282:Dubby.cpp     ****     
 2571              		.loc 2 282 42 view .LVU653
 2572 02c6 FDEEE77A 		vcvt.s32.f32	s15, s15
 2573 02ca 17EE907A 		vmov	r7, s15	@ int
 282:Dubby.cpp     ****     
 2574              		.loc 2 282 93 view .LVU654
 2575 02ce 07F10107 		add	r7, r7, #1
 2576              	.LVL180:
 2577              	.LBB813:
 2578              	.LBI801:
 257:../../libDaisy//src/hid/disp/display.h ****                   uint_fast8_t y1,
 2579              		.loc 3 257 10 is_stmt 1 view .LVU655
 2580              	.LBB811:
 2581              	.LBI802:
 257:../../libDaisy//src/hid/disp/display.h ****                   uint_fast8_t y1,
 2582              		.loc 3 257 10 view .LVU656
 2583              	.LBB810:
 266:../../libDaisy//src/hid/disp/display.h ****             {
 2584              		.loc 3 266 40 view .LVU657
ARM GAS  /var/folders/1y/_321xjh9623c014x9_qw12rr0000gn/T//ccXZVGQV.s 			page 99


 2585 02d2 18D8     		bhi	.L124
 2586              	.LVL181:
 2587              	.L121:
 2588              	.LBB804:
 2589              		.loc 3 268 44 view .LVU658
 2590 02d4 332F     		cmp	r7, #51
 2591 02d6 13DC     		bgt	.L126
 2592              		.loc 3 268 44 is_stmt 0 view .LVU659
 2593 02d8 3A46     		mov	r2, r7
 2594              	.LVL182:
 2595              	.L123:
 2596              	.LBB805:
 2597              	.LBI805:
  42:../../libDaisy//src/hid/disp/oled_display.h ****     {
 2598              		.loc 1 42 10 is_stmt 1 view .LVU660
 2599              	.LBB806:
 2600              	.LBI806:
 352:../../libDaisy//src/dev/oled_ssd130x.h ****     {
 2601              		.loc 4 352 10 view .LVU661
 352:../../libDaisy//src/dev/oled_ssd130x.h ****     {
 2602              		.loc 4 352 10 is_stmt 0 view .LVU662
 2603              	.LBE806:
 2604              	.LBE805:
 2605              		.loc 3 268 17 is_stmt 1 view .LVU663
 2606              		.loc 3 268 44 view .LVU664
 2607              	.LBB809:
 2608              	.LBB808:
 2609              	.LBB807:
 357:../../libDaisy//src/dev/oled_ssd130x.h ****         else
 2610              		.loc 4 357 28 is_stmt 0 view .LVU665
 2611 02da D308     		lsrs	r3, r2, #3
 357:../../libDaisy//src/dev/oled_ssd130x.h ****         else
 2612              		.loc 4 357 54 view .LVU666
 2613 02dc 02F00706 		and	r6, r2, #7
 357:../../libDaisy//src/dev/oled_ssd130x.h ****         else
 2614              		.loc 4 357 48 view .LVU667
 2615 02e0 0121     		movs	r1, #1
 354:../../libDaisy//src/dev/oled_ssd130x.h ****             return;
 2616              		.loc 4 354 9 view .LVU668
 2617 02e2 7F2D     		cmp	r5, #127
 357:../../libDaisy//src/dev/oled_ssd130x.h ****         else
 2618              		.loc 4 357 42 view .LVU669
 2619 02e4 05EBC313 		add	r3, r5, r3, lsl #7
 2620 02e8 0A44     		add	r2, r2, r1
 2621              	.LVL183:
 357:../../libDaisy//src/dev/oled_ssd130x.h ****         else
 2622              		.loc 4 357 48 view .LVU670
 2623 02ea 01FA06F1 		lsl	r1, r1, r6
 357:../../libDaisy//src/dev/oled_ssd130x.h ****         else
 2624              		.loc 4 357 42 view .LVU671
 2625 02ee 0344     		add	r3, r3, r0
 354:../../libDaisy//src/dev/oled_ssd130x.h ****             return;
 2626              		.loc 4 354 9 view .LVU672
 2627 02f0 04D8     		bhi	.L125
 357:../../libDaisy//src/dev/oled_ssd130x.h ****         else
 2628              		.loc 4 357 42 view .LVU673
 2629 02f2 93F8C064 		ldrb	r6, [r3, #1216]	@ zero_extendqisi2
ARM GAS  /var/folders/1y/_321xjh9623c014x9_qw12rr0000gn/T//ccXZVGQV.s 			page 100


 2630 02f6 3143     		orrs	r1, r1, r6
 2631 02f8 83F8C014 		strb	r1, [r3, #1216]
 2632              	.L125:
 2633              	.LBE807:
 2634              	.LBE808:
 2635              	.LBE809:
 2636              		.loc 3 268 44 view .LVU674
 2637 02fc 342A     		cmp	r2, #52
 2638 02fe ECD1     		bne	.L123
 2639              	.LVL184:
 2640              	.L126:
 2641              		.loc 3 268 44 view .LVU675
 2642              	.LBE804:
 266:../../libDaisy//src/hid/disp/display.h ****             {
 2643              		.loc 3 266 13 is_stmt 1 view .LVU676
 2644 0300 0135     		adds	r5, r5, #1
 2645              	.LVL185:
 266:../../libDaisy//src/hid/disp/display.h ****             {
 2646              		.loc 3 266 40 view .LVU677
 2647 0302 AC45     		cmp	ip, r5
 2648 0304 E6D2     		bcs	.L121
 2649              	.L124:
 266:../../libDaisy//src/hid/disp/display.h ****             {
 2650              		.loc 3 266 40 is_stmt 0 view .LVU678
 2651              	.LBE810:
 2652              	.LBE811:
 2653              	.LBE813:
 2654              	.LBB814:
 2655              	.LBB815:
 2656              	.LBB816:
 2657              	.LBB817:
 2658              	.LBB818:
 124:../../libDaisy//src/dev/oled_ssd130x.h ****         spi_.BlockingTransmit(&cmd, 1);
 2659              		.loc 4 124 24 view .LVU679
 2660 0306 00F2BC47 		addw	r7, r0, #1212
 2661              	.LVL186:
 124:../../libDaisy//src/dev/oled_ssd130x.h ****         spi_.BlockingTransmit(&cmd, 1);
 2662              		.loc 4 124 24 view .LVU680
 2663 030a 04F10C06 		add	r6, r4, #12
 2664 030e 04F20C49 		addw	r9, r4, #1036
 2665 0312 B025     		movs	r5, #176
 2666              	.LVL187:
 2667              	.L122:
 124:../../libDaisy//src/dev/oled_ssd130x.h ****         spi_.BlockingTransmit(&cmd, 1);
 2668              		.loc 4 124 24 view .LVU681
 2669 0314 4FF00008 		mov	r8, #0
 124:../../libDaisy//src/dev/oled_ssd130x.h ****         spi_.BlockingTransmit(&cmd, 1);
 2670              		.loc 4 124 23 view .LVU682
 2671 0318 3846     		mov	r0, r7
 2672 031a 8DF82F50 		strb	r5, [sp, #47]
 2673              	.LVL188:
 124:../../libDaisy//src/dev/oled_ssd130x.h ****         spi_.BlockingTransmit(&cmd, 1);
 2674              		.loc 4 124 23 view .LVU683
 2675              	.LBE818:
 2676              	.LBI817:
 122:../../libDaisy//src/dev/oled_ssd130x.h ****     {
 2677              		.loc 4 122 10 is_stmt 1 view .LVU684
ARM GAS  /var/folders/1y/_321xjh9623c014x9_qw12rr0000gn/T//ccXZVGQV.s 			page 101


 2678              	.LBB819:
 124:../../libDaisy//src/dev/oled_ssd130x.h ****         spi_.BlockingTransmit(&cmd, 1);
 2679              		.loc 4 124 9 view .LVU685
 2680              	.LBE819:
 2681              	.LBE817:
 2682              		.loc 4 383 22 is_stmt 0 view .LVU686
 2683 031e 0135     		adds	r5, r5, #1
 2684              	.LVL189:
 2685              	.LBB822:
 2686              	.LBB820:
 124:../../libDaisy//src/dev/oled_ssd130x.h ****         spi_.BlockingTransmit(&cmd, 1);
 2687              		.loc 4 124 23 view .LVU687
 2688 0320 4146     		mov	r1, r8
 2689 0322 FFF7FEFF 		bl	dsy_gpio_write
 2690              	.LVL190:
 125:../../libDaisy//src/dev/oled_ssd130x.h ****     };
 2691              		.loc 4 125 9 is_stmt 1 view .LVU688
 125:../../libDaisy//src/dev/oled_ssd130x.h ****     };
 2692              		.loc 4 125 30 is_stmt 0 view .LVU689
 2693 0326 6423     		movs	r3, #100
 2694 0328 0122     		movs	r2, #1
 2695 032a 0DF12F01 		add	r1, sp, #47
 2696 032e 2046     		mov	r0, r4
 2697              	.LBE820:
 2698              	.LBE822:
 2699              		.loc 4 383 22 view .LVU690
 2700 0330 EDB2     		uxtb	r5, r5
 2701              	.LBB823:
 2702              	.LBB821:
 125:../../libDaisy//src/dev/oled_ssd130x.h ****     };
 2703              		.loc 4 125 30 view .LVU691
 2704 0332 FFF7FEFF 		bl	_ZN5daisy9SpiHandle16BlockingTransmitEPhjm
 2705              	.LVL191:
 125:../../libDaisy//src/dev/oled_ssd130x.h ****     };
 2706              		.loc 4 125 30 view .LVU692
 2707              	.LBE821:
 2708              	.LBE823:
 2709              	.LBB824:
 2710              	.LBB825:
 124:../../libDaisy//src/dev/oled_ssd130x.h ****         spi_.BlockingTransmit(&cmd, 1);
 2711              		.loc 4 124 23 view .LVU693
 2712 0336 4146     		mov	r1, r8
 2713 0338 3846     		mov	r0, r7
 2714 033a 8DF82F80 		strb	r8, [sp, #47]
 2715              	.LVL192:
 124:../../libDaisy//src/dev/oled_ssd130x.h ****         spi_.BlockingTransmit(&cmd, 1);
 2716              		.loc 4 124 23 view .LVU694
 2717              	.LBE825:
 2718              	.LBI824:
 122:../../libDaisy//src/dev/oled_ssd130x.h ****     {
 2719              		.loc 4 122 10 is_stmt 1 view .LVU695
 2720              	.LBB826:
 124:../../libDaisy//src/dev/oled_ssd130x.h ****         spi_.BlockingTransmit(&cmd, 1);
 2721              		.loc 4 124 9 view .LVU696
 124:../../libDaisy//src/dev/oled_ssd130x.h ****         spi_.BlockingTransmit(&cmd, 1);
 2722              		.loc 4 124 23 is_stmt 0 view .LVU697
 2723 033e FFF7FEFF 		bl	dsy_gpio_write
ARM GAS  /var/folders/1y/_321xjh9623c014x9_qw12rr0000gn/T//ccXZVGQV.s 			page 102


 2724              	.LVL193:
 125:../../libDaisy//src/dev/oled_ssd130x.h ****     };
 2725              		.loc 4 125 9 is_stmt 1 view .LVU698
 125:../../libDaisy//src/dev/oled_ssd130x.h ****     };
 2726              		.loc 4 125 30 is_stmt 0 view .LVU699
 2727 0342 0122     		movs	r2, #1
 2728 0344 6423     		movs	r3, #100
 2729 0346 0DF12F01 		add	r1, sp, #47
 2730 034a 2046     		mov	r0, r4
 2731 034c FFF7FEFF 		bl	_ZN5daisy9SpiHandle16BlockingTransmitEPhjm
 2732              	.LVL194:
 125:../../libDaisy//src/dev/oled_ssd130x.h ****     };
 2733              		.loc 4 125 30 view .LVU700
 2734 0350 1023     		movs	r3, #16
 2735              	.LBE826:
 2736              	.LBE824:
 2737              	.LBB827:
 2738              	.LBB828:
 124:../../libDaisy//src/dev/oled_ssd130x.h ****         spi_.BlockingTransmit(&cmd, 1);
 2739              		.loc 4 124 23 view .LVU701
 2740 0352 4146     		mov	r1, r8
 2741 0354 3846     		mov	r0, r7
 2742 0356 8DF82F30 		strb	r3, [sp, #47]
 2743              	.LVL195:
 124:../../libDaisy//src/dev/oled_ssd130x.h ****         spi_.BlockingTransmit(&cmd, 1);
 2744              		.loc 4 124 23 view .LVU702
 2745              	.LBE828:
 2746              	.LBI827:
 122:../../libDaisy//src/dev/oled_ssd130x.h ****     {
 2747              		.loc 4 122 10 is_stmt 1 view .LVU703
 2748              	.LBB829:
 124:../../libDaisy//src/dev/oled_ssd130x.h ****         spi_.BlockingTransmit(&cmd, 1);
 2749              		.loc 4 124 9 view .LVU704
 124:../../libDaisy//src/dev/oled_ssd130x.h ****         spi_.BlockingTransmit(&cmd, 1);
 2750              		.loc 4 124 23 is_stmt 0 view .LVU705
 2751 035a FFF7FEFF 		bl	dsy_gpio_write
 2752              	.LVL196:
 125:../../libDaisy//src/dev/oled_ssd130x.h ****     };
 2753              		.loc 4 125 9 is_stmt 1 view .LVU706
 125:../../libDaisy//src/dev/oled_ssd130x.h ****     };
 2754              		.loc 4 125 30 is_stmt 0 view .LVU707
 2755 035e 6423     		movs	r3, #100
 2756 0360 0122     		movs	r2, #1
 2757 0362 0DF12F01 		add	r1, sp, #47
 2758 0366 2046     		mov	r0, r4
 2759 0368 FFF7FEFF 		bl	_ZN5daisy9SpiHandle16BlockingTransmitEPhjm
 2760              	.LVL197:
 125:../../libDaisy//src/dev/oled_ssd130x.h ****     };
 2761              		.loc 4 125 30 view .LVU708
 2762              	.LBE829:
 2763              	.LBE827:
 2764              	.LBB830:
 2765              	.LBI830:
 128:../../libDaisy//src/dev/oled_ssd130x.h ****     {
 2766              		.loc 4 128 10 is_stmt 1 view .LVU709
 2767              	.LBB831:
 130:../../libDaisy//src/dev/oled_ssd130x.h ****         spi_.BlockingTransmit(buff, size);
ARM GAS  /var/folders/1y/_321xjh9623c014x9_qw12rr0000gn/T//ccXZVGQV.s 			page 103


 2768              		.loc 4 130 9 view .LVU710
 130:../../libDaisy//src/dev/oled_ssd130x.h ****         spi_.BlockingTransmit(buff, size);
 2769              		.loc 4 130 23 is_stmt 0 view .LVU711
 2770 036c 0121     		movs	r1, #1
 2771 036e 3846     		mov	r0, r7
 2772 0370 FFF7FEFF 		bl	dsy_gpio_write
 2773              	.LVL198:
 131:../../libDaisy//src/dev/oled_ssd130x.h ****     };
 2774              		.loc 4 131 9 is_stmt 1 view .LVU712
 131:../../libDaisy//src/dev/oled_ssd130x.h ****     };
 2775              		.loc 4 131 30 is_stmt 0 view .LVU713
 2776 0374 8022     		movs	r2, #128
 2777 0376 3146     		mov	r1, r6
 2778 0378 6423     		movs	r3, #100
 2779              	.LBE831:
 2780              	.LBE830:
 2781              		.loc 4 383 22 view .LVU714
 2782 037a 1644     		add	r6, r6, r2
 2783              	.LVL199:
 2784              	.LBB833:
 2785              	.LBB832:
 131:../../libDaisy//src/dev/oled_ssd130x.h ****     };
 2786              		.loc 4 131 30 view .LVU715
 2787 037c 2046     		mov	r0, r4
 2788 037e FFF7FEFF 		bl	_ZN5daisy9SpiHandle16BlockingTransmitEPhjm
 2789              	.LVL200:
 131:../../libDaisy//src/dev/oled_ssd130x.h ****     };
 2790              		.loc 4 131 30 view .LVU716
 2791              	.LBE832:
 2792              	.LBE833:
 2793              		.loc 4 383 9 is_stmt 1 view .LVU717
 2794              		.loc 4 383 22 view .LVU718
 2795 0382 B145     		cmp	r9, r6
 2796 0384 C6D1     		bne	.L122
 2797              	.LBE816:
 2798              	.LBE815:
 2799              	.LBE814:
 285:Dubby.cpp     **** 
 2800              		.loc 2 285 1 is_stmt 0 view .LVU719
 2801 0386 0DB0     		add	sp, sp, #52
 2802              		.cfi_remember_state
 2803              		.cfi_def_cfa_offset 36
 2804              		@ sp needed
 2805 0388 BDE8F08F 		pop	{r4, r5, r6, r7, r8, r9, r10, fp, pc}
 2806              	.LVL201:
 2807              	.L186:
 285:Dubby.cpp     **** 
 2808              		.loc 2 285 1 view .LVU720
 2809              		.align	2
 2810              	.L185:
 2811 038c 00004C42 		.word	1112276992
 2812              	.LVL202:
 2813              	.L112:
 2814              		.cfi_restore_state
 2815              	.LBB834:
 2816              	.LBB788:
 2817              	.LBB786:
ARM GAS  /var/folders/1y/_321xjh9623c014x9_qw12rr0000gn/T//ccXZVGQV.s 			page 104


 2818              	.LBB784:
  42:../../libDaisy//src/hid/disp/oled_display.h ****     {
 2819              		.loc 1 42 10 is_stmt 1 view .LVU721
 2820              	.LBB775:
 352:../../libDaisy//src/dev/oled_ssd130x.h ****     {
 2821              		.loc 4 352 10 view .LVU722
 2822              	.LBB772:
 354:../../libDaisy//src/dev/oled_ssd130x.h ****             return;
 2823              		.loc 4 354 9 is_stmt 0 view .LVU723
 2824 0390 7F2D     		cmp	r5, #127
 2825 0392 38D8     		bhi	.L138
 2826 0394 059B     		ldr	r3, [sp, #20]
 2827 0396 B3BB     		cbnz	r3, .L138
 2828              	.LBE772:
 2829              	.LBE775:
 2830              	.LBE784:
 230:../../libDaisy//src/hid/disp/display.h ****         int_fast16_t error  = deltaX - deltaY;
 2831              		.loc 3 230 42 view .LVU724
 2832 0398 4FF0010A 		mov	r10, #1
 2833              	.LVL203:
 2834              	.L128:
 2835              	.LBB785:
 2836              	.LBB776:
 2837              	.LBB773:
 357:../../libDaisy//src/dev/oled_ssd130x.h ****         else
 2838              		.loc 4 357 28 view .LVU725
 2839 039c FB08     		lsrs	r3, r7, #3
 357:../../libDaisy//src/dev/oled_ssd130x.h ****         else
 2840              		.loc 4 357 54 view .LVU726
 2841 039e 07F00701 		and	r1, r7, #7
 357:../../libDaisy//src/dev/oled_ssd130x.h ****         else
 2842              		.loc 4 357 48 view .LVU727
 2843 03a2 0122     		movs	r2, #1
 2844              	.LVL204:
 357:../../libDaisy//src/dev/oled_ssd130x.h ****         else
 2845              		.loc 4 357 42 view .LVU728
 2846 03a4 05EBC313 		add	r3, r5, r3, lsl #7
 357:../../libDaisy//src/dev/oled_ssd130x.h ****         else
 2847              		.loc 4 357 48 view .LVU729
 2848 03a8 8A40     		lsls	r2, r2, r1
 357:../../libDaisy//src/dev/oled_ssd130x.h ****         else
 2849              		.loc 4 357 42 view .LVU730
 2850 03aa 0344     		add	r3, r3, r0
 2851 03ac 93F8C014 		ldrb	r1, [r3, #1216]	@ zero_extendqisi2
 2852 03b0 0A43     		orrs	r2, r2, r1
 2853 03b2 83F8C024 		strb	r2, [r3, #1216]
 2854 03b6 41E7     		b	.L113
 2855              	.LVL205:
 2856              	.L184:
 357:../../libDaisy//src/dev/oled_ssd130x.h ****         else
 2857              		.loc 4 357 42 view .LVU731
 2858              	.LBE773:
 2859              	.LBE776:
 2860              	.LBE785:
 2861              	.LBE786:
 2862              	.LBE788:
 2863              	.LBB789:
ARM GAS  /var/folders/1y/_321xjh9623c014x9_qw12rr0000gn/T//ccXZVGQV.s 			page 105


 2864              	.LBB740:
 2865              	.LBB734:
  42:../../libDaisy//src/hid/disp/oled_display.h ****     {
 2866              		.loc 1 42 10 is_stmt 1 view .LVU732
 2867              	.LBB728:
 2868              	.LBB724:
 2869              	.LBB720:
 354:../../libDaisy//src/dev/oled_ssd130x.h ****             return;
 2870              		.loc 4 354 14 is_stmt 0 view .LVU733
 2871 03b8 7F2A     		cmp	r2, #127
 2872              	.LBE720:
 2873              	.LBE724:
 2874              		.loc 1 44 26 view .LVU734
 2875 03ba 00F2B444 		addw	r4, r0, #1204
 2876              	.LVL206:
 2877              	.LBB725:
 352:../../libDaisy//src/dev/oled_ssd130x.h ****     {
 2878              		.loc 4 352 10 is_stmt 1 view .LVU735
 2879              	.LBE725:
 2880              	.LBE728:
 2881              	.LBE734:
 229:../../libDaisy//src/hid/disp/display.h ****         int_fast16_t signY  = ((y1 < y2) ? 1 : -1);
 2882              		.loc 3 229 42 is_stmt 0 view .LVU736
 2883 03be 4FF0FF3B 		mov	fp, #-1
 2884              	.LBB735:
 2885              	.LBB729:
 2886              	.LBB726:
 2887              	.LBB721:
 354:../../libDaisy//src/dev/oled_ssd130x.h ****             return;
 2888              		.loc 4 354 14 view .LVU737
 2889 03c2 94BF     		ite	ls
 2890 03c4 0023     		movls	r3, #0
 2891 03c6 0123     		movhi	r3, #1
 354:../../libDaisy//src/dev/oled_ssd130x.h ****             return;
 2892              		.loc 4 354 28 view .LVU738
 2893 03c8 3F2F     		cmp	r7, #63
 354:../../libDaisy//src/dev/oled_ssd130x.h ****             return;
 2894              		.loc 4 354 14 view .LVU739
 2895 03ca 0493     		str	r3, [sp, #16]
 354:../../libDaisy//src/dev/oled_ssd130x.h ****             return;
 2896              		.loc 4 354 28 view .LVU740
 2897 03cc 94BF     		ite	ls
 2898 03ce 0021     		movls	r1, #0
 2899 03d0 0121     		movhi	r1, #1
 2900 03d2 0591     		str	r1, [sp, #20]
 354:../../libDaisy//src/dev/oled_ssd130x.h ****             return;
 2901              		.loc 4 354 9 view .LVU741
 2902 03d4 8BB9     		cbnz	r3, .L88
 2903 03d6 81B9     		cbnz	r1, .L88
 2904              	.LVL207:
 2905              	.L127:
 357:../../libDaisy//src/dev/oled_ssd130x.h ****         else
 2906              		.loc 4 357 28 view .LVU742
 2907 03d8 FB08     		lsrs	r3, r7, #3
 357:../../libDaisy//src/dev/oled_ssd130x.h ****         else
 2908              		.loc 4 357 48 view .LVU743
 2909 03da 0121     		movs	r1, #1
ARM GAS  /var/folders/1y/_321xjh9623c014x9_qw12rr0000gn/T//ccXZVGQV.s 			page 106


 357:../../libDaisy//src/dev/oled_ssd130x.h ****         else
 2910              		.loc 4 357 54 view .LVU744
 2911 03dc 07F00706 		and	r6, r7, #7
 357:../../libDaisy//src/dev/oled_ssd130x.h ****         else
 2912              		.loc 4 357 42 view .LVU745
 2913 03e0 02EBC313 		add	r3, r2, r3, lsl #7
 357:../../libDaisy//src/dev/oled_ssd130x.h ****         else
 2914              		.loc 4 357 48 view .LVU746
 2915 03e4 01FA06F6 		lsl	r6, r1, r6
 357:../../libDaisy//src/dev/oled_ssd130x.h ****         else
 2916              		.loc 4 357 42 view .LVU747
 2917 03e8 0344     		add	r3, r3, r0
 2918 03ea 93F8C014 		ldrb	r1, [r3, #1216]	@ zero_extendqisi2
 2919 03ee 3143     		orrs	r1, r1, r6
 2920 03f0 83F8C014 		strb	r1, [r3, #1216]
 2921 03f4 0023     		movs	r3, #0
 2922 03f6 CDE90433 		strd	r3, r3, [sp, #16]
 2923              	.L88:
 2924              	.LVL208:
 357:../../libDaisy//src/dev/oled_ssd130x.h ****         else
 2925              		.loc 4 357 42 view .LVU748
 2926              	.LBE721:
 2927              	.LBE726:
 2928              	.LBE729:
 2929              	.LBE735:
 239:../../libDaisy//src/hid/disp/display.h ****         {
 2930              		.loc 3 239 26 is_stmt 1 view .LVU749
 2931 03fa 9542     		cmp	r5, r2
 2932 03fc 7FF460AE 		bne	.L90
 239:../../libDaisy//src/hid/disp/display.h ****         {
 2933              		.loc 3 239 19 is_stmt 0 view .LVU750
 2934 0400 0123     		movs	r3, #1
 2935 0402 0893     		str	r3, [sp, #32]
 2936 0404 82E6     		b	.L89
 2937              	.LVL209:
 2938              	.L138:
 239:../../libDaisy//src/hid/disp/display.h ****         {
 2939              		.loc 3 239 19 view .LVU751
 2940              	.LBE740:
 2941              	.LBE789:
 2942              	.LBB790:
 2943              	.LBB787:
 231:../../libDaisy//src/hid/disp/display.h ****         int_fast16_t error2;
 2944              		.loc 3 231 22 view .LVU752
 2945 0406 B146     		mov	r9, r6
 230:../../libDaisy//src/hid/disp/display.h ****         int_fast16_t error  = deltaX - deltaY;
 2946              		.loc 3 230 42 view .LVU753
 2947 0408 4FF0010A 		mov	r10, #1
 2948 040c 19E7     		b	.L115
 2949              	.LBE787:
 2950              	.LBE790:
 2951              	.LBE834:
 2952              		.cfi_endproc
 2953              	.LFE3757:
 2955 040e 00BF     		.section	.text._ZN5daisy5Dubby15UpdateMixerPaneEv,"ax",%progbits
 2956              		.align	1
 2957              		.p2align 2,,3
ARM GAS  /var/folders/1y/_321xjh9623c014x9_qw12rr0000gn/T//ccXZVGQV.s 			page 107


 2958              		.global	_ZN5daisy5Dubby15UpdateMixerPaneEv
 2959              		.syntax unified
 2960              		.thumb
 2961              		.thumb_func
 2963              	_ZN5daisy5Dubby15UpdateMixerPaneEv:
 2964              	.LVL210:
 2965              	.LFB3755:
 250:Dubby.cpp     ****     if(seed.system.GetNow() - screen_update_last_ > screen_update_period_)
 2966              		.loc 2 250 1 is_stmt 1 view -0
 2967              		.cfi_startproc
 2968              		@ args = 0, pretend = 0, frame = 0
 2969              		@ frame_needed = 0, uses_anonymous_args = 0
 251:Dubby.cpp     ****     {
 2970              		.loc 2 251 5 view .LVU755
 250:Dubby.cpp     ****     if(seed.system.GetNow() - screen_update_last_ > screen_update_period_)
 2971              		.loc 2 250 1 is_stmt 0 view .LVU756
 2972 0000 70B5     		push	{r4, r5, r6, lr}
 2973              		.cfi_def_cfa_offset 16
 2974              		.cfi_offset 4, -16
 2975              		.cfi_offset 5, -12
 2976              		.cfi_offset 6, -8
 2977              		.cfi_offset 14, -4
 250:Dubby.cpp     ****     if(seed.system.GetNow() - screen_update_last_ > screen_update_period_)
 2978              		.loc 2 250 1 view .LVU757
 2979 0002 0546     		mov	r5, r0
 2980              	.LBB842:
 251:Dubby.cpp     ****     {
 2981              		.loc 2 251 26 view .LVU758
 2982 0004 FFF7FEFF 		bl	_ZN5daisy6System6GetNowEv
 2983              	.LVL211:
 251:Dubby.cpp     ****     {
 2984              		.loc 2 251 31 view .LVU759
 2985 0008 05F59036 		add	r6, r5, #73728
 251:Dubby.cpp     ****     {
 2986              		.loc 2 251 29 view .LVU760
 2987 000c D6F8702B 		ldr	r2, [r6, #2928]
 251:Dubby.cpp     ****     {
 2988              		.loc 2 251 5 view .LVU761
 2989 0010 D6F8743B 		ldr	r3, [r6, #2932]
 251:Dubby.cpp     ****     {
 2990              		.loc 2 251 29 view .LVU762
 2991 0014 801A     		subs	r0, r0, r2
 251:Dubby.cpp     ****     {
 2992              		.loc 2 251 5 view .LVU763
 2993 0016 9842     		cmp	r0, r3
 2994 0018 00D8     		bhi	.L192
 2995              	.LBE842:
 256:Dubby.cpp     **** 
 2996              		.loc 2 256 1 view .LVU764
 2997 001a 70BD     		pop	{r4, r5, r6, pc}
 2998              	.LVL212:
 2999              	.L192:
 3000              	.LBB843:
 3001              	.LBI843:
 249:Dubby.cpp     **** {
 3002              		.loc 2 249 6 is_stmt 1 view .LVU765
 3003              	.LBB844:
ARM GAS  /var/folders/1y/_321xjh9623c014x9_qw12rr0000gn/T//ccXZVGQV.s 			page 108


 253:Dubby.cpp     ****         for (int i = 0; i < 4; i++) UpdateBar(i);
 3004              		.loc 2 253 9 view .LVU766
 3005              	.LBB845:
 254:Dubby.cpp     ****     }
 3006              		.loc 2 254 18 is_stmt 0 view .LVU767
 3007 001c 0024     		movs	r4, #0
 3008              	.LBE845:
 253:Dubby.cpp     ****         for (int i = 0; i < 4; i++) UpdateBar(i);
 3009              		.loc 2 253 49 view .LVU768
 3010 001e FFF7FEFF 		bl	_ZN5daisy6System6GetNowEv
 3011              	.LVL213:
 253:Dubby.cpp     ****         for (int i = 0; i < 4; i++) UpdateBar(i);
 3012              		.loc 2 253 29 view .LVU769
 3013 0022 C6F8700B 		str	r0, [r6, #2928]
 254:Dubby.cpp     ****     }
 3014              		.loc 2 254 9 is_stmt 1 view .LVU770
 3015              	.LVL214:
 3016              	.LBB846:
 254:Dubby.cpp     ****     }
 3017              		.loc 2 254 27 view .LVU771
 3018              	.L189:
 254:Dubby.cpp     ****     }
 3019              		.loc 2 254 37 view .LVU772
 254:Dubby.cpp     ****     }
 3020              		.loc 2 254 46 is_stmt 0 view .LVU773
 3021 0026 2146     		mov	r1, r4
 254:Dubby.cpp     ****     }
 3022              		.loc 2 254 9 view .LVU774
 3023 0028 0134     		adds	r4, r4, #1
 3024              	.LVL215:
 254:Dubby.cpp     ****     }
 3025              		.loc 2 254 46 view .LVU775
 3026 002a 2846     		mov	r0, r5
 3027 002c FFF7FEFF 		bl	_ZN5daisy5Dubby9UpdateBarEi
 3028              	.LVL216:
 254:Dubby.cpp     ****     }
 3029              		.loc 2 254 9 is_stmt 1 view .LVU776
 254:Dubby.cpp     ****     }
 3030              		.loc 2 254 27 view .LVU777
 3031 0030 042C     		cmp	r4, #4
 3032 0032 F8D1     		bne	.L189
 3033              	.LBE846:
 3034              	.LBE844:
 3035              	.LBE843:
 256:Dubby.cpp     **** 
 3036              		.loc 2 256 1 is_stmt 0 view .LVU778
 3037 0034 70BD     		pop	{r4, r5, r6, pc}
 256:Dubby.cpp     **** 
 3038              		.loc 2 256 1 view .LVU779
 3039              		.cfi_endproc
 3040              	.LFE3755:
 3042 0036 00BF     		.section	.text._ZN5daisy5Dubby11RenderScopeEv,"ax",%progbits
 3043              		.align	1
 3044              		.p2align 2,,3
 3045              		.global	_ZN5daisy5Dubby11RenderScopeEv
 3046              		.syntax unified
 3047              		.thumb
ARM GAS  /var/folders/1y/_321xjh9623c014x9_qw12rr0000gn/T//ccXZVGQV.s 			page 109


 3048              		.thumb_func
 3050              	_ZN5daisy5Dubby11RenderScopeEv:
 3051              	.LVL217:
 3052              	.LFB3758:
 288:Dubby.cpp     ****     if(seed.system.GetNow() - screen_update_last_ > screen_update_period_)
 3053              		.loc 2 288 1 is_stmt 1 view -0
 3054              		.cfi_startproc
 3055              		@ args = 0, pretend = 0, frame = 0
 3056              		@ frame_needed = 0, uses_anonymous_args = 0
 289:Dubby.cpp     ****     {
 3057              		.loc 2 289 5 view .LVU781
 288:Dubby.cpp     ****     if(seed.system.GetNow() - screen_update_last_ > screen_update_period_)
 3058              		.loc 2 288 1 is_stmt 0 view .LVU782
 3059 0000 10B5     		push	{r4, lr}
 3060              		.cfi_def_cfa_offset 8
 3061              		.cfi_offset 4, -8
 3062              		.cfi_offset 14, -4
 288:Dubby.cpp     ****     if(seed.system.GetNow() - screen_update_last_ > screen_update_period_)
 3063              		.loc 2 288 1 view .LVU783
 3064 0002 0446     		mov	r4, r0
 3065              	.LBB848:
 289:Dubby.cpp     ****     {
 3066              		.loc 2 289 26 view .LVU784
 3067 0004 FFF7FEFF 		bl	_ZN5daisy6System6GetNowEv
 3068              	.LVL218:
 289:Dubby.cpp     ****     {
 3069              		.loc 2 289 31 view .LVU785
 3070 0008 04F59033 		add	r3, r4, #73728
 289:Dubby.cpp     ****     {
 3071              		.loc 2 289 29 view .LVU786
 3072 000c D3F8702B 		ldr	r2, [r3, #2928]
 289:Dubby.cpp     ****     {
 3073              		.loc 2 289 5 view .LVU787
 3074 0010 D3F8743B 		ldr	r3, [r3, #2932]
 289:Dubby.cpp     ****     {
 3075              		.loc 2 289 29 view .LVU788
 3076 0014 801A     		subs	r0, r0, r2
 289:Dubby.cpp     ****     {
 3077              		.loc 2 289 5 view .LVU789
 3078 0016 9842     		cmp	r0, r3
 3079 0018 00D8     		bhi	.L196
 3080              	.LBE848:
 312:Dubby.cpp     **** 
 3081              		.loc 2 312 1 view .LVU790
 3082 001a 10BD     		pop	{r4, pc}
 3083              	.LVL219:
 3084              	.L196:
 312:Dubby.cpp     **** 
 3085              		.loc 2 312 1 view .LVU791
 3086 001c 2046     		mov	r0, r4
 3087 001e BDE81040 		pop	{r4, lr}
 3088              		.cfi_restore 14
 3089              		.cfi_restore 4
 3090              		.cfi_def_cfa_offset 0
 3091              	.LVL220:
 312:Dubby.cpp     **** 
 3092              		.loc 2 312 1 view .LVU792
ARM GAS  /var/folders/1y/_321xjh9623c014x9_qw12rr0000gn/T//ccXZVGQV.s 			page 110


 3093 0022 FFF7FEBF 		b	_ZN5daisy5Dubby11RenderScopeEv.part.0
 3094              	.LVL221:
 312:Dubby.cpp     **** 
 3095              		.loc 2 312 1 view .LVU793
 3096              		.cfi_endproc
 3097              	.LFE3758:
 3099 0026 00BF     		.section	.text._ZN5daisy5Dubby17SwitchMIDIOutThruEb,"ax",%progbits
 3100              		.align	1
 3101              		.p2align 2,,3
 3102              		.global	_ZN5daisy5Dubby17SwitchMIDIOutThruEb
 3103              		.syntax unified
 3104              		.thumb
 3105              		.thumb_func
 3107              	_ZN5daisy5Dubby17SwitchMIDIOutThruEb:
 3108              	.LVL222:
 3109              	.LFB3762:
 353:Dubby.cpp     ****     // state == true => PIN IS HIGH => MIDI THRU
 3110              		.loc 2 353 1 is_stmt 1 view -0
 3111              		.cfi_startproc
 3112              		@ args = 0, pretend = 0, frame = 0
 3113              		@ frame_needed = 0, uses_anonymous_args = 0
 3114              		@ link register save eliminated.
 356:Dubby.cpp     **** }
 3115              		.loc 2 356 5 view .LVU795
 353:Dubby.cpp     ****     // state == true => PIN IS HIGH => MIDI THRU
 3116              		.loc 2 353 1 is_stmt 0 view .LVU796
 3117 0000 0346     		mov	r3, r0
 356:Dubby.cpp     **** }
 3118              		.loc 2 356 19 view .LVU797
 3119 0002 49F62020 		movw	r0, #39456
 3120              	.LVL223:
 356:Dubby.cpp     **** }
 3121              		.loc 2 356 19 view .LVU798
 3122 0006 1844     		add	r0, r0, r3
 3123 0008 FFF7FEBF 		b	dsy_gpio_write
 3124              	.LVL224:
 356:Dubby.cpp     **** }
 3125              		.loc 2 356 19 view .LVU799
 3126              		.cfi_endproc
 3127              	.LFE3762:
 3129              		.section	.text._ZN5daisy5Dubby11InitEncoderEv,"ax",%progbits
 3130              		.align	1
 3131              		.p2align 2,,3
 3132              		.global	_ZN5daisy5Dubby11InitEncoderEv
 3133              		.syntax unified
 3134              		.thumb
 3135              		.thumb_func
 3137              	_ZN5daisy5Dubby11InitEncoderEv:
 3138              	.LVL225:
 3139              	.LFB3763:
 360:Dubby.cpp     ****     encoder.Init(seed.GetPin(PIN_ENC_A),
 3140              		.loc 2 360 1 is_stmt 1 view -0
 3141              		.cfi_startproc
 3142              		@ args = 0, pretend = 0, frame = 16
 3143              		@ frame_needed = 0, uses_anonymous_args = 0
 361:Dubby.cpp     ****                 seed.GetPin(PIN_ENC_B),
 3144              		.loc 2 361 5 view .LVU801
ARM GAS  /var/folders/1y/_321xjh9623c014x9_qw12rr0000gn/T//ccXZVGQV.s 			page 111


 360:Dubby.cpp     ****     encoder.Init(seed.GetPin(PIN_ENC_A),
 3145              		.loc 2 360 1 is_stmt 0 view .LVU802
 3146 0000 10B5     		push	{r4, lr}
 3147              		.cfi_def_cfa_offset 8
 3148              		.cfi_offset 4, -8
 3149              		.cfi_offset 14, -4
 3150 0002 0446     		mov	r4, r0
 3151 0004 84B0     		sub	sp, sp, #16
 3152              		.cfi_def_cfa_offset 24
 361:Dubby.cpp     ****                 seed.GetPin(PIN_ENC_B),
 3153              		.loc 2 361 17 view .LVU803
 3154 0006 0620     		movs	r0, #6
 3155              	.LVL226:
 361:Dubby.cpp     ****                 seed.GetPin(PIN_ENC_B),
 3156              		.loc 2 361 17 view .LVU804
 3157 0008 FFF7FEFF 		bl	_ZN5daisy9DaisySeed6GetPinEh
 3158              	.LVL227:
 3159 000c 0346     		mov	r3, r0	@ movhi
 3160 000e 0520     		movs	r0, #5
 3161 0010 ADF80430 		strh	r3, [sp, #4]	@ movhi
 3162 0014 FFF7FEFF 		bl	_ZN5daisy9DaisySeed6GetPinEh
 3163              	.LVL228:
 3164 0018 0346     		mov	r3, r0	@ movhi
 3165 001a 0420     		movs	r0, #4
 3166 001c ADF80830 		strh	r3, [sp, #8]	@ movhi
 3167 0020 FFF7FEFF 		bl	_ZN5daisy9DaisySeed6GetPinEh
 3168              	.LVL229:
 3169 0024 ADF80C00 		strh	r0, [sp, #12]	@ movhi
 3170 0028 04F1F800 		add	r0, r4, #248
 3171 002c 9FED040A 		vldr.32	s0, .L200
 3172 0030 039B     		ldr	r3, [sp, #12]
 3173 0032 DDE90112 		ldrd	r1, r2, [sp, #4]
 364:Dubby.cpp     **** 
 3174              		.loc 2 364 1 view .LVU805
 3175 0036 04B0     		add	sp, sp, #16
 3176              		.cfi_def_cfa_offset 8
 3177              		@ sp needed
 3178 0038 BDE81040 		pop	{r4, lr}
 3179              		.cfi_restore 14
 3180              		.cfi_restore 4
 3181              		.cfi_def_cfa_offset 0
 3182              	.LVL230:
 361:Dubby.cpp     ****                 seed.GetPin(PIN_ENC_B),
 3183              		.loc 2 361 17 view .LVU806
 3184 003c FFF7FEBF 		b	_ZN5daisy12DubbyEncoder4InitE12dsy_gpio_pinS1_S1_f
 3185              	.LVL231:
 3186              	.L201:
 361:Dubby.cpp     ****                 seed.GetPin(PIN_ENC_B),
 3187              		.loc 2 361 17 view .LVU807
 3188              		.align	2
 3189              	.L200:
 3190 0040 00000000 		.word	0
 3191              		.cfi_endproc
 3192              	.LFE3763:
 3194              		.section	.text._ZN5daisy5Dubby18ProcessAllControlsEv,"ax",%progbits
 3195              		.align	1
 3196              		.p2align 2,,3
ARM GAS  /var/folders/1y/_321xjh9623c014x9_qw12rr0000gn/T//ccXZVGQV.s 			page 112


 3197              		.global	_ZN5daisy5Dubby18ProcessAllControlsEv
 3198              		.syntax unified
 3199              		.thumb
 3200              		.thumb_func
 3202              	_ZN5daisy5Dubby18ProcessAllControlsEv:
 3203              	.LVL232:
 3204              	.LFB3764:
 367:Dubby.cpp     ****     ProcessAnalogControls();
 3205              		.loc 2 367 1 is_stmt 1 view -0
 3206              		.cfi_startproc
 3207              		@ args = 0, pretend = 0, frame = 0
 3208              		@ frame_needed = 0, uses_anonymous_args = 0
 368:Dubby.cpp     ****     ProcessDigitalControls();
 3209              		.loc 2 368 5 view .LVU809
 367:Dubby.cpp     ****     ProcessAnalogControls();
 3210              		.loc 2 367 1 is_stmt 0 view .LVU810
 3211 0000 70B5     		push	{r4, r5, r6, lr}
 3212              		.cfi_def_cfa_offset 16
 3213              		.cfi_offset 4, -16
 3214              		.cfi_offset 5, -12
 3215              		.cfi_offset 6, -8
 3216              		.cfi_offset 14, -4
 367:Dubby.cpp     ****     ProcessAnalogControls();
 3217              		.loc 2 367 1 view .LVU811
 3218 0002 0546     		mov	r5, r0
 3219              	.LVL233:
 3220              	.LBB854:
 3221              	.LBI854:
 372:Dubby.cpp     **** {
 3222              		.loc 2 372 6 is_stmt 1 view .LVU812
 3223              	.LBE854:
 374:Dubby.cpp     ****         analogInputs[i].Process();
 3224              		.loc 2 374 5 view .LVU813
 3225              	.LBB856:
 3226              	.LBB855:
 374:Dubby.cpp     ****         analogInputs[i].Process();
 3227              		.loc 2 374 25 view .LVU814
 3228 0004 00F59274 		add	r4, r0, #292
 3229 0008 00F5F276 		add	r6, r0, #484
 3230              	.LVL234:
 3231              	.L203:
 375:Dubby.cpp     **** }
 3232              		.loc 2 375 9 view .LVU815
 375:Dubby.cpp     **** }
 3233              		.loc 2 375 32 is_stmt 0 view .LVU816
 3234 000c 2046     		mov	r0, r4
 374:Dubby.cpp     ****         analogInputs[i].Process();
 3235              		.loc 2 374 25 view .LVU817
 3236 000e 2034     		adds	r4, r4, #32
 375:Dubby.cpp     **** }
 3237              		.loc 2 375 32 view .LVU818
 3238 0010 FFF7FEFF 		bl	_ZN5daisy13AnalogControl7ProcessEv
 3239              	.LVL235:
 374:Dubby.cpp     ****         analogInputs[i].Process();
 3240              		.loc 2 374 5 is_stmt 1 view .LVU819
 374:Dubby.cpp     ****         analogInputs[i].Process();
 3241              		.loc 2 374 25 view .LVU820
ARM GAS  /var/folders/1y/_321xjh9623c014x9_qw12rr0000gn/T//ccXZVGQV.s 			page 113


 3242 0014 A642     		cmp	r6, r4
 3243 0016 F9D1     		bne	.L203
 3244              	.LVL236:
 374:Dubby.cpp     ****         analogInputs[i].Process();
 3245              		.loc 2 374 25 is_stmt 0 view .LVU821
 3246              	.LBE855:
 3247              	.LBE856:
 369:Dubby.cpp     **** }
 3248              		.loc 2 369 5 is_stmt 1 view .LVU822
 3249              	.LBB857:
 3250              	.LBI857:
 378:Dubby.cpp     **** {
 3251              		.loc 2 378 6 view .LVU823
 3252              	.LBB858:
 380:Dubby.cpp     **** 
 3253              		.loc 2 380 5 view .LVU824
 380:Dubby.cpp     **** 
 3254              		.loc 2 380 21 is_stmt 0 view .LVU825
 3255 0018 05F1F800 		add	r0, r5, #248
 3256 001c FFF7FEFF 		bl	_ZN5daisy12DubbyEncoder8DebounceEv
 3257              	.LVL237:
 382:Dubby.cpp     **** }
 3258              		.loc 2 382 5 is_stmt 1 view .LVU826
 3259              	.LBB859:
 382:Dubby.cpp     **** }
 3260              		.loc 2 382 23 view .LVU827
 382:Dubby.cpp     **** }
 3261              		.loc 2 382 33 view .LVU828
 382:Dubby.cpp     **** }
 3262              		.loc 2 382 52 is_stmt 0 view .LVU829
 3263 0020 05F51770 		add	r0, r5, #604
 3264 0024 FFF7FEFF 		bl	_ZN5daisy6Switch8DebounceEv
 3265              	.LVL238:
 382:Dubby.cpp     **** }
 3266              		.loc 2 382 5 is_stmt 1 view .LVU830
 382:Dubby.cpp     **** }
 3267              		.loc 2 382 23 view .LVU831
 382:Dubby.cpp     **** }
 3268              		.loc 2 382 33 view .LVU832
 382:Dubby.cpp     **** }
 3269              		.loc 2 382 52 is_stmt 0 view .LVU833
 3270 0028 05F51B70 		add	r0, r5, #620
 3271 002c FFF7FEFF 		bl	_ZN5daisy6Switch8DebounceEv
 3272              	.LVL239:
 382:Dubby.cpp     **** }
 3273              		.loc 2 382 5 is_stmt 1 view .LVU834
 382:Dubby.cpp     **** }
 3274              		.loc 2 382 23 view .LVU835
 382:Dubby.cpp     **** }
 3275              		.loc 2 382 33 view .LVU836
 382:Dubby.cpp     **** }
 3276              		.loc 2 382 52 is_stmt 0 view .LVU837
 3277 0030 05F51F70 		add	r0, r5, #636
 3278 0034 FFF7FEFF 		bl	_ZN5daisy6Switch8DebounceEv
 3279              	.LVL240:
 382:Dubby.cpp     **** }
 3280              		.loc 2 382 5 is_stmt 1 view .LVU838
ARM GAS  /var/folders/1y/_321xjh9623c014x9_qw12rr0000gn/T//ccXZVGQV.s 			page 114


 382:Dubby.cpp     **** }
 3281              		.loc 2 382 23 view .LVU839
 382:Dubby.cpp     **** }
 3282              		.loc 2 382 33 view .LVU840
 382:Dubby.cpp     **** }
 3283              		.loc 2 382 52 is_stmt 0 view .LVU841
 3284 0038 05F52370 		add	r0, r5, #652
 3285              	.LBE859:
 3286              	.LBE858:
 3287              	.LBE857:
 370:Dubby.cpp     **** 
 3288              		.loc 2 370 1 view .LVU842
 3289 003c BDE87040 		pop	{r4, r5, r6, lr}
 3290              		.cfi_restore 14
 3291              		.cfi_restore 6
 3292              		.cfi_restore 5
 3293              		.cfi_restore 4
 3294              		.cfi_def_cfa_offset 0
 3295              	.LVL241:
 3296              	.LBB862:
 3297              	.LBB861:
 3298              	.LBB860:
 382:Dubby.cpp     **** }
 3299              		.loc 2 382 52 view .LVU843
 3300 0040 FFF7FEBF 		b	_ZN5daisy6Switch8DebounceEv
 3301              	.LVL242:
 382:Dubby.cpp     **** }
 3302              		.loc 2 382 52 view .LVU844
 3303              	.LBE860:
 3304              	.LBE861:
 3305              	.LBE862:
 3306              		.cfi_endproc
 3307              	.LFE3764:
 3309              		.section	.text._ZN5daisy5Dubby21ProcessAnalogControlsEv,"ax",%progbits
 3310              		.align	1
 3311              		.p2align 2,,3
 3312              		.global	_ZN5daisy5Dubby21ProcessAnalogControlsEv
 3313              		.syntax unified
 3314              		.thumb
 3315              		.thumb_func
 3317              	_ZN5daisy5Dubby21ProcessAnalogControlsEv:
 3318              	.LVL243:
 3319              	.LFB3765:
 373:Dubby.cpp     ****     for(size_t i = 0; i < CTRL_LAST; i++)
 3320              		.loc 2 373 1 is_stmt 1 view -0
 3321              		.cfi_startproc
 3322              		@ args = 0, pretend = 0, frame = 0
 3323              		@ frame_needed = 0, uses_anonymous_args = 0
 374:Dubby.cpp     ****         analogInputs[i].Process();
 3324              		.loc 2 374 5 view .LVU846
 3325              	.LBB863:
 374:Dubby.cpp     ****         analogInputs[i].Process();
 3326              		.loc 2 374 25 view .LVU847
 3327              	.LBE863:
 373:Dubby.cpp     ****     for(size_t i = 0; i < CTRL_LAST; i++)
 3328              		.loc 2 373 1 is_stmt 0 view .LVU848
 3329 0000 38B5     		push	{r3, r4, r5, lr}
ARM GAS  /var/folders/1y/_321xjh9623c014x9_qw12rr0000gn/T//ccXZVGQV.s 			page 115


 3330              		.cfi_def_cfa_offset 16
 3331              		.cfi_offset 3, -16
 3332              		.cfi_offset 4, -12
 3333              		.cfi_offset 5, -8
 3334              		.cfi_offset 14, -4
 3335 0002 00F59274 		add	r4, r0, #292
 3336 0006 00F5F275 		add	r5, r0, #484
 3337              	.LVL244:
 3338              	.L207:
 3339              	.LBB864:
 375:Dubby.cpp     **** }
 3340              		.loc 2 375 9 is_stmt 1 discriminator 2 view .LVU849
 375:Dubby.cpp     **** }
 3341              		.loc 2 375 32 is_stmt 0 discriminator 2 view .LVU850
 3342 000a 2046     		mov	r0, r4
 374:Dubby.cpp     ****         analogInputs[i].Process();
 3343              		.loc 2 374 25 discriminator 2 view .LVU851
 3344 000c 2034     		adds	r4, r4, #32
 375:Dubby.cpp     **** }
 3345              		.loc 2 375 32 discriminator 2 view .LVU852
 3346 000e FFF7FEFF 		bl	_ZN5daisy13AnalogControl7ProcessEv
 3347              	.LVL245:
 374:Dubby.cpp     ****         analogInputs[i].Process();
 3348              		.loc 2 374 5 is_stmt 1 discriminator 2 view .LVU853
 374:Dubby.cpp     ****         analogInputs[i].Process();
 3349              		.loc 2 374 25 discriminator 2 view .LVU854
 3350 0012 AC42     		cmp	r4, r5
 3351 0014 F9D1     		bne	.L207
 3352              	.LBE864:
 376:Dubby.cpp     **** 
 3353              		.loc 2 376 1 is_stmt 0 view .LVU855
 3354 0016 38BD     		pop	{r3, r4, r5, pc}
 376:Dubby.cpp     **** 
 3355              		.loc 2 376 1 view .LVU856
 3356              		.cfi_endproc
 3357              	.LFE3765:
 3359              		.section	.text._ZN5daisy5Dubby22ProcessDigitalControlsEv,"ax",%progbits
 3360              		.align	1
 3361              		.p2align 2,,3
 3362              		.global	_ZN5daisy5Dubby22ProcessDigitalControlsEv
 3363              		.syntax unified
 3364              		.thumb
 3365              		.thumb_func
 3367              	_ZN5daisy5Dubby22ProcessDigitalControlsEv:
 3368              	.LVL246:
 3369              	.LFB3766:
 379:Dubby.cpp     ****     encoder.Debounce();
 3370              		.loc 2 379 1 is_stmt 1 view -0
 3371              		.cfi_startproc
 3372              		@ args = 0, pretend = 0, frame = 0
 3373              		@ frame_needed = 0, uses_anonymous_args = 0
 380:Dubby.cpp     **** 
 3374              		.loc 2 380 5 view .LVU858
 379:Dubby.cpp     ****     encoder.Debounce();
 3375              		.loc 2 379 1 is_stmt 0 view .LVU859
 3376 0000 10B5     		push	{r4, lr}
 3377              		.cfi_def_cfa_offset 8
ARM GAS  /var/folders/1y/_321xjh9623c014x9_qw12rr0000gn/T//ccXZVGQV.s 			page 116


 3378              		.cfi_offset 4, -8
 3379              		.cfi_offset 14, -4
 379:Dubby.cpp     ****     encoder.Debounce();
 3380              		.loc 2 379 1 view .LVU860
 3381 0002 0446     		mov	r4, r0
 380:Dubby.cpp     **** 
 3382              		.loc 2 380 21 view .LVU861
 3383 0004 F830     		adds	r0, r0, #248
 3384              	.LVL247:
 380:Dubby.cpp     **** 
 3385              		.loc 2 380 21 view .LVU862
 3386 0006 FFF7FEFF 		bl	_ZN5daisy12DubbyEncoder8DebounceEv
 3387              	.LVL248:
 382:Dubby.cpp     **** }
 3388              		.loc 2 382 5 is_stmt 1 view .LVU863
 3389              	.LBB865:
 382:Dubby.cpp     **** }
 3390              		.loc 2 382 23 view .LVU864
 382:Dubby.cpp     **** }
 3391              		.loc 2 382 33 view .LVU865
 382:Dubby.cpp     **** }
 3392              		.loc 2 382 52 is_stmt 0 view .LVU866
 3393 000a 04F51770 		add	r0, r4, #604
 3394 000e FFF7FEFF 		bl	_ZN5daisy6Switch8DebounceEv
 3395              	.LVL249:
 382:Dubby.cpp     **** }
 3396              		.loc 2 382 5 is_stmt 1 view .LVU867
 382:Dubby.cpp     **** }
 3397              		.loc 2 382 23 view .LVU868
 382:Dubby.cpp     **** }
 3398              		.loc 2 382 33 view .LVU869
 382:Dubby.cpp     **** }
 3399              		.loc 2 382 52 is_stmt 0 view .LVU870
 3400 0012 04F51B70 		add	r0, r4, #620
 3401 0016 FFF7FEFF 		bl	_ZN5daisy6Switch8DebounceEv
 3402              	.LVL250:
 382:Dubby.cpp     **** }
 3403              		.loc 2 382 5 is_stmt 1 view .LVU871
 382:Dubby.cpp     **** }
 3404              		.loc 2 382 23 view .LVU872
 382:Dubby.cpp     **** }
 3405              		.loc 2 382 33 view .LVU873
 382:Dubby.cpp     **** }
 3406              		.loc 2 382 52 is_stmt 0 view .LVU874
 3407 001a 04F51F70 		add	r0, r4, #636
 3408 001e FFF7FEFF 		bl	_ZN5daisy6Switch8DebounceEv
 3409              	.LVL251:
 382:Dubby.cpp     **** }
 3410              		.loc 2 382 5 is_stmt 1 view .LVU875
 382:Dubby.cpp     **** }
 3411              		.loc 2 382 23 view .LVU876
 382:Dubby.cpp     **** }
 3412              		.loc 2 382 33 view .LVU877
 382:Dubby.cpp     **** }
 3413              		.loc 2 382 52 is_stmt 0 view .LVU878
 3414 0022 04F52370 		add	r0, r4, #652
 3415              	.LBE865:
ARM GAS  /var/folders/1y/_321xjh9623c014x9_qw12rr0000gn/T//ccXZVGQV.s 			page 117


 383:Dubby.cpp     **** 
 3416              		.loc 2 383 1 view .LVU879
 3417 0026 BDE81040 		pop	{r4, lr}
 3418              		.cfi_restore 14
 3419              		.cfi_restore 4
 3420              		.cfi_def_cfa_offset 0
 3421              	.LVL252:
 3422              	.LBB866:
 382:Dubby.cpp     **** }
 3423              		.loc 2 382 52 view .LVU880
 3424 002a FFF7FEBF 		b	_ZN5daisy6Switch8DebounceEv
 3425              	.LVL253:
 382:Dubby.cpp     **** }
 3426              		.loc 2 382 52 view .LVU881
 3427              	.LBE866:
 3428              		.cfi_endproc
 3429              	.LFE3766:
 3431 002e 00BF     		.section	.text._ZN5daisy5Dubby12GetKnobValueENS0_4CtrlE,"ax",%progbits
 3432              		.align	1
 3433              		.p2align 2,,3
 3434              		.global	_ZN5daisy5Dubby12GetKnobValueENS0_4CtrlE
 3435              		.syntax unified
 3436              		.thumb
 3437              		.thumb_func
 3439              	_ZN5daisy5Dubby12GetKnobValueENS0_4CtrlE:
 3440              	.LVL254:
 3441              	.LFB3767:
 386:Dubby.cpp     ****     return (analogInputs[k].Value());
 3442              		.loc 2 386 1 is_stmt 1 view -0
 3443              		.cfi_startproc
 3444              		@ args = 0, pretend = 0, frame = 0
 3445              		@ frame_needed = 0, uses_anonymous_args = 0
 3446              		@ link register save eliminated.
 3447              		.loc 2 387 5 view .LVU883
 3448              	.LBB867:
 3449              	.LBI867:
 3450              		.loc 10 56 18 view .LVU884
 3451              	.LBB868:
 3452              		.loc 10 56 34 view .LVU885
 3453              		.loc 10 56 41 is_stmt 0 view .LVU886
 3454 0000 00EB4111 		add	r1, r0, r1, lsl #5
 3455              	.LVL255:
 3456              		.loc 10 56 41 view .LVU887
 3457              	.LBE868:
 3458              	.LBE867:
 388:Dubby.cpp     **** }
 3459              		.loc 2 388 1 view .LVU888
 3460 0004 91ED4C0A 		vldr.32	s0, [r1, #304]
 3461 0008 7047     		bx	lr
 3462              		.cfi_endproc
 3463              	.LFE3767:
 3465 000a 00BF     		.section	.text._ZN5daisy5Dubby9InitAudioEv,"ax",%progbits
 3466              		.align	1
 3467              		.p2align 2,,3
 3468              		.global	_ZN5daisy5Dubby9InitAudioEv
 3469              		.syntax unified
 3470              		.thumb
ARM GAS  /var/folders/1y/_321xjh9623c014x9_qw12rr0000gn/T//ccXZVGQV.s 			page 118


 3471              		.thumb_func
 3473              	_ZN5daisy5Dubby9InitAudioEv:
 3474              	.LVL256:
 3475              	.LFB3768:
 389:Dubby.cpp     **** 
 390:Dubby.cpp     **** void Dubby::InitAudio() 
 391:Dubby.cpp     **** {
 3476              		.loc 2 391 1 is_stmt 1 view -0
 3477              		.cfi_startproc
 3478              		@ args = 0, pretend = 0, frame = 136
 3479              		@ frame_needed = 0, uses_anonymous_args = 0
 392:Dubby.cpp     ****     // Handle Seed Audio as-is and then
 393:Dubby.cpp     ****     SaiHandle::Config sai_config[2];
 3480              		.loc 2 393 5 view .LVU890
 394:Dubby.cpp     ****     // Internal Codec
 395:Dubby.cpp     ****     if(seed.CheckBoardVersion() == DaisySeed::BoardVersion::DAISY_SEED_1_1)
 3481              		.loc 2 395 5 view .LVU891
 391:Dubby.cpp     ****     // Handle Seed Audio as-is and then
 3482              		.loc 2 391 1 is_stmt 0 view .LVU892
 3483 0000 2DE9F041 		push	{r4, r5, r6, r7, r8, lr}
 3484              		.cfi_def_cfa_offset 24
 3485              		.cfi_offset 4, -24
 3486              		.cfi_offset 5, -20
 3487              		.cfi_offset 6, -16
 3488              		.cfi_offset 7, -12
 3489              		.cfi_offset 8, -8
 3490              		.cfi_offset 14, -4
 3491 0004 0746     		mov	r7, r0
 3492 0006 A2B0     		sub	sp, sp, #136
 3493              		.cfi_def_cfa_offset 160
 3494              		.loc 2 395 30 view .LVU893
 3495 0008 1C30     		adds	r0, r0, #28
 3496              	.LVL257:
 396:Dubby.cpp     ****     {
 397:Dubby.cpp     ****         sai_config[0].pin_config.sa = {DSY_GPIOE, 6};
 3497              		.loc 2 397 37 view .LVU894
 3498 000a 3F4D     		ldr	r5, .L218
 395:Dubby.cpp     ****     {
 3499              		.loc 2 395 30 view .LVU895
 3500 000c FFF7FEFF 		bl	_ZN5daisy9DaisySeed17CheckBoardVersionEv
 3501              	.LVL258:
 395:Dubby.cpp     ****     {
 3502              		.loc 2 395 5 view .LVU896
 3503 0010 0128     		cmp	r0, #1
 398:Dubby.cpp     ****         sai_config[0].pin_config.sb = {DSY_GPIOE, 3};
 399:Dubby.cpp     ****         sai_config[0].a_dir         = SaiHandle::Config::Direction::RECEIVE;
 400:Dubby.cpp     ****         sai_config[0].b_dir         = SaiHandle::Config::Direction::TRANSMIT;
 3504              		.loc 2 400 37 view .LVU897
 3505 0012 4FF00001 		mov	r1, #0
 395:Dubby.cpp     ****     {
 3506              		.loc 2 395 5 view .LVU898
 3507 0016 6DD0     		beq	.L217
 401:Dubby.cpp     ****     }
 402:Dubby.cpp     ****     else
 403:Dubby.cpp     ****     {
 404:Dubby.cpp     ****         sai_config[0].pin_config.sa = {DSY_GPIOE, 6};
 3508              		.loc 2 404 9 is_stmt 1 view .LVU899
ARM GAS  /var/folders/1y/_321xjh9623c014x9_qw12rr0000gn/T//ccXZVGQV.s 			page 119


 3509              		.loc 2 404 37 is_stmt 0 view .LVU900
 3510 0018 2B88     		ldrh	r3, [r5]
 405:Dubby.cpp     ****         sai_config[0].pin_config.sb = {DSY_GPIOE, 3};
 406:Dubby.cpp     ****         sai_config[0].a_dir         = SaiHandle::Config::Direction::TRANSMIT;
 407:Dubby.cpp     ****         sai_config[0].b_dir         = SaiHandle::Config::Direction::RECEIVE;
 3511              		.loc 2 407 37 view .LVU901
 3512 001a 0122     		movs	r2, #1
 404:Dubby.cpp     ****         sai_config[0].pin_config.sb = {DSY_GPIOE, 3};
 3513              		.loc 2 404 37 view .LVU902
 3514 001c ADF84230 		strh	r3, [sp, #66]	@ movhi
 405:Dubby.cpp     ****         sai_config[0].pin_config.sb = {DSY_GPIOE, 3};
 3515              		.loc 2 405 9 is_stmt 1 view .LVU903
 405:Dubby.cpp     ****         sai_config[0].pin_config.sb = {DSY_GPIOE, 3};
 3516              		.loc 2 405 37 is_stmt 0 view .LVU904
 3517 0020 AB88     		ldrh	r3, [r5, #4]
 3518              		.loc 2 407 37 view .LVU905
 3519 0022 CDE91612 		strd	r1, r2, [sp, #88]
 405:Dubby.cpp     ****         sai_config[0].pin_config.sb = {DSY_GPIOE, 3};
 3520              		.loc 2 405 37 view .LVU906
 3521 0026 ADF84430 		strh	r3, [sp, #68]	@ movhi
 406:Dubby.cpp     ****         sai_config[0].b_dir         = SaiHandle::Config::Direction::RECEIVE;
 3522              		.loc 2 406 9 is_stmt 1 view .LVU907
 3523              		.loc 2 407 9 view .LVU908
 3524              	.L215:
 408:Dubby.cpp     ****     }
 409:Dubby.cpp     ****     sai_config[0].periph          = SaiHandle::Config::Peripheral::SAI_1;
 3525              		.loc 2 409 5 view .LVU909
 410:Dubby.cpp     ****     sai_config[0].sr              = SaiHandle::Config::SampleRate::SAI_48KHZ;
 411:Dubby.cpp     ****     sai_config[0].bit_depth       = SaiHandle::Config::BitDepth::SAI_24BIT;
 412:Dubby.cpp     ****     sai_config[0].a_sync          = SaiHandle::Config::Sync::MASTER;
 413:Dubby.cpp     ****     sai_config[0].b_sync          = SaiHandle::Config::Sync::SLAVE;
 414:Dubby.cpp     ****     sai_config[0].pin_config.fs   = {DSY_GPIOE, 4};
 3526              		.loc 2 414 35 is_stmt 0 view .LVU910
 3527 002a 2B89     		ldrh	r3, [r5, #8]
 409:Dubby.cpp     ****     sai_config[0].sr              = SaiHandle::Config::SampleRate::SAI_48KHZ;
 3528              		.loc 2 409 35 view .LVU911
 3529 002c 0024     		movs	r4, #0
 411:Dubby.cpp     ****     sai_config[0].a_sync          = SaiHandle::Config::Sync::MASTER;
 3530              		.loc 2 411 35 view .LVU912
 3531 002e 0126     		movs	r6, #1
 410:Dubby.cpp     ****     sai_config[0].sr              = SaiHandle::Config::SampleRate::SAI_48KHZ;
 3532              		.loc 2 410 35 view .LVU913
 3533 0030 4FF00308 		mov	r8, #3
 3534              		.loc 2 414 35 view .LVU914
 3535 0034 ADF83E30 		strh	r3, [sp, #62]	@ movhi
 415:Dubby.cpp     ****     sai_config[0].pin_config.mclk = {DSY_GPIOE, 2};
 416:Dubby.cpp     ****     sai_config[0].pin_config.sck  = {DSY_GPIOE, 5};
 417:Dubby.cpp     **** 
 418:Dubby.cpp     ****     // External Codec
 419:Dubby.cpp     **** 
 420:Dubby.cpp     ****     I2CHandle::Config i2c_cfg;
 421:Dubby.cpp     ****     i2c_cfg.periph         = I2CHandle::Config::Peripheral::I2C_1;
 422:Dubby.cpp     ****     i2c_cfg.mode           = I2CHandle::Config::Mode::I2C_MASTER;
 423:Dubby.cpp     ****     i2c_cfg.speed          = I2CHandle::Config::Speed::I2C_400KHZ;
 424:Dubby.cpp     ****     i2c_cfg.pin_config.scl = {DSY_GPIOB, 8};
 425:Dubby.cpp     ****     i2c_cfg.pin_config.sda = {DSY_GPIOB, 9};
 426:Dubby.cpp     **** 
ARM GAS  /var/folders/1y/_321xjh9623c014x9_qw12rr0000gn/T//ccXZVGQV.s 			page 120


 427:Dubby.cpp     ****     I2CHandle i2c2;
 428:Dubby.cpp     ****     i2c2.Init(i2c_cfg);
 3536              		.loc 2 428 14 view .LVU915
 3537 0038 09A9     		add	r1, sp, #36
 415:Dubby.cpp     ****     sai_config[0].pin_config.mclk = {DSY_GPIOE, 2};
 3538              		.loc 2 415 35 view .LVU916
 3539 003a AB89     		ldrh	r3, [r5, #12]
 3540              		.loc 2 428 14 view .LVU917
 3541 003c 6846     		mov	r0, sp
 409:Dubby.cpp     ****     sai_config[0].sr              = SaiHandle::Config::SampleRate::SAI_48KHZ;
 3542              		.loc 2 409 35 view .LVU918
 3543 003e 0E94     		str	r4, [sp, #56]
 410:Dubby.cpp     ****     sai_config[0].bit_depth       = SaiHandle::Config::BitDepth::SAI_24BIT;
 3544              		.loc 2 410 5 is_stmt 1 view .LVU919
 415:Dubby.cpp     ****     sai_config[0].pin_config.mclk = {DSY_GPIOE, 2};
 3545              		.loc 2 415 35 is_stmt 0 view .LVU920
 3546 0040 ADF83C30 		strh	r3, [sp, #60]	@ movhi
 416:Dubby.cpp     **** 
 3547              		.loc 2 416 35 view .LVU921
 3548 0044 2B8A     		ldrh	r3, [r5, #16]
 421:Dubby.cpp     ****     i2c_cfg.mode           = I2CHandle::Config::Mode::I2C_MASTER;
 3549              		.loc 2 421 28 view .LVU922
 3550 0046 0994     		str	r4, [sp, #36]
 416:Dubby.cpp     **** 
 3551              		.loc 2 416 35 view .LVU923
 3552 0048 ADF84030 		strh	r3, [sp, #64]	@ movhi
 424:Dubby.cpp     ****     i2c_cfg.pin_config.sda = {DSY_GPIOB, 9};
 3553              		.loc 2 424 28 view .LVU924
 3554 004c AB8A     		ldrh	r3, [r5, #20]
 3555              	.LBB869:
 3556              	.LBB870:
 3557              	.LBB871:
 3558              		.file 12 "../../libDaisy//src/per/i2c.h"
   1:../../libDaisy//src/per/i2c.h **** #pragma once
   2:../../libDaisy//src/per/i2c.h **** #include "daisy_core.h"
   3:../../libDaisy//src/per/i2c.h **** 
   4:../../libDaisy//src/per/i2c.h **** namespace daisy
   5:../../libDaisy//src/per/i2c.h **** {
   6:../../libDaisy//src/per/i2c.h **** /** A handle for interacting with an I2C peripheral. This is a dumb
   7:../../libDaisy//src/per/i2c.h ****  *  gateway that internally points to one of the four I2C peripherals
   8:../../libDaisy//src/per/i2c.h ****  *  after it was initialised. It can then be copied and passed around.
   9:../../libDaisy//src/per/i2c.h ****  *  Use an I2CHandle like this:
  10:../../libDaisy//src/per/i2c.h ****  *  
  11:../../libDaisy//src/per/i2c.h ****  *      // setup the configuration
  12:../../libDaisy//src/per/i2c.h ****  *      I2CHandle::Config i2c_conf;
  13:../../libDaisy//src/per/i2c.h ****  *      i2c_conf.periph = I2CHandle::Config::Peripheral::I2C_1;
  14:../../libDaisy//src/per/i2c.h ****  *      i2c_conf.speed  = I2CHandle::Config::Speed::I2C_400KHZ;
  15:../../libDaisy//src/per/i2c.h ****  *      i2c_conf.mode   = I2CHandle::Config::Mode::Master;
  16:../../libDaisy//src/per/i2c.h ****  *      i2c_conf.pin_config.scl  = {DSY_GPIOB, 8};
  17:../../libDaisy//src/per/i2c.h ****  *      i2c_conf.pin_config.sda  = {DSY_GPIOB, 9};
  18:../../libDaisy//src/per/i2c.h ****  *      // initialise the peripheral
  19:../../libDaisy//src/per/i2c.h ****  *      I2CHandle i2c;
  20:../../libDaisy//src/per/i2c.h ****  *      i2c.Init(i2c_conf);
  21:../../libDaisy//src/per/i2c.h ****  *      // now i2c points to the corresponding peripheral and can be used.
  22:../../libDaisy//src/per/i2c.h ****  *      i2c.TransmitBlocking( ... );
  23:../../libDaisy//src/per/i2c.h ****  */
  24:../../libDaisy//src/per/i2c.h **** class I2CHandle
ARM GAS  /var/folders/1y/_321xjh9623c014x9_qw12rr0000gn/T//ccXZVGQV.s 			page 121


  25:../../libDaisy//src/per/i2c.h **** {
  26:../../libDaisy//src/per/i2c.h ****   public:
  27:../../libDaisy//src/per/i2c.h ****     /** Contains settings for initialising an I2C interface. */
  28:../../libDaisy//src/per/i2c.h ****     struct Config
  29:../../libDaisy//src/per/i2c.h ****     {
  30:../../libDaisy//src/per/i2c.h ****         /** Specifies whether the interface will operate in master or slave mode. */
  31:../../libDaisy//src/per/i2c.h ****         enum class Mode
  32:../../libDaisy//src/per/i2c.h ****         {
  33:../../libDaisy//src/per/i2c.h ****             I2C_MASTER,
  34:../../libDaisy//src/per/i2c.h ****             I2C_SLAVE,
  35:../../libDaisy//src/per/i2c.h ****         };
  36:../../libDaisy//src/per/i2c.h **** 
  37:../../libDaisy//src/per/i2c.h ****         /** Specifices the internal peripheral to use (these are mapped to different pins on the ha
  38:../../libDaisy//src/per/i2c.h ****         enum class Peripheral
  39:../../libDaisy//src/per/i2c.h ****         {
  40:../../libDaisy//src/per/i2c.h ****             I2C_1 = 0, /**< & */
  41:../../libDaisy//src/per/i2c.h ****             I2C_2,     /**< & */
  42:../../libDaisy//src/per/i2c.h ****             I2C_3,     /**< & */
  43:../../libDaisy//src/per/i2c.h ****             I2C_4,     /**< & */
  44:../../libDaisy//src/per/i2c.h ****         };
  45:../../libDaisy//src/per/i2c.h **** 
  46:../../libDaisy//src/per/i2c.h ****         /** Rate at which the clock/data will be sent/received. The device being used will have max
  47:../../libDaisy//src/per/i2c.h ****          *  1MHZ Mode is currently 886kHz
  48:../../libDaisy//src/per/i2c.h ****          */
  49:../../libDaisy//src/per/i2c.h ****         enum class Speed
  50:../../libDaisy//src/per/i2c.h ****         {
  51:../../libDaisy//src/per/i2c.h ****             I2C_100KHZ, /**< & */
  52:../../libDaisy//src/per/i2c.h ****             I2C_400KHZ, /**< & */
  53:../../libDaisy//src/per/i2c.h ****             I2C_1MHZ,   /**< & */
  54:../../libDaisy//src/per/i2c.h ****         };
  55:../../libDaisy//src/per/i2c.h **** 
  56:../../libDaisy//src/per/i2c.h ****         Peripheral periph; /**< & */
  57:../../libDaisy//src/per/i2c.h ****         struct
  58:../../libDaisy//src/per/i2c.h ****         {
  59:../../libDaisy//src/per/i2c.h ****             dsy_gpio_pin scl; /**< & */
  60:../../libDaisy//src/per/i2c.h ****             dsy_gpio_pin sda; /**< & */
  61:../../libDaisy//src/per/i2c.h ****         } pin_config;         /**< & */
  62:../../libDaisy//src/per/i2c.h **** 
  63:../../libDaisy//src/per/i2c.h ****         Speed speed; /**< & */
  64:../../libDaisy//src/per/i2c.h ****         Mode  mode;  /**< & */
  65:../../libDaisy//src/per/i2c.h ****         // 0x10 is chosen as a default to avoid conflicts with reserved addresses
  66:../../libDaisy//src/per/i2c.h ****         uint8_t address = 0x10; /**< & */
  67:../../libDaisy//src/per/i2c.h ****     };
  68:../../libDaisy//src/per/i2c.h **** 
  69:../../libDaisy//src/per/i2c.h ****     /** Return values for I2C functions. */
  70:../../libDaisy//src/per/i2c.h ****     enum class Result
  71:../../libDaisy//src/per/i2c.h ****     {
  72:../../libDaisy//src/per/i2c.h ****         OK, /**< & */
  73:../../libDaisy//src/per/i2c.h ****         ERR /**< & */
  74:../../libDaisy//src/per/i2c.h ****     };
  75:../../libDaisy//src/per/i2c.h **** 
  76:../../libDaisy//src/per/i2c.h ****     enum class Direction
  77:../../libDaisy//src/per/i2c.h ****     {
  78:../../libDaisy//src/per/i2c.h ****         TRANSMIT, /**< & */
  79:../../libDaisy//src/per/i2c.h ****         RECEIVE,  /**< & */
  80:../../libDaisy//src/per/i2c.h ****     };
  81:../../libDaisy//src/per/i2c.h **** 
ARM GAS  /var/folders/1y/_321xjh9623c014x9_qw12rr0000gn/T//ccXZVGQV.s 			page 122


  82:../../libDaisy//src/per/i2c.h ****     I2CHandle() : pimpl_(nullptr) {}
 3559              		.loc 12 82 33 view .LVU925
 3560 004e 0094     		str	r4, [sp]
 3561              	.LBE871:
 3562              	.LBE870:
 3563              	.LBE869:
 424:Dubby.cpp     ****     i2c_cfg.pin_config.sda = {DSY_GPIOB, 9};
 3564              		.loc 2 424 28 view .LVU926
 3565 0050 ADF82830 		strh	r3, [sp, #40]	@ movhi
 425:Dubby.cpp     **** 
 3566              		.loc 2 425 28 view .LVU927
 3567 0054 2B8B     		ldrh	r3, [r5, #24]
 3568 0056 ADF82A30 		strh	r3, [sp, #42]	@ movhi
 3569              	.LBB872:
 3570              	.LBB873:
  28:../../libDaisy//src/per/i2c.h ****     {
 3571              		.loc 12 28 12 view .LVU928
 3572 005a 1023     		movs	r3, #16
 3573              	.LBE873:
 3574              	.LBE872:
 413:Dubby.cpp     ****     sai_config[0].pin_config.fs   = {DSY_GPIOE, 4};
 3575              		.loc 2 413 35 view .LVU929
 3576 005c CDE91446 		strd	r4, r6, [sp, #80]
 423:Dubby.cpp     ****     i2c_cfg.pin_config.scl = {DSY_GPIOB, 8};
 3577              		.loc 2 423 28 view .LVU930
 3578 0060 CDE90B64 		strd	r6, r4, [sp, #44]
 3579              	.LBB875:
 3580              	.LBB874:
  28:../../libDaisy//src/per/i2c.h ****     {
 3581              		.loc 12 28 12 view .LVU931
 3582 0064 8DF83430 		strb	r3, [sp, #52]
 3583              	.LBE874:
 3584              	.LBE875:
 410:Dubby.cpp     ****     sai_config[0].bit_depth       = SaiHandle::Config::BitDepth::SAI_24BIT;
 3585              		.loc 2 410 35 view .LVU932
 3586 0068 CDE91286 		strd	r8, r6, [sp, #72]
 411:Dubby.cpp     ****     sai_config[0].a_sync          = SaiHandle::Config::Sync::MASTER;
 3587              		.loc 2 411 5 is_stmt 1 view .LVU933
 412:Dubby.cpp     ****     sai_config[0].b_sync          = SaiHandle::Config::Sync::SLAVE;
 3588              		.loc 2 412 5 view .LVU934
 414:Dubby.cpp     ****     sai_config[0].pin_config.mclk = {DSY_GPIOE, 2};
 3589              		.loc 2 414 5 view .LVU935
 415:Dubby.cpp     ****     sai_config[0].pin_config.sck  = {DSY_GPIOE, 5};
 3590              		.loc 2 415 5 view .LVU936
 416:Dubby.cpp     **** 
 3591              		.loc 2 416 5 view .LVU937
 420:Dubby.cpp     ****     i2c_cfg.periph         = I2CHandle::Config::Peripheral::I2C_1;
 3592              		.loc 2 420 5 view .LVU938
 3593              	.LVL259:
 3594              	.LBB876:
 3595              	.LBI872:
  28:../../libDaisy//src/per/i2c.h ****     {
 3596              		.loc 12 28 12 view .LVU939
  28:../../libDaisy//src/per/i2c.h ****     {
 3597              		.loc 12 28 12 is_stmt 0 view .LVU940
 3598              	.LBE876:
 421:Dubby.cpp     ****     i2c_cfg.mode           = I2CHandle::Config::Mode::I2C_MASTER;
ARM GAS  /var/folders/1y/_321xjh9623c014x9_qw12rr0000gn/T//ccXZVGQV.s 			page 123


 3599              		.loc 2 421 5 is_stmt 1 view .LVU941
 422:Dubby.cpp     ****     i2c_cfg.speed          = I2CHandle::Config::Speed::I2C_400KHZ;
 3600              		.loc 2 422 5 view .LVU942
 423:Dubby.cpp     ****     i2c_cfg.pin_config.scl = {DSY_GPIOB, 8};
 3601              		.loc 2 423 5 view .LVU943
 424:Dubby.cpp     ****     i2c_cfg.pin_config.sda = {DSY_GPIOB, 9};
 3602              		.loc 2 424 5 view .LVU944
 425:Dubby.cpp     **** 
 3603              		.loc 2 425 5 view .LVU945
 427:Dubby.cpp     ****     i2c2.Init(i2c_cfg);
 3604              		.loc 2 427 5 view .LVU946
 3605              	.LBB877:
 3606              	.LBI869:
 3607              		.loc 12 82 5 view .LVU947
 3608              		.loc 12 82 5 is_stmt 0 view .LVU948
 3609              	.LBE877:
 3610              		.loc 2 428 5 is_stmt 1 view .LVU949
 3611              		.loc 2 428 14 is_stmt 0 view .LVU950
 3612 006c FFF7FEFF 		bl	_ZN5daisy9I2CHandle4InitERKNS0_6ConfigE
 3613              	.LVL260:
 429:Dubby.cpp     **** 
 430:Dubby.cpp     ****     // pullups must be enabled
 431:Dubby.cpp     ****     GPIOB->PUPDR &= ~((GPIO_PUPDR_PUPD8)|(GPIO_PUPDR_PUPD9)); 
 3614              		.loc 2 431 5 is_stmt 1 view .LVU951
 3615              		.loc 2 431 18 is_stmt 0 view .LVU952
 3616 0070 264B     		ldr	r3, .L218+4
 432:Dubby.cpp     ****     GPIOB->PUPDR |= ((GPIO_PUPDR_PUPD8_0)|(GPIO_PUPDR_PUPD9_0)); 
 433:Dubby.cpp     **** 
 434:Dubby.cpp     ****     Pcm3060 codec;
 435:Dubby.cpp     **** 
 436:Dubby.cpp     ****     codec.Init(i2c2);        
 3617              		.loc 2 436 15 view .LVU953
 3618 0072 0099     		ldr	r1, [sp]
 3619 0074 01A8     		add	r0, sp, #4
 431:Dubby.cpp     ****     GPIOB->PUPDR |= ((GPIO_PUPDR_PUPD8_0)|(GPIO_PUPDR_PUPD9_0)); 
 3620              		.loc 2 431 18 view .LVU954
 3621 0076 DA68     		ldr	r2, [r3, #12]
 3622 0078 22F47022 		bic	r2, r2, #983040
 3623 007c DA60     		str	r2, [r3, #12]
 432:Dubby.cpp     ****     GPIOB->PUPDR |= ((GPIO_PUPDR_PUPD8_0)|(GPIO_PUPDR_PUPD9_0)); 
 3624              		.loc 2 432 5 is_stmt 1 view .LVU955
 432:Dubby.cpp     ****     GPIOB->PUPDR |= ((GPIO_PUPDR_PUPD8_0)|(GPIO_PUPDR_PUPD9_0)); 
 3625              		.loc 2 432 18 is_stmt 0 view .LVU956
 3626 007e DA68     		ldr	r2, [r3, #12]
 3627 0080 42F4A022 		orr	r2, r2, #327680
 3628 0084 DA60     		str	r2, [r3, #12]
 434:Dubby.cpp     **** 
 3629              		.loc 2 434 5 is_stmt 1 view .LVU957
 3630              	.LVL261:
 3631              	.LBB878:
 3632              	.LBI878:
 3633              		.file 13 "../../libDaisy//src/dev/codec_pcm3060.h"
   1:../../libDaisy//src/dev/codec_pcm3060.h **** #pragma once
   2:../../libDaisy//src/dev/codec_pcm3060.h **** #ifndef DSY_CODEC_PCM3060_H
   3:../../libDaisy//src/dev/codec_pcm3060.h **** #define DSY_CODEC_PCM3060_H
   4:../../libDaisy//src/dev/codec_pcm3060.h **** #include "per/i2c.h"
   5:../../libDaisy//src/dev/codec_pcm3060.h **** namespace daisy
ARM GAS  /var/folders/1y/_321xjh9623c014x9_qw12rr0000gn/T//ccXZVGQV.s 			page 124


   6:../../libDaisy//src/dev/codec_pcm3060.h **** {
   7:../../libDaisy//src/dev/codec_pcm3060.h **** /**
   8:../../libDaisy//src/dev/codec_pcm3060.h ****  * @brief Driver for the TI PCM3060 Audio Codec.
   9:../../libDaisy//src/dev/codec_pcm3060.h ****  * @addtogroup codec
  10:../../libDaisy//src/dev/codec_pcm3060.h ****  * 
  11:../../libDaisy//src/dev/codec_pcm3060.h ****  * For now this is a limited interface that uses I2C to communicate with the PCM3060
  12:../../libDaisy//src/dev/codec_pcm3060.h ****  * The device can also be accessed with SPI, which is not yet supported.
  13:../../libDaisy//src/dev/codec_pcm3060.h ****  * 
  14:../../libDaisy//src/dev/codec_pcm3060.h ****  * For now all registers are set to their defaults, and the Init function will 
  15:../../libDaisy//src/dev/codec_pcm3060.h ****  * perform a MRST and SRST before setting the format to 24bit LJ, and disabling 
  16:../../libDaisy//src/dev/codec_pcm3060.h ****  * power save for both the ADC and DAC.
  17:../../libDaisy//src/dev/codec_pcm3060.h ****  *
  18:../../libDaisy//src/dev/codec_pcm3060.h ****  */
  19:../../libDaisy//src/dev/codec_pcm3060.h **** class Pcm3060
  20:../../libDaisy//src/dev/codec_pcm3060.h **** {
  21:../../libDaisy//src/dev/codec_pcm3060.h ****   public:
  22:../../libDaisy//src/dev/codec_pcm3060.h ****     enum class Result
  23:../../libDaisy//src/dev/codec_pcm3060.h ****     {
  24:../../libDaisy//src/dev/codec_pcm3060.h ****         OK,
  25:../../libDaisy//src/dev/codec_pcm3060.h ****         ERR,
  26:../../libDaisy//src/dev/codec_pcm3060.h ****     };
  27:../../libDaisy//src/dev/codec_pcm3060.h **** 
  28:../../libDaisy//src/dev/codec_pcm3060.h ****     Pcm3060() {}
 3634              		.loc 13 28 5 view .LVU958
 3635              	.LBB879:
 3636              	.LBB880:
 3637              	.LBI880:
 3638              		.loc 12 82 5 view .LVU959
 3639              	.LBB881:
 3640              	.LBB882:
 3641              		.loc 12 82 33 is_stmt 0 view .LVU960
 3642 0086 0194     		str	r4, [sp, #4]
 3643              	.LVL262:
 3644              		.loc 12 82 33 view .LVU961
 3645              	.LBE882:
 3646              	.LBE881:
 3647              	.LBE880:
 3648              	.LBE879:
 3649              	.LBE878:
 3650              		.loc 2 436 5 is_stmt 1 view .LVU962
 3651              		.loc 2 436 15 is_stmt 0 view .LVU963
 3652 0088 FFF7FEFF 		bl	_ZN5daisy7Pcm30604InitENS_9I2CHandleE
 3653              	.LVL263:
 437:Dubby.cpp     **** 
 438:Dubby.cpp     ****     sai_config[1].periph          = SaiHandle::Config::Peripheral::SAI_2;
 3654              		.loc 2 438 5 is_stmt 1 view .LVU964
 439:Dubby.cpp     ****     sai_config[1].sr              = SaiHandle::Config::SampleRate::SAI_48KHZ;
 3655              		.loc 2 439 5 view .LVU965
 440:Dubby.cpp     ****     sai_config[1].bit_depth       = SaiHandle::Config::BitDepth::SAI_24BIT;
 441:Dubby.cpp     ****     sai_config[1].a_sync          = SaiHandle::Config::Sync::SLAVE;
 442:Dubby.cpp     ****     sai_config[1].b_sync          = SaiHandle::Config::Sync::MASTER;
 443:Dubby.cpp     ****     sai_config[1].pin_config.fs   = {DSY_GPIOG, 9};
 3656              		.loc 2 443 35 is_stmt 0 view .LVU966
 3657 008c AB8B     		ldrh	r3, [r5, #28]
 444:Dubby.cpp     ****     sai_config[1].pin_config.mclk = {DSY_GPIOA, 1};
 445:Dubby.cpp     ****     sai_config[1].pin_config.sck  = {DSY_GPIOA, 2};
 446:Dubby.cpp     ****     sai_config[1].a_dir         = SaiHandle::Config::Direction::TRANSMIT;
ARM GAS  /var/folders/1y/_321xjh9623c014x9_qw12rr0000gn/T//ccXZVGQV.s 			page 125


 447:Dubby.cpp     ****     sai_config[1].pin_config.sa = {DSY_GPIOD, 11};
 448:Dubby.cpp     ****     sai_config[1].b_dir         = SaiHandle::Config::Direction::RECEIVE;
 449:Dubby.cpp     ****     sai_config[1].pin_config.sb = {DSY_GPIOA, 0};
 450:Dubby.cpp     **** 
 451:Dubby.cpp     ****     SaiHandle sai_handle[2];
 452:Dubby.cpp     ****     sai_handle[0].Init(sai_config[1]);
 3658              		.loc 2 452 23 view .LVU967
 3659 008e 18A9     		add	r1, sp, #96
 447:Dubby.cpp     ****     sai_config[1].b_dir         = SaiHandle::Config::Direction::RECEIVE;
 3660              		.loc 2 447 33 view .LVU968
 3661 0090 2A8C     		ldrh	r2, [r5, #32]
 3662              		.loc 2 452 23 view .LVU969
 3663 0092 03A8     		add	r0, sp, #12
 443:Dubby.cpp     ****     sai_config[1].pin_config.mclk = {DSY_GPIOA, 1};
 3664              		.loc 2 443 35 view .LVU970
 3665 0094 ADF86630 		strh	r3, [sp, #102]	@ movhi
 444:Dubby.cpp     ****     sai_config[1].pin_config.mclk = {DSY_GPIOA, 1};
 3666              		.loc 2 444 35 view .LVU971
 3667 0098 4FF48073 		mov	r3, #256
 447:Dubby.cpp     ****     sai_config[1].b_dir         = SaiHandle::Config::Direction::RECEIVE;
 3668              		.loc 2 447 33 view .LVU972
 3669 009c ADF86A20 		strh	r2, [sp, #106]	@ movhi
 444:Dubby.cpp     ****     sai_config[1].pin_config.mclk = {DSY_GPIOA, 1};
 3670              		.loc 2 444 35 view .LVU973
 3671 00a0 ADF86430 		strh	r3, [sp, #100]	@ movhi
 445:Dubby.cpp     ****     sai_config[1].a_dir         = SaiHandle::Config::Direction::TRANSMIT;
 3672              		.loc 2 445 35 view .LVU974
 3673 00a4 4FF40073 		mov	r3, #512
 449:Dubby.cpp     **** 
 3674              		.loc 2 449 33 view .LVU975
 3675 00a8 ADF86C40 		strh	r4, [sp, #108]	@ movhi
 445:Dubby.cpp     ****     sai_config[1].a_dir         = SaiHandle::Config::Direction::TRANSMIT;
 3676              		.loc 2 445 35 view .LVU976
 3677 00ac ADF86830 		strh	r3, [sp, #104]	@ movhi
 438:Dubby.cpp     ****     sai_config[1].sr              = SaiHandle::Config::SampleRate::SAI_48KHZ;
 3678              		.loc 2 438 35 view .LVU977
 3679 00b0 1896     		str	r6, [sp, #96]
 442:Dubby.cpp     ****     sai_config[1].pin_config.fs   = {DSY_GPIOG, 9};
 3680              		.loc 2 442 35 view .LVU978
 3681 00b2 CDE91E64 		strd	r6, r4, [sp, #120]
 446:Dubby.cpp     ****     sai_config[1].pin_config.sa = {DSY_GPIOD, 11};
 3682              		.loc 2 446 33 view .LVU979
 3683 00b6 CDE92046 		strd	r4, r6, [sp, #128]
 3684              	.LBB883:
 3685              	.LBB884:
 3686              	.LBB885:
 3687              		.file 14 "../../libDaisy//src/per/sai.h"
   1:../../libDaisy//src/per/sai.h **** #pragma once
   2:../../libDaisy//src/per/sai.h **** #ifndef DSY_SAI_H
   3:../../libDaisy//src/per/sai.h **** #define DSY_SAI_H
   4:../../libDaisy//src/per/sai.h **** 
   5:../../libDaisy//src/per/sai.h **** #include "daisy_core.h"
   6:../../libDaisy//src/per/sai.h **** 
   7:../../libDaisy//src/per/sai.h **** namespace daisy
   8:../../libDaisy//src/per/sai.h **** {
   9:../../libDaisy//src/per/sai.h **** /** 
  10:../../libDaisy//src/per/sai.h ****  * Support for I2S Audio Protocol with different bit-depth, samplerate options
ARM GAS  /var/folders/1y/_321xjh9623c014x9_qw12rr0000gn/T//ccXZVGQV.s 			page 126


  11:../../libDaisy//src/per/sai.h ****  * Allows for master or slave, as well as freedom of selecting direction, 
  12:../../libDaisy//src/per/sai.h ****  * and other behavior for each peripheral, and block.
  13:../../libDaisy//src/per/sai.h ****  * 
  14:../../libDaisy//src/per/sai.h ****  * DMA Transfer commands must use buffers located within non-cached memory or use cache maintenance
  15:../../libDaisy//src/per/sai.h ****  * To declare an unitialized global element in the DMA memory section:
  16:../../libDaisy//src/per/sai.h ****  *    int32_t DSY_DMA_BUFFER_SECTOR my_buffer[96];
  17:../../libDaisy//src/per/sai.h ****  *
  18:../../libDaisy//src/per/sai.h ****  * Callback functions will be called once per half of the buffer. In the above example, 
  19:../../libDaisy//src/per/sai.h ****  * the callback function would be called once for every 48 samples.
  20:../../libDaisy//src/per/sai.h ****  * 
  21:../../libDaisy//src/per/sai.h ****  * Use SAI Handle like this:
  22:../../libDaisy//src/per/sai.h ****  * 
  23:../../libDaisy//src/per/sai.h ****  *  SaiHandle::Config sai_config;
  24:../../libDaisy//src/per/sai.h ****  *  sai_config.periph          = SaiHandle::Config::Peripheral::SAI_1;
  25:../../libDaisy//src/per/sai.h ****  *  sai_config.sr              = SaiHandle::Config::SampleRate::SAI_48KHZ;
  26:../../libDaisy//src/per/sai.h ****  *  sai_config.bit_depth       = SaiHandle::Config::BitDepth::SAI_24BIT;
  27:../../libDaisy//src/per/sai.h ****  *  sai_config.a_sync          = SaiHandle::Config::Sync::MASTER;
  28:../../libDaisy//src/per/sai.h ****  *  sai_config.b_sync          = SaiHandle::Config::Sync::SLAVE;
  29:../../libDaisy//src/per/sai.h ****  *  sai_config.a_dir           = SaiHandle::Config::Direction::RECEIVE;
  30:../../libDaisy//src/per/sai.h ****  *  sai_config.b_dir           = SaiHandle::Config::Direction::TRANSMIT;
  31:../../libDaisy//src/per/sai.h ****  *  sai_config.pin_config.fs   = {DSY_GPIOE, 4};
  32:../../libDaisy//src/per/sai.h ****  *  sai_config.pin_config.mclk = {DSY_GPIOE, 2};
  33:../../libDaisy//src/per/sai.h ****  *  sai_config.pin_config.sck  = {DSY_GPIOE, 5};
  34:../../libDaisy//src/per/sai.h ****  *  sai_config.pin_config.sa   = {DSY_GPIOE, 6};
  35:../../libDaisy//src/per/sai.h ****  *  sai_config.pin_config.sb   = {DSY_GPIOE, 3};
  36:../../libDaisy//src/per/sai.h ****  *  // Then Initialize
  37:../../libDaisy//src/per/sai.h ****  *  SaiHandle sai;
  38:../../libDaisy//src/per/sai.h ****  *  sai.Init(sai_config);
  39:../../libDaisy//src/per/sai.h ****  *  // Now you can use it:
  40:../../libDaisy//src/per/sai.h ****  *  sai.StartDma(. . .);
  41:../../libDaisy//src/per/sai.h ****  */
  42:../../libDaisy//src/per/sai.h **** class SaiHandle
  43:../../libDaisy//src/per/sai.h **** {
  44:../../libDaisy//src/per/sai.h ****   public:
  45:../../libDaisy//src/per/sai.h ****     /** Contains settings for initialising an SAI Interface */
  46:../../libDaisy//src/per/sai.h ****     struct Config
  47:../../libDaisy//src/per/sai.h ****     {
  48:../../libDaisy//src/per/sai.h ****         /** Specifies the internal peripheral to use (mapped to different hardware pins) */
  49:../../libDaisy//src/per/sai.h ****         enum class Peripheral
  50:../../libDaisy//src/per/sai.h ****         {
  51:../../libDaisy//src/per/sai.h ****             SAI_1,
  52:../../libDaisy//src/per/sai.h ****             SAI_2,
  53:../../libDaisy//src/per/sai.h ****         };
  54:../../libDaisy//src/per/sai.h **** 
  55:../../libDaisy//src/per/sai.h ****         /** Rate at which samples will be streaming to/from the device. */
  56:../../libDaisy//src/per/sai.h ****         enum class SampleRate
  57:../../libDaisy//src/per/sai.h ****         {
  58:../../libDaisy//src/per/sai.h ****             SAI_8KHZ,
  59:../../libDaisy//src/per/sai.h ****             SAI_16KHZ,
  60:../../libDaisy//src/per/sai.h ****             SAI_32KHZ,
  61:../../libDaisy//src/per/sai.h ****             SAI_48KHZ,
  62:../../libDaisy//src/per/sai.h ****             SAI_96KHZ,
  63:../../libDaisy//src/per/sai.h ****         };
  64:../../libDaisy//src/per/sai.h **** 
  65:../../libDaisy//src/per/sai.h ****         /** Bit Depth that the hardware expects to be transferred to/from the device. */
  66:../../libDaisy//src/per/sai.h ****         enum class BitDepth
  67:../../libDaisy//src/per/sai.h ****         {
ARM GAS  /var/folders/1y/_321xjh9623c014x9_qw12rr0000gn/T//ccXZVGQV.s 			page 127


  68:../../libDaisy//src/per/sai.h ****             SAI_16BIT,
  69:../../libDaisy//src/per/sai.h ****             SAI_24BIT,
  70:../../libDaisy//src/per/sai.h ****             SAI_32BIT,
  71:../../libDaisy//src/per/sai.h ****         };
  72:../../libDaisy//src/per/sai.h **** 
  73:../../libDaisy//src/per/sai.h ****         /** Specifies whether a particular block is the master or the slave 
  74:../../libDaisy//src/per/sai.h ****          ** If both are set to slave, no MCLK signal will be used, and it is
  75:../../libDaisy//src/per/sai.h ****          ** expected that the codec will have its own xtal.
  76:../../libDaisy//src/per/sai.h ****          */
  77:../../libDaisy//src/per/sai.h ****         enum class Sync
  78:../../libDaisy//src/per/sai.h ****         {
  79:../../libDaisy//src/per/sai.h ****             MASTER,
  80:../../libDaisy//src/per/sai.h ****             SLAVE,
  81:../../libDaisy//src/per/sai.h ****         };
  82:../../libDaisy//src/per/sai.h **** 
  83:../../libDaisy//src/per/sai.h ****         /** Specifies the direction for each peripheral block. */
  84:../../libDaisy//src/per/sai.h ****         enum class Direction
  85:../../libDaisy//src/per/sai.h ****         {
  86:../../libDaisy//src/per/sai.h ****             TRANSMIT,
  87:../../libDaisy//src/per/sai.h ****             RECEIVE,
  88:../../libDaisy//src/per/sai.h ****         };
  89:../../libDaisy//src/per/sai.h **** 
  90:../../libDaisy//src/per/sai.h ****         Peripheral periph;
  91:../../libDaisy//src/per/sai.h ****         struct
  92:../../libDaisy//src/per/sai.h ****         {
  93:../../libDaisy//src/per/sai.h ****             dsy_gpio_pin mclk, fs, sck, sa, sb;
  94:../../libDaisy//src/per/sai.h ****         } pin_config;
  95:../../libDaisy//src/per/sai.h ****         SampleRate sr;
  96:../../libDaisy//src/per/sai.h ****         BitDepth   bit_depth;
  97:../../libDaisy//src/per/sai.h ****         Sync       a_sync, b_sync;
  98:../../libDaisy//src/per/sai.h ****         Direction  a_dir, b_dir;
  99:../../libDaisy//src/per/sai.h ****     };
 100:../../libDaisy//src/per/sai.h **** 
 101:../../libDaisy//src/per/sai.h ****     /** Return values for SAI functions */
 102:../../libDaisy//src/per/sai.h ****     enum class Result
 103:../../libDaisy//src/per/sai.h ****     {
 104:../../libDaisy//src/per/sai.h ****         OK,
 105:../../libDaisy//src/per/sai.h ****         ERR,
 106:../../libDaisy//src/per/sai.h ****     };
 107:../../libDaisy//src/per/sai.h **** 
 108:../../libDaisy//src/per/sai.h ****     SaiHandle() : pimpl_(nullptr) {}
 3688              		.loc 14 108 33 view .LVU980
 3689 00ba CDE90344 		strd	r4, r4, [sp, #12]
 3690              	.LBE885:
 3691              	.LBE884:
 3692              	.LBE883:
 440:Dubby.cpp     ****     sai_config[1].a_sync          = SaiHandle::Config::Sync::SLAVE;
 3693              		.loc 2 440 35 view .LVU981
 3694 00be CDE91C86 		strd	r8, r6, [sp, #112]
 441:Dubby.cpp     ****     sai_config[1].b_sync          = SaiHandle::Config::Sync::MASTER;
 3695              		.loc 2 441 5 is_stmt 1 view .LVU982
 443:Dubby.cpp     ****     sai_config[1].pin_config.mclk = {DSY_GPIOA, 1};
 3696              		.loc 2 443 5 view .LVU983
 444:Dubby.cpp     ****     sai_config[1].pin_config.sck  = {DSY_GPIOA, 2};
 3697              		.loc 2 444 5 view .LVU984
 445:Dubby.cpp     ****     sai_config[1].a_dir         = SaiHandle::Config::Direction::TRANSMIT;
 3698              		.loc 2 445 5 view .LVU985
ARM GAS  /var/folders/1y/_321xjh9623c014x9_qw12rr0000gn/T//ccXZVGQV.s 			page 128


 446:Dubby.cpp     ****     sai_config[1].pin_config.sa = {DSY_GPIOD, 11};
 3699              		.loc 2 446 5 view .LVU986
 447:Dubby.cpp     ****     sai_config[1].b_dir         = SaiHandle::Config::Direction::RECEIVE;
 3700              		.loc 2 447 5 view .LVU987
 448:Dubby.cpp     ****     sai_config[1].pin_config.sb = {DSY_GPIOA, 0};
 3701              		.loc 2 448 5 view .LVU988
 449:Dubby.cpp     **** 
 3702              		.loc 2 449 5 view .LVU989
 451:Dubby.cpp     ****     sai_handle[0].Init(sai_config[1]);
 3703              		.loc 2 451 5 view .LVU990
 451:Dubby.cpp     ****     sai_handle[0].Init(sai_config[1]);
 3704              		.loc 2 451 27 view .LVU991
 3705              	.LVL264:
 3706              	.LBB886:
 3707              	.LBI883:
 3708              		.loc 14 108 5 view .LVU992
 3709              		.loc 14 108 5 is_stmt 0 view .LVU993
 3710              	.LBE886:
 451:Dubby.cpp     ****     sai_handle[0].Init(sai_config[1]);
 3711              		.loc 2 451 27 is_stmt 1 view .LVU994
 451:Dubby.cpp     ****     sai_handle[0].Init(sai_config[1]);
 3712              		.loc 2 451 27 view .LVU995
 3713              	.LBB887:
 3714              		.loc 14 108 5 view .LVU996
 3715              		.loc 14 108 5 is_stmt 0 view .LVU997
 3716              	.LBE887:
 451:Dubby.cpp     ****     sai_handle[0].Init(sai_config[1]);
 3717              		.loc 2 451 27 is_stmt 1 view .LVU998
 451:Dubby.cpp     ****     sai_handle[0].Init(sai_config[1]);
 3718              		.loc 2 451 27 view .LVU999
 3719              		.loc 2 452 5 view .LVU1000
 3720              		.loc 2 452 23 is_stmt 0 view .LVU1001
 3721 00c2 FFF7FEFF 		bl	_ZN5daisy9SaiHandle4InitERKNS0_6ConfigE
 3722              	.LVL265:
 453:Dubby.cpp     ****     sai_handle[1].Init(sai_config[0]);
 3723              		.loc 2 453 5 is_stmt 1 view .LVU1002
 3724              		.loc 2 453 23 is_stmt 0 view .LVU1003
 3725 00c6 0EA9     		add	r1, sp, #56
 3726 00c8 04A8     		add	r0, sp, #16
 454:Dubby.cpp     **** 
 455:Dubby.cpp     ****     // Reinit Audio for _both_ codecs...
 456:Dubby.cpp     ****     AudioHandle::Config cfg;
 457:Dubby.cpp     ****     cfg.blocksize  = 48;
 458:Dubby.cpp     ****     cfg.samplerate = SaiHandle::Config::SampleRate::SAI_48KHZ;
 459:Dubby.cpp     ****     cfg.postgain   = 0.5f;
 3727              		.loc 2 459 20 view .LVU1004
 3728 00ca 4FF07C54 		mov	r4, #1056964608
 453:Dubby.cpp     ****     sai_handle[1].Init(sai_config[0]);
 3729              		.loc 2 453 23 view .LVU1005
 3730 00ce FFF7FEFF 		bl	_ZN5daisy9SaiHandle4InitERKNS0_6ConfigE
 3731              	.LVL266:
 456:Dubby.cpp     ****     cfg.blocksize  = 48;
 3732              		.loc 2 456 5 is_stmt 1 view .LVU1006
 3733              	.LBB888:
 3734              	.LBI888:
 3735              		.file 15 "../../libDaisy//src/hid/audio.h"
   1:../../libDaisy//src/hid/audio.h **** #ifndef DSY_AUDIO_H
ARM GAS  /var/folders/1y/_321xjh9623c014x9_qw12rr0000gn/T//ccXZVGQV.s 			page 129


   2:../../libDaisy//src/hid/audio.h **** #define DSY_AUDIO_H /**< & */
   3:../../libDaisy//src/hid/audio.h **** 
   4:../../libDaisy//src/hid/audio.h **** #include "per/sai.h"
   5:../../libDaisy//src/hid/audio.h **** 
   6:../../libDaisy//src/hid/audio.h **** namespace daisy
   7:../../libDaisy//src/hid/audio.h **** {
   8:../../libDaisy//src/hid/audio.h **** /** @brief Audio Engine Handle
   9:../../libDaisy//src/hid/audio.h ****  *  @ingroup audio 
  10:../../libDaisy//src/hid/audio.h ****  *  @details This class allows for higher level access to an audio engine.
  11:../../libDaisy//src/hid/audio.h ****  *           If you're using a SOM like the DaisySeed or DaisyPatchSM (or any 
  12:../../libDaisy//src/hid/audio.h ****  *            board that includes one of those objects) then the intialization
  13:../../libDaisy//src/hid/audio.h ****  *            is already taken  care of.
  14:../../libDaisy//src/hid/audio.h ****  *           If you're setting up your own custom hardware, or need to make changes
  15:../../libDaisy//src/hid/audio.h ****  *           you will have to take the following steps:
  16:../../libDaisy//src/hid/audio.h ****  *             1. Create and Initialize an SaiHandle or two depending on your requirements
  17:../../libDaisy//src/hid/audio.h ****  *             2. Initialize the Audio Handle with the desired settings and the Initialized SaiHand
  18:../../libDaisy//src/hid/audio.h ****  *             3. If the connected codec requires special configuration or initialization, do so
  19:../../libDaisy//src/hid/audio.h ****  *             4. Write a callback method using either the AudioCallback or the InterleavingAudioCa
  20:../../libDaisy//src/hid/audio.h ****  *             5. Start the Audio using one of the StartAudio function
  21:../../libDaisy//src/hid/audio.h ****  */
  22:../../libDaisy//src/hid/audio.h **** class AudioHandle
  23:../../libDaisy//src/hid/audio.h **** {
  24:../../libDaisy//src/hid/audio.h ****   public:
  25:../../libDaisy//src/hid/audio.h ****     /** Manually configurable details about the Audio Engine */
  26:../../libDaisy//src/hid/audio.h ****     /** TODO: Figure out how to get samplerate in here. */
  27:../../libDaisy//src/hid/audio.h ****     struct Config
  28:../../libDaisy//src/hid/audio.h ****     {
  29:../../libDaisy//src/hid/audio.h ****         /** number of samples to process per callback */
  30:../../libDaisy//src/hid/audio.h ****         size_t blocksize;
  31:../../libDaisy//src/hid/audio.h **** 
  32:../../libDaisy//src/hid/audio.h ****         /**< Sample rate of audio */
  33:../../libDaisy//src/hid/audio.h ****         SaiHandle::Config::SampleRate samplerate;
  34:../../libDaisy//src/hid/audio.h **** 
  35:../../libDaisy//src/hid/audio.h ****         /** factor for adjustment before and after callback for hardware that may have extra headro
  36:../../libDaisy//src/hid/audio.h ****         float postgain;
  37:../../libDaisy//src/hid/audio.h **** 
  38:../../libDaisy//src/hid/audio.h ****         /** factor for additional one-sided compensation to audio path for hardware that may
  39:../../libDaisy//src/hid/audio.h ****          *  have unequal input/output ranges
  40:../../libDaisy//src/hid/audio.h ****          */
  41:../../libDaisy//src/hid/audio.h ****         float output_compensation;
  42:../../libDaisy//src/hid/audio.h **** 
  43:../../libDaisy//src/hid/audio.h ****         /** Sets default values for config struct */
  44:../../libDaisy//src/hid/audio.h ****         Config()
 3736              		.loc 15 44 9 view .LVU1007
 3737              	.LBB889:
 3738              	.LBB890:
  45:../../libDaisy//src/hid/audio.h ****         : blocksize(48),
  46:../../libDaisy//src/hid/audio.h ****           samplerate(SaiHandle::Config::SampleRate::SAI_48KHZ),
  47:../../libDaisy//src/hid/audio.h ****           postgain(1.f),
  48:../../libDaisy//src/hid/audio.h ****           output_compensation(1.f)
 3739              		.loc 15 48 34 is_stmt 0 view .LVU1008
 3740 00d2 3021     		movs	r1, #48
 3741 00d4 4FF07E52 		mov	r2, #1065353216
 3742              	.LBE890:
 3743              	.LBE889:
 3744              	.LBE888:
 460:Dubby.cpp     ****     seed.audio_handle.Init(cfg, sai_handle[0], sai_handle[1]);
ARM GAS  /var/folders/1y/_321xjh9623c014x9_qw12rr0000gn/T//ccXZVGQV.s 			page 130


 3745              		.loc 2 460 27 view .LVU1009
 3746 00d8 049B     		ldr	r3, [sp, #16]
 3747 00da 7818     		adds	r0, r7, r1
 3748              	.LBB895:
 3749              	.LBB893:
 3750              	.LBB891:
 3751              		.loc 15 48 34 view .LVU1010
 3752 00dc 0591     		str	r1, [sp, #20]
 3753 00de 0892     		str	r2, [sp, #32]	@ float
 3754              	.LVL267:
 3755              		.loc 15 48 34 view .LVU1011
 3756              	.LBE891:
 3757              	.LBE893:
 3758              	.LBE895:
 457:Dubby.cpp     ****     cfg.samplerate = SaiHandle::Config::SampleRate::SAI_48KHZ;
 3759              		.loc 2 457 5 is_stmt 1 view .LVU1012
 458:Dubby.cpp     ****     cfg.postgain   = 0.5f;
 3760              		.loc 2 458 5 view .LVU1013
 459:Dubby.cpp     ****     seed.audio_handle.Init(cfg, sai_handle[0], sai_handle[1]);
 3761              		.loc 2 459 5 view .LVU1014
 3762              		.loc 2 460 27 is_stmt 0 view .LVU1015
 3763 00e0 05A9     		add	r1, sp, #20
 3764 00e2 039A     		ldr	r2, [sp, #12]
 3765              	.LBB896:
 3766              	.LBB894:
 3767              	.LBB892:
 3768              		.loc 15 48 34 view .LVU1016
 3769 00e4 CDF81880 		str	r8, [sp, #24]
 3770              	.LBE892:
 3771              	.LBE894:
 3772              	.LBE896:
 459:Dubby.cpp     ****     seed.audio_handle.Init(cfg, sai_handle[0], sai_handle[1]);
 3773              		.loc 2 459 20 view .LVU1017
 3774 00e8 0794     		str	r4, [sp, #28]	@ float
 3775              		.loc 2 460 5 is_stmt 1 view .LVU1018
 3776              		.loc 2 460 27 is_stmt 0 view .LVU1019
 3777 00ea FFF7FEFF 		bl	_ZN5daisy11AudioHandle4InitERKNS0_6ConfigENS_9SaiHandleES4_
 3778              	.LVL268:
 3779              	.LBB897:
 3780              	.LBI897:
  29:../../libDaisy//src/dev/codec_pcm3060.h ****     ~Pcm3060() {}
 3781              		.loc 13 29 5 is_stmt 1 view .LVU1020
 3782              		.loc 13 29 5 is_stmt 0 view .LVU1021
 3783              	.LBE897:
 461:Dubby.cpp     **** }
 3784              		.loc 2 461 1 view .LVU1022
 3785 00ee 22B0     		add	sp, sp, #136
 3786              		.cfi_remember_state
 3787              		.cfi_def_cfa_offset 24
 3788              		@ sp needed
 3789 00f0 BDE8F081 		pop	{r4, r5, r6, r7, r8, pc}
 3790              	.LVL269:
 3791              	.L217:
 3792              		.cfi_restore_state
 397:Dubby.cpp     ****         sai_config[0].pin_config.sb = {DSY_GPIOE, 3};
 3793              		.loc 2 397 9 is_stmt 1 view .LVU1023
 397:Dubby.cpp     ****         sai_config[0].pin_config.sb = {DSY_GPIOE, 3};
ARM GAS  /var/folders/1y/_321xjh9623c014x9_qw12rr0000gn/T//ccXZVGQV.s 			page 131


 3794              		.loc 2 397 37 is_stmt 0 view .LVU1024
 3795 00f4 2A88     		ldrh	r2, [r5]
 398:Dubby.cpp     ****         sai_config[0].a_dir         = SaiHandle::Config::Direction::RECEIVE;
 3796              		.loc 2 398 37 view .LVU1025
 3797 00f6 AB88     		ldrh	r3, [r5, #4]
 399:Dubby.cpp     ****         sai_config[0].b_dir         = SaiHandle::Config::Direction::TRANSMIT;
 3798              		.loc 2 399 37 view .LVU1026
 3799 00f8 1690     		str	r0, [sp, #88]
 400:Dubby.cpp     ****     }
 3800              		.loc 2 400 37 view .LVU1027
 3801 00fa 1791     		str	r1, [sp, #92]
 397:Dubby.cpp     ****         sai_config[0].pin_config.sb = {DSY_GPIOE, 3};
 3802              		.loc 2 397 37 view .LVU1028
 3803 00fc ADF84220 		strh	r2, [sp, #66]	@ movhi
 398:Dubby.cpp     ****         sai_config[0].a_dir         = SaiHandle::Config::Direction::RECEIVE;
 3804              		.loc 2 398 9 is_stmt 1 view .LVU1029
 398:Dubby.cpp     ****         sai_config[0].a_dir         = SaiHandle::Config::Direction::RECEIVE;
 3805              		.loc 2 398 37 is_stmt 0 view .LVU1030
 3806 0100 ADF84430 		strh	r3, [sp, #68]	@ movhi
 399:Dubby.cpp     ****         sai_config[0].b_dir         = SaiHandle::Config::Direction::TRANSMIT;
 3807              		.loc 2 399 9 is_stmt 1 view .LVU1031
 400:Dubby.cpp     ****     }
 3808              		.loc 2 400 9 view .LVU1032
 3809 0104 91E7     		b	.L215
 3810              	.L219:
 3811 0106 00BF     		.align	2
 3812              	.L218:
 3813 0108 00000000 		.word	.LANCHOR1
 3814 010c 00040258 		.word	1476527104
 3815              		.cfi_endproc
 3816              	.LFE3768:
 3818              		.section	.rodata._ZN5daisy5Dubby14GetTextForEnumENS0_9MenuTypesEi.str1.4,"aMS",%progbits,1
 3819              		.align	2
 3820              	.LC14:
 3821 0000 00       		.ascii	"\000"
 3822              		.section	.text._ZN5daisy5Dubby14GetTextForEnumENS0_9MenuTypesEi,"ax",%progbits
 3823              		.align	1
 3824              		.p2align 2,,3
 3825              		.global	_ZN5daisy5Dubby14GetTextForEnumENS0_9MenuTypesEi
 3826              		.syntax unified
 3827              		.thumb
 3828              		.thumb_func
 3830              	_ZN5daisy5Dubby14GetTextForEnumENS0_9MenuTypesEi:
 3831              	.LVL270:
 3832              	.LFB3769:
 462:Dubby.cpp     **** 
 463:Dubby.cpp     **** const char * Dubby::GetTextForEnum(MenuTypes m, int enumVal)
 464:Dubby.cpp     **** {
 3833              		.loc 2 464 1 view -0
 3834              		.cfi_startproc
 3835              		@ args = 0, pretend = 0, frame = 0
 3836              		@ frame_needed = 0, uses_anonymous_args = 0
 3837              		@ link register save eliminated.
 465:Dubby.cpp     ****     switch (m)
 3838              		.loc 2 465 5 view .LVU1034
 3839 0000 39B1     		cbz	r1, .L221
 3840 0002 0129     		cmp	r1, #1
ARM GAS  /var/folders/1y/_321xjh9623c014x9_qw12rr0000gn/T//ccXZVGQV.s 			page 132


 3841 0004 03D1     		bne	.L224
 466:Dubby.cpp     ****     {
 467:Dubby.cpp     ****         case MAINMENU:
 468:Dubby.cpp     ****             return MenuItemsStrings[enumVal];
 469:Dubby.cpp     ****             break;
 3842              		.loc 2 469 13 view .LVU1035
 470:Dubby.cpp     ****         case PREFERENCESMENU:
 3843              		.loc 2 470 9 view .LVU1036
 471:Dubby.cpp     ****             return PreferencesMenuItemsStrings[enumVal];
 3844              		.loc 2 471 13 view .LVU1037
 3845              		.loc 2 471 55 is_stmt 0 view .LVU1038
 3846 0006 00EB8200 		add	r0, r0, r2, lsl #2
 3847              	.LVL271:
 3848              		.loc 2 471 55 view .LVU1039
 3849 000a C068     		ldr	r0, [r0, #12]
 472:Dubby.cpp     ****             break;
 473:Dubby.cpp     ****         default:
 474:Dubby.cpp     ****             return "";
 475:Dubby.cpp     ****             break;
 476:Dubby.cpp     ****     }
 477:Dubby.cpp     **** }...
 3850              		.loc 2 477 1 view .LVU1040
 3851 000c 7047     		bx	lr
 3852              	.LVL272:
 3853              	.L224:
 465:Dubby.cpp     ****     switch (m)
 3854              		.loc 2 465 5 view .LVU1041
 3855 000e 0248     		ldr	r0, .L225
 3856              	.LVL273:
 465:Dubby.cpp     ****     switch (m)
 3857              		.loc 2 465 5 view .LVU1042
 3858 0010 7047     		bx	lr
 3859              	.LVL274:
 3860              	.L221:
 467:Dubby.cpp     ****         case MAINMENU:
 3861              		.loc 2 467 9 is_stmt 1 view .LVU1043
 468:Dubby.cpp     ****             return MenuItemsStrings[enumVal];
 3862              		.loc 2 468 13 view .LVU1044
 468:Dubby.cpp     ****             return MenuItemsStrings[enumVal];
 3863              		.loc 2 468 44 is_stmt 0 view .LVU1045
 3864 0012 50F82200 		ldr	r0, [r0, r2, lsl #2]
 3865              	.LVL275:
 468:Dubby.cpp     ****             return MenuItemsStrings[enumVal];
 3866              		.loc 2 468 44 view .LVU1046
 3867 0016 7047     		bx	lr
 3868              	.L226:
 3869              		.align	2
 3870              	.L225:
 3871 0018 00000000 		.word	.LC14
 3872              		.cfi_endproc
 3873              	.LFE3769:
 3875              		.section	.text._ZN5daisy25OneBitGraphicsDisplayImplINS_11OledDisplayINS_13SSD130xDriverILj128ELj64
 3876              		.align	1
 3877              		.p2align 2,,3
 3878              		.weak	_ZN5daisy25OneBitGraphicsDisplayImplINS_11OledDisplayINS_13SSD130xDriverILj128ELj64ENS_24SSD
 3879              		.syntax unified
 3880              		.thumb
ARM GAS  /var/folders/1y/_321xjh9623c014x9_qw12rr0000gn/T//ccXZVGQV.s 			page 133


 3881              		.thumb_func
 3883              	_ZN5daisy25OneBitGraphicsDisplayImplINS_11OledDisplayINS_13SSD130xDriverILj128ELj64ENS_24SSD130x4Wi
 3884              	.LVL276:
 3885              	.LFB4058:
 269:../../libDaisy//src/hid/disp/display.h ****                 {
 270:../../libDaisy//src/hid/disp/display.h ****                     ((ChildType*)(this))->ChildType::DrawPixel(x, y, on);
 271:../../libDaisy//src/hid/disp/display.h ****                 }
 272:../../libDaisy//src/hid/disp/display.h ****             }
 273:../../libDaisy//src/hid/disp/display.h ****         }
 274:../../libDaisy//src/hid/disp/display.h ****         else
 275:../../libDaisy//src/hid/disp/display.h ****         {
 276:../../libDaisy//src/hid/disp/display.h ****             ((ChildType*)(this))->ChildType::DrawLine(x1, y1, x2, y1, on);
 277:../../libDaisy//src/hid/disp/display.h ****             ((ChildType*)(this))->ChildType::DrawLine(x2, y1, x2, y2, on);
 278:../../libDaisy//src/hid/disp/display.h ****             ((ChildType*)(this))->ChildType::DrawLine(x2, y2, x1, y2, on);
 279:../../libDaisy//src/hid/disp/display.h ****             ((ChildType*)(this))->ChildType::DrawLine(x1, y2, x1, y1, on);
 280:../../libDaisy//src/hid/disp/display.h ****         }
 281:../../libDaisy//src/hid/disp/display.h ****     }
 282:../../libDaisy//src/hid/disp/display.h **** 
 283:../../libDaisy//src/hid/disp/display.h ****     void DrawArc(uint_fast8_t x,
 284:../../libDaisy//src/hid/disp/display.h ****                  uint_fast8_t y,
 285:../../libDaisy//src/hid/disp/display.h ****                  uint_fast8_t radius,
 286:../../libDaisy//src/hid/disp/display.h ****                  int_fast16_t start_angle,
 287:../../libDaisy//src/hid/disp/display.h ****                  int_fast16_t sweep,
 288:../../libDaisy//src/hid/disp/display.h ****                  bool         on) override
 289:../../libDaisy//src/hid/disp/display.h ****     {
 290:../../libDaisy//src/hid/disp/display.h ****         // Values to calculate the circle
 291:../../libDaisy//src/hid/disp/display.h ****         int_fast16_t t_x, t_y, err, e2;
 292:../../libDaisy//src/hid/disp/display.h **** 
 293:../../libDaisy//src/hid/disp/display.h ****         // Temporary values to speed up comparisons
 294:../../libDaisy//src/hid/disp/display.h ****         float t_sxy, t_syx, t_sxny, t_synx;
 295:../../libDaisy//src/hid/disp/display.h ****         float t_exy, t_eyx, t_exny, t_eynx;
 296:../../libDaisy//src/hid/disp/display.h **** 
 297:../../libDaisy//src/hid/disp/display.h ****         float start_angle_rad, end_angle_rad;
 298:../../libDaisy//src/hid/disp/display.h ****         float start_x, start_y, end_x, end_y;
 299:../../libDaisy//src/hid/disp/display.h **** 
 300:../../libDaisy//src/hid/disp/display.h ****         bool d1, d2, d3, d4;
 301:../../libDaisy//src/hid/disp/display.h **** 
 302:../../libDaisy//src/hid/disp/display.h ****         d1 = d2 = d3 = d4 = true;
 303:../../libDaisy//src/hid/disp/display.h **** 
 304:../../libDaisy//src/hid/disp/display.h ****         bool circle = false;
 305:../../libDaisy//src/hid/disp/display.h **** 
 306:../../libDaisy//src/hid/disp/display.h ****         if(sweep < 0)
 307:../../libDaisy//src/hid/disp/display.h ****         {
 308:../../libDaisy//src/hid/disp/display.h ****             start_angle += sweep;
 309:../../libDaisy//src/hid/disp/display.h ****             sweep = -sweep;
 310:../../libDaisy//src/hid/disp/display.h ****         }
 311:../../libDaisy//src/hid/disp/display.h **** 
 312:../../libDaisy//src/hid/disp/display.h ****         start_angle_rad = deg2rad(start_angle);
 313:../../libDaisy//src/hid/disp/display.h ****         end_angle_rad   = deg2rad(start_angle + sweep);
 314:../../libDaisy//src/hid/disp/display.h **** 
 315:../../libDaisy//src/hid/disp/display.h ****         start_x = cos(start_angle_rad) * radius;
 316:../../libDaisy//src/hid/disp/display.h ****         start_y = -sin(start_angle_rad) * radius;
 317:../../libDaisy//src/hid/disp/display.h ****         end_x   = cos(end_angle_rad) * radius;
 318:../../libDaisy//src/hid/disp/display.h ****         end_y   = -sin(end_angle_rad) * radius;
 319:../../libDaisy//src/hid/disp/display.h **** 
 320:../../libDaisy//src/hid/disp/display.h ****         // Check if start and endpoint are very near
 321:../../libDaisy//src/hid/disp/display.h ****         if((end_x - start_x) * (end_x - start_x)
ARM GAS  /var/folders/1y/_321xjh9623c014x9_qw12rr0000gn/T//ccXZVGQV.s 			page 134


 322:../../libDaisy//src/hid/disp/display.h ****                + (end_y - start_y) * (end_y - start_y)
 323:../../libDaisy//src/hid/disp/display.h ****            < 2.0f)
 324:../../libDaisy//src/hid/disp/display.h ****         {
 325:../../libDaisy//src/hid/disp/display.h ****             if(sweep > 180)
 326:../../libDaisy//src/hid/disp/display.h ****                 circle = true;
 327:../../libDaisy//src/hid/disp/display.h ****             else
 328:../../libDaisy//src/hid/disp/display.h ****                 // Nothing to draw
 329:../../libDaisy//src/hid/disp/display.h ****                 return;
 330:../../libDaisy//src/hid/disp/display.h ****         }
 331:../../libDaisy//src/hid/disp/display.h **** 
 332:../../libDaisy//src/hid/disp/display.h ****         t_x = -radius;
 333:../../libDaisy//src/hid/disp/display.h ****         t_y = 0;
 334:../../libDaisy//src/hid/disp/display.h ****         err = 2 - 2 * radius;
 335:../../libDaisy//src/hid/disp/display.h **** 
 336:../../libDaisy//src/hid/disp/display.h ****         do
 337:../../libDaisy//src/hid/disp/display.h ****         {
 338:../../libDaisy//src/hid/disp/display.h ****             if(!circle)
 339:../../libDaisy//src/hid/disp/display.h ****             {
 340:../../libDaisy//src/hid/disp/display.h ****                 t_sxy  = start_x * t_y;
 341:../../libDaisy//src/hid/disp/display.h ****                 t_syx  = start_y * t_x;
 342:../../libDaisy//src/hid/disp/display.h ****                 t_sxny = start_x * -t_y;
 343:../../libDaisy//src/hid/disp/display.h ****                 t_synx = start_y * -t_x;
 344:../../libDaisy//src/hid/disp/display.h ****                 t_exy  = end_x * t_y;
 345:../../libDaisy//src/hid/disp/display.h ****                 t_eyx  = end_y * t_x;
 346:../../libDaisy//src/hid/disp/display.h ****                 t_exny = end_x * -t_y;
 347:../../libDaisy//src/hid/disp/display.h ****                 t_eynx = end_y * -t_x;
 348:../../libDaisy//src/hid/disp/display.h **** 
 349:../../libDaisy//src/hid/disp/display.h ****                 if(sweep > 180)
 350:../../libDaisy//src/hid/disp/display.h ****                 {
 351:../../libDaisy//src/hid/disp/display.h ****                     d1 = (t_sxy - t_synx < 0 || t_exy - t_eynx > 0);
 352:../../libDaisy//src/hid/disp/display.h ****                     d2 = (t_sxy - t_syx < 0 || t_exy - t_eyx > 0);
 353:../../libDaisy//src/hid/disp/display.h ****                     d3 = (t_sxny - t_syx < 0 || t_exny - t_eyx > 0);
 354:../../libDaisy//src/hid/disp/display.h ****                     d4 = (t_sxny - t_synx < 0 || t_exny - t_eynx > 0);
 355:../../libDaisy//src/hid/disp/display.h ****                 }
 356:../../libDaisy//src/hid/disp/display.h ****                 else
 357:../../libDaisy//src/hid/disp/display.h ****                 {
 358:../../libDaisy//src/hid/disp/display.h ****                     d1 = (t_sxy - t_synx < 0 && t_exy - t_eynx > 0);
 359:../../libDaisy//src/hid/disp/display.h ****                     d2 = (t_sxy - t_syx < 0 && t_exy - t_eyx > 0);
 360:../../libDaisy//src/hid/disp/display.h ****                     d3 = (t_sxny - t_syx < 0 && t_exny - t_eyx > 0);
 361:../../libDaisy//src/hid/disp/display.h ****                     d4 = (t_sxny - t_synx < 0 && t_exny - t_eynx > 0);
 362:../../libDaisy//src/hid/disp/display.h ****                 }
 363:../../libDaisy//src/hid/disp/display.h ****             }
 364:../../libDaisy//src/hid/disp/display.h **** 
 365:../../libDaisy//src/hid/disp/display.h ****             if(d1)
 366:../../libDaisy//src/hid/disp/display.h ****                 ((ChildType*)(this))
 367:../../libDaisy//src/hid/disp/display.h ****                     ->ChildType::DrawPixel(x - t_x, y + t_y, on);
 368:../../libDaisy//src/hid/disp/display.h ****             if(d2)
 369:../../libDaisy//src/hid/disp/display.h ****                 ((ChildType*)(this))
 370:../../libDaisy//src/hid/disp/display.h ****                     ->ChildType::DrawPixel(x + t_x, y + t_y, on);
 371:../../libDaisy//src/hid/disp/display.h ****             if(d3)
 372:../../libDaisy//src/hid/disp/display.h ****                 ((ChildType*)(this))
 373:../../libDaisy//src/hid/disp/display.h ****                     ->ChildType::DrawPixel(x + t_x, y - t_y, on);
 374:../../libDaisy//src/hid/disp/display.h ****             if(d4)
 375:../../libDaisy//src/hid/disp/display.h ****                 ((ChildType*)(this))
 376:../../libDaisy//src/hid/disp/display.h ****                     ->ChildType::DrawPixel(x - t_x, y - t_y, on);
 377:../../libDaisy//src/hid/disp/display.h **** 
 378:../../libDaisy//src/hid/disp/display.h ****             e2 = err;
ARM GAS  /var/folders/1y/_321xjh9623c014x9_qw12rr0000gn/T//ccXZVGQV.s 			page 135


 379:../../libDaisy//src/hid/disp/display.h ****             if(e2 <= t_y)
 380:../../libDaisy//src/hid/disp/display.h ****             {
 381:../../libDaisy//src/hid/disp/display.h ****                 t_y++;
 382:../../libDaisy//src/hid/disp/display.h ****                 err = err + (t_y * 2 + 1);
 383:../../libDaisy//src/hid/disp/display.h ****                 if(-t_x == t_y && e2 <= t_x)
 384:../../libDaisy//src/hid/disp/display.h ****                 {
 385:../../libDaisy//src/hid/disp/display.h ****                     e2 = 0;
 386:../../libDaisy//src/hid/disp/display.h ****                 }
 387:../../libDaisy//src/hid/disp/display.h ****             }
 388:../../libDaisy//src/hid/disp/display.h ****             if(e2 > t_x)
 389:../../libDaisy//src/hid/disp/display.h ****             {
 390:../../libDaisy//src/hid/disp/display.h ****                 t_x++;
 391:../../libDaisy//src/hid/disp/display.h ****                 err = err + (t_x * 2 + 1);
 392:../../libDaisy//src/hid/disp/display.h ****             }
 393:../../libDaisy//src/hid/disp/display.h ****         } while(t_x <= 0);
 394:../../libDaisy//src/hid/disp/display.h ****     }
 395:../../libDaisy//src/hid/disp/display.h **** 
 396:../../libDaisy//src/hid/disp/display.h ****     char WriteChar(char ch, FontDef font, bool on) override
 397:../../libDaisy//src/hid/disp/display.h ****     {
 398:../../libDaisy//src/hid/disp/display.h ****         uint32_t i, b, j;
 399:../../libDaisy//src/hid/disp/display.h **** 
 400:../../libDaisy//src/hid/disp/display.h ****         // Check if character is valid
 401:../../libDaisy//src/hid/disp/display.h ****         if(ch < 32 || ch > 126)
 402:../../libDaisy//src/hid/disp/display.h ****             return 0;
 403:../../libDaisy//src/hid/disp/display.h **** 
 404:../../libDaisy//src/hid/disp/display.h ****         // Check remaining space on current line
 405:../../libDaisy//src/hid/disp/display.h ****         if(Width() < (currentX_ + font.FontWidth)
 406:../../libDaisy//src/hid/disp/display.h ****            || Height() < (currentY_ + font.FontHeight))
 407:../../libDaisy//src/hid/disp/display.h ****         {
 408:../../libDaisy//src/hid/disp/display.h ****             // Not enough space on current line
 409:../../libDaisy//src/hid/disp/display.h ****             return 0;
 410:../../libDaisy//src/hid/disp/display.h ****         }
 411:../../libDaisy//src/hid/disp/display.h **** 
 412:../../libDaisy//src/hid/disp/display.h ****         // Use the font to write
 413:../../libDaisy//src/hid/disp/display.h ****         for(i = 0; i < font.FontHeight; i++)
 414:../../libDaisy//src/hid/disp/display.h ****         {
 415:../../libDaisy//src/hid/disp/display.h ****             b = font.data[(ch - 32) * font.FontHeight + i];
 416:../../libDaisy//src/hid/disp/display.h ****             for(j = 0; j < font.FontWidth; j++)
 417:../../libDaisy//src/hid/disp/display.h ****             {
 418:../../libDaisy//src/hid/disp/display.h ****                 if((b << j) & 0x8000)
 419:../../libDaisy//src/hid/disp/display.h ****                 {
 420:../../libDaisy//src/hid/disp/display.h ****                     ((ChildType*)(this))
 421:../../libDaisy//src/hid/disp/display.h ****                         ->ChildType::DrawPixel(
 422:../../libDaisy//src/hid/disp/display.h ****                             currentX_ + j, (currentY_ + i), on);
 423:../../libDaisy//src/hid/disp/display.h ****                 }
 424:../../libDaisy//src/hid/disp/display.h ****                 else
 425:../../libDaisy//src/hid/disp/display.h ****                 {
 426:../../libDaisy//src/hid/disp/display.h ****                     ((ChildType*)(this))
 427:../../libDaisy//src/hid/disp/display.h ****                         ->ChildType::DrawPixel(
 428:../../libDaisy//src/hid/disp/display.h ****                             currentX_ + j, (currentY_ + i), !on);
 429:../../libDaisy//src/hid/disp/display.h ****                 }
 430:../../libDaisy//src/hid/disp/display.h ****             }
 431:../../libDaisy//src/hid/disp/display.h ****         }
 432:../../libDaisy//src/hid/disp/display.h **** 
 433:../../libDaisy//src/hid/disp/display.h ****         // The current space is now taken
 434:../../libDaisy//src/hid/disp/display.h ****         SetCursor(currentX_ + font.FontWidth, currentY_);
 435:../../libDaisy//src/hid/disp/display.h **** 
ARM GAS  /var/folders/1y/_321xjh9623c014x9_qw12rr0000gn/T//ccXZVGQV.s 			page 136


 436:../../libDaisy//src/hid/disp/display.h ****         // Return written char for validation
 437:../../libDaisy//src/hid/disp/display.h ****         return ch;
 438:../../libDaisy//src/hid/disp/display.h ****     }
 439:../../libDaisy//src/hid/disp/display.h **** 
 440:../../libDaisy//src/hid/disp/display.h ****     char WriteString(const char* str, FontDef font, bool on) override
 3886              		.loc 3 440 10 is_stmt 1 view -0
 3887              		.cfi_startproc
 3888              		@ args = 4, pretend = 0, frame = 32
 3889              		@ frame_needed = 0, uses_anonymous_args = 0
 3890              		.loc 3 440 10 is_stmt 0 view .LVU1048
 3891 0000 2DE9F04F 		push	{r4, r5, r6, r7, r8, r9, r10, fp, lr}
 3892              		.cfi_def_cfa_offset 36
 3893              		.cfi_offset 4, -36
 3894              		.cfi_offset 5, -32
 3895              		.cfi_offset 6, -28
 3896              		.cfi_offset 7, -24
 3897              		.cfi_offset 8, -20
 3898              		.cfi_offset 9, -16
 3899              		.cfi_offset 10, -12
 3900              		.cfi_offset 11, -8
 3901              		.cfi_offset 14, -4
 3902 0004 89B0     		sub	sp, sp, #36
 3903              		.cfi_def_cfa_offset 72
 3904              		.loc 3 440 10 view .LVU1049
 3905 0006 08AC     		add	r4, sp, #32
 3906 0008 9DF84870 		ldrb	r7, [sp, #72]	@ zero_extendqisi2
 3907 000c 0191     		str	r1, [sp, #4]
 3908 000e 04E90C00 		stmdb	r4, {r2, r3}
 441:../../libDaisy//src/hid/disp/display.h ****     {
 442:../../libDaisy//src/hid/disp/display.h ****         // Write until null-byte
 443:../../libDaisy//src/hid/disp/display.h ****         while(*str)
 3909              		.loc 3 443 9 is_stmt 1 view .LVU1050
 3910 0012 0B78     		ldrb	r3, [r1]	@ zero_extendqisi2
 3911 0014 002B     		cmp	r3, #0
 3912 0016 00F0AB80 		beq	.L251
 3913 001a 1A46     		mov	r2, r3
 3914 001c 9DF81880 		ldrb	r8, [sp, #24]	@ zero_extendqisi2
 3915 0020 9DF81930 		ldrb	r3, [sp, #25]	@ zero_extendqisi2
 3916 0024 0646     		mov	r6, r0
 3917 0026 4546     		mov	r5, r8
 3918 0028 9046     		mov	r8, r2
 3919 002a 0393     		str	r3, [sp, #12]
 3920 002c 079B     		ldr	r3, [sp, #28]
 3921 002e 0593     		str	r3, [sp, #20]
 3922              	.LVL277:
 3923              	.L252:
 3924              	.LBB926:
 3925              	.LBI926:
 396:../../libDaisy//src/hid/disp/display.h ****     {
 3926              		.loc 3 396 10 view .LVU1051
 3927              	.LBB927:
 401:../../libDaisy//src/hid/disp/display.h ****             return 0;
 3928              		.loc 3 401 20 is_stmt 0 view .LVU1052
 3929 0030 A8F12004 		sub	r4, r8, #32
 401:../../libDaisy//src/hid/disp/display.h ****             return 0;
 3930              		.loc 3 401 9 view .LVU1053
 3931 0034 E3B2     		uxtb	r3, r4
ARM GAS  /var/folders/1y/_321xjh9623c014x9_qw12rr0000gn/T//ccXZVGQV.s 			page 137


 3932 0036 5E2B     		cmp	r3, #94
 3933 0038 00F29E80 		bhi	.L233
 405:../../libDaisy//src/hid/disp/display.h ****            || Height() < (currentY_ + font.FontHeight))
 3934              		.loc 3 405 17 view .LVU1054
 3935 003c 3368     		ldr	r3, [r6]
 3936 003e 5E4A     		ldr	r2, .L273
 3937 0040 DB68     		ldr	r3, [r3, #12]
 3938 0042 9342     		cmp	r3, r2
 3939 0044 40F09B80 		bne	.L266
 3940 0048 8020     		movs	r0, #128
 3941              	.L232:
 405:../../libDaisy//src/hid/disp/display.h ****            || Height() < (currentY_ + font.FontHeight))
 3942              		.loc 3 405 23 view .LVU1055
 3943 004a B388     		ldrh	r3, [r6, #4]
 405:../../libDaisy//src/hid/disp/display.h ****            || Height() < (currentY_ + font.FontHeight))
 3944              		.loc 3 405 33 view .LVU1056
 3945 004c 2B44     		add	r3, r3, r5
 406:../../libDaisy//src/hid/disp/display.h ****         {
 3946              		.loc 3 406 12 view .LVU1057
 3947 004e 8342     		cmp	r3, r0
 3948 0050 00F39280 		bgt	.L233
 406:../../libDaisy//src/hid/disp/display.h ****         {
 3949              		.loc 3 406 21 view .LVU1058
 3950 0054 3368     		ldr	r3, [r6]
 3951 0056 594A     		ldr	r2, .L273+4
 3952 0058 9B68     		ldr	r3, [r3, #8]
 3953 005a 9342     		cmp	r3, r2
 3954 005c 40F09280 		bne	.L267
 3955 0060 4020     		movs	r0, #64
 3956              	.L234:
 406:../../libDaisy//src/hid/disp/display.h ****         {
 3957              		.loc 3 406 27 view .LVU1059
 3958 0062 F188     		ldrh	r1, [r6, #6]
 406:../../libDaisy//src/hid/disp/display.h ****         {
 3959              		.loc 3 406 37 view .LVU1060
 3960 0064 039A     		ldr	r2, [sp, #12]
 406:../../libDaisy//src/hid/disp/display.h ****         {
 3961              		.loc 3 406 27 view .LVU1061
 3962 0066 0291     		str	r1, [sp, #8]
 406:../../libDaisy//src/hid/disp/display.h ****         {
 3963              		.loc 3 406 37 view .LVU1062
 3964 0068 8B18     		adds	r3, r1, r2
 406:../../libDaisy//src/hid/disp/display.h ****         {
 3965              		.loc 3 406 12 view .LVU1063
 3966 006a 8342     		cmp	r3, r0
 3967 006c 00F38480 		bgt	.L233
 3968              	.LVL278:
 413:../../libDaisy//src/hid/disp/display.h ****         {
 3969              		.loc 3 413 22 is_stmt 1 view .LVU1064
 3970 0070 002A     		cmp	r2, #0
 3971 0072 00F09180 		beq	.L235
 415:../../libDaisy//src/hid/disp/display.h ****             for(j = 0; j < font.FontWidth; j++)
 3972              		.loc 3 415 37 is_stmt 0 view .LVU1065
 3973 0076 02FB04F4 		mul	r4, r2, r4
 3974 007a 6FF00049 		mvn	r9, #-2147483648
 3975 007e 059B     		ldr	r3, [sp, #20]
 3976 0080 A144     		add	r9, r9, r4
ARM GAS  /var/folders/1y/_321xjh9623c014x9_qw12rr0000gn/T//ccXZVGQV.s 			page 138


 3977 0082 1444     		add	r4, r4, r2
 434:../../libDaisy//src/hid/disp/display.h **** 
 3978              		.loc 3 434 19 view .LVU1066
 3979 0084 B6F804B0 		ldrh	fp, [r6, #4]
 3980 0088 03EB4909 		add	r9, r3, r9, lsl #1
 3981 008c 023B     		subs	r3, r3, #2
 3982 008e CDF81080 		str	r8, [sp, #16]
 3983 0092 03EB4403 		add	r3, r3, r4, lsl #1
 3984 0096 0C46     		mov	r4, r1
 3985 0098 9A46     		mov	r10, r3
 3986              	.LVL279:
 3987              	.L238:
 415:../../libDaisy//src/hid/disp/display.h ****             for(j = 0; j < font.FontWidth; j++)
 3988              		.loc 3 415 15 view .LVU1067
 3989 009a 39F802CF 		ldrh	ip, [r9, #2]!
 3990              	.LVL280:
 416:../../libDaisy//src/hid/disp/display.h ****             {
 3991              		.loc 3 416 26 is_stmt 1 view .LVU1068
 3992 009e A5B3     		cbz	r5, .L243
 3993              	.LBB928:
 3994              	.LBB929:
 3995              	.LBB930:
 3996              	.LBB931:
 3997              	.LBB932:
 359:../../libDaisy//src/dev/oled_ssd130x.h ****     }
 3998              		.loc 4 359 55 is_stmt 0 view .LVU1069
 3999 00a0 04F00703 		and	r3, r4, #7
 359:../../libDaisy//src/dev/oled_ssd130x.h ****     }
 4000              		.loc 4 359 49 view .LVU1070
 4001 00a4 4FF0010E 		mov	lr, #1
 359:../../libDaisy//src/dev/oled_ssd130x.h ****     }
 4002              		.loc 4 359 28 view .LVU1071
 4003 00a8 E208     		lsrs	r2, r4, #3
 4004 00aa 5946     		mov	r1, fp
 359:../../libDaisy//src/dev/oled_ssd130x.h ****     }
 4005              		.loc 4 359 49 view .LVU1072
 4006 00ac 0EFA03FE 		lsl	lr, lr, r3
 4007 00b0 0BF11403 		add	r3, fp, #20
 359:../../libDaisy//src/dev/oled_ssd130x.h ****     }
 4008              		.loc 4 359 42 view .LVU1073
 4009 00b4 4FFA8EFE 		sxtb	lr, lr
 4010 00b8 03EBC212 		add	r2, r3, r2, lsl #7
 4011              	.LBE932:
 4012              	.LBE931:
 4013              	.LBE930:
 4014              	.LBE929:
 4015              	.LBE928:
 416:../../libDaisy//src/hid/disp/display.h ****             {
 4016              		.loc 3 416 19 view .LVU1074
 4017 00bc 0023     		movs	r3, #0
 4018              	.LBB950:
 4019              	.LBB945:
 4020              	.LBB940:
 4021              	.LBB936:
 4022              	.LBB933:
 359:../../libDaisy//src/dev/oled_ssd130x.h ****     }
 4023              		.loc 4 359 42 view .LVU1075
ARM GAS  /var/folders/1y/_321xjh9623c014x9_qw12rr0000gn/T//ccXZVGQV.s 			page 139


 4024 00be 6FEA0E08 		mvn	r8, lr
 4025 00c2 3244     		add	r2, r2, r6
 4026 00c4 0DE0     		b	.L244
 4027              	.LVL281:
 4028              	.L268:
 359:../../libDaisy//src/dev/oled_ssd130x.h ****     }
 4029              		.loc 4 359 42 view .LVU1076
 4030              	.LBE933:
 4031              	.LBE936:
 4032              	.LBE940:
 4033              	.LBE945:
 4034              	.LBE950:
 4035              	.LBB951:
 4036              	.LBI951:
  42:../../libDaisy//src/hid/disp/oled_display.h ****     {
 4037              		.loc 1 42 10 is_stmt 1 view .LVU1077
 4038              	.LBB952:
 4039              	.LBI952:
 352:../../libDaisy//src/dev/oled_ssd130x.h ****     {
 4040              		.loc 4 352 10 view .LVU1078
 4041              	.LBB953:
 354:../../libDaisy//src/dev/oled_ssd130x.h ****             return;
 4042              		.loc 4 354 9 is_stmt 0 view .LVU1079
 4043 00c6 7F29     		cmp	r1, #127
 4044 00c8 06D8     		bhi	.L240
 4045 00ca 3F2C     		cmp	r4, #63
 4046 00cc 04D8     		bhi	.L240
 357:../../libDaisy//src/dev/oled_ssd130x.h ****         else
 4047              		.loc 4 357 42 view .LVU1080
 4048 00ce 1078     		ldrb	r0, [r2]	@ zero_extendqisi2
 356:../../libDaisy//src/dev/oled_ssd130x.h ****             buffer_[x + (y / 8) * width] |= (1 << (y % 8));
 4049              		.loc 4 356 9 view .LVU1081
 4050 00d0 97B1     		cbz	r7, .L242
 4051              	.L265:
 356:../../libDaisy//src/dev/oled_ssd130x.h ****             buffer_[x + (y / 8) * width] |= (1 << (y % 8));
 4052              		.loc 4 356 9 view .LVU1082
 4053              	.LBE953:
 4054              	.LBE952:
 4055              	.LBE951:
 4056              	.LBB954:
 4057              	.LBB946:
 4058              	.LBB941:
 357:../../libDaisy//src/dev/oled_ssd130x.h ****         else
 4059              		.loc 4 357 42 view .LVU1083
 4060 00d2 4EEA0000 		orr	r0, lr, r0
 4061 00d6 1070     		strb	r0, [r2]
 4062              	.L240:
 4063              	.LBE941:
 4064              	.LBE946:
 4065              	.LBE954:
 416:../../libDaisy//src/hid/disp/display.h ****             {
 4066              		.loc 3 416 13 is_stmt 1 view .LVU1084
 4067 00d8 0133     		adds	r3, r3, #1
 4068              	.LVL282:
 416:../../libDaisy//src/hid/disp/display.h ****             {
 4069              		.loc 3 416 26 view .LVU1085
 4070 00da 0132     		adds	r2, r2, #1
ARM GAS  /var/folders/1y/_321xjh9623c014x9_qw12rr0000gn/T//ccXZVGQV.s 			page 140


 4071 00dc 0131     		adds	r1, r1, #1
 4072 00de AB42     		cmp	r3, r5
 4073 00e0 13D0     		beq	.L243
 4074              	.LVL283:
 4075              	.L244:
 418:../../libDaisy//src/hid/disp/display.h ****                 {
 4076              		.loc 3 418 23 is_stmt 0 view .LVU1086
 4077 00e2 0CFA03F0 		lsl	r0, ip, r3
 418:../../libDaisy//src/hid/disp/display.h ****                 {
 4078              		.loc 3 418 17 view .LVU1087
 4079 00e6 0004     		lsls	r0, r0, #16
 4080 00e8 EDD4     		bmi	.L268
 4081              	.LVL284:
 4082              	.LBB955:
 4083              	.LBI928:
  42:../../libDaisy//src/hid/disp/oled_display.h ****     {
 4084              		.loc 1 42 10 is_stmt 1 view .LVU1088
 4085              	.LBB947:
 4086              	.LBI929:
 352:../../libDaisy//src/dev/oled_ssd130x.h ****     {
 4087              		.loc 4 352 10 view .LVU1089
 4088              	.LBB942:
 354:../../libDaisy//src/dev/oled_ssd130x.h ****             return;
 4089              		.loc 4 354 9 is_stmt 0 view .LVU1090
 4090 00ea 7F29     		cmp	r1, #127
 4091 00ec F4D8     		bhi	.L240
 4092 00ee 3F2C     		cmp	r4, #63
 4093 00f0 F2D8     		bhi	.L240
 357:../../libDaisy//src/dev/oled_ssd130x.h ****         else
 4094              		.loc 4 357 42 view .LVU1091
 4095 00f2 1078     		ldrb	r0, [r2]	@ zero_extendqisi2
 356:../../libDaisy//src/dev/oled_ssd130x.h ****             buffer_[x + (y / 8) * width] |= (1 << (y % 8));
 4096              		.loc 4 356 9 view .LVU1092
 4097 00f4 002F     		cmp	r7, #0
 4098 00f6 ECD0     		beq	.L265
 4099              	.L242:
 4100              	.LVL285:
 4101              	.LBB937:
 4102              	.LBI931:
 352:../../libDaisy//src/dev/oled_ssd130x.h ****     {
 4103              		.loc 4 352 10 is_stmt 1 view .LVU1093
 352:../../libDaisy//src/dev/oled_ssd130x.h ****     {
 4104              		.loc 4 352 10 is_stmt 0 view .LVU1094
 4105              	.LBE937:
 4106              	.LBE942:
 4107              	.LBE947:
 4108              	.LBE955:
 416:../../libDaisy//src/hid/disp/display.h ****             {
 4109              		.loc 3 416 13 view .LVU1095
 4110 00f8 0133     		adds	r3, r3, #1
 4111              	.LVL286:
 4112              	.LBB956:
 4113              	.LBB948:
 4114              	.LBB943:
 4115              	.LBB938:
 4116              	.LBB934:
 359:../../libDaisy//src/dev/oled_ssd130x.h ****     }
ARM GAS  /var/folders/1y/_321xjh9623c014x9_qw12rr0000gn/T//ccXZVGQV.s 			page 141


 4117              		.loc 4 359 42 view .LVU1096
 4118 00fa 08EA0000 		and	r0, r8, r0
 4119              	.LBE934:
 4120              	.LBE938:
 4121              	.LBE943:
 4122              	.LBE948:
 4123              	.LBE956:
 416:../../libDaisy//src/hid/disp/display.h ****             {
 4124              		.loc 3 416 26 view .LVU1097
 4125 00fe 0132     		adds	r2, r2, #1
 4126 0100 0131     		adds	r1, r1, #1
 4127 0102 AB42     		cmp	r3, r5
 4128              	.LBB957:
 4129              	.LBB949:
 4130              	.LBB944:
 4131              	.LBB939:
 4132              	.LBB935:
 359:../../libDaisy//src/dev/oled_ssd130x.h ****     }
 4133              		.loc 4 359 42 view .LVU1098
 4134 0104 02F8010C 		strb	r0, [r2, #-1]
 359:../../libDaisy//src/dev/oled_ssd130x.h ****     }
 4135              		.loc 4 359 42 view .LVU1099
 4136              	.LBE935:
 4137              	.LBE939:
 4138              	.LBE944:
 4139              	.LBE949:
 4140              	.LBE957:
 416:../../libDaisy//src/hid/disp/display.h ****             {
 4141              		.loc 3 416 13 is_stmt 1 view .LVU1100
 4142              	.LVL287:
 416:../../libDaisy//src/hid/disp/display.h ****             {
 4143              		.loc 3 416 26 view .LVU1101
 4144 0108 EBD1     		bne	.L244
 4145              	.LVL288:
 4146              	.L243:
 413:../../libDaisy//src/hid/disp/display.h ****         {
 4147              		.loc 3 413 9 view .LVU1102
 413:../../libDaisy//src/hid/disp/display.h ****         {
 4148              		.loc 3 413 22 view .LVU1103
 4149 010a D145     		cmp	r9, r10
 4150 010c 04F10104 		add	r4, r4, #1
 4151 0110 C3D1     		bne	.L238
 4152 0112 DDF81080 		ldr	r8, [sp, #16]
 4153              	.LVL289:
 4154              	.L237:
 4155              	.LBB958:
 4156              	.LBB959:
 173:../../libDaisy//src/hid/disp/display.h ****         currentY_ = (y >= Height()) ? Height() - 1 : y;
 4157              		.loc 3 173 33 is_stmt 0 view .LVU1104
 4158 0116 3268     		ldr	r2, [r6]
 4159              	.LBE959:
 4160              	.LBE958:
 434:../../libDaisy//src/hid/disp/display.h **** 
 4161              		.loc 3 434 18 view .LVU1105
 4162 0118 0BEB0504 		add	r4, fp, r5
 4163 011c 2649     		ldr	r1, .L273
 4164              	.LBB964:
ARM GAS  /var/folders/1y/_321xjh9623c014x9_qw12rr0000gn/T//ccXZVGQV.s 			page 142


 4165              	.LBB960:
 173:../../libDaisy//src/hid/disp/display.h ****         currentY_ = (y >= Height()) ? Height() - 1 : y;
 4166              		.loc 3 173 33 view .LVU1106
 4167 011e D368     		ldr	r3, [r2, #12]
 4168              	.LBE960:
 4169              	.LBE964:
 434:../../libDaisy//src/hid/disp/display.h **** 
 4170              		.loc 3 434 18 view .LVU1107
 4171 0120 A4B2     		uxth	r4, r4
 4172              	.LVL290:
 4173              	.LBB965:
 4174              	.LBI958:
 171:../../libDaisy//src/hid/disp/display.h ****     {
 4175              		.loc 3 171 10 is_stmt 1 view .LVU1108
 4176              	.LBB961:
 173:../../libDaisy//src/hid/disp/display.h ****         currentY_ = (y >= Height()) ? Height() - 1 : y;
 4177              		.loc 3 173 9 view .LVU1109
 4178 0122 8B42     		cmp	r3, r1
 4179 0124 34D1     		bne	.L269
 173:../../libDaisy//src/hid/disp/display.h ****         currentY_ = (y >= Height()) ? Height() - 1 : y;
 4180              		.loc 3 173 33 is_stmt 0 view .LVU1110
 4181 0126 8020     		movs	r0, #128
 4182              	.L245:
 173:../../libDaisy//src/hid/disp/display.h ****         currentY_ = (y >= Height()) ? Height() - 1 : y;
 4183              		.loc 3 173 19 view .LVU1111
 4184 0128 8442     		cmp	r4, r0
 4185 012a 04D3     		bcc	.L246
 173:../../libDaisy//src/hid/disp/display.h ****         currentY_ = (y >= Height()) ? Height() - 1 : y;
 4186              		.loc 3 173 44 view .LVU1112
 4187 012c D368     		ldr	r3, [r2, #12]
 4188 012e 2249     		ldr	r1, .L273
 4189 0130 8B42     		cmp	r3, r1
 4190 0132 3AD1     		bne	.L270
 4191 0134 7F24     		movs	r4, #127
 4192              	.LVL291:
 4193              	.L246:
 174:../../libDaisy//src/hid/disp/display.h ****     }
 4194              		.loc 3 174 34 view .LVU1113
 4195 0136 9368     		ldr	r3, [r2, #8]
 4196 0138 204A     		ldr	r2, .L273+4
 173:../../libDaisy//src/hid/disp/display.h ****         currentY_ = (y >= Height()) ? Height() - 1 : y;
 4197              		.loc 3 173 19 view .LVU1114
 4198 013a B480     		strh	r4, [r6, #4]	@ movhi
 174:../../libDaisy//src/hid/disp/display.h ****     }
 4199              		.loc 3 174 9 is_stmt 1 view .LVU1115
 4200 013c 9342     		cmp	r3, r2
 4201 013e 24D1     		bne	.L271
 174:../../libDaisy//src/hid/disp/display.h ****     }
 4202              		.loc 3 174 34 is_stmt 0 view .LVU1116
 4203 0140 4020     		movs	r0, #64
 4204              	.L248:
 174:../../libDaisy//src/hid/disp/display.h ****     }
 4205              		.loc 3 174 19 view .LVU1117
 4206 0142 029B     		ldr	r3, [sp, #8]
 4207 0144 8342     		cmp	r3, r0
 4208 0146 06D3     		bcc	.L249
 174:../../libDaisy//src/hid/disp/display.h ****     }
ARM GAS  /var/folders/1y/_321xjh9623c014x9_qw12rr0000gn/T//ccXZVGQV.s 			page 143


 4209              		.loc 3 174 46 view .LVU1118
 4210 0148 3368     		ldr	r3, [r6]
 4211 014a 1C4A     		ldr	r2, .L273+4
 4212 014c 9B68     		ldr	r3, [r3, #8]
 4213 014e 9342     		cmp	r3, r2
 4214 0150 25D1     		bne	.L272
 4215 0152 3F23     		movs	r3, #63
 4216 0154 0293     		str	r3, [sp, #8]
 4217              	.LVL292:
 4218              	.L249:
 174:../../libDaisy//src/hid/disp/display.h ****     }
 4219              		.loc 3 174 19 view .LVU1119
 4220 0156 029B     		ldr	r3, [sp, #8]
 4221 0158 F380     		strh	r3, [r6, #6]	@ movhi
 4222              	.LVL293:
 4223              	.L231:
 174:../../libDaisy//src/hid/disp/display.h ****     }
 4224              		.loc 3 174 19 view .LVU1120
 4225              	.LBE961:
 4226              	.LBE965:
 4227              	.LBE927:
 4228              	.LBE926:
 444:../../libDaisy//src/hid/disp/display.h ****         {
 445:../../libDaisy//src/hid/disp/display.h ****             if(((ChildType*)(this))->ChildType::WriteChar(*str, font, on)
 446:../../libDaisy//src/hid/disp/display.h ****                != *str)
 4229              		.loc 3 446 16 view .LVU1121
 4230 015a 019B     		ldr	r3, [sp, #4]
 4231 015c 1878     		ldrb	r0, [r3]	@ zero_extendqisi2
 445:../../libDaisy//src/hid/disp/display.h ****                != *str)
 4232              		.loc 3 445 13 view .LVU1122
 4233 015e 4045     		cmp	r0, r8
 4234 0160 07D1     		bne	.L229
 4235              	.LVL294:
 443:../../libDaisy//src/hid/disp/display.h ****         {
 4236              		.loc 3 443 9 is_stmt 1 view .LVU1123
 4237 0162 13F8018F 		ldrb	r8, [r3, #1]!	@ zero_extendqisi2
 4238              	.LVL295:
 443:../../libDaisy//src/hid/disp/display.h ****         {
 4239              		.loc 3 443 9 is_stmt 0 view .LVU1124
 4240 0166 0193     		str	r3, [sp, #4]
 4241 0168 B8F1000F 		cmp	r8, #0
 4242 016c 7FF460AF 		bne	.L252
 4243              	.LVL296:
 4244              	.L251:
 4245              	.LBB970:
 4246              	.LBB968:
 402:../../libDaisy//src/hid/disp/display.h **** 
 4247              		.loc 3 402 20 view .LVU1125
 4248 0170 0020     		movs	r0, #0
 4249              	.L229:
 4250              	.LBE968:
 4251              	.LBE970:
 447:../../libDaisy//src/hid/disp/display.h ****             {
 448:../../libDaisy//src/hid/disp/display.h ****                 // Char could not be written
 449:../../libDaisy//src/hid/disp/display.h ****                 return *str;
 450:../../libDaisy//src/hid/disp/display.h ****             }
 451:../../libDaisy//src/hid/disp/display.h **** 
ARM GAS  /var/folders/1y/_321xjh9623c014x9_qw12rr0000gn/T//ccXZVGQV.s 			page 144


 452:../../libDaisy//src/hid/disp/display.h ****             // Next char
 453:../../libDaisy//src/hid/disp/display.h ****             str++;
 454:../../libDaisy//src/hid/disp/display.h ****         }
 455:../../libDaisy//src/hid/disp/display.h **** 
 456:../../libDaisy//src/hid/disp/display.h ****         // Everything ok
 457:../../libDaisy//src/hid/disp/display.h ****         return *str;
 458:../../libDaisy//src/hid/disp/display.h ****     }
 4252              		.loc 3 458 5 view .LVU1126
 4253 0172 09B0     		add	sp, sp, #36
 4254              		.cfi_remember_state
 4255              		.cfi_def_cfa_offset 36
 4256              		@ sp needed
 4257 0174 BDE8F08F 		pop	{r4, r5, r6, r7, r8, r9, r10, fp, pc}
 4258              	.LVL297:
 4259              	.L233:
 4260              		.cfi_restore_state
 4261              	.LBB971:
 4262              	.LBB969:
 402:../../libDaisy//src/hid/disp/display.h **** 
 4263              		.loc 3 402 20 view .LVU1127
 4264 0178 4FF00008 		mov	r8, #0
 4265              	.LVL298:
 402:../../libDaisy//src/hid/disp/display.h **** 
 4266              		.loc 3 402 20 view .LVU1128
 4267 017c EDE7     		b	.L231
 4268              	.LVL299:
 4269              	.L266:
 405:../../libDaisy//src/hid/disp/display.h ****            || Height() < (currentY_ + font.FontHeight))
 4270              		.loc 3 405 17 view .LVU1129
 4271 017e 3046     		mov	r0, r6
 4272 0180 9847     		blx	r3
 4273              	.LVL300:
 4274 0182 62E7     		b	.L232
 4275              	.L267:
 406:../../libDaisy//src/hid/disp/display.h ****         {
 4276              		.loc 3 406 21 view .LVU1130
 4277 0184 3046     		mov	r0, r6
 4278 0186 9847     		blx	r3
 4279              	.LVL301:
 4280 0188 6BE7     		b	.L234
 4281              	.LVL302:
 4282              	.L271:
 4283              	.LBB966:
 4284              	.LBB962:
 174:../../libDaisy//src/hid/disp/display.h ****     }
 4285              		.loc 3 174 33 view .LVU1131
 4286 018a 3046     		mov	r0, r6
 4287 018c 9847     		blx	r3
 4288              	.LVL303:
 4289 018e D8E7     		b	.L248
 4290              	.LVL304:
 4291              	.L269:
 173:../../libDaisy//src/hid/disp/display.h ****         currentY_ = (y >= Height()) ? Height() - 1 : y;
 4292              		.loc 3 173 32 view .LVU1132
 4293 0190 3046     		mov	r0, r6
 4294 0192 9847     		blx	r3
 4295              	.LVL305:
ARM GAS  /var/folders/1y/_321xjh9623c014x9_qw12rr0000gn/T//ccXZVGQV.s 			page 145


 173:../../libDaisy//src/hid/disp/display.h ****         currentY_ = (y >= Height()) ? Height() - 1 : y;
 4296              		.loc 3 173 44 view .LVU1133
 4297 0194 3268     		ldr	r2, [r6]
 4298 0196 C7E7     		b	.L245
 4299              	.LVL306:
 4300              	.L235:
 173:../../libDaisy//src/hid/disp/display.h ****         currentY_ = (y >= Height()) ? Height() - 1 : y;
 4301              		.loc 3 173 44 view .LVU1134
 4302              	.LBE962:
 4303              	.LBE966:
 434:../../libDaisy//src/hid/disp/display.h **** 
 4304              		.loc 3 434 19 view .LVU1135
 4305 0198 B6F804B0 		ldrh	fp, [r6, #4]
 4306 019c BBE7     		b	.L237
 4307              	.LVL307:
 4308              	.L272:
 4309              	.LBB967:
 4310              	.LBB963:
 174:../../libDaisy//src/hid/disp/display.h ****     }
 4311              		.loc 3 174 45 view .LVU1136
 4312 019e 3046     		mov	r0, r6
 4313 01a0 9847     		blx	r3
 4314              	.LVL308:
 174:../../libDaisy//src/hid/disp/display.h ****     }
 4315              		.loc 3 174 19 view .LVU1137
 4316 01a2 0138     		subs	r0, r0, #1
 4317 01a4 83B2     		uxth	r3, r0
 4318 01a6 0293     		str	r3, [sp, #8]
 4319              	.LVL309:
 174:../../libDaisy//src/hid/disp/display.h ****     }
 4320              		.loc 3 174 19 view .LVU1138
 4321 01a8 D5E7     		b	.L249
 4322              	.LVL310:
 4323              	.L270:
 173:../../libDaisy//src/hid/disp/display.h ****         currentY_ = (y >= Height()) ? Height() - 1 : y;
 4324              		.loc 3 173 43 view .LVU1139
 4325 01aa 3046     		mov	r0, r6
 4326 01ac 9847     		blx	r3
 4327              	.LVL311:
 173:../../libDaisy//src/hid/disp/display.h ****         currentY_ = (y >= Height()) ? Height() - 1 : y;
 4328              		.loc 3 173 19 view .LVU1140
 4329 01ae 0138     		subs	r0, r0, #1
 174:../../libDaisy//src/hid/disp/display.h ****     }
 4330              		.loc 3 174 34 view .LVU1141
 4331 01b0 3268     		ldr	r2, [r6]
 173:../../libDaisy//src/hid/disp/display.h ****         currentY_ = (y >= Height()) ? Height() - 1 : y;
 4332              		.loc 3 173 19 view .LVU1142
 4333 01b2 84B2     		uxth	r4, r0
 4334              	.LVL312:
 173:../../libDaisy//src/hid/disp/display.h ****         currentY_ = (y >= Height()) ? Height() - 1 : y;
 4335              		.loc 3 173 19 view .LVU1143
 4336 01b4 BFE7     		b	.L246
 4337              	.L274:
 4338 01b6 00BF     		.align	2
 4339              	.L273:
 4340 01b8 00000000 		.word	_ZNK5daisy11OledDisplayINS_13SSD130xDriverILj128ELj64ENS_24SSD130x4WireSpiTransportEEEE5Widt
 4341 01bc 00000000 		.word	_ZNK5daisy11OledDisplayINS_13SSD130xDriverILj128ELj64ENS_24SSD130x4WireSpiTransportEEEE6Heig
ARM GAS  /var/folders/1y/_321xjh9623c014x9_qw12rr0000gn/T//ccXZVGQV.s 			page 146


 4342              	.LBE963:
 4343              	.LBE967:
 4344              	.LBE969:
 4345              	.LBE971:
 4346              		.cfi_endproc
 4347              	.LFE4058:
 4349              		.section	.text._ZN5daisy5Dubby18HightlightMenuItemEv,"ax",%progbits
 4350              		.align	1
 4351              		.p2align 2,,3
 4352              		.global	_ZN5daisy5Dubby18HightlightMenuItemEv
 4353              		.syntax unified
 4354              		.thumb
 4355              		.thumb_func
 4357              	_ZN5daisy5Dubby18HightlightMenuItemEv:
 4358              	.LVL313:
 4359              	.LFB3753:
 217:Dubby.cpp     **** {
 4360              		.loc 2 217 1 is_stmt 1 view -0
 4361              		.cfi_startproc
 4362              		@ args = 0, pretend = 0, frame = 40
 4363              		@ frame_needed = 0, uses_anonymous_args = 0
 219:Dubby.cpp     ****     display.DrawRect(menuBoxBounding[0][0], menuBoxBounding[0][1], menuBoxBounding[0][2], menuBoxBo
 4364              		.loc 2 219 5 view .LVU1145
 217:Dubby.cpp     **** {
 4365              		.loc 2 217 1 is_stmt 0 view .LVU1146
 4366 0000 2DE9F04F 		push	{r4, r5, r6, r7, r8, r9, r10, fp, lr}
 4367              		.cfi_def_cfa_offset 36
 4368              		.cfi_offset 4, -36
 4369              		.cfi_offset 5, -32
 4370              		.cfi_offset 6, -28
 4371              		.cfi_offset 7, -24
 4372              		.cfi_offset 8, -20
 4373              		.cfi_offset 9, -16
 4374              		.cfi_offset 10, -12
 4375              		.cfi_offset 11, -8
 4376              		.cfi_offset 14, -4
 219:Dubby.cpp     ****     display.DrawRect(menuBoxBounding[0][0], menuBoxBounding[0][1], menuBoxBounding[0][2], menuBoxBo
 4377              		.loc 2 219 88 view .LVU1147
 4378 0004 D0F88060 		ldr	r6, [r0, #128]
 219:Dubby.cpp     ****     display.DrawRect(menuBoxBounding[0][0], menuBoxBounding[0][1], menuBoxBounding[0][2], menuBoxBo
 4379              		.loc 2 219 21 view .LVU1148
 4380 0008 00F2AC43 		addw	r3, r0, #1196
 219:Dubby.cpp     ****     display.DrawRect(menuBoxBounding[0][0], menuBoxBounding[0][1], menuBoxBounding[0][2], menuBoxBo
 4381              		.loc 2 219 42 view .LVU1149
 4382 000c 876F     		ldr	r7, [r0, #120]
 217:Dubby.cpp     **** {
 4383              		.loc 2 217 1 view .LVU1150
 4384 000e 8DB0     		sub	sp, sp, #52
 4385              		.cfi_def_cfa_offset 88
 219:Dubby.cpp     ****     display.DrawRect(menuBoxBounding[0][0], menuBoxBounding[0][1], menuBoxBounding[0][2], menuBoxBo
 4386              		.loc 2 219 111 view .LVU1151
 4387 0010 D0F88420 		ldr	r2, [r0, #132]
 219:Dubby.cpp     ****     display.DrawRect(menuBoxBounding[0][0], menuBoxBounding[0][1], menuBoxBounding[0][2], menuBoxBo
 4388              		.loc 2 219 21 view .LVU1152
 4389 0014 07EE903A 		vmov	s15, r3	@ int
 4390              	.LBB1140:
 4391              	.LBB1141:
ARM GAS  /var/folders/1y/_321xjh9623c014x9_qw12rr0000gn/T//ccXZVGQV.s 			page 147


 4392              	.LBB1142:
 227:../../libDaisy//src/hid/disp/display.h ****         int_fast16_t deltaY = abs((int_fast16_t)y2 - (int_fast16_t)y1);
 4393              		.loc 3 227 52 view .LVU1153
 4394 0018 A6EB070A 		sub	r10, r6, r7
 4395              	.LBE1142:
 4396              	.LBE1141:
 4397              	.LBE1140:
 219:Dubby.cpp     ****     display.DrawRect(menuBoxBounding[0][0], menuBoxBounding[0][1], menuBoxBounding[0][2], menuBoxBo
 4398              		.loc 2 219 65 view .LVU1154
 4399 001c C36F     		ldr	r3, [r0, #124]
 217:Dubby.cpp     **** {
 4400              		.loc 2 217 1 view .LVU1155
 4401 001e 0446     		mov	r4, r0
 219:Dubby.cpp     ****     display.DrawRect(menuBoxBounding[0][0], menuBoxBounding[0][1], menuBoxBounding[0][2], menuBoxBo
 4402              		.loc 2 219 111 view .LVU1156
 4403 0020 0492     		str	r2, [sp, #16]
 4404              	.LBB1234:
 4405              	.LBB1172:
 4406              	.LBB1168:
 227:../../libDaisy//src/hid/disp/display.h ****         int_fast16_t deltaY = abs((int_fast16_t)y2 - (int_fast16_t)y1);
 4407              		.loc 3 227 22 view .LVU1157
 4408 0022 BAF1000F 		cmp	r10, #0
 4409              	.LBE1168:
 4410              	.LBE1172:
 4411              	.LBE1234:
 219:Dubby.cpp     ****     display.DrawRect(menuBoxBounding[0][0], menuBoxBounding[0][1], menuBoxBounding[0][2], menuBoxBo
 4412              		.loc 2 219 21 view .LVU1158
 4413 0026 3046     		mov	r0, r6
 4414              	.LVL314:
 219:Dubby.cpp     ****     display.DrawRect(menuBoxBounding[0][0], menuBoxBounding[0][1], menuBoxBounding[0][2], menuBoxBo
 4415              		.loc 2 219 65 view .LVU1159
 4416 0028 0393     		str	r3, [sp, #12]
 4417              	.LVL315:
 4418              	.LBB1235:
 4419              	.LBI1140:
 257:../../libDaisy//src/hid/disp/display.h ****                   uint_fast8_t y1,
 4420              		.loc 3 257 10 is_stmt 1 view .LVU1160
 4421              	.LBB1173:
 4422              	.LBI1141:
 221:../../libDaisy//src/hid/disp/display.h ****                   uint_fast8_t y1,
 4423              		.loc 3 221 10 view .LVU1161
 4424              	.LBB1169:
 227:../../libDaisy//src/hid/disp/display.h ****         int_fast16_t deltaY = abs((int_fast16_t)y2 - (int_fast16_t)y1);
 4425              		.loc 3 227 22 is_stmt 0 view .LVU1162
 4426 002a B8BF     		it	lt
 4427 002c CAF1000A 		rsblt	r10, r10, #0
 4428              	.LVL316:
 229:../../libDaisy//src/hid/disp/display.h ****         int_fast16_t signY  = ((y1 < y2) ? 1 : -1);
 4429              		.loc 3 229 42 view .LVU1163
 4430 0030 B742     		cmp	r7, r6
 4431 0032 5CD3     		bcc	.L276
 4432              	.LVL317:
 4433              	.LBB1143:
 4434              	.LBI1143:
  42:../../libDaisy//src/hid/disp/oled_display.h ****     {
 4435              		.loc 1 42 10 is_stmt 1 view .LVU1164
 4436              	.LBB1144:
ARM GAS  /var/folders/1y/_321xjh9623c014x9_qw12rr0000gn/T//ccXZVGQV.s 			page 148


 4437              	.LBB1145:
 4438              	.LBB1146:
 354:../../libDaisy//src/dev/oled_ssd130x.h ****             return;
 4439              		.loc 4 354 14 is_stmt 0 view .LVU1165
 4440 0034 7F2E     		cmp	r6, #127
 4441              	.LBE1146:
 4442              	.LBE1145:
 4443              		.loc 1 44 26 view .LVU1166
 4444 0036 04F2B445 		addw	r5, r4, #1204
 4445              	.LVL318:
 4446              	.LBB1151:
 4447              	.LBI1145:
 352:../../libDaisy//src/dev/oled_ssd130x.h ****     {
 4448              		.loc 4 352 10 is_stmt 1 view .LVU1167
 4449              	.LBE1151:
 4450              	.LBE1144:
 4451              	.LBE1143:
 229:../../libDaisy//src/hid/disp/display.h ****         int_fast16_t signY  = ((y1 < y2) ? 1 : -1);
 4452              		.loc 3 229 42 is_stmt 0 view .LVU1168
 4453 003a 4FF0FF3B 		mov	fp, #-1
 4454              	.LBB1161:
 4455              	.LBB1157:
 4456              	.LBB1152:
 4457              	.LBB1147:
 354:../../libDaisy//src/dev/oled_ssd130x.h ****             return;
 4458              		.loc 4 354 14 view .LVU1169
 4459 003e 94BF     		ite	ls
 4460 0040 0021     		movls	r1, #0
 4461 0042 0121     		movhi	r1, #1
 354:../../libDaisy//src/dev/oled_ssd130x.h ****             return;
 4462              		.loc 4 354 28 view .LVU1170
 4463 0044 3F2B     		cmp	r3, #63
 354:../../libDaisy//src/dev/oled_ssd130x.h ****             return;
 4464              		.loc 4 354 14 view .LVU1171
 4465 0046 0691     		str	r1, [sp, #24]
 354:../../libDaisy//src/dev/oled_ssd130x.h ****             return;
 4466              		.loc 4 354 28 view .LVU1172
 4467 0048 94BF     		ite	ls
 4468 004a 0023     		movls	r3, #0
 4469              	.LVL319:
 354:../../libDaisy//src/dev/oled_ssd130x.h ****             return;
 4470              		.loc 4 354 28 view .LVU1173
 4471 004c 0123     		movhi	r3, #1
 4472 004e 0893     		str	r3, [sp, #32]
 354:../../libDaisy//src/dev/oled_ssd130x.h ****             return;
 4473              		.loc 4 354 9 view .LVU1174
 4474 0050 09B9     		cbnz	r1, .L277
 4475 0052 002B     		cmp	r3, #0
 4476 0054 5ED0     		beq	.L319
 4477              	.L277:
 4478              	.LVL320:
 354:../../libDaisy//src/dev/oled_ssd130x.h ****             return;
 4479              		.loc 4 354 9 view .LVU1175
 4480              	.LBE1147:
 4481              	.LBE1152:
 4482              	.LBE1157:
 4483              	.LBE1161:
ARM GAS  /var/folders/1y/_321xjh9623c014x9_qw12rr0000gn/T//ccXZVGQV.s 			page 149


 239:../../libDaisy//src/hid/disp/display.h ****         {
 4484              		.loc 3 239 26 is_stmt 1 view .LVU1176
 4485 0056 B742     		cmp	r7, r6
 4486 0058 74D0     		beq	.L366
 4487              	.LVL321:
 4488              	.L279:
 227:../../libDaisy//src/hid/disp/display.h ****         int_fast16_t deltaY = abs((int_fast16_t)y2 - (int_fast16_t)y1);
 4489              		.loc 3 227 22 is_stmt 0 view .LVU1177
 4490 005a D046     		mov	r8, r10
 4491              	.LBE1169:
 4492              	.LBE1173:
 4493              	.LBE1235:
 219:Dubby.cpp     ****     display.DrawRect(menuBoxBounding[0][0], menuBoxBounding[0][1], menuBoxBounding[0][2], menuBoxBo
 4494              		.loc 2 219 21 view .LVU1178
 4495 005c DDF80CC0 		ldr	ip, [sp, #12]
 4496 0060 BE46     		mov	lr, r7
 4497              	.L281:
 4498              	.LVL322:
 4499              	.LBB1236:
 4500              	.LBB1174:
 4501              	.LBB1170:
 4502              	.LBB1162:
 4503              	.LBI1162:
  42:../../libDaisy//src/hid/disp/oled_display.h ****     {
 4504              		.loc 1 42 10 is_stmt 1 view .LVU1179
 4505              	.LBB1163:
 4506              	.LBI1163:
 352:../../libDaisy//src/dev/oled_ssd130x.h ****     {
 4507              		.loc 4 352 10 view .LVU1180
 4508              	.LBB1164:
 357:../../libDaisy//src/dev/oled_ssd130x.h ****         else
 4509              		.loc 4 357 28 is_stmt 0 view .LVU1181
 4510 0062 4FEADC03 		lsr	r3, ip, #3
 357:../../libDaisy//src/dev/oled_ssd130x.h ****         else
 4511              		.loc 4 357 54 view .LVU1182
 4512 0066 0CF00701 		and	r1, ip, #7
 357:../../libDaisy//src/dev/oled_ssd130x.h ****         else
 4513              		.loc 4 357 48 view .LVU1183
 4514 006a 4FF00109 		mov	r9, #1
 354:../../libDaisy//src/dev/oled_ssd130x.h ****             return;
 4515              		.loc 4 354 9 view .LVU1184
 4516 006e BEF17F0F 		cmp	lr, #127
 357:../../libDaisy//src/dev/oled_ssd130x.h ****         else
 4517              		.loc 4 357 42 view .LVU1185
 4518 0072 0EEBC313 		add	r3, lr, r3, lsl #7
 357:../../libDaisy//src/dev/oled_ssd130x.h ****         else
 4519              		.loc 4 357 48 view .LVU1186
 4520 0076 09FA01F1 		lsl	r1, r9, r1
 354:../../libDaisy//src/dev/oled_ssd130x.h ****             return;
 4521              		.loc 4 354 9 view .LVU1187
 4522 007a 09D8     		bhi	.L282
 4523 007c BCF13F0F 		cmp	ip, #63
 357:../../libDaisy//src/dev/oled_ssd130x.h ****         else
 4524              		.loc 4 357 42 view .LVU1188
 4525 0080 2344     		add	r3, r3, r4
 354:../../libDaisy//src/dev/oled_ssd130x.h ****             return;
 4526              		.loc 4 354 9 view .LVU1189
ARM GAS  /var/folders/1y/_321xjh9623c014x9_qw12rr0000gn/T//ccXZVGQV.s 			page 150


 4527 0082 05D8     		bhi	.L282
 357:../../libDaisy//src/dev/oled_ssd130x.h ****         else
 4528              		.loc 4 357 42 view .LVU1190
 4529 0084 93F8C094 		ldrb	r9, [r3, #1216]	@ zero_extendqisi2
 4530 0088 41EA0901 		orr	r1, r1, r9
 4531 008c 83F8C014 		strb	r1, [r3, #1216]
 4532              	.L282:
 357:../../libDaisy//src/dev/oled_ssd130x.h ****         else
 4533              		.loc 4 357 42 view .LVU1191
 4534              	.LBE1164:
 4535              	.LBE1163:
 4536              	.LBE1162:
 243:../../libDaisy//src/hid/disp/display.h ****             {
 4537              		.loc 3 243 13 view .LVU1192
 4538 0090 5FEA4803 		lsls	r3, r8, #1
 246:../../libDaisy//src/hid/disp/display.h ****             }
 4539              		.loc 3 246 20 view .LVU1193
 4540 0094 18BF     		it	ne
 4541 0096 DE44     		addne	lr, lr, fp
 4542              	.LVL323:
 249:../../libDaisy//src/hid/disp/display.h ****             {
 4543              		.loc 3 249 13 view .LVU1194
 4544 0098 9A45     		cmp	r10, r3
 4545 009a 02DD     		ble	.L284
 251:../../libDaisy//src/hid/disp/display.h ****                 y1 += signY;
 4546              		.loc 3 251 23 view .LVU1195
 4547 009c D044     		add	r8, r8, r10
 4548              	.LVL324:
 252:../../libDaisy//src/hid/disp/display.h ****             }
 4549              		.loc 3 252 20 view .LVU1196
 4550 009e 0CF1FF3C 		add	ip, ip, #-1
 4551              	.LVL325:
 4552              	.L284:
 239:../../libDaisy//src/hid/disp/display.h ****         {
 4553              		.loc 3 239 26 is_stmt 1 view .LVU1197
 4554 00a2 7645     		cmp	r6, lr
 4555 00a4 DDD1     		bne	.L281
 239:../../libDaisy//src/hid/disp/display.h ****         {
 4556              		.loc 3 239 26 is_stmt 0 view .LVU1198
 4557 00a6 039B     		ldr	r3, [sp, #12]
 4558 00a8 6345     		cmp	r3, ip
 4559 00aa DAD1     		bne	.L281
 4560 00ac 0023     		movs	r3, #0
 4561 00ae 0993     		str	r3, [sp, #36]
 4562              	.LVL326:
 4563              	.L278:
 239:../../libDaisy//src/hid/disp/display.h ****         {
 4564              		.loc 3 239 26 view .LVU1199
 4565              	.LBE1170:
 4566              	.LBE1174:
 4567              	.LBB1175:
 4568              	.LBI1175:
 221:../../libDaisy//src/hid/disp/display.h ****                   uint_fast8_t y1,
 4569              		.loc 3 221 10 is_stmt 1 view .LVU1200
 4570              	.LBB1176:
 228:../../libDaisy//src/hid/disp/display.h ****         int_fast16_t signX  = ((x1 < x2) ? 1 : -1);
 4571              		.loc 3 228 52 is_stmt 0 view .LVU1201
ARM GAS  /var/folders/1y/_321xjh9623c014x9_qw12rr0000gn/T//ccXZVGQV.s 			page 151


 4572 00b0 DDE90331 		ldrd	r3, r1, [sp, #12]
 4573 00b4 CB1A     		subs	r3, r1, r3
 228:../../libDaisy//src/hid/disp/display.h ****         int_fast16_t signX  = ((x1 < x2) ? 1 : -1);
 4574              		.loc 3 228 22 view .LVU1202
 4575 00b6 83EAE37C 		eor	ip, r3, r3, asr #31
 4576 00ba ACEBE37C 		sub	ip, ip, r3, asr #31
 230:../../libDaisy//src/hid/disp/display.h ****         int_fast16_t error  = deltaX - deltaY;
 4577              		.loc 3 230 42 view .LVU1203
 4578 00be 039B     		ldr	r3, [sp, #12]
 4579 00c0 8B42     		cmp	r3, r1
 228:../../libDaisy//src/hid/disp/display.h ****         int_fast16_t signX  = ((x1 < x2) ? 1 : -1);
 4580              		.loc 3 228 22 view .LVU1204
 4581 00c2 CDF814C0 		str	ip, [sp, #20]
 4582              	.LVL327:
 230:../../libDaisy//src/hid/disp/display.h ****         int_fast16_t error  = deltaX - deltaY;
 4583              		.loc 3 230 42 view .LVU1205
 4584 00c6 40D3     		bcc	.L285
 4585              	.LVL328:
 4586              	.LBB1177:
 4587              	.LBB1178:
 4588              	.LBB1179:
 354:../../libDaisy//src/dev/oled_ssd130x.h ****             return;
 4589              		.loc 4 354 28 view .LVU1206
 4590 00c8 3F29     		cmp	r1, #63
 4591              	.LBE1179:
 4592              	.LBE1178:
 4593              	.LBE1177:
 231:../../libDaisy//src/hid/disp/display.h ****         int_fast16_t error2;
 4594              		.loc 3 231 22 view .LVU1207
 4595 00ca 6346     		mov	r3, ip
 4596              	.LBB1190:
 4597              	.LBB1185:
 4598              	.LBB1180:
 354:../../libDaisy//src/dev/oled_ssd130x.h ****             return;
 4599              		.loc 4 354 9 view .LVU1208
 4600 00cc 0699     		ldr	r1, [sp, #24]
 4601              	.LBE1180:
 4602              	.LBE1185:
 4603              	.LBE1190:
 231:../../libDaisy//src/hid/disp/display.h ****         int_fast16_t error2;
 4604              		.loc 3 231 22 view .LVU1209
 4605 00ce CCF1000A 		rsb	r10, ip, #0
 4606              	.LVL329:
 4607              	.LBB1191:
 4608              	.LBI1177:
  42:../../libDaisy//src/hid/disp/oled_display.h ****     {
 4609              		.loc 1 42 10 is_stmt 1 view .LVU1210
 4610              	.LBB1186:
 4611              	.LBI1178:
 352:../../libDaisy//src/dev/oled_ssd130x.h ****     {
 4612              		.loc 4 352 10 view .LVU1211
 4613              	.LBB1181:
 354:../../libDaisy//src/dev/oled_ssd130x.h ****             return;
 4614              		.loc 4 354 28 is_stmt 0 view .LVU1212
 4615 00d2 94BF     		ite	ls
 4616 00d4 0023     		movls	r3, #0
 4617 00d6 0123     		movhi	r3, #1
ARM GAS  /var/folders/1y/_321xjh9623c014x9_qw12rr0000gn/T//ccXZVGQV.s 			page 152


 4618 00d8 0793     		str	r3, [sp, #28]
 354:../../libDaisy//src/dev/oled_ssd130x.h ****             return;
 4619              		.loc 4 354 9 view .LVU1213
 4620 00da 0029     		cmp	r1, #0
 4621 00dc 40F0F781 		bne	.L323
 4622 00e0 002B     		cmp	r3, #0
 4623 00e2 40F0F481 		bne	.L323
 4624              	.LBE1181:
 4625              	.LBE1186:
 4626              	.LBE1191:
 230:../../libDaisy//src/hid/disp/display.h ****         int_fast16_t error  = deltaX - deltaY;
 4627              		.loc 3 230 42 view .LVU1214
 4628 00e6 4FF0FF33 		mov	r3, #-1
 4629 00ea 0693     		str	r3, [sp, #24]
 4630 00ec 3FE0     		b	.L318
 4631              	.LVL330:
 4632              	.L276:
 230:../../libDaisy//src/hid/disp/display.h ****         int_fast16_t error  = deltaX - deltaY;
 4633              		.loc 3 230 42 view .LVU1215
 4634              	.LBE1176:
 4635              	.LBE1175:
 4636              	.LBB1204:
 4637              	.LBB1171:
 4638              	.LBB1165:
  42:../../libDaisy//src/hid/disp/oled_display.h ****     {
 4639              		.loc 1 42 10 is_stmt 1 view .LVU1216
 4640              	.LBB1158:
 4641              	.LBB1153:
 4642              	.LBB1148:
 354:../../libDaisy//src/dev/oled_ssd130x.h ****             return;
 4643              		.loc 4 354 28 is_stmt 0 view .LVU1217
 4644 00ee 039B     		ldr	r3, [sp, #12]
 4645              	.LVL331:
 354:../../libDaisy//src/dev/oled_ssd130x.h ****             return;
 4646              		.loc 4 354 28 view .LVU1218
 4647              	.LBE1148:
 4648              	.LBE1153:
 4649              		.loc 1 44 26 view .LVU1219
 4650 00f0 04F2B445 		addw	r5, r4, #1204
 4651              	.LVL332:
 4652              	.LBB1154:
 352:../../libDaisy//src/dev/oled_ssd130x.h ****     {
 4653              		.loc 4 352 10 is_stmt 1 view .LVU1220
 4654              	.LBE1154:
 4655              	.LBE1158:
 4656              	.LBE1165:
 229:../../libDaisy//src/hid/disp/display.h ****         int_fast16_t signY  = ((y1 < y2) ? 1 : -1);
 4657              		.loc 3 229 42 is_stmt 0 view .LVU1221
 4658 00f4 4FF0010B 		mov	fp, #1
 4659              	.LBB1166:
 4660              	.LBB1159:
 4661              	.LBB1155:
 4662              	.LBB1149:
 354:../../libDaisy//src/dev/oled_ssd130x.h ****             return;
 4663              		.loc 4 354 28 view .LVU1222
 4664 00f8 3F2B     		cmp	r3, #63
 4665 00fa 94BF     		ite	ls
ARM GAS  /var/folders/1y/_321xjh9623c014x9_qw12rr0000gn/T//ccXZVGQV.s 			page 153


 4666 00fc 0023     		movls	r3, #0
 4667 00fe 0123     		movhi	r3, #1
 354:../../libDaisy//src/dev/oled_ssd130x.h ****             return;
 4668              		.loc 4 354 14 view .LVU1223
 4669 0100 7F2E     		cmp	r6, #127
 354:../../libDaisy//src/dev/oled_ssd130x.h ****             return;
 4670              		.loc 4 354 28 view .LVU1224
 4671 0102 0893     		str	r3, [sp, #32]
 354:../../libDaisy//src/dev/oled_ssd130x.h ****             return;
 4672              		.loc 4 354 14 view .LVU1225
 4673 0104 94BF     		ite	ls
 4674 0106 0021     		movls	r1, #0
 4675 0108 0121     		movhi	r1, #1
 4676 010a 0691     		str	r1, [sp, #24]
 354:../../libDaisy//src/dev/oled_ssd130x.h ****             return;
 4677              		.loc 4 354 9 view .LVU1226
 4678 010c 002B     		cmp	r3, #0
 4679 010e A4D1     		bne	.L279
 4680 0110 0029     		cmp	r1, #0
 4681 0112 A2D1     		bne	.L279
 4682              	.LVL333:
 4683              	.L319:
 357:../../libDaisy//src/dev/oled_ssd130x.h ****         else
 4684              		.loc 4 357 28 view .LVU1227
 4685 0114 0399     		ldr	r1, [sp, #12]
 4686              	.LBE1149:
 4687              	.LBE1155:
 4688              	.LBE1159:
 4689              	.LBE1166:
 239:../../libDaisy//src/hid/disp/display.h ****         {
 4690              		.loc 3 239 26 view .LVU1228
 4691 0116 B742     		cmp	r7, r6
 4692              	.LBB1167:
 4693              	.LBB1160:
 4694              	.LBB1156:
 4695              	.LBB1150:
 357:../../libDaisy//src/dev/oled_ssd130x.h ****         else
 4696              		.loc 4 357 28 view .LVU1229
 4697 0118 4FEAD103 		lsr	r3, r1, #3
 357:../../libDaisy//src/dev/oled_ssd130x.h ****         else
 4698              		.loc 4 357 54 view .LVU1230
 4699 011c 01F0070C 		and	ip, r1, #7
 357:../../libDaisy//src/dev/oled_ssd130x.h ****         else
 4700              		.loc 4 357 48 view .LVU1231
 4701 0120 4FF00101 		mov	r1, #1
 357:../../libDaisy//src/dev/oled_ssd130x.h ****         else
 4702              		.loc 4 357 42 view .LVU1232
 4703 0124 06EBC313 		add	r3, r6, r3, lsl #7
 357:../../libDaisy//src/dev/oled_ssd130x.h ****         else
 4704              		.loc 4 357 48 view .LVU1233
 4705 0128 01FA0CF1 		lsl	r1, r1, ip
 357:../../libDaisy//src/dev/oled_ssd130x.h ****         else
 4706              		.loc 4 357 42 view .LVU1234
 4707 012c 2344     		add	r3, r3, r4
 4708 012e 93F8C0C4 		ldrb	ip, [r3, #1216]	@ zero_extendqisi2
 4709 0132 41EA0C01 		orr	r1, r1, ip
 4710 0136 83F8C014 		strb	r1, [r3, #1216]
ARM GAS  /var/folders/1y/_321xjh9623c014x9_qw12rr0000gn/T//ccXZVGQV.s 			page 154


 4711              	.LVL334:
 357:../../libDaisy//src/dev/oled_ssd130x.h ****         else
 4712              		.loc 4 357 42 view .LVU1235
 4713 013a 4FF00003 		mov	r3, #0
 4714 013e 0893     		str	r3, [sp, #32]
 4715 0140 0693     		str	r3, [sp, #24]
 4716              	.LVL335:
 357:../../libDaisy//src/dev/oled_ssd130x.h ****         else
 4717              		.loc 4 357 42 view .LVU1236
 4718              	.LBE1150:
 4719              	.LBE1156:
 4720              	.LBE1160:
 4721              	.LBE1167:
 239:../../libDaisy//src/hid/disp/display.h ****         {
 4722              		.loc 3 239 26 is_stmt 1 view .LVU1237
 4723 0142 8AD1     		bne	.L279
 4724              	.L366:
 239:../../libDaisy//src/hid/disp/display.h ****         {
 4725              		.loc 3 239 19 is_stmt 0 view .LVU1238
 4726 0144 0123     		movs	r3, #1
 4727 0146 0993     		str	r3, [sp, #36]
 4728 0148 B2E7     		b	.L278
 4729              	.LVL336:
 4730              	.L285:
 239:../../libDaisy//src/hid/disp/display.h ****         {
 4731              		.loc 3 239 19 view .LVU1239
 4732              	.LBE1171:
 4733              	.LBE1204:
 4734              	.LBB1205:
 4735              	.LBB1201:
 231:../../libDaisy//src/hid/disp/display.h ****         int_fast16_t error2;
 4736              		.loc 3 231 22 view .LVU1240
 4737 014a 059B     		ldr	r3, [sp, #20]
 4738              	.LVL337:
 4739              	.LBB1192:
 4740              	.LBB1187:
 4741              	.LBB1182:
 354:../../libDaisy//src/dev/oled_ssd130x.h ****             return;
 4742              		.loc 4 354 9 view .LVU1241
 4743 014c 0699     		ldr	r1, [sp, #24]
 4744              	.LBE1182:
 4745              	.LBE1187:
 4746              	.LBE1192:
 231:../../libDaisy//src/hid/disp/display.h ****         int_fast16_t error2;
 4747              		.loc 3 231 22 view .LVU1242
 4748 014e C3F1000A 		rsb	r10, r3, #0
 4749              	.LVL338:
 4750              	.LBB1193:
  42:../../libDaisy//src/hid/disp/oled_display.h ****     {
 4751              		.loc 1 42 10 is_stmt 1 view .LVU1243
 4752              	.LBB1188:
 352:../../libDaisy//src/dev/oled_ssd130x.h ****     {
 4753              		.loc 4 352 10 view .LVU1244
 4754              	.LBB1183:
 354:../../libDaisy//src/dev/oled_ssd130x.h ****             return;
 4755              		.loc 4 354 28 is_stmt 0 view .LVU1245
 4756 0152 049B     		ldr	r3, [sp, #16]
ARM GAS  /var/folders/1y/_321xjh9623c014x9_qw12rr0000gn/T//ccXZVGQV.s 			page 155


 4757 0154 3F2B     		cmp	r3, #63
 4758 0156 94BF     		ite	ls
 4759 0158 0023     		movls	r3, #0
 4760 015a 0123     		movhi	r3, #1
 4761 015c 0793     		str	r3, [sp, #28]
 354:../../libDaisy//src/dev/oled_ssd130x.h ****             return;
 4762              		.loc 4 354 9 view .LVU1246
 4763 015e 0029     		cmp	r1, #0
 4764 0160 40F0B281 		bne	.L328
 4765 0164 002B     		cmp	r3, #0
 4766 0166 40F0AF81 		bne	.L328
 4767              	.LBE1183:
 4768              	.LBE1188:
 4769              	.LBE1193:
 230:../../libDaisy//src/hid/disp/display.h ****         int_fast16_t error  = deltaX - deltaY;
 4770              		.loc 3 230 42 view .LVU1247
 4771 016a 0123     		movs	r3, #1
 4772 016c 0693     		str	r3, [sp, #24]
 4773              	.LVL339:
 4774              	.L318:
 4775              	.LBB1194:
 4776              	.LBB1189:
 4777              	.LBB1184:
 357:../../libDaisy//src/dev/oled_ssd130x.h ****         else
 4778              		.loc 4 357 28 view .LVU1248
 4779 016e 0499     		ldr	r1, [sp, #16]
 357:../../libDaisy//src/dev/oled_ssd130x.h ****         else
 4780              		.loc 4 357 48 view .LVU1249
 4781 0170 4FF0010C 		mov	ip, #1
 357:../../libDaisy//src/dev/oled_ssd130x.h ****         else
 4782              		.loc 4 357 28 view .LVU1250
 4783 0174 CB08     		lsrs	r3, r1, #3
 357:../../libDaisy//src/dev/oled_ssd130x.h ****         else
 4784              		.loc 4 357 54 view .LVU1251
 4785 0176 01F00701 		and	r1, r1, #7
 357:../../libDaisy//src/dev/oled_ssd130x.h ****         else
 4786              		.loc 4 357 42 view .LVU1252
 4787 017a 06EBC313 		add	r3, r6, r3, lsl #7
 357:../../libDaisy//src/dev/oled_ssd130x.h ****         else
 4788              		.loc 4 357 48 view .LVU1253
 4789 017e 0CFA01F1 		lsl	r1, ip, r1
 357:../../libDaisy//src/dev/oled_ssd130x.h ****         else
 4790              		.loc 4 357 42 view .LVU1254
 4791 0182 2344     		add	r3, r3, r4
 4792 0184 93F8C0C4 		ldrb	ip, [r3, #1216]	@ zero_extendqisi2
 4793 0188 41EA0C01 		orr	r1, r1, ip
 4794 018c 83F8C014 		strb	r1, [r3, #1216]
 4795 0190 0023     		movs	r3, #0
 4796 0192 0793     		str	r3, [sp, #28]
 4797              	.LVL340:
 357:../../libDaisy//src/dev/oled_ssd130x.h ****         else
 4798              		.loc 4 357 42 view .LVU1255
 4799              	.LBE1184:
 4800              	.LBE1189:
 4801              	.LBE1194:
 239:../../libDaisy//src/hid/disp/display.h ****         {
 4802              		.loc 3 239 26 is_stmt 1 view .LVU1256
ARM GAS  /var/folders/1y/_321xjh9623c014x9_qw12rr0000gn/T//ccXZVGQV.s 			page 156


 4803 0194 DDE90331 		ldrd	r3, r1, [sp, #12]
 4804 0198 8B42     		cmp	r3, r1
 4805 019a 00F0A081 		beq	.L367
 4806              	.L288:
 4807              	.LVL341:
 230:../../libDaisy//src/hid/disp/display.h ****         int_fast16_t error  = deltaX - deltaY;
 4808              		.loc 3 230 42 is_stmt 0 view .LVU1257
 4809 019e D646     		mov	lr, r10
 4810              	.LBE1201:
 4811              	.LBE1205:
 4812              	.LBE1236:
 219:Dubby.cpp     ****     display.DrawRect(menuBoxBounding[0][0], menuBoxBounding[0][1], menuBoxBounding[0][2], menuBoxBo
 4813              		.loc 2 219 21 view .LVU1258
 4814 01a0 0399     		ldr	r1, [sp, #12]
 4815 01a2 B446     		mov	ip, r6
 4816              	.L290:
 4817              	.LVL342:
 4818              	.LBB1237:
 4819              	.LBB1206:
 4820              	.LBB1202:
 4821              	.LBB1195:
 4822              	.LBI1195:
  42:../../libDaisy//src/hid/disp/oled_display.h ****     {
 4823              		.loc 1 42 10 is_stmt 1 view .LVU1259
 4824              	.LBB1196:
 4825              	.LBI1196:
 352:../../libDaisy//src/dev/oled_ssd130x.h ****     {
 4826              		.loc 4 352 10 view .LVU1260
 4827              	.LBB1197:
 357:../../libDaisy//src/dev/oled_ssd130x.h ****         else
 4828              		.loc 4 357 48 is_stmt 0 view .LVU1261
 4829 01a4 4FF0010B 		mov	fp, #1
 357:../../libDaisy//src/dev/oled_ssd130x.h ****         else
 4830              		.loc 4 357 28 view .LVU1262
 4831 01a8 CB08     		lsrs	r3, r1, #3
 357:../../libDaisy//src/dev/oled_ssd130x.h ****         else
 4832              		.loc 4 357 54 view .LVU1263
 4833 01aa 01F00708 		and	r8, r1, #7
 354:../../libDaisy//src/dev/oled_ssd130x.h ****             return;
 4834              		.loc 4 354 9 view .LVU1264
 4835 01ae BCF17F0F 		cmp	ip, #127
 357:../../libDaisy//src/dev/oled_ssd130x.h ****         else
 4836              		.loc 4 357 42 view .LVU1265
 4837 01b2 0CEBC313 		add	r3, ip, r3, lsl #7
 4838              	.LBE1197:
 4839              	.LBE1196:
 4840              	.LBE1195:
 242:../../libDaisy//src/hid/disp/display.h ****             if(error2 > -deltaY)
 4841              		.loc 3 242 20 view .LVU1266
 4842 01b6 0EFA0BF9 		lsl	r9, lr, fp
 4843              	.LVL343:
 4844              	.LBB1200:
 4845              	.LBB1199:
 4846              	.LBB1198:
 357:../../libDaisy//src/dev/oled_ssd130x.h ****         else
 4847              		.loc 4 357 48 view .LVU1267
 4848 01ba 0BFA08F8 		lsl	r8, fp, r8
ARM GAS  /var/folders/1y/_321xjh9623c014x9_qw12rr0000gn/T//ccXZVGQV.s 			page 157


 354:../../libDaisy//src/dev/oled_ssd130x.h ****             return;
 4849              		.loc 4 354 9 view .LVU1268
 4850 01be 08D8     		bhi	.L291
 4851 01c0 3F29     		cmp	r1, #63
 357:../../libDaisy//src/dev/oled_ssd130x.h ****         else
 4852              		.loc 4 357 42 view .LVU1269
 4853 01c2 2344     		add	r3, r3, r4
 354:../../libDaisy//src/dev/oled_ssd130x.h ****             return;
 4854              		.loc 4 354 9 view .LVU1270
 4855 01c4 05D8     		bhi	.L291
 357:../../libDaisy//src/dev/oled_ssd130x.h ****         else
 4856              		.loc 4 357 42 view .LVU1271
 4857 01c6 93F8C0B4 		ldrb	fp, [r3, #1216]	@ zero_extendqisi2
 4858 01ca 48EA0B08 		orr	r8, r8, fp
 4859 01ce 83F8C084 		strb	r8, [r3, #1216]
 4860              	.L291:
 357:../../libDaisy//src/dev/oled_ssd130x.h ****         else
 4861              		.loc 4 357 42 view .LVU1272
 4862              	.LBE1198:
 4863              	.LBE1199:
 4864              	.LBE1200:
 243:../../libDaisy//src/hid/disp/display.h ****             {
 4865              		.loc 3 243 13 view .LVU1273
 4866 01d2 BAEB4E0F 		cmp	r10, lr, lsl #1
 4867 01d6 04DA     		bge	.L292
 245:../../libDaisy//src/hid/disp/display.h ****                 x1 += signX;
 4868              		.loc 3 245 23 view .LVU1274
 4869 01d8 059B     		ldr	r3, [sp, #20]
 246:../../libDaisy//src/hid/disp/display.h ****             }
 4870              		.loc 3 246 20 view .LVU1275
 4871 01da 0CF1FF3C 		add	ip, ip, #-1
 4872              	.LVL344:
 245:../../libDaisy//src/hid/disp/display.h ****                 x1 += signX;
 4873              		.loc 3 245 23 view .LVU1276
 4874 01de AEEB030E 		sub	lr, lr, r3
 4875              	.LVL345:
 4876              	.L292:
 249:../../libDaisy//src/hid/disp/display.h ****             {
 4877              		.loc 3 249 13 view .LVU1277
 4878 01e2 B9F1000F 		cmp	r9, #0
 4879 01e6 01D0     		beq	.L293
 252:../../libDaisy//src/hid/disp/display.h ****             }
 4880              		.loc 3 252 20 view .LVU1278
 4881 01e8 069B     		ldr	r3, [sp, #24]
 4882 01ea 1944     		add	r1, r1, r3
 4883              	.LVL346:
 4884              	.L293:
 239:../../libDaisy//src/hid/disp/display.h ****         {
 4885              		.loc 3 239 26 is_stmt 1 view .LVU1279
 4886 01ec 6645     		cmp	r6, ip
 4887 01ee D9D1     		bne	.L290
 239:../../libDaisy//src/hid/disp/display.h ****         {
 4888              		.loc 3 239 26 is_stmt 0 view .LVU1280
 4889 01f0 049B     		ldr	r3, [sp, #16]
 4890 01f2 8B42     		cmp	r3, r1
 4891 01f4 D6D1     		bne	.L290
 4892 01f6 4FF0000B 		mov	fp, #0
ARM GAS  /var/folders/1y/_321xjh9623c014x9_qw12rr0000gn/T//ccXZVGQV.s 			page 158


 4893              	.LVL347:
 4894              	.L287:
 239:../../libDaisy//src/hid/disp/display.h ****         {
 4895              		.loc 3 239 26 view .LVU1281
 4896              	.LBE1202:
 4897              	.LBE1206:
 4898              	.LBB1207:
 4899              	.LBI1207:
 221:../../libDaisy//src/hid/disp/display.h ****                   uint_fast8_t y1,
 4900              		.loc 3 221 10 is_stmt 1 view .LVU1282
 4901              	.LBB1208:
 227:../../libDaisy//src/hid/disp/display.h ****         int_fast16_t deltaY = abs((int_fast16_t)y2 - (int_fast16_t)y1);
 4902              		.loc 3 227 52 is_stmt 0 view .LVU1283
 4903 01fa A7EB0608 		sub	r8, r7, r6
 229:../../libDaisy//src/hid/disp/display.h ****         int_fast16_t signY  = ((y1 < y2) ? 1 : -1);
 4904              		.loc 3 229 42 view .LVU1284
 4905 01fe B742     		cmp	r7, r6
 4906 0200 8CBF     		ite	hi
 4907 0202 0126     		movhi	r6, #1
 4908 0204 4FF0FF36 		movls	r6, #-1
 4909              	.LBB1209:
 4910              	.LBB1210:
 4911              	.LBB1211:
 354:../../libDaisy//src/dev/oled_ssd130x.h ****             return;
 4912              		.loc 4 354 9 view .LVU1285
 4913 0208 079B     		ldr	r3, [sp, #28]
 4914              	.LBE1211:
 4915              	.LBE1210:
 4916              	.LBE1209:
 227:../../libDaisy//src/hid/disp/display.h ****         int_fast16_t deltaY = abs((int_fast16_t)y2 - (int_fast16_t)y1);
 4917              		.loc 3 227 22 view .LVU1286
 4918 020a B8F1000F 		cmp	r8, #0
 4919 020e B8BF     		it	lt
 4920 0210 C8F10008 		rsblt	r8, r8, #0
 4921              	.LVL348:
 4922              	.LBB1214:
 4923              	.LBI1209:
  42:../../libDaisy//src/hid/disp/oled_display.h ****     {
 4924              		.loc 1 42 10 is_stmt 1 view .LVU1287
 4925              	.LBB1213:
 4926              	.LBI1210:
 352:../../libDaisy//src/dev/oled_ssd130x.h ****     {
 4927              		.loc 4 352 10 view .LVU1288
 4928              	.LBB1212:
 354:../../libDaisy//src/dev/oled_ssd130x.h ****             return;
 4929              		.loc 4 354 14 is_stmt 0 view .LVU1289
 4930 0214 7F2F     		cmp	r7, #127
 4931 0216 94BF     		ite	ls
 4932 0218 4FF0000A 		movls	r10, #0
 4933 021c 4FF0010A 		movhi	r10, #1
 354:../../libDaisy//src/dev/oled_ssd130x.h ****             return;
 4934              		.loc 4 354 9 view .LVU1290
 4935 0220 9BB9     		cbnz	r3, .L295
 4936 0222 BAF1000F 		cmp	r10, #0
 4937 0226 10D1     		bne	.L295
 357:../../libDaisy//src/dev/oled_ssd130x.h ****         else
 4938              		.loc 4 357 28 view .LVU1291
ARM GAS  /var/folders/1y/_321xjh9623c014x9_qw12rr0000gn/T//ccXZVGQV.s 			page 159


 4939 0228 0499     		ldr	r1, [sp, #16]
 357:../../libDaisy//src/dev/oled_ssd130x.h ****         else
 4940              		.loc 4 357 48 view .LVU1292
 4941 022a 4FF0010C 		mov	ip, #1
 357:../../libDaisy//src/dev/oled_ssd130x.h ****         else
 4942              		.loc 4 357 28 view .LVU1293
 4943 022e CB08     		lsrs	r3, r1, #3
 357:../../libDaisy//src/dev/oled_ssd130x.h ****         else
 4944              		.loc 4 357 54 view .LVU1294
 4945 0230 01F00701 		and	r1, r1, #7
 357:../../libDaisy//src/dev/oled_ssd130x.h ****         else
 4946              		.loc 4 357 42 view .LVU1295
 4947 0234 07EBC313 		add	r3, r7, r3, lsl #7
 357:../../libDaisy//src/dev/oled_ssd130x.h ****         else
 4948              		.loc 4 357 48 view .LVU1296
 4949 0238 0CFA01F1 		lsl	r1, ip, r1
 357:../../libDaisy//src/dev/oled_ssd130x.h ****         else
 4950              		.loc 4 357 42 view .LVU1297
 4951 023c 2344     		add	r3, r3, r4
 4952 023e 93F8C0C4 		ldrb	ip, [r3, #1216]	@ zero_extendqisi2
 4953 0242 41EA0C01 		orr	r1, r1, ip
 4954 0246 83F8C014 		strb	r1, [r3, #1216]
 4955              	.L295:
 4956              	.LVL349:
 357:../../libDaisy//src/dev/oled_ssd130x.h ****         else
 4957              		.loc 4 357 42 view .LVU1298
 4958              	.LBE1212:
 4959              	.LBE1213:
 4960              	.LBE1214:
 239:../../libDaisy//src/hid/disp/display.h ****         {
 4961              		.loc 3 239 26 is_stmt 1 view .LVU1299
 4962 024a 099B     		ldr	r3, [sp, #36]
 4963 024c 33BB     		cbnz	r3, .L296
 227:../../libDaisy//src/hid/disp/display.h ****         int_fast16_t deltaY = abs((int_fast16_t)y2 - (int_fast16_t)y1);
 4964              		.loc 3 227 22 is_stmt 0 view .LVU1300
 4965 024e C646     		mov	lr, r8
 4966              	.LBE1208:
 4967              	.LBE1207:
 4968              	.LBE1237:
 219:Dubby.cpp     ****     display.DrawRect(menuBoxBounding[0][0], menuBoxBounding[0][1], menuBoxBounding[0][2], menuBoxBo
 4969              		.loc 2 219 21 view .LVU1301
 4970 0250 DDF810C0 		ldr	ip, [sp, #16]
 4971              	.LVL350:
 4972              	.L297:
 4973              	.LBB1238:
 4974              	.LBB1219:
 4975              	.LBB1218:
 4976              	.LBB1215:
 4977              	.LBI1215:
  42:../../libDaisy//src/hid/disp/oled_display.h ****     {
 4978              		.loc 1 42 10 is_stmt 1 view .LVU1302
 4979              	.LBB1216:
 4980              	.LBI1216:
 352:../../libDaisy//src/dev/oled_ssd130x.h ****     {
 4981              		.loc 4 352 10 view .LVU1303
 4982              	.LBB1217:
 357:../../libDaisy//src/dev/oled_ssd130x.h ****         else
ARM GAS  /var/folders/1y/_321xjh9623c014x9_qw12rr0000gn/T//ccXZVGQV.s 			page 160


 4983              		.loc 4 357 28 is_stmt 0 view .LVU1304
 4984 0254 4FEADC03 		lsr	r3, ip, #3
 357:../../libDaisy//src/dev/oled_ssd130x.h ****         else
 4985              		.loc 4 357 54 view .LVU1305
 4986 0258 0CF00701 		and	r1, ip, #7
 357:../../libDaisy//src/dev/oled_ssd130x.h ****         else
 4987              		.loc 4 357 48 view .LVU1306
 4988 025c 4FF00109 		mov	r9, #1
 354:../../libDaisy//src/dev/oled_ssd130x.h ****             return;
 4989              		.loc 4 354 9 view .LVU1307
 4990 0260 7F28     		cmp	r0, #127
 357:../../libDaisy//src/dev/oled_ssd130x.h ****         else
 4991              		.loc 4 357 42 view .LVU1308
 4992 0262 00EBC313 		add	r3, r0, r3, lsl #7
 357:../../libDaisy//src/dev/oled_ssd130x.h ****         else
 4993              		.loc 4 357 48 view .LVU1309
 4994 0266 09FA01F1 		lsl	r1, r9, r1
 354:../../libDaisy//src/dev/oled_ssd130x.h ****             return;
 4995              		.loc 4 354 9 view .LVU1310
 4996 026a 09D8     		bhi	.L299
 354:../../libDaisy//src/dev/oled_ssd130x.h ****             return;
 4997              		.loc 4 354 9 view .LVU1311
 4998 026c BCF13F0F 		cmp	ip, #63
 357:../../libDaisy//src/dev/oled_ssd130x.h ****         else
 4999              		.loc 4 357 42 view .LVU1312
 5000 0270 2344     		add	r3, r3, r4
 354:../../libDaisy//src/dev/oled_ssd130x.h ****             return;
 5001              		.loc 4 354 9 view .LVU1313
 5002 0272 05D8     		bhi	.L299
 357:../../libDaisy//src/dev/oled_ssd130x.h ****         else
 5003              		.loc 4 357 42 view .LVU1314
 5004 0274 93F8C094 		ldrb	r9, [r3, #1216]	@ zero_extendqisi2
 5005 0278 41EA0901 		orr	r1, r1, r9
 5006 027c 83F8C014 		strb	r1, [r3, #1216]
 5007              	.L299:
 357:../../libDaisy//src/dev/oled_ssd130x.h ****         else
 5008              		.loc 4 357 42 view .LVU1315
 5009              	.LBE1217:
 5010              	.LBE1216:
 5011              	.LBE1215:
 243:../../libDaisy//src/hid/disp/display.h ****             {
 5012              		.loc 3 243 13 view .LVU1316
 5013 0280 5FEA4E03 		lsls	r3, lr, #1
 246:../../libDaisy//src/hid/disp/display.h ****             }
 5014              		.loc 3 246 20 view .LVU1317
 5015 0284 18BF     		it	ne
 5016 0286 8019     		addne	r0, r0, r6
 5017              	.LVL351:
 249:../../libDaisy//src/hid/disp/display.h ****             {
 5018              		.loc 3 249 13 view .LVU1318
 5019 0288 9845     		cmp	r8, r3
 5020 028a 02DD     		ble	.L301
 251:../../libDaisy//src/hid/disp/display.h ****                 y1 += signY;
 5021              		.loc 3 251 23 view .LVU1319
 5022 028c C644     		add	lr, lr, r8
 5023              	.LVL352:
 252:../../libDaisy//src/hid/disp/display.h ****             }
ARM GAS  /var/folders/1y/_321xjh9623c014x9_qw12rr0000gn/T//ccXZVGQV.s 			page 161


 5024              		.loc 3 252 20 view .LVU1320
 5025 028e 0CF1FF3C 		add	ip, ip, #-1
 5026              	.LVL353:
 5027              	.L301:
 239:../../libDaisy//src/hid/disp/display.h ****         {
 5028              		.loc 3 239 26 is_stmt 1 view .LVU1321
 5029 0292 8742     		cmp	r7, r0
 5030 0294 DED1     		bne	.L297
 239:../../libDaisy//src/hid/disp/display.h ****         {
 5031              		.loc 3 239 26 is_stmt 0 view .LVU1322
 5032 0296 049B     		ldr	r3, [sp, #16]
 5033 0298 6345     		cmp	r3, ip
 5034 029a DBD1     		bne	.L297
 5035              	.LVL354:
 5036              	.L296:
 239:../../libDaisy//src/hid/disp/display.h ****         {
 5037              		.loc 3 239 26 view .LVU1323
 5038              	.LBE1218:
 5039              	.LBE1219:
 5040              	.LBB1220:
 5041              	.LBI1220:
 221:../../libDaisy//src/hid/disp/display.h ****                   uint_fast8_t y1,
 5042              		.loc 3 221 10 is_stmt 1 view .LVU1324
 5043              	.LBB1221:
 228:../../libDaisy//src/hid/disp/display.h ****         int_fast16_t signX  = ((x1 < x2) ? 1 : -1);
 5044              		.loc 3 228 52 is_stmt 0 view .LVU1325
 5045 029c DDE90331 		ldrd	r3, r1, [sp, #12]
 5046 02a0 A3EB010E 		sub	lr, r3, r1
 230:../../libDaisy//src/hid/disp/display.h ****         int_fast16_t error  = deltaX - deltaY;
 5047              		.loc 3 230 42 view .LVU1326
 5048 02a4 8B42     		cmp	r3, r1
 5049 02a6 8CBF     		ite	hi
 5050 02a8 4FF00108 		movhi	r8, #1
 5051 02ac 4FF0FF38 		movls	r8, #-1
 228:../../libDaisy//src/hid/disp/display.h ****         int_fast16_t signX  = ((x1 < x2) ? 1 : -1);
 5052              		.loc 3 228 22 view .LVU1327
 5053 02b0 BEF1000F 		cmp	lr, #0
 5054 02b4 B8BF     		it	lt
 5055 02b6 CEF1000E 		rsblt	lr, lr, #0
 5056              	.LVL355:
 231:../../libDaisy//src/hid/disp/display.h ****         int_fast16_t error2;
 5057              		.loc 3 231 22 view .LVU1328
 5058 02ba CEF1000C 		rsb	ip, lr, #0
 5059              	.LVL356:
 5060              	.LBB1222:
 5061              	.LBI1222:
  42:../../libDaisy//src/hid/disp/oled_display.h ****     {
 5062              		.loc 1 42 10 is_stmt 1 view .LVU1329
 5063              	.LBB1223:
 5064              	.LBI1223:
 352:../../libDaisy//src/dev/oled_ssd130x.h ****     {
 5065              		.loc 4 352 10 view .LVU1330
 5066              	.LBB1224:
 354:../../libDaisy//src/dev/oled_ssd130x.h ****             return;
 5067              		.loc 4 354 9 is_stmt 0 view .LVU1331
 5068 02be BAF1000F 		cmp	r10, #0
 5069 02c2 0FD1     		bne	.L303
ARM GAS  /var/folders/1y/_321xjh9623c014x9_qw12rr0000gn/T//ccXZVGQV.s 			page 162


 5070 02c4 0899     		ldr	r1, [sp, #32]
 5071 02c6 69B9     		cbnz	r1, .L303
 357:../../libDaisy//src/dev/oled_ssd130x.h ****         else
 5072              		.loc 4 357 28 view .LVU1332
 5073 02c8 1946     		mov	r1, r3
 5074 02ca DB08     		lsrs	r3, r3, #3
 357:../../libDaisy//src/dev/oled_ssd130x.h ****         else
 5075              		.loc 4 357 42 view .LVU1333
 5076 02cc 07EBC313 		add	r3, r7, r3, lsl #7
 357:../../libDaisy//src/dev/oled_ssd130x.h ****         else
 5077              		.loc 4 357 54 view .LVU1334
 5078 02d0 01F00700 		and	r0, r1, #7
 357:../../libDaisy//src/dev/oled_ssd130x.h ****         else
 5079              		.loc 4 357 48 view .LVU1335
 5080 02d4 0121     		movs	r1, #1
 357:../../libDaisy//src/dev/oled_ssd130x.h ****         else
 5081              		.loc 4 357 42 view .LVU1336
 5082 02d6 2344     		add	r3, r3, r4
 357:../../libDaisy//src/dev/oled_ssd130x.h ****         else
 5083              		.loc 4 357 48 view .LVU1337
 5084 02d8 8140     		lsls	r1, r1, r0
 357:../../libDaisy//src/dev/oled_ssd130x.h ****         else
 5085              		.loc 4 357 42 view .LVU1338
 5086 02da 93F8C004 		ldrb	r0, [r3, #1216]	@ zero_extendqisi2
 5087 02de 0143     		orrs	r1, r1, r0
 5088 02e0 83F8C014 		strb	r1, [r3, #1216]
 5089              	.L303:
 5090              	.LVL357:
 357:../../libDaisy//src/dev/oled_ssd130x.h ****         else
 5091              		.loc 4 357 42 view .LVU1339
 5092              	.LBE1224:
 5093              	.LBE1223:
 5094              	.LBE1222:
 239:../../libDaisy//src/hid/disp/display.h ****         {
 5095              		.loc 3 239 26 is_stmt 1 view .LVU1340
 5096 02e4 BBF1000F 		cmp	fp, #0
 5097 02e8 25D1     		bne	.L304
 5098 02ea 6046     		mov	r0, ip
 5099              	.LBE1221:
 5100              	.LBE1220:
 5101              	.LBE1238:
 219:Dubby.cpp     ****     display.DrawRect(menuBoxBounding[0][0], menuBoxBounding[0][1], menuBoxBounding[0][2], menuBoxBo
 5102              		.loc 2 219 21 is_stmt 0 view .LVU1341
 5103 02ec 3946     		mov	r1, r7
 5104              	.LVL358:
 5105              	.L305:
 5106              	.LBB1239:
 5107              	.LBB1232:
 5108              	.LBB1231:
 5109              	.LBB1225:
 5110              	.LBI1225:
  42:../../libDaisy//src/hid/disp/oled_display.h ****     {
 5111              		.loc 1 42 10 is_stmt 1 view .LVU1342
 5112              	.LBB1226:
 5113              	.LBI1226:
 352:../../libDaisy//src/dev/oled_ssd130x.h ****     {
 5114              		.loc 4 352 10 view .LVU1343
ARM GAS  /var/folders/1y/_321xjh9623c014x9_qw12rr0000gn/T//ccXZVGQV.s 			page 163


 5115              	.LBB1227:
 357:../../libDaisy//src/dev/oled_ssd130x.h ****         else
 5116              		.loc 4 357 48 is_stmt 0 view .LVU1344
 5117 02ee 0126     		movs	r6, #1
 357:../../libDaisy//src/dev/oled_ssd130x.h ****         else
 5118              		.loc 4 357 28 view .LVU1345
 5119 02f0 D308     		lsrs	r3, r2, #3
 357:../../libDaisy//src/dev/oled_ssd130x.h ****         else
 5120              		.loc 4 357 54 view .LVU1346
 5121 02f2 02F0070A 		and	r10, r2, #7
 354:../../libDaisy//src/dev/oled_ssd130x.h ****             return;
 5122              		.loc 4 354 9 view .LVU1347
 5123 02f6 7F29     		cmp	r1, #127
 5124              	.LBE1227:
 5125              	.LBE1226:
 5126              	.LBE1225:
 242:../../libDaisy//src/hid/disp/display.h ****             if(error2 > -deltaY)
 5127              		.loc 3 242 20 view .LVU1348
 5128 02f8 00FA06F9 		lsl	r9, r0, r6
 5129              	.LVL359:
 5130              	.LBB1230:
 5131              	.LBB1229:
 5132              	.LBB1228:
 357:../../libDaisy//src/dev/oled_ssd130x.h ****         else
 5133              		.loc 4 357 42 view .LVU1349
 5134 02fc 01EBC313 		add	r3, r1, r3, lsl #7
 357:../../libDaisy//src/dev/oled_ssd130x.h ****         else
 5135              		.loc 4 357 48 view .LVU1350
 5136 0300 06FA0AF6 		lsl	r6, r6, r10
 354:../../libDaisy//src/dev/oled_ssd130x.h ****             return;
 5137              		.loc 4 354 9 view .LVU1351
 5138 0304 08D8     		bhi	.L307
 354:../../libDaisy//src/dev/oled_ssd130x.h ****             return;
 5139              		.loc 4 354 9 view .LVU1352
 5140 0306 3F2A     		cmp	r2, #63
 357:../../libDaisy//src/dev/oled_ssd130x.h ****         else
 5141              		.loc 4 357 42 view .LVU1353
 5142 0308 2344     		add	r3, r3, r4
 354:../../libDaisy//src/dev/oled_ssd130x.h ****             return;
 5143              		.loc 4 354 9 view .LVU1354
 5144 030a 05D8     		bhi	.L307
 357:../../libDaisy//src/dev/oled_ssd130x.h ****         else
 5145              		.loc 4 357 42 view .LVU1355
 5146 030c 93F8C0A4 		ldrb	r10, [r3, #1216]	@ zero_extendqisi2
 5147 0310 46EA0A06 		orr	r6, r6, r10
 5148 0314 83F8C064 		strb	r6, [r3, #1216]
 5149              	.L307:
 357:../../libDaisy//src/dev/oled_ssd130x.h ****         else
 5150              		.loc 4 357 42 view .LVU1356
 5151              	.LBE1228:
 5152              	.LBE1229:
 5153              	.LBE1230:
 243:../../libDaisy//src/hid/disp/display.h ****             {
 5154              		.loc 3 243 13 view .LVU1357
 5155 0318 BCEB400F 		cmp	ip, r0, lsl #1
 5156 031c 02DA     		bge	.L308
 246:../../libDaisy//src/hid/disp/display.h ****             }
ARM GAS  /var/folders/1y/_321xjh9623c014x9_qw12rr0000gn/T//ccXZVGQV.s 			page 164


 5157              		.loc 3 246 20 view .LVU1358
 5158 031e 0139     		subs	r1, r1, #1
 5159              	.LVL360:
 245:../../libDaisy//src/hid/disp/display.h ****                 x1 += signX;
 5160              		.loc 3 245 23 view .LVU1359
 5161 0320 A0EB0E00 		sub	r0, r0, lr
 5162              	.LVL361:
 5163              	.L308:
 249:../../libDaisy//src/hid/disp/display.h ****             {
 5164              		.loc 3 249 13 view .LVU1360
 5165 0324 B9F1000F 		cmp	r9, #0
 5166 0328 00D0     		beq	.L309
 252:../../libDaisy//src/hid/disp/display.h ****             }
 5167              		.loc 3 252 20 view .LVU1361
 5168 032a 4244     		add	r2, r2, r8
 5169              	.LVL362:
 5170              	.L309:
 239:../../libDaisy//src/hid/disp/display.h ****         {
 5171              		.loc 3 239 26 is_stmt 1 view .LVU1362
 5172 032c 8F42     		cmp	r7, r1
 5173 032e DED1     		bne	.L305
 239:../../libDaisy//src/hid/disp/display.h ****         {
 5174              		.loc 3 239 26 is_stmt 0 view .LVU1363
 5175 0330 039B     		ldr	r3, [sp, #12]
 5176 0332 9342     		cmp	r3, r2
 5177 0334 DBD1     		bne	.L305
 5178              	.LVL363:
 5179              	.L304:
 239:../../libDaisy//src/hid/disp/display.h ****         {
 5180              		.loc 3 239 26 view .LVU1364
 5181              	.LBE1231:
 5182              	.LBE1232:
 5183              	.LBE1239:
 219:Dubby.cpp     ****     display.DrawRect(menuBoxBounding[0][0], menuBoxBounding[0][1], menuBoxBounding[0][2], menuBoxBo
 5184              		.loc 2 219 21 view .LVU1365
 5185 0336 2746     		mov	r7, r4
 5186              	.LVL364:
 5187              	.LBB1240:
 221:Dubby.cpp     ****     for (int i = 0; i < 3; i++) 
 5188              		.loc 2 221 14 view .LVU1366
 5189 0338 0026     		movs	r6, #0
 5190 033a DFF8AC81 		ldr	r8, .L369+4
 5191              	.LVL365:
 221:Dubby.cpp     ****     for (int i = 0; i < 3; i++) 
 5192              		.loc 2 221 14 view .LVU1367
 5193 033e 17EE909A 		vmov	r9, s15	@ int
 5194              	.LVL366:
 5195              	.L311:
 5196              	.LBB1241:
 223:Dubby.cpp     ****         display.SetCursor(menuTextCursors[i][0], menuTextCursors[i][1]);
 5197              		.loc 2 223 9 is_stmt 1 view .LVU1368
 223:Dubby.cpp     ****         display.SetCursor(menuTextCursors[i][0], menuTextCursors[i][1]);
 5198              		.loc 2 223 26 is_stmt 0 view .LVU1369
 5199 0342 B7F86400 		ldrh	r0, [r7, #100]
 5200              	.LVL367:
 5201              	.LBB1242:
 5202              	.LBI1242:
ARM GAS  /var/folders/1y/_321xjh9623c014x9_qw12rr0000gn/T//ccXZVGQV.s 			page 165


 171:../../libDaisy//src/hid/disp/display.h ****     {
 5203              		.loc 3 171 10 is_stmt 1 view .LVU1370
 5204              	.LBB1243:
 173:../../libDaisy//src/hid/disp/display.h ****         currentY_ = (y >= Height()) ? Height() - 1 : y;
 5205              		.loc 3 173 9 view .LVU1371
 5206              	.LBE1243:
 5207              	.LBE1242:
 226:Dubby.cpp     ****          display.WriteString(GetTextForEnum(MAINMENU, currentText), Font_6x8, f_truncate/*, i == me
 5208              		.loc 2 226 29 is_stmt 0 view .LVU1372
 5209 0346 4FF0010C 		mov	ip, #1
 5210              	.LBB1250:
 5211              	.LBB1244:
 173:../../libDaisy//src/hid/disp/display.h ****         currentY_ = (y >= Height()) ? Height() - 1 : y;
 5212              		.loc 3 173 19 view .LVU1373
 5213 034a B7F86020 		ldrh	r2, [r7, #96]
 5214              	.LBE1244:
 5215              	.LBE1250:
 5216              	.LBE1241:
 221:Dubby.cpp     ****     for (int i = 0; i < 3; i++) 
 5217              		.loc 2 221 23 view .LVU1374
 5218 034e 0837     		adds	r7, r7, #8
 5219              	.LVL368:
 5220              	.LBB1258:
 5221              	.LBB1251:
 5222              	.LBB1245:
 174:../../libDaisy//src/hid/disp/display.h ****     }
 5223              		.loc 3 174 19 view .LVU1375
 5224 0350 3F28     		cmp	r0, #63
 5225              	.LBE1245:
 5226              	.LBE1251:
 224:Dubby.cpp     ****         int currentText = menuItemSelected + i < 3 ? menuItemSelected + i : (menuItemSelected + i) 
 5227              		.loc 2 224 27 view .LVU1376
 5228 0352 94F85C10 		ldrb	r1, [r4, #92]	@ zero_extendqisi2
 224:Dubby.cpp     ****         int currentText = menuItemSelected + i < 3 ? menuItemSelected + i : (menuItemSelected + i) 
 5229              		.loc 2 224 52 view .LVU1377
 5230 0356 634B     		ldr	r3, .L369
 5231              	.LBB1252:
 5232              	.LBB1246:
 174:../../libDaisy//src/hid/disp/display.h ****     }
 5233              		.loc 3 174 19 view .LVU1378
 5234 0358 28BF     		it	cs
 5235 035a 3F20     		movcs	r0, #63
 5236              	.LVL369:
 174:../../libDaisy//src/hid/disp/display.h ****     }
 5237              		.loc 3 174 19 view .LVU1379
 5238              	.LBE1246:
 5239              	.LBE1252:
 224:Dubby.cpp     ****         int currentText = menuItemSelected + i < 3 ? menuItemSelected + i : (menuItemSelected + i) 
 5240              		.loc 2 224 44 view .LVU1380
 5241 035c 3144     		add	r1, r1, r6
 5242              	.LBB1253:
 5243              	.LBB1247:
 173:../../libDaisy//src/hid/disp/display.h ****         currentY_ = (y >= Height()) ? Height() - 1 : y;
 5244              		.loc 3 173 19 view .LVU1381
 5245 035e 7F2A     		cmp	r2, #127
 5246              	.LBE1247:
 5247              	.LBE1253:
ARM GAS  /var/folders/1y/_321xjh9623c014x9_qw12rr0000gn/T//ccXZVGQV.s 			page 166


 5248              	.LBE1258:
 221:Dubby.cpp     ****     for (int i = 0; i < 3; i++) 
 5249              		.loc 2 221 5 view .LVU1382
 5250 0360 6644     		add	r6, r6, ip
 5251              	.LVL370:
 5252              	.LBB1259:
 5253              	.LBB1254:
 5254              	.LBB1248:
 174:../../libDaisy//src/hid/disp/display.h ****     }
 5255              		.loc 3 174 19 view .LVU1383
 5256 0362 A4F8B204 		strh	r0, [r4, #1202]	@ movhi
 5257              	.LVL371:
 173:../../libDaisy//src/hid/disp/display.h ****         currentY_ = (y >= Height()) ? Height() - 1 : y;
 5258              		.loc 3 173 19 view .LVU1384
 5259 0366 28BF     		it	cs
 5260 0368 7F22     		movcs	r2, #127
 5261              	.LVL372:
 173:../../libDaisy//src/hid/disp/display.h ****         currentY_ = (y >= Height()) ? Height() - 1 : y;
 5262              		.loc 3 173 19 view .LVU1385
 5263              	.LBE1248:
 5264              	.LBE1254:
 224:Dubby.cpp     ****         int currentText = menuItemSelected + i < 3 ? menuItemSelected + i : (menuItemSelected + i) 
 5265              		.loc 2 224 52 view .LVU1386
 5266 036a A3FB0103 		umull	r0, r3, r3, r1
 5267 036e 0229     		cmp	r1, #2
 5268              	.LBB1255:
 5269              	.LBB1249:
 173:../../libDaisy//src/hid/disp/display.h ****         currentY_ = (y >= Height()) ? Height() - 1 : y;
 5270              		.loc 3 173 19 view .LVU1387
 5271 0370 A4F8B024 		strh	r2, [r4, #1200]	@ movhi
 174:../../libDaisy//src/hid/disp/display.h ****     }
 5272              		.loc 3 174 9 is_stmt 1 view .LVU1388
 5273              	.LVL373:
 174:../../libDaisy//src/hid/disp/display.h ****     }
 5274              		.loc 3 174 9 is_stmt 0 view .LVU1389
 5275              	.LBE1249:
 5276              	.LBE1255:
 224:Dubby.cpp     ****         int currentText = menuItemSelected + i < 3 ? menuItemSelected + i : (menuItemSelected + i) 
 5277              		.loc 2 224 9 is_stmt 1 view .LVU1390
 224:Dubby.cpp     ****         int currentText = menuItemSelected + i < 3 ? menuItemSelected + i : (menuItemSelected + i) 
 5278              		.loc 2 224 52 is_stmt 0 view .LVU1391
 5279 0374 23F00102 		bic	r2, r3, #1
 5280 0378 02DD     		ble	.L310
 224:Dubby.cpp     ****         int currentText = menuItemSelected + i < 3 ? menuItemSelected + i : (menuItemSelected + i) 
 5281              		.loc 2 224 52 discriminator 2 view .LVU1392
 5282 037a 02EB5303 		add	r3, r2, r3, lsr #1
 5283 037e C91A     		subs	r1, r1, r3
 5284              	.L310:
 5285              	.LVL374:
 226:Dubby.cpp     ****          display.WriteString(GetTextForEnum(MAINMENU, currentText), Font_6x8, f_truncate/*, i == me
 5286              		.loc 2 226 10 is_stmt 1 discriminator 4 view .LVU1393
 5287              	.LBB1256:
 5288              	.LBI1256:
 463:Dubby.cpp     **** const char * Dubby::GetTextForEnum(MenuTypes m, int enumVal)
 5289              		.loc 2 463 14 discriminator 4 view .LVU1394
 5290              	.LBB1257:
 465:Dubby.cpp     ****     switch (m)
ARM GAS  /var/folders/1y/_321xjh9623c014x9_qw12rr0000gn/T//ccXZVGQV.s 			page 167


 5291              		.loc 2 465 5 discriminator 4 view .LVU1395
 467:Dubby.cpp     ****         case MAINMENU:
 5292              		.loc 2 467 9 discriminator 4 view .LVU1396
 468:Dubby.cpp     ****             return MenuItemsStrings[enumVal];
 5293              		.loc 2 468 13 discriminator 4 view .LVU1397
 468:Dubby.cpp     ****             return MenuItemsStrings[enumVal];
 5294              		.loc 2 468 13 is_stmt 0 discriminator 4 view .LVU1398
 5295              	.LBE1257:
 5296              	.LBE1256:
 226:Dubby.cpp     ****          display.WriteString(GetTextForEnum(MAINMENU, currentText), Font_6x8, f_truncate/*, i == me
 5297              		.loc 2 226 29 discriminator 4 view .LVU1399
 5298 0380 CDF800C0 		str	ip, [sp]
 5299 0384 4846     		mov	r0, r9
 5300 0386 54F82110 		ldr	r1, [r4, r1, lsl #2]
 5301              	.LVL375:
 226:Dubby.cpp     ****          display.WriteString(GetTextForEnum(MAINMENU, currentText), Font_6x8, f_truncate/*, i == me
 5302              		.loc 2 226 29 discriminator 4 view .LVU1400
 5303 038a 98E80C00 		ldm	r8, {r2, r3}
 5304 038e FFF7FEFF 		bl	_ZN5daisy25OneBitGraphicsDisplayImplINS_11OledDisplayINS_13SSD130xDriverILj128ELj64ENS_24SSD130
 5305              	.LVL376:
 5306              	.LBE1259:
 221:Dubby.cpp     ****     for (int i = 0; i < 3; i++) 
 5307              		.loc 2 221 5 is_stmt 1 discriminator 4 view .LVU1401
 221:Dubby.cpp     ****     for (int i = 0; i < 3; i++) 
 5308              		.loc 2 221 23 discriminator 4 view .LVU1402
 5309 0392 032E     		cmp	r6, #3
 5310 0394 D5D1     		bne	.L311
 5311              	.LBE1240:
 229:Dubby.cpp     ****     display.DrawRect(PANE_X_START - 1, PANE_Y_START - 1, PANE_X_END + 1, PANE_Y_END + 1, true);
 5312              		.loc 2 229 5 view .LVU1403
 5313              	.LVL377:
 5314              	.LBB1260:
 5315              	.LBI1260:
 257:../../libDaisy//src/hid/disp/display.h ****                   uint_fast8_t y1,
 5316              		.loc 3 257 10 view .LVU1404
 5317              	.LBB1261:
 5318              	.LBI1261:
 221:../../libDaisy//src/hid/disp/display.h ****                   uint_fast8_t y1,
 5319              		.loc 3 221 10 view .LVU1405
 5320              	.LBB1262:
 5321              	.LBB1263:
 5322              	.LBI1263:
  42:../../libDaisy//src/hid/disp/oled_display.h ****     {
 5323              		.loc 1 42 10 view .LVU1406
 5324              	.LBB1264:
 5325              	.LBI1264:
 352:../../libDaisy//src/dev/oled_ssd130x.h ****     {
 5326              		.loc 4 352 10 view .LVU1407
 5327              	.LBB1265:
 357:../../libDaisy//src/dev/oled_ssd130x.h ****         else
 5328              		.loc 4 357 42 is_stmt 0 view .LVU1408
 5329 0396 94F83F25 		ldrb	r2, [r4, #1343]	@ zero_extendqisi2
 5330 039a 04F2BF43 		addw	r3, r4, #1215
 5331 039e 04F23E51 		addw	r1, r4, #1342
 5332 03a2 42F00102 		orr	r2, r2, #1
 5333 03a6 84F83F25 		strb	r2, [r4, #1343]
 5334              	.LVL378:
ARM GAS  /var/folders/1y/_321xjh9623c014x9_qw12rr0000gn/T//ccXZVGQV.s 			page 168


 357:../../libDaisy//src/dev/oled_ssd130x.h ****         else
 5335              		.loc 4 357 42 view .LVU1409
 5336              	.LBE1265:
 5337              	.LBE1264:
 5338              	.LBE1263:
 239:../../libDaisy//src/hid/disp/display.h ****         {
 5339              		.loc 3 239 26 is_stmt 1 view .LVU1410
 5340              	.L312:
 5341              	.LBB1266:
 5342              	.LBI1266:
  42:../../libDaisy//src/hid/disp/oled_display.h ****     {
 5343              		.loc 1 42 10 view .LVU1411
 5344              	.LBB1267:
 5345              	.LBI1267:
 352:../../libDaisy//src/dev/oled_ssd130x.h ****     {
 5346              		.loc 4 352 10 view .LVU1412
 5347              	.LBB1268:
 357:../../libDaisy//src/dev/oled_ssd130x.h ****         else
 5348              		.loc 4 357 42 is_stmt 0 view .LVU1413
 5349 03aa 13F8012F 		ldrb	r2, [r3, #1]!	@ zero_extendqisi2
 5350              	.LVL379:
 357:../../libDaisy//src/dev/oled_ssd130x.h ****         else
 5351              		.loc 4 357 42 view .LVU1414
 5352 03ae 42F00102 		orr	r2, r2, #1
 5353              	.LBE1268:
 5354              	.LBE1267:
 5355              	.LBE1266:
 239:../../libDaisy//src/hid/disp/display.h ****         {
 5356              		.loc 3 239 26 view .LVU1415
 5357 03b2 9942     		cmp	r1, r3
 5358              	.LBB1271:
 5359              	.LBB1270:
 5360              	.LBB1269:
 357:../../libDaisy//src/dev/oled_ssd130x.h ****         else
 5361              		.loc 4 357 42 view .LVU1416
 5362 03b4 1A70     		strb	r2, [r3]
 5363              	.LVL380:
 357:../../libDaisy//src/dev/oled_ssd130x.h ****         else
 5364              		.loc 4 357 42 view .LVU1417
 5365              	.LBE1269:
 5366              	.LBE1270:
 5367              	.LBE1271:
 239:../../libDaisy//src/hid/disp/display.h ****         {
 5368              		.loc 3 239 26 is_stmt 1 view .LVU1418
 5369 03b6 F8D1     		bne	.L312
 5370              	.LVL381:
 239:../../libDaisy//src/hid/disp/display.h ****         {
 5371              		.loc 3 239 26 is_stmt 0 view .LVU1419
 5372              	.LBE1262:
 5373              	.LBE1261:
 5374              	.LBB1272:
 5375              	.LBI1272:
 221:../../libDaisy//src/hid/disp/display.h ****                   uint_fast8_t y1,
 5376              		.loc 3 221 10 is_stmt 1 view .LVU1420
 5377              	.LBB1273:
 5378              	.LBB1274:
 5379              	.LBI1274:
ARM GAS  /var/folders/1y/_321xjh9623c014x9_qw12rr0000gn/T//ccXZVGQV.s 			page 169


  42:../../libDaisy//src/hid/disp/oled_display.h ****     {
 5380              		.loc 1 42 10 view .LVU1421
 5381              	.LBB1275:
 5382              	.LBI1275:
 352:../../libDaisy//src/dev/oled_ssd130x.h ****     {
 5383              		.loc 4 352 10 view .LVU1422
 5384              	.LBB1276:
 357:../../libDaisy//src/dev/oled_ssd130x.h ****         else
 5385              		.loc 4 357 42 is_stmt 0 view .LVU1423
 5386 03b8 94F83F28 		ldrb	r2, [r4, #2111]	@ zero_extendqisi2
 5387 03bc 0023     		movs	r3, #0
 5388 03be 42F01002 		orr	r2, r2, #16
 5389 03c2 84F83F28 		strb	r2, [r4, #2111]
 5390              	.LVL382:
 357:../../libDaisy//src/dev/oled_ssd130x.h ****         else
 5391              		.loc 4 357 42 view .LVU1424
 5392              	.LBE1276:
 5393              	.LBE1275:
 5394              	.LBE1274:
 239:../../libDaisy//src/hid/disp/display.h ****         {
 5395              		.loc 3 239 26 is_stmt 1 view .LVU1425
 5396              	.L313:
 5397              	.LBB1277:
 5398              	.LBI1277:
  42:../../libDaisy//src/hid/disp/oled_display.h ****     {
 5399              		.loc 1 42 10 view .LVU1426
 5400              	.LBB1278:
 5401              	.LBI1278:
 352:../../libDaisy//src/dev/oled_ssd130x.h ****     {
 5402              		.loc 4 352 10 view .LVU1427
 5403              	.LBB1279:
 357:../../libDaisy//src/dev/oled_ssd130x.h ****         else
 5404              		.loc 4 357 42 is_stmt 0 view .LVU1428
 5405 03c6 1A01     		lsls	r2, r3, #4
 357:../../libDaisy//src/dev/oled_ssd130x.h ****         else
 5406              		.loc 4 357 54 view .LVU1429
 5407 03c8 03F00700 		and	r0, r3, #7
 357:../../libDaisy//src/dev/oled_ssd130x.h ****         else
 5408              		.loc 4 357 48 view .LVU1430
 5409 03cc 0121     		movs	r1, #1
 357:../../libDaisy//src/dev/oled_ssd130x.h ****         else
 5410              		.loc 4 357 42 view .LVU1431
 5411 03ce 42F07F02 		orr	r2, r2, #127
 5412              	.LBE1279:
 5413              	.LBE1278:
 5414              	.LBE1277:
 252:../../libDaisy//src/hid/disp/display.h ****             }
 5415              		.loc 3 252 20 view .LVU1432
 5416 03d2 0B44     		add	r3, r3, r1
 5417              	.LVL383:
 5418              	.LBB1284:
 5419              	.LBB1282:
 5420              	.LBB1280:
 357:../../libDaisy//src/dev/oled_ssd130x.h ****         else
 5421              		.loc 4 357 48 view .LVU1433
 5422 03d4 8140     		lsls	r1, r1, r0
 357:../../libDaisy//src/dev/oled_ssd130x.h ****         else
ARM GAS  /var/folders/1y/_321xjh9623c014x9_qw12rr0000gn/T//ccXZVGQV.s 			page 170


 5423              		.loc 4 357 42 view .LVU1434
 5424 03d6 2244     		add	r2, r2, r4
 5425              	.LBE1280:
 5426              	.LBE1282:
 5427              	.LBE1284:
 239:../../libDaisy//src/hid/disp/display.h ****         {
 5428              		.loc 3 239 26 view .LVU1435
 5429 03d8 342B     		cmp	r3, #52
 5430              	.LBB1285:
 5431              	.LBB1283:
 5432              	.LBB1281:
 357:../../libDaisy//src/dev/oled_ssd130x.h ****         else
 5433              		.loc 4 357 42 view .LVU1436
 5434 03da 92F8C004 		ldrb	r0, [r2, #1216]	@ zero_extendqisi2
 5435 03de 41EA0001 		orr	r1, r1, r0
 5436 03e2 82F8C014 		strb	r1, [r2, #1216]
 5437              	.LVL384:
 357:../../libDaisy//src/dev/oled_ssd130x.h ****         else
 5438              		.loc 4 357 42 view .LVU1437
 5439              	.LBE1281:
 5440              	.LBE1283:
 5441              	.LBE1285:
 239:../../libDaisy//src/hid/disp/display.h ****         {
 5442              		.loc 3 239 26 is_stmt 1 view .LVU1438
 5443 03e6 EED1     		bne	.L313
 5444              	.LVL385:
 239:../../libDaisy//src/hid/disp/display.h ****         {
 5445              		.loc 3 239 26 is_stmt 0 view .LVU1439
 5446              	.LBE1273:
 5447              	.LBE1272:
 5448              	.LBB1286:
 5449              	.LBI1286:
 221:../../libDaisy//src/hid/disp/display.h ****                   uint_fast8_t y1,
 5450              		.loc 3 221 10 is_stmt 1 view .LVU1440
 5451              	.LBB1287:
 5452              	.LBB1288:
 5453              	.LBI1288:
  42:../../libDaisy//src/hid/disp/oled_display.h ****     {
 5454              		.loc 1 42 10 view .LVU1441
 5455              	.LBB1289:
 5456              	.LBI1289:
 352:../../libDaisy//src/dev/oled_ssd130x.h ****     {
 5457              		.loc 4 352 10 view .LVU1442
 5458              	.LBB1290:
 357:../../libDaisy//src/dev/oled_ssd130x.h ****         else
 5459              		.loc 4 357 42 is_stmt 0 view .LVU1443
 5460 03e8 94F8C027 		ldrb	r2, [r4, #1984]	@ zero_extendqisi2
 5461 03ec 04F50461 		add	r1, r4, #2112
 5462 03f0 04F2C176 		addw	r6, r4, #1985
 5463              	.LVL386:
 357:../../libDaisy//src/dev/oled_ssd130x.h ****         else
 5464              		.loc 4 357 42 view .LVU1444
 5465 03f4 42F01002 		orr	r2, r2, #16
 5466 03f8 84F8C027 		strb	r2, [r4, #1984]
 5467              	.LVL387:
 357:../../libDaisy//src/dev/oled_ssd130x.h ****         else
 5468              		.loc 4 357 42 view .LVU1445
ARM GAS  /var/folders/1y/_321xjh9623c014x9_qw12rr0000gn/T//ccXZVGQV.s 			page 171


 5469              	.LBE1290:
 5470              	.LBE1289:
 5471              	.LBE1288:
 239:../../libDaisy//src/hid/disp/display.h ****         {
 5472              		.loc 3 239 26 is_stmt 1 view .LVU1446
 5473              	.L314:
 5474              	.LBB1291:
 5475              	.LBI1291:
  42:../../libDaisy//src/hid/disp/oled_display.h ****     {
 5476              		.loc 1 42 10 view .LVU1447
 5477              	.LBB1292:
 5478              	.LBI1292:
 352:../../libDaisy//src/dev/oled_ssd130x.h ****     {
 5479              		.loc 4 352 10 view .LVU1448
 5480              	.LBB1293:
 357:../../libDaisy//src/dev/oled_ssd130x.h ****         else
 5481              		.loc 4 357 42 is_stmt 0 view .LVU1449
 5482 03fc 11F8010D 		ldrb	r0, [r1, #-1]!	@ zero_extendqisi2
 5483              	.LVL388:
 357:../../libDaisy//src/dev/oled_ssd130x.h ****         else
 5484              		.loc 4 357 42 view .LVU1450
 5485 0400 40F01000 		orr	r0, r0, #16
 5486              	.LBE1293:
 5487              	.LBE1292:
 5488              	.LBE1291:
 239:../../libDaisy//src/hid/disp/display.h ****         {
 5489              		.loc 3 239 26 view .LVU1451
 5490 0404 8E42     		cmp	r6, r1
 5491              	.LBB1296:
 5492              	.LBB1295:
 5493              	.LBB1294:
 357:../../libDaisy//src/dev/oled_ssd130x.h ****         else
 5494              		.loc 4 357 42 view .LVU1452
 5495 0406 0870     		strb	r0, [r1]
 5496              	.LVL389:
 357:../../libDaisy//src/dev/oled_ssd130x.h ****         else
 5497              		.loc 4 357 42 view .LVU1453
 5498              	.LBE1294:
 5499              	.LBE1295:
 5500              	.LBE1296:
 239:../../libDaisy//src/hid/disp/display.h ****         {
 5501              		.loc 3 239 26 is_stmt 1 view .LVU1454
 5502 0408 F8D1     		bne	.L314
 5503              	.LVL390:
 239:../../libDaisy//src/hid/disp/display.h ****         {
 5504              		.loc 3 239 26 is_stmt 0 view .LVU1455
 5505              	.LBE1287:
 5506              	.LBE1286:
 5507              	.LBB1297:
 5508              	.LBI1297:
 221:../../libDaisy//src/hid/disp/display.h ****                   uint_fast8_t y1,
 5509              		.loc 3 221 10 is_stmt 1 view .LVU1456
 5510              	.LBB1298:
 5511              	.LBB1299:
 5512              	.LBI1299:
  42:../../libDaisy//src/hid/disp/oled_display.h ****     {
 5513              		.loc 1 42 10 view .LVU1457
ARM GAS  /var/folders/1y/_321xjh9623c014x9_qw12rr0000gn/T//ccXZVGQV.s 			page 172


 5514              	.LBB1300:
 5515              	.LBI1300:
 352:../../libDaisy//src/dev/oled_ssd130x.h ****     {
 5516              		.loc 4 352 10 view .LVU1458
 5517              	.LBB1301:
 357:../../libDaisy//src/dev/oled_ssd130x.h ****         else
 5518              		.loc 4 357 42 is_stmt 0 view .LVU1459
 5519 040a 94F8C014 		ldrb	r1, [r4, #1216]	@ zero_extendqisi2
 5520 040e 0620     		movs	r0, #6
 5521 0410 1646     		mov	r6, r2
 5522 0412 41F00101 		orr	r1, r1, #1
 5523 0416 84F8C014 		strb	r1, [r4, #1216]
 5524              	.LVL391:
 357:../../libDaisy//src/dev/oled_ssd130x.h ****         else
 5525              		.loc 4 357 42 view .LVU1460
 5526              	.LBE1301:
 5527              	.LBE1300:
 5528              	.LBE1299:
 239:../../libDaisy//src/hid/disp/display.h ****         {
 5529              		.loc 3 239 26 is_stmt 1 view .LVU1461
 5530 041a 03E0     		b	.L316
 5531              	.LVL392:
 5532              	.L368:
 5533              	.LBB1302:
 5534              	.LBB1303:
 5535              	.LBB1304:
 357:../../libDaisy//src/dev/oled_ssd130x.h ****         else
 5536              		.loc 4 357 42 is_stmt 0 view .LVU1462
 5537 041c 04EBC012 		add	r2, r4, r0, lsl #7
 5538 0420 92F8C064 		ldrb	r6, [r2, #1216]	@ zero_extendqisi2
 5539              	.LVL393:
 5540              	.L316:
 357:../../libDaisy//src/dev/oled_ssd130x.h ****         else
 5541              		.loc 4 357 42 view .LVU1463
 5542              	.LBE1304:
 5543              	.LBE1303:
 5544              	.LBI1302:
  42:../../libDaisy//src/hid/disp/oled_display.h ****     {
 5545              		.loc 1 42 10 is_stmt 1 view .LVU1464
 5546              	.LBB1308:
 5547              	.LBI1303:
 352:../../libDaisy//src/dev/oled_ssd130x.h ****     {
 5548              		.loc 4 352 10 view .LVU1465
 5549              	.LBB1305:
 357:../../libDaisy//src/dev/oled_ssd130x.h ****         else
 5550              		.loc 4 357 54 is_stmt 0 view .LVU1466
 5551 0424 03F00702 		and	r2, r3, #7
 357:../../libDaisy//src/dev/oled_ssd130x.h ****         else
 5552              		.loc 4 357 48 view .LVU1467
 5553 0428 0121     		movs	r1, #1
 357:../../libDaisy//src/dev/oled_ssd130x.h ****         else
 5554              		.loc 4 357 42 view .LVU1468
 5555 042a 04EBC010 		add	r0, r4, r0, lsl #7
 5556              	.LBE1305:
 5557              	.LBE1308:
 5558              	.LBE1302:
 239:../../libDaisy//src/hid/disp/display.h ****         {
ARM GAS  /var/folders/1y/_321xjh9623c014x9_qw12rr0000gn/T//ccXZVGQV.s 			page 173


 5559              		.loc 3 239 26 view .LVU1469
 5560 042e 013B     		subs	r3, r3, #1
 5561              	.LVL394:
 5562              	.LBB1311:
 5563              	.LBB1309:
 5564              	.LBB1306:
 357:../../libDaisy//src/dev/oled_ssd130x.h ****         else
 5565              		.loc 4 357 48 view .LVU1470
 5566 0430 01FA02F1 		lsl	r1, r1, r2
 357:../../libDaisy//src/dev/oled_ssd130x.h ****         else
 5567              		.loc 4 357 42 view .LVU1471
 5568 0434 41EA0602 		orr	r2, r1, r6
 5569 0438 80F8C024 		strb	r2, [r0, #1216]
 5570              	.LVL395:
 357:../../libDaisy//src/dev/oled_ssd130x.h ****         else
 5571              		.loc 4 357 42 view .LVU1472
 5572              	.LBE1306:
 5573              	.LBE1309:
 5574              	.LBE1311:
 239:../../libDaisy//src/hid/disp/display.h ****         {
 5575              		.loc 3 239 26 is_stmt 1 view .LVU1473
 5576              	.LBB1312:
 5577              	.LBB1310:
 5578              	.LBB1307:
 357:../../libDaisy//src/dev/oled_ssd130x.h ****         else
 5579              		.loc 4 357 28 is_stmt 0 view .LVU1474
 5580 043c 4FEAD300 		lsr	r0, r3, #3
 5581              	.LBE1307:
 5582              	.LBE1310:
 5583              	.LBE1312:
 239:../../libDaisy//src/hid/disp/display.h ****         {
 5584              		.loc 3 239 26 view .LVU1475
 5585 0440 ECD1     		bne	.L368
 5586              	.LBE1298:
 5587              	.LBE1297:
 5588              	.LBE1260:
 5589              	.LBB1313:
 5590              	.LBB1314:
 5591              	.LBB1315:
 5592              	.LBB1316:
 5593              	.LBB1317:
 124:../../libDaisy//src/dev/oled_ssd130x.h ****         spi_.BlockingTransmit(&cmd, 1);
 5594              		.loc 4 124 24 view .LVU1476
 5595 0442 04F2BC44 		addw	r4, r4, #1212
 5596              	.LVL396:
 124:../../libDaisy//src/dev/oled_ssd130x.h ****         spi_.BlockingTransmit(&cmd, 1);
 5597              		.loc 4 124 24 view .LVU1477
 5598 0446 05F10C07 		add	r7, r5, #12
 5599 044a 05F20C49 		addw	r9, r5, #1036
 5600              	.LVL397:
 124:../../libDaisy//src/dev/oled_ssd130x.h ****         spi_.BlockingTransmit(&cmd, 1);
 5601              		.loc 4 124 24 view .LVU1478
 5602 044e B026     		movs	r6, #176
 5603              	.LVL398:
 5604              	.L317:
 124:../../libDaisy//src/dev/oled_ssd130x.h ****         spi_.BlockingTransmit(&cmd, 1);
 5605              		.loc 4 124 24 view .LVU1479
ARM GAS  /var/folders/1y/_321xjh9623c014x9_qw12rr0000gn/T//ccXZVGQV.s 			page 174


 5606 0450 4FF00008 		mov	r8, #0
 124:../../libDaisy//src/dev/oled_ssd130x.h ****         spi_.BlockingTransmit(&cmd, 1);
 5607              		.loc 4 124 23 view .LVU1480
 5608 0454 2046     		mov	r0, r4
 5609 0456 8DF82F60 		strb	r6, [sp, #47]
 5610              	.LVL399:
 124:../../libDaisy//src/dev/oled_ssd130x.h ****         spi_.BlockingTransmit(&cmd, 1);
 5611              		.loc 4 124 23 view .LVU1481
 5612              	.LBE1317:
 5613              	.LBI1316:
 122:../../libDaisy//src/dev/oled_ssd130x.h ****     {
 5614              		.loc 4 122 10 is_stmt 1 view .LVU1482
 5615              	.LBB1318:
 124:../../libDaisy//src/dev/oled_ssd130x.h ****         spi_.BlockingTransmit(&cmd, 1);
 5616              		.loc 4 124 9 view .LVU1483
 5617              	.LBE1318:
 5618              	.LBE1316:
 5619              		.loc 4 383 22 is_stmt 0 view .LVU1484
 5620 045a 0136     		adds	r6, r6, #1
 5621              	.LVL400:
 5622              	.LBB1321:
 5623              	.LBB1319:
 124:../../libDaisy//src/dev/oled_ssd130x.h ****         spi_.BlockingTransmit(&cmd, 1);
 5624              		.loc 4 124 23 view .LVU1485
 5625 045c 4146     		mov	r1, r8
 5626 045e FFF7FEFF 		bl	dsy_gpio_write
 5627              	.LVL401:
 125:../../libDaisy//src/dev/oled_ssd130x.h ****     };
 5628              		.loc 4 125 9 is_stmt 1 view .LVU1486
 125:../../libDaisy//src/dev/oled_ssd130x.h ****     };
 5629              		.loc 4 125 30 is_stmt 0 view .LVU1487
 5630 0462 6423     		movs	r3, #100
 5631 0464 0122     		movs	r2, #1
 5632 0466 0DF12F01 		add	r1, sp, #47
 5633 046a 2846     		mov	r0, r5
 5634              	.LBE1319:
 5635              	.LBE1321:
 5636              		.loc 4 383 22 view .LVU1488
 5637 046c F6B2     		uxtb	r6, r6
 5638              	.LBB1322:
 5639              	.LBB1320:
 125:../../libDaisy//src/dev/oled_ssd130x.h ****     };
 5640              		.loc 4 125 30 view .LVU1489
 5641 046e FFF7FEFF 		bl	_ZN5daisy9SpiHandle16BlockingTransmitEPhjm
 5642              	.LVL402:
 125:../../libDaisy//src/dev/oled_ssd130x.h ****     };
 5643              		.loc 4 125 30 view .LVU1490
 5644              	.LBE1320:
 5645              	.LBE1322:
 5646              	.LBB1323:
 5647              	.LBB1324:
 124:../../libDaisy//src/dev/oled_ssd130x.h ****         spi_.BlockingTransmit(&cmd, 1);
 5648              		.loc 4 124 23 view .LVU1491
 5649 0472 4146     		mov	r1, r8
 5650 0474 2046     		mov	r0, r4
 5651 0476 8DF82F80 		strb	r8, [sp, #47]
 5652              	.LVL403:
ARM GAS  /var/folders/1y/_321xjh9623c014x9_qw12rr0000gn/T//ccXZVGQV.s 			page 175


 124:../../libDaisy//src/dev/oled_ssd130x.h ****         spi_.BlockingTransmit(&cmd, 1);
 5653              		.loc 4 124 23 view .LVU1492
 5654              	.LBE1324:
 5655              	.LBI1323:
 122:../../libDaisy//src/dev/oled_ssd130x.h ****     {
 5656              		.loc 4 122 10 is_stmt 1 view .LVU1493
 5657              	.LBB1325:
 124:../../libDaisy//src/dev/oled_ssd130x.h ****         spi_.BlockingTransmit(&cmd, 1);
 5658              		.loc 4 124 9 view .LVU1494
 124:../../libDaisy//src/dev/oled_ssd130x.h ****         spi_.BlockingTransmit(&cmd, 1);
 5659              		.loc 4 124 23 is_stmt 0 view .LVU1495
 5660 047a FFF7FEFF 		bl	dsy_gpio_write
 5661              	.LVL404:
 125:../../libDaisy//src/dev/oled_ssd130x.h ****     };
 5662              		.loc 4 125 9 is_stmt 1 view .LVU1496
 125:../../libDaisy//src/dev/oled_ssd130x.h ****     };
 5663              		.loc 4 125 30 is_stmt 0 view .LVU1497
 5664 047e 0122     		movs	r2, #1
 5665 0480 6423     		movs	r3, #100
 5666 0482 0DF12F01 		add	r1, sp, #47
 5667 0486 2846     		mov	r0, r5
 5668 0488 FFF7FEFF 		bl	_ZN5daisy9SpiHandle16BlockingTransmitEPhjm
 5669              	.LVL405:
 125:../../libDaisy//src/dev/oled_ssd130x.h ****     };
 5670              		.loc 4 125 30 view .LVU1498
 5671 048c 1023     		movs	r3, #16
 5672              	.LBE1325:
 5673              	.LBE1323:
 5674              	.LBB1326:
 5675              	.LBB1327:
 124:../../libDaisy//src/dev/oled_ssd130x.h ****         spi_.BlockingTransmit(&cmd, 1);
 5676              		.loc 4 124 23 view .LVU1499
 5677 048e 4146     		mov	r1, r8
 5678 0490 2046     		mov	r0, r4
 5679 0492 8DF82F30 		strb	r3, [sp, #47]
 5680              	.LVL406:
 124:../../libDaisy//src/dev/oled_ssd130x.h ****         spi_.BlockingTransmit(&cmd, 1);
 5681              		.loc 4 124 23 view .LVU1500
 5682              	.LBE1327:
 5683              	.LBI1326:
 122:../../libDaisy//src/dev/oled_ssd130x.h ****     {
 5684              		.loc 4 122 10 is_stmt 1 view .LVU1501
 5685              	.LBB1328:
 124:../../libDaisy//src/dev/oled_ssd130x.h ****         spi_.BlockingTransmit(&cmd, 1);
 5686              		.loc 4 124 9 view .LVU1502
 124:../../libDaisy//src/dev/oled_ssd130x.h ****         spi_.BlockingTransmit(&cmd, 1);
 5687              		.loc 4 124 23 is_stmt 0 view .LVU1503
 5688 0496 FFF7FEFF 		bl	dsy_gpio_write
 5689              	.LVL407:
 125:../../libDaisy//src/dev/oled_ssd130x.h ****     };
 5690              		.loc 4 125 9 is_stmt 1 view .LVU1504
 125:../../libDaisy//src/dev/oled_ssd130x.h ****     };
 5691              		.loc 4 125 30 is_stmt 0 view .LVU1505
 5692 049a 6423     		movs	r3, #100
 5693 049c 0122     		movs	r2, #1
 5694 049e 0DF12F01 		add	r1, sp, #47
 5695 04a2 2846     		mov	r0, r5
ARM GAS  /var/folders/1y/_321xjh9623c014x9_qw12rr0000gn/T//ccXZVGQV.s 			page 176


 5696 04a4 FFF7FEFF 		bl	_ZN5daisy9SpiHandle16BlockingTransmitEPhjm
 5697              	.LVL408:
 125:../../libDaisy//src/dev/oled_ssd130x.h ****     };
 5698              		.loc 4 125 30 view .LVU1506
 5699              	.LBE1328:
 5700              	.LBE1326:
 5701              	.LBB1329:
 5702              	.LBI1329:
 128:../../libDaisy//src/dev/oled_ssd130x.h ****     {
 5703              		.loc 4 128 10 is_stmt 1 view .LVU1507
 5704              	.LBB1330:
 130:../../libDaisy//src/dev/oled_ssd130x.h ****         spi_.BlockingTransmit(buff, size);
 5705              		.loc 4 130 9 view .LVU1508
 130:../../libDaisy//src/dev/oled_ssd130x.h ****         spi_.BlockingTransmit(buff, size);
 5706              		.loc 4 130 23 is_stmt 0 view .LVU1509
 5707 04a8 0121     		movs	r1, #1
 5708 04aa 2046     		mov	r0, r4
 5709 04ac FFF7FEFF 		bl	dsy_gpio_write
 5710              	.LVL409:
 131:../../libDaisy//src/dev/oled_ssd130x.h ****     };
 5711              		.loc 4 131 9 is_stmt 1 view .LVU1510
 131:../../libDaisy//src/dev/oled_ssd130x.h ****     };
 5712              		.loc 4 131 30 is_stmt 0 view .LVU1511
 5713 04b0 8022     		movs	r2, #128
 5714 04b2 3946     		mov	r1, r7
 5715 04b4 6423     		movs	r3, #100
 5716              	.LBE1330:
 5717              	.LBE1329:
 5718              		.loc 4 383 22 view .LVU1512
 5719 04b6 1744     		add	r7, r7, r2
 5720              	.LVL410:
 5721              	.LBB1332:
 5722              	.LBB1331:
 131:../../libDaisy//src/dev/oled_ssd130x.h ****     };
 5723              		.loc 4 131 30 view .LVU1513
 5724 04b8 2846     		mov	r0, r5
 5725 04ba FFF7FEFF 		bl	_ZN5daisy9SpiHandle16BlockingTransmitEPhjm
 5726              	.LVL411:
 131:../../libDaisy//src/dev/oled_ssd130x.h ****     };
 5727              		.loc 4 131 30 view .LVU1514
 5728              	.LBE1331:
 5729              	.LBE1332:
 5730              		.loc 4 383 9 is_stmt 1 view .LVU1515
 5731              		.loc 4 383 22 view .LVU1516
 5732 04be B945     		cmp	r9, r7
 5733 04c0 C6D1     		bne	.L317
 5734              	.LBE1315:
 5735              	.LBE1314:
 5736              	.LBE1313:
 232:Dubby.cpp     **** }
 5737              		.loc 2 232 1 is_stmt 0 view .LVU1517
 5738 04c2 0DB0     		add	sp, sp, #52
 5739              		.cfi_remember_state
 5740              		.cfi_def_cfa_offset 36
 5741              		@ sp needed
 5742 04c4 BDE8F08F 		pop	{r4, r5, r6, r7, r8, r9, r10, fp, pc}
 5743              	.LVL412:
ARM GAS  /var/folders/1y/_321xjh9623c014x9_qw12rr0000gn/T//ccXZVGQV.s 			page 177


 5744              	.L328:
 5745              		.cfi_restore_state
 5746              	.LBB1333:
 5747              	.LBB1233:
 5748              	.LBB1203:
 230:../../libDaisy//src/hid/disp/display.h ****         int_fast16_t error  = deltaX - deltaY;
 5749              		.loc 3 230 42 view .LVU1518
 5750 04c8 0123     		movs	r3, #1
 5751 04ca 0693     		str	r3, [sp, #24]
 5752 04cc 67E6     		b	.L288
 5753              	.LVL413:
 5754              	.L323:
 230:../../libDaisy//src/hid/disp/display.h ****         int_fast16_t error  = deltaX - deltaY;
 5755              		.loc 3 230 42 view .LVU1519
 5756 04ce 4FF0FF33 		mov	r3, #-1
 5757 04d2 0693     		str	r3, [sp, #24]
 5758              	.LVL414:
 239:../../libDaisy//src/hid/disp/display.h ****         {
 5759              		.loc 3 239 26 is_stmt 1 view .LVU1520
 5760 04d4 DDE90331 		ldrd	r3, r1, [sp, #12]
 5761 04d8 8B42     		cmp	r3, r1
 5762 04da 7FF460AE 		bne	.L288
 5763              	.LVL415:
 5764              	.L367:
 239:../../libDaisy//src/hid/disp/display.h ****         {
 5765              		.loc 3 239 33 is_stmt 0 view .LVU1521
 5766 04de 4FF0010B 		mov	fp, #1
 5767 04e2 8AE6     		b	.L287
 5768              	.L370:
 5769              		.align	2
 5770              	.L369:
 5771 04e4 ABAAAAAA 		.word	-1431655765
 5772 04e8 00000000 		.word	Font_6x8
 5773              	.LBE1203:
 5774              	.LBE1233:
 5775              	.LBE1333:
 5776              		.cfi_endproc
 5777              	.LFE3753:
 5779              		.section	.text._ZN5daisy5Dubby11ReleaseMenuEv,"ax",%progbits
 5780              		.align	1
 5781              		.p2align 2,,3
 5782              		.global	_ZN5daisy5Dubby11ReleaseMenuEv
 5783              		.syntax unified
 5784              		.thumb
 5785              		.thumb_func
 5787              	_ZN5daisy5Dubby11ReleaseMenuEv:
 5788              	.LVL416:
 5789              	.LFB3754:
 235:Dubby.cpp     **** {        
 5790              		.loc 2 235 1 is_stmt 1 view -0
 5791              		.cfi_startproc
 5792              		@ args = 0, pretend = 0, frame = 8
 5793              		@ frame_needed = 0, uses_anonymous_args = 0
 236:Dubby.cpp     ****     display.Fill(false);
 5794              		.loc 2 236 5 view .LVU1523
 5795              	.LBB1361:
 5796              	.LBI1361:
ARM GAS  /var/folders/1y/_321xjh9623c014x9_qw12rr0000gn/T//ccXZVGQV.s 			page 178


  34:../../libDaisy//src/hid/disp/oled_display.h **** 
 5797              		.loc 1 34 10 view .LVU1524
 5798              	.LBB1362:
 5799              	.LBI1362:
 362:../../libDaisy//src/dev/oled_ssd130x.h ****     {
 5800              		.loc 4 362 10 view .LVU1525
 5801              	.LBB1363:
 364:../../libDaisy//src/dev/oled_ssd130x.h ****         {
 5802              		.loc 4 364 29 view .LVU1526
 5803              	.LBE1363:
 5804              	.LBE1362:
 5805              	.LBE1361:
 235:Dubby.cpp     **** {        
 5806              		.loc 2 235 1 is_stmt 0 view .LVU1527
 5807 0000 2DE9F041 		push	{r4, r5, r6, r7, r8, lr}
 5808              		.cfi_def_cfa_offset 24
 5809              		.cfi_offset 4, -24
 5810              		.cfi_offset 5, -20
 5811              		.cfi_offset 6, -16
 5812              		.cfi_offset 7, -12
 5813              		.cfi_offset 8, -8
 5814              		.cfi_offset 14, -4
 5815 0004 0446     		mov	r4, r0
 5816 0006 00F59860 		add	r0, r0, #1216
 5817              	.LVL417:
 235:Dubby.cpp     **** {        
 5818              		.loc 2 235 1 view .LVU1528
 5819 000a 84B0     		sub	sp, sp, #16
 5820              		.cfi_def_cfa_offset 40
 5821              	.LBB1366:
 5822              	.LBB1365:
 5823              	.LBB1364:
 366:../../libDaisy//src/dev/oled_ssd130x.h ****         }
 5824              		.loc 4 366 24 view .LVU1529
 5825 000c 4FF48062 		mov	r2, #1024
 5826 0010 0021     		movs	r1, #0
 5827 0012 8046     		mov	r8, r0
 5828 0014 FFF7FEFF 		bl	memset
 5829              	.LVL418:
 366:../../libDaisy//src/dev/oled_ssd130x.h ****         }
 5830              		.loc 4 366 24 view .LVU1530
 5831              	.LBE1364:
 5832              	.LBE1365:
 5833              	.LBE1366:
 241:Dubby.cpp     ****         display.SetCursor(menuTextCursors[0][0], menuTextCursors[0][1]);
 5834              		.loc 2 241 9 is_stmt 1 view .LVU1531
 241:Dubby.cpp     ****         display.SetCursor(menuTextCursors[0][0], menuTextCursors[0][1]);
 5835              		.loc 2 241 26 is_stmt 0 view .LVU1532
 5836 0018 B4F86420 		ldrh	r2, [r4, #100]
 5837              	.LVL419:
 5838              	.LBB1367:
 5839              	.LBI1367:
 171:../../libDaisy//src/hid/disp/display.h ****     {
 5840              		.loc 3 171 10 is_stmt 1 view .LVU1533
 5841              	.LBB1368:
 173:../../libDaisy//src/hid/disp/display.h ****         currentY_ = (y >= Height()) ? Height() - 1 : y;
 5842              		.loc 3 173 9 view .LVU1534
ARM GAS  /var/folders/1y/_321xjh9623c014x9_qw12rr0000gn/T//ccXZVGQV.s 			page 179


 173:../../libDaisy//src/hid/disp/display.h ****         currentY_ = (y >= Height()) ? Height() - 1 : y;
 5843              		.loc 3 173 19 is_stmt 0 view .LVU1535
 5844 001c B4F86030 		ldrh	r3, [r4, #96]
 5845              	.LBE1368:
 5846              	.LBE1367:
 5847              	.LBB1372:
 5848              	.LBB1373:
 5849              	.LBB1374:
 5850              	.LBB1375:
 5851              	.LBB1376:
 124:../../libDaisy//src/dev/oled_ssd130x.h ****         spi_.BlockingTransmit(&cmd, 1);
 5852              		.loc 4 124 24 view .LVU1536
 5853 0020 04F2B446 		addw	r6, r4, #1204
 5854              	.LBE1376:
 5855              	.LBE1375:
 5856              	.LBE1374:
 5857              	.LBE1373:
 5858              	.LBE1372:
 5859              	.LBB1404:
 5860              	.LBB1369:
 174:../../libDaisy//src/hid/disp/display.h ****     }
 5861              		.loc 3 174 19 view .LVU1537
 5862 0024 3F2A     		cmp	r2, #63
 5863              	.LBE1369:
 5864              	.LBE1404:
 242:Dubby.cpp     ****         display.WriteString(GetTextForEnum(MAINMENU, menuItemSelected), Font_6x8, true);
 5865              		.loc 2 242 28 view .LVU1538
 5866 0026 94F85C10 		ldrb	r1, [r4, #92]	@ zero_extendqisi2
 5867 002a 2948     		ldr	r0, .L375
 5868              	.LBB1405:
 5869              	.LBB1401:
 5870              	.LBB1398:
 5871              	.LBB1383:
 5872              	.LBB1377:
 124:../../libDaisy//src/dev/oled_ssd130x.h ****         spi_.BlockingTransmit(&cmd, 1);
 5873              		.loc 4 124 24 view .LVU1539
 5874 002c 04F2BC45 		addw	r5, r4, #1212
 5875              	.LBE1377:
 5876              	.LBE1383:
 5877              	.LBE1398:
 5878              	.LBE1401:
 5879              	.LBE1405:
 5880              	.LBB1406:
 5881              	.LBB1370:
 174:../../libDaisy//src/hid/disp/display.h ****     }
 5882              		.loc 3 174 19 view .LVU1540
 5883 0030 28BF     		it	cs
 5884 0032 3F22     		movcs	r2, #63
 5885              	.LVL420:
 173:../../libDaisy//src/hid/disp/display.h ****         currentY_ = (y >= Height()) ? Height() - 1 : y;
 5886              		.loc 3 173 19 view .LVU1541
 5887 0034 7F2B     		cmp	r3, #127
 5888              	.LBE1370:
 5889              	.LBE1406:
 242:Dubby.cpp     ****         display.WriteString(GetTextForEnum(MAINMENU, menuItemSelected), Font_6x8, true);
 5890              		.loc 2 242 28 view .LVU1542
 5891 0036 54F82110 		ldr	r1, [r4, r1, lsl #2]
ARM GAS  /var/folders/1y/_321xjh9623c014x9_qw12rr0000gn/T//ccXZVGQV.s 			page 180


 5892              	.LBB1407:
 5893              	.LBB1371:
 173:../../libDaisy//src/hid/disp/display.h ****         currentY_ = (y >= Height()) ? Height() - 1 : y;
 5894              		.loc 3 173 19 view .LVU1543
 5895 003a 28BF     		it	cs
 5896 003c 7F23     		movcs	r3, #127
 174:../../libDaisy//src/hid/disp/display.h ****     }
 5897              		.loc 3 174 19 view .LVU1544
 5898 003e A4F8B224 		strh	r2, [r4, #1202]	@ movhi
 173:../../libDaisy//src/hid/disp/display.h ****         currentY_ = (y >= Height()) ? Height() - 1 : y;
 5899              		.loc 3 173 19 view .LVU1545
 5900 0042 A4F8B034 		strh	r3, [r4, #1200]	@ movhi
 174:../../libDaisy//src/hid/disp/display.h ****     }
 5901              		.loc 3 174 9 is_stmt 1 view .LVU1546
 5902              	.LVL421:
 174:../../libDaisy//src/hid/disp/display.h ****     }
 5903              		.loc 3 174 9 is_stmt 0 view .LVU1547
 5904              	.LBE1371:
 5905              	.LBE1407:
 242:Dubby.cpp     ****         display.WriteString(GetTextForEnum(MAINMENU, menuItemSelected), Font_6x8, true);
 5906              		.loc 2 242 9 is_stmt 1 view .LVU1548
 5907              	.LBB1408:
 5908              	.LBI1408:
 463:Dubby.cpp     **** const char * Dubby::GetTextForEnum(MenuTypes m, int enumVal)
 5909              		.loc 2 463 14 view .LVU1549
 5910              	.LBB1409:
 465:Dubby.cpp     ****     switch (m)
 5911              		.loc 2 465 5 view .LVU1550
 467:Dubby.cpp     ****         case MAINMENU:
 5912              		.loc 2 467 9 view .LVU1551
 468:Dubby.cpp     ****             return MenuItemsStrings[enumVal];
 5913              		.loc 2 468 13 view .LVU1552
 468:Dubby.cpp     ****             return MenuItemsStrings[enumVal];
 5914              		.loc 2 468 13 is_stmt 0 view .LVU1553
 5915              	.LBE1409:
 5916              	.LBE1408:
 242:Dubby.cpp     ****         display.WriteString(GetTextForEnum(MAINMENU, menuItemSelected), Font_6x8, true);
 5917              		.loc 2 242 28 view .LVU1554
 5918 0046 0123     		movs	r3, #1
 5919 0048 0093     		str	r3, [sp]
 5920 004a 90E80C00 		ldm	r0, {r2, r3}
 5921 004e 04F2AC40 		addw	r0, r4, #1196
 5922              	.LBB1410:
 5923              	.LBB1402:
 5924              	.LBB1399:
 5925              	.LBB1384:
 5926              	.LBB1378:
 125:../../libDaisy//src/dev/oled_ssd130x.h ****     };
 5927              		.loc 4 125 30 view .LVU1555
 5928 0052 B024     		movs	r4, #176
 5929              	.LVL422:
 125:../../libDaisy//src/dev/oled_ssd130x.h ****     };
 5930              		.loc 4 125 30 view .LVU1556
 5931              	.LBE1378:
 5932              	.LBE1384:
 5933              	.LBE1399:
 5934              	.LBE1402:
ARM GAS  /var/folders/1y/_321xjh9623c014x9_qw12rr0000gn/T//ccXZVGQV.s 			page 181


 5935              	.LBE1410:
 242:Dubby.cpp     ****         display.WriteString(GetTextForEnum(MAINMENU, menuItemSelected), Font_6x8, true);
 5936              		.loc 2 242 28 view .LVU1557
 5937 0054 FFF7FEFF 		bl	_ZN5daisy25OneBitGraphicsDisplayImplINS_11OledDisplayINS_13SSD130xDriverILj128ELj64ENS_24SSD130
 5938              	.LVL423:
 245:Dubby.cpp     ****     display.Update();
 5939              		.loc 2 245 5 is_stmt 1 view .LVU1558
 5940              	.LBB1411:
 5941              	.LBI1372:
  45:../../libDaisy//src/hid/disp/oled_display.h ****     }
  46:../../libDaisy//src/hid/disp/oled_display.h **** 
  47:../../libDaisy//src/hid/disp/oled_display.h ****     /** 
  48:../../libDaisy//src/hid/disp/oled_display.h ****     Writes the current display buffer to the OLED device using SPI or I2C depending on 
  49:../../libDaisy//src/hid/disp/oled_display.h ****     how the object was initialized.
  50:../../libDaisy//src/hid/disp/oled_display.h ****     */
  51:../../libDaisy//src/hid/disp/oled_display.h ****     void Update() override { driver_.Update(); }
 5942              		.loc 1 51 10 view .LVU1559
 5943              	.LBB1403:
 5944              	.LBI1373:
 373:../../libDaisy//src/dev/oled_ssd130x.h ****     {
 5945              		.loc 4 373 10 view .LVU1560
 5946              	.LBB1400:
 5947              		.loc 4 383 22 view .LVU1561
 5948              	.L372:
 5949              		.loc 4 383 22 is_stmt 0 view .LVU1562
 5950 0058 0027     		movs	r7, #0
 5951              	.LBB1385:
 5952              	.LBB1379:
 124:../../libDaisy//src/dev/oled_ssd130x.h ****         spi_.BlockingTransmit(&cmd, 1);
 5953              		.loc 4 124 23 view .LVU1563
 5954 005a 2846     		mov	r0, r5
 5955 005c 8DF80F40 		strb	r4, [sp, #15]
 5956              	.LVL424:
 124:../../libDaisy//src/dev/oled_ssd130x.h ****         spi_.BlockingTransmit(&cmd, 1);
 5957              		.loc 4 124 23 view .LVU1564
 5958              	.LBE1379:
 5959              	.LBI1375:
 122:../../libDaisy//src/dev/oled_ssd130x.h ****     {
 5960              		.loc 4 122 10 is_stmt 1 view .LVU1565
 5961              	.LBB1380:
 124:../../libDaisy//src/dev/oled_ssd130x.h ****         spi_.BlockingTransmit(&cmd, 1);
 5962              		.loc 4 124 9 view .LVU1566
 5963              	.LBE1380:
 5964              	.LBE1385:
 5965              		.loc 4 383 22 is_stmt 0 view .LVU1567
 5966 0060 0134     		adds	r4, r4, #1
 5967              	.LVL425:
 5968              	.LBB1386:
 5969              	.LBB1381:
 124:../../libDaisy//src/dev/oled_ssd130x.h ****         spi_.BlockingTransmit(&cmd, 1);
 5970              		.loc 4 124 23 view .LVU1568
 5971 0062 3946     		mov	r1, r7
 5972 0064 FFF7FEFF 		bl	dsy_gpio_write
 5973              	.LVL426:
 125:../../libDaisy//src/dev/oled_ssd130x.h ****     };
 5974              		.loc 4 125 9 is_stmt 1 view .LVU1569
 125:../../libDaisy//src/dev/oled_ssd130x.h ****     };
ARM GAS  /var/folders/1y/_321xjh9623c014x9_qw12rr0000gn/T//ccXZVGQV.s 			page 182


 5975              		.loc 4 125 30 is_stmt 0 view .LVU1570
 5976 0068 6423     		movs	r3, #100
 5977 006a 0122     		movs	r2, #1
 5978 006c 0DF10F01 		add	r1, sp, #15
 5979 0070 3046     		mov	r0, r6
 5980              	.LBE1381:
 5981              	.LBE1386:
 5982              		.loc 4 383 22 view .LVU1571
 5983 0072 E4B2     		uxtb	r4, r4
 5984              	.LBB1387:
 5985              	.LBB1382:
 125:../../libDaisy//src/dev/oled_ssd130x.h ****     };
 5986              		.loc 4 125 30 view .LVU1572
 5987 0074 FFF7FEFF 		bl	_ZN5daisy9SpiHandle16BlockingTransmitEPhjm
 5988              	.LVL427:
 125:../../libDaisy//src/dev/oled_ssd130x.h ****     };
 5989              		.loc 4 125 30 view .LVU1573
 5990              	.LBE1382:
 5991              	.LBE1387:
 5992              	.LBB1388:
 5993              	.LBB1389:
 124:../../libDaisy//src/dev/oled_ssd130x.h ****         spi_.BlockingTransmit(&cmd, 1);
 5994              		.loc 4 124 23 view .LVU1574
 5995 0078 3946     		mov	r1, r7
 5996 007a 2846     		mov	r0, r5
 5997 007c 8DF80F70 		strb	r7, [sp, #15]
 5998              	.LVL428:
 124:../../libDaisy//src/dev/oled_ssd130x.h ****         spi_.BlockingTransmit(&cmd, 1);
 5999              		.loc 4 124 23 view .LVU1575
 6000              	.LBE1389:
 6001              	.LBI1388:
 122:../../libDaisy//src/dev/oled_ssd130x.h ****     {
 6002              		.loc 4 122 10 is_stmt 1 view .LVU1576
 6003              	.LBB1390:
 124:../../libDaisy//src/dev/oled_ssd130x.h ****         spi_.BlockingTransmit(&cmd, 1);
 6004              		.loc 4 124 9 view .LVU1577
 124:../../libDaisy//src/dev/oled_ssd130x.h ****         spi_.BlockingTransmit(&cmd, 1);
 6005              		.loc 4 124 23 is_stmt 0 view .LVU1578
 6006 0080 FFF7FEFF 		bl	dsy_gpio_write
 6007              	.LVL429:
 125:../../libDaisy//src/dev/oled_ssd130x.h ****     };
 6008              		.loc 4 125 9 is_stmt 1 view .LVU1579
 125:../../libDaisy//src/dev/oled_ssd130x.h ****     };
 6009              		.loc 4 125 30 is_stmt 0 view .LVU1580
 6010 0084 0122     		movs	r2, #1
 6011 0086 6423     		movs	r3, #100
 6012 0088 0DF10F01 		add	r1, sp, #15
 6013 008c 3046     		mov	r0, r6
 6014 008e FFF7FEFF 		bl	_ZN5daisy9SpiHandle16BlockingTransmitEPhjm
 6015              	.LVL430:
 125:../../libDaisy//src/dev/oled_ssd130x.h ****     };
 6016              		.loc 4 125 30 view .LVU1581
 6017 0092 1023     		movs	r3, #16
 6018              	.LBE1390:
 6019              	.LBE1388:
 6020              	.LBB1391:
 6021              	.LBB1392:
ARM GAS  /var/folders/1y/_321xjh9623c014x9_qw12rr0000gn/T//ccXZVGQV.s 			page 183


 124:../../libDaisy//src/dev/oled_ssd130x.h ****         spi_.BlockingTransmit(&cmd, 1);
 6022              		.loc 4 124 23 view .LVU1582
 6023 0094 3946     		mov	r1, r7
 6024 0096 2846     		mov	r0, r5
 6025 0098 8DF80F30 		strb	r3, [sp, #15]
 6026              	.LVL431:
 124:../../libDaisy//src/dev/oled_ssd130x.h ****         spi_.BlockingTransmit(&cmd, 1);
 6027              		.loc 4 124 23 view .LVU1583
 6028              	.LBE1392:
 6029              	.LBI1391:
 122:../../libDaisy//src/dev/oled_ssd130x.h ****     {
 6030              		.loc 4 122 10 is_stmt 1 view .LVU1584
 6031              	.LBB1393:
 124:../../libDaisy//src/dev/oled_ssd130x.h ****         spi_.BlockingTransmit(&cmd, 1);
 6032              		.loc 4 124 9 view .LVU1585
 124:../../libDaisy//src/dev/oled_ssd130x.h ****         spi_.BlockingTransmit(&cmd, 1);
 6033              		.loc 4 124 23 is_stmt 0 view .LVU1586
 6034 009c FFF7FEFF 		bl	dsy_gpio_write
 6035              	.LVL432:
 125:../../libDaisy//src/dev/oled_ssd130x.h ****     };
 6036              		.loc 4 125 9 is_stmt 1 view .LVU1587
 125:../../libDaisy//src/dev/oled_ssd130x.h ****     };
 6037              		.loc 4 125 30 is_stmt 0 view .LVU1588
 6038 00a0 6423     		movs	r3, #100
 6039 00a2 0122     		movs	r2, #1
 6040 00a4 0DF10F01 		add	r1, sp, #15
 6041 00a8 3046     		mov	r0, r6
 6042 00aa FFF7FEFF 		bl	_ZN5daisy9SpiHandle16BlockingTransmitEPhjm
 6043              	.LVL433:
 125:../../libDaisy//src/dev/oled_ssd130x.h ****     };
 6044              		.loc 4 125 30 view .LVU1589
 6045              	.LBE1393:
 6046              	.LBE1391:
 6047              	.LBB1394:
 6048              	.LBI1394:
 128:../../libDaisy//src/dev/oled_ssd130x.h ****     {
 6049              		.loc 4 128 10 is_stmt 1 view .LVU1590
 6050              	.LBB1395:
 130:../../libDaisy//src/dev/oled_ssd130x.h ****         spi_.BlockingTransmit(buff, size);
 6051              		.loc 4 130 9 view .LVU1591
 130:../../libDaisy//src/dev/oled_ssd130x.h ****         spi_.BlockingTransmit(buff, size);
 6052              		.loc 4 130 23 is_stmt 0 view .LVU1592
 6053 00ae 0121     		movs	r1, #1
 6054 00b0 2846     		mov	r0, r5
 6055 00b2 FFF7FEFF 		bl	dsy_gpio_write
 6056              	.LVL434:
 131:../../libDaisy//src/dev/oled_ssd130x.h ****     };
 6057              		.loc 4 131 9 is_stmt 1 view .LVU1593
 131:../../libDaisy//src/dev/oled_ssd130x.h ****     };
 6058              		.loc 4 131 30 is_stmt 0 view .LVU1594
 6059 00b6 8022     		movs	r2, #128
 6060 00b8 4146     		mov	r1, r8
 6061 00ba 6423     		movs	r3, #100
 6062 00bc 3046     		mov	r0, r6
 6063              	.LBE1395:
 6064              	.LBE1394:
 6065              		.loc 4 383 22 view .LVU1595
ARM GAS  /var/folders/1y/_321xjh9623c014x9_qw12rr0000gn/T//ccXZVGQV.s 			page 184


 6066 00be 9044     		add	r8, r8, r2
 6067              	.LVL435:
 6068              	.LBB1397:
 6069              	.LBB1396:
 131:../../libDaisy//src/dev/oled_ssd130x.h ****     };
 6070              		.loc 4 131 30 view .LVU1596
 6071 00c0 FFF7FEFF 		bl	_ZN5daisy9SpiHandle16BlockingTransmitEPhjm
 6072              	.LVL436:
 131:../../libDaisy//src/dev/oled_ssd130x.h ****     };
 6073              		.loc 4 131 30 view .LVU1597
 6074              	.LBE1396:
 6075              	.LBE1397:
 6076              		.loc 4 383 9 is_stmt 1 view .LVU1598
 6077              		.loc 4 383 22 view .LVU1599
 6078 00c4 B82C     		cmp	r4, #184
 6079 00c6 C7D1     		bne	.L372
 6080              	.LBE1400:
 6081              	.LBE1403:
 6082              	.LBE1411:
 247:Dubby.cpp     **** }
 6083              		.loc 2 247 1 is_stmt 0 view .LVU1600
 6084 00c8 04B0     		add	sp, sp, #16
 6085              		.cfi_def_cfa_offset 24
 6086              		@ sp needed
 6087 00ca BDE8F081 		pop	{r4, r5, r6, r7, r8, pc}
 6088              	.LVL437:
 6089              	.L376:
 247:Dubby.cpp     **** }
 6090              		.loc 2 247 1 view .LVU1601
 6091 00ce 00BF     		.align	2
 6092              	.L375:
 6093 00d0 00000000 		.word	Font_6x8
 6094              		.cfi_endproc
 6095              	.LFE3754:
 6097              		.section	.text._ZN5daisy5Dubby22DisplayPreferencesMenuEv,"ax",%progbits
 6098              		.align	1
 6099              		.p2align 2,,3
 6100              		.global	_ZN5daisy5Dubby22DisplayPreferencesMenuEv
 6101              		.syntax unified
 6102              		.thumb
 6103              		.thumb_func
 6105              	_ZN5daisy5Dubby22DisplayPreferencesMenuEv:
 6106              	.LVL438:
 6107              	.LFB3759:
 315:Dubby.cpp     **** {
 6108              		.loc 2 315 1 is_stmt 1 view -0
 6109              		.cfi_startproc
 6110              		@ args = 0, pretend = 0, frame = 48
 6111              		@ frame_needed = 0, uses_anonymous_args = 0
 316:Dubby.cpp     ****     display.DrawRect(PANE_X_START, PANE_Y_START, PANE_X_END, PANE_Y_END, false, true);
 6112              		.loc 2 316 5 view .LVU1603
 316:Dubby.cpp     ****     display.DrawRect(PANE_X_START, PANE_Y_START, PANE_X_END, PANE_Y_END, false, true);
 6113              		.loc 2 316 21 is_stmt 0 view .LVU1604
 6114 0000 00F2AC43 		addw	r3, r0, #1196
 315:Dubby.cpp     **** {
 6115              		.loc 2 315 1 view .LVU1605
 6116 0004 2DE9F04F 		push	{r4, r5, r6, r7, r8, r9, r10, fp, lr}
ARM GAS  /var/folders/1y/_321xjh9623c014x9_qw12rr0000gn/T//ccXZVGQV.s 			page 185


 6117              		.cfi_def_cfa_offset 36
 6118              		.cfi_offset 4, -36
 6119              		.cfi_offset 5, -32
 6120              		.cfi_offset 6, -28
 6121              		.cfi_offset 7, -24
 6122              		.cfi_offset 8, -20
 6123              		.cfi_offset 9, -16
 6124              		.cfi_offset 10, -12
 6125              		.cfi_offset 11, -8
 6126              		.cfi_offset 14, -4
 6127              	.LBB1521:
 6128              	.LBB1522:
 6129              	.LBB1523:
 266:../../libDaisy//src/hid/disp/display.h ****             {
 6130              		.loc 3 266 30 view .LVU1606
 6131 0008 0124     		movs	r4, #1
 6132              	.LBE1523:
 6133              	.LBE1522:
 6134              	.LBE1521:
 315:Dubby.cpp     **** {
 6135              		.loc 2 315 1 view .LVU1607
 6136 000a 0546     		mov	r5, r0
 6137 000c 2DED028B 		vpush.64	{d8}
 6138              		.cfi_def_cfa_offset 44
 6139              		.cfi_offset 80, -44
 6140              		.cfi_offset 81, -40
 316:Dubby.cpp     ****     display.DrawRect(PANE_X_START, PANE_Y_START, PANE_X_END, PANE_Y_END, false, true);
 6141              		.loc 2 316 21 view .LVU1608
 6142 0010 08EE103A 		vmov	s16, r3	@ int
 6143              	.LVL439:
 6144              	.LBB1541:
 6145              	.LBI1521:
 257:../../libDaisy//src/hid/disp/display.h ****                   uint_fast8_t y1,
 6146              		.loc 3 257 10 is_stmt 1 view .LVU1609
 6147              	.LBB1539:
 6148              	.LBI1522:
 257:../../libDaisy//src/hid/disp/display.h ****                   uint_fast8_t y1,
 6149              		.loc 3 257 10 view .LVU1610
 6150              	.LBB1537:
 266:../../libDaisy//src/hid/disp/display.h ****             {
 6151              		.loc 3 266 40 view .LVU1611
 6152              	.LBE1537:
 6153              	.LBE1539:
 6154              	.LBE1541:
 315:Dubby.cpp     **** {
 6155              		.loc 2 315 1 is_stmt 0 view .LVU1612
 6156 0014 8FB0     		sub	sp, sp, #60
 6157              		.cfi_def_cfa_offset 104
 6158              	.LVL440:
 6159              	.L379:
 6160              	.LBB1542:
 6161              	.LBB1540:
 6162              	.LBB1538:
 6163              	.LBB1524:
 268:../../libDaisy//src/hid/disp/display.h ****                 {
 6164              		.loc 3 268 44 is_stmt 1 view .LVU1613
 268:../../libDaisy//src/hid/disp/display.h ****                 {
ARM GAS  /var/folders/1y/_321xjh9623c014x9_qw12rr0000gn/T//ccXZVGQV.s 			page 186


 6165              		.loc 3 268 34 is_stmt 0 view .LVU1614
 6166 0016 0122     		movs	r2, #1
 6167              	.LVL441:
 6168              	.L378:
 6169              	.LBB1525:
 6170              	.LBI1525:
  42:../../libDaisy//src/hid/disp/oled_display.h ****     {
 6171              		.loc 1 42 10 is_stmt 1 view .LVU1615
 6172              	.LBB1526:
 6173              	.LBI1526:
 352:../../libDaisy//src/dev/oled_ssd130x.h ****     {
 6174              		.loc 4 352 10 view .LVU1616
 6175              	.LBB1527:
 6176              	.LBI1527:
 352:../../libDaisy//src/dev/oled_ssd130x.h ****     {
 6177              		.loc 4 352 10 view .LVU1617
 6178              	.LBB1528:
 359:../../libDaisy//src/dev/oled_ssd130x.h ****     }
 6179              		.loc 4 359 28 is_stmt 0 view .LVU1618
 6180 0018 D308     		lsrs	r3, r2, #3
 359:../../libDaisy//src/dev/oled_ssd130x.h ****     }
 6181              		.loc 4 359 49 view .LVU1619
 6182 001a 0121     		movs	r1, #1
 359:../../libDaisy//src/dev/oled_ssd130x.h ****     }
 6183              		.loc 4 359 55 view .LVU1620
 6184 001c 02F00700 		and	r0, r2, #7
 359:../../libDaisy//src/dev/oled_ssd130x.h ****     }
 6185              		.loc 4 359 42 view .LVU1621
 6186 0020 04EBC313 		add	r3, r4, r3, lsl #7
 6187              	.LBE1528:
 6188              	.LBE1527:
 6189              	.LBE1526:
 6190              	.LBE1525:
 268:../../libDaisy//src/hid/disp/display.h ****                 {
 6191              		.loc 3 268 17 view .LVU1622
 6192 0024 0A44     		add	r2, r2, r1
 6193              	.LVL442:
 6194              	.LBB1535:
 6195              	.LBB1533:
 6196              	.LBB1531:
 6197              	.LBB1529:
 359:../../libDaisy//src/dev/oled_ssd130x.h ****     }
 6198              		.loc 4 359 49 view .LVU1623
 6199 0026 01FA00F0 		lsl	r0, r1, r0
 359:../../libDaisy//src/dev/oled_ssd130x.h ****     }
 6200              		.loc 4 359 42 view .LVU1624
 6201 002a 2B44     		add	r3, r3, r5
 6202              	.LBE1529:
 6203              	.LBE1531:
 6204              	.LBE1533:
 6205              	.LBE1535:
 268:../../libDaisy//src/hid/disp/display.h ****                 {
 6206              		.loc 3 268 44 view .LVU1625
 6207 002c 342A     		cmp	r2, #52
 6208              	.LBB1536:
 6209              	.LBB1534:
 6210              	.LBB1532:
ARM GAS  /var/folders/1y/_321xjh9623c014x9_qw12rr0000gn/T//ccXZVGQV.s 			page 187


 6211              	.LBB1530:
 359:../../libDaisy//src/dev/oled_ssd130x.h ****     }
 6212              		.loc 4 359 42 view .LVU1626
 6213 002e 93F8C014 		ldrb	r1, [r3, #1216]	@ zero_extendqisi2
 6214 0032 21EA0001 		bic	r1, r1, r0
 6215 0036 83F8C014 		strb	r1, [r3, #1216]
 6216              	.LVL443:
 359:../../libDaisy//src/dev/oled_ssd130x.h ****     }
 6217              		.loc 4 359 42 view .LVU1627
 6218              	.LBE1530:
 6219              	.LBE1532:
 6220              	.LBE1534:
 6221              	.LBE1536:
 268:../../libDaisy//src/hid/disp/display.h ****                 {
 6222              		.loc 3 268 17 is_stmt 1 view .LVU1628
 268:../../libDaisy//src/hid/disp/display.h ****                 {
 6223              		.loc 3 268 44 view .LVU1629
 6224 003a EDD1     		bne	.L378
 6225              	.LBE1524:
 266:../../libDaisy//src/hid/disp/display.h ****             {
 6226              		.loc 3 266 13 view .LVU1630
 6227 003c 0134     		adds	r4, r4, #1
 6228              	.LVL444:
 266:../../libDaisy//src/hid/disp/display.h ****             {
 6229              		.loc 3 266 40 view .LVU1631
 6230 003e 7F2C     		cmp	r4, #127
 6231 0040 E9D1     		bne	.L379
 6232 0042 05F10C03 		add	r3, r5, #12
 6233              	.LBE1538:
 6234              	.LBE1540:
 6235              	.LBE1542:
 6236              	.LBB1543:
 318:Dubby.cpp     ****     for (int i = 0; i < PREFERENCESMENU_LAST; i++)
 6237              		.loc 2 318 14 is_stmt 0 view .LVU1632
 6238 0046 0322     		movs	r2, #3
 6239              	.LVL445:
 318:Dubby.cpp     ****     for (int i = 0; i < PREFERENCESMENU_LAST; i++)
 6240              		.loc 2 318 14 view .LVU1633
 6241 0048 CDE90553 		strd	r5, r3, [sp, #20]
 6242 004c 0023     		movs	r3, #0
 6243 004e CDE90232 		strd	r3, r2, [sp, #8]
 6244              	.LVL446:
 6245              	.L414:
 320:Dubby.cpp     ****         display.SetCursor(5, 3 + (i * 10));
 6246              		.loc 2 320 9 is_stmt 1 view .LVU1634
 6247              	.LBB1544:
 6248              	.LBI1544:
 171:../../libDaisy//src/hid/disp/display.h ****     {
 6249              		.loc 3 171 10 view .LVU1635
 6250              	.LBB1545:
 173:../../libDaisy//src/hid/disp/display.h ****         currentY_ = (y >= Height()) ? Height() - 1 : y;
 6251              		.loc 3 173 9 view .LVU1636
 174:../../libDaisy//src/hid/disp/display.h ****     }
 6252              		.loc 3 174 19 is_stmt 0 view .LVU1637
 6253 0052 0398     		ldr	r0, [sp, #12]
 173:../../libDaisy//src/hid/disp/display.h ****         currentY_ = (y >= Height()) ? Height() - 1 : y;
 6254              		.loc 3 173 19 view .LVU1638
ARM GAS  /var/folders/1y/_321xjh9623c014x9_qw12rr0000gn/T//ccXZVGQV.s 			page 188


 6255 0054 0521     		movs	r1, #5
 6256              	.LBE1545:
 6257              	.LBE1544:
 321:Dubby.cpp     ****         display.WriteString(GetTextForEnum(PREFERENCESMENU, i), Font_6x8, true);
 6258              		.loc 2 321 28 view .LVU1639
 6259 0056 0124     		movs	r4, #1
 6260 0058 324B     		ldr	r3, .L465
 6261              	.LBB1548:
 6262              	.LBB1546:
 174:../../libDaisy//src/hid/disp/display.h ****     }
 6263              		.loc 3 174 19 view .LVU1640
 6264 005a A5F8B204 		strh	r0, [r5, #1202]	@ movhi
 6265              	.LBE1546:
 6266              	.LBE1548:
 321:Dubby.cpp     ****         display.WriteString(GetTextForEnum(PREFERENCESMENU, i), Font_6x8, true);
 6267              		.loc 2 321 28 view .LVU1641
 6268 005e 0698     		ldr	r0, [sp, #24]
 6269              	.LBB1549:
 6270              	.LBB1547:
 173:../../libDaisy//src/hid/disp/display.h ****         currentY_ = (y >= Height()) ? Height() - 1 : y;
 6271              		.loc 3 173 19 view .LVU1642
 6272 0060 A5F8B014 		strh	r1, [r5, #1200]	@ movhi
 174:../../libDaisy//src/hid/disp/display.h ****     }
 6273              		.loc 3 174 9 is_stmt 1 view .LVU1643
 6274              	.LVL447:
 174:../../libDaisy//src/hid/disp/display.h ****     }
 6275              		.loc 3 174 9 is_stmt 0 view .LVU1644
 6276              	.LBE1547:
 6277              	.LBE1549:
 321:Dubby.cpp     ****         display.WriteString(GetTextForEnum(PREFERENCESMENU, i), Font_6x8, true);
 6278              		.loc 2 321 9 is_stmt 1 view .LVU1645
 6279              	.LBB1550:
 6280              	.LBI1550:
 463:Dubby.cpp     **** const char * Dubby::GetTextForEnum(MenuTypes m, int enumVal)
 6281              		.loc 2 463 14 view .LVU1646
 6282              	.LBB1551:
 465:Dubby.cpp     ****     switch (m)
 6283              		.loc 2 465 5 view .LVU1647
 469:Dubby.cpp     ****             break;
 6284              		.loc 2 469 13 view .LVU1648
 470:Dubby.cpp     ****         case PREFERENCESMENU:
 6285              		.loc 2 470 9 view .LVU1649
 471:Dubby.cpp     ****             return PreferencesMenuItemsStrings[enumVal];
 6286              		.loc 2 471 13 view .LVU1650
 471:Dubby.cpp     ****             return PreferencesMenuItemsStrings[enumVal];
 6287              		.loc 2 471 13 is_stmt 0 view .LVU1651
 6288              	.LBE1551:
 6289              	.LBE1550:
 321:Dubby.cpp     ****         display.WriteString(GetTextForEnum(PREFERENCESMENU, i), Font_6x8, true);
 6290              		.loc 2 321 28 view .LVU1652
 6291 0064 50F8041B 		ldr	r1, [r0], #4
 6292 0068 0CCB     		ldm	r3, {r2, r3}
 6293 006a 0690     		str	r0, [sp, #24]
 6294 006c 18EE100A 		vmov	r0, s16	@ int
 6295 0070 0094     		str	r4, [sp]
 6296 0072 FFF7FEFF 		bl	_ZN5daisy25OneBitGraphicsDisplayImplINS_11OledDisplayINS_13SSD130xDriverILj128ELj64ENS_24SSD130
 6297              	.LVL448:
ARM GAS  /var/folders/1y/_321xjh9623c014x9_qw12rr0000gn/T//ccXZVGQV.s 			page 189


 323:Dubby.cpp     ****         if (preferencesMenuItemSelected == i)
 6298              		.loc 2 323 9 is_stmt 1 view .LVU1653
 323:Dubby.cpp     ****         if (preferencesMenuItemSelected == i)
 6299              		.loc 2 323 13 is_stmt 0 view .LVU1654
 6300 0076 95F85D30 		ldrb	r3, [r5, #93]	@ zero_extendqisi2
 323:Dubby.cpp     ****         if (preferencesMenuItemSelected == i)
 6301              		.loc 2 323 9 view .LVU1655
 6302 007a 029A     		ldr	r2, [sp, #8]
 6303 007c 9342     		cmp	r3, r2
 6304 007e 53D0     		beq	.L462
 6305              	.L380:
 318:Dubby.cpp     ****     for (int i = 0; i < PREFERENCESMENU_LAST; i++)
 6306              		.loc 2 318 5 is_stmt 1 view .LVU1656
 318:Dubby.cpp     ****     for (int i = 0; i < PREFERENCESMENU_LAST; i++)
 6307              		.loc 2 318 23 is_stmt 0 view .LVU1657
 6308 0080 039B     		ldr	r3, [sp, #12]
 318:Dubby.cpp     ****     for (int i = 0; i < PREFERENCESMENU_LAST; i++)
 6309              		.loc 2 318 5 view .LVU1658
 6310 0082 029A     		ldr	r2, [sp, #8]
 318:Dubby.cpp     ****     for (int i = 0; i < PREFERENCESMENU_LAST; i++)
 6311              		.loc 2 318 23 view .LVU1659
 6312 0084 0599     		ldr	r1, [sp, #20]
 6313 0086 0A33     		adds	r3, r3, #10
 318:Dubby.cpp     ****     for (int i = 0; i < PREFERENCESMENU_LAST; i++)
 6314              		.loc 2 318 5 view .LVU1660
 6315 0088 0132     		adds	r2, r2, #1
 318:Dubby.cpp     ****     for (int i = 0; i < PREFERENCESMENU_LAST; i++)
 6316              		.loc 2 318 23 view .LVU1661
 6317 008a 1031     		adds	r1, r1, #16
 6318 008c 9BB2     		uxth	r3, r3
 6319 008e 042A     		cmp	r2, #4
 318:Dubby.cpp     ****     for (int i = 0; i < PREFERENCESMENU_LAST; i++)
 6320              		.loc 2 318 5 view .LVU1662
 6321 0090 0292     		str	r2, [sp, #8]
 6322              	.LVL449:
 318:Dubby.cpp     ****     for (int i = 0; i < PREFERENCESMENU_LAST; i++)
 6323              		.loc 2 318 23 is_stmt 1 view .LVU1663
 6324 0092 0591     		str	r1, [sp, #20]
 6325 0094 0393     		str	r3, [sp, #12]
 6326 0096 DCD1     		bne	.L414
 6327              	.LBE1543:
 6328              	.LBB1641:
 6329              	.LBB1642:
 6330              	.LBB1643:
 6331              	.LBB1644:
 6332              	.LBB1645:
 124:../../libDaisy//src/dev/oled_ssd130x.h ****         spi_.BlockingTransmit(&cmd, 1);
 6333              		.loc 4 124 24 is_stmt 0 view .LVU1664
 6334 0098 05F2B447 		addw	r7, r5, #1204
 6335 009c 05F2BC46 		addw	r6, r5, #1212
 6336 00a0 05F59864 		add	r4, r5, #1216
 125:../../libDaisy//src/dev/oled_ssd130x.h ****     };
 6337              		.loc 4 125 30 view .LVU1665
 6338 00a4 B025     		movs	r5, #176
 6339              	.LVL450:
 6340              	.L415:
 125:../../libDaisy//src/dev/oled_ssd130x.h ****     };
ARM GAS  /var/folders/1y/_321xjh9623c014x9_qw12rr0000gn/T//ccXZVGQV.s 			page 190


 6341              		.loc 4 125 30 view .LVU1666
 6342 00a6 4FF00008 		mov	r8, #0
 124:../../libDaisy//src/dev/oled_ssd130x.h ****         spi_.BlockingTransmit(&cmd, 1);
 6343              		.loc 4 124 23 view .LVU1667
 6344 00aa 3046     		mov	r0, r6
 6345 00ac 8DF83750 		strb	r5, [sp, #55]
 6346              	.LVL451:
 124:../../libDaisy//src/dev/oled_ssd130x.h ****         spi_.BlockingTransmit(&cmd, 1);
 6347              		.loc 4 124 23 view .LVU1668
 6348              	.LBE1645:
 6349              	.LBI1644:
 122:../../libDaisy//src/dev/oled_ssd130x.h ****     {
 6350              		.loc 4 122 10 is_stmt 1 view .LVU1669
 6351              	.LBB1646:
 124:../../libDaisy//src/dev/oled_ssd130x.h ****         spi_.BlockingTransmit(&cmd, 1);
 6352              		.loc 4 124 9 view .LVU1670
 6353              	.LBE1646:
 6354              	.LBE1644:
 6355              		.loc 4 383 22 is_stmt 0 view .LVU1671
 6356 00b0 0135     		adds	r5, r5, #1
 6357              	.LVL452:
 6358              	.LBB1649:
 6359              	.LBB1647:
 124:../../libDaisy//src/dev/oled_ssd130x.h ****         spi_.BlockingTransmit(&cmd, 1);
 6360              		.loc 4 124 23 view .LVU1672
 6361 00b2 4146     		mov	r1, r8
 6362 00b4 FFF7FEFF 		bl	dsy_gpio_write
 6363              	.LVL453:
 125:../../libDaisy//src/dev/oled_ssd130x.h ****     };
 6364              		.loc 4 125 9 is_stmt 1 view .LVU1673
 125:../../libDaisy//src/dev/oled_ssd130x.h ****     };
 6365              		.loc 4 125 30 is_stmt 0 view .LVU1674
 6366 00b8 6423     		movs	r3, #100
 6367 00ba 0122     		movs	r2, #1
 6368 00bc 0DF13701 		add	r1, sp, #55
 6369 00c0 3846     		mov	r0, r7
 6370              	.LBE1647:
 6371              	.LBE1649:
 6372              		.loc 4 383 22 view .LVU1675
 6373 00c2 EDB2     		uxtb	r5, r5
 6374              	.LBB1650:
 6375              	.LBB1648:
 125:../../libDaisy//src/dev/oled_ssd130x.h ****     };
 6376              		.loc 4 125 30 view .LVU1676
 6377 00c4 FFF7FEFF 		bl	_ZN5daisy9SpiHandle16BlockingTransmitEPhjm
 6378              	.LVL454:
 125:../../libDaisy//src/dev/oled_ssd130x.h ****     };
 6379              		.loc 4 125 30 view .LVU1677
 6380              	.LBE1648:
 6381              	.LBE1650:
 6382              	.LBB1651:
 6383              	.LBB1652:
 124:../../libDaisy//src/dev/oled_ssd130x.h ****         spi_.BlockingTransmit(&cmd, 1);
 6384              		.loc 4 124 23 view .LVU1678
 6385 00c8 4146     		mov	r1, r8
 6386 00ca 3046     		mov	r0, r6
 6387 00cc 8DF83780 		strb	r8, [sp, #55]
ARM GAS  /var/folders/1y/_321xjh9623c014x9_qw12rr0000gn/T//ccXZVGQV.s 			page 191


 6388              	.LVL455:
 124:../../libDaisy//src/dev/oled_ssd130x.h ****         spi_.BlockingTransmit(&cmd, 1);
 6389              		.loc 4 124 23 view .LVU1679
 6390              	.LBE1652:
 6391              	.LBI1651:
 122:../../libDaisy//src/dev/oled_ssd130x.h ****     {
 6392              		.loc 4 122 10 is_stmt 1 view .LVU1680
 6393              	.LBB1653:
 124:../../libDaisy//src/dev/oled_ssd130x.h ****         spi_.BlockingTransmit(&cmd, 1);
 6394              		.loc 4 124 9 view .LVU1681
 124:../../libDaisy//src/dev/oled_ssd130x.h ****         spi_.BlockingTransmit(&cmd, 1);
 6395              		.loc 4 124 23 is_stmt 0 view .LVU1682
 6396 00d0 FFF7FEFF 		bl	dsy_gpio_write
 6397              	.LVL456:
 125:../../libDaisy//src/dev/oled_ssd130x.h ****     };
 6398              		.loc 4 125 9 is_stmt 1 view .LVU1683
 125:../../libDaisy//src/dev/oled_ssd130x.h ****     };
 6399              		.loc 4 125 30 is_stmt 0 view .LVU1684
 6400 00d4 0122     		movs	r2, #1
 6401 00d6 6423     		movs	r3, #100
 6402 00d8 0DF13701 		add	r1, sp, #55
 6403 00dc 3846     		mov	r0, r7
 6404 00de FFF7FEFF 		bl	_ZN5daisy9SpiHandle16BlockingTransmitEPhjm
 6405              	.LVL457:
 125:../../libDaisy//src/dev/oled_ssd130x.h ****     };
 6406              		.loc 4 125 30 view .LVU1685
 6407 00e2 1023     		movs	r3, #16
 6408              	.LBE1653:
 6409              	.LBE1651:
 6410              	.LBB1654:
 6411              	.LBB1655:
 124:../../libDaisy//src/dev/oled_ssd130x.h ****         spi_.BlockingTransmit(&cmd, 1);
 6412              		.loc 4 124 23 view .LVU1686
 6413 00e4 4146     		mov	r1, r8
 6414 00e6 3046     		mov	r0, r6
 6415 00e8 8DF83730 		strb	r3, [sp, #55]
 6416              	.LVL458:
 124:../../libDaisy//src/dev/oled_ssd130x.h ****         spi_.BlockingTransmit(&cmd, 1);
 6417              		.loc 4 124 23 view .LVU1687
 6418              	.LBE1655:
 6419              	.LBI1654:
 122:../../libDaisy//src/dev/oled_ssd130x.h ****     {
 6420              		.loc 4 122 10 is_stmt 1 view .LVU1688
 6421              	.LBB1656:
 124:../../libDaisy//src/dev/oled_ssd130x.h ****         spi_.BlockingTransmit(&cmd, 1);
 6422              		.loc 4 124 9 view .LVU1689
 124:../../libDaisy//src/dev/oled_ssd130x.h ****         spi_.BlockingTransmit(&cmd, 1);
 6423              		.loc 4 124 23 is_stmt 0 view .LVU1690
 6424 00ec FFF7FEFF 		bl	dsy_gpio_write
 6425              	.LVL459:
 125:../../libDaisy//src/dev/oled_ssd130x.h ****     };
 6426              		.loc 4 125 9 is_stmt 1 view .LVU1691
 125:../../libDaisy//src/dev/oled_ssd130x.h ****     };
 6427              		.loc 4 125 30 is_stmt 0 view .LVU1692
 6428 00f0 6423     		movs	r3, #100
 6429 00f2 0122     		movs	r2, #1
 6430 00f4 0DF13701 		add	r1, sp, #55
ARM GAS  /var/folders/1y/_321xjh9623c014x9_qw12rr0000gn/T//ccXZVGQV.s 			page 192


 6431 00f8 3846     		mov	r0, r7
 6432 00fa FFF7FEFF 		bl	_ZN5daisy9SpiHandle16BlockingTransmitEPhjm
 6433              	.LVL460:
 125:../../libDaisy//src/dev/oled_ssd130x.h ****     };
 6434              		.loc 4 125 30 view .LVU1693
 6435              	.LBE1656:
 6436              	.LBE1654:
 6437              	.LBB1657:
 6438              	.LBI1657:
 128:../../libDaisy//src/dev/oled_ssd130x.h ****     {
 6439              		.loc 4 128 10 is_stmt 1 view .LVU1694
 6440              	.LBB1658:
 130:../../libDaisy//src/dev/oled_ssd130x.h ****         spi_.BlockingTransmit(buff, size);
 6441              		.loc 4 130 9 view .LVU1695
 130:../../libDaisy//src/dev/oled_ssd130x.h ****         spi_.BlockingTransmit(buff, size);
 6442              		.loc 4 130 23 is_stmt 0 view .LVU1696
 6443 00fe 0121     		movs	r1, #1
 6444 0100 3046     		mov	r0, r6
 6445 0102 FFF7FEFF 		bl	dsy_gpio_write
 6446              	.LVL461:
 131:../../libDaisy//src/dev/oled_ssd130x.h ****     };
 6447              		.loc 4 131 9 is_stmt 1 view .LVU1697
 131:../../libDaisy//src/dev/oled_ssd130x.h ****     };
 6448              		.loc 4 131 30 is_stmt 0 view .LVU1698
 6449 0106 8022     		movs	r2, #128
 6450 0108 2146     		mov	r1, r4
 6451 010a 6423     		movs	r3, #100
 6452 010c 3846     		mov	r0, r7
 6453              	.LBE1658:
 6454              	.LBE1657:
 6455              		.loc 4 383 22 view .LVU1699
 6456 010e 1444     		add	r4, r4, r2
 6457              	.LVL462:
 6458              	.LBB1660:
 6459              	.LBB1659:
 131:../../libDaisy//src/dev/oled_ssd130x.h ****     };
 6460              		.loc 4 131 30 view .LVU1700
 6461 0110 FFF7FEFF 		bl	_ZN5daisy9SpiHandle16BlockingTransmitEPhjm
 6462              	.LVL463:
 131:../../libDaisy//src/dev/oled_ssd130x.h ****     };
 6463              		.loc 4 131 30 view .LVU1701
 6464              	.LBE1659:
 6465              	.LBE1660:
 6466              		.loc 4 383 9 is_stmt 1 view .LVU1702
 6467              		.loc 4 383 22 view .LVU1703
 6468 0114 B82D     		cmp	r5, #184
 6469 0116 C6D1     		bne	.L415
 6470              	.LBE1643:
 6471              	.LBE1642:
 6472              	.LBE1641:
 328:Dubby.cpp     **** }
 6473              		.loc 2 328 1 is_stmt 0 view .LVU1704
 6474 0118 0FB0     		add	sp, sp, #60
 6475              		.cfi_remember_state
 6476              		.cfi_def_cfa_offset 44
 6477              		@ sp needed
 6478 011a BDEC028B 		vldm	sp!, {d8}
ARM GAS  /var/folders/1y/_321xjh9623c014x9_qw12rr0000gn/T//ccXZVGQV.s 			page 193


 6479              		.cfi_restore 80
 6480              		.cfi_restore 81
 6481              		.cfi_def_cfa_offset 36
 6482 011e BDE8F08F 		pop	{r4, r5, r6, r7, r8, r9, r10, fp, pc}
 6483              	.LVL464:
 6484              	.L466:
 328:Dubby.cpp     **** }
 6485              		.loc 2 328 1 view .LVU1705
 6486 0122 00BF     		.align	2
 6487              	.L465:
 6488 0124 00000000 		.word	Font_6x8
 6489              	.LVL465:
 6490              	.L462:
 6491              		.cfi_restore_state
 6492              	.LBB1661:
 324:Dubby.cpp     ****             display.DrawRect(submenuBoxBounding[i][0], submenuBoxBounding[i][1], submenuBoxBounding
 6493              		.loc 2 324 13 is_stmt 1 view .LVU1706
 324:Dubby.cpp     ****             display.DrawRect(submenuBoxBounding[i][0], submenuBoxBounding[i][1], submenuBoxBounding
 6494              		.loc 2 324 105 is_stmt 0 view .LVU1707
 6495 0128 059B     		ldr	r3, [sp, #20]
 6496 012a D3F8B060 		ldr	r6, [r3, #176]
 324:Dubby.cpp     ****             display.DrawRect(submenuBoxBounding[i][0], submenuBoxBounding[i][1], submenuBoxBounding
 6497              		.loc 2 324 53 view .LVU1708
 6498 012e D3F8A870 		ldr	r7, [r3, #168]
 324:Dubby.cpp     ****             display.DrawRect(submenuBoxBounding[i][0], submenuBoxBounding[i][1], submenuBoxBounding
 6499              		.loc 2 324 131 view .LVU1709
 6500 0132 D3F8B4C0 		ldr	ip, [r3, #180]
 324:Dubby.cpp     ****             display.DrawRect(submenuBoxBounding[i][0], submenuBoxBounding[i][1], submenuBoxBounding
 6501              		.loc 2 324 29 view .LVU1710
 6502 0136 3046     		mov	r0, r6
 6503              	.LBB1552:
 6504              	.LBB1553:
 6505              	.LBB1554:
 227:../../libDaisy//src/hid/disp/display.h ****         int_fast16_t deltaY = abs((int_fast16_t)y2 - (int_fast16_t)y1);
 6506              		.loc 3 227 52 view .LVU1711
 6507 0138 A6EB0709 		sub	r9, r6, r7
 6508              	.LBE1554:
 6509              	.LBE1553:
 6510              	.LBE1552:
 324:Dubby.cpp     ****             display.DrawRect(submenuBoxBounding[i][0], submenuBoxBounding[i][1], submenuBoxBounding
 6511              		.loc 2 324 79 view .LVU1712
 6512 013c D3F8AC30 		ldr	r3, [r3, #172]
 324:Dubby.cpp     ****             display.DrawRect(submenuBoxBounding[i][0], submenuBoxBounding[i][1], submenuBoxBounding
 6513              		.loc 2 324 29 view .LVU1713
 6514 0140 6246     		mov	r2, ip
 6515              	.LBB1635:
 6516              	.LBB1572:
 6517              	.LBB1567:
 227:../../libDaisy//src/hid/disp/display.h ****         int_fast16_t deltaY = abs((int_fast16_t)y2 - (int_fast16_t)y1);
 6518              		.loc 3 227 22 view .LVU1714
 6519 0142 B9F1000F 		cmp	r9, #0
 6520              	.LBE1567:
 6521              	.LBE1572:
 6522              	.LBE1635:
 324:Dubby.cpp     ****             display.DrawRect(submenuBoxBounding[i][0], submenuBoxBounding[i][1], submenuBoxBounding
 6523              		.loc 2 324 79 view .LVU1715
 6524 0146 0493     		str	r3, [sp, #16]
ARM GAS  /var/folders/1y/_321xjh9623c014x9_qw12rr0000gn/T//ccXZVGQV.s 			page 194


 6525              	.LVL466:
 6526              	.LBB1636:
 6527              	.LBI1552:
 257:../../libDaisy//src/hid/disp/display.h ****                   uint_fast8_t y1,
 6528              		.loc 3 257 10 is_stmt 1 view .LVU1716
 6529              	.LBB1573:
 6530              	.LBI1553:
 221:../../libDaisy//src/hid/disp/display.h ****                   uint_fast8_t y1,
 6531              		.loc 3 221 10 view .LVU1717
 6532              	.LBB1568:
 227:../../libDaisy//src/hid/disp/display.h ****         int_fast16_t deltaY = abs((int_fast16_t)y2 - (int_fast16_t)y1);
 6533              		.loc 3 227 22 is_stmt 0 view .LVU1718
 6534 0148 B8BF     		it	lt
 6535 014a C9F10009 		rsblt	r9, r9, #0
 6536              	.LVL467:
 229:../../libDaisy//src/hid/disp/display.h ****         int_fast16_t signY  = ((y1 < y2) ? 1 : -1);
 6537              		.loc 3 229 42 view .LVU1719
 6538 014e B742     		cmp	r7, r6
 6539 0150 C0F03E81 		bcc	.L381
 6540              	.LVL468:
 6541              	.LBB1555:
 6542              	.LBI1555:
  42:../../libDaisy//src/hid/disp/oled_display.h ****     {
 6543              		.loc 1 42 10 is_stmt 1 view .LVU1720
 6544              	.LBB1556:
 6545              	.LBI1556:
 352:../../libDaisy//src/dev/oled_ssd130x.h ****     {
 6546              		.loc 4 352 10 view .LVU1721
 6547              	.LBB1557:
 354:../../libDaisy//src/dev/oled_ssd130x.h ****             return;
 6548              		.loc 4 354 14 is_stmt 0 view .LVU1722
 6549 0154 7F2E     		cmp	r6, #127
 6550              	.LBE1557:
 6551              	.LBE1556:
 6552              	.LBE1555:
 229:../../libDaisy//src/hid/disp/display.h ****         int_fast16_t signY  = ((y1 < y2) ? 1 : -1);
 6553              		.loc 3 229 42 view .LVU1723
 6554 0156 4FF0FF3B 		mov	fp, #-1
 6555              	.LBB1562:
 6556              	.LBB1560:
 6557              	.LBB1558:
 354:../../libDaisy//src/dev/oled_ssd130x.h ****             return;
 6558              		.loc 4 354 14 view .LVU1724
 6559 015a 94BF     		ite	ls
 6560 015c 0021     		movls	r1, #0
 6561 015e 0121     		movhi	r1, #1
 354:../../libDaisy//src/dev/oled_ssd130x.h ****             return;
 6562              		.loc 4 354 28 view .LVU1725
 6563 0160 3F2B     		cmp	r3, #63
 354:../../libDaisy//src/dev/oled_ssd130x.h ****             return;
 6564              		.loc 4 354 14 view .LVU1726
 6565 0162 0891     		str	r1, [sp, #32]
 354:../../libDaisy//src/dev/oled_ssd130x.h ****             return;
 6566              		.loc 4 354 28 view .LVU1727
 6567 0164 94BF     		ite	ls
 6568 0166 0023     		movls	r3, #0
 6569              	.LVL469:
ARM GAS  /var/folders/1y/_321xjh9623c014x9_qw12rr0000gn/T//ccXZVGQV.s 			page 195


 354:../../libDaisy//src/dev/oled_ssd130x.h ****             return;
 6570              		.loc 4 354 28 view .LVU1728
 6571 0168 0123     		movhi	r3, #1
 6572 016a 0993     		str	r3, [sp, #36]
 354:../../libDaisy//src/dev/oled_ssd130x.h ****             return;
 6573              		.loc 4 354 9 view .LVU1729
 6574 016c 91B9     		cbnz	r1, .L382
 6575 016e 8BB9     		cbnz	r3, .L382
 6576              	.LVL470:
 6577              	.L417:
 357:../../libDaisy//src/dev/oled_ssd130x.h ****         else
 6578              		.loc 4 357 28 view .LVU1730
 6579 0170 0499     		ldr	r1, [sp, #16]
 357:../../libDaisy//src/dev/oled_ssd130x.h ****         else
 6580              		.loc 4 357 48 view .LVU1731
 6581 0172 0124     		movs	r4, #1
 357:../../libDaisy//src/dev/oled_ssd130x.h ****         else
 6582              		.loc 4 357 28 view .LVU1732
 6583 0174 CB08     		lsrs	r3, r1, #3
 357:../../libDaisy//src/dev/oled_ssd130x.h ****         else
 6584              		.loc 4 357 54 view .LVU1733
 6585 0176 01F00701 		and	r1, r1, #7
 357:../../libDaisy//src/dev/oled_ssd130x.h ****         else
 6586              		.loc 4 357 42 view .LVU1734
 6587 017a 06EBC313 		add	r3, r6, r3, lsl #7
 357:../../libDaisy//src/dev/oled_ssd130x.h ****         else
 6588              		.loc 4 357 48 view .LVU1735
 6589 017e 04FA01F1 		lsl	r1, r4, r1
 357:../../libDaisy//src/dev/oled_ssd130x.h ****         else
 6590              		.loc 4 357 42 view .LVU1736
 6591 0182 2B44     		add	r3, r3, r5
 6592 0184 93F8C044 		ldrb	r4, [r3, #1216]	@ zero_extendqisi2
 6593 0188 2143     		orrs	r1, r1, r4
 6594 018a 83F8C014 		strb	r1, [r3, #1216]
 6595              	.LVL471:
 357:../../libDaisy//src/dev/oled_ssd130x.h ****         else
 6596              		.loc 4 357 42 view .LVU1737
 6597 018e 0023     		movs	r3, #0
 6598 0190 CDE90833 		strd	r3, r3, [sp, #32]
 6599              	.L382:
 6600              	.LVL472:
 357:../../libDaisy//src/dev/oled_ssd130x.h ****         else
 6601              		.loc 4 357 42 view .LVU1738
 6602              	.LBE1558:
 6603              	.LBE1560:
 6604              	.LBE1562:
 239:../../libDaisy//src/hid/disp/display.h ****         {
 6605              		.loc 3 239 26 is_stmt 1 view .LVU1739
 6606 0194 B742     		cmp	r7, r6
 6607 0196 00F04381 		beq	.L463
 6608              	.L384:
 6609              	.LVL473:
 227:../../libDaisy//src/hid/disp/display.h ****         int_fast16_t deltaY = abs((int_fast16_t)y2 - (int_fast16_t)y1);
 6610              		.loc 3 227 22 is_stmt 0 view .LVU1740
 6611 019a C846     		mov	r8, r9
 6612              	.LBE1568:
 6613              	.LBE1573:
ARM GAS  /var/folders/1y/_321xjh9623c014x9_qw12rr0000gn/T//ccXZVGQV.s 			page 196


 6614              	.LBE1636:
 324:Dubby.cpp     ****             display.DrawRect(submenuBoxBounding[i][0], submenuBoxBounding[i][1], submenuBoxBounding
 6615              		.loc 2 324 29 view .LVU1741
 6616 019c 049C     		ldr	r4, [sp, #16]
 6617 019e BE46     		mov	lr, r7
 6618              	.L386:
 6619              	.LVL474:
 6620              	.LBB1637:
 6621              	.LBB1574:
 6622              	.LBB1569:
 6623              	.LBB1563:
 6624              	.LBI1563:
  42:../../libDaisy//src/hid/disp/oled_display.h ****     {
 6625              		.loc 1 42 10 is_stmt 1 view .LVU1742
 6626              	.LBB1564:
 6627              	.LBI1564:
 352:../../libDaisy//src/dev/oled_ssd130x.h ****     {
 6628              		.loc 4 352 10 view .LVU1743
 6629              	.LBB1565:
 357:../../libDaisy//src/dev/oled_ssd130x.h ****         else
 6630              		.loc 4 357 28 is_stmt 0 view .LVU1744
 6631 01a0 E308     		lsrs	r3, r4, #3
 357:../../libDaisy//src/dev/oled_ssd130x.h ****         else
 6632              		.loc 4 357 54 view .LVU1745
 6633 01a2 04F00701 		and	r1, r4, #7
 357:../../libDaisy//src/dev/oled_ssd130x.h ****         else
 6634              		.loc 4 357 48 view .LVU1746
 6635 01a6 4FF0010A 		mov	r10, #1
 354:../../libDaisy//src/dev/oled_ssd130x.h ****             return;
 6636              		.loc 4 354 9 view .LVU1747
 6637 01aa BEF17F0F 		cmp	lr, #127
 357:../../libDaisy//src/dev/oled_ssd130x.h ****         else
 6638              		.loc 4 357 42 view .LVU1748
 6639 01ae 0EEBC313 		add	r3, lr, r3, lsl #7
 357:../../libDaisy//src/dev/oled_ssd130x.h ****         else
 6640              		.loc 4 357 48 view .LVU1749
 6641 01b2 0AFA01F1 		lsl	r1, r10, r1
 354:../../libDaisy//src/dev/oled_ssd130x.h ****             return;
 6642              		.loc 4 354 9 view .LVU1750
 6643 01b6 08D8     		bhi	.L387
 6644 01b8 3F2C     		cmp	r4, #63
 357:../../libDaisy//src/dev/oled_ssd130x.h ****         else
 6645              		.loc 4 357 42 view .LVU1751
 6646 01ba 2B44     		add	r3, r3, r5
 354:../../libDaisy//src/dev/oled_ssd130x.h ****             return;
 6647              		.loc 4 354 9 view .LVU1752
 6648 01bc 05D8     		bhi	.L387
 357:../../libDaisy//src/dev/oled_ssd130x.h ****         else
 6649              		.loc 4 357 42 view .LVU1753
 6650 01be 93F8C0A4 		ldrb	r10, [r3, #1216]	@ zero_extendqisi2
 6651 01c2 41EA0A01 		orr	r1, r1, r10
 6652 01c6 83F8C014 		strb	r1, [r3, #1216]
 6653              	.L387:
 357:../../libDaisy//src/dev/oled_ssd130x.h ****         else
 6654              		.loc 4 357 42 view .LVU1754
 6655              	.LBE1565:
 6656              	.LBE1564:
ARM GAS  /var/folders/1y/_321xjh9623c014x9_qw12rr0000gn/T//ccXZVGQV.s 			page 197


 6657              	.LBE1563:
 243:../../libDaisy//src/hid/disp/display.h ****             {
 6658              		.loc 3 243 13 view .LVU1755
 6659 01ca 5FEA4803 		lsls	r3, r8, #1
 246:../../libDaisy//src/hid/disp/display.h ****             }
 6660              		.loc 3 246 20 view .LVU1756
 6661 01ce 18BF     		it	ne
 6662 01d0 DE44     		addne	lr, lr, fp
 6663              	.LVL475:
 249:../../libDaisy//src/hid/disp/display.h ****             {
 6664              		.loc 3 249 13 view .LVU1757
 6665 01d2 9945     		cmp	r9, r3
 6666 01d4 01DD     		ble	.L389
 251:../../libDaisy//src/hid/disp/display.h ****                 y1 += signY;
 6667              		.loc 3 251 23 view .LVU1758
 6668 01d6 C844     		add	r8, r8, r9
 6669              	.LVL476:
 252:../../libDaisy//src/hid/disp/display.h ****             }
 6670              		.loc 3 252 20 view .LVU1759
 6671 01d8 013C     		subs	r4, r4, #1
 6672              	.LVL477:
 6673              	.L389:
 239:../../libDaisy//src/hid/disp/display.h ****         {
 6674              		.loc 3 239 26 is_stmt 1 view .LVU1760
 6675 01da 7645     		cmp	r6, lr
 6676 01dc E0D1     		bne	.L386
 239:../../libDaisy//src/hid/disp/display.h ****         {
 6677              		.loc 3 239 26 is_stmt 0 view .LVU1761
 6678 01de 049B     		ldr	r3, [sp, #16]
 6679 01e0 A342     		cmp	r3, r4
 6680 01e2 DDD1     		bne	.L386
 6681 01e4 0023     		movs	r3, #0
 6682 01e6 0B93     		str	r3, [sp, #44]
 6683              	.LVL478:
 6684              	.L383:
 239:../../libDaisy//src/hid/disp/display.h ****         {
 6685              		.loc 3 239 26 view .LVU1762
 6686              	.LBE1569:
 6687              	.LBE1574:
 6688              	.LBB1575:
 6689              	.LBI1575:
 221:../../libDaisy//src/hid/disp/display.h ****                   uint_fast8_t y1,
 6690              		.loc 3 221 10 is_stmt 1 view .LVU1763
 6691              	.LBB1576:
 228:../../libDaisy//src/hid/disp/display.h ****         int_fast16_t signX  = ((x1 < x2) ? 1 : -1);
 6692              		.loc 3 228 52 is_stmt 0 view .LVU1764
 6693 01e8 0499     		ldr	r1, [sp, #16]
 6694 01ea ACEB0103 		sub	r3, ip, r1
 230:../../libDaisy//src/hid/disp/display.h ****         int_fast16_t error  = deltaX - deltaY;
 6695              		.loc 3 230 42 view .LVU1765
 6696 01ee 6145     		cmp	r1, ip
 228:../../libDaisy//src/hid/disp/display.h ****         int_fast16_t signX  = ((x1 < x2) ? 1 : -1);
 6697              		.loc 3 228 22 view .LVU1766
 6698 01f0 83EAE374 		eor	r4, r3, r3, asr #31
 6699 01f4 A4EBE374 		sub	r4, r4, r3, asr #31
 6700 01f8 2346     		mov	r3, r4
 6701 01fa 0794     		str	r4, [sp, #28]
ARM GAS  /var/folders/1y/_321xjh9623c014x9_qw12rr0000gn/T//ccXZVGQV.s 			page 198


 6702              	.LVL479:
 230:../../libDaisy//src/hid/disp/display.h ****         int_fast16_t error  = deltaX - deltaY;
 6703              		.loc 3 230 42 view .LVU1767
 6704 01fc C0F0F780 		bcc	.L390
 6705              	.LVL480:
 6706              	.LBB1577:
 6707              	.LBB1578:
 6708              	.LBB1579:
 354:../../libDaisy//src/dev/oled_ssd130x.h ****             return;
 6709              		.loc 4 354 28 view .LVU1768
 6710 0200 BCF13F0F 		cmp	ip, #63
 354:../../libDaisy//src/dev/oled_ssd130x.h ****             return;
 6711              		.loc 4 354 9 view .LVU1769
 6712 0204 0899     		ldr	r1, [sp, #32]
 6713              	.LBE1579:
 6714              	.LBE1578:
 6715              	.LBE1577:
 231:../../libDaisy//src/hid/disp/display.h ****         int_fast16_t error2;
 6716              		.loc 3 231 22 view .LVU1770
 6717 0206 C4F1000A 		rsb	r10, r4, #0
 6718              	.LVL481:
 6719              	.LBB1588:
 6720              	.LBI1577:
  42:../../libDaisy//src/hid/disp/oled_display.h ****     {
 6721              		.loc 1 42 10 is_stmt 1 view .LVU1771
 6722              	.LBB1584:
 6723              	.LBI1578:
 352:../../libDaisy//src/dev/oled_ssd130x.h ****     {
 6724              		.loc 4 352 10 view .LVU1772
 6725              	.LBB1580:
 354:../../libDaisy//src/dev/oled_ssd130x.h ****             return;
 6726              		.loc 4 354 28 is_stmt 0 view .LVU1773
 6727 020a 94BF     		ite	ls
 6728 020c 0023     		movls	r3, #0
 6729              	.LVL482:
 354:../../libDaisy//src/dev/oled_ssd130x.h ****             return;
 6730              		.loc 4 354 28 view .LVU1774
 6731 020e 0123     		movhi	r3, #1
 6732 0210 0A93     		str	r3, [sp, #40]
 354:../../libDaisy//src/dev/oled_ssd130x.h ****             return;
 6733              		.loc 4 354 9 view .LVU1775
 6734 0212 0029     		cmp	r1, #0
 6735 0214 40F0FA80 		bne	.L421
 6736 0218 002B     		cmp	r3, #0
 6737 021a 40F0F780 		bne	.L421
 6738              	.LBE1580:
 6739              	.LBE1584:
 6740              	.LBE1588:
 230:../../libDaisy//src/hid/disp/display.h ****         int_fast16_t error  = deltaX - deltaY;
 6741              		.loc 3 230 42 view .LVU1776
 6742 021e 4FF0FF33 		mov	r3, #-1
 6743 0222 0893     		str	r3, [sp, #32]
 6744              	.LVL483:
 6745              	.L416:
 6746              	.LBB1589:
 6747              	.LBB1585:
 6748              	.LBB1581:
ARM GAS  /var/folders/1y/_321xjh9623c014x9_qw12rr0000gn/T//ccXZVGQV.s 			page 199


 357:../../libDaisy//src/dev/oled_ssd130x.h ****         else
 6749              		.loc 4 357 28 view .LVU1777
 6750 0224 4FEADC03 		lsr	r3, ip, #3
 357:../../libDaisy//src/dev/oled_ssd130x.h ****         else
 6751              		.loc 4 357 48 view .LVU1778
 6752 0228 0124     		movs	r4, #1
 6753              	.LVL484:
 357:../../libDaisy//src/dev/oled_ssd130x.h ****         else
 6754              		.loc 4 357 54 view .LVU1779
 6755 022a 0CF00701 		and	r1, ip, #7
 357:../../libDaisy//src/dev/oled_ssd130x.h ****         else
 6756              		.loc 4 357 42 view .LVU1780
 6757 022e 06EBC313 		add	r3, r6, r3, lsl #7
 357:../../libDaisy//src/dev/oled_ssd130x.h ****         else
 6758              		.loc 4 357 48 view .LVU1781
 6759 0232 04FA01F1 		lsl	r1, r4, r1
 357:../../libDaisy//src/dev/oled_ssd130x.h ****         else
 6760              		.loc 4 357 42 view .LVU1782
 6761 0236 2B44     		add	r3, r3, r5
 6762 0238 93F8C044 		ldrb	r4, [r3, #1216]	@ zero_extendqisi2
 6763 023c 2143     		orrs	r1, r1, r4
 6764 023e 83F8C014 		strb	r1, [r3, #1216]
 6765 0242 0023     		movs	r3, #0
 6766 0244 0A93     		str	r3, [sp, #40]
 6767              	.L391:
 6768              	.LVL485:
 357:../../libDaisy//src/dev/oled_ssd130x.h ****         else
 6769              		.loc 4 357 42 view .LVU1783
 6770              	.LBE1581:
 6771              	.LBE1585:
 6772              	.LBE1589:
 239:../../libDaisy//src/hid/disp/display.h ****         {
 6773              		.loc 3 239 26 is_stmt 1 view .LVU1784
 6774 0246 049B     		ldr	r3, [sp, #16]
 6775 0248 6345     		cmp	r3, ip
 6776 024a 00F0EC80 		beq	.L464
 6777              	.L393:
 6778              	.LVL486:
 230:../../libDaisy//src/hid/disp/display.h ****         int_fast16_t error  = deltaX - deltaY;
 6779              		.loc 3 230 42 is_stmt 0 view .LVU1785
 6780 024e D646     		mov	lr, r10
 6781              	.LBE1576:
 6782              	.LBE1575:
 6783              	.LBE1637:
 324:Dubby.cpp     ****             display.DrawRect(submenuBoxBounding[i][0], submenuBoxBounding[i][1], submenuBoxBounding
 6784              		.loc 2 324 29 view .LVU1786
 6785 0250 0499     		ldr	r1, [sp, #16]
 6786 0252 3446     		mov	r4, r6
 6787              	.L395:
 6788              	.LVL487:
 6789              	.LBB1638:
 6790              	.LBB1601:
 6791              	.LBB1598:
 6792              	.LBB1590:
 6793              	.LBI1590:
  42:../../libDaisy//src/hid/disp/oled_display.h ****     {
 6794              		.loc 1 42 10 is_stmt 1 view .LVU1787
ARM GAS  /var/folders/1y/_321xjh9623c014x9_qw12rr0000gn/T//ccXZVGQV.s 			page 200


 6795              	.LBB1591:
 6796              	.LBI1591:
 352:../../libDaisy//src/dev/oled_ssd130x.h ****     {
 6797              		.loc 4 352 10 view .LVU1788
 6798              	.LBB1592:
 357:../../libDaisy//src/dev/oled_ssd130x.h ****         else
 6799              		.loc 4 357 48 is_stmt 0 view .LVU1789
 6800 0254 4FF00109 		mov	r9, #1
 357:../../libDaisy//src/dev/oled_ssd130x.h ****         else
 6801              		.loc 4 357 28 view .LVU1790
 6802 0258 CB08     		lsrs	r3, r1, #3
 357:../../libDaisy//src/dev/oled_ssd130x.h ****         else
 6803              		.loc 4 357 54 view .LVU1791
 6804 025a 01F00708 		and	r8, r1, #7
 354:../../libDaisy//src/dev/oled_ssd130x.h ****             return;
 6805              		.loc 4 354 9 view .LVU1792
 6806 025e 7F2C     		cmp	r4, #127
 357:../../libDaisy//src/dev/oled_ssd130x.h ****         else
 6807              		.loc 4 357 42 view .LVU1793
 6808 0260 04EBC313 		add	r3, r4, r3, lsl #7
 6809              	.LBE1592:
 6810              	.LBE1591:
 6811              	.LBE1590:
 242:../../libDaisy//src/hid/disp/display.h ****             if(error2 > -deltaY)
 6812              		.loc 3 242 20 view .LVU1794
 6813 0264 0EFA09FB 		lsl	fp, lr, r9
 6814              	.LVL488:
 6815              	.LBB1595:
 6816              	.LBB1594:
 6817              	.LBB1593:
 357:../../libDaisy//src/dev/oled_ssd130x.h ****         else
 6818              		.loc 4 357 48 view .LVU1795
 6819 0268 09FA08F8 		lsl	r8, r9, r8
 354:../../libDaisy//src/dev/oled_ssd130x.h ****             return;
 6820              		.loc 4 354 9 view .LVU1796
 6821 026c 08D8     		bhi	.L396
 6822 026e 3F29     		cmp	r1, #63
 357:../../libDaisy//src/dev/oled_ssd130x.h ****         else
 6823              		.loc 4 357 42 view .LVU1797
 6824 0270 2B44     		add	r3, r3, r5
 354:../../libDaisy//src/dev/oled_ssd130x.h ****             return;
 6825              		.loc 4 354 9 view .LVU1798
 6826 0272 05D8     		bhi	.L396
 357:../../libDaisy//src/dev/oled_ssd130x.h ****         else
 6827              		.loc 4 357 42 view .LVU1799
 6828 0274 93F8C094 		ldrb	r9, [r3, #1216]	@ zero_extendqisi2
 6829 0278 48EA0908 		orr	r8, r8, r9
 6830 027c 83F8C084 		strb	r8, [r3, #1216]
 6831              	.L396:
 357:../../libDaisy//src/dev/oled_ssd130x.h ****         else
 6832              		.loc 4 357 42 view .LVU1800
 6833              	.LBE1593:
 6834              	.LBE1594:
 6835              	.LBE1595:
 243:../../libDaisy//src/hid/disp/display.h ****             {
 6836              		.loc 3 243 13 view .LVU1801
 6837 0280 BAEB4E0F 		cmp	r10, lr, lsl #1
ARM GAS  /var/folders/1y/_321xjh9623c014x9_qw12rr0000gn/T//ccXZVGQV.s 			page 201


 6838 0284 03DA     		bge	.L397
 245:../../libDaisy//src/hid/disp/display.h ****                 x1 += signX;
 6839              		.loc 3 245 23 view .LVU1802
 6840 0286 079B     		ldr	r3, [sp, #28]
 246:../../libDaisy//src/hid/disp/display.h ****             }
 6841              		.loc 3 246 20 view .LVU1803
 6842 0288 013C     		subs	r4, r4, #1
 6843              	.LVL489:
 245:../../libDaisy//src/hid/disp/display.h ****                 x1 += signX;
 6844              		.loc 3 245 23 view .LVU1804
 6845 028a AEEB030E 		sub	lr, lr, r3
 6846              	.LVL490:
 6847              	.L397:
 249:../../libDaisy//src/hid/disp/display.h ****             {
 6848              		.loc 3 249 13 view .LVU1805
 6849 028e BBF1000F 		cmp	fp, #0
 6850 0292 01D0     		beq	.L398
 252:../../libDaisy//src/hid/disp/display.h ****             }
 6851              		.loc 3 252 20 view .LVU1806
 6852 0294 089B     		ldr	r3, [sp, #32]
 6853 0296 1944     		add	r1, r1, r3
 6854              	.LVL491:
 6855              	.L398:
 239:../../libDaisy//src/hid/disp/display.h ****         {
 6856              		.loc 3 239 26 is_stmt 1 view .LVU1807
 6857 0298 A642     		cmp	r6, r4
 6858 029a DBD1     		bne	.L395
 239:../../libDaisy//src/hid/disp/display.h ****         {
 6859              		.loc 3 239 26 is_stmt 0 view .LVU1808
 6860 029c 8C45     		cmp	ip, r1
 6861 029e D9D1     		bne	.L395
 6862 02a0 4FF0000B 		mov	fp, #0
 6863              	.LVL492:
 6864              	.L392:
 239:../../libDaisy//src/hid/disp/display.h ****         {
 6865              		.loc 3 239 26 view .LVU1809
 6866              	.LBE1598:
 6867              	.LBE1601:
 6868              	.LBB1602:
 6869              	.LBI1602:
 221:../../libDaisy//src/hid/disp/display.h ****                   uint_fast8_t y1,
 6870              		.loc 3 221 10 is_stmt 1 view .LVU1810
 6871              	.LBB1603:
 227:../../libDaisy//src/hid/disp/display.h ****         int_fast16_t deltaY = abs((int_fast16_t)y2 - (int_fast16_t)y1);
 6872              		.loc 3 227 52 is_stmt 0 view .LVU1811
 6873 02a4 A7EB0608 		sub	r8, r7, r6
 229:../../libDaisy//src/hid/disp/display.h ****         int_fast16_t signY  = ((y1 < y2) ? 1 : -1);
 6874              		.loc 3 229 42 view .LVU1812
 6875 02a8 B742     		cmp	r7, r6
 6876 02aa 8CBF     		ite	hi
 6877 02ac 0126     		movhi	r6, #1
 6878 02ae 4FF0FF36 		movls	r6, #-1
 6879              	.LBB1604:
 6880              	.LBB1605:
 6881              	.LBB1606:
 354:../../libDaisy//src/dev/oled_ssd130x.h ****             return;
 6882              		.loc 4 354 9 view .LVU1813
ARM GAS  /var/folders/1y/_321xjh9623c014x9_qw12rr0000gn/T//ccXZVGQV.s 			page 202


 6883 02b2 0A9B     		ldr	r3, [sp, #40]
 6884              	.LBE1606:
 6885              	.LBE1605:
 6886              	.LBE1604:
 227:../../libDaisy//src/hid/disp/display.h ****         int_fast16_t deltaY = abs((int_fast16_t)y2 - (int_fast16_t)y1);
 6887              		.loc 3 227 22 view .LVU1814
 6888 02b4 B8F1000F 		cmp	r8, #0
 6889 02b8 B8BF     		it	lt
 6890 02ba C8F10008 		rsblt	r8, r8, #0
 6891              	.LVL493:
 6892              	.LBB1609:
 6893              	.LBI1604:
  42:../../libDaisy//src/hid/disp/oled_display.h ****     {
 6894              		.loc 1 42 10 is_stmt 1 view .LVU1815
 6895              	.LBB1608:
 6896              	.LBI1605:
 352:../../libDaisy//src/dev/oled_ssd130x.h ****     {
 6897              		.loc 4 352 10 view .LVU1816
 6898              	.LBB1607:
 354:../../libDaisy//src/dev/oled_ssd130x.h ****             return;
 6899              		.loc 4 354 14 is_stmt 0 view .LVU1817
 6900 02be 7F2F     		cmp	r7, #127
 6901 02c0 94BF     		ite	ls
 6902 02c2 4FF0000A 		movls	r10, #0
 6903 02c6 4FF0010A 		movhi	r10, #1
 354:../../libDaisy//src/dev/oled_ssd130x.h ****             return;
 6904              		.loc 4 354 9 view .LVU1818
 6905 02ca 8BB9     		cbnz	r3, .L400
 6906 02cc BAF1000F 		cmp	r10, #0
 6907 02d0 0ED1     		bne	.L400
 357:../../libDaisy//src/dev/oled_ssd130x.h ****         else
 6908              		.loc 4 357 28 view .LVU1819
 6909 02d2 4FEADC03 		lsr	r3, ip, #3
 357:../../libDaisy//src/dev/oled_ssd130x.h ****         else
 6910              		.loc 4 357 48 view .LVU1820
 6911 02d6 0124     		movs	r4, #1
 357:../../libDaisy//src/dev/oled_ssd130x.h ****         else
 6912              		.loc 4 357 54 view .LVU1821
 6913 02d8 0CF00701 		and	r1, ip, #7
 357:../../libDaisy//src/dev/oled_ssd130x.h ****         else
 6914              		.loc 4 357 42 view .LVU1822
 6915 02dc 07EBC313 		add	r3, r7, r3, lsl #7
 357:../../libDaisy//src/dev/oled_ssd130x.h ****         else
 6916              		.loc 4 357 48 view .LVU1823
 6917 02e0 04FA01F1 		lsl	r1, r4, r1
 357:../../libDaisy//src/dev/oled_ssd130x.h ****         else
 6918              		.loc 4 357 42 view .LVU1824
 6919 02e4 2B44     		add	r3, r3, r5
 6920 02e6 93F8C044 		ldrb	r4, [r3, #1216]	@ zero_extendqisi2
 6921 02ea 2143     		orrs	r1, r1, r4
 6922 02ec 83F8C014 		strb	r1, [r3, #1216]
 6923              	.L400:
 6924              	.LVL494:
 357:../../libDaisy//src/dev/oled_ssd130x.h ****         else
 6925              		.loc 4 357 42 view .LVU1825
 6926              	.LBE1607:
 6927              	.LBE1608:
ARM GAS  /var/folders/1y/_321xjh9623c014x9_qw12rr0000gn/T//ccXZVGQV.s 			page 203


 6928              	.LBE1609:
 239:../../libDaisy//src/hid/disp/display.h ****         {
 6929              		.loc 3 239 26 is_stmt 1 view .LVU1826
 6930 02f0 0B9B     		ldr	r3, [sp, #44]
 6931 02f2 0BBB     		cbnz	r3, .L401
 227:../../libDaisy//src/hid/disp/display.h ****         int_fast16_t deltaY = abs((int_fast16_t)y2 - (int_fast16_t)y1);
 6932              		.loc 3 227 22 is_stmt 0 view .LVU1827
 6933 02f4 C646     		mov	lr, r8
 6934              	.LBE1603:
 6935              	.LBE1602:
 6936              	.LBE1638:
 324:Dubby.cpp     ****             display.DrawRect(submenuBoxBounding[i][0], submenuBoxBounding[i][1], submenuBoxBounding
 6937              		.loc 2 324 29 view .LVU1828
 6938 02f6 6446     		mov	r4, ip
 6939              	.LVL495:
 6940              	.L402:
 6941              	.LBB1639:
 6942              	.LBB1614:
 6943              	.LBB1613:
 6944              	.LBB1610:
 6945              	.LBI1610:
  42:../../libDaisy//src/hid/disp/oled_display.h ****     {
 6946              		.loc 1 42 10 is_stmt 1 view .LVU1829
 6947              	.LBB1611:
 6948              	.LBI1611:
 352:../../libDaisy//src/dev/oled_ssd130x.h ****     {
 6949              		.loc 4 352 10 view .LVU1830
 6950              	.LBB1612:
 357:../../libDaisy//src/dev/oled_ssd130x.h ****         else
 6951              		.loc 4 357 28 is_stmt 0 view .LVU1831
 6952 02f8 E308     		lsrs	r3, r4, #3
 357:../../libDaisy//src/dev/oled_ssd130x.h ****         else
 6953              		.loc 4 357 54 view .LVU1832
 6954 02fa 04F00701 		and	r1, r4, #7
 357:../../libDaisy//src/dev/oled_ssd130x.h ****         else
 6955              		.loc 4 357 48 view .LVU1833
 6956 02fe 4FF00109 		mov	r9, #1
 354:../../libDaisy//src/dev/oled_ssd130x.h ****             return;
 6957              		.loc 4 354 9 view .LVU1834
 6958 0302 7F28     		cmp	r0, #127
 357:../../libDaisy//src/dev/oled_ssd130x.h ****         else
 6959              		.loc 4 357 42 view .LVU1835
 6960 0304 00EBC313 		add	r3, r0, r3, lsl #7
 357:../../libDaisy//src/dev/oled_ssd130x.h ****         else
 6961              		.loc 4 357 48 view .LVU1836
 6962 0308 09FA01F1 		lsl	r1, r9, r1
 354:../../libDaisy//src/dev/oled_ssd130x.h ****             return;
 6963              		.loc 4 354 9 view .LVU1837
 6964 030c 08D8     		bhi	.L404
 354:../../libDaisy//src/dev/oled_ssd130x.h ****             return;
 6965              		.loc 4 354 9 view .LVU1838
 6966 030e 3F2C     		cmp	r4, #63
 357:../../libDaisy//src/dev/oled_ssd130x.h ****         else
 6967              		.loc 4 357 42 view .LVU1839
 6968 0310 2B44     		add	r3, r3, r5
 354:../../libDaisy//src/dev/oled_ssd130x.h ****             return;
 6969              		.loc 4 354 9 view .LVU1840
ARM GAS  /var/folders/1y/_321xjh9623c014x9_qw12rr0000gn/T//ccXZVGQV.s 			page 204


 6970 0312 05D8     		bhi	.L404
 357:../../libDaisy//src/dev/oled_ssd130x.h ****         else
 6971              		.loc 4 357 42 view .LVU1841
 6972 0314 93F8C094 		ldrb	r9, [r3, #1216]	@ zero_extendqisi2
 6973 0318 41EA0901 		orr	r1, r1, r9
 6974 031c 83F8C014 		strb	r1, [r3, #1216]
 6975              	.L404:
 357:../../libDaisy//src/dev/oled_ssd130x.h ****         else
 6976              		.loc 4 357 42 view .LVU1842
 6977              	.LBE1612:
 6978              	.LBE1611:
 6979              	.LBE1610:
 243:../../libDaisy//src/hid/disp/display.h ****             {
 6980              		.loc 3 243 13 view .LVU1843
 6981 0320 5FEA4E03 		lsls	r3, lr, #1
 246:../../libDaisy//src/hid/disp/display.h ****             }
 6982              		.loc 3 246 20 view .LVU1844
 6983 0324 18BF     		it	ne
 6984 0326 8019     		addne	r0, r0, r6
 6985              	.LVL496:
 249:../../libDaisy//src/hid/disp/display.h ****             {
 6986              		.loc 3 249 13 view .LVU1845
 6987 0328 9845     		cmp	r8, r3
 6988 032a 01DD     		ble	.L406
 251:../../libDaisy//src/hid/disp/display.h ****                 y1 += signY;
 6989              		.loc 3 251 23 view .LVU1846
 6990 032c C644     		add	lr, lr, r8
 6991              	.LVL497:
 252:../../libDaisy//src/hid/disp/display.h ****             }
 6992              		.loc 3 252 20 view .LVU1847
 6993 032e 013C     		subs	r4, r4, #1
 6994              	.LVL498:
 6995              	.L406:
 239:../../libDaisy//src/hid/disp/display.h ****         {
 6996              		.loc 3 239 26 is_stmt 1 view .LVU1848
 6997 0330 8742     		cmp	r7, r0
 6998 0332 E1D1     		bne	.L402
 239:../../libDaisy//src/hid/disp/display.h ****         {
 6999              		.loc 3 239 26 is_stmt 0 view .LVU1849
 7000 0334 A445     		cmp	ip, r4
 7001 0336 DFD1     		bne	.L402
 7002              	.LVL499:
 7003              	.L401:
 239:../../libDaisy//src/hid/disp/display.h ****         {
 7004              		.loc 3 239 26 view .LVU1850
 7005              	.LBE1613:
 7006              	.LBE1614:
 7007              	.LBB1615:
 7008              	.LBI1615:
 221:../../libDaisy//src/hid/disp/display.h ****                   uint_fast8_t y1,
 7009              		.loc 3 221 10 is_stmt 1 view .LVU1851
 7010              	.LBB1616:
 228:../../libDaisy//src/hid/disp/display.h ****         int_fast16_t signX  = ((x1 < x2) ? 1 : -1);
 7011              		.loc 3 228 52 is_stmt 0 view .LVU1852
 7012 0338 0499     		ldr	r1, [sp, #16]
 7013              	.LBB1617:
 7014              	.LBB1618:
ARM GAS  /var/folders/1y/_321xjh9623c014x9_qw12rr0000gn/T//ccXZVGQV.s 			page 205


 7015              	.LBB1619:
 354:../../libDaisy//src/dev/oled_ssd130x.h ****             return;
 7016              		.loc 4 354 9 view .LVU1853
 7017 033a 099B     		ldr	r3, [sp, #36]
 7018              	.LBE1619:
 7019              	.LBE1618:
 7020              	.LBE1617:
 228:../../libDaisy//src/hid/disp/display.h ****         int_fast16_t signX  = ((x1 < x2) ? 1 : -1);
 7021              		.loc 3 228 52 view .LVU1854
 7022 033c A1EB0C08 		sub	r8, r1, ip
 230:../../libDaisy//src/hid/disp/display.h ****         int_fast16_t error  = deltaX - deltaY;
 7023              		.loc 3 230 42 view .LVU1855
 7024 0340 6145     		cmp	r1, ip
 7025 0342 8CBF     		ite	hi
 7026 0344 4FF0010C 		movhi	ip, #1
 7027 0348 4FF0FF3C 		movls	ip, #-1
 228:../../libDaisy//src/hid/disp/display.h ****         int_fast16_t signX  = ((x1 < x2) ? 1 : -1);
 7028              		.loc 3 228 22 view .LVU1856
 7029 034c B8F1000F 		cmp	r8, #0
 7030 0350 B8BF     		it	lt
 7031 0352 C8F10008 		rsblt	r8, r8, #0
 7032              	.LVL500:
 231:../../libDaisy//src/hid/disp/display.h ****         int_fast16_t error2;
 7033              		.loc 3 231 22 view .LVU1857
 7034 0356 C8F1000E 		rsb	lr, r8, #0
 7035              	.LVL501:
 7036              	.LBB1622:
 7037              	.LBI1617:
  42:../../libDaisy//src/hid/disp/oled_display.h ****     {
 7038              		.loc 1 42 10 is_stmt 1 view .LVU1858
 7039              	.LBB1621:
 7040              	.LBI1618:
 352:../../libDaisy//src/dev/oled_ssd130x.h ****     {
 7041              		.loc 4 352 10 view .LVU1859
 7042              	.LBB1620:
 354:../../libDaisy//src/dev/oled_ssd130x.h ****             return;
 7043              		.loc 4 354 9 is_stmt 0 view .LVU1860
 7044 035a 83B9     		cbnz	r3, .L408
 7045 035c BAF1000F 		cmp	r10, #0
 7046 0360 0DD1     		bne	.L408
 357:../../libDaisy//src/dev/oled_ssd130x.h ****         else
 7047              		.loc 4 357 28 view .LVU1861
 7048 0362 CB08     		lsrs	r3, r1, #3
 357:../../libDaisy//src/dev/oled_ssd130x.h ****         else
 7049              		.loc 4 357 48 view .LVU1862
 7050 0364 0120     		movs	r0, #1
 357:../../libDaisy//src/dev/oled_ssd130x.h ****         else
 7051              		.loc 4 357 54 view .LVU1863
 7052 0366 01F00701 		and	r1, r1, #7
 357:../../libDaisy//src/dev/oled_ssd130x.h ****         else
 7053              		.loc 4 357 42 view .LVU1864
 7054 036a 07EBC313 		add	r3, r7, r3, lsl #7
 357:../../libDaisy//src/dev/oled_ssd130x.h ****         else
 7055              		.loc 4 357 48 view .LVU1865
 7056 036e 00FA01F1 		lsl	r1, r0, r1
 357:../../libDaisy//src/dev/oled_ssd130x.h ****         else
 7057              		.loc 4 357 42 view .LVU1866
ARM GAS  /var/folders/1y/_321xjh9623c014x9_qw12rr0000gn/T//ccXZVGQV.s 			page 206


 7058 0372 2B44     		add	r3, r3, r5
 7059 0374 93F8C004 		ldrb	r0, [r3, #1216]	@ zero_extendqisi2
 7060 0378 0143     		orrs	r1, r1, r0
 7061 037a 83F8C014 		strb	r1, [r3, #1216]
 7062              	.L408:
 7063              	.LVL502:
 357:../../libDaisy//src/dev/oled_ssd130x.h ****         else
 7064              		.loc 4 357 42 view .LVU1867
 7065              	.LBE1620:
 7066              	.LBE1621:
 7067              	.LBE1622:
 239:../../libDaisy//src/hid/disp/display.h ****         {
 7068              		.loc 3 239 26 is_stmt 1 view .LVU1868
 7069 037e BBF1000F 		cmp	fp, #0
 7070 0382 7FF47DAE 		bne	.L380
 7071 0386 7046     		mov	r0, lr
 7072              	.LBE1616:
 7073              	.LBE1615:
 7074              	.LBE1639:
 324:Dubby.cpp     ****             display.DrawRect(submenuBoxBounding[i][0], submenuBoxBounding[i][1], submenuBoxBounding
 7075              		.loc 2 324 29 is_stmt 0 view .LVU1869
 7076 0388 3946     		mov	r1, r7
 7077              	.LVL503:
 7078              	.L409:
 7079              	.LBB1640:
 7080              	.LBB1630:
 7081              	.LBB1629:
 7082              	.LBB1623:
 7083              	.LBI1623:
  42:../../libDaisy//src/hid/disp/oled_display.h ****     {
 7084              		.loc 1 42 10 is_stmt 1 view .LVU1870
 7085              	.LBB1624:
 7086              	.LBI1624:
 352:../../libDaisy//src/dev/oled_ssd130x.h ****     {
 7087              		.loc 4 352 10 view .LVU1871
 7088              	.LBB1625:
 357:../../libDaisy//src/dev/oled_ssd130x.h ****         else
 7089              		.loc 4 357 48 is_stmt 0 view .LVU1872
 7090 038a 0124     		movs	r4, #1
 357:../../libDaisy//src/dev/oled_ssd130x.h ****         else
 7091              		.loc 4 357 28 view .LVU1873
 7092 038c D308     		lsrs	r3, r2, #3
 357:../../libDaisy//src/dev/oled_ssd130x.h ****         else
 7093              		.loc 4 357 54 view .LVU1874
 7094 038e 02F00709 		and	r9, r2, #7
 354:../../libDaisy//src/dev/oled_ssd130x.h ****             return;
 7095              		.loc 4 354 9 view .LVU1875
 7096 0392 7F29     		cmp	r1, #127
 7097              	.LBE1625:
 7098              	.LBE1624:
 7099              	.LBE1623:
 242:../../libDaisy//src/hid/disp/display.h ****             if(error2 > -deltaY)
 7100              		.loc 3 242 20 view .LVU1876
 7101 0394 00FA04F6 		lsl	r6, r0, r4
 7102              	.LVL504:
 7103              	.LBB1628:
 7104              	.LBB1627:
ARM GAS  /var/folders/1y/_321xjh9623c014x9_qw12rr0000gn/T//ccXZVGQV.s 			page 207


 7105              	.LBB1626:
 357:../../libDaisy//src/dev/oled_ssd130x.h ****         else
 7106              		.loc 4 357 42 view .LVU1877
 7107 0398 01EBC313 		add	r3, r1, r3, lsl #7
 357:../../libDaisy//src/dev/oled_ssd130x.h ****         else
 7108              		.loc 4 357 48 view .LVU1878
 7109 039c 04FA09F4 		lsl	r4, r4, r9
 354:../../libDaisy//src/dev/oled_ssd130x.h ****             return;
 7110              		.loc 4 354 9 view .LVU1879
 7111 03a0 08D8     		bhi	.L411
 354:../../libDaisy//src/dev/oled_ssd130x.h ****             return;
 7112              		.loc 4 354 9 view .LVU1880
 7113 03a2 3F2A     		cmp	r2, #63
 357:../../libDaisy//src/dev/oled_ssd130x.h ****         else
 7114              		.loc 4 357 42 view .LVU1881
 7115 03a4 2B44     		add	r3, r3, r5
 354:../../libDaisy//src/dev/oled_ssd130x.h ****             return;
 7116              		.loc 4 354 9 view .LVU1882
 7117 03a6 05D8     		bhi	.L411
 357:../../libDaisy//src/dev/oled_ssd130x.h ****         else
 7118              		.loc 4 357 42 view .LVU1883
 7119 03a8 93F8C094 		ldrb	r9, [r3, #1216]	@ zero_extendqisi2
 7120 03ac 44EA0904 		orr	r4, r4, r9
 7121 03b0 83F8C044 		strb	r4, [r3, #1216]
 7122              	.L411:
 357:../../libDaisy//src/dev/oled_ssd130x.h ****         else
 7123              		.loc 4 357 42 view .LVU1884
 7124              	.LBE1626:
 7125              	.LBE1627:
 7126              	.LBE1628:
 243:../../libDaisy//src/hid/disp/display.h ****             {
 7127              		.loc 3 243 13 view .LVU1885
 7128 03b4 BEEB400F 		cmp	lr, r0, lsl #1
 7129 03b8 02DA     		bge	.L412
 246:../../libDaisy//src/hid/disp/display.h ****             }
 7130              		.loc 3 246 20 view .LVU1886
 7131 03ba 0139     		subs	r1, r1, #1
 7132              	.LVL505:
 245:../../libDaisy//src/hid/disp/display.h ****                 x1 += signX;
 7133              		.loc 3 245 23 view .LVU1887
 7134 03bc A0EB0800 		sub	r0, r0, r8
 7135              	.LVL506:
 7136              	.L412:
 249:../../libDaisy//src/hid/disp/display.h ****             {
 7137              		.loc 3 249 13 view .LVU1888
 7138 03c0 06B1     		cbz	r6, .L413
 252:../../libDaisy//src/hid/disp/display.h ****             }
 7139              		.loc 3 252 20 view .LVU1889
 7140 03c2 6244     		add	r2, r2, ip
 7141              	.LVL507:
 7142              	.L413:
 239:../../libDaisy//src/hid/disp/display.h ****         {
 7143              		.loc 3 239 26 is_stmt 1 view .LVU1890
 7144 03c4 8F42     		cmp	r7, r1
 7145 03c6 E0D1     		bne	.L409
 239:../../libDaisy//src/hid/disp/display.h ****         {
 7146              		.loc 3 239 26 is_stmt 0 view .LVU1891
ARM GAS  /var/folders/1y/_321xjh9623c014x9_qw12rr0000gn/T//ccXZVGQV.s 			page 208


 7147 03c8 049B     		ldr	r3, [sp, #16]
 7148 03ca 9342     		cmp	r3, r2
 7149 03cc DDD1     		bne	.L409
 7150 03ce 57E6     		b	.L380
 7151              	.LVL508:
 7152              	.L381:
 239:../../libDaisy//src/hid/disp/display.h ****         {
 7153              		.loc 3 239 26 view .LVU1892
 7154              	.LBE1629:
 7155              	.LBE1630:
 7156              	.LBB1631:
 7157              	.LBB1570:
 7158              	.LBB1566:
  42:../../libDaisy//src/hid/disp/oled_display.h ****     {
 7159              		.loc 1 42 10 is_stmt 1 view .LVU1893
 7160              	.LBB1561:
 352:../../libDaisy//src/dev/oled_ssd130x.h ****     {
 7161              		.loc 4 352 10 view .LVU1894
 7162              	.LBB1559:
 354:../../libDaisy//src/dev/oled_ssd130x.h ****             return;
 7163              		.loc 4 354 28 is_stmt 0 view .LVU1895
 7164 03d0 0499     		ldr	r1, [sp, #16]
 354:../../libDaisy//src/dev/oled_ssd130x.h ****             return;
 7165              		.loc 4 354 14 view .LVU1896
 7166 03d2 7F2E     		cmp	r6, #127
 7167 03d4 94BF     		ite	ls
 7168 03d6 0023     		movls	r3, #0
 7169              	.LVL509:
 354:../../libDaisy//src/dev/oled_ssd130x.h ****             return;
 7170              		.loc 4 354 14 view .LVU1897
 7171 03d8 0123     		movhi	r3, #1
 354:../../libDaisy//src/dev/oled_ssd130x.h ****             return;
 7172              		.loc 4 354 28 view .LVU1898
 7173 03da 3F29     		cmp	r1, #63
 354:../../libDaisy//src/dev/oled_ssd130x.h ****             return;
 7174              		.loc 4 354 14 view .LVU1899
 7175 03dc 0893     		str	r3, [sp, #32]
 354:../../libDaisy//src/dev/oled_ssd130x.h ****             return;
 7176              		.loc 4 354 28 view .LVU1900
 7177 03de 94BF     		ite	ls
 7178 03e0 0021     		movls	r1, #0
 7179 03e2 0121     		movhi	r1, #1
 7180 03e4 0991     		str	r1, [sp, #36]
 354:../../libDaisy//src/dev/oled_ssd130x.h ****             return;
 7181              		.loc 4 354 9 view .LVU1901
 7182 03e6 C3B9     		cbnz	r3, .L427
 7183 03e8 B9B9     		cbnz	r1, .L427
 7184              	.LBE1559:
 7185              	.LBE1561:
 7186              	.LBE1566:
 229:../../libDaisy//src/hid/disp/display.h ****         int_fast16_t signY  = ((y1 < y2) ? 1 : -1);
 7187              		.loc 3 229 42 view .LVU1902
 7188 03ea A346     		mov	fp, r4
 7189 03ec C0E6     		b	.L417
 7190              	.LVL510:
 7191              	.L390:
 229:../../libDaisy//src/hid/disp/display.h ****         int_fast16_t signY  = ((y1 < y2) ? 1 : -1);
ARM GAS  /var/folders/1y/_321xjh9623c014x9_qw12rr0000gn/T//ccXZVGQV.s 			page 209


 7192              		.loc 3 229 42 view .LVU1903
 7193              	.LBE1570:
 7194              	.LBE1631:
 7195              	.LBB1632:
 7196              	.LBB1599:
 231:../../libDaisy//src/hid/disp/display.h ****         int_fast16_t error2;
 7197              		.loc 3 231 22 view .LVU1904
 7198 03ee 079B     		ldr	r3, [sp, #28]
 7199              	.LVL511:
 7200              	.LBB1596:
 7201              	.LBB1586:
 7202              	.LBB1582:
 354:../../libDaisy//src/dev/oled_ssd130x.h ****             return;
 7203              		.loc 4 354 28 view .LVU1905
 7204 03f0 BCF13F0F 		cmp	ip, #63
 354:../../libDaisy//src/dev/oled_ssd130x.h ****             return;
 7205              		.loc 4 354 9 view .LVU1906
 7206 03f4 0899     		ldr	r1, [sp, #32]
 7207              	.LVL512:
 354:../../libDaisy//src/dev/oled_ssd130x.h ****             return;
 7208              		.loc 4 354 9 view .LVU1907
 7209              	.LBE1582:
 7210              	.LBE1586:
 7211              	.LBE1596:
 231:../../libDaisy//src/hid/disp/display.h ****         int_fast16_t error2;
 7212              		.loc 3 231 22 view .LVU1908
 7213 03f6 C3F1000A 		rsb	r10, r3, #0
 7214              	.LVL513:
 7215              	.LBB1597:
  42:../../libDaisy//src/hid/disp/oled_display.h ****     {
 7216              		.loc 1 42 10 is_stmt 1 view .LVU1909
 7217              	.LBB1587:
 352:../../libDaisy//src/dev/oled_ssd130x.h ****     {
 7218              		.loc 4 352 10 view .LVU1910
 7219              	.LBB1583:
 354:../../libDaisy//src/dev/oled_ssd130x.h ****             return;
 7220              		.loc 4 354 28 is_stmt 0 view .LVU1911
 7221 03fa 94BF     		ite	ls
 7222 03fc 0023     		movls	r3, #0
 7223 03fe 0123     		movhi	r3, #1
 7224 0400 0A93     		str	r3, [sp, #40]
 354:../../libDaisy//src/dev/oled_ssd130x.h ****             return;
 7225              		.loc 4 354 9 view .LVU1912
 7226 0402 39B9     		cbnz	r1, .L426
 7227 0404 33B9     		cbnz	r3, .L426
 7228              	.LBE1583:
 7229              	.LBE1587:
 7230              	.LBE1597:
 230:../../libDaisy//src/hid/disp/display.h ****         int_fast16_t error  = deltaX - deltaY;
 7231              		.loc 3 230 42 view .LVU1913
 7232 0406 0123     		movs	r3, #1
 7233 0408 0893     		str	r3, [sp, #32]
 7234 040a 0BE7     		b	.L416
 7235              	.LVL514:
 7236              	.L421:
 230:../../libDaisy//src/hid/disp/display.h ****         int_fast16_t error  = deltaX - deltaY;
 7237              		.loc 3 230 42 view .LVU1914
ARM GAS  /var/folders/1y/_321xjh9623c014x9_qw12rr0000gn/T//ccXZVGQV.s 			page 210


 7238 040c 4FF0FF33 		mov	r3, #-1
 7239 0410 0893     		str	r3, [sp, #32]
 7240 0412 18E7     		b	.L391
 7241              	.LVL515:
 7242              	.L426:
 230:../../libDaisy//src/hid/disp/display.h ****         int_fast16_t error  = deltaX - deltaY;
 7243              		.loc 3 230 42 view .LVU1915
 7244 0414 0123     		movs	r3, #1
 7245 0416 0893     		str	r3, [sp, #32]
 7246 0418 19E7     		b	.L393
 7247              	.LVL516:
 7248              	.L427:
 230:../../libDaisy//src/hid/disp/display.h ****         int_fast16_t error  = deltaX - deltaY;
 7249              		.loc 3 230 42 view .LVU1916
 7250              	.LBE1599:
 7251              	.LBE1632:
 7252              	.LBB1633:
 7253              	.LBB1571:
 229:../../libDaisy//src/hid/disp/display.h ****         int_fast16_t signY  = ((y1 < y2) ? 1 : -1);
 7254              		.loc 3 229 42 view .LVU1917
 7255 041a 4FF0010B 		mov	fp, #1
 7256 041e BCE6     		b	.L384
 7257              	.LVL517:
 7258              	.L463:
 239:../../libDaisy//src/hid/disp/display.h ****         {
 7259              		.loc 3 239 19 view .LVU1918
 7260 0420 0123     		movs	r3, #1
 7261 0422 0B93     		str	r3, [sp, #44]
 7262 0424 E0E6     		b	.L383
 7263              	.LVL518:
 7264              	.L464:
 239:../../libDaisy//src/hid/disp/display.h ****         {
 7265              		.loc 3 239 19 view .LVU1919
 7266              	.LBE1571:
 7267              	.LBE1633:
 7268              	.LBB1634:
 7269              	.LBB1600:
 239:../../libDaisy//src/hid/disp/display.h ****         {
 7270              		.loc 3 239 33 view .LVU1920
 7271 0426 4FF0010B 		mov	fp, #1
 7272 042a 3BE7     		b	.L392
 7273              	.LBE1600:
 7274              	.LBE1634:
 7275              	.LBE1640:
 7276              	.LBE1661:
 7277              		.cfi_endproc
 7278              	.LFE3759:
 7280              		.section	.text._ZN5daisy5Dubby13UpdateSubmenuEv,"ax",%progbits
 7281              		.align	1
 7282              		.p2align 2,,3
 7283              		.global	_ZN5daisy5Dubby13UpdateSubmenuEv
 7284              		.syntax unified
 7285              		.thumb
 7286              		.thumb_func
 7288              	_ZN5daisy5Dubby13UpdateSubmenuEv:
 7289              	.LVL519:
 7290              	.LFB3756:
ARM GAS  /var/folders/1y/_321xjh9623c014x9_qw12rr0000gn/T//ccXZVGQV.s 			page 211


 259:Dubby.cpp     **** {
 7291              		.loc 2 259 1 is_stmt 1 view -0
 7292              		.cfi_startproc
 7293              		@ args = 0, pretend = 0, frame = 8
 7294              		@ frame_needed = 0, uses_anonymous_args = 0
 260:Dubby.cpp     ****     switch(menuItemSelected) 
 7295              		.loc 2 260 5 view .LVU1922
 260:Dubby.cpp     ****     switch(menuItemSelected) 
 7296              		.loc 2 260 12 is_stmt 0 view .LVU1923
 7297 0000 90F85C30 		ldrb	r3, [r0, #92]	@ zero_extendqisi2
 259:Dubby.cpp     **** {
 7298              		.loc 2 259 1 view .LVU1924
 7299 0004 2DE9F041 		push	{r4, r5, r6, r7, r8, lr}
 7300              		.cfi_def_cfa_offset 24
 7301              		.cfi_offset 4, -24
 7302              		.cfi_offset 5, -20
 7303              		.cfi_offset 6, -16
 7304              		.cfi_offset 7, -12
 7305              		.cfi_offset 8, -8
 7306              		.cfi_offset 14, -4
 7307 0008 0746     		mov	r7, r0
 7308 000a 82B0     		sub	sp, sp, #8
 7309              		.cfi_def_cfa_offset 32
 260:Dubby.cpp     ****     switch(menuItemSelected) 
 7310              		.loc 2 260 5 view .LVU1925
 7311 000c 002B     		cmp	r3, #0
 7312 000e 46D0     		beq	.L468
 7313 0010 022B     		cmp	r3, #2
 7314 0012 01D1     		bne	.L470
 268:Dubby.cpp     ****         case MENU3:
 7315              		.loc 2 268 9 is_stmt 1 view .LVU1926
 269:Dubby.cpp     ****             DisplayPreferencesMenu();
 7316              		.loc 2 269 13 view .LVU1927
 269:Dubby.cpp     ****             DisplayPreferencesMenu();
 7317              		.loc 2 269 35 is_stmt 0 view .LVU1928
 7318 0014 FFF7FEFF 		bl	_ZN5daisy5Dubby22DisplayPreferencesMenuEv
 7319              	.LVL520:
 270:Dubby.cpp     ****             break;
 7320              		.loc 2 270 13 is_stmt 1 view .LVU1929
 7321              	.L470:
 7322              	.LBB1677:
 7323              	.LBB1678:
 7324              	.LBB1679:
 7325              	.LBB1680:
 7326              	.LBB1681:
 124:../../libDaisy//src/dev/oled_ssd130x.h ****         spi_.BlockingTransmit(&cmd, 1);
 7327              		.loc 4 124 24 is_stmt 0 view .LVU1930
 7328 0018 07F2B446 		addw	r6, r7, #1204
 7329 001c 07F2BC45 		addw	r5, r7, #1212
 125:../../libDaisy//src/dev/oled_ssd130x.h ****     };
 7330              		.loc 4 125 30 view .LVU1931
 7331 0020 B024     		movs	r4, #176
 7332 0022 07F59867 		add	r7, r7, #1216
 7333              	.LVL521:
 7334              	.L471:
 125:../../libDaisy//src/dev/oled_ssd130x.h ****     };
 7335              		.loc 4 125 30 view .LVU1932
ARM GAS  /var/folders/1y/_321xjh9623c014x9_qw12rr0000gn/T//ccXZVGQV.s 			page 212


 7336 0026 4FF00008 		mov	r8, #0
 124:../../libDaisy//src/dev/oled_ssd130x.h ****         spi_.BlockingTransmit(&cmd, 1);
 7337              		.loc 4 124 23 view .LVU1933
 7338 002a 2846     		mov	r0, r5
 7339 002c 8DF80740 		strb	r4, [sp, #7]
 7340              	.LVL522:
 124:../../libDaisy//src/dev/oled_ssd130x.h ****         spi_.BlockingTransmit(&cmd, 1);
 7341              		.loc 4 124 23 view .LVU1934
 7342              	.LBE1681:
 7343              	.LBI1680:
 122:../../libDaisy//src/dev/oled_ssd130x.h ****     {
 7344              		.loc 4 122 10 is_stmt 1 view .LVU1935
 7345              	.LBB1682:
 124:../../libDaisy//src/dev/oled_ssd130x.h ****         spi_.BlockingTransmit(&cmd, 1);
 7346              		.loc 4 124 9 view .LVU1936
 7347              	.LBE1682:
 7348              	.LBE1680:
 7349              		.loc 4 383 22 is_stmt 0 view .LVU1937
 7350 0030 0134     		adds	r4, r4, #1
 7351              	.LVL523:
 7352              	.LBB1685:
 7353              	.LBB1683:
 124:../../libDaisy//src/dev/oled_ssd130x.h ****         spi_.BlockingTransmit(&cmd, 1);
 7354              		.loc 4 124 23 view .LVU1938
 7355 0032 4146     		mov	r1, r8
 7356 0034 FFF7FEFF 		bl	dsy_gpio_write
 7357              	.LVL524:
 125:../../libDaisy//src/dev/oled_ssd130x.h ****     };
 7358              		.loc 4 125 9 is_stmt 1 view .LVU1939
 125:../../libDaisy//src/dev/oled_ssd130x.h ****     };
 7359              		.loc 4 125 30 is_stmt 0 view .LVU1940
 7360 0038 6423     		movs	r3, #100
 7361 003a 0122     		movs	r2, #1
 7362 003c 0DF10701 		add	r1, sp, #7
 7363 0040 3046     		mov	r0, r6
 7364              	.LBE1683:
 7365              	.LBE1685:
 7366              		.loc 4 383 22 view .LVU1941
 7367 0042 E4B2     		uxtb	r4, r4
 7368              	.LBB1686:
 7369              	.LBB1684:
 125:../../libDaisy//src/dev/oled_ssd130x.h ****     };
 7370              		.loc 4 125 30 view .LVU1942
 7371 0044 FFF7FEFF 		bl	_ZN5daisy9SpiHandle16BlockingTransmitEPhjm
 7372              	.LVL525:
 125:../../libDaisy//src/dev/oled_ssd130x.h ****     };
 7373              		.loc 4 125 30 view .LVU1943
 7374              	.LBE1684:
 7375              	.LBE1686:
 7376              	.LBB1687:
 7377              	.LBB1688:
 124:../../libDaisy//src/dev/oled_ssd130x.h ****         spi_.BlockingTransmit(&cmd, 1);
 7378              		.loc 4 124 23 view .LVU1944
 7379 0048 4146     		mov	r1, r8
 7380 004a 2846     		mov	r0, r5
 7381 004c 8DF80780 		strb	r8, [sp, #7]
 7382              	.LVL526:
ARM GAS  /var/folders/1y/_321xjh9623c014x9_qw12rr0000gn/T//ccXZVGQV.s 			page 213


 124:../../libDaisy//src/dev/oled_ssd130x.h ****         spi_.BlockingTransmit(&cmd, 1);
 7383              		.loc 4 124 23 view .LVU1945
 7384              	.LBE1688:
 7385              	.LBI1687:
 122:../../libDaisy//src/dev/oled_ssd130x.h ****     {
 7386              		.loc 4 122 10 is_stmt 1 view .LVU1946
 7387              	.LBB1689:
 124:../../libDaisy//src/dev/oled_ssd130x.h ****         spi_.BlockingTransmit(&cmd, 1);
 7388              		.loc 4 124 9 view .LVU1947
 124:../../libDaisy//src/dev/oled_ssd130x.h ****         spi_.BlockingTransmit(&cmd, 1);
 7389              		.loc 4 124 23 is_stmt 0 view .LVU1948
 7390 0050 FFF7FEFF 		bl	dsy_gpio_write
 7391              	.LVL527:
 125:../../libDaisy//src/dev/oled_ssd130x.h ****     };
 7392              		.loc 4 125 9 is_stmt 1 view .LVU1949
 125:../../libDaisy//src/dev/oled_ssd130x.h ****     };
 7393              		.loc 4 125 30 is_stmt 0 view .LVU1950
 7394 0054 0122     		movs	r2, #1
 7395 0056 6423     		movs	r3, #100
 7396 0058 0DF10701 		add	r1, sp, #7
 7397 005c 3046     		mov	r0, r6
 7398 005e FFF7FEFF 		bl	_ZN5daisy9SpiHandle16BlockingTransmitEPhjm
 7399              	.LVL528:
 125:../../libDaisy//src/dev/oled_ssd130x.h ****     };
 7400              		.loc 4 125 30 view .LVU1951
 7401 0062 1023     		movs	r3, #16
 7402              	.LBE1689:
 7403              	.LBE1687:
 7404              	.LBB1690:
 7405              	.LBB1691:
 124:../../libDaisy//src/dev/oled_ssd130x.h ****         spi_.BlockingTransmit(&cmd, 1);
 7406              		.loc 4 124 23 view .LVU1952
 7407 0064 4146     		mov	r1, r8
 7408 0066 2846     		mov	r0, r5
 7409 0068 8DF80730 		strb	r3, [sp, #7]
 7410              	.LVL529:
 124:../../libDaisy//src/dev/oled_ssd130x.h ****         spi_.BlockingTransmit(&cmd, 1);
 7411              		.loc 4 124 23 view .LVU1953
 7412              	.LBE1691:
 7413              	.LBI1690:
 122:../../libDaisy//src/dev/oled_ssd130x.h ****     {
 7414              		.loc 4 122 10 is_stmt 1 view .LVU1954
 7415              	.LBB1692:
 124:../../libDaisy//src/dev/oled_ssd130x.h ****         spi_.BlockingTransmit(&cmd, 1);
 7416              		.loc 4 124 9 view .LVU1955
 124:../../libDaisy//src/dev/oled_ssd130x.h ****         spi_.BlockingTransmit(&cmd, 1);
 7417              		.loc 4 124 23 is_stmt 0 view .LVU1956
 7418 006c FFF7FEFF 		bl	dsy_gpio_write
 7419              	.LVL530:
 125:../../libDaisy//src/dev/oled_ssd130x.h ****     };
 7420              		.loc 4 125 9 is_stmt 1 view .LVU1957
 125:../../libDaisy//src/dev/oled_ssd130x.h ****     };
 7421              		.loc 4 125 30 is_stmt 0 view .LVU1958
 7422 0070 6423     		movs	r3, #100
 7423 0072 0122     		movs	r2, #1
 7424 0074 0DF10701 		add	r1, sp, #7
 7425 0078 3046     		mov	r0, r6
ARM GAS  /var/folders/1y/_321xjh9623c014x9_qw12rr0000gn/T//ccXZVGQV.s 			page 214


 7426 007a FFF7FEFF 		bl	_ZN5daisy9SpiHandle16BlockingTransmitEPhjm
 7427              	.LVL531:
 125:../../libDaisy//src/dev/oled_ssd130x.h ****     };
 7428              		.loc 4 125 30 view .LVU1959
 7429              	.LBE1692:
 7430              	.LBE1690:
 7431              	.LBB1693:
 7432              	.LBI1693:
 128:../../libDaisy//src/dev/oled_ssd130x.h ****     {
 7433              		.loc 4 128 10 is_stmt 1 view .LVU1960
 7434              	.LBB1694:
 130:../../libDaisy//src/dev/oled_ssd130x.h ****         spi_.BlockingTransmit(buff, size);
 7435              		.loc 4 130 9 view .LVU1961
 130:../../libDaisy//src/dev/oled_ssd130x.h ****         spi_.BlockingTransmit(buff, size);
 7436              		.loc 4 130 23 is_stmt 0 view .LVU1962
 7437 007e 0121     		movs	r1, #1
 7438 0080 2846     		mov	r0, r5
 7439 0082 FFF7FEFF 		bl	dsy_gpio_write
 7440              	.LVL532:
 131:../../libDaisy//src/dev/oled_ssd130x.h ****     };
 7441              		.loc 4 131 9 is_stmt 1 view .LVU1963
 131:../../libDaisy//src/dev/oled_ssd130x.h ****     };
 7442              		.loc 4 131 30 is_stmt 0 view .LVU1964
 7443 0086 8022     		movs	r2, #128
 7444 0088 3946     		mov	r1, r7
 7445 008a 6423     		movs	r3, #100
 7446 008c 3046     		mov	r0, r6
 7447              	.LBE1694:
 7448              	.LBE1693:
 7449              		.loc 4 383 22 view .LVU1965
 7450 008e 1744     		add	r7, r7, r2
 7451              	.LVL533:
 7452              	.LBB1696:
 7453              	.LBB1695:
 131:../../libDaisy//src/dev/oled_ssd130x.h ****     };
 7454              		.loc 4 131 30 view .LVU1966
 7455 0090 FFF7FEFF 		bl	_ZN5daisy9SpiHandle16BlockingTransmitEPhjm
 7456              	.LVL534:
 131:../../libDaisy//src/dev/oled_ssd130x.h ****     };
 7457              		.loc 4 131 30 view .LVU1967
 7458              	.LBE1695:
 7459              	.LBE1696:
 7460              		.loc 4 383 9 is_stmt 1 view .LVU1968
 7461              		.loc 4 383 22 view .LVU1969
 7462 0094 B82C     		cmp	r4, #184
 7463 0096 C6D1     		bne	.L471
 7464              	.LBE1679:
 7465              	.LBE1678:
 7466              	.LBE1677:
 276:Dubby.cpp     **** }
 7467              		.loc 2 276 1 is_stmt 0 view .LVU1970
 7468 0098 02B0     		add	sp, sp, #8
 7469              		.cfi_remember_state
 7470              		.cfi_def_cfa_offset 24
 7471              		@ sp needed
 7472 009a BDE8F081 		pop	{r4, r5, r6, r7, r8, pc}
 7473              	.LVL535:
ARM GAS  /var/folders/1y/_321xjh9623c014x9_qw12rr0000gn/T//ccXZVGQV.s 			page 215


 7474              	.L468:
 7475              		.cfi_restore_state
 262:Dubby.cpp     ****         case MENU1:
 7476              		.loc 2 262 9 is_stmt 1 view .LVU1971
 263:Dubby.cpp     ****             RenderScope();
 7477              		.loc 2 263 13 view .LVU1972
 7478              	.LBB1697:
 7479              	.LBI1697:
 287:Dubby.cpp     **** void Dubby::RenderScope()
 7480              		.loc 2 287 6 view .LVU1973
 7481              	.LBB1698:
 289:Dubby.cpp     ****     if(seed.system.GetNow() - screen_update_last_ > screen_update_period_)
 7482              		.loc 2 289 5 view .LVU1974
 7483              	.LBB1699:
 289:Dubby.cpp     ****     if(seed.system.GetNow() - screen_update_last_ > screen_update_period_)
 7484              		.loc 2 289 26 is_stmt 0 view .LVU1975
 7485 009e FFF7FEFF 		bl	_ZN5daisy6System6GetNowEv
 7486              	.LVL536:
 289:Dubby.cpp     ****     if(seed.system.GetNow() - screen_update_last_ > screen_update_period_)
 7487              		.loc 2 289 31 view .LVU1976
 7488 00a2 07F59033 		add	r3, r7, #73728
 289:Dubby.cpp     ****     if(seed.system.GetNow() - screen_update_last_ > screen_update_period_)
 7489              		.loc 2 289 29 view .LVU1977
 7490 00a6 D3F8702B 		ldr	r2, [r3, #2928]
 289:Dubby.cpp     ****     if(seed.system.GetNow() - screen_update_last_ > screen_update_period_)
 7491              		.loc 2 289 5 view .LVU1978
 7492 00aa D3F8743B 		ldr	r3, [r3, #2932]
 289:Dubby.cpp     ****     if(seed.system.GetNow() - screen_update_last_ > screen_update_period_)
 7493              		.loc 2 289 29 view .LVU1979
 7494 00ae 801A     		subs	r0, r0, r2
 289:Dubby.cpp     ****     if(seed.system.GetNow() - screen_update_last_ > screen_update_period_)
 7495              		.loc 2 289 5 view .LVU1980
 7496 00b0 9842     		cmp	r0, r3
 7497 00b2 B1D9     		bls	.L470
 7498              	.LBE1699:
 7499 00b4 3846     		mov	r0, r7
 7500 00b6 FFF7FEFF 		bl	_ZN5daisy5Dubby11RenderScopeEv.part.0
 7501              	.LVL537:
 7502 00ba ADE7     		b	.L470
 7503              	.LBE1698:
 7504              	.LBE1697:
 7505              		.cfi_endproc
 7506              	.LFE3756:
 7508              		.section	.text._ZN5daisy5Dubby10UpdateMenuEib,"ax",%progbits
 7509              		.align	1
 7510              		.p2align 2,,3
 7511              		.global	_ZN5daisy5Dubby10UpdateMenuEib
 7512              		.syntax unified
 7513              		.thumb
 7514              		.thumb_func
 7516              	_ZN5daisy5Dubby10UpdateMenuEib:
 7517              	.LVL538:
 7518              	.LFB3752:
 195:Dubby.cpp     **** {
 7519              		.loc 2 195 1 is_stmt 1 view -0
 7520              		.cfi_startproc
 7521              		@ args = 0, pretend = 0, frame = 8
ARM GAS  /var/folders/1y/_321xjh9623c014x9_qw12rr0000gn/T//ccXZVGQV.s 			page 216


 7522              		@ frame_needed = 0, uses_anonymous_args = 0
 198:Dubby.cpp     ****         int mItemSelected = menuItemSelected;
 7523              		.loc 2 198 9 view .LVU1982
 199:Dubby.cpp     ****         if ((int)menuItemSelected + increment >= 3) mItemSelected = 0;
 7524              		.loc 2 199 9 view .LVU1983
 198:Dubby.cpp     ****         int mItemSelected = menuItemSelected;
 7525              		.loc 2 198 13 is_stmt 0 view .LVU1984
 7526 0000 90F85C30 		ldrb	r3, [r0, #92]	@ zero_extendqisi2
 199:Dubby.cpp     ****         if ((int)menuItemSelected + increment >= 3) mItemSelected = 0;
 7527              		.loc 2 199 35 view .LVU1985
 7528 0004 1944     		add	r1, r1, r3
 7529              	.LVL539:
 199:Dubby.cpp     ****         if ((int)menuItemSelected + increment >= 3) mItemSelected = 0;
 7530              		.loc 2 199 9 view .LVU1986
 7531 0006 0229     		cmp	r1, #2
 195:Dubby.cpp     **** {
 7532              		.loc 2 195 1 view .LVU1987
 7533 0008 2DE9F041 		push	{r4, r5, r6, r7, r8, lr}
 7534              		.cfi_def_cfa_offset 24
 7535              		.cfi_offset 4, -24
 7536              		.cfi_offset 5, -20
 7537              		.cfi_offset 6, -16
 7538              		.cfi_offset 7, -12
 7539              		.cfi_offset 8, -8
 7540              		.cfi_offset 14, -4
 7541 000c 0746     		mov	r7, r0
 7542 000e 82B0     		sub	sp, sp, #8
 7543              		.cfi_def_cfa_offset 32
 195:Dubby.cpp     **** {
 7544              		.loc 2 195 1 view .LVU1988
 7545 0010 1446     		mov	r4, r2
 199:Dubby.cpp     ****         if ((int)menuItemSelected + increment >= 3) mItemSelected = 0;
 7546              		.loc 2 199 9 view .LVU1989
 7547 0012 03DC     		bgt	.L479
 200:Dubby.cpp     ****         else if ((int)menuItemSelected + increment < 0) mItemSelected = 3;
 7548              		.loc 2 200 14 is_stmt 1 view .LVU1990
 7549 0014 0029     		cmp	r1, #0
 7550 0016 57DB     		blt	.L480
 203:Dubby.cpp     ****         menuItemSelected = (MenuItems)(mItemSelected);
 7551              		.loc 2 203 28 is_stmt 0 view .LVU1991
 7552 0018 C9B2     		uxtb	r1, r1
 7553 001a 00E0     		b	.L475
 7554              	.L479:
 7555 001c 0021     		movs	r1, #0
 7556              	.L475:
 7557              	.LVL540:
 203:Dubby.cpp     ****         menuItemSelected = (MenuItems)(mItemSelected);
 7558              		.loc 2 203 9 is_stmt 1 view .LVU1992
 7559 001e 07F59868 		add	r8, r7, #1216
 203:Dubby.cpp     ****         menuItemSelected = (MenuItems)(mItemSelected);
 7560              		.loc 2 203 26 is_stmt 0 view .LVU1993
 7561 0022 87F85C10 		strb	r1, [r7, #92]
 206:Dubby.cpp     ****     display.Fill(false);
 7562              		.loc 2 206 5 is_stmt 1 view .LVU1994
 7563              	.LVL541:
 7564              	.LBB1720:
 7565              	.LBI1720:
ARM GAS  /var/folders/1y/_321xjh9623c014x9_qw12rr0000gn/T//ccXZVGQV.s 			page 217


  34:../../libDaisy//src/hid/disp/oled_display.h **** 
 7566              		.loc 1 34 10 view .LVU1995
 7567              	.LBB1721:
 7568              	.LBI1721:
 362:../../libDaisy//src/dev/oled_ssd130x.h ****     {
 7569              		.loc 4 362 10 view .LVU1996
 7570              	.LBB1722:
 364:../../libDaisy//src/dev/oled_ssd130x.h ****         {
 7571              		.loc 4 364 29 view .LVU1997
 366:../../libDaisy//src/dev/oled_ssd130x.h ****         }
 7572              		.loc 4 366 24 is_stmt 0 view .LVU1998
 7573 0026 4FF48062 		mov	r2, #1024
 7574              	.LVL542:
 366:../../libDaisy//src/dev/oled_ssd130x.h ****         }
 7575              		.loc 4 366 24 view .LVU1999
 7576 002a 0021     		movs	r1, #0
 7577 002c 4046     		mov	r0, r8
 7578              	.LVL543:
 366:../../libDaisy//src/dev/oled_ssd130x.h ****         }
 7579              		.loc 4 366 24 view .LVU2000
 7580 002e FFF7FEFF 		bl	memset
 7581              	.LVL544:
 366:../../libDaisy//src/dev/oled_ssd130x.h ****         }
 7582              		.loc 4 366 24 view .LVU2001
 7583              	.LBE1722:
 7584              	.LBE1721:
 7585              	.LBE1720:
 208:Dubby.cpp     ****     if (higlight) HightlightMenuItem();
 7586              		.loc 2 208 5 is_stmt 1 view .LVU2002
 208:Dubby.cpp     ****     if (higlight) HightlightMenuItem();
 7587              		.loc 2 208 37 is_stmt 0 view .LVU2003
 7588 0032 3846     		mov	r0, r7
 208:Dubby.cpp     ****     if (higlight) HightlightMenuItem();
 7589              		.loc 2 208 5 view .LVU2004
 7590 0034 002C     		cmp	r4, #0
 7591 0036 44D0     		beq	.L476
 7592              	.LVL545:
 208:Dubby.cpp     ****     if (higlight) HightlightMenuItem();
 7593              		.loc 2 208 19 is_stmt 1 discriminator 1 view .LVU2005
 208:Dubby.cpp     ****     if (higlight) HightlightMenuItem();
 7594              		.loc 2 208 37 is_stmt 0 discriminator 1 view .LVU2006
 7595 0038 FFF7FEFF 		bl	_ZN5daisy5Dubby18HightlightMenuItemEv
 7596              	.LVL546:
 7597              	.L477:
 211:Dubby.cpp     ****     UpdateSubmenu();
 7598              		.loc 2 211 5 is_stmt 1 view .LVU2007
 211:Dubby.cpp     ****     UpdateSubmenu();
 7599              		.loc 2 211 18 is_stmt 0 view .LVU2008
 7600 003c 3846     		mov	r0, r7
 7601              	.LBB1723:
 7602              	.LBB1724:
 7603              	.LBB1725:
 7604              	.LBB1726:
 7605              	.LBB1727:
 124:../../libDaisy//src/dev/oled_ssd130x.h ****         spi_.BlockingTransmit(&cmd, 1);
 7606              		.loc 4 124 24 view .LVU2009
 7607 003e 07F2B446 		addw	r6, r7, #1204
ARM GAS  /var/folders/1y/_321xjh9623c014x9_qw12rr0000gn/T//ccXZVGQV.s 			page 218


 7608 0042 07F2BC45 		addw	r5, r7, #1212
 125:../../libDaisy//src/dev/oled_ssd130x.h ****     };
 7609              		.loc 4 125 30 view .LVU2010
 7610 0046 B024     		movs	r4, #176
 7611              	.LBE1727:
 7612              	.LBE1726:
 7613              	.LBE1725:
 7614              	.LBE1724:
 7615              	.LBE1723:
 211:Dubby.cpp     ****     UpdateSubmenu();
 7616              		.loc 2 211 18 view .LVU2011
 7617 0048 FFF7FEFF 		bl	_ZN5daisy5Dubby13UpdateSubmenuEv
 7618              	.LVL547:
 213:Dubby.cpp     ****     display.Update();
 7619              		.loc 2 213 5 is_stmt 1 view .LVU2012
 7620              	.LBB1747:
 7621              	.LBI1723:
 7622              		.loc 1 51 10 view .LVU2013
 7623              	.LBB1746:
 7624              	.LBI1724:
 373:../../libDaisy//src/dev/oled_ssd130x.h ****     {
 7625              		.loc 4 373 10 view .LVU2014
 7626              	.LBB1745:
 7627              		.loc 4 383 22 view .LVU2015
 7628              	.L478:
 7629              		.loc 4 383 22 is_stmt 0 view .LVU2016
 7630 004c 0027     		movs	r7, #0
 7631              	.LBB1732:
 7632              	.LBB1728:
 124:../../libDaisy//src/dev/oled_ssd130x.h ****         spi_.BlockingTransmit(&cmd, 1);
 7633              		.loc 4 124 23 view .LVU2017
 7634 004e 2846     		mov	r0, r5
 7635 0050 8DF80740 		strb	r4, [sp, #7]
 7636              	.LVL548:
 124:../../libDaisy//src/dev/oled_ssd130x.h ****         spi_.BlockingTransmit(&cmd, 1);
 7637              		.loc 4 124 23 view .LVU2018
 7638              	.LBE1728:
 7639              	.LBI1726:
 122:../../libDaisy//src/dev/oled_ssd130x.h ****     {
 7640              		.loc 4 122 10 is_stmt 1 view .LVU2019
 7641              	.LBB1729:
 124:../../libDaisy//src/dev/oled_ssd130x.h ****         spi_.BlockingTransmit(&cmd, 1);
 7642              		.loc 4 124 9 view .LVU2020
 7643              	.LBE1729:
 7644              	.LBE1732:
 7645              		.loc 4 383 22 is_stmt 0 view .LVU2021
 7646 0054 0134     		adds	r4, r4, #1
 7647              	.LVL549:
 7648              	.LBB1733:
 7649              	.LBB1730:
 124:../../libDaisy//src/dev/oled_ssd130x.h ****         spi_.BlockingTransmit(&cmd, 1);
 7650              		.loc 4 124 23 view .LVU2022
 7651 0056 3946     		mov	r1, r7
 7652 0058 FFF7FEFF 		bl	dsy_gpio_write
 7653              	.LVL550:
 125:../../libDaisy//src/dev/oled_ssd130x.h ****     };
 7654              		.loc 4 125 9 is_stmt 1 view .LVU2023
ARM GAS  /var/folders/1y/_321xjh9623c014x9_qw12rr0000gn/T//ccXZVGQV.s 			page 219


 125:../../libDaisy//src/dev/oled_ssd130x.h ****     };
 7655              		.loc 4 125 30 is_stmt 0 view .LVU2024
 7656 005c 6423     		movs	r3, #100
 7657 005e 0122     		movs	r2, #1
 7658 0060 0DF10701 		add	r1, sp, #7
 7659 0064 3046     		mov	r0, r6
 7660              	.LBE1730:
 7661              	.LBE1733:
 7662              		.loc 4 383 22 view .LVU2025
 7663 0066 E4B2     		uxtb	r4, r4
 7664              	.LBB1734:
 7665              	.LBB1731:
 125:../../libDaisy//src/dev/oled_ssd130x.h ****     };
 7666              		.loc 4 125 30 view .LVU2026
 7667 0068 FFF7FEFF 		bl	_ZN5daisy9SpiHandle16BlockingTransmitEPhjm
 7668              	.LVL551:
 125:../../libDaisy//src/dev/oled_ssd130x.h ****     };
 7669              		.loc 4 125 30 view .LVU2027
 7670              	.LBE1731:
 7671              	.LBE1734:
 7672              	.LBB1735:
 7673              	.LBB1736:
 124:../../libDaisy//src/dev/oled_ssd130x.h ****         spi_.BlockingTransmit(&cmd, 1);
 7674              		.loc 4 124 23 view .LVU2028
 7675 006c 3946     		mov	r1, r7
 7676 006e 2846     		mov	r0, r5
 7677 0070 8DF80770 		strb	r7, [sp, #7]
 7678              	.LVL552:
 124:../../libDaisy//src/dev/oled_ssd130x.h ****         spi_.BlockingTransmit(&cmd, 1);
 7679              		.loc 4 124 23 view .LVU2029
 7680              	.LBE1736:
 7681              	.LBI1735:
 122:../../libDaisy//src/dev/oled_ssd130x.h ****     {
 7682              		.loc 4 122 10 is_stmt 1 view .LVU2030
 7683              	.LBB1737:
 124:../../libDaisy//src/dev/oled_ssd130x.h ****         spi_.BlockingTransmit(&cmd, 1);
 7684              		.loc 4 124 9 view .LVU2031
 124:../../libDaisy//src/dev/oled_ssd130x.h ****         spi_.BlockingTransmit(&cmd, 1);
 7685              		.loc 4 124 23 is_stmt 0 view .LVU2032
 7686 0074 FFF7FEFF 		bl	dsy_gpio_write
 7687              	.LVL553:
 125:../../libDaisy//src/dev/oled_ssd130x.h ****     };
 7688              		.loc 4 125 9 is_stmt 1 view .LVU2033
 125:../../libDaisy//src/dev/oled_ssd130x.h ****     };
 7689              		.loc 4 125 30 is_stmt 0 view .LVU2034
 7690 0078 0122     		movs	r2, #1
 7691 007a 6423     		movs	r3, #100
 7692 007c 0DF10701 		add	r1, sp, #7
 7693 0080 3046     		mov	r0, r6
 7694 0082 FFF7FEFF 		bl	_ZN5daisy9SpiHandle16BlockingTransmitEPhjm
 7695              	.LVL554:
 125:../../libDaisy//src/dev/oled_ssd130x.h ****     };
 7696              		.loc 4 125 30 view .LVU2035
 7697 0086 1023     		movs	r3, #16
 7698              	.LBE1737:
 7699              	.LBE1735:
 7700              	.LBB1738:
ARM GAS  /var/folders/1y/_321xjh9623c014x9_qw12rr0000gn/T//ccXZVGQV.s 			page 220


 7701              	.LBB1739:
 124:../../libDaisy//src/dev/oled_ssd130x.h ****         spi_.BlockingTransmit(&cmd, 1);
 7702              		.loc 4 124 23 view .LVU2036
 7703 0088 3946     		mov	r1, r7
 7704 008a 2846     		mov	r0, r5
 7705 008c 8DF80730 		strb	r3, [sp, #7]
 7706              	.LVL555:
 124:../../libDaisy//src/dev/oled_ssd130x.h ****         spi_.BlockingTransmit(&cmd, 1);
 7707              		.loc 4 124 23 view .LVU2037
 7708              	.LBE1739:
 7709              	.LBI1738:
 122:../../libDaisy//src/dev/oled_ssd130x.h ****     {
 7710              		.loc 4 122 10 is_stmt 1 view .LVU2038
 7711              	.LBB1740:
 124:../../libDaisy//src/dev/oled_ssd130x.h ****         spi_.BlockingTransmit(&cmd, 1);
 7712              		.loc 4 124 9 view .LVU2039
 124:../../libDaisy//src/dev/oled_ssd130x.h ****         spi_.BlockingTransmit(&cmd, 1);
 7713              		.loc 4 124 23 is_stmt 0 view .LVU2040
 7714 0090 FFF7FEFF 		bl	dsy_gpio_write
 7715              	.LVL556:
 125:../../libDaisy//src/dev/oled_ssd130x.h ****     };
 7716              		.loc 4 125 9 is_stmt 1 view .LVU2041
 125:../../libDaisy//src/dev/oled_ssd130x.h ****     };
 7717              		.loc 4 125 30 is_stmt 0 view .LVU2042
 7718 0094 6423     		movs	r3, #100
 7719 0096 0122     		movs	r2, #1
 7720 0098 0DF10701 		add	r1, sp, #7
 7721 009c 3046     		mov	r0, r6
 7722 009e FFF7FEFF 		bl	_ZN5daisy9SpiHandle16BlockingTransmitEPhjm
 7723              	.LVL557:
 125:../../libDaisy//src/dev/oled_ssd130x.h ****     };
 7724              		.loc 4 125 30 view .LVU2043
 7725              	.LBE1740:
 7726              	.LBE1738:
 7727              	.LBB1741:
 7728              	.LBI1741:
 128:../../libDaisy//src/dev/oled_ssd130x.h ****     {
 7729              		.loc 4 128 10 is_stmt 1 view .LVU2044
 7730              	.LBB1742:
 130:../../libDaisy//src/dev/oled_ssd130x.h ****         spi_.BlockingTransmit(buff, size);
 7731              		.loc 4 130 9 view .LVU2045
 130:../../libDaisy//src/dev/oled_ssd130x.h ****         spi_.BlockingTransmit(buff, size);
 7732              		.loc 4 130 23 is_stmt 0 view .LVU2046
 7733 00a2 0121     		movs	r1, #1
 7734 00a4 2846     		mov	r0, r5
 7735 00a6 FFF7FEFF 		bl	dsy_gpio_write
 7736              	.LVL558:
 131:../../libDaisy//src/dev/oled_ssd130x.h ****     };
 7737              		.loc 4 131 9 is_stmt 1 view .LVU2047
 131:../../libDaisy//src/dev/oled_ssd130x.h ****     };
 7738              		.loc 4 131 30 is_stmt 0 view .LVU2048
 7739 00aa 8022     		movs	r2, #128
 7740 00ac 4146     		mov	r1, r8
 7741 00ae 6423     		movs	r3, #100
 7742 00b0 3046     		mov	r0, r6
 7743              	.LBE1742:
 7744              	.LBE1741:
ARM GAS  /var/folders/1y/_321xjh9623c014x9_qw12rr0000gn/T//ccXZVGQV.s 			page 221


 7745              		.loc 4 383 22 view .LVU2049
 7746 00b2 9044     		add	r8, r8, r2
 7747              	.LVL559:
 7748              	.LBB1744:
 7749              	.LBB1743:
 131:../../libDaisy//src/dev/oled_ssd130x.h ****     };
 7750              		.loc 4 131 30 view .LVU2050
 7751 00b4 FFF7FEFF 		bl	_ZN5daisy9SpiHandle16BlockingTransmitEPhjm
 7752              	.LVL560:
 131:../../libDaisy//src/dev/oled_ssd130x.h ****     };
 7753              		.loc 4 131 30 view .LVU2051
 7754              	.LBE1743:
 7755              	.LBE1744:
 7756              		.loc 4 383 9 is_stmt 1 view .LVU2052
 7757              		.loc 4 383 22 view .LVU2053
 7758 00b8 B82C     		cmp	r4, #184
 7759 00ba C7D1     		bne	.L478
 7760              	.LBE1745:
 7761              	.LBE1746:
 7762              	.LBE1747:
 214:Dubby.cpp     **** }
 7763              		.loc 2 214 1 is_stmt 0 view .LVU2054
 7764 00bc 02B0     		add	sp, sp, #8
 7765              		.cfi_remember_state
 7766              		.cfi_def_cfa_offset 24
 7767              		@ sp needed
 7768 00be BDE8F081 		pop	{r4, r5, r6, r7, r8, pc}
 7769              	.LVL561:
 7770              	.L476:
 7771              		.cfi_restore_state
 209:Dubby.cpp     ****     else ReleaseMenu();
 7772              		.loc 2 209 10 is_stmt 1 view .LVU2055
 209:Dubby.cpp     ****     else ReleaseMenu();
 7773              		.loc 2 209 21 is_stmt 0 view .LVU2056
 7774 00c2 FFF7FEFF 		bl	_ZN5daisy5Dubby11ReleaseMenuEv
 7775              	.LVL562:
 209:Dubby.cpp     ****     else ReleaseMenu();
 7776              		.loc 2 209 21 view .LVU2057
 7777 00c6 B9E7     		b	.L477
 7778              	.LVL563:
 7779              	.L480:
 209:Dubby.cpp     ****     else ReleaseMenu();
 7780              		.loc 2 209 21 view .LVU2058
 7781 00c8 0321     		movs	r1, #3
 7782 00ca A8E7     		b	.L475
 7783              		.cfi_endproc
 7784              	.LFE3752:
 7786              		.section	.text._ZN5daisy5Dubby21UpdatePreferencesMenuEi,"ax",%progbits
 7787              		.align	1
 7788              		.p2align 2,,3
 7789              		.global	_ZN5daisy5Dubby21UpdatePreferencesMenuEi
 7790              		.syntax unified
 7791              		.thumb
 7792              		.thumb_func
 7794              	_ZN5daisy5Dubby21UpdatePreferencesMenuEi:
 7795              	.LVL564:
 7796              	.LFB3760:
ARM GAS  /var/folders/1y/_321xjh9623c014x9_qw12rr0000gn/T//ccXZVGQV.s 			page 222


 331:Dubby.cpp     **** {
 7797              		.loc 2 331 1 is_stmt 1 view -0
 7798              		.cfi_startproc
 7799              		@ args = 0, pretend = 0, frame = 0
 7800              		@ frame_needed = 0, uses_anonymous_args = 0
 7801              		@ link register save eliminated.
 332:Dubby.cpp     ****     if (((preferencesMenuItemSelected >= 0 && increment == 1 && preferencesMenuItemSelected < PREFE
 7802              		.loc 2 332 5 view .LVU2060
 7803 0000 0129     		cmp	r1, #1
 332:Dubby.cpp     ****     if (((preferencesMenuItemSelected >= 0 && increment == 1 && preferencesMenuItemSelected < PREFE
 7804              		.loc 2 332 65 is_stmt 0 view .LVU2061
 7805 0002 90F85D30 		ldrb	r3, [r0, #93]	@ zero_extendqisi2
 332:Dubby.cpp     ****     if (((preferencesMenuItemSelected >= 0 && increment == 1 && preferencesMenuItemSelected < PREFE
 7806              		.loc 2 332 5 view .LVU2062
 7807 0006 06D0     		beq	.L490
 332:Dubby.cpp     ****     if (((preferencesMenuItemSelected >= 0 && increment == 1 && preferencesMenuItemSelected < PREFE
 7808              		.loc 2 332 140 discriminator 4 view .LVU2063
 7809 0008 23B1     		cbz	r3, .L483
 7810              	.L485:
 7811              	.LVL565:
 7812              	.LBB1750:
 7813              	.LBI1750:
 330:Dubby.cpp     **** void Dubby::UpdatePreferencesMenu(int increment) 
 7814              		.loc 2 330 6 is_stmt 1 view .LVU2064
 7815              	.LBB1751:
 334:Dubby.cpp     ****         preferencesMenuItemSelected = (PreferenesMenuItems)(preferencesMenuItemSelected + increment
 7816              		.loc 2 334 9 view .LVU2065
 334:Dubby.cpp     ****         preferencesMenuItemSelected = (PreferenesMenuItems)(preferencesMenuItemSelected + increment
 7817              		.loc 2 334 89 is_stmt 0 view .LVU2066
 7818 000a 1944     		add	r1, r1, r3
 7819              	.LVL566:
 334:Dubby.cpp     ****         preferencesMenuItemSelected = (PreferenesMenuItems)(preferencesMenuItemSelected + increment
 7820              		.loc 2 334 37 view .LVU2067
 7821 000c 80F85D10 		strb	r1, [r0, #93]
 336:Dubby.cpp     ****         DisplayPreferencesMenu();
 7822              		.loc 2 336 9 is_stmt 1 view .LVU2068
 336:Dubby.cpp     ****         DisplayPreferencesMenu();
 7823              		.loc 2 336 31 is_stmt 0 view .LVU2069
 7824 0010 FFF7FEBF 		b	_ZN5daisy5Dubby22DisplayPreferencesMenuEv
 7825              	.LVL567:
 7826              	.L483:
 336:Dubby.cpp     ****         DisplayPreferencesMenu();
 7827              		.loc 2 336 31 view .LVU2070
 7828              	.LBE1751:
 7829              	.LBE1750:
 338:Dubby.cpp     **** }
 7830              		.loc 2 338 1 view .LVU2071
 7831 0014 7047     		bx	lr
 7832              	.L490:
 332:Dubby.cpp     ****     if (((preferencesMenuItemSelected >= 0 && increment == 1 && preferencesMenuItemSelected < PREFE
 7833              		.loc 2 332 62 discriminator 1 view .LVU2072
 7834 0016 022B     		cmp	r3, #2
 7835 0018 F7D9     		bls	.L485
 7836 001a 7047     		bx	lr
 7837              		.cfi_endproc
 7838              	.LFE3760:
 7840              		.section	.rodata._ZN5daisy5Dubby17ResetToBootloaderEv.str1.4,"aMS",%progbits,1
ARM GAS  /var/folders/1y/_321xjh9623c014x9_qw12rr0000gn/T//ccXZVGQV.s 			page 223


 7841              		.align	2
 7842              	.LC15:
 7843 0000 4649524D 		.ascii	"FIRMWARE UPDATE\000"
 7843      57415245 
 7843      20555044 
 7843      41544500 
 7844              		.section	.text._ZN5daisy5Dubby17ResetToBootloaderEv,"ax",%progbits
 7845              		.align	1
 7846              		.p2align 2,,3
 7847              		.global	_ZN5daisy5Dubby17ResetToBootloaderEv
 7848              		.syntax unified
 7849              		.thumb
 7850              		.thumb_func
 7852              	_ZN5daisy5Dubby17ResetToBootloaderEv:
 7853              	.LVL568:
 7854              	.LFB3761:
 341:Dubby.cpp     **** {
 7855              		.loc 2 341 1 is_stmt 1 view -0
 7856              		.cfi_startproc
 7857              		@ args = 0, pretend = 0, frame = 8
 7858              		@ frame_needed = 0, uses_anonymous_args = 0
 342:Dubby.cpp     ****     DrawBitmap(1);
 7859              		.loc 2 342 5 view .LVU2074
 341:Dubby.cpp     **** {
 7860              		.loc 2 341 1 is_stmt 0 view .LVU2075
 7861 0000 2DE9F041 		push	{r4, r5, r6, r7, r8, lr}
 7862              		.cfi_def_cfa_offset 24
 7863              		.cfi_offset 4, -24
 7864              		.cfi_offset 5, -20
 7865              		.cfi_offset 6, -16
 7866              		.cfi_offset 7, -12
 7867              		.cfi_offset 8, -8
 7868              		.cfi_offset 14, -4
 342:Dubby.cpp     ****     DrawBitmap(1);
 7869              		.loc 2 342 15 view .LVU2076
 7870 0004 0121     		movs	r1, #1
 341:Dubby.cpp     **** {
 7871              		.loc 2 341 1 view .LVU2077
 7872 0006 84B0     		sub	sp, sp, #16
 7873              		.cfi_def_cfa_offset 40
 341:Dubby.cpp     **** {
 7874              		.loc 2 341 1 view .LVU2078
 7875 0008 0546     		mov	r5, r0
 7876              	.LBB1774:
 7877              	.LBB1775:
 173:../../libDaisy//src/hid/disp/display.h ****         currentY_ = (y >= Height()) ? Height() - 1 : y;
 7878              		.loc 3 173 19 view .LVU2079
 7879 000a 2A4C     		ldr	r4, .L495
 7880              	.LBE1775:
 7881              	.LBE1774:
 342:Dubby.cpp     ****     DrawBitmap(1);
 7882              		.loc 2 342 15 view .LVU2080
 7883 000c FFF7FEFF 		bl	_ZN5daisy5Dubby10DrawBitmapEi
 7884              	.LVL569:
 344:Dubby.cpp     ****     display.SetCursor(20, 55);
 7885              		.loc 2 344 5 is_stmt 1 view .LVU2081
 7886              	.LBB1778:
ARM GAS  /var/folders/1y/_321xjh9623c014x9_qw12rr0000gn/T//ccXZVGQV.s 			page 224


 7887              	.LBI1774:
 171:../../libDaisy//src/hid/disp/display.h ****     {
 7888              		.loc 3 171 10 view .LVU2082
 7889              	.LBB1776:
 173:../../libDaisy//src/hid/disp/display.h ****         currentY_ = (y >= Height()) ? Height() - 1 : y;
 7890              		.loc 3 173 9 view .LVU2083
 174:../../libDaisy//src/hid/disp/display.h ****     }
 7891              		.loc 3 174 9 view .LVU2084
 7892              	.LBE1776:
 7893              	.LBE1778:
 345:Dubby.cpp     ****     display.WriteString("FIRMWARE UPDATE", Font_6x8, true);
 7894              		.loc 2 345 24 is_stmt 0 view .LVU2085
 7895 0010 0120     		movs	r0, #1
 7896 0012 294B     		ldr	r3, .L495+4
 7897              	.LBB1779:
 7898              	.LBB1780:
 7899              	.LBB1781:
 7900              	.LBB1782:
 7901              	.LBB1783:
 124:../../libDaisy//src/dev/oled_ssd130x.h ****         spi_.BlockingTransmit(&cmd, 1);
 7902              		.loc 4 124 24 view .LVU2086
 7903 0014 05F2B447 		addw	r7, r5, #1204
 7904              	.LBE1783:
 7905              	.LBE1782:
 7906              	.LBE1781:
 7907              	.LBE1780:
 7908              	.LBE1779:
 7909              	.LBB1807:
 7910              	.LBB1777:
 173:../../libDaisy//src/hid/disp/display.h ****         currentY_ = (y >= Height()) ? Height() - 1 : y;
 7911              		.loc 3 173 19 view .LVU2087
 7912 0018 C5F8B044 		str	r4, [r5, #1200]
 7913              	.LVL570:
 173:../../libDaisy//src/hid/disp/display.h ****         currentY_ = (y >= Height()) ? Height() - 1 : y;
 7914              		.loc 3 173 19 view .LVU2088
 7915              	.LBE1777:
 7916              	.LBE1807:
 345:Dubby.cpp     ****     display.WriteString("FIRMWARE UPDATE", Font_6x8, true);
 7917              		.loc 2 345 5 is_stmt 1 view .LVU2089
 7918              	.LBB1808:
 7919              	.LBB1805:
 7920              	.LBB1803:
 7921              	.LBB1789:
 7922              	.LBB1784:
 124:../../libDaisy//src/dev/oled_ssd130x.h ****         spi_.BlockingTransmit(&cmd, 1);
 7923              		.loc 4 124 24 is_stmt 0 view .LVU2090
 7924 001c 05F2BC46 		addw	r6, r5, #1212
 125:../../libDaisy//src/dev/oled_ssd130x.h ****     };
 7925              		.loc 4 125 30 view .LVU2091
 7926 0020 B024     		movs	r4, #176
 7927              	.LBE1784:
 7928              	.LBE1789:
 7929              	.LBE1803:
 7930              	.LBE1805:
 7931              	.LBE1808:
 345:Dubby.cpp     ****     display.WriteString("FIRMWARE UPDATE", Font_6x8, true);
 7932              		.loc 2 345 24 view .LVU2092
ARM GAS  /var/folders/1y/_321xjh9623c014x9_qw12rr0000gn/T//ccXZVGQV.s 			page 225


 7933 0022 2649     		ldr	r1, .L495+8
 7934 0024 0CCB     		ldm	r3, {r2, r3}
 7935 0026 0090     		str	r0, [sp]
 7936 0028 05F2AC40 		addw	r0, r5, #1196
 7937 002c 05F59865 		add	r5, r5, #1216
 7938              	.LVL571:
 345:Dubby.cpp     ****     display.WriteString("FIRMWARE UPDATE", Font_6x8, true);
 7939              		.loc 2 345 24 view .LVU2093
 7940 0030 FFF7FEFF 		bl	_ZN5daisy25OneBitGraphicsDisplayImplINS_11OledDisplayINS_13SSD130xDriverILj128ELj64ENS_24SSD130
 7941              	.LVL572:
 347:Dubby.cpp     ****     display.Update();
 7942              		.loc 2 347 5 is_stmt 1 view .LVU2094
 7943              	.LBB1809:
 7944              	.LBI1779:
 7945              		.loc 1 51 10 view .LVU2095
 7946              	.LBB1806:
 7947              	.LBI1780:
 373:../../libDaisy//src/dev/oled_ssd130x.h ****     {
 7948              		.loc 4 373 10 view .LVU2096
 7949              	.LBB1804:
 7950              		.loc 4 383 22 view .LVU2097
 7951              	.L492:
 7952              		.loc 4 383 22 is_stmt 0 view .LVU2098
 7953 0034 4FF00008 		mov	r8, #0
 7954              	.LBB1790:
 7955              	.LBB1785:
 124:../../libDaisy//src/dev/oled_ssd130x.h ****         spi_.BlockingTransmit(&cmd, 1);
 7956              		.loc 4 124 23 view .LVU2099
 7957 0038 3046     		mov	r0, r6
 7958 003a 8DF80F40 		strb	r4, [sp, #15]
 7959              	.LVL573:
 124:../../libDaisy//src/dev/oled_ssd130x.h ****         spi_.BlockingTransmit(&cmd, 1);
 7960              		.loc 4 124 23 view .LVU2100
 7961              	.LBE1785:
 7962              	.LBI1782:
 122:../../libDaisy//src/dev/oled_ssd130x.h ****     {
 7963              		.loc 4 122 10 is_stmt 1 view .LVU2101
 7964              	.LBB1786:
 124:../../libDaisy//src/dev/oled_ssd130x.h ****         spi_.BlockingTransmit(&cmd, 1);
 7965              		.loc 4 124 9 view .LVU2102
 7966              	.LBE1786:
 7967              	.LBE1790:
 7968              		.loc 4 383 22 is_stmt 0 view .LVU2103
 7969 003e 0134     		adds	r4, r4, #1
 7970              	.LVL574:
 7971              	.LBB1791:
 7972              	.LBB1787:
 124:../../libDaisy//src/dev/oled_ssd130x.h ****         spi_.BlockingTransmit(&cmd, 1);
 7973              		.loc 4 124 23 view .LVU2104
 7974 0040 4146     		mov	r1, r8
 7975 0042 FFF7FEFF 		bl	dsy_gpio_write
 7976              	.LVL575:
 125:../../libDaisy//src/dev/oled_ssd130x.h ****     };
 7977              		.loc 4 125 9 is_stmt 1 view .LVU2105
 125:../../libDaisy//src/dev/oled_ssd130x.h ****     };
 7978              		.loc 4 125 30 is_stmt 0 view .LVU2106
 7979 0046 6423     		movs	r3, #100
ARM GAS  /var/folders/1y/_321xjh9623c014x9_qw12rr0000gn/T//ccXZVGQV.s 			page 226


 7980 0048 0122     		movs	r2, #1
 7981 004a 0DF10F01 		add	r1, sp, #15
 7982 004e 3846     		mov	r0, r7
 7983              	.LBE1787:
 7984              	.LBE1791:
 7985              		.loc 4 383 22 view .LVU2107
 7986 0050 E4B2     		uxtb	r4, r4
 7987              	.LBB1792:
 7988              	.LBB1788:
 125:../../libDaisy//src/dev/oled_ssd130x.h ****     };
 7989              		.loc 4 125 30 view .LVU2108
 7990 0052 FFF7FEFF 		bl	_ZN5daisy9SpiHandle16BlockingTransmitEPhjm
 7991              	.LVL576:
 125:../../libDaisy//src/dev/oled_ssd130x.h ****     };
 7992              		.loc 4 125 30 view .LVU2109
 7993              	.LBE1788:
 7994              	.LBE1792:
 7995              	.LBB1793:
 7996              	.LBB1794:
 124:../../libDaisy//src/dev/oled_ssd130x.h ****         spi_.BlockingTransmit(&cmd, 1);
 7997              		.loc 4 124 23 view .LVU2110
 7998 0056 4146     		mov	r1, r8
 7999 0058 3046     		mov	r0, r6
 8000 005a 8DF80F80 		strb	r8, [sp, #15]
 8001              	.LVL577:
 124:../../libDaisy//src/dev/oled_ssd130x.h ****         spi_.BlockingTransmit(&cmd, 1);
 8002              		.loc 4 124 23 view .LVU2111
 8003              	.LBE1794:
 8004              	.LBI1793:
 122:../../libDaisy//src/dev/oled_ssd130x.h ****     {
 8005              		.loc 4 122 10 is_stmt 1 view .LVU2112
 8006              	.LBB1795:
 124:../../libDaisy//src/dev/oled_ssd130x.h ****         spi_.BlockingTransmit(&cmd, 1);
 8007              		.loc 4 124 9 view .LVU2113
 124:../../libDaisy//src/dev/oled_ssd130x.h ****         spi_.BlockingTransmit(&cmd, 1);
 8008              		.loc 4 124 23 is_stmt 0 view .LVU2114
 8009 005e FFF7FEFF 		bl	dsy_gpio_write
 8010              	.LVL578:
 125:../../libDaisy//src/dev/oled_ssd130x.h ****     };
 8011              		.loc 4 125 9 is_stmt 1 view .LVU2115
 125:../../libDaisy//src/dev/oled_ssd130x.h ****     };
 8012              		.loc 4 125 30 is_stmt 0 view .LVU2116
 8013 0062 0122     		movs	r2, #1
 8014 0064 6423     		movs	r3, #100
 8015 0066 0DF10F01 		add	r1, sp, #15
 8016 006a 3846     		mov	r0, r7
 8017 006c FFF7FEFF 		bl	_ZN5daisy9SpiHandle16BlockingTransmitEPhjm
 8018              	.LVL579:
 125:../../libDaisy//src/dev/oled_ssd130x.h ****     };
 8019              		.loc 4 125 30 view .LVU2117
 8020 0070 1023     		movs	r3, #16
 8021              	.LBE1795:
 8022              	.LBE1793:
 8023              	.LBB1796:
 8024              	.LBB1797:
 124:../../libDaisy//src/dev/oled_ssd130x.h ****         spi_.BlockingTransmit(&cmd, 1);
 8025              		.loc 4 124 23 view .LVU2118
ARM GAS  /var/folders/1y/_321xjh9623c014x9_qw12rr0000gn/T//ccXZVGQV.s 			page 227


 8026 0072 4146     		mov	r1, r8
 8027 0074 3046     		mov	r0, r6
 8028 0076 8DF80F30 		strb	r3, [sp, #15]
 8029              	.LVL580:
 124:../../libDaisy//src/dev/oled_ssd130x.h ****         spi_.BlockingTransmit(&cmd, 1);
 8030              		.loc 4 124 23 view .LVU2119
 8031              	.LBE1797:
 8032              	.LBI1796:
 122:../../libDaisy//src/dev/oled_ssd130x.h ****     {
 8033              		.loc 4 122 10 is_stmt 1 view .LVU2120
 8034              	.LBB1798:
 124:../../libDaisy//src/dev/oled_ssd130x.h ****         spi_.BlockingTransmit(&cmd, 1);
 8035              		.loc 4 124 9 view .LVU2121
 124:../../libDaisy//src/dev/oled_ssd130x.h ****         spi_.BlockingTransmit(&cmd, 1);
 8036              		.loc 4 124 23 is_stmt 0 view .LVU2122
 8037 007a FFF7FEFF 		bl	dsy_gpio_write
 8038              	.LVL581:
 125:../../libDaisy//src/dev/oled_ssd130x.h ****     };
 8039              		.loc 4 125 9 is_stmt 1 view .LVU2123
 125:../../libDaisy//src/dev/oled_ssd130x.h ****     };
 8040              		.loc 4 125 30 is_stmt 0 view .LVU2124
 8041 007e 6423     		movs	r3, #100
 8042 0080 0122     		movs	r2, #1
 8043 0082 0DF10F01 		add	r1, sp, #15
 8044 0086 3846     		mov	r0, r7
 8045 0088 FFF7FEFF 		bl	_ZN5daisy9SpiHandle16BlockingTransmitEPhjm
 8046              	.LVL582:
 125:../../libDaisy//src/dev/oled_ssd130x.h ****     };
 8047              		.loc 4 125 30 view .LVU2125
 8048              	.LBE1798:
 8049              	.LBE1796:
 8050              	.LBB1799:
 8051              	.LBI1799:
 128:../../libDaisy//src/dev/oled_ssd130x.h ****     {
 8052              		.loc 4 128 10 is_stmt 1 view .LVU2126
 8053              	.LBB1800:
 130:../../libDaisy//src/dev/oled_ssd130x.h ****         spi_.BlockingTransmit(buff, size);
 8054              		.loc 4 130 9 view .LVU2127
 130:../../libDaisy//src/dev/oled_ssd130x.h ****         spi_.BlockingTransmit(buff, size);
 8055              		.loc 4 130 23 is_stmt 0 view .LVU2128
 8056 008c 0121     		movs	r1, #1
 8057 008e 3046     		mov	r0, r6
 8058 0090 FFF7FEFF 		bl	dsy_gpio_write
 8059              	.LVL583:
 131:../../libDaisy//src/dev/oled_ssd130x.h ****     };
 8060              		.loc 4 131 9 is_stmt 1 view .LVU2129
 131:../../libDaisy//src/dev/oled_ssd130x.h ****     };
 8061              		.loc 4 131 30 is_stmt 0 view .LVU2130
 8062 0094 8022     		movs	r2, #128
 8063 0096 2946     		mov	r1, r5
 8064 0098 6423     		movs	r3, #100
 8065 009a 3846     		mov	r0, r7
 8066              	.LBE1800:
 8067              	.LBE1799:
 8068              		.loc 4 383 22 view .LVU2131
 8069 009c 1544     		add	r5, r5, r2
 8070              	.LVL584:
ARM GAS  /var/folders/1y/_321xjh9623c014x9_qw12rr0000gn/T//ccXZVGQV.s 			page 228


 8071              	.LBB1802:
 8072              	.LBB1801:
 131:../../libDaisy//src/dev/oled_ssd130x.h ****     };
 8073              		.loc 4 131 30 view .LVU2132
 8074 009e FFF7FEFF 		bl	_ZN5daisy9SpiHandle16BlockingTransmitEPhjm
 8075              	.LVL585:
 131:../../libDaisy//src/dev/oled_ssd130x.h ****     };
 8076              		.loc 4 131 30 view .LVU2133
 8077              	.LBE1801:
 8078              	.LBE1802:
 8079              		.loc 4 383 9 is_stmt 1 view .LVU2134
 8080              		.loc 4 383 22 view .LVU2135
 8081 00a2 B82C     		cmp	r4, #184
 8082 00a4 C6D1     		bne	.L492
 8083              	.LVL586:
 8084              		.loc 4 383 22 is_stmt 0 view .LVU2136
 8085              	.LBE1804:
 8086              	.LBE1806:
 8087              	.LBE1809:
 349:Dubby.cpp     ****     System::ResetToBootloader(System::DAISY_INFINITE_TIMEOUT);
 8088              		.loc 2 349 5 is_stmt 1 view .LVU2137
 349:Dubby.cpp     ****     System::ResetToBootloader(System::DAISY_INFINITE_TIMEOUT);
 8089              		.loc 2 349 30 is_stmt 0 view .LVU2138
 8090 00a6 0320     		movs	r0, #3
 350:Dubby.cpp     **** }
 8091              		.loc 2 350 1 view .LVU2139
 8092 00a8 04B0     		add	sp, sp, #16
 8093              		.cfi_def_cfa_offset 24
 8094              		@ sp needed
 8095 00aa BDE8F041 		pop	{r4, r5, r6, r7, r8, lr}
 8096              		.cfi_restore 14
 8097              		.cfi_restore 8
 8098              		.cfi_restore 7
 8099              		.cfi_restore 6
 8100              		.cfi_restore 5
 8101              		.cfi_restore 4
 8102              		.cfi_def_cfa_offset 0
 8103              	.LVL587:
 349:Dubby.cpp     ****     System::ResetToBootloader(System::DAISY_INFINITE_TIMEOUT);
 8104              		.loc 2 349 30 view .LVU2140
 8105 00ae FFF7FEBF 		b	_ZN5daisy6System17ResetToBootloaderENS0_14BootloaderModeE
 8106              	.LVL588:
 8107              	.L496:
 8108 00b2 00BF     		.align	2
 8109              	.L495:
 8110 00b4 14003700 		.word	3604500
 8111 00b8 00000000 		.word	Font_6x8
 8112 00bc 00000000 		.word	.LC15
 8113              		.cfi_endproc
 8114              	.LFE3761:
 8116              		.section	.text._ZN5daisy5Dubby13UpdateDisplayEv,"ax",%progbits
 8117              		.align	1
 8118              		.p2align 2,,3
 8119              		.global	_ZN5daisy5Dubby13UpdateDisplayEv
 8120              		.syntax unified
 8121              		.thumb
 8122              		.thumb_func
ARM GAS  /var/folders/1y/_321xjh9623c014x9_qw12rr0000gn/T//ccXZVGQV.s 			page 229


 8124              	_ZN5daisy5Dubby13UpdateDisplayEv:
 8125              	.LVL589:
 8126              	.LFB3749:
 123:Dubby.cpp     **** {
 8127              		.loc 2 123 1 is_stmt 1 view -0
 8128              		.cfi_startproc
 8129              		@ args = 0, pretend = 0, frame = 8
 8130              		@ frame_needed = 0, uses_anonymous_args = 0
 124:Dubby.cpp     ****     if (encoder.TimeHeldMs() > 300) 
 8131              		.loc 2 124 5 view .LVU2142
 123:Dubby.cpp     **** {
 8132              		.loc 2 123 1 is_stmt 0 view .LVU2143
 8133 0000 2DE9F043 		push	{r4, r5, r6, r7, r8, r9, lr}
 8134              		.cfi_def_cfa_offset 28
 8135              		.cfi_offset 4, -28
 8136              		.cfi_offset 5, -24
 8137              		.cfi_offset 6, -20
 8138              		.cfi_offset 7, -16
 8139              		.cfi_offset 8, -12
 8140              		.cfi_offset 9, -8
 8141              		.cfi_offset 14, -4
 8142              	.LBB1868:
 8143              	.LBB1869:
 8144              	.LBB1870:
 8145              		.file 16 "../../libDaisy//src/hid/switch.h"
   1:../../libDaisy//src/hid/switch.h **** #pragma once
   2:../../libDaisy//src/hid/switch.h **** #ifndef DSY_SWITCH_H
   3:../../libDaisy//src/hid/switch.h **** #define DSY_SWITCH_H
   4:../../libDaisy//src/hid/switch.h **** #include "daisy_core.h"
   5:../../libDaisy//src/hid/switch.h **** #include "per/gpio.h"
   6:../../libDaisy//src/hid/switch.h **** #include "sys/system.h"
   7:../../libDaisy//src/hid/switch.h **** 
   8:../../libDaisy//src/hid/switch.h **** namespace daisy
   9:../../libDaisy//src/hid/switch.h **** {
  10:../../libDaisy//src/hid/switch.h **** /** 
  11:../../libDaisy//src/hid/switch.h ****     Generic Class for handling momentary/latching switches \n 
  12:../../libDaisy//src/hid/switch.h ****     Inspired/influenced by Mutable Instruments (pichenettes) Switch classes
  13:../../libDaisy//src/hid/switch.h ****     @author Stephen Hensley
  14:../../libDaisy//src/hid/switch.h ****     @date December 2019
  15:../../libDaisy//src/hid/switch.h ****     @ingroup controls
  16:../../libDaisy//src/hid/switch.h **** */
  17:../../libDaisy//src/hid/switch.h **** class Switch
  18:../../libDaisy//src/hid/switch.h **** {
  19:../../libDaisy//src/hid/switch.h ****   public:
  20:../../libDaisy//src/hid/switch.h ****     /** Specifies the expected behavior of the switch */
  21:../../libDaisy//src/hid/switch.h ****     enum Type
  22:../../libDaisy//src/hid/switch.h ****     {
  23:../../libDaisy//src/hid/switch.h ****         TYPE_TOGGLE,    /**< & */
  24:../../libDaisy//src/hid/switch.h ****         TYPE_MOMENTARY, /**< & */
  25:../../libDaisy//src/hid/switch.h ****     };
  26:../../libDaisy//src/hid/switch.h ****     /** Specifies whether the pressed is HIGH or LOW. */
  27:../../libDaisy//src/hid/switch.h ****     enum Polarity
  28:../../libDaisy//src/hid/switch.h ****     {
  29:../../libDaisy//src/hid/switch.h ****         POLARITY_NORMAL,   /**< & */
  30:../../libDaisy//src/hid/switch.h ****         POLARITY_INVERTED, /**< & */
  31:../../libDaisy//src/hid/switch.h ****     };
  32:../../libDaisy//src/hid/switch.h **** 
ARM GAS  /var/folders/1y/_321xjh9623c014x9_qw12rr0000gn/T//ccXZVGQV.s 			page 230


  33:../../libDaisy//src/hid/switch.h ****     /** Specifies whether to use built-in Pull Up/Down resistors to hold button at a given state wh
  34:../../libDaisy//src/hid/switch.h ****     enum Pull
  35:../../libDaisy//src/hid/switch.h ****     {
  36:../../libDaisy//src/hid/switch.h ****         PULL_UP,   /**< & */
  37:../../libDaisy//src/hid/switch.h ****         PULL_DOWN, /**< & */
  38:../../libDaisy//src/hid/switch.h ****         PULL_NONE, /**< & */
  39:../../libDaisy//src/hid/switch.h ****     };
  40:../../libDaisy//src/hid/switch.h **** 
  41:../../libDaisy//src/hid/switch.h ****     Switch() {}
  42:../../libDaisy//src/hid/switch.h ****     ~Switch() {}
  43:../../libDaisy//src/hid/switch.h **** 
  44:../../libDaisy//src/hid/switch.h ****     /** 
  45:../../libDaisy//src/hid/switch.h ****     Initializes the switch object with a given port/pin combo.
  46:../../libDaisy//src/hid/switch.h ****     \param pin port/pin object to tell the switch which hardware pin to use.
  47:../../libDaisy//src/hid/switch.h ****     \param update_rate Does nothing. Backwards compatibility until next breaking update.
  48:../../libDaisy//src/hid/switch.h ****     \param t switch type -- Default: TYPE_MOMENTARY
  49:../../libDaisy//src/hid/switch.h ****     \param pol switch polarity -- Default: POLARITY_INVERTED
  50:../../libDaisy//src/hid/switch.h ****     \param pu switch pull up/down -- Default: PULL_UP
  51:../../libDaisy//src/hid/switch.h ****     */
  52:../../libDaisy//src/hid/switch.h ****     void
  53:../../libDaisy//src/hid/switch.h ****     Init(dsy_gpio_pin pin, float update_rate, Type t, Polarity pol, Pull pu);
  54:../../libDaisy//src/hid/switch.h **** 
  55:../../libDaisy//src/hid/switch.h ****     /**
  56:../../libDaisy//src/hid/switch.h ****        Simplified Init.
  57:../../libDaisy//src/hid/switch.h ****        \param pin port/pin object to tell the switch which hardware pin to use.
  58:../../libDaisy//src/hid/switch.h ****        \param update_rate Left for backwards compatibility until next breaking change.
  59:../../libDaisy//src/hid/switch.h ****     */
  60:../../libDaisy//src/hid/switch.h ****     void Init(dsy_gpio_pin pin, float update_rate = 0.f);
  61:../../libDaisy//src/hid/switch.h **** 
  62:../../libDaisy//src/hid/switch.h ****     /** 
  63:../../libDaisy//src/hid/switch.h ****     Called at update_rate to debounce and handle timing for the switch.
  64:../../libDaisy//src/hid/switch.h ****     In order for events not to be missed, its important that the Edge/Pressed checks
  65:../../libDaisy//src/hid/switch.h ****     be made at the same rate as the debounce function is being called.
  66:../../libDaisy//src/hid/switch.h ****     */
  67:../../libDaisy//src/hid/switch.h ****     void Debounce();
  68:../../libDaisy//src/hid/switch.h **** 
  69:../../libDaisy//src/hid/switch.h ****     /** \return true if a button was just pressed. */
  70:../../libDaisy//src/hid/switch.h ****     inline bool RisingEdge() const { return updated_ ? state_ == 0x7f : false; }
  71:../../libDaisy//src/hid/switch.h **** 
  72:../../libDaisy//src/hid/switch.h ****     /** \return true if the button was just released */
  73:../../libDaisy//src/hid/switch.h ****     inline bool FallingEdge() const
  74:../../libDaisy//src/hid/switch.h ****     {
  75:../../libDaisy//src/hid/switch.h ****         return updated_ ? state_ == 0x80 : false;
  76:../../libDaisy//src/hid/switch.h ****     }
  77:../../libDaisy//src/hid/switch.h **** 
  78:../../libDaisy//src/hid/switch.h ****     /** \return true if the button is held down (or if the toggle is on) */
  79:../../libDaisy//src/hid/switch.h ****     inline bool Pressed() const { return state_ == 0xff; }
  80:../../libDaisy//src/hid/switch.h **** 
  81:../../libDaisy//src/hid/switch.h ****     /** \return true if the button is held down, without debouncing */
  82:../../libDaisy//src/hid/switch.h ****     inline bool RawState()
  83:../../libDaisy//src/hid/switch.h ****     {
  84:../../libDaisy//src/hid/switch.h ****         return flip_ ? !dsy_gpio_read(&hw_gpio_) : dsy_gpio_read(&hw_gpio_);
  85:../../libDaisy//src/hid/switch.h ****     }
  86:../../libDaisy//src/hid/switch.h **** 
  87:../../libDaisy//src/hid/switch.h ****     /** \return the time in milliseconds that the button has been held (or toggle has been on) */
  88:../../libDaisy//src/hid/switch.h ****     inline float TimeHeldMs() const
  89:../../libDaisy//src/hid/switch.h ****     {
ARM GAS  /var/folders/1y/_321xjh9623c014x9_qw12rr0000gn/T//ccXZVGQV.s 			page 231


  90:../../libDaisy//src/hid/switch.h ****         return Pressed() ? System::GetNow() - rising_edge_time_ : 0;
 8146              		.loc 16 90 26 view .LVU2144
 8147 0004 90F80A31 		ldrb	r3, [r0, #266]	@ zero_extendqisi2
 8148              	.LBE1870:
 8149              	.LBE1869:
 8150              	.LBE1868:
 123:Dubby.cpp     **** {
 8151              		.loc 2 123 1 view .LVU2145
 8152 0008 83B0     		sub	sp, sp, #12
 8153              		.cfi_def_cfa_offset 40
 123:Dubby.cpp     **** {
 8154              		.loc 2 123 1 view .LVU2146
 8155 000a 0446     		mov	r4, r0
 8156              	.LVL590:
 8157              	.LBB1883:
 8158              	.LBI1868:
 8159              		.file 17 "ui/DubbyEncoder.h"
   1:ui/DubbyEncoder.h **** #pragma once
   2:ui/DubbyEncoder.h **** #include "daisy_core.h"
   3:ui/DubbyEncoder.h **** #include "per/gpio.h"
   4:ui/DubbyEncoder.h **** #include "hid/switch.h"
   5:ui/DubbyEncoder.h **** 
   6:ui/DubbyEncoder.h **** namespace daisy
   7:ui/DubbyEncoder.h **** {
   8:ui/DubbyEncoder.h **** /** 
   9:ui/DubbyEncoder.h ****     @brief Generic Class for handling Quadrature Encoders \n 
  10:ui/DubbyEncoder.h ****     Inspired/influenced by Mutable Instruments (pichenettes) Encoder classes
  11:ui/DubbyEncoder.h ****     @author Stephen Hensley
  12:ui/DubbyEncoder.h ****     @date December 2019
  13:ui/DubbyEncoder.h ****     @ingroup controls
  14:ui/DubbyEncoder.h **** */
  15:ui/DubbyEncoder.h **** class DubbyEncoder
  16:ui/DubbyEncoder.h **** {
  17:ui/DubbyEncoder.h ****   public:
  18:ui/DubbyEncoder.h ****     DubbyEncoder() {}
  19:ui/DubbyEncoder.h ****     ~DubbyEncoder() {}
  20:ui/DubbyEncoder.h **** 
  21:ui/DubbyEncoder.h ****     /** Initializes the encoder with the specified hardware pins.
  22:ui/DubbyEncoder.h ****      * Update rate is to be deprecated in a future release
  23:ui/DubbyEncoder.h ****      */
  24:ui/DubbyEncoder.h ****     void Init(dsy_gpio_pin a,
  25:ui/DubbyEncoder.h ****               dsy_gpio_pin b,
  26:ui/DubbyEncoder.h ****               dsy_gpio_pin click,
  27:ui/DubbyEncoder.h ****               float        update_rate = 0.f);
  28:ui/DubbyEncoder.h ****     /** Called at update_rate to debounce and handle timing for the switch.
  29:ui/DubbyEncoder.h ****      * In order for events not to be missed, its important that the Edge/Pressed checks be made at 
  30:ui/DubbyEncoder.h ****      */
  31:ui/DubbyEncoder.h ****     void Debounce();
  32:ui/DubbyEncoder.h **** 
  33:ui/DubbyEncoder.h ****     /** Returns +1 if the encoder was turned clockwise, -1 if it was turned counter-clockwise, or 0
  34:ui/DubbyEncoder.h ****     inline int32_t Increment() const { return updated_ ? inc_ : 0; }
  35:ui/DubbyEncoder.h **** 
  36:ui/DubbyEncoder.h ****     /** Returns true if the encoder was just pressed. */
  37:ui/DubbyEncoder.h ****     inline bool RisingEdge() const { return sw_.RisingEdge(); }
  38:ui/DubbyEncoder.h **** 
  39:ui/DubbyEncoder.h ****     /** Returns true if the encoder was just released. */
  40:ui/DubbyEncoder.h ****     inline bool FallingEdge() const { return sw_.FallingEdge(); }
ARM GAS  /var/folders/1y/_321xjh9623c014x9_qw12rr0000gn/T//ccXZVGQV.s 			page 232


  41:ui/DubbyEncoder.h **** 
  42:ui/DubbyEncoder.h ****     /** Returns true while the encoder is held down.*/
  43:ui/DubbyEncoder.h ****     inline bool Pressed() const { return sw_.Pressed(); }
  44:ui/DubbyEncoder.h **** 
  45:ui/DubbyEncoder.h ****     /** Returns the time in milliseconds that the encoder has been held down. */
  46:ui/DubbyEncoder.h ****     inline float TimeHeldMs() const { return sw_.TimeHeldMs(); }
 8160              		.loc 17 46 18 is_stmt 1 view .LVU2147
 8161              	.LBE1883:
 8162              		.loc 17 46 39 view .LVU2148
 8163              	.LBB1884:
 8164              	.LBB1880:
 8165              	.LBI1869:
  88:../../libDaisy//src/hid/switch.h ****     {
 8166              		.loc 16 88 18 view .LVU2149
 8167              	.LBB1877:
 8168              		.loc 16 90 9 view .LVU2150
 8169              	.LBB1871:
 8170              	.LBI1871:
  79:../../libDaisy//src/hid/switch.h **** 
 8171              		.loc 16 79 17 view .LVU2151
 8172              	.LBB1872:
  79:../../libDaisy//src/hid/switch.h **** 
 8173              		.loc 16 79 35 view .LVU2152
  79:../../libDaisy//src/hid/switch.h **** 
 8174              		.loc 16 79 35 is_stmt 0 view .LVU2153
 8175              	.LBE1872:
 8176              	.LBE1871:
 8177              		.loc 16 90 26 view .LVU2154
 8178 000c FF2B     		cmp	r3, #255
 8179 000e 13D0     		beq	.L576
 8180              	.LVL591:
 8181              		.loc 16 90 26 view .LVU2155
 8182              	.LBE1877:
 8183              	.LBE1880:
 8184              	.LBE1884:
 135:Dubby.cpp     ****     switch(menuItemSelected) 
 8185              		.loc 2 135 5 is_stmt 1 view .LVU2156
 135:Dubby.cpp     ****     switch(menuItemSelected) 
 8186              		.loc 2 135 12 is_stmt 0 view .LVU2157
 8187 0010 90F85C30 		ldrb	r3, [r0, #92]	@ zero_extendqisi2
 135:Dubby.cpp     ****     switch(menuItemSelected) 
 8188              		.loc 2 135 5 view .LVU2158
 8189 0014 012B     		cmp	r3, #1
 8190 0016 00F0C780 		beq	.L500
 8191 001a 022B     		cmp	r3, #2
 8192 001c 00F0E980 		beq	.L511
 8193 0020 002B     		cmp	r3, #0
 8194 0022 00F0B180 		beq	.L502
 8195              	.LVL592:
 8196              	.L518:
 151:Dubby.cpp     ****     if (encoder.TimeHeldMs() < 300 && menuActive)
 8197              		.loc 2 151 39 discriminator 1 view .LVU2159
 8198 0026 04F59033 		add	r3, r4, #73728
 151:Dubby.cpp     ****     if (encoder.TimeHeldMs() < 300 && menuActive)
 8199              		.loc 2 151 36 discriminator 1 view .LVU2160
 8200 002a 93F86C2B 		ldrb	r2, [r3, #2924]	@ zero_extendqisi2
 8201 002e 002A     		cmp	r2, #0
ARM GAS  /var/folders/1y/_321xjh9623c014x9_qw12rr0000gn/T//ccXZVGQV.s 			page 233


 8202 0030 40D1     		bne	.L522
 8203              	.L497:
 158:Dubby.cpp     **** }
 8204              		.loc 2 158 1 view .LVU2161
 8205 0032 03B0     		add	sp, sp, #12
 8206              		.cfi_remember_state
 8207              		.cfi_def_cfa_offset 28
 8208              		@ sp needed
 8209 0034 BDE8F083 		pop	{r4, r5, r6, r7, r8, r9, pc}
 8210              	.LVL593:
 8211              	.L576:
 8212              		.cfi_restore_state
 8213              	.LBB1885:
 8214              	.LBB1881:
 8215              	.LBB1878:
 8216              	.LBB1873:
 8217              	.LBI1873:
  88:../../libDaisy//src/hid/switch.h ****     {
 8218              		.loc 16 88 18 is_stmt 1 view .LVU2162
 8219              	.LBB1874:
 8220              		.loc 16 90 42 is_stmt 0 view .LVU2163
 8221 0038 FFF7FEFF 		bl	_ZN5daisy6System6GetNowEv
 8222              	.LVL594:
 8223              		.loc 16 90 45 view .LVU2164
 8224 003c 07EE900A 		vmov	s15, r0	@ int
 8225              		.loc 16 90 26 view .LVU2165
 8226 0040 D4ED436A 		vldr.32	s13, [r4, #268]
 8227              		.loc 16 90 45 view .LVU2166
 8228 0044 F8EE677A 		vcvt.f32.u32	s15, s15
 8229              	.LBE1874:
 8230              	.LBE1873:
 8231              	.LBE1878:
 8232              	.LBE1881:
 8233              	.LBE1885:
 124:Dubby.cpp     ****     if (encoder.TimeHeldMs() > 300) 
 8234              		.loc 2 124 5 view .LVU2167
 8235 0048 9FED8B7A 		vldr.32	s14, .L582
 8236              	.LBB1886:
 8237              	.LBB1882:
 8238              	.LBB1879:
 8239              	.LBB1876:
 8240              	.LBB1875:
 8241              		.loc 16 90 26 view .LVU2168
 8242 004c 77EEE67A 		vsub.f32	s15, s15, s13
 8243              	.LBE1875:
 8244              	.LBE1876:
 8245              	.LBE1879:
 8246              	.LBE1882:
 8247              	.LBE1886:
 124:Dubby.cpp     ****     if (encoder.TimeHeldMs() > 300) 
 8248              		.loc 2 124 5 view .LVU2169
 8249 0050 F4EEC77A 		vcmpe.f32	s15, s14
 8250 0054 F1EE10FA 		vmrs	APSR_nzcv, FPSCR
 8251 0058 09DD     		ble	.L505
 126:Dubby.cpp     ****         if (!menuActive) 
 8252              		.loc 2 126 9 is_stmt 1 view .LVU2170
 126:Dubby.cpp     ****         if (!menuActive) 
ARM GAS  /var/folders/1y/_321xjh9623c014x9_qw12rr0000gn/T//ccXZVGQV.s 			page 234


 8253              		.loc 2 126 14 is_stmt 0 view .LVU2171
 8254 005a 04F59035 		add	r5, r4, #73728
 126:Dubby.cpp     ****         if (!menuActive) 
 8255              		.loc 2 126 9 view .LVU2172
 8256 005e 95F86C3B 		ldrb	r3, [r5, #2924]	@ zero_extendqisi2
 8257 0062 002B     		cmp	r3, #0
 8258 0064 00F0B980 		beq	.L577
 132:Dubby.cpp     ****         if (encoder.Increment()) UpdateMenu(encoder.Increment(), true);
 8259              		.loc 2 132 9 is_stmt 1 view .LVU2173
 8260              	.LVL595:
 8261              	.LBB1887:
 8262              	.LBI1887:
  34:ui/DubbyEncoder.h **** 
 8263              		.loc 17 34 20 view .LVU2174
 8264              	.LBB1888:
  34:ui/DubbyEncoder.h **** 
 8265              		.loc 17 34 40 view .LVU2175
  34:ui/DubbyEncoder.h **** 
 8266              		.loc 17 34 56 is_stmt 0 view .LVU2176
 8267 0068 94F8FC30 		ldrb	r3, [r4, #252]	@ zero_extendqisi2
 8268 006c 73BB     		cbnz	r3, .L578
 8269              	.LVL596:
 8270              	.L505:
  34:ui/DubbyEncoder.h **** 
 8271              		.loc 17 34 56 view .LVU2177
 8272              	.LBE1888:
 8273              	.LBE1887:
 135:Dubby.cpp     ****     switch(menuItemSelected) 
 8274              		.loc 2 135 5 is_stmt 1 view .LVU2178
 135:Dubby.cpp     ****     switch(menuItemSelected) 
 8275              		.loc 2 135 12 is_stmt 0 view .LVU2179
 8276 006e 94F85C30 		ldrb	r3, [r4, #92]	@ zero_extendqisi2
 135:Dubby.cpp     ****     switch(menuItemSelected) 
 8277              		.loc 2 135 5 view .LVU2180
 8278 0072 012B     		cmp	r3, #1
 8279 0074 00F09880 		beq	.L500
 8280 0078 022B     		cmp	r3, #2
 8281 007a 00F0CF80 		beq	.L501
 8282 007e 002B     		cmp	r3, #0
 8283 0080 00F08280 		beq	.L502
 8284              	.L503:
 151:Dubby.cpp     ****     if (encoder.TimeHeldMs() < 300 && menuActive)
 8285              		.loc 2 151 5 is_stmt 1 view .LVU2181
 8286              	.LVL597:
 8287              	.LBB1891:
 8288              	.LBI1891:
 8289              		.loc 17 46 18 view .LVU2182
 8290              	.LBE1891:
 8291              		.loc 17 46 39 view .LVU2183
 8292              	.LBB1910:
 8293              	.LBB1892:
 8294              	.LBI1892:
  88:../../libDaisy//src/hid/switch.h ****     {
 8295              		.loc 16 88 18 view .LVU2184
 8296              	.LBB1893:
 8297              		.loc 16 90 9 view .LVU2185
 8298              	.LBB1894:
ARM GAS  /var/folders/1y/_321xjh9623c014x9_qw12rr0000gn/T//ccXZVGQV.s 			page 235


 8299              	.LBI1894:
  79:../../libDaisy//src/hid/switch.h **** 
 8300              		.loc 16 79 17 view .LVU2186
 8301              	.LBB1895:
  79:../../libDaisy//src/hid/switch.h **** 
 8302              		.loc 16 79 35 view .LVU2187
  79:../../libDaisy//src/hid/switch.h **** 
 8303              		.loc 16 79 35 is_stmt 0 view .LVU2188
 8304              	.LBE1895:
 8305              	.LBE1894:
 8306              		.loc 16 90 26 view .LVU2189
 8307 0084 94F80A31 		ldrb	r3, [r4, #266]	@ zero_extendqisi2
 8308 0088 FF2B     		cmp	r3, #255
 8309 008a CCD1     		bne	.L518
 8310              	.LVL598:
 8311              	.L517:
 8312              	.LBB1898:
 8313              	.LBI1898:
  88:../../libDaisy//src/hid/switch.h ****     {
 8314              		.loc 16 88 18 is_stmt 1 view .LVU2190
 8315              	.LBB1899:
 8316              		.loc 16 90 42 is_stmt 0 view .LVU2191
 8317 008c FFF7FEFF 		bl	_ZN5daisy6System6GetNowEv
 8318              	.LVL599:
 8319              		.loc 16 90 45 view .LVU2192
 8320 0090 07EE900A 		vmov	s15, r0	@ int
 8321              		.loc 16 90 26 view .LVU2193
 8322 0094 D4ED436A 		vldr.32	s13, [r4, #268]
 8323              		.loc 16 90 45 view .LVU2194
 8324 0098 F8EE677A 		vcvt.f32.u32	s15, s15
 8325              	.LBE1899:
 8326              	.LBE1898:
 8327              	.LBE1893:
 8328              	.LBE1892:
 8329              	.LBE1910:
 151:Dubby.cpp     ****     if (encoder.TimeHeldMs() < 300 && menuActive)
 8330              		.loc 2 151 36 view .LVU2195
 8331 009c 9FED767A 		vldr.32	s14, .L582
 8332              	.LBB1911:
 8333              	.LBB1907:
 8334              	.LBB1904:
 8335              	.LBB1901:
 8336              	.LBB1900:
 8337              		.loc 16 90 26 view .LVU2196
 8338 00a0 77EEE67A 		vsub.f32	s15, s15, s13
 8339              	.LBE1900:
 8340              	.LBE1901:
 8341              	.LBE1904:
 8342              	.LBE1907:
 8343              	.LBE1911:
 151:Dubby.cpp     ****     if (encoder.TimeHeldMs() < 300 && menuActive)
 8344              		.loc 2 151 36 view .LVU2197
 8345 00a4 F4EEC77A 		vcmpe.f32	s15, s14
 8346 00a8 F1EE10FA 		vmrs	APSR_nzcv, FPSCR
 8347 00ac BBD4     		bmi	.L518
 158:Dubby.cpp     **** }
 8348              		.loc 2 158 1 view .LVU2198
ARM GAS  /var/folders/1y/_321xjh9623c014x9_qw12rr0000gn/T//ccXZVGQV.s 			page 236


 8349 00ae 03B0     		add	sp, sp, #12
 8350              		.cfi_remember_state
 8351              		.cfi_def_cfa_offset 28
 8352              		@ sp needed
 8353 00b0 BDE8F083 		pop	{r4, r5, r6, r7, r8, r9, pc}
 8354              	.LVL600:
 8355              	.L522:
 8356              		.cfi_restore_state
 153:Dubby.cpp     ****         menuActive = false;
 8357              		.loc 2 153 9 is_stmt 1 view .LVU2199
 153:Dubby.cpp     ****         menuActive = false;
 8358              		.loc 2 153 20 is_stmt 0 view .LVU2200
 8359 00b4 0022     		movs	r2, #0
 155:Dubby.cpp     ****         ReleaseMenu();
 8360              		.loc 2 155 20 view .LVU2201
 8361 00b6 2046     		mov	r0, r4
 153:Dubby.cpp     ****         menuActive = false;
 8362              		.loc 2 153 20 view .LVU2202
 8363 00b8 83F86C2B 		strb	r2, [r3, #2924]
 155:Dubby.cpp     ****         ReleaseMenu();
 8364              		.loc 2 155 9 is_stmt 1 view .LVU2203
 155:Dubby.cpp     ****         ReleaseMenu();
 8365              		.loc 2 155 20 is_stmt 0 view .LVU2204
 8366 00bc FFF7FEFF 		bl	_ZN5daisy5Dubby11ReleaseMenuEv
 8367              	.LVL601:
 156:Dubby.cpp     ****         UpdateSubmenu();
 8368              		.loc 2 156 9 is_stmt 1 view .LVU2205
 156:Dubby.cpp     ****         UpdateSubmenu();
 8369              		.loc 2 156 22 is_stmt 0 view .LVU2206
 8370 00c0 2046     		mov	r0, r4
 158:Dubby.cpp     **** }
 8371              		.loc 2 158 1 view .LVU2207
 8372 00c2 03B0     		add	sp, sp, #12
 8373              		.cfi_remember_state
 8374              		.cfi_def_cfa_offset 28
 8375              		@ sp needed
 8376 00c4 BDE8F043 		pop	{r4, r5, r6, r7, r8, r9, lr}
 8377              		.cfi_restore 14
 8378              		.cfi_restore 9
 8379              		.cfi_restore 8
 8380              		.cfi_restore 7
 8381              		.cfi_restore 6
 8382              		.cfi_restore 5
 8383              		.cfi_restore 4
 8384              		.cfi_def_cfa_offset 0
 8385              	.LVL602:
 156:Dubby.cpp     ****         UpdateSubmenu();
 8386              		.loc 2 156 22 view .LVU2208
 8387 00c8 FFF7FEBF 		b	_ZN5daisy5Dubby13UpdateSubmenuEv
 8388              	.LVL603:
 8389              	.L578:
 8390              		.cfi_restore_state
 8391              	.LBB1912:
 8392              	.LBB1889:
  34:ui/DubbyEncoder.h **** 
 8393              		.loc 17 34 56 view .LVU2209
 8394 00cc D4F81C31 		ldr	r3, [r4, #284]
ARM GAS  /var/folders/1y/_321xjh9623c014x9_qw12rr0000gn/T//ccXZVGQV.s 			page 237


  34:ui/DubbyEncoder.h **** 
 8395              		.loc 17 34 56 view .LVU2210
 8396              	.LBE1889:
 8397              	.LBE1912:
 132:Dubby.cpp     ****         if (encoder.Increment()) UpdateMenu(encoder.Increment(), true);
 8398              		.loc 2 132 9 view .LVU2211
 8399 00d0 002B     		cmp	r3, #0
 8400 00d2 CCD0     		beq	.L505
 132:Dubby.cpp     ****         if (encoder.Increment()) UpdateMenu(encoder.Increment(), true);
 8401              		.loc 2 132 34 is_stmt 1 view .LVU2212
 8402              	.LVL604:
  34:ui/DubbyEncoder.h **** 
 8403              		.loc 17 34 40 view .LVU2213
 8404              	.LBB1913:
 8405              	.LBI1913:
 194:Dubby.cpp     **** void Dubby::UpdateMenu(int increment, bool higlight) 
 8406              		.loc 2 194 6 view .LVU2214
 8407              	.LBB1914:
 198:Dubby.cpp     ****         int mItemSelected = menuItemSelected;
 8408              		.loc 2 198 9 view .LVU2215
 199:Dubby.cpp     ****         if ((int)menuItemSelected + increment >= 3) mItemSelected = 0;
 8409              		.loc 2 199 9 view .LVU2216
 198:Dubby.cpp     ****         int mItemSelected = menuItemSelected;
 8410              		.loc 2 198 13 is_stmt 0 view .LVU2217
 8411 00d4 94F85C20 		ldrb	r2, [r4, #92]	@ zero_extendqisi2
 8412              	.LVL605:
 199:Dubby.cpp     ****         if ((int)menuItemSelected + increment >= 3) mItemSelected = 0;
 8413              		.loc 2 199 35 view .LVU2218
 8414 00d8 1344     		add	r3, r3, r2
 8415              	.LVL606:
 199:Dubby.cpp     ****         if ((int)menuItemSelected + increment >= 3) mItemSelected = 0;
 8416              		.loc 2 199 9 view .LVU2219
 8417 00da 022B     		cmp	r3, #2
 8418 00dc 00F3AB80 		bgt	.L524
 200:Dubby.cpp     ****         else if ((int)menuItemSelected + increment < 0) mItemSelected = 3;
 8419              		.loc 2 200 14 is_stmt 1 view .LVU2220
 8420 00e0 002B     		cmp	r3, #0
 8421 00e2 C0F2BE80 		blt	.L525
 203:Dubby.cpp     ****         menuItemSelected = (MenuItems)(mItemSelected);
 8422              		.loc 2 203 28 is_stmt 0 view .LVU2221
 8423 00e6 DBB2     		uxtb	r3, r3
 8424              	.L506:
 8425              	.LVL607:
 203:Dubby.cpp     ****         menuItemSelected = (MenuItems)(mItemSelected);
 8426              		.loc 2 203 9 is_stmt 1 view .LVU2222
 8427 00e8 04F59860 		add	r0, r4, #1216
 8428              	.LBB1915:
 8429              	.LBB1916:
 8430              	.LBB1917:
 366:../../libDaisy//src/dev/oled_ssd130x.h ****         }
 8431              		.loc 4 366 24 is_stmt 0 view .LVU2223
 8432 00ec 4FF48062 		mov	r2, #1024
 8433 00f0 0021     		movs	r1, #0
 8434              	.LBE1917:
 8435              	.LBE1916:
 8436              	.LBE1915:
 203:Dubby.cpp     ****         menuItemSelected = (MenuItems)(mItemSelected);
ARM GAS  /var/folders/1y/_321xjh9623c014x9_qw12rr0000gn/T//ccXZVGQV.s 			page 238


 8437              		.loc 2 203 26 view .LVU2224
 8438 00f2 84F85C30 		strb	r3, [r4, #92]
 206:Dubby.cpp     ****     display.Fill(false);
 8439              		.loc 2 206 5 is_stmt 1 view .LVU2225
 8440              	.LVL608:
 8441              	.LBB1922:
 8442              	.LBI1915:
  34:../../libDaisy//src/hid/disp/oled_display.h **** 
 8443              		.loc 1 34 10 view .LVU2226
 8444              	.LBB1920:
 8445              	.LBI1916:
 362:../../libDaisy//src/dev/oled_ssd130x.h ****     {
 8446              		.loc 4 362 10 view .LVU2227
 8447              	.LBB1918:
 364:../../libDaisy//src/dev/oled_ssd130x.h ****         {
 8448              		.loc 4 364 29 view .LVU2228
 8449 00f6 8146     		mov	r9, r0
 8450              	.LBE1918:
 8451              	.LBE1920:
 8452              	.LBE1922:
 8453              	.LBB1923:
 8454              	.LBB1924:
 8455              	.LBB1925:
 8456              	.LBB1926:
 8457              	.LBB1927:
 124:../../libDaisy//src/dev/oled_ssd130x.h ****         spi_.BlockingTransmit(&cmd, 1);
 8458              		.loc 4 124 24 is_stmt 0 view .LVU2229
 8459 00f8 04F2B447 		addw	r7, r4, #1204
 8460              	.LBE1927:
 8461              	.LBE1926:
 8462              	.LBE1925:
 8463              	.LBE1924:
 8464              	.LBE1923:
 8465              	.LBB1955:
 8466              	.LBB1921:
 8467              	.LBB1919:
 366:../../libDaisy//src/dev/oled_ssd130x.h ****         }
 8468              		.loc 4 366 24 view .LVU2230
 8469 00fc FFF7FEFF 		bl	memset
 8470              	.LVL609:
 366:../../libDaisy//src/dev/oled_ssd130x.h ****         }
 8471              		.loc 4 366 24 view .LVU2231
 8472              	.LBE1919:
 8473              	.LBE1921:
 8474              	.LBE1955:
 208:Dubby.cpp     ****     if (higlight) HightlightMenuItem();
 8475              		.loc 2 208 5 is_stmt 1 view .LVU2232
 208:Dubby.cpp     ****     if (higlight) HightlightMenuItem();
 8476              		.loc 2 208 19 view .LVU2233
 8477              	.LBB1956:
 8478              	.LBB1952:
 8479              	.LBB1949:
 8480              	.LBB1934:
 8481              	.LBB1928:
 124:../../libDaisy//src/dev/oled_ssd130x.h ****         spi_.BlockingTransmit(&cmd, 1);
 8482              		.loc 4 124 24 is_stmt 0 view .LVU2234
 8483 0100 04F2BC46 		addw	r6, r4, #1212
ARM GAS  /var/folders/1y/_321xjh9623c014x9_qw12rr0000gn/T//ccXZVGQV.s 			page 239


 8484              	.LBE1928:
 8485              	.LBE1934:
 8486              	.LBE1949:
 8487              	.LBE1952:
 8488              	.LBE1956:
 208:Dubby.cpp     ****     if (higlight) HightlightMenuItem();
 8489              		.loc 2 208 37 view .LVU2235
 8490 0104 2046     		mov	r0, r4
 8491              	.LBB1957:
 8492              	.LBB1953:
 8493              	.LBB1950:
 8494              	.LBB1935:
 8495              	.LBB1929:
 125:../../libDaisy//src/dev/oled_ssd130x.h ****     };
 8496              		.loc 4 125 30 view .LVU2236
 8497 0106 B025     		movs	r5, #176
 8498              	.LBE1929:
 8499              	.LBE1935:
 8500              	.LBE1950:
 8501              	.LBE1953:
 8502              	.LBE1957:
 208:Dubby.cpp     ****     if (higlight) HightlightMenuItem();
 8503              		.loc 2 208 37 view .LVU2237
 8504 0108 FFF7FEFF 		bl	_ZN5daisy5Dubby18HightlightMenuItemEv
 8505              	.LVL610:
 211:Dubby.cpp     ****     UpdateSubmenu();
 8506              		.loc 2 211 5 is_stmt 1 view .LVU2238
 211:Dubby.cpp     ****     UpdateSubmenu();
 8507              		.loc 2 211 18 is_stmt 0 view .LVU2239
 8508 010c 2046     		mov	r0, r4
 8509 010e FFF7FEFF 		bl	_ZN5daisy5Dubby13UpdateSubmenuEv
 8510              	.LVL611:
 213:Dubby.cpp     ****     display.Update();
 8511              		.loc 2 213 5 is_stmt 1 view .LVU2240
 8512              	.LBB1958:
 8513              	.LBI1923:
 8514              		.loc 1 51 10 view .LVU2241
 8515              	.LBB1954:
 8516              	.LBI1924:
 373:../../libDaisy//src/dev/oled_ssd130x.h ****     {
 8517              		.loc 4 373 10 view .LVU2242
 8518              	.LBB1951:
 8519              		.loc 4 383 22 view .LVU2243
 8520              	.L507:
 8521              		.loc 4 383 22 is_stmt 0 view .LVU2244
 8522 0112 4FF00008 		mov	r8, #0
 8523              	.LBB1936:
 8524              	.LBB1930:
 124:../../libDaisy//src/dev/oled_ssd130x.h ****         spi_.BlockingTransmit(&cmd, 1);
 8525              		.loc 4 124 23 view .LVU2245
 8526 0116 3046     		mov	r0, r6
 8527 0118 8DF80750 		strb	r5, [sp, #7]
 8528              	.LVL612:
 124:../../libDaisy//src/dev/oled_ssd130x.h ****         spi_.BlockingTransmit(&cmd, 1);
 8529              		.loc 4 124 23 view .LVU2246
 8530              	.LBE1930:
 8531              	.LBI1926:
ARM GAS  /var/folders/1y/_321xjh9623c014x9_qw12rr0000gn/T//ccXZVGQV.s 			page 240


 122:../../libDaisy//src/dev/oled_ssd130x.h ****     {
 8532              		.loc 4 122 10 is_stmt 1 view .LVU2247
 8533              	.LBB1931:
 124:../../libDaisy//src/dev/oled_ssd130x.h ****         spi_.BlockingTransmit(&cmd, 1);
 8534              		.loc 4 124 9 view .LVU2248
 8535              	.LBE1931:
 8536              	.LBE1936:
 8537              		.loc 4 383 22 is_stmt 0 view .LVU2249
 8538 011c 0135     		adds	r5, r5, #1
 8539              	.LVL613:
 8540              	.LBB1937:
 8541              	.LBB1932:
 124:../../libDaisy//src/dev/oled_ssd130x.h ****         spi_.BlockingTransmit(&cmd, 1);
 8542              		.loc 4 124 23 view .LVU2250
 8543 011e 4146     		mov	r1, r8
 8544 0120 FFF7FEFF 		bl	dsy_gpio_write
 8545              	.LVL614:
 125:../../libDaisy//src/dev/oled_ssd130x.h ****     };
 8546              		.loc 4 125 9 is_stmt 1 view .LVU2251
 125:../../libDaisy//src/dev/oled_ssd130x.h ****     };
 8547              		.loc 4 125 30 is_stmt 0 view .LVU2252
 8548 0124 6423     		movs	r3, #100
 8549 0126 0122     		movs	r2, #1
 8550 0128 0DF10701 		add	r1, sp, #7
 8551 012c 3846     		mov	r0, r7
 8552              	.LBE1932:
 8553              	.LBE1937:
 8554              		.loc 4 383 22 view .LVU2253
 8555 012e EDB2     		uxtb	r5, r5
 8556              	.LBB1938:
 8557              	.LBB1933:
 125:../../libDaisy//src/dev/oled_ssd130x.h ****     };
 8558              		.loc 4 125 30 view .LVU2254
 8559 0130 FFF7FEFF 		bl	_ZN5daisy9SpiHandle16BlockingTransmitEPhjm
 8560              	.LVL615:
 125:../../libDaisy//src/dev/oled_ssd130x.h ****     };
 8561              		.loc 4 125 30 view .LVU2255
 8562              	.LBE1933:
 8563              	.LBE1938:
 8564              	.LBB1939:
 8565              	.LBB1940:
 124:../../libDaisy//src/dev/oled_ssd130x.h ****         spi_.BlockingTransmit(&cmd, 1);
 8566              		.loc 4 124 23 view .LVU2256
 8567 0134 4146     		mov	r1, r8
 8568 0136 3046     		mov	r0, r6
 8569 0138 8DF80780 		strb	r8, [sp, #7]
 8570              	.LVL616:
 124:../../libDaisy//src/dev/oled_ssd130x.h ****         spi_.BlockingTransmit(&cmd, 1);
 8571              		.loc 4 124 23 view .LVU2257
 8572              	.LBE1940:
 8573              	.LBI1939:
 122:../../libDaisy//src/dev/oled_ssd130x.h ****     {
 8574              		.loc 4 122 10 is_stmt 1 view .LVU2258
 8575              	.LBB1941:
 124:../../libDaisy//src/dev/oled_ssd130x.h ****         spi_.BlockingTransmit(&cmd, 1);
 8576              		.loc 4 124 9 view .LVU2259
 124:../../libDaisy//src/dev/oled_ssd130x.h ****         spi_.BlockingTransmit(&cmd, 1);
ARM GAS  /var/folders/1y/_321xjh9623c014x9_qw12rr0000gn/T//ccXZVGQV.s 			page 241


 8577              		.loc 4 124 23 is_stmt 0 view .LVU2260
 8578 013c FFF7FEFF 		bl	dsy_gpio_write
 8579              	.LVL617:
 125:../../libDaisy//src/dev/oled_ssd130x.h ****     };
 8580              		.loc 4 125 9 is_stmt 1 view .LVU2261
 125:../../libDaisy//src/dev/oled_ssd130x.h ****     };
 8581              		.loc 4 125 30 is_stmt 0 view .LVU2262
 8582 0140 0122     		movs	r2, #1
 8583 0142 6423     		movs	r3, #100
 8584 0144 0DF10701 		add	r1, sp, #7
 8585 0148 3846     		mov	r0, r7
 8586 014a FFF7FEFF 		bl	_ZN5daisy9SpiHandle16BlockingTransmitEPhjm
 8587              	.LVL618:
 125:../../libDaisy//src/dev/oled_ssd130x.h ****     };
 8588              		.loc 4 125 30 view .LVU2263
 8589 014e 1023     		movs	r3, #16
 8590              	.LBE1941:
 8591              	.LBE1939:
 8592              	.LBB1942:
 8593              	.LBB1943:
 124:../../libDaisy//src/dev/oled_ssd130x.h ****         spi_.BlockingTransmit(&cmd, 1);
 8594              		.loc 4 124 23 view .LVU2264
 8595 0150 4146     		mov	r1, r8
 8596 0152 3046     		mov	r0, r6
 8597 0154 8DF80730 		strb	r3, [sp, #7]
 8598              	.LVL619:
 124:../../libDaisy//src/dev/oled_ssd130x.h ****         spi_.BlockingTransmit(&cmd, 1);
 8599              		.loc 4 124 23 view .LVU2265
 8600              	.LBE1943:
 8601              	.LBI1942:
 122:../../libDaisy//src/dev/oled_ssd130x.h ****     {
 8602              		.loc 4 122 10 is_stmt 1 view .LVU2266
 8603              	.LBB1944:
 124:../../libDaisy//src/dev/oled_ssd130x.h ****         spi_.BlockingTransmit(&cmd, 1);
 8604              		.loc 4 124 9 view .LVU2267
 124:../../libDaisy//src/dev/oled_ssd130x.h ****         spi_.BlockingTransmit(&cmd, 1);
 8605              		.loc 4 124 23 is_stmt 0 view .LVU2268
 8606 0158 FFF7FEFF 		bl	dsy_gpio_write
 8607              	.LVL620:
 125:../../libDaisy//src/dev/oled_ssd130x.h ****     };
 8608              		.loc 4 125 9 is_stmt 1 view .LVU2269
 125:../../libDaisy//src/dev/oled_ssd130x.h ****     };
 8609              		.loc 4 125 30 is_stmt 0 view .LVU2270
 8610 015c 6423     		movs	r3, #100
 8611 015e 0122     		movs	r2, #1
 8612 0160 0DF10701 		add	r1, sp, #7
 8613 0164 3846     		mov	r0, r7
 8614 0166 FFF7FEFF 		bl	_ZN5daisy9SpiHandle16BlockingTransmitEPhjm
 8615              	.LVL621:
 125:../../libDaisy//src/dev/oled_ssd130x.h ****     };
 8616              		.loc 4 125 30 view .LVU2271
 8617              	.LBE1944:
 8618              	.LBE1942:
 8619              	.LBB1945:
 8620              	.LBI1945:
 128:../../libDaisy//src/dev/oled_ssd130x.h ****     {
 8621              		.loc 4 128 10 is_stmt 1 view .LVU2272
ARM GAS  /var/folders/1y/_321xjh9623c014x9_qw12rr0000gn/T//ccXZVGQV.s 			page 242


 8622              	.LBB1946:
 130:../../libDaisy//src/dev/oled_ssd130x.h ****         spi_.BlockingTransmit(buff, size);
 8623              		.loc 4 130 9 view .LVU2273
 130:../../libDaisy//src/dev/oled_ssd130x.h ****         spi_.BlockingTransmit(buff, size);
 8624              		.loc 4 130 23 is_stmt 0 view .LVU2274
 8625 016a 0121     		movs	r1, #1
 8626 016c 3046     		mov	r0, r6
 8627 016e FFF7FEFF 		bl	dsy_gpio_write
 8628              	.LVL622:
 131:../../libDaisy//src/dev/oled_ssd130x.h ****     };
 8629              		.loc 4 131 9 is_stmt 1 view .LVU2275
 131:../../libDaisy//src/dev/oled_ssd130x.h ****     };
 8630              		.loc 4 131 30 is_stmt 0 view .LVU2276
 8631 0172 4946     		mov	r1, r9
 8632 0174 6423     		movs	r3, #100
 8633 0176 8022     		movs	r2, #128
 8634 0178 3846     		mov	r0, r7
 8635              	.LBE1946:
 8636              	.LBE1945:
 8637              		.loc 4 383 22 view .LVU2277
 8638 017a 09F18009 		add	r9, r9, #128
 8639              	.LVL623:
 8640              	.LBB1948:
 8641              	.LBB1947:
 131:../../libDaisy//src/dev/oled_ssd130x.h ****     };
 8642              		.loc 4 131 30 view .LVU2278
 8643 017e FFF7FEFF 		bl	_ZN5daisy9SpiHandle16BlockingTransmitEPhjm
 8644              	.LVL624:
 131:../../libDaisy//src/dev/oled_ssd130x.h ****     };
 8645              		.loc 4 131 30 view .LVU2279
 8646              	.LBE1947:
 8647              	.LBE1948:
 8648              		.loc 4 383 9 is_stmt 1 view .LVU2280
 8649              		.loc 4 383 22 view .LVU2281
 8650 0182 B82D     		cmp	r5, #184
 8651 0184 C5D1     		bne	.L507
 8652 0186 72E7     		b	.L505
 8653              	.LVL625:
 8654              	.L502:
 8655              		.loc 4 383 22 is_stmt 0 view .LVU2282
 8656              	.LBE1951:
 8657              	.LBE1954:
 8658              	.LBE1958:
 8659              	.LBE1914:
 8660              	.LBE1913:
 137:Dubby.cpp     ****         case MENU1:
 8661              		.loc 2 137 9 is_stmt 1 view .LVU2283
 138:Dubby.cpp     ****             RenderScope();
 8662              		.loc 2 138 13 view .LVU2284
 8663              	.LBB1961:
 8664              	.LBI1961:
 287:Dubby.cpp     **** void Dubby::RenderScope()
 8665              		.loc 2 287 6 view .LVU2285
 8666              	.LBB1962:
 289:Dubby.cpp     ****     if(seed.system.GetNow() - screen_update_last_ > screen_update_period_)
 8667              		.loc 2 289 5 view .LVU2286
 8668              	.LBB1963:
ARM GAS  /var/folders/1y/_321xjh9623c014x9_qw12rr0000gn/T//ccXZVGQV.s 			page 243


 289:Dubby.cpp     ****     if(seed.system.GetNow() - screen_update_last_ > screen_update_period_)
 8669              		.loc 2 289 26 is_stmt 0 view .LVU2287
 8670 0188 FFF7FEFF 		bl	_ZN5daisy6System6GetNowEv
 8671              	.LVL626:
 289:Dubby.cpp     ****     if(seed.system.GetNow() - screen_update_last_ > screen_update_period_)
 8672              		.loc 2 289 31 view .LVU2288
 8673 018c 04F59033 		add	r3, r4, #73728
 289:Dubby.cpp     ****     if(seed.system.GetNow() - screen_update_last_ > screen_update_period_)
 8674              		.loc 2 289 29 view .LVU2289
 8675 0190 D3F8702B 		ldr	r2, [r3, #2928]
 289:Dubby.cpp     ****     if(seed.system.GetNow() - screen_update_last_ > screen_update_period_)
 8676              		.loc 2 289 5 view .LVU2290
 8677 0194 D3F8743B 		ldr	r3, [r3, #2932]
 289:Dubby.cpp     ****     if(seed.system.GetNow() - screen_update_last_ > screen_update_period_)
 8678              		.loc 2 289 29 view .LVU2291
 8679 0198 801A     		subs	r0, r0, r2
 289:Dubby.cpp     ****     if(seed.system.GetNow() - screen_update_last_ > screen_update_period_)
 8680              		.loc 2 289 5 view .LVU2292
 8681 019a 9842     		cmp	r0, r3
 8682 019c 7FF672AF 		bls	.L503
 8683              	.LBE1963:
 8684 01a0 2046     		mov	r0, r4
 8685 01a2 FFF7FEFF 		bl	_ZN5daisy5Dubby11RenderScopeEv.part.0
 8686              	.LVL627:
 8687 01a6 6DE7     		b	.L503
 8688              	.LVL628:
 8689              	.L500:
 289:Dubby.cpp     ****     if(seed.system.GetNow() - screen_update_last_ > screen_update_period_)
 8690              		.loc 2 289 5 view .LVU2293
 8691              	.LBE1962:
 8692              	.LBE1961:
 140:Dubby.cpp     ****         case MENU2:
 8693              		.loc 2 140 9 is_stmt 1 view .LVU2294
 141:Dubby.cpp     ****             UpdateMixerPane();
 8694              		.loc 2 141 13 view .LVU2295
 8695              	.LBB1964:
 8696              	.LBI1964:
 249:Dubby.cpp     **** void Dubby::UpdateMixerPane() 
 8697              		.loc 2 249 6 view .LVU2296
 8698              	.LBE1964:
 251:Dubby.cpp     ****     if(seed.system.GetNow() - screen_update_last_ > screen_update_period_)
 8699              		.loc 2 251 5 view .LVU2297
 8700              	.LBB1970:
 8701              	.LBB1965:
 251:Dubby.cpp     ****     if(seed.system.GetNow() - screen_update_last_ > screen_update_period_)
 8702              		.loc 2 251 31 is_stmt 0 view .LVU2298
 8703 01a8 04F59036 		add	r6, r4, #73728
 251:Dubby.cpp     ****     if(seed.system.GetNow() - screen_update_last_ > screen_update_period_)
 8704              		.loc 2 251 26 view .LVU2299
 8705 01ac FFF7FEFF 		bl	_ZN5daisy6System6GetNowEv
 8706              	.LVL629:
 251:Dubby.cpp     ****     if(seed.system.GetNow() - screen_update_last_ > screen_update_period_)
 8707              		.loc 2 251 29 view .LVU2300
 8708 01b0 D6F8702B 		ldr	r2, [r6, #2928]
 251:Dubby.cpp     ****     if(seed.system.GetNow() - screen_update_last_ > screen_update_period_)
 8709              		.loc 2 251 5 view .LVU2301
 8710 01b4 D6F8743B 		ldr	r3, [r6, #2932]
ARM GAS  /var/folders/1y/_321xjh9623c014x9_qw12rr0000gn/T//ccXZVGQV.s 			page 244


 251:Dubby.cpp     ****     if(seed.system.GetNow() - screen_update_last_ > screen_update_period_)
 8711              		.loc 2 251 29 view .LVU2302
 8712 01b8 801A     		subs	r0, r0, r2
 251:Dubby.cpp     ****     if(seed.system.GetNow() - screen_update_last_ > screen_update_period_)
 8713              		.loc 2 251 5 view .LVU2303
 8714 01ba 9842     		cmp	r0, r3
 8715 01bc 7FF662AF 		bls	.L503
 8716              	.LVL630:
 251:Dubby.cpp     ****     if(seed.system.GetNow() - screen_update_last_ > screen_update_period_)
 8717              		.loc 2 251 5 view .LVU2304
 8718              	.LBE1965:
 8719              	.LBB1966:
 8720              	.LBI1966:
 249:Dubby.cpp     **** void Dubby::UpdateMixerPane() 
 8721              		.loc 2 249 6 is_stmt 1 view .LVU2305
 8722              	.LBB1967:
 253:Dubby.cpp     ****         screen_update_last_ = seed.system.GetNow();
 8723              		.loc 2 253 9 view .LVU2306
 8724              	.LBB1968:
 254:Dubby.cpp     ****         for (int i = 0; i < 4; i++) UpdateBar(i);
 8725              		.loc 2 254 18 is_stmt 0 view .LVU2307
 8726 01c0 0025     		movs	r5, #0
 8727              	.LBE1968:
 253:Dubby.cpp     ****         screen_update_last_ = seed.system.GetNow();
 8728              		.loc 2 253 49 view .LVU2308
 8729 01c2 FFF7FEFF 		bl	_ZN5daisy6System6GetNowEv
 8730              	.LVL631:
 253:Dubby.cpp     ****         screen_update_last_ = seed.system.GetNow();
 8731              		.loc 2 253 29 view .LVU2309
 8732 01c6 C6F8700B 		str	r0, [r6, #2928]
 254:Dubby.cpp     ****         for (int i = 0; i < 4; i++) UpdateBar(i);
 8733              		.loc 2 254 9 is_stmt 1 view .LVU2310
 8734              	.LVL632:
 8735              	.LBB1969:
 254:Dubby.cpp     ****         for (int i = 0; i < 4; i++) UpdateBar(i);
 8736              		.loc 2 254 27 view .LVU2311
 8737              	.L510:
 254:Dubby.cpp     ****         for (int i = 0; i < 4; i++) UpdateBar(i);
 8738              		.loc 2 254 37 view .LVU2312
 254:Dubby.cpp     ****         for (int i = 0; i < 4; i++) UpdateBar(i);
 8739              		.loc 2 254 46 is_stmt 0 view .LVU2313
 8740 01ca 2946     		mov	r1, r5
 254:Dubby.cpp     ****         for (int i = 0; i < 4; i++) UpdateBar(i);
 8741              		.loc 2 254 9 view .LVU2314
 8742 01cc 0135     		adds	r5, r5, #1
 8743              	.LVL633:
 254:Dubby.cpp     ****         for (int i = 0; i < 4; i++) UpdateBar(i);
 8744              		.loc 2 254 46 view .LVU2315
 8745 01ce 2046     		mov	r0, r4
 8746 01d0 FFF7FEFF 		bl	_ZN5daisy5Dubby9UpdateBarEi
 8747              	.LVL634:
 254:Dubby.cpp     ****         for (int i = 0; i < 4; i++) UpdateBar(i);
 8748              		.loc 2 254 9 is_stmt 1 view .LVU2316
 254:Dubby.cpp     ****         for (int i = 0; i < 4; i++) UpdateBar(i);
 8749              		.loc 2 254 27 view .LVU2317
 8750 01d4 042D     		cmp	r5, #4
 8751 01d6 F8D1     		bne	.L510
ARM GAS  /var/folders/1y/_321xjh9623c014x9_qw12rr0000gn/T//ccXZVGQV.s 			page 245


 8752 01d8 54E7     		b	.L503
 8753              	.LVL635:
 8754              	.L577:
 254:Dubby.cpp     ****         for (int i = 0; i < 4; i++) UpdateBar(i);
 8755              		.loc 2 254 27 is_stmt 0 view .LVU2318
 8756              	.LBE1969:
 8757              	.LBE1967:
 8758              	.LBE1966:
 8759              	.LBE1970:
 128:Dubby.cpp     ****             HightlightMenuItem();
 8760              		.loc 2 128 13 is_stmt 1 view .LVU2319
 128:Dubby.cpp     ****             HightlightMenuItem();
 8761              		.loc 2 128 31 is_stmt 0 view .LVU2320
 8762 01da 2046     		mov	r0, r4
 8763 01dc FFF7FEFF 		bl	_ZN5daisy5Dubby18HightlightMenuItemEv
 8764              	.LVL636:
 129:Dubby.cpp     ****             menuActive = true;
 8765              		.loc 2 129 13 is_stmt 1 view .LVU2321
 129:Dubby.cpp     ****             menuActive = true;
 8766              		.loc 2 129 24 is_stmt 0 view .LVU2322
 8767 01e0 0123     		movs	r3, #1
 8768 01e2 85F86C3B 		strb	r3, [r5, #2924]
 132:Dubby.cpp     ****         if (encoder.Increment()) UpdateMenu(encoder.Increment(), true);
 8769              		.loc 2 132 9 is_stmt 1 view .LVU2323
 8770              	.LVL637:
 8771              	.LBB1971:
  34:ui/DubbyEncoder.h **** 
 8772              		.loc 17 34 20 view .LVU2324
 8773              	.LBB1890:
  34:ui/DubbyEncoder.h **** 
 8774              		.loc 17 34 40 view .LVU2325
  34:ui/DubbyEncoder.h **** 
 8775              		.loc 17 34 56 is_stmt 0 view .LVU2326
 8776 01e6 94F8FC30 		ldrb	r3, [r4, #252]	@ zero_extendqisi2
 8777 01ea 002B     		cmp	r3, #0
 8778 01ec 3FF43FAF 		beq	.L505
 8779 01f0 6CE7     		b	.L578
 8780              	.LVL638:
 8781              	.L511:
  34:ui/DubbyEncoder.h **** 
 8782              		.loc 17 34 56 view .LVU2327
 8783              	.LBE1890:
 8784              	.LBE1971:
 145:Dubby.cpp     ****             if (encoder.Increment() && !menuActive) UpdatePreferencesMenu(encoder.Increment());
 8785              		.loc 2 145 13 is_stmt 1 view .LVU2328
 8786              	.LBB1972:
 8787              	.LBI1972:
  34:ui/DubbyEncoder.h **** 
 8788              		.loc 17 34 20 view .LVU2329
 8789              	.LBB1973:
  34:ui/DubbyEncoder.h **** 
 8790              		.loc 17 34 40 view .LVU2330
  34:ui/DubbyEncoder.h **** 
 8791              		.loc 17 34 56 is_stmt 0 view .LVU2331
 8792 01f2 94F8FC30 		ldrb	r3, [r4, #252]	@ zero_extendqisi2
 8793 01f6 002B     		cmp	r3, #0
 8794 01f8 3FF415AF 		beq	.L518
ARM GAS  /var/folders/1y/_321xjh9623c014x9_qw12rr0000gn/T//ccXZVGQV.s 			page 246


 8795              	.LVL639:
 8796              	.L523:
  34:ui/DubbyEncoder.h **** 
 8797              		.loc 17 34 56 view .LVU2332
 8798 01fc D4F81C21 		ldr	r2, [r4, #284]
  34:ui/DubbyEncoder.h **** 
 8799              		.loc 17 34 56 view .LVU2333
 8800              	.LBE1973:
 8801              	.LBE1972:
 145:Dubby.cpp     ****             if (encoder.Increment() && !menuActive) UpdatePreferencesMenu(encoder.Increment());
 8802              		.loc 2 145 37 view .LVU2334
 8803 0200 002A     		cmp	r2, #0
 8804 0202 3FF43FAF 		beq	.L503
 145:Dubby.cpp     ****             if (encoder.Increment() && !menuActive) UpdatePreferencesMenu(encoder.Increment());
 8805              		.loc 2 145 41 discriminator 1 view .LVU2335
 8806 0206 04F59033 		add	r3, r4, #73728
 145:Dubby.cpp     ****             if (encoder.Increment() && !menuActive) UpdatePreferencesMenu(encoder.Increment());
 8807              		.loc 2 145 37 discriminator 1 view .LVU2336
 8808 020a 93F86C1B 		ldrb	r1, [r3, #2924]	@ zero_extendqisi2
 8809 020e A1B1     		cbz	r1, .L579
 151:Dubby.cpp     ****     if (encoder.TimeHeldMs() < 300 && menuActive)
 8810              		.loc 2 151 5 is_stmt 1 view .LVU2337
 8811              	.LVL640:
 8812              	.LBB1976:
 8813              		.loc 17 46 18 view .LVU2338
 8814              	.LBE1976:
 8815              		.loc 17 46 39 view .LVU2339
 8816              	.LBB1977:
 8817              	.LBB1908:
  88:../../libDaisy//src/hid/switch.h ****     {
 8818              		.loc 16 88 18 view .LVU2340
 8819              	.LBB1905:
 8820              		.loc 16 90 9 view .LVU2341
 8821              	.LBB1902:
  79:../../libDaisy//src/hid/switch.h **** 
 8822              		.loc 16 79 17 view .LVU2342
 8823              	.LBB1896:
  79:../../libDaisy//src/hid/switch.h **** 
 8824              		.loc 16 79 35 view .LVU2343
  79:../../libDaisy//src/hid/switch.h **** 
 8825              		.loc 16 79 35 is_stmt 0 view .LVU2344
 8826              	.LBE1896:
 8827              	.LBE1902:
 8828              		.loc 16 90 26 view .LVU2345
 8829 0210 94F80A21 		ldrb	r2, [r4, #266]	@ zero_extendqisi2
 8830 0214 FF2A     		cmp	r2, #255
 8831 0216 7FF44DAF 		bne	.L522
 8832 021a 37E7     		b	.L517
 8833              	.LVL641:
 8834              	.L501:
 8835              		.loc 16 90 26 view .LVU2346
 8836              	.LBE1905:
 8837              	.LBE1908:
 8838              	.LBE1977:
 143:Dubby.cpp     ****         case MENU3:
 8839              		.loc 2 143 9 is_stmt 1 view .LVU2347
 144:Dubby.cpp     ****             if (encoder.Pressed() && preferencesMenuItemSelected == OPTION4) ResetToBootloader();
ARM GAS  /var/folders/1y/_321xjh9623c014x9_qw12rr0000gn/T//ccXZVGQV.s 			page 247


 8840              		.loc 2 144 13 view .LVU2348
 8841              	.LBB1978:
 8842              	.LBI1978:
  43:ui/DubbyEncoder.h **** 
 8843              		.loc 17 43 17 view .LVU2349
 8844              	.LBE1978:
  43:ui/DubbyEncoder.h **** 
 8845              		.loc 17 43 35 view .LVU2350
 8846              	.LBB1981:
 8847              	.LBB1979:
 8848              	.LBI1979:
  79:../../libDaisy//src/hid/switch.h **** 
 8849              		.loc 16 79 17 view .LVU2351
 8850              	.LBB1980:
  79:../../libDaisy//src/hid/switch.h **** 
 8851              		.loc 16 79 35 view .LVU2352
  79:../../libDaisy//src/hid/switch.h **** 
 8852              		.loc 16 79 35 is_stmt 0 view .LVU2353
 8853              	.LBE1980:
 8854              	.LBE1979:
 8855              	.LBE1981:
 144:Dubby.cpp     ****             if (encoder.Pressed() && preferencesMenuItemSelected == OPTION4) ResetToBootloader();
 8856              		.loc 2 144 35 view .LVU2354
 8857 021c 94F80A31 		ldrb	r3, [r4, #266]	@ zero_extendqisi2
 8858 0220 FF2B     		cmp	r3, #255
 8859 0222 E6D1     		bne	.L511
 144:Dubby.cpp     ****             if (encoder.Pressed() && preferencesMenuItemSelected == OPTION4) ResetToBootloader();
 8860              		.loc 2 144 35 discriminator 1 view .LVU2355
 8861 0224 94F85D30 		ldrb	r3, [r4, #93]	@ zero_extendqisi2
 8862 0228 032B     		cmp	r3, #3
 8863 022a 12D0     		beq	.L580
 145:Dubby.cpp     ****             if (encoder.Increment() && !menuActive) UpdatePreferencesMenu(encoder.Increment());
 8864              		.loc 2 145 13 is_stmt 1 view .LVU2356
 8865              	.LVL642:
 8866              	.LBB1982:
  34:ui/DubbyEncoder.h **** 
 8867              		.loc 17 34 20 view .LVU2357
 8868              	.LBB1974:
  34:ui/DubbyEncoder.h **** 
 8869              		.loc 17 34 40 view .LVU2358
  34:ui/DubbyEncoder.h **** 
 8870              		.loc 17 34 56 is_stmt 0 view .LVU2359
 8871 022c 94F8FC30 		ldrb	r3, [r4, #252]	@ zero_extendqisi2
 8872 0230 002B     		cmp	r3, #0
 8873 0232 E3D1     		bne	.L523
 8874 0234 2AE7     		b	.L517
 8875              	.LVL643:
 8876              	.L524:
  34:ui/DubbyEncoder.h **** 
 8877              		.loc 17 34 56 view .LVU2360
 8878              	.LBE1974:
 8879              	.LBE1982:
 8880              	.LBB1983:
 8881              	.LBB1959:
 8882 0236 0023     		movs	r3, #0
 8883 0238 56E7     		b	.L506
 8884              	.LVL644:
ARM GAS  /var/folders/1y/_321xjh9623c014x9_qw12rr0000gn/T//ccXZVGQV.s 			page 248


 8885              	.L579:
  34:ui/DubbyEncoder.h **** 
 8886              		.loc 17 34 56 view .LVU2361
 8887              	.LBE1959:
 8888              	.LBE1983:
 145:Dubby.cpp     ****             if (encoder.Increment() && !menuActive) UpdatePreferencesMenu(encoder.Increment());
 8889              		.loc 2 145 53 is_stmt 1 view .LVU2362
  34:ui/DubbyEncoder.h **** 
 8890              		.loc 17 34 40 view .LVU2363
 8891              	.LBB1984:
 8892              	.LBI1984:
 330:Dubby.cpp     **** void Dubby::UpdatePreferencesMenu(int increment) 
 8893              		.loc 2 330 6 view .LVU2364
 8894              	.LBB1985:
 332:Dubby.cpp     ****     if (((preferencesMenuItemSelected >= 0 && increment == 1 && preferencesMenuItemSelected < PREFE
 8895              		.loc 2 332 5 view .LVU2365
 8896 023a 012A     		cmp	r2, #1
 332:Dubby.cpp     ****     if (((preferencesMenuItemSelected >= 0 && increment == 1 && preferencesMenuItemSelected < PREFE
 8897              		.loc 2 332 65 is_stmt 0 view .LVU2366
 8898 023c 94F85D30 		ldrb	r3, [r4, #93]	@ zero_extendqisi2
 332:Dubby.cpp     ****     if (((preferencesMenuItemSelected >= 0 && increment == 1 && preferencesMenuItemSelected < PREFE
 8899              		.loc 2 332 5 view .LVU2367
 8900 0240 11D0     		beq	.L581
 332:Dubby.cpp     ****     if (((preferencesMenuItemSelected >= 0 && increment == 1 && preferencesMenuItemSelected < PREFE
 8901              		.loc 2 332 140 view .LVU2368
 8902 0242 93B1     		cbz	r3, .L516
 8903              	.L515:
 8904              	.LVL645:
 8905              	.LBB1986:
 8906              	.LBI1986:
 330:Dubby.cpp     **** void Dubby::UpdatePreferencesMenu(int increment) 
 8907              		.loc 2 330 6 is_stmt 1 view .LVU2369
 8908              	.LBB1987:
 334:Dubby.cpp     ****         preferencesMenuItemSelected = (PreferenesMenuItems)(preferencesMenuItemSelected + increment
 8909              		.loc 2 334 9 view .LVU2370
 334:Dubby.cpp     ****         preferencesMenuItemSelected = (PreferenesMenuItems)(preferencesMenuItemSelected + increment
 8910              		.loc 2 334 89 is_stmt 0 view .LVU2371
 8911 0244 1344     		add	r3, r3, r2
 336:Dubby.cpp     ****         DisplayPreferencesMenu();
 8912              		.loc 2 336 31 view .LVU2372
 8913 0246 2046     		mov	r0, r4
 334:Dubby.cpp     ****         preferencesMenuItemSelected = (PreferenesMenuItems)(preferencesMenuItemSelected + increment
 8914              		.loc 2 334 37 view .LVU2373
 8915 0248 84F85D30 		strb	r3, [r4, #93]
 336:Dubby.cpp     ****         DisplayPreferencesMenu();
 8916              		.loc 2 336 9 is_stmt 1 view .LVU2374
 336:Dubby.cpp     ****         DisplayPreferencesMenu();
 8917              		.loc 2 336 31 is_stmt 0 view .LVU2375
 8918 024c FFF7FEFF 		bl	_ZN5daisy5Dubby22DisplayPreferencesMenuEv
 8919              	.LVL646:
 338:Dubby.cpp     **** }
 8920              		.loc 2 338 1 view .LVU2376
 8921 0250 18E7     		b	.L503
 8922              	.LVL647:
 8923              	.L580:
 338:Dubby.cpp     **** }
 8924              		.loc 2 338 1 view .LVU2377
ARM GAS  /var/folders/1y/_321xjh9623c014x9_qw12rr0000gn/T//ccXZVGQV.s 			page 249


 8925              	.LBE1987:
 8926              	.LBE1986:
 8927              	.LBE1985:
 8928              	.LBE1984:
 144:Dubby.cpp     ****             if (encoder.Pressed() && preferencesMenuItemSelected == OPTION4) ResetToBootloader();
 8929              		.loc 2 144 78 is_stmt 1 view .LVU2378
 144:Dubby.cpp     ****             if (encoder.Pressed() && preferencesMenuItemSelected == OPTION4) ResetToBootloader();
 8930              		.loc 2 144 95 is_stmt 0 view .LVU2379
 8931 0252 2046     		mov	r0, r4
 8932 0254 FFF7FEFF 		bl	_ZN5daisy5Dubby17ResetToBootloaderEv
 8933              	.LVL648:
 145:Dubby.cpp     ****             if (encoder.Increment() && !menuActive) UpdatePreferencesMenu(encoder.Increment());
 8934              		.loc 2 145 13 is_stmt 1 view .LVU2380
 8935              	.LBB1989:
  34:ui/DubbyEncoder.h **** 
 8936              		.loc 17 34 20 view .LVU2381
 8937              	.LBB1975:
  34:ui/DubbyEncoder.h **** 
 8938              		.loc 17 34 40 view .LVU2382
  34:ui/DubbyEncoder.h **** 
 8939              		.loc 17 34 56 is_stmt 0 view .LVU2383
 8940 0258 94F8FC30 		ldrb	r3, [r4, #252]	@ zero_extendqisi2
 8941 025c 002B     		cmp	r3, #0
 8942 025e CDD1     		bne	.L523
 8943 0260 10E7     		b	.L503
 8944              	.LVL649:
 8945              	.L525:
  34:ui/DubbyEncoder.h **** 
 8946              		.loc 17 34 56 view .LVU2384
 8947              	.LBE1975:
 8948              	.LBE1989:
 8949              	.LBB1990:
 8950              	.LBB1960:
 8951 0262 0323     		movs	r3, #3
 8952 0264 40E7     		b	.L506
 8953              	.LVL650:
 8954              	.L581:
  34:ui/DubbyEncoder.h **** 
 8955              		.loc 17 34 56 view .LVU2385
 8956              	.LBE1960:
 8957              	.LBE1990:
 8958              	.LBB1991:
 8959              	.LBB1988:
 332:Dubby.cpp     ****     if (((preferencesMenuItemSelected >= 0 && increment == 1 && preferencesMenuItemSelected < PREFE
 8960              		.loc 2 332 62 view .LVU2386
 8961 0266 022B     		cmp	r3, #2
 8962 0268 ECD9     		bls	.L515
 8963              	.L516:
 8964              	.LVL651:
 332:Dubby.cpp     ****     if (((preferencesMenuItemSelected >= 0 && increment == 1 && preferencesMenuItemSelected < PREFE
 8965              		.loc 2 332 62 view .LVU2387
 8966              	.LBE1988:
 8967              	.LBE1991:
 151:Dubby.cpp     ****     if (encoder.TimeHeldMs() < 300 && menuActive)
 8968              		.loc 2 151 5 is_stmt 1 view .LVU2388
 8969              	.LBB1992:
 8970              		.loc 17 46 18 view .LVU2389
ARM GAS  /var/folders/1y/_321xjh9623c014x9_qw12rr0000gn/T//ccXZVGQV.s 			page 250


 8971              	.LBE1992:
 8972              		.loc 17 46 39 view .LVU2390
 8973              	.LBB1993:
 8974              	.LBB1909:
  88:../../libDaisy//src/hid/switch.h ****     {
 8975              		.loc 16 88 18 view .LVU2391
 8976              	.LBB1906:
 8977              		.loc 16 90 9 view .LVU2392
 8978              	.LBB1903:
  79:../../libDaisy//src/hid/switch.h **** 
 8979              		.loc 16 79 17 view .LVU2393
 8980              	.LBB1897:
  79:../../libDaisy//src/hid/switch.h **** 
 8981              		.loc 16 79 35 view .LVU2394
  79:../../libDaisy//src/hid/switch.h **** 
 8982              		.loc 16 79 35 is_stmt 0 view .LVU2395
 8983              	.LBE1897:
 8984              	.LBE1903:
 8985              		.loc 16 90 26 view .LVU2396
 8986 026a 94F80A31 		ldrb	r3, [r4, #266]	@ zero_extendqisi2
 8987 026e FF2B     		cmp	r3, #255
 8988 0270 7FF4DFAE 		bne	.L497
 8989 0274 0AE7     		b	.L517
 8990              	.L583:
 8991 0276 00BF     		.align	2
 8992              	.L582:
 8993 0278 00009643 		.word	1133903872
 8994              	.LBE1906:
 8995              	.LBE1909:
 8996              	.LBE1993:
 8997              		.cfi_endproc
 8998              	.LFE3749:
 9000              		.section	.text._ZN5daisy13SSD130xDriverILj128ELj64ENS_24SSD130x4WireSpiTransportEE4InitENS2_6Confi
 9001              		.align	1
 9002              		.p2align 2,,3
 9003              		.weak	_ZN5daisy13SSD130xDriverILj128ELj64ENS_24SSD130x4WireSpiTransportEE4InitENS2_6ConfigE
 9004              		.syntax unified
 9005              		.thumb
 9006              		.thumb_func
 9008              	_ZN5daisy13SSD130xDriverILj128ELj64ENS_24SSD130x4WireSpiTransportEE4InitENS2_6ConfigE:
 9009              	.LVL652:
 9010              	.LFB4189:
 253:../../libDaisy//src/dev/oled_ssd130x.h ****     {
 9011              		.loc 4 253 10 is_stmt 1 view -0
 9012              		.cfi_startproc
 9013              		@ args = 48, pretend = 16, frame = 8
 9014              		@ frame_needed = 0, uses_anonymous_args = 0
 253:../../libDaisy//src/dev/oled_ssd130x.h ****     {
 9015              		.loc 4 253 10 is_stmt 0 view .LVU2398
 9016 0000 84B0     		sub	sp, sp, #16
 9017              		.cfi_def_cfa_offset 16
 9018 0002 2DE9F041 		push	{r4, r5, r6, r7, r8, lr}
 9019              		.cfi_def_cfa_offset 40
 9020              		.cfi_offset 4, -40
 9021              		.cfi_offset 5, -36
 9022              		.cfi_offset 6, -32
 9023              		.cfi_offset 7, -28
ARM GAS  /var/folders/1y/_321xjh9623c014x9_qw12rr0000gn/T//ccXZVGQV.s 			page 251


 9024              		.cfi_offset 8, -24
 9025              		.cfi_offset 14, -20
 9026 0006 82B0     		sub	sp, sp, #8
 9027              		.cfi_def_cfa_offset 48
 9028              	.LBB2042:
 9029              	.LBB2043:
 106:../../libDaisy//src/dev/oled_ssd130x.h ****         pin_dc_.pin  = config.pin_config.dc;
 9030              		.loc 4 106 22 view .LVU2399
 9031 0008 0125     		movs	r5, #1
 107:../../libDaisy//src/dev/oled_ssd130x.h ****         dsy_gpio_init(&pin_dc_);
 9032              		.loc 4 107 22 view .LVU2400
 9033 000a 0646     		mov	r6, r0
 9034              	.LBE2043:
 9035              	.LBE2042:
 253:../../libDaisy//src/dev/oled_ssd130x.h ****     {
 9036              		.loc 4 253 10 view .LVU2401
 9037 000c 0446     		mov	r4, r0
 9038              	.LVL653:
 9039              	.LBB2047:
 9040              	.LBI2042:
 103:../../libDaisy//src/dev/oled_ssd130x.h ****     {
 9041              		.loc 4 103 10 is_stmt 1 view .LVU2402
 9042              	.LBB2044:
 106:../../libDaisy//src/dev/oled_ssd130x.h ****         pin_dc_.pin  = config.pin_config.dc;
 9043              		.loc 4 106 9 view .LVU2403
 9044              	.LBE2044:
 9045              	.LBE2047:
 253:../../libDaisy//src/dev/oled_ssd130x.h ****     {
 9046              		.loc 4 253 10 is_stmt 0 view .LVU2404
 9047 000e 0DF12408 		add	r8, sp, #36
 9048              	.LBB2048:
 9049              	.LBB2045:
 106:../../libDaisy//src/dev/oled_ssd130x.h ****         pin_dc_.pin  = config.pin_config.dc;
 9050              		.loc 4 106 22 view .LVU2405
 9051 0012 8572     		strb	r5, [r0, #10]
 107:../../libDaisy//src/dev/oled_ssd130x.h ****         dsy_gpio_init(&pin_dc_);
 9052              		.loc 4 107 9 is_stmt 1 view .LVU2406
 110:../../libDaisy//src/dev/oled_ssd130x.h ****         dsy_gpio_init(&pin_reset_);
 9053              		.loc 4 110 25 is_stmt 0 view .LVU2407
 9054 0014 2746     		mov	r7, r4
 9055              	.LBE2045:
 9056              	.LBE2048:
 253:../../libDaisy//src/dev/oled_ssd130x.h ****     {
 9057              		.loc 4 253 10 view .LVU2408
 9058 0016 88E80E00 		stm	r8, {r1, r2, r3}
 9059              	.LBB2049:
 9060              	.LBB2046:
 107:../../libDaisy//src/dev/oled_ssd130x.h ****         dsy_gpio_init(&pin_dc_);
 9061              		.loc 4 107 22 view .LVU2409
 9062 001a BDF84C30 		ldrh	r3, [sp, #76]
 9063 001e 26F8083F 		strh	r3, [r6, #8]!	@ movhi
 108:../../libDaisy//src/dev/oled_ssd130x.h ****         pin_reset_.mode = DSY_GPIO_MODE_OUTPUT_PP;
 9064              		.loc 4 108 9 is_stmt 1 view .LVU2410
 108:../../libDaisy//src/dev/oled_ssd130x.h ****         pin_reset_.mode = DSY_GPIO_MODE_OUTPUT_PP;
 9065              		.loc 4 108 22 is_stmt 0 view .LVU2411
 9066 0022 3046     		mov	r0, r6
 9067              	.LVL654:
ARM GAS  /var/folders/1y/_321xjh9623c014x9_qw12rr0000gn/T//ccXZVGQV.s 			page 252


 108:../../libDaisy//src/dev/oled_ssd130x.h ****         pin_reset_.mode = DSY_GPIO_MODE_OUTPUT_PP;
 9068              		.loc 4 108 22 view .LVU2412
 9069 0024 FFF7FEFF 		bl	dsy_gpio_init
 9070              	.LVL655:
 109:../../libDaisy//src/dev/oled_ssd130x.h ****         pin_reset_.pin  = config.pin_config.reset;
 9071              		.loc 4 109 9 is_stmt 1 view .LVU2413
 110:../../libDaisy//src/dev/oled_ssd130x.h ****         dsy_gpio_init(&pin_reset_);
 9072              		.loc 4 110 25 is_stmt 0 view .LVU2414
 9073 0028 BDF84E30 		ldrh	r3, [sp, #78]
 109:../../libDaisy//src/dev/oled_ssd130x.h ****         pin_reset_.pin  = config.pin_config.reset;
 9074              		.loc 4 109 25 view .LVU2415
 9075 002c A571     		strb	r5, [r4, #6]
 110:../../libDaisy//src/dev/oled_ssd130x.h ****         dsy_gpio_init(&pin_reset_);
 9076              		.loc 4 110 9 is_stmt 1 view .LVU2416
 110:../../libDaisy//src/dev/oled_ssd130x.h ****         dsy_gpio_init(&pin_reset_);
 9077              		.loc 4 110 25 is_stmt 0 view .LVU2417
 9078 002e 27F8043F 		strh	r3, [r7, #4]!	@ movhi
 111:../../libDaisy//src/dev/oled_ssd130x.h **** 
 9079              		.loc 4 111 9 is_stmt 1 view .LVU2418
 111:../../libDaisy//src/dev/oled_ssd130x.h **** 
 9080              		.loc 4 111 22 is_stmt 0 view .LVU2419
 9081 0032 3846     		mov	r0, r7
 9082 0034 FFF7FEFF 		bl	dsy_gpio_init
 9083              	.LVL656:
 114:../../libDaisy//src/dev/oled_ssd130x.h **** 
 9084              		.loc 4 114 9 is_stmt 1 view .LVU2420
 114:../../libDaisy//src/dev/oled_ssd130x.h **** 
 9085              		.loc 4 114 18 is_stmt 0 view .LVU2421
 9086 0038 4146     		mov	r1, r8
 9087 003a 2046     		mov	r0, r4
 9088 003c FFF7FEFF 		bl	_ZN5daisy9SpiHandle4InitERKNS0_6ConfigE
 9089              	.LVL657:
 117:../../libDaisy//src/dev/oled_ssd130x.h ****         System::Delay(10);
 9090              		.loc 4 117 9 is_stmt 1 view .LVU2422
 117:../../libDaisy//src/dev/oled_ssd130x.h ****         System::Delay(10);
 9091              		.loc 4 117 23 is_stmt 0 view .LVU2423
 9092 0040 0021     		movs	r1, #0
 9093 0042 3846     		mov	r0, r7
 9094 0044 FFF7FEFF 		bl	dsy_gpio_write
 9095              	.LVL658:
 118:../../libDaisy//src/dev/oled_ssd130x.h ****         dsy_gpio_write(&pin_reset_, 1);
 9096              		.loc 4 118 9 is_stmt 1 view .LVU2424
 118:../../libDaisy//src/dev/oled_ssd130x.h ****         dsy_gpio_write(&pin_reset_, 1);
 9097              		.loc 4 118 22 is_stmt 0 view .LVU2425
 9098 0048 0A20     		movs	r0, #10
 9099 004a FFF7FEFF 		bl	_ZN5daisy6System5DelayEm
 9100              	.LVL659:
 119:../../libDaisy//src/dev/oled_ssd130x.h ****         System::Delay(10);
 9101              		.loc 4 119 9 is_stmt 1 view .LVU2426
 119:../../libDaisy//src/dev/oled_ssd130x.h ****         System::Delay(10);
 9102              		.loc 4 119 23 is_stmt 0 view .LVU2427
 9103 004e 2946     		mov	r1, r5
 9104 0050 3846     		mov	r0, r7
 9105 0052 FFF7FEFF 		bl	dsy_gpio_write
 9106              	.LVL660:
 120:../../libDaisy//src/dev/oled_ssd130x.h ****     };
 9107              		.loc 4 120 9 is_stmt 1 view .LVU2428
ARM GAS  /var/folders/1y/_321xjh9623c014x9_qw12rr0000gn/T//ccXZVGQV.s 			page 253


 120:../../libDaisy//src/dev/oled_ssd130x.h ****     };
 9108              		.loc 4 120 22 is_stmt 0 view .LVU2429
 9109 0056 0A20     		movs	r0, #10
 9110 0058 FFF7FEFF 		bl	_ZN5daisy6System5DelayEm
 9111              	.LVL661:
 120:../../libDaisy//src/dev/oled_ssd130x.h ****     };
 9112              		.loc 4 120 22 view .LVU2430
 9113 005c AE23     		movs	r3, #174
 9114              	.LBE2046:
 9115              	.LBE2049:
 9116              	.LBB2050:
 9117              	.LBB2051:
 124:../../libDaisy//src/dev/oled_ssd130x.h ****         spi_.BlockingTransmit(&cmd, 1);
 9118              		.loc 4 124 23 view .LVU2431
 9119 005e 3046     		mov	r0, r6
 9120 0060 0021     		movs	r1, #0
 9121 0062 8DF80730 		strb	r3, [sp, #7]
 9122              	.LVL662:
 124:../../libDaisy//src/dev/oled_ssd130x.h ****         spi_.BlockingTransmit(&cmd, 1);
 9123              		.loc 4 124 23 view .LVU2432
 9124              	.LBE2051:
 9125              	.LBI2050:
 122:../../libDaisy//src/dev/oled_ssd130x.h ****     {
 9126              		.loc 4 122 10 is_stmt 1 view .LVU2433
 9127              	.LBB2052:
 124:../../libDaisy//src/dev/oled_ssd130x.h ****         spi_.BlockingTransmit(&cmd, 1);
 9128              		.loc 4 124 9 view .LVU2434
 124:../../libDaisy//src/dev/oled_ssd130x.h ****         spi_.BlockingTransmit(&cmd, 1);
 9129              		.loc 4 124 23 is_stmt 0 view .LVU2435
 9130 0066 FFF7FEFF 		bl	dsy_gpio_write
 9131              	.LVL663:
 125:../../libDaisy//src/dev/oled_ssd130x.h ****     };
 9132              		.loc 4 125 9 is_stmt 1 view .LVU2436
 125:../../libDaisy//src/dev/oled_ssd130x.h ****     };
 9133              		.loc 4 125 30 is_stmt 0 view .LVU2437
 9134 006a 2A46     		mov	r2, r5
 9135 006c 0DF10701 		add	r1, sp, #7
 9136 0070 6423     		movs	r3, #100
 9137 0072 2046     		mov	r0, r4
 9138 0074 FFF7FEFF 		bl	_ZN5daisy9SpiHandle16BlockingTransmitEPhjm
 9139              	.LVL664:
 125:../../libDaisy//src/dev/oled_ssd130x.h ****     };
 9140              		.loc 4 125 30 view .LVU2438
 9141 0078 D523     		movs	r3, #213
 9142              	.LBE2052:
 9143              	.LBE2050:
 9144              	.LBB2053:
 9145              	.LBB2054:
 124:../../libDaisy//src/dev/oled_ssd130x.h ****         spi_.BlockingTransmit(&cmd, 1);
 9146              		.loc 4 124 23 view .LVU2439
 9147 007a 3046     		mov	r0, r6
 9148 007c 0021     		movs	r1, #0
 9149 007e 8DF80730 		strb	r3, [sp, #7]
 9150              	.LVL665:
 124:../../libDaisy//src/dev/oled_ssd130x.h ****         spi_.BlockingTransmit(&cmd, 1);
 9151              		.loc 4 124 23 view .LVU2440
 9152              	.LBE2054:
ARM GAS  /var/folders/1y/_321xjh9623c014x9_qw12rr0000gn/T//ccXZVGQV.s 			page 254


 9153              	.LBI2053:
 122:../../libDaisy//src/dev/oled_ssd130x.h ****     {
 9154              		.loc 4 122 10 is_stmt 1 view .LVU2441
 9155              	.LBB2055:
 124:../../libDaisy//src/dev/oled_ssd130x.h ****         spi_.BlockingTransmit(&cmd, 1);
 9156              		.loc 4 124 9 view .LVU2442
 124:../../libDaisy//src/dev/oled_ssd130x.h ****         spi_.BlockingTransmit(&cmd, 1);
 9157              		.loc 4 124 23 is_stmt 0 view .LVU2443
 9158 0082 FFF7FEFF 		bl	dsy_gpio_write
 9159              	.LVL666:
 125:../../libDaisy//src/dev/oled_ssd130x.h ****     };
 9160              		.loc 4 125 9 is_stmt 1 view .LVU2444
 125:../../libDaisy//src/dev/oled_ssd130x.h ****     };
 9161              		.loc 4 125 30 is_stmt 0 view .LVU2445
 9162 0086 2A46     		mov	r2, r5
 9163 0088 0DF10701 		add	r1, sp, #7
 9164 008c 6423     		movs	r3, #100
 9165 008e 2046     		mov	r0, r4
 9166 0090 FFF7FEFF 		bl	_ZN5daisy9SpiHandle16BlockingTransmitEPhjm
 9167              	.LVL667:
 125:../../libDaisy//src/dev/oled_ssd130x.h ****     };
 9168              		.loc 4 125 30 view .LVU2446
 9169 0094 8023     		movs	r3, #128
 9170              	.LBE2055:
 9171              	.LBE2053:
 9172              	.LBB2056:
 9173              	.LBB2057:
 124:../../libDaisy//src/dev/oled_ssd130x.h ****         spi_.BlockingTransmit(&cmd, 1);
 9174              		.loc 4 124 23 view .LVU2447
 9175 0096 3046     		mov	r0, r6
 9176 0098 0021     		movs	r1, #0
 9177 009a 8DF80730 		strb	r3, [sp, #7]
 9178              	.LVL668:
 124:../../libDaisy//src/dev/oled_ssd130x.h ****         spi_.BlockingTransmit(&cmd, 1);
 9179              		.loc 4 124 23 view .LVU2448
 9180              	.LBE2057:
 9181              	.LBI2056:
 122:../../libDaisy//src/dev/oled_ssd130x.h ****     {
 9182              		.loc 4 122 10 is_stmt 1 view .LVU2449
 9183              	.LBB2058:
 124:../../libDaisy//src/dev/oled_ssd130x.h ****         spi_.BlockingTransmit(&cmd, 1);
 9184              		.loc 4 124 9 view .LVU2450
 124:../../libDaisy//src/dev/oled_ssd130x.h ****         spi_.BlockingTransmit(&cmd, 1);
 9185              		.loc 4 124 23 is_stmt 0 view .LVU2451
 9186 009e FFF7FEFF 		bl	dsy_gpio_write
 9187              	.LVL669:
 125:../../libDaisy//src/dev/oled_ssd130x.h ****     };
 9188              		.loc 4 125 9 is_stmt 1 view .LVU2452
 125:../../libDaisy//src/dev/oled_ssd130x.h ****     };
 9189              		.loc 4 125 30 is_stmt 0 view .LVU2453
 9190 00a2 2A46     		mov	r2, r5
 9191 00a4 0DF10701 		add	r1, sp, #7
 9192 00a8 6423     		movs	r3, #100
 9193 00aa 2046     		mov	r0, r4
 9194 00ac FFF7FEFF 		bl	_ZN5daisy9SpiHandle16BlockingTransmitEPhjm
 9195              	.LVL670:
 125:../../libDaisy//src/dev/oled_ssd130x.h ****     };
ARM GAS  /var/folders/1y/_321xjh9623c014x9_qw12rr0000gn/T//ccXZVGQV.s 			page 255


 9196              		.loc 4 125 30 view .LVU2454
 9197 00b0 A823     		movs	r3, #168
 9198              	.LBE2058:
 9199              	.LBE2056:
 9200              	.LBB2059:
 9201              	.LBB2060:
 124:../../libDaisy//src/dev/oled_ssd130x.h ****         spi_.BlockingTransmit(&cmd, 1);
 9202              		.loc 4 124 23 view .LVU2455
 9203 00b2 3046     		mov	r0, r6
 9204 00b4 0021     		movs	r1, #0
 9205 00b6 8DF80730 		strb	r3, [sp, #7]
 9206              	.LVL671:
 124:../../libDaisy//src/dev/oled_ssd130x.h ****         spi_.BlockingTransmit(&cmd, 1);
 9207              		.loc 4 124 23 view .LVU2456
 9208              	.LBE2060:
 9209              	.LBI2059:
 122:../../libDaisy//src/dev/oled_ssd130x.h ****     {
 9210              		.loc 4 122 10 is_stmt 1 view .LVU2457
 9211              	.LBB2061:
 124:../../libDaisy//src/dev/oled_ssd130x.h ****         spi_.BlockingTransmit(&cmd, 1);
 9212              		.loc 4 124 9 view .LVU2458
 124:../../libDaisy//src/dev/oled_ssd130x.h ****         spi_.BlockingTransmit(&cmd, 1);
 9213              		.loc 4 124 23 is_stmt 0 view .LVU2459
 9214 00ba FFF7FEFF 		bl	dsy_gpio_write
 9215              	.LVL672:
 125:../../libDaisy//src/dev/oled_ssd130x.h ****     };
 9216              		.loc 4 125 9 is_stmt 1 view .LVU2460
 125:../../libDaisy//src/dev/oled_ssd130x.h ****     };
 9217              		.loc 4 125 30 is_stmt 0 view .LVU2461
 9218 00be 2A46     		mov	r2, r5
 9219 00c0 0DF10701 		add	r1, sp, #7
 9220 00c4 6423     		movs	r3, #100
 9221 00c6 2046     		mov	r0, r4
 9222 00c8 FFF7FEFF 		bl	_ZN5daisy9SpiHandle16BlockingTransmitEPhjm
 9223              	.LVL673:
 125:../../libDaisy//src/dev/oled_ssd130x.h ****     };
 9224              		.loc 4 125 30 view .LVU2462
 9225 00cc 3F23     		movs	r3, #63
 9226              	.LBE2061:
 9227              	.LBE2059:
 9228              	.LBB2062:
 9229              	.LBB2063:
 124:../../libDaisy//src/dev/oled_ssd130x.h ****         spi_.BlockingTransmit(&cmd, 1);
 9230              		.loc 4 124 23 view .LVU2463
 9231 00ce 3046     		mov	r0, r6
 9232 00d0 0021     		movs	r1, #0
 9233 00d2 8DF80730 		strb	r3, [sp, #7]
 9234              	.LVL674:
 124:../../libDaisy//src/dev/oled_ssd130x.h ****         spi_.BlockingTransmit(&cmd, 1);
 9235              		.loc 4 124 23 view .LVU2464
 9236              	.LBE2063:
 9237              	.LBI2062:
 122:../../libDaisy//src/dev/oled_ssd130x.h ****     {
 9238              		.loc 4 122 10 is_stmt 1 view .LVU2465
 9239              	.LBB2064:
 124:../../libDaisy//src/dev/oled_ssd130x.h ****         spi_.BlockingTransmit(&cmd, 1);
 9240              		.loc 4 124 9 view .LVU2466
ARM GAS  /var/folders/1y/_321xjh9623c014x9_qw12rr0000gn/T//ccXZVGQV.s 			page 256


 124:../../libDaisy//src/dev/oled_ssd130x.h ****         spi_.BlockingTransmit(&cmd, 1);
 9241              		.loc 4 124 23 is_stmt 0 view .LVU2467
 9242 00d6 FFF7FEFF 		bl	dsy_gpio_write
 9243              	.LVL675:
 125:../../libDaisy//src/dev/oled_ssd130x.h ****     };
 9244              		.loc 4 125 9 is_stmt 1 view .LVU2468
 125:../../libDaisy//src/dev/oled_ssd130x.h ****     };
 9245              		.loc 4 125 30 is_stmt 0 view .LVU2469
 9246 00da 2A46     		mov	r2, r5
 9247 00dc 0DF10701 		add	r1, sp, #7
 9248 00e0 6423     		movs	r3, #100
 9249 00e2 2046     		mov	r0, r4
 9250 00e4 FFF7FEFF 		bl	_ZN5daisy9SpiHandle16BlockingTransmitEPhjm
 9251              	.LVL676:
 125:../../libDaisy//src/dev/oled_ssd130x.h ****     };
 9252              		.loc 4 125 30 view .LVU2470
 9253 00e8 DA23     		movs	r3, #218
 9254              	.LBE2064:
 9255              	.LBE2062:
 9256              	.LBB2065:
 9257              	.LBB2066:
 124:../../libDaisy//src/dev/oled_ssd130x.h ****         spi_.BlockingTransmit(&cmd, 1);
 9258              		.loc 4 124 23 view .LVU2471
 9259 00ea 3046     		mov	r0, r6
 9260 00ec 0021     		movs	r1, #0
 9261 00ee 8DF80730 		strb	r3, [sp, #7]
 9262              	.LVL677:
 124:../../libDaisy//src/dev/oled_ssd130x.h ****         spi_.BlockingTransmit(&cmd, 1);
 9263              		.loc 4 124 23 view .LVU2472
 9264              	.LBE2066:
 9265              	.LBI2065:
 122:../../libDaisy//src/dev/oled_ssd130x.h ****     {
 9266              		.loc 4 122 10 is_stmt 1 view .LVU2473
 9267              	.LBB2067:
 124:../../libDaisy//src/dev/oled_ssd130x.h ****         spi_.BlockingTransmit(&cmd, 1);
 9268              		.loc 4 124 9 view .LVU2474
 124:../../libDaisy//src/dev/oled_ssd130x.h ****         spi_.BlockingTransmit(&cmd, 1);
 9269              		.loc 4 124 23 is_stmt 0 view .LVU2475
 9270 00f2 FFF7FEFF 		bl	dsy_gpio_write
 9271              	.LVL678:
 125:../../libDaisy//src/dev/oled_ssd130x.h ****     };
 9272              		.loc 4 125 9 is_stmt 1 view .LVU2476
 125:../../libDaisy//src/dev/oled_ssd130x.h ****     };
 9273              		.loc 4 125 30 is_stmt 0 view .LVU2477
 9274 00f6 2A46     		mov	r2, r5
 9275 00f8 0DF10701 		add	r1, sp, #7
 9276 00fc 6423     		movs	r3, #100
 9277 00fe 2046     		mov	r0, r4
 9278 0100 FFF7FEFF 		bl	_ZN5daisy9SpiHandle16BlockingTransmitEPhjm
 9279              	.LVL679:
 125:../../libDaisy//src/dev/oled_ssd130x.h ****     };
 9280              		.loc 4 125 30 view .LVU2478
 9281 0104 1223     		movs	r3, #18
 9282              	.LBE2067:
 9283              	.LBE2065:
 9284              	.LBB2068:
 9285              	.LBB2069:
ARM GAS  /var/folders/1y/_321xjh9623c014x9_qw12rr0000gn/T//ccXZVGQV.s 			page 257


 124:../../libDaisy//src/dev/oled_ssd130x.h ****         spi_.BlockingTransmit(&cmd, 1);
 9286              		.loc 4 124 23 view .LVU2479
 9287 0106 3046     		mov	r0, r6
 9288 0108 0021     		movs	r1, #0
 9289 010a 8DF80730 		strb	r3, [sp, #7]
 9290              	.LVL680:
 124:../../libDaisy//src/dev/oled_ssd130x.h ****         spi_.BlockingTransmit(&cmd, 1);
 9291              		.loc 4 124 23 view .LVU2480
 9292              	.LBE2069:
 9293              	.LBI2068:
 122:../../libDaisy//src/dev/oled_ssd130x.h ****     {
 9294              		.loc 4 122 10 is_stmt 1 view .LVU2481
 9295              	.LBB2070:
 124:../../libDaisy//src/dev/oled_ssd130x.h ****         spi_.BlockingTransmit(&cmd, 1);
 9296              		.loc 4 124 9 view .LVU2482
 124:../../libDaisy//src/dev/oled_ssd130x.h ****         spi_.BlockingTransmit(&cmd, 1);
 9297              		.loc 4 124 23 is_stmt 0 view .LVU2483
 9298 010e FFF7FEFF 		bl	dsy_gpio_write
 9299              	.LVL681:
 125:../../libDaisy//src/dev/oled_ssd130x.h ****     };
 9300              		.loc 4 125 9 is_stmt 1 view .LVU2484
 125:../../libDaisy//src/dev/oled_ssd130x.h ****     };
 9301              		.loc 4 125 30 is_stmt 0 view .LVU2485
 9302 0112 2A46     		mov	r2, r5
 9303 0114 0DF10701 		add	r1, sp, #7
 9304 0118 6423     		movs	r3, #100
 9305 011a 2046     		mov	r0, r4
 9306 011c FFF7FEFF 		bl	_ZN5daisy9SpiHandle16BlockingTransmitEPhjm
 9307              	.LVL682:
 125:../../libDaisy//src/dev/oled_ssd130x.h ****     };
 9308              		.loc 4 125 30 view .LVU2486
 9309              	.LBE2070:
 9310              	.LBE2068:
 9311              	.LBB2071:
 9312              	.LBB2072:
 124:../../libDaisy//src/dev/oled_ssd130x.h ****         spi_.BlockingTransmit(&cmd, 1);
 9313              		.loc 4 124 23 view .LVU2487
 9314 0120 0021     		movs	r1, #0
 9315 0122 D323     		movs	r3, #211
 9316 0124 3046     		mov	r0, r6
 9317 0126 0F46     		mov	r7, r1
 9318 0128 8DF80730 		strb	r3, [sp, #7]
 9319              	.LVL683:
 124:../../libDaisy//src/dev/oled_ssd130x.h ****         spi_.BlockingTransmit(&cmd, 1);
 9320              		.loc 4 124 23 view .LVU2488
 9321              	.LBE2072:
 9322              	.LBI2071:
 122:../../libDaisy//src/dev/oled_ssd130x.h ****     {
 9323              		.loc 4 122 10 is_stmt 1 view .LVU2489
 9324              	.LBB2073:
 124:../../libDaisy//src/dev/oled_ssd130x.h ****         spi_.BlockingTransmit(&cmd, 1);
 9325              		.loc 4 124 9 view .LVU2490
 124:../../libDaisy//src/dev/oled_ssd130x.h ****         spi_.BlockingTransmit(&cmd, 1);
 9326              		.loc 4 124 23 is_stmt 0 view .LVU2491
 9327 012c FFF7FEFF 		bl	dsy_gpio_write
 9328              	.LVL684:
 125:../../libDaisy//src/dev/oled_ssd130x.h ****     };
ARM GAS  /var/folders/1y/_321xjh9623c014x9_qw12rr0000gn/T//ccXZVGQV.s 			page 258


 9329              		.loc 4 125 9 is_stmt 1 view .LVU2492
 125:../../libDaisy//src/dev/oled_ssd130x.h ****     };
 9330              		.loc 4 125 30 is_stmt 0 view .LVU2493
 9331 0130 2A46     		mov	r2, r5
 9332 0132 6423     		movs	r3, #100
 9333 0134 0DF10701 		add	r1, sp, #7
 9334 0138 2046     		mov	r0, r4
 9335 013a FFF7FEFF 		bl	_ZN5daisy9SpiHandle16BlockingTransmitEPhjm
 9336              	.LVL685:
 125:../../libDaisy//src/dev/oled_ssd130x.h ****     };
 9337              		.loc 4 125 30 view .LVU2494
 9338              	.LBE2073:
 9339              	.LBE2071:
 9340              	.LBB2074:
 9341              	.LBB2075:
 124:../../libDaisy//src/dev/oled_ssd130x.h ****         spi_.BlockingTransmit(&cmd, 1);
 9342              		.loc 4 124 23 view .LVU2495
 9343 013e 3946     		mov	r1, r7
 9344 0140 3046     		mov	r0, r6
 9345 0142 8DF80770 		strb	r7, [sp, #7]
 9346              	.LVL686:
 124:../../libDaisy//src/dev/oled_ssd130x.h ****         spi_.BlockingTransmit(&cmd, 1);
 9347              		.loc 4 124 23 view .LVU2496
 9348              	.LBE2075:
 9349              	.LBI2074:
 122:../../libDaisy//src/dev/oled_ssd130x.h ****     {
 9350              		.loc 4 122 10 is_stmt 1 view .LVU2497
 9351              	.LBB2076:
 124:../../libDaisy//src/dev/oled_ssd130x.h ****         spi_.BlockingTransmit(&cmd, 1);
 9352              		.loc 4 124 9 view .LVU2498
 124:../../libDaisy//src/dev/oled_ssd130x.h ****         spi_.BlockingTransmit(&cmd, 1);
 9353              		.loc 4 124 23 is_stmt 0 view .LVU2499
 9354 0146 FFF7FEFF 		bl	dsy_gpio_write
 9355              	.LVL687:
 125:../../libDaisy//src/dev/oled_ssd130x.h ****     };
 9356              		.loc 4 125 9 is_stmt 1 view .LVU2500
 125:../../libDaisy//src/dev/oled_ssd130x.h ****     };
 9357              		.loc 4 125 30 is_stmt 0 view .LVU2501
 9358 014a 2A46     		mov	r2, r5
 9359 014c 0DF10701 		add	r1, sp, #7
 9360 0150 6423     		movs	r3, #100
 9361 0152 2046     		mov	r0, r4
 9362 0154 FFF7FEFF 		bl	_ZN5daisy9SpiHandle16BlockingTransmitEPhjm
 9363              	.LVL688:
 125:../../libDaisy//src/dev/oled_ssd130x.h ****     };
 9364              		.loc 4 125 30 view .LVU2502
 9365 0158 4023     		movs	r3, #64
 9366              	.LBE2076:
 9367              	.LBE2074:
 9368              	.LBB2077:
 9369              	.LBB2078:
 124:../../libDaisy//src/dev/oled_ssd130x.h ****         spi_.BlockingTransmit(&cmd, 1);
 9370              		.loc 4 124 23 view .LVU2503
 9371 015a 3946     		mov	r1, r7
 9372 015c 3046     		mov	r0, r6
 9373 015e 8DF80730 		strb	r3, [sp, #7]
 9374              	.LVL689:
ARM GAS  /var/folders/1y/_321xjh9623c014x9_qw12rr0000gn/T//ccXZVGQV.s 			page 259


 124:../../libDaisy//src/dev/oled_ssd130x.h ****         spi_.BlockingTransmit(&cmd, 1);
 9375              		.loc 4 124 23 view .LVU2504
 9376              	.LBE2078:
 9377              	.LBI2077:
 122:../../libDaisy//src/dev/oled_ssd130x.h ****     {
 9378              		.loc 4 122 10 is_stmt 1 view .LVU2505
 9379              	.LBB2079:
 124:../../libDaisy//src/dev/oled_ssd130x.h ****         spi_.BlockingTransmit(&cmd, 1);
 9380              		.loc 4 124 9 view .LVU2506
 124:../../libDaisy//src/dev/oled_ssd130x.h ****         spi_.BlockingTransmit(&cmd, 1);
 9381              		.loc 4 124 23 is_stmt 0 view .LVU2507
 9382 0162 FFF7FEFF 		bl	dsy_gpio_write
 9383              	.LVL690:
 125:../../libDaisy//src/dev/oled_ssd130x.h ****     };
 9384              		.loc 4 125 9 is_stmt 1 view .LVU2508
 125:../../libDaisy//src/dev/oled_ssd130x.h ****     };
 9385              		.loc 4 125 30 is_stmt 0 view .LVU2509
 9386 0166 2A46     		mov	r2, r5
 9387 0168 0DF10701 		add	r1, sp, #7
 9388 016c 6423     		movs	r3, #100
 9389 016e 2046     		mov	r0, r4
 9390 0170 FFF7FEFF 		bl	_ZN5daisy9SpiHandle16BlockingTransmitEPhjm
 9391              	.LVL691:
 125:../../libDaisy//src/dev/oled_ssd130x.h ****     };
 9392              		.loc 4 125 30 view .LVU2510
 9393 0174 A623     		movs	r3, #166
 9394              	.LBE2079:
 9395              	.LBE2077:
 9396              	.LBB2080:
 9397              	.LBB2081:
 124:../../libDaisy//src/dev/oled_ssd130x.h ****         spi_.BlockingTransmit(&cmd, 1);
 9398              		.loc 4 124 23 view .LVU2511
 9399 0176 3946     		mov	r1, r7
 9400 0178 3046     		mov	r0, r6
 9401 017a 8DF80730 		strb	r3, [sp, #7]
 9402              	.LVL692:
 124:../../libDaisy//src/dev/oled_ssd130x.h ****         spi_.BlockingTransmit(&cmd, 1);
 9403              		.loc 4 124 23 view .LVU2512
 9404              	.LBE2081:
 9405              	.LBI2080:
 122:../../libDaisy//src/dev/oled_ssd130x.h ****     {
 9406              		.loc 4 122 10 is_stmt 1 view .LVU2513
 9407              	.LBB2082:
 124:../../libDaisy//src/dev/oled_ssd130x.h ****         spi_.BlockingTransmit(&cmd, 1);
 9408              		.loc 4 124 9 view .LVU2514
 124:../../libDaisy//src/dev/oled_ssd130x.h ****         spi_.BlockingTransmit(&cmd, 1);
 9409              		.loc 4 124 23 is_stmt 0 view .LVU2515
 9410 017e FFF7FEFF 		bl	dsy_gpio_write
 9411              	.LVL693:
 125:../../libDaisy//src/dev/oled_ssd130x.h ****     };
 9412              		.loc 4 125 9 is_stmt 1 view .LVU2516
 125:../../libDaisy//src/dev/oled_ssd130x.h ****     };
 9413              		.loc 4 125 30 is_stmt 0 view .LVU2517
 9414 0182 2A46     		mov	r2, r5
 9415 0184 0DF10701 		add	r1, sp, #7
 9416 0188 6423     		movs	r3, #100
 9417 018a 2046     		mov	r0, r4
ARM GAS  /var/folders/1y/_321xjh9623c014x9_qw12rr0000gn/T//ccXZVGQV.s 			page 260


 9418 018c FFF7FEFF 		bl	_ZN5daisy9SpiHandle16BlockingTransmitEPhjm
 9419              	.LVL694:
 125:../../libDaisy//src/dev/oled_ssd130x.h ****     };
 9420              		.loc 4 125 30 view .LVU2518
 9421 0190 A423     		movs	r3, #164
 9422              	.LBE2082:
 9423              	.LBE2080:
 9424              	.LBB2083:
 9425              	.LBB2084:
 124:../../libDaisy//src/dev/oled_ssd130x.h ****         spi_.BlockingTransmit(&cmd, 1);
 9426              		.loc 4 124 23 view .LVU2519
 9427 0192 3946     		mov	r1, r7
 9428 0194 3046     		mov	r0, r6
 9429 0196 8DF80730 		strb	r3, [sp, #7]
 9430              	.LVL695:
 124:../../libDaisy//src/dev/oled_ssd130x.h ****         spi_.BlockingTransmit(&cmd, 1);
 9431              		.loc 4 124 23 view .LVU2520
 9432              	.LBE2084:
 9433              	.LBI2083:
 122:../../libDaisy//src/dev/oled_ssd130x.h ****     {
 9434              		.loc 4 122 10 is_stmt 1 view .LVU2521
 9435              	.LBB2085:
 124:../../libDaisy//src/dev/oled_ssd130x.h ****         spi_.BlockingTransmit(&cmd, 1);
 9436              		.loc 4 124 9 view .LVU2522
 124:../../libDaisy//src/dev/oled_ssd130x.h ****         spi_.BlockingTransmit(&cmd, 1);
 9437              		.loc 4 124 23 is_stmt 0 view .LVU2523
 9438 019a FFF7FEFF 		bl	dsy_gpio_write
 9439              	.LVL696:
 125:../../libDaisy//src/dev/oled_ssd130x.h ****     };
 9440              		.loc 4 125 9 is_stmt 1 view .LVU2524
 125:../../libDaisy//src/dev/oled_ssd130x.h ****     };
 9441              		.loc 4 125 30 is_stmt 0 view .LVU2525
 9442 019e 2A46     		mov	r2, r5
 9443 01a0 0DF10701 		add	r1, sp, #7
 9444 01a4 6423     		movs	r3, #100
 9445 01a6 2046     		mov	r0, r4
 9446 01a8 FFF7FEFF 		bl	_ZN5daisy9SpiHandle16BlockingTransmitEPhjm
 9447              	.LVL697:
 125:../../libDaisy//src/dev/oled_ssd130x.h ****     };
 9448              		.loc 4 125 30 view .LVU2526
 9449 01ac 8D23     		movs	r3, #141
 9450              	.LBE2085:
 9451              	.LBE2083:
 9452              	.LBB2086:
 9453              	.LBB2087:
 124:../../libDaisy//src/dev/oled_ssd130x.h ****         spi_.BlockingTransmit(&cmd, 1);
 9454              		.loc 4 124 23 view .LVU2527
 9455 01ae 3946     		mov	r1, r7
 9456 01b0 3046     		mov	r0, r6
 9457 01b2 8DF80730 		strb	r3, [sp, #7]
 9458              	.LVL698:
 124:../../libDaisy//src/dev/oled_ssd130x.h ****         spi_.BlockingTransmit(&cmd, 1);
 9459              		.loc 4 124 23 view .LVU2528
 9460              	.LBE2087:
 9461              	.LBI2086:
 122:../../libDaisy//src/dev/oled_ssd130x.h ****     {
 9462              		.loc 4 122 10 is_stmt 1 view .LVU2529
ARM GAS  /var/folders/1y/_321xjh9623c014x9_qw12rr0000gn/T//ccXZVGQV.s 			page 261


 9463              	.LBB2088:
 124:../../libDaisy//src/dev/oled_ssd130x.h ****         spi_.BlockingTransmit(&cmd, 1);
 9464              		.loc 4 124 9 view .LVU2530
 124:../../libDaisy//src/dev/oled_ssd130x.h ****         spi_.BlockingTransmit(&cmd, 1);
 9465              		.loc 4 124 23 is_stmt 0 view .LVU2531
 9466 01b6 FFF7FEFF 		bl	dsy_gpio_write
 9467              	.LVL699:
 125:../../libDaisy//src/dev/oled_ssd130x.h ****     };
 9468              		.loc 4 125 9 is_stmt 1 view .LVU2532
 125:../../libDaisy//src/dev/oled_ssd130x.h ****     };
 9469              		.loc 4 125 30 is_stmt 0 view .LVU2533
 9470 01ba 2A46     		mov	r2, r5
 9471 01bc 0DF10701 		add	r1, sp, #7
 9472 01c0 6423     		movs	r3, #100
 9473 01c2 2046     		mov	r0, r4
 9474 01c4 FFF7FEFF 		bl	_ZN5daisy9SpiHandle16BlockingTransmitEPhjm
 9475              	.LVL700:
 125:../../libDaisy//src/dev/oled_ssd130x.h ****     };
 9476              		.loc 4 125 30 view .LVU2534
 9477 01c8 1423     		movs	r3, #20
 9478              	.LBE2088:
 9479              	.LBE2086:
 9480              	.LBB2089:
 9481              	.LBB2090:
 124:../../libDaisy//src/dev/oled_ssd130x.h ****         spi_.BlockingTransmit(&cmd, 1);
 9482              		.loc 4 124 23 view .LVU2535
 9483 01ca 3946     		mov	r1, r7
 9484 01cc 3046     		mov	r0, r6
 9485 01ce 8DF80730 		strb	r3, [sp, #7]
 9486              	.LVL701:
 124:../../libDaisy//src/dev/oled_ssd130x.h ****         spi_.BlockingTransmit(&cmd, 1);
 9487              		.loc 4 124 23 view .LVU2536
 9488              	.LBE2090:
 9489              	.LBI2089:
 122:../../libDaisy//src/dev/oled_ssd130x.h ****     {
 9490              		.loc 4 122 10 is_stmt 1 view .LVU2537
 9491              	.LBB2091:
 124:../../libDaisy//src/dev/oled_ssd130x.h ****         spi_.BlockingTransmit(&cmd, 1);
 9492              		.loc 4 124 9 view .LVU2538
 124:../../libDaisy//src/dev/oled_ssd130x.h ****         spi_.BlockingTransmit(&cmd, 1);
 9493              		.loc 4 124 23 is_stmt 0 view .LVU2539
 9494 01d2 FFF7FEFF 		bl	dsy_gpio_write
 9495              	.LVL702:
 125:../../libDaisy//src/dev/oled_ssd130x.h ****     };
 9496              		.loc 4 125 9 is_stmt 1 view .LVU2540
 125:../../libDaisy//src/dev/oled_ssd130x.h ****     };
 9497              		.loc 4 125 30 is_stmt 0 view .LVU2541
 9498 01d6 2A46     		mov	r2, r5
 9499 01d8 0DF10701 		add	r1, sp, #7
 9500 01dc 6423     		movs	r3, #100
 9501 01de 2046     		mov	r0, r4
 9502 01e0 FFF7FEFF 		bl	_ZN5daisy9SpiHandle16BlockingTransmitEPhjm
 9503              	.LVL703:
 125:../../libDaisy//src/dev/oled_ssd130x.h ****     };
 9504              		.loc 4 125 30 view .LVU2542
 9505 01e4 A123     		movs	r3, #161
 9506              	.LBE2091:
ARM GAS  /var/folders/1y/_321xjh9623c014x9_qw12rr0000gn/T//ccXZVGQV.s 			page 262


 9507              	.LBE2089:
 9508              	.LBB2092:
 9509              	.LBB2093:
 124:../../libDaisy//src/dev/oled_ssd130x.h ****         spi_.BlockingTransmit(&cmd, 1);
 9510              		.loc 4 124 23 view .LVU2543
 9511 01e6 3946     		mov	r1, r7
 9512 01e8 3046     		mov	r0, r6
 9513 01ea 8DF80730 		strb	r3, [sp, #7]
 9514              	.LVL704:
 124:../../libDaisy//src/dev/oled_ssd130x.h ****         spi_.BlockingTransmit(&cmd, 1);
 9515              		.loc 4 124 23 view .LVU2544
 9516              	.LBE2093:
 9517              	.LBI2092:
 122:../../libDaisy//src/dev/oled_ssd130x.h ****     {
 9518              		.loc 4 122 10 is_stmt 1 view .LVU2545
 9519              	.LBB2094:
 124:../../libDaisy//src/dev/oled_ssd130x.h ****         spi_.BlockingTransmit(&cmd, 1);
 9520              		.loc 4 124 9 view .LVU2546
 124:../../libDaisy//src/dev/oled_ssd130x.h ****         spi_.BlockingTransmit(&cmd, 1);
 9521              		.loc 4 124 23 is_stmt 0 view .LVU2547
 9522 01ee FFF7FEFF 		bl	dsy_gpio_write
 9523              	.LVL705:
 125:../../libDaisy//src/dev/oled_ssd130x.h ****     };
 9524              		.loc 4 125 9 is_stmt 1 view .LVU2548
 125:../../libDaisy//src/dev/oled_ssd130x.h ****     };
 9525              		.loc 4 125 30 is_stmt 0 view .LVU2549
 9526 01f2 2A46     		mov	r2, r5
 9527 01f4 0DF10701 		add	r1, sp, #7
 9528 01f8 6423     		movs	r3, #100
 9529 01fa 2046     		mov	r0, r4
 9530 01fc FFF7FEFF 		bl	_ZN5daisy9SpiHandle16BlockingTransmitEPhjm
 9531              	.LVL706:
 125:../../libDaisy//src/dev/oled_ssd130x.h ****     };
 9532              		.loc 4 125 30 view .LVU2550
 9533 0200 C823     		movs	r3, #200
 9534              	.LBE2094:
 9535              	.LBE2092:
 9536              	.LBB2095:
 9537              	.LBB2096:
 124:../../libDaisy//src/dev/oled_ssd130x.h ****         spi_.BlockingTransmit(&cmd, 1);
 9538              		.loc 4 124 23 view .LVU2551
 9539 0202 3946     		mov	r1, r7
 9540 0204 3046     		mov	r0, r6
 9541 0206 8DF80730 		strb	r3, [sp, #7]
 9542              	.LVL707:
 124:../../libDaisy//src/dev/oled_ssd130x.h ****         spi_.BlockingTransmit(&cmd, 1);
 9543              		.loc 4 124 23 view .LVU2552
 9544              	.LBE2096:
 9545              	.LBI2095:
 122:../../libDaisy//src/dev/oled_ssd130x.h ****     {
 9546              		.loc 4 122 10 is_stmt 1 view .LVU2553
 9547              	.LBB2097:
 124:../../libDaisy//src/dev/oled_ssd130x.h ****         spi_.BlockingTransmit(&cmd, 1);
 9548              		.loc 4 124 9 view .LVU2554
 124:../../libDaisy//src/dev/oled_ssd130x.h ****         spi_.BlockingTransmit(&cmd, 1);
 9549              		.loc 4 124 23 is_stmt 0 view .LVU2555
 9550 020a FFF7FEFF 		bl	dsy_gpio_write
ARM GAS  /var/folders/1y/_321xjh9623c014x9_qw12rr0000gn/T//ccXZVGQV.s 			page 263


 9551              	.LVL708:
 125:../../libDaisy//src/dev/oled_ssd130x.h ****     };
 9552              		.loc 4 125 9 is_stmt 1 view .LVU2556
 125:../../libDaisy//src/dev/oled_ssd130x.h ****     };
 9553              		.loc 4 125 30 is_stmt 0 view .LVU2557
 9554 020e 2A46     		mov	r2, r5
 9555 0210 0DF10701 		add	r1, sp, #7
 9556 0214 6423     		movs	r3, #100
 9557 0216 2046     		mov	r0, r4
 9558 0218 FFF7FEFF 		bl	_ZN5daisy9SpiHandle16BlockingTransmitEPhjm
 9559              	.LVL709:
 125:../../libDaisy//src/dev/oled_ssd130x.h ****     };
 9560              		.loc 4 125 30 view .LVU2558
 9561 021c 8123     		movs	r3, #129
 9562              	.LBE2097:
 9563              	.LBE2095:
 9564              	.LBB2098:
 9565              	.LBB2099:
 124:../../libDaisy//src/dev/oled_ssd130x.h ****         spi_.BlockingTransmit(&cmd, 1);
 9566              		.loc 4 124 23 view .LVU2559
 9567 021e 3946     		mov	r1, r7
 9568 0220 3046     		mov	r0, r6
 9569 0222 8DF80730 		strb	r3, [sp, #7]
 9570              	.LVL710:
 124:../../libDaisy//src/dev/oled_ssd130x.h ****         spi_.BlockingTransmit(&cmd, 1);
 9571              		.loc 4 124 23 view .LVU2560
 9572              	.LBE2099:
 9573              	.LBI2098:
 122:../../libDaisy//src/dev/oled_ssd130x.h ****     {
 9574              		.loc 4 122 10 is_stmt 1 view .LVU2561
 9575              	.LBB2100:
 124:../../libDaisy//src/dev/oled_ssd130x.h ****         spi_.BlockingTransmit(&cmd, 1);
 9576              		.loc 4 124 9 view .LVU2562
 124:../../libDaisy//src/dev/oled_ssd130x.h ****         spi_.BlockingTransmit(&cmd, 1);
 9577              		.loc 4 124 23 is_stmt 0 view .LVU2563
 9578 0226 FFF7FEFF 		bl	dsy_gpio_write
 9579              	.LVL711:
 125:../../libDaisy//src/dev/oled_ssd130x.h ****     };
 9580              		.loc 4 125 9 is_stmt 1 view .LVU2564
 125:../../libDaisy//src/dev/oled_ssd130x.h ****     };
 9581              		.loc 4 125 30 is_stmt 0 view .LVU2565
 9582 022a 2A46     		mov	r2, r5
 9583 022c 0DF10701 		add	r1, sp, #7
 9584 0230 6423     		movs	r3, #100
 9585 0232 2046     		mov	r0, r4
 9586 0234 FFF7FEFF 		bl	_ZN5daisy9SpiHandle16BlockingTransmitEPhjm
 9587              	.LVL712:
 125:../../libDaisy//src/dev/oled_ssd130x.h ****     };
 9588              		.loc 4 125 30 view .LVU2566
 9589 0238 8F23     		movs	r3, #143
 9590              	.LBE2100:
 9591              	.LBE2098:
 9592              	.LBB2101:
 9593              	.LBB2102:
 124:../../libDaisy//src/dev/oled_ssd130x.h ****         spi_.BlockingTransmit(&cmd, 1);
 9594              		.loc 4 124 23 view .LVU2567
 9595 023a 3946     		mov	r1, r7
ARM GAS  /var/folders/1y/_321xjh9623c014x9_qw12rr0000gn/T//ccXZVGQV.s 			page 264


 9596 023c 3046     		mov	r0, r6
 9597 023e 8DF80730 		strb	r3, [sp, #7]
 9598              	.LVL713:
 124:../../libDaisy//src/dev/oled_ssd130x.h ****         spi_.BlockingTransmit(&cmd, 1);
 9599              		.loc 4 124 23 view .LVU2568
 9600              	.LBE2102:
 9601              	.LBI2101:
 122:../../libDaisy//src/dev/oled_ssd130x.h ****     {
 9602              		.loc 4 122 10 is_stmt 1 view .LVU2569
 9603              	.LBB2103:
 124:../../libDaisy//src/dev/oled_ssd130x.h ****         spi_.BlockingTransmit(&cmd, 1);
 9604              		.loc 4 124 9 view .LVU2570
 124:../../libDaisy//src/dev/oled_ssd130x.h ****         spi_.BlockingTransmit(&cmd, 1);
 9605              		.loc 4 124 23 is_stmt 0 view .LVU2571
 9606 0242 FFF7FEFF 		bl	dsy_gpio_write
 9607              	.LVL714:
 125:../../libDaisy//src/dev/oled_ssd130x.h ****     };
 9608              		.loc 4 125 9 is_stmt 1 view .LVU2572
 125:../../libDaisy//src/dev/oled_ssd130x.h ****     };
 9609              		.loc 4 125 30 is_stmt 0 view .LVU2573
 9610 0246 2A46     		mov	r2, r5
 9611 0248 0DF10701 		add	r1, sp, #7
 9612 024c 6423     		movs	r3, #100
 9613 024e 2046     		mov	r0, r4
 9614 0250 FFF7FEFF 		bl	_ZN5daisy9SpiHandle16BlockingTransmitEPhjm
 9615              	.LVL715:
 125:../../libDaisy//src/dev/oled_ssd130x.h ****     };
 9616              		.loc 4 125 30 view .LVU2574
 9617 0254 D923     		movs	r3, #217
 9618              	.LBE2103:
 9619              	.LBE2101:
 9620              	.LBB2104:
 9621              	.LBB2105:
 124:../../libDaisy//src/dev/oled_ssd130x.h ****         spi_.BlockingTransmit(&cmd, 1);
 9622              		.loc 4 124 23 view .LVU2575
 9623 0256 3946     		mov	r1, r7
 9624 0258 3046     		mov	r0, r6
 9625 025a 8DF80730 		strb	r3, [sp, #7]
 9626              	.LVL716:
 124:../../libDaisy//src/dev/oled_ssd130x.h ****         spi_.BlockingTransmit(&cmd, 1);
 9627              		.loc 4 124 23 view .LVU2576
 9628              	.LBE2105:
 9629              	.LBI2104:
 122:../../libDaisy//src/dev/oled_ssd130x.h ****     {
 9630              		.loc 4 122 10 is_stmt 1 view .LVU2577
 9631              	.LBB2106:
 124:../../libDaisy//src/dev/oled_ssd130x.h ****         spi_.BlockingTransmit(&cmd, 1);
 9632              		.loc 4 124 9 view .LVU2578
 124:../../libDaisy//src/dev/oled_ssd130x.h ****         spi_.BlockingTransmit(&cmd, 1);
 9633              		.loc 4 124 23 is_stmt 0 view .LVU2579
 9634 025e FFF7FEFF 		bl	dsy_gpio_write
 9635              	.LVL717:
 125:../../libDaisy//src/dev/oled_ssd130x.h ****     };
 9636              		.loc 4 125 9 is_stmt 1 view .LVU2580
 125:../../libDaisy//src/dev/oled_ssd130x.h ****     };
 9637              		.loc 4 125 30 is_stmt 0 view .LVU2581
 9638 0262 2A46     		mov	r2, r5
ARM GAS  /var/folders/1y/_321xjh9623c014x9_qw12rr0000gn/T//ccXZVGQV.s 			page 265


 9639 0264 0DF10701 		add	r1, sp, #7
 9640 0268 6423     		movs	r3, #100
 9641 026a 2046     		mov	r0, r4
 9642 026c FFF7FEFF 		bl	_ZN5daisy9SpiHandle16BlockingTransmitEPhjm
 9643              	.LVL718:
 125:../../libDaisy//src/dev/oled_ssd130x.h ****     };
 9644              		.loc 4 125 30 view .LVU2582
 9645 0270 2523     		movs	r3, #37
 9646              	.LBE2106:
 9647              	.LBE2104:
 9648              	.LBB2107:
 9649              	.LBB2108:
 124:../../libDaisy//src/dev/oled_ssd130x.h ****         spi_.BlockingTransmit(&cmd, 1);
 9650              		.loc 4 124 23 view .LVU2583
 9651 0272 3946     		mov	r1, r7
 9652 0274 3046     		mov	r0, r6
 9653 0276 8DF80730 		strb	r3, [sp, #7]
 9654              	.LVL719:
 124:../../libDaisy//src/dev/oled_ssd130x.h ****         spi_.BlockingTransmit(&cmd, 1);
 9655              		.loc 4 124 23 view .LVU2584
 9656              	.LBE2108:
 9657              	.LBI2107:
 122:../../libDaisy//src/dev/oled_ssd130x.h ****     {
 9658              		.loc 4 122 10 is_stmt 1 view .LVU2585
 9659              	.LBB2109:
 124:../../libDaisy//src/dev/oled_ssd130x.h ****         spi_.BlockingTransmit(&cmd, 1);
 9660              		.loc 4 124 9 view .LVU2586
 124:../../libDaisy//src/dev/oled_ssd130x.h ****         spi_.BlockingTransmit(&cmd, 1);
 9661              		.loc 4 124 23 is_stmt 0 view .LVU2587
 9662 027a FFF7FEFF 		bl	dsy_gpio_write
 9663              	.LVL720:
 125:../../libDaisy//src/dev/oled_ssd130x.h ****     };
 9664              		.loc 4 125 9 is_stmt 1 view .LVU2588
 125:../../libDaisy//src/dev/oled_ssd130x.h ****     };
 9665              		.loc 4 125 30 is_stmt 0 view .LVU2589
 9666 027e 2A46     		mov	r2, r5
 9667 0280 0DF10701 		add	r1, sp, #7
 9668 0284 6423     		movs	r3, #100
 9669 0286 2046     		mov	r0, r4
 9670 0288 FFF7FEFF 		bl	_ZN5daisy9SpiHandle16BlockingTransmitEPhjm
 9671              	.LVL721:
 125:../../libDaisy//src/dev/oled_ssd130x.h ****     };
 9672              		.loc 4 125 30 view .LVU2590
 9673 028c DB23     		movs	r3, #219
 9674              	.LBE2109:
 9675              	.LBE2107:
 9676              	.LBB2110:
 9677              	.LBB2111:
 124:../../libDaisy//src/dev/oled_ssd130x.h ****         spi_.BlockingTransmit(&cmd, 1);
 9678              		.loc 4 124 23 view .LVU2591
 9679 028e 3946     		mov	r1, r7
 9680 0290 3046     		mov	r0, r6
 9681 0292 8DF80730 		strb	r3, [sp, #7]
 9682              	.LVL722:
 124:../../libDaisy//src/dev/oled_ssd130x.h ****         spi_.BlockingTransmit(&cmd, 1);
 9683              		.loc 4 124 23 view .LVU2592
 9684              	.LBE2111:
ARM GAS  /var/folders/1y/_321xjh9623c014x9_qw12rr0000gn/T//ccXZVGQV.s 			page 266


 9685              	.LBI2110:
 122:../../libDaisy//src/dev/oled_ssd130x.h ****     {
 9686              		.loc 4 122 10 is_stmt 1 view .LVU2593
 9687              	.LBB2112:
 124:../../libDaisy//src/dev/oled_ssd130x.h ****         spi_.BlockingTransmit(&cmd, 1);
 9688              		.loc 4 124 9 view .LVU2594
 124:../../libDaisy//src/dev/oled_ssd130x.h ****         spi_.BlockingTransmit(&cmd, 1);
 9689              		.loc 4 124 23 is_stmt 0 view .LVU2595
 9690 0296 FFF7FEFF 		bl	dsy_gpio_write
 9691              	.LVL723:
 125:../../libDaisy//src/dev/oled_ssd130x.h ****     };
 9692              		.loc 4 125 9 is_stmt 1 view .LVU2596
 125:../../libDaisy//src/dev/oled_ssd130x.h ****     };
 9693              		.loc 4 125 30 is_stmt 0 view .LVU2597
 9694 029a 2A46     		mov	r2, r5
 9695 029c 0DF10701 		add	r1, sp, #7
 9696 02a0 6423     		movs	r3, #100
 9697 02a2 2046     		mov	r0, r4
 9698 02a4 FFF7FEFF 		bl	_ZN5daisy9SpiHandle16BlockingTransmitEPhjm
 9699              	.LVL724:
 125:../../libDaisy//src/dev/oled_ssd130x.h ****     };
 9700              		.loc 4 125 30 view .LVU2598
 9701 02a8 3423     		movs	r3, #52
 9702              	.LBE2112:
 9703              	.LBE2110:
 9704              	.LBB2113:
 9705              	.LBB2114:
 124:../../libDaisy//src/dev/oled_ssd130x.h ****         spi_.BlockingTransmit(&cmd, 1);
 9706              		.loc 4 124 23 view .LVU2599
 9707 02aa 3946     		mov	r1, r7
 9708 02ac 3046     		mov	r0, r6
 9709 02ae 8DF80730 		strb	r3, [sp, #7]
 9710              	.LVL725:
 124:../../libDaisy//src/dev/oled_ssd130x.h ****         spi_.BlockingTransmit(&cmd, 1);
 9711              		.loc 4 124 23 view .LVU2600
 9712              	.LBE2114:
 9713              	.LBI2113:
 122:../../libDaisy//src/dev/oled_ssd130x.h ****     {
 9714              		.loc 4 122 10 is_stmt 1 view .LVU2601
 9715              	.LBB2115:
 124:../../libDaisy//src/dev/oled_ssd130x.h ****         spi_.BlockingTransmit(&cmd, 1);
 9716              		.loc 4 124 9 view .LVU2602
 124:../../libDaisy//src/dev/oled_ssd130x.h ****         spi_.BlockingTransmit(&cmd, 1);
 9717              		.loc 4 124 23 is_stmt 0 view .LVU2603
 9718 02b2 FFF7FEFF 		bl	dsy_gpio_write
 9719              	.LVL726:
 125:../../libDaisy//src/dev/oled_ssd130x.h ****     };
 9720              		.loc 4 125 9 is_stmt 1 view .LVU2604
 125:../../libDaisy//src/dev/oled_ssd130x.h ****     };
 9721              		.loc 4 125 30 is_stmt 0 view .LVU2605
 9722 02b6 2A46     		mov	r2, r5
 9723 02b8 0DF10701 		add	r1, sp, #7
 9724 02bc 6423     		movs	r3, #100
 9725 02be 2046     		mov	r0, r4
 9726 02c0 FFF7FEFF 		bl	_ZN5daisy9SpiHandle16BlockingTransmitEPhjm
 9727              	.LVL727:
 125:../../libDaisy//src/dev/oled_ssd130x.h ****     };
ARM GAS  /var/folders/1y/_321xjh9623c014x9_qw12rr0000gn/T//ccXZVGQV.s 			page 267


 9728              		.loc 4 125 30 view .LVU2606
 9729 02c4 AF23     		movs	r3, #175
 9730              	.LBE2115:
 9731              	.LBE2113:
 9732              	.LBB2116:
 9733              	.LBB2117:
 124:../../libDaisy//src/dev/oled_ssd130x.h ****         spi_.BlockingTransmit(&cmd, 1);
 9734              		.loc 4 124 23 view .LVU2607
 9735 02c6 3946     		mov	r1, r7
 9736 02c8 3046     		mov	r0, r6
 9737 02ca 8DF80730 		strb	r3, [sp, #7]
 9738              	.LVL728:
 124:../../libDaisy//src/dev/oled_ssd130x.h ****         spi_.BlockingTransmit(&cmd, 1);
 9739              		.loc 4 124 23 view .LVU2608
 9740              	.LBE2117:
 9741              	.LBI2116:
 122:../../libDaisy//src/dev/oled_ssd130x.h ****     {
 9742              		.loc 4 122 10 is_stmt 1 view .LVU2609
 9743              	.LBB2118:
 124:../../libDaisy//src/dev/oled_ssd130x.h ****         spi_.BlockingTransmit(&cmd, 1);
 9744              		.loc 4 124 9 view .LVU2610
 124:../../libDaisy//src/dev/oled_ssd130x.h ****         spi_.BlockingTransmit(&cmd, 1);
 9745              		.loc 4 124 23 is_stmt 0 view .LVU2611
 9746 02ce FFF7FEFF 		bl	dsy_gpio_write
 9747              	.LVL729:
 125:../../libDaisy//src/dev/oled_ssd130x.h ****     };
 9748              		.loc 4 125 9 is_stmt 1 view .LVU2612
 125:../../libDaisy//src/dev/oled_ssd130x.h ****     };
 9749              		.loc 4 125 30 is_stmt 0 view .LVU2613
 9750 02d2 6423     		movs	r3, #100
 9751 02d4 2A46     		mov	r2, r5
 9752 02d6 0DF10701 		add	r1, sp, #7
 9753 02da 2046     		mov	r0, r4
 9754 02dc FFF7FEFF 		bl	_ZN5daisy9SpiHandle16BlockingTransmitEPhjm
 9755              	.LVL730:
 125:../../libDaisy//src/dev/oled_ssd130x.h ****     };
 9756              		.loc 4 125 30 view .LVU2614
 9757              	.LBE2118:
 9758              	.LBE2116:
 347:../../libDaisy//src/dev/oled_ssd130x.h **** 
 9759              		.loc 4 347 5 view .LVU2615
 9760 02e0 02B0     		add	sp, sp, #8
 9761              		.cfi_def_cfa_offset 40
 9762              		@ sp needed
 9763 02e2 BDE8F041 		pop	{r4, r5, r6, r7, r8, lr}
 9764              		.cfi_restore 14
 9765              		.cfi_restore 8
 9766              		.cfi_restore 7
 9767              		.cfi_restore 6
 9768              		.cfi_restore 5
 9769              		.cfi_restore 4
 9770              		.cfi_def_cfa_offset 16
 9771              	.LVL731:
 347:../../libDaisy//src/dev/oled_ssd130x.h **** 
 9772              		.loc 4 347 5 view .LVU2616
 9773 02e6 04B0     		add	sp, sp, #16
 9774              		.cfi_def_cfa_offset 0
ARM GAS  /var/folders/1y/_321xjh9623c014x9_qw12rr0000gn/T//ccXZVGQV.s 			page 268


 9775 02e8 7047     		bx	lr
 9776              		.cfi_endproc
 9777              	.LFE4189:
 9779 02ea 00BF     		.section	.text._ZN5daisy5Dubby11InitDisplayEv,"ax",%progbits
 9780              		.align	1
 9781              		.p2align 2,,3
 9782              		.global	_ZN5daisy5Dubby11InitDisplayEv
 9783              		.syntax unified
 9784              		.thumb
 9785              		.thumb_func
 9787              	_ZN5daisy5Dubby11InitDisplayEv:
 9788              	.LVL732:
 9789              	.LFB3742:
 113:Dubby.cpp     **** {
 9790              		.loc 2 113 1 is_stmt 1 view -0
 9791              		.cfi_startproc
 9792              		@ args = 0, pretend = 0, frame = 88
 9793              		@ frame_needed = 0, uses_anonymous_args = 0
 115:Dubby.cpp     ****     OledDisplay<SSD130x4WireSpi128x64Driver>::Config disp_cfg;
 9794              		.loc 2 115 5 view .LVU2618
 113:Dubby.cpp     **** {
 9795              		.loc 2 113 1 is_stmt 0 view .LVU2619
 9796 0000 F0B5     		push	{r4, r5, r6, r7, lr}
 9797              		.cfi_def_cfa_offset 20
 9798              		.cfi_offset 4, -20
 9799              		.cfi_offset 5, -16
 9800              		.cfi_offset 6, -12
 9801              		.cfi_offset 7, -8
 9802              		.cfi_offset 14, -4
 9803              	.LBB2131:
 9804              	.LBB2132:
 9805              	.LBB2133:
 9806              	.LBB2134:
  71:../../libDaisy//src/dev/oled_ssd130x.h ****             // Initialize using defaults
 9807              		.loc 4 71 9 view .LVU2620
 9808 0002 40F60632 		movw	r2, #2822
 9809              	.LBE2134:
 9810              	.LBE2133:
 9811              	.LBE2132:
 9812              	.LBE2131:
 113:Dubby.cpp     **** {
 9813              		.loc 2 113 1 view .LVU2621
 9814 0006 9FB0     		sub	sp, sp, #124
 9815              		.cfi_def_cfa_offset 144
 9816              	.LVL733:
 9817              	.LBB2149:
 9818              	.LBI2131:
  20:../../libDaisy//src/hid/disp/oled_display.h ****     {
 9819              		.loc 1 20 12 is_stmt 1 view .LVU2622
 9820              	.LBB2145:
 9821              	.LBI2132:
 248:../../libDaisy//src/dev/oled_ssd130x.h ****     {
 9822              		.loc 4 248 12 view .LVU2623
 9823              	.LBB2141:
 9824              	.LBI2133:
  70:../../libDaisy//src/dev/oled_ssd130x.h ****         {
 9825              		.loc 4 70 9 view .LVU2624
ARM GAS  /var/folders/1y/_321xjh9623c014x9_qw12rr0000gn/T//ccXZVGQV.s 			page 269


 9826              	.LBB2137:
 9827              	.LBB2135:
 9828              	.LBI2135:
 9829              		.file 18 "../../libDaisy//src/per/spi.h"
   1:../../libDaisy//src/per/spi.h **** #pragma once
   2:../../libDaisy//src/per/spi.h **** #ifndef DSY_SPI_H
   3:../../libDaisy//src/per/spi.h **** #define DSY_SPI_H
   4:../../libDaisy//src/per/spi.h **** 
   5:../../libDaisy//src/per/spi.h **** #include "daisy_core.h"
   6:../../libDaisy//src/per/spi.h **** 
   7:../../libDaisy//src/per/spi.h **** /* TODO:
   8:../../libDaisy//src/per/spi.h **** - Add documentation
   9:../../libDaisy//src/per/spi.h **** - Add IT
  10:../../libDaisy//src/per/spi.h **** */
  11:../../libDaisy//src/per/spi.h **** 
  12:../../libDaisy//src/per/spi.h **** namespace daisy
  13:../../libDaisy//src/per/spi.h **** {
  14:../../libDaisy//src/per/spi.h **** /** @addtogroup serial
  15:../../libDaisy//src/per/spi.h **** @{
  16:../../libDaisy//src/per/spi.h **** */
  17:../../libDaisy//src/per/spi.h **** 
  18:../../libDaisy//src/per/spi.h **** /**  Handler for serial peripheral interface */
  19:../../libDaisy//src/per/spi.h **** class SpiHandle
  20:../../libDaisy//src/per/spi.h **** {
  21:../../libDaisy//src/per/spi.h ****   public:
  22:../../libDaisy//src/per/spi.h ****     struct Config
  23:../../libDaisy//src/per/spi.h ****     {
  24:../../libDaisy//src/per/spi.h ****         enum class Peripheral
  25:../../libDaisy//src/per/spi.h ****         {
  26:../../libDaisy//src/per/spi.h ****             SPI_1,
  27:../../libDaisy//src/per/spi.h ****             SPI_2,
  28:../../libDaisy//src/per/spi.h ****             SPI_3,
  29:../../libDaisy//src/per/spi.h ****             SPI_4,
  30:../../libDaisy//src/per/spi.h ****             SPI_5,
  31:../../libDaisy//src/per/spi.h ****             SPI_6,
  32:../../libDaisy//src/per/spi.h ****         };
  33:../../libDaisy//src/per/spi.h **** 
  34:../../libDaisy//src/per/spi.h ****         enum class Mode
  35:../../libDaisy//src/per/spi.h ****         {
  36:../../libDaisy//src/per/spi.h ****             MASTER,
  37:../../libDaisy//src/per/spi.h ****             SLAVE,
  38:../../libDaisy//src/per/spi.h ****         };
  39:../../libDaisy//src/per/spi.h **** 
  40:../../libDaisy//src/per/spi.h ****         enum class Direction
  41:../../libDaisy//src/per/spi.h ****         {
  42:../../libDaisy//src/per/spi.h ****             TWO_LINES,
  43:../../libDaisy//src/per/spi.h ****             TWO_LINES_TX_ONLY,
  44:../../libDaisy//src/per/spi.h ****             TWO_LINES_RX_ONLY,
  45:../../libDaisy//src/per/spi.h ****             ONE_LINE,
  46:../../libDaisy//src/per/spi.h ****         };
  47:../../libDaisy//src/per/spi.h **** 
  48:../../libDaisy//src/per/spi.h ****         enum class ClockPolarity
  49:../../libDaisy//src/per/spi.h ****         {
  50:../../libDaisy//src/per/spi.h ****             LOW,
  51:../../libDaisy//src/per/spi.h ****             HIGH,
  52:../../libDaisy//src/per/spi.h ****         };
  53:../../libDaisy//src/per/spi.h **** 
ARM GAS  /var/folders/1y/_321xjh9623c014x9_qw12rr0000gn/T//ccXZVGQV.s 			page 270


  54:../../libDaisy//src/per/spi.h ****         enum class ClockPhase
  55:../../libDaisy//src/per/spi.h ****         {
  56:../../libDaisy//src/per/spi.h ****             ONE_EDGE,
  57:../../libDaisy//src/per/spi.h ****             TWO_EDGE,
  58:../../libDaisy//src/per/spi.h ****         };
  59:../../libDaisy//src/per/spi.h **** 
  60:../../libDaisy//src/per/spi.h ****         enum class NSS
  61:../../libDaisy//src/per/spi.h ****         {
  62:../../libDaisy//src/per/spi.h ****             SOFT,
  63:../../libDaisy//src/per/spi.h ****             HARD_INPUT,
  64:../../libDaisy//src/per/spi.h ****             HARD_OUTPUT,
  65:../../libDaisy//src/per/spi.h ****         };
  66:../../libDaisy//src/per/spi.h **** 
  67:../../libDaisy//src/per/spi.h ****         enum class BaudPrescaler
  68:../../libDaisy//src/per/spi.h ****         {
  69:../../libDaisy//src/per/spi.h ****             PS_2,
  70:../../libDaisy//src/per/spi.h ****             PS_4,
  71:../../libDaisy//src/per/spi.h ****             PS_8,
  72:../../libDaisy//src/per/spi.h ****             PS_16,
  73:../../libDaisy//src/per/spi.h ****             PS_32,
  74:../../libDaisy//src/per/spi.h ****             PS_64,
  75:../../libDaisy//src/per/spi.h ****             PS_128,
  76:../../libDaisy//src/per/spi.h ****             PS_256,
  77:../../libDaisy//src/per/spi.h ****         };
  78:../../libDaisy//src/per/spi.h **** 
  79:../../libDaisy//src/per/spi.h ****         struct
  80:../../libDaisy//src/per/spi.h ****         {
  81:../../libDaisy//src/per/spi.h ****             dsy_gpio_pin sclk; /**< & */
  82:../../libDaisy//src/per/spi.h ****             dsy_gpio_pin miso; /**< & */
  83:../../libDaisy//src/per/spi.h ****             dsy_gpio_pin mosi; /**< & */
  84:../../libDaisy//src/per/spi.h ****             dsy_gpio_pin nss;  /**< & */
  85:../../libDaisy//src/per/spi.h ****         } pin_config;
  86:../../libDaisy//src/per/spi.h **** 
  87:../../libDaisy//src/per/spi.h ****         Config()
 9830              		.loc 18 87 9 view .LVU2625
 9831              	.LBE2135:
 9832              	.LBE2137:
 9833              	.LBE2141:
 9834              	.LBE2145:
 9835              	.LBE2149:
  88:../../libDaisy//src/per/spi.h ****         {
  89:../../libDaisy//src/per/spi.h ****             // user must specify periph, mode, direction, nss, and pin_config
  90:../../libDaisy//src/per/spi.h ****             datasize       = 8;
 9836              		.loc 18 90 13 view .LVU2626
  91:../../libDaisy//src/per/spi.h ****             clock_polarity = ClockPolarity::LOW;
 9837              		.loc 18 91 13 view .LVU2627
  92:../../libDaisy//src/per/spi.h ****             clock_phase    = ClockPhase::ONE_EDGE;
 9838              		.loc 18 92 13 view .LVU2628
  93:../../libDaisy//src/per/spi.h ****             baud_prescaler = BaudPrescaler::PS_8;
 9839              		.loc 18 93 13 view .LVU2629
  73:../../libDaisy//src/dev/oled_ssd130x.h ****         }
 9840              		.loc 4 73 13 view .LVU2630
 9841              	.LBB2150:
 9842              	.LBB2146:
 9843              	.LBB2142:
 9844              	.LBB2138:
 9845              	.LBB2136:
ARM GAS  /var/folders/1y/_321xjh9623c014x9_qw12rr0000gn/T//ccXZVGQV.s 			page 271


 9846              	.LBI2136:
  81:../../libDaisy//src/dev/oled_ssd130x.h ****         {
 9847              		.loc 4 81 14 view .LVU2631
 9848              	.LBE2136:
 9849              	.LBE2138:
 9850              	.LBE2142:
 9851              	.LBE2146:
 9852              	.LBE2150:
  84:../../libDaisy//src/dev/oled_ssd130x.h ****             spi_config.mode   = SpiHandle::Config::Mode::MASTER;
 9853              		.loc 4 84 13 view .LVU2632
  85:../../libDaisy//src/dev/oled_ssd130x.h ****             spi_config.direction
 9854              		.loc 4 85 13 view .LVU2633
  86:../../libDaisy//src/dev/oled_ssd130x.h ****                 = SpiHandle::Config::Direction::TWO_LINES_TX_ONLY;
 9855              		.loc 4 86 13 view .LVU2634
  88:../../libDaisy//src/dev/oled_ssd130x.h ****             spi_config.clock_polarity = SpiHandle::Config::ClockPolarity::LOW;
 9856              		.loc 4 88 13 view .LVU2635
  89:../../libDaisy//src/dev/oled_ssd130x.h ****             spi_config.clock_phase    = SpiHandle::Config::ClockPhase::ONE_EDGE;
 9857              		.loc 4 89 13 view .LVU2636
  90:../../libDaisy//src/dev/oled_ssd130x.h ****             spi_config.nss            = SpiHandle::Config::NSS::HARD_OUTPUT;
 9858              		.loc 4 90 13 view .LVU2637
  91:../../libDaisy//src/dev/oled_ssd130x.h ****             spi_config.baud_prescaler = SpiHandle::Config::BaudPrescaler::PS_8;
 9859              		.loc 4 91 13 view .LVU2638
  92:../../libDaisy//src/dev/oled_ssd130x.h ****             // SPI pin config
 9860              		.loc 4 92 13 view .LVU2639
  94:../../libDaisy//src/dev/oled_ssd130x.h ****             spi_config.pin_config.miso = {DSY_GPIOX, 0};
 9861              		.loc 4 94 13 view .LVU2640
  95:../../libDaisy//src/dev/oled_ssd130x.h ****             spi_config.pin_config.mosi = {DSY_GPIOB, 5};
 9862              		.loc 4 95 13 view .LVU2641
  96:../../libDaisy//src/dev/oled_ssd130x.h ****             spi_config.pin_config.nss  = {DSY_GPIOG, 10};
 9863              		.loc 4 96 13 view .LVU2642
  97:../../libDaisy//src/dev/oled_ssd130x.h ****             // SSD130x control pin config
 9864              		.loc 4 97 13 view .LVU2643
 9865              	.LBB2151:
 9866              	.LBB2147:
 9867              	.LBB2143:
 9868              	.LBB2139:
  71:../../libDaisy//src/dev/oled_ssd130x.h ****             // Initialize using defaults
 9869              		.loc 4 71 9 is_stmt 0 view .LVU2644
 9870 0008 1F4B     		ldr	r3, .L588
 9871              	.LBE2139:
 9872              	.LBE2143:
 9873              	.LBE2147:
 9874              	.LBE2151:
 113:Dubby.cpp     **** {
 9875              		.loc 2 113 1 view .LVU2645
 9876 000a 0646     		mov	r6, r0
 116:Dubby.cpp     ****     disp_cfg.driver_config.transport_config.pin_config.dc    = seed.GetPin(9);
 9877              		.loc 2 116 77 view .LVU2646
 9878 000c 0920     		movs	r0, #9
 9879              	.LVL734:
 9880              	.LBB2152:
 9881              	.LBB2153:
  25:../../libDaisy//src/hid/disp/oled_display.h **** 
 9882              		.loc 1 25 44 view .LVU2647
 9883 000e 16AD     		add	r5, sp, #88
 9884 0010 6C46     		mov	r4, sp
 9885              	.LBE2153:
ARM GAS  /var/folders/1y/_321xjh9623c014x9_qw12rr0000gn/T//ccXZVGQV.s 			page 272


 9886              	.LBE2152:
 9887              	.LBB2156:
 9888              	.LBB2148:
 9889              	.LBB2144:
 9890              	.LBB2140:
  71:../../libDaisy//src/dev/oled_ssd130x.h ****             // Initialize using defaults
 9891              		.loc 4 71 9 view .LVU2648
 9892 0012 CDE90823 		strd	r2, r3, [sp, #32]
 9893              	.LBE2140:
 9894              	.LBE2144:
 9895              	.LBE2148:
 9896              	.LBE2156:
  99:../../libDaisy//src/dev/oled_ssd130x.h ****             pin_config.reset = {DSY_GPIOB, 15};
 9897              		.loc 4 99 13 is_stmt 1 view .LVU2649
 100:../../libDaisy//src/dev/oled_ssd130x.h ****         }
 9898              		.loc 4 100 13 view .LVU2650
 9899              	.LVL735:
 116:Dubby.cpp     ****     disp_cfg.driver_config.transport_config.pin_config.dc    = seed.GetPin(9);
 9900              		.loc 2 116 5 view .LVU2651
 116:Dubby.cpp     ****     disp_cfg.driver_config.transport_config.pin_config.dc    = seed.GetPin(9);
 9901              		.loc 2 116 77 is_stmt 0 view .LVU2652
 9902 0016 FFF7FEFF 		bl	_ZN5daisy9DaisySeed6GetPinEh
 9903              	.LVL736:
 9904 001a 0346     		mov	r3, r0	@ movhi
 117:Dubby.cpp     ****     disp_cfg.driver_config.transport_config.pin_config.reset = seed.GetPin(31);
 9905              		.loc 2 117 78 view .LVU2653
 9906 001c 1F20     		movs	r0, #31
 116:Dubby.cpp     ****     disp_cfg.driver_config.transport_config.pin_config.dc    = seed.GetPin(9);
 9907              		.loc 2 116 77 view .LVU2654
 9908 001e ADF84830 		strh	r3, [sp, #72]	@ movhi
 117:Dubby.cpp     ****     disp_cfg.driver_config.transport_config.pin_config.reset = seed.GetPin(31);
 9909              		.loc 2 117 5 is_stmt 1 view .LVU2655
 117:Dubby.cpp     ****     disp_cfg.driver_config.transport_config.pin_config.reset = seed.GetPin(31);
 9910              		.loc 2 117 78 is_stmt 0 view .LVU2656
 9911 0022 FFF7FEFF 		bl	_ZN5daisy9DaisySeed6GetPinEh
 9912              	.LVL737:
 9913 0026 0222     		movs	r2, #2
 9914 0028 0B21     		movs	r1, #11
 9915 002a 0023     		movs	r3, #0
 9916 002c 0DF1200E 		add	lr, sp, #32
 9917 0030 ADF82210 		strh	r1, [sp, #34]	@ movhi
 9918 0034 0121     		movs	r1, #1
 9919 0036 ADF84A00 		strh	r0, [sp, #74]	@ movhi
 119:Dubby.cpp     ****     display.Init(disp_cfg);
 9920              		.loc 2 119 5 is_stmt 1 view .LVU2657
 9921              	.LVL738:
 119:Dubby.cpp     ****     display.Init(disp_cfg);
 9922              		.loc 2 119 5 is_stmt 0 view .LVU2658
 9923 003a 0DF14C0C 		add	ip, sp, #76
 9924 003e 0A93     		str	r3, [sp, #40]
 9925              	.LBB2157:
 9926              	.LBB2154:
  25:../../libDaisy//src/hid/disp/oled_display.h **** 
 9927              		.loc 1 25 44 view .LVU2659
 9928 0040 6746     		mov	r7, ip
 9929 0042 CDE91022 		strd	r2, r2, [sp, #64]
 9930 0046 0822     		movs	r2, #8
ARM GAS  /var/folders/1y/_321xjh9623c014x9_qw12rr0000gn/T//ccXZVGQV.s 			page 273


 9931 0048 CDE90E33 		strd	r3, r3, [sp, #56]
 9932 004c CDE90B31 		strd	r3, r1, [sp, #44]
 9933 0050 0D92     		str	r2, [sp, #52]
 9934 0052 BEE80F00 		ldmia	lr!, {r0, r1, r2, r3}
 9935 0056 ACE80F00 		stmia	ip!, {r0, r1, r2, r3}
 9936 005a BEE80F00 		ldmia	lr!, {r0, r1, r2, r3}
 9937 005e ACE80F00 		stmia	ip!, {r0, r1, r2, r3}
 9938 0062 9EE80700 		ldm	lr, {r0, r1, r2}
 9939 0066 8CE80700 		stm	ip, {r0, r1, r2}
 9940              	.LBE2154:
 9941              	.LBI2152:
  25:../../libDaisy//src/hid/disp/oled_display.h **** 
 9942              		.loc 1 25 10 is_stmt 1 view .LVU2660
 9943              	.LBB2155:
  25:../../libDaisy//src/hid/disp/oled_display.h **** 
 9944              		.loc 1 25 44 is_stmt 0 view .LVU2661
 9945 006a 0FCD     		ldmia	r5!, {r0, r1, r2, r3}
 9946 006c 0FC4     		stmia	r4!, {r0, r1, r2, r3}
 9947 006e 95E80F00 		ldm	r5, {r0, r1, r2, r3}
 9948 0072 84E80F00 		stm	r4, {r0, r1, r2, r3}
 9949 0076 06F2B440 		addw	r0, r6, #1204
 9950 007a 97E80E00 		ldm	r7, {r1, r2, r3}
 9951 007e FFF7FEFF 		bl	_ZN5daisy13SSD130xDriverILj128ELj64ENS_24SSD130x4WireSpiTransportEE4InitENS2_6ConfigE
 9952              	.LVL739:
  25:../../libDaisy//src/hid/disp/oled_display.h **** 
 9953              		.loc 1 25 44 view .LVU2662
 9954              	.LBE2155:
 9955              	.LBE2157:
 120:Dubby.cpp     **** }
 9956              		.loc 2 120 1 view .LVU2663
 9957 0082 1FB0     		add	sp, sp, #124
 9958              		.cfi_def_cfa_offset 20
 9959              		@ sp needed
 9960 0084 F0BD     		pop	{r4, r5, r6, r7, pc}
 9961              	.LVL740:
 9962              	.L589:
 120:Dubby.cpp     **** }
 9963              		.loc 2 120 1 view .LVU2664
 9964 0086 00BF     		.align	2
 9965              	.L588:
 9966 0088 0105060A 		.word	168166657
 9967              		.cfi_endproc
 9968              	.LFE3742:
 9970              		.section	.text._ZN5daisy5Dubby4InitEv,"ax",%progbits
 9971              		.align	1
 9972              		.p2align 2,,3
 9973              		.global	_ZN5daisy5Dubby4InitEv
 9974              		.syntax unified
 9975              		.thumb
 9976              		.thumb_func
 9978              	_ZN5daisy5Dubby4InitEv:
 9979              	.LVL741:
 9980              	.LFB3732:
  40:Dubby.cpp     **** {
 9981              		.loc 2 40 1 is_stmt 1 view -0
 9982              		.cfi_startproc
 9983              		@ args = 0, pretend = 0, frame = 16
ARM GAS  /var/folders/1y/_321xjh9623c014x9_qw12rr0000gn/T//ccXZVGQV.s 			page 274


 9984              		@ frame_needed = 0, uses_anonymous_args = 0
  41:Dubby.cpp     ****     InitControls();
 9985              		.loc 2 41 5 view .LVU2666
  40:Dubby.cpp     **** {
 9986              		.loc 2 40 1 is_stmt 0 view .LVU2667
 9987 0000 30B5     		push	{r4, r5, lr}
 9988              		.cfi_def_cfa_offset 12
 9989              		.cfi_offset 4, -12
 9990              		.cfi_offset 5, -8
 9991              		.cfi_offset 14, -4
 9992 0002 0546     		mov	r5, r0
 9993 0004 85B0     		sub	sp, sp, #20
 9994              		.cfi_def_cfa_offset 32
  41:Dubby.cpp     ****     InitControls();
 9995              		.loc 2 41 17 view .LVU2668
 9996 0006 FFF7FEFF 		bl	_ZN5daisy5Dubby12InitControlsEv
 9997              	.LVL742:
  42:Dubby.cpp     ****     InitButtons();
 9998              		.loc 2 42 5 is_stmt 1 view .LVU2669
  42:Dubby.cpp     ****     InitButtons();
 9999              		.loc 2 42 16 is_stmt 0 view .LVU2670
 10000 000a 2846     		mov	r0, r5
  44:Dubby.cpp     ****     screen_update_period_ = 17; // roughly 60Hz
 10001              		.loc 2 44 27 view .LVU2671
 10002 000c 05F59034 		add	r4, r5, #73728
  42:Dubby.cpp     ****     InitButtons();
 10003              		.loc 2 42 16 view .LVU2672
 10004 0010 FFF7FEFF 		bl	_ZN5daisy5Dubby11InitButtonsEv
 10005              	.LVL743:
  44:Dubby.cpp     ****     screen_update_period_ = 17; // roughly 60Hz
 10006              		.loc 2 44 5 is_stmt 1 view .LVU2673
  44:Dubby.cpp     ****     screen_update_period_ = 17; // roughly 60Hz
 10007              		.loc 2 44 27 is_stmt 0 view .LVU2674
 10008 0014 1123     		movs	r3, #17
 10009 0016 C4F8743B 		str	r3, [r4, #2932]
  45:Dubby.cpp     ****     screen_update_last_   = seed.system.GetNow();
 10010              		.loc 2 45 5 is_stmt 1 view .LVU2675
  45:Dubby.cpp     ****     screen_update_last_   = seed.system.GetNow();
 10011              		.loc 2 45 47 is_stmt 0 view .LVU2676
 10012 001a FFF7FEFF 		bl	_ZN5daisy6System6GetNowEv
 10013              	.LVL744:
 10014 001e 2B46     		mov	r3, r5
  45:Dubby.cpp     ****     screen_update_last_   = seed.system.GetNow();
 10015              		.loc 2 45 27 view .LVU2677
 10016 0020 0122     		movs	r2, #1
 10017 0022 C4F8700B 		str	r0, [r4, #2928]
  47:Dubby.cpp     ****     for (int i = 0; i < 5; i++) 
 10018              		.loc 2 47 5 is_stmt 1 view .LVU2678
 10019              	.LVL745:
 10020              	.LBB2161:
  47:Dubby.cpp     ****     for (int i = 0; i < 5; i++) 
 10021              		.loc 2 47 23 view .LVU2679
 10022              	.L591:
  49:Dubby.cpp     ****         submenuBoxBounding[i][0] = SUBMENU_X_START;
 10023              		.loc 2 49 9 discriminator 2 view .LVU2680
  50:Dubby.cpp     ****         submenuBoxBounding[i][1] = SUBMENU_Y_START + i * 10;
 10024              		.loc 2 50 34 is_stmt 0 discriminator 2 view .LVU2681
ARM GAS  /var/folders/1y/_321xjh9623c014x9_qw12rr0000gn/T//ccXZVGQV.s 			page 275


 10025 0026 C3F8AC20 		str	r2, [r3, #172]
  49:Dubby.cpp     ****         submenuBoxBounding[i][0] = SUBMENU_X_START;
 10026              		.loc 2 49 34 discriminator 2 view .LVU2682
 10027 002a 0124     		movs	r4, #1
 10028 002c 0A32     		adds	r2, r2, #10
  51:Dubby.cpp     ****         submenuBoxBounding[i][2] = SUBMENU_X_END;
 10029              		.loc 2 51 34 discriminator 2 view .LVU2683
 10030 002e 3F21     		movs	r1, #63
  49:Dubby.cpp     ****         submenuBoxBounding[i][0] = SUBMENU_X_START;
 10031              		.loc 2 49 34 discriminator 2 view .LVU2684
 10032 0030 C3F8A840 		str	r4, [r3, #168]
  50:Dubby.cpp     ****         submenuBoxBounding[i][1] = SUBMENU_Y_START + i * 10;
 10033              		.loc 2 50 9 is_stmt 1 discriminator 2 view .LVU2685
  51:Dubby.cpp     ****         submenuBoxBounding[i][2] = SUBMENU_X_END;
 10034              		.loc 2 51 9 discriminator 2 view .LVU2686
  47:Dubby.cpp     ****     for (int i = 0; i < 5; i++) 
 10035              		.loc 2 47 23 is_stmt 0 discriminator 2 view .LVU2687
 10036 0034 1033     		adds	r3, r3, #16
 10037 0036 332A     		cmp	r2, #51
  52:Dubby.cpp     ****         submenuBoxBounding[i][3] = SUBMENU_Y_END + i * 10;
 10038              		.loc 2 52 34 discriminator 2 view .LVU2688
 10039 0038 C3E92812 		strd	r1, r2, [r3, #160]
  47:Dubby.cpp     ****     for (int i = 0; i < 5; i++) 
 10040              		.loc 2 47 5 is_stmt 1 discriminator 2 view .LVU2689
  47:Dubby.cpp     ****     for (int i = 0; i < 5; i++) 
 10041              		.loc 2 47 23 discriminator 2 view .LVU2690
 10042 003c F3D1     		bne	.L591
 10043              	.LBE2161:
  55:Dubby.cpp     ****     InitDisplay();
 10044              		.loc 2 55 5 view .LVU2691
  55:Dubby.cpp     ****     InitDisplay();
 10045              		.loc 2 55 16 is_stmt 0 view .LVU2692
 10046 003e 2846     		mov	r0, r5
 10047 0040 FFF7FEFF 		bl	_ZN5daisy5Dubby11InitDisplayEv
 10048              	.LVL746:
  56:Dubby.cpp     ****     InitEncoder();
 10049              		.loc 2 56 5 is_stmt 1 view .LVU2693
 10050              	.LBB2162:
 10051              	.LBI2162:
 359:Dubby.cpp     **** void Dubby::InitEncoder()
 10052              		.loc 2 359 6 view .LVU2694
 10053              	.LBB2163:
 361:Dubby.cpp     ****     encoder.Init(seed.GetPin(PIN_ENC_A),
 10054              		.loc 2 361 5 view .LVU2695
 361:Dubby.cpp     ****     encoder.Init(seed.GetPin(PIN_ENC_A),
 10055              		.loc 2 361 17 is_stmt 0 view .LVU2696
 10056 0044 0620     		movs	r0, #6
 10057 0046 FFF7FEFF 		bl	_ZN5daisy9DaisySeed6GetPinEh
 10058              	.LVL747:
 10059 004a 0346     		mov	r3, r0	@ movhi
 10060 004c 0520     		movs	r0, #5
 10061 004e ADF80430 		strh	r3, [sp, #4]	@ movhi
 10062 0052 FFF7FEFF 		bl	_ZN5daisy9DaisySeed6GetPinEh
 10063              	.LVL748:
 10064 0056 0346     		mov	r3, r0	@ movhi
 10065 0058 0420     		movs	r0, #4
 10066 005a ADF80830 		strh	r3, [sp, #8]	@ movhi
ARM GAS  /var/folders/1y/_321xjh9623c014x9_qw12rr0000gn/T//ccXZVGQV.s 			page 276


 10067 005e FFF7FEFF 		bl	_ZN5daisy9DaisySeed6GetPinEh
 10068              	.LVL749:
 10069 0062 ADF80C00 		strh	r0, [sp, #12]	@ movhi
 10070 0066 05F1F800 		add	r0, r5, #248
 10071 006a 9FED080A 		vldr.32	s0, .L594
 10072 006e 039B     		ldr	r3, [sp, #12]
 10073 0070 DDE90112 		ldrd	r1, r2, [sp, #4]
 10074 0074 FFF7FEFF 		bl	_ZN5daisy12DubbyEncoder4InitE12dsy_gpio_pinS1_S1_f
 10075              	.LVL750:
 361:Dubby.cpp     ****     encoder.Init(seed.GetPin(PIN_ENC_A),
 10076              		.loc 2 361 17 view .LVU2697
 10077              	.LBE2163:
 10078              	.LBE2162:
  57:Dubby.cpp     ****     InitAudio();
 10079              		.loc 2 57 5 is_stmt 1 view .LVU2698
  57:Dubby.cpp     ****     InitAudio();
 10080              		.loc 2 57 14 is_stmt 0 view .LVU2699
 10081 0078 2846     		mov	r0, r5
 10082 007a FFF7FEFF 		bl	_ZN5daisy5Dubby9InitAudioEv
 10083              	.LVL751:
  58:Dubby.cpp     ****     InitMidi();
 10084              		.loc 2 58 5 is_stmt 1 view .LVU2700
  58:Dubby.cpp     ****     InitMidi();
 10085              		.loc 2 58 13 is_stmt 0 view .LVU2701
 10086 007e 2846     		mov	r0, r5
  59:Dubby.cpp     **** }
 10087              		.loc 2 59 1 view .LVU2702
 10088 0080 05B0     		add	sp, sp, #20
 10089              		.cfi_def_cfa_offset 12
 10090              		@ sp needed
 10091 0082 BDE83040 		pop	{r4, r5, lr}
 10092              		.cfi_restore 14
 10093              		.cfi_restore 5
 10094              		.cfi_restore 4
 10095              		.cfi_def_cfa_offset 0
 10096              	.LVL752:
  58:Dubby.cpp     ****     InitMidi();
 10097              		.loc 2 58 13 view .LVU2703
 10098 0086 FFF7FEBF 		b	_ZN5daisy5Dubby8InitMidiEv
 10099              	.LVL753:
 10100              	.L595:
  58:Dubby.cpp     ****     InitMidi();
 10101              		.loc 2 58 13 view .LVU2704
 10102 008a 00BF     		.align	2
 10103              	.L594:
 10104 008c 00000000 		.word	0
 10105              		.cfi_endproc
 10106              	.LFE3732:
 10108              		.section	.text.startup._GLOBAL__sub_I__ZN5daisy5Dubby4InitEv,"ax",%progbits
 10109              		.align	1
 10110              		.p2align 2,,3
 10111              		.syntax unified
 10112              		.thumb
 10113              		.thumb_func
 10115              	_GLOBAL__sub_I__ZN5daisy5Dubby4InitEv:
 10116              	.LFB4347:
 10117              		.loc 2 477 1 is_stmt 1 view -0
ARM GAS  /var/folders/1y/_321xjh9623c014x9_qw12rr0000gn/T//ccXZVGQV.s 			page 277


 10118              		.cfi_startproc
 10119              		@ args = 0, pretend = 0, frame = 0
 10120              		@ frame_needed = 0, uses_anonymous_args = 0
 10121              	.LBB2166:
 10122              	.LBI2166:
 10123              		.loc 2 477 1 view .LVU2706
 10124              	.LVL754:
 10125              		.loc 2 477 1 is_stmt 0 view .LVU2707
 10126              	.LBE2166:
 10127 0000 10B5     		push	{r4, lr}
 10128              		.cfi_def_cfa_offset 8
 10129              		.cfi_offset 4, -8
 10130              		.cfi_offset 14, -4
 10131              	.LBB2169:
 10132              	.LBB2167:
 10133              		.file 19 "/Library/DaisyToolchain/0.2.0/arm/arm-none-eabi/include/c++/10.3.1/iostream"
   1:/Library/DaisyToolchain/0.2.0/arm/arm-none-eabi/include/c++/10.3.1/iostream **** // Standard iostream objects -*- C++ -*-
   2:/Library/DaisyToolchain/0.2.0/arm/arm-none-eabi/include/c++/10.3.1/iostream **** 
   3:/Library/DaisyToolchain/0.2.0/arm/arm-none-eabi/include/c++/10.3.1/iostream **** // Copyright (C) 1997-2020 Free Software Foundation, Inc.
   4:/Library/DaisyToolchain/0.2.0/arm/arm-none-eabi/include/c++/10.3.1/iostream **** //
   5:/Library/DaisyToolchain/0.2.0/arm/arm-none-eabi/include/c++/10.3.1/iostream **** // This file is part of the GNU ISO C++ Library.  This library is free
   6:/Library/DaisyToolchain/0.2.0/arm/arm-none-eabi/include/c++/10.3.1/iostream **** // software; you can redistribute it and/or modify it under the
   7:/Library/DaisyToolchain/0.2.0/arm/arm-none-eabi/include/c++/10.3.1/iostream **** // terms of the GNU General Public License as published by the
   8:/Library/DaisyToolchain/0.2.0/arm/arm-none-eabi/include/c++/10.3.1/iostream **** // Free Software Foundation; either version 3, or (at your option)
   9:/Library/DaisyToolchain/0.2.0/arm/arm-none-eabi/include/c++/10.3.1/iostream **** // any later version.
  10:/Library/DaisyToolchain/0.2.0/arm/arm-none-eabi/include/c++/10.3.1/iostream **** 
  11:/Library/DaisyToolchain/0.2.0/arm/arm-none-eabi/include/c++/10.3.1/iostream **** // This library is distributed in the hope that it will be useful,
  12:/Library/DaisyToolchain/0.2.0/arm/arm-none-eabi/include/c++/10.3.1/iostream **** // but WITHOUT ANY WARRANTY; without even the implied warranty of
  13:/Library/DaisyToolchain/0.2.0/arm/arm-none-eabi/include/c++/10.3.1/iostream **** // MERCHANTABILITY or FITNESS FOR A PARTICULAR PURPOSE.  See the
  14:/Library/DaisyToolchain/0.2.0/arm/arm-none-eabi/include/c++/10.3.1/iostream **** // GNU General Public License for more details.
  15:/Library/DaisyToolchain/0.2.0/arm/arm-none-eabi/include/c++/10.3.1/iostream **** 
  16:/Library/DaisyToolchain/0.2.0/arm/arm-none-eabi/include/c++/10.3.1/iostream **** // Under Section 7 of GPL version 3, you are granted additional
  17:/Library/DaisyToolchain/0.2.0/arm/arm-none-eabi/include/c++/10.3.1/iostream **** // permissions described in the GCC Runtime Library Exception, version
  18:/Library/DaisyToolchain/0.2.0/arm/arm-none-eabi/include/c++/10.3.1/iostream **** // 3.1, as published by the Free Software Foundation.
  19:/Library/DaisyToolchain/0.2.0/arm/arm-none-eabi/include/c++/10.3.1/iostream **** 
  20:/Library/DaisyToolchain/0.2.0/arm/arm-none-eabi/include/c++/10.3.1/iostream **** // You should have received a copy of the GNU General Public License and
  21:/Library/DaisyToolchain/0.2.0/arm/arm-none-eabi/include/c++/10.3.1/iostream **** // a copy of the GCC Runtime Library Exception along with this program;
  22:/Library/DaisyToolchain/0.2.0/arm/arm-none-eabi/include/c++/10.3.1/iostream **** // see the files COPYING3 and COPYING.RUNTIME respectively.  If not, see
  23:/Library/DaisyToolchain/0.2.0/arm/arm-none-eabi/include/c++/10.3.1/iostream **** // <http://www.gnu.org/licenses/>.
  24:/Library/DaisyToolchain/0.2.0/arm/arm-none-eabi/include/c++/10.3.1/iostream **** 
  25:/Library/DaisyToolchain/0.2.0/arm/arm-none-eabi/include/c++/10.3.1/iostream **** /** @file include/iostream
  26:/Library/DaisyToolchain/0.2.0/arm/arm-none-eabi/include/c++/10.3.1/iostream ****  *  This is a Standard C++ Library header.
  27:/Library/DaisyToolchain/0.2.0/arm/arm-none-eabi/include/c++/10.3.1/iostream ****  */
  28:/Library/DaisyToolchain/0.2.0/arm/arm-none-eabi/include/c++/10.3.1/iostream **** 
  29:/Library/DaisyToolchain/0.2.0/arm/arm-none-eabi/include/c++/10.3.1/iostream **** //
  30:/Library/DaisyToolchain/0.2.0/arm/arm-none-eabi/include/c++/10.3.1/iostream **** // ISO C++ 14882: 27.3  Standard iostream objects
  31:/Library/DaisyToolchain/0.2.0/arm/arm-none-eabi/include/c++/10.3.1/iostream **** //
  32:/Library/DaisyToolchain/0.2.0/arm/arm-none-eabi/include/c++/10.3.1/iostream **** 
  33:/Library/DaisyToolchain/0.2.0/arm/arm-none-eabi/include/c++/10.3.1/iostream **** #ifndef _GLIBCXX_IOSTREAM
  34:/Library/DaisyToolchain/0.2.0/arm/arm-none-eabi/include/c++/10.3.1/iostream **** #define _GLIBCXX_IOSTREAM 1
  35:/Library/DaisyToolchain/0.2.0/arm/arm-none-eabi/include/c++/10.3.1/iostream **** 
  36:/Library/DaisyToolchain/0.2.0/arm/arm-none-eabi/include/c++/10.3.1/iostream **** #pragma GCC system_header
  37:/Library/DaisyToolchain/0.2.0/arm/arm-none-eabi/include/c++/10.3.1/iostream **** 
  38:/Library/DaisyToolchain/0.2.0/arm/arm-none-eabi/include/c++/10.3.1/iostream **** #include <bits/c++config.h>
  39:/Library/DaisyToolchain/0.2.0/arm/arm-none-eabi/include/c++/10.3.1/iostream **** #include <ostream>
  40:/Library/DaisyToolchain/0.2.0/arm/arm-none-eabi/include/c++/10.3.1/iostream **** #include <istream>
  41:/Library/DaisyToolchain/0.2.0/arm/arm-none-eabi/include/c++/10.3.1/iostream **** 
ARM GAS  /var/folders/1y/_321xjh9623c014x9_qw12rr0000gn/T//ccXZVGQV.s 			page 278


  42:/Library/DaisyToolchain/0.2.0/arm/arm-none-eabi/include/c++/10.3.1/iostream **** namespace std _GLIBCXX_VISIBILITY(default)
  43:/Library/DaisyToolchain/0.2.0/arm/arm-none-eabi/include/c++/10.3.1/iostream **** {
  44:/Library/DaisyToolchain/0.2.0/arm/arm-none-eabi/include/c++/10.3.1/iostream **** _GLIBCXX_BEGIN_NAMESPACE_VERSION
  45:/Library/DaisyToolchain/0.2.0/arm/arm-none-eabi/include/c++/10.3.1/iostream **** 
  46:/Library/DaisyToolchain/0.2.0/arm/arm-none-eabi/include/c++/10.3.1/iostream ****   /**
  47:/Library/DaisyToolchain/0.2.0/arm/arm-none-eabi/include/c++/10.3.1/iostream ****    *  @name Standard Stream Objects
  48:/Library/DaisyToolchain/0.2.0/arm/arm-none-eabi/include/c++/10.3.1/iostream ****    *
  49:/Library/DaisyToolchain/0.2.0/arm/arm-none-eabi/include/c++/10.3.1/iostream ****    *  The &lt;iostream&gt; header declares the eight <em>standard stream
  50:/Library/DaisyToolchain/0.2.0/arm/arm-none-eabi/include/c++/10.3.1/iostream ****    *  objects</em>.  For other declarations, see
  51:/Library/DaisyToolchain/0.2.0/arm/arm-none-eabi/include/c++/10.3.1/iostream ****    *  http://gcc.gnu.org/onlinedocs/libstdc++/manual/io.html
  52:/Library/DaisyToolchain/0.2.0/arm/arm-none-eabi/include/c++/10.3.1/iostream ****    *  and the @link iosfwd I/O forward declarations @endlink
  53:/Library/DaisyToolchain/0.2.0/arm/arm-none-eabi/include/c++/10.3.1/iostream ****    *
  54:/Library/DaisyToolchain/0.2.0/arm/arm-none-eabi/include/c++/10.3.1/iostream ****    *  They are required by default to cooperate with the global C
  55:/Library/DaisyToolchain/0.2.0/arm/arm-none-eabi/include/c++/10.3.1/iostream ****    *  library's @c FILE streams, and to be available during program
  56:/Library/DaisyToolchain/0.2.0/arm/arm-none-eabi/include/c++/10.3.1/iostream ****    *  startup and termination. For more information, see the section of the
  57:/Library/DaisyToolchain/0.2.0/arm/arm-none-eabi/include/c++/10.3.1/iostream ****    *  manual linked to above.
  58:/Library/DaisyToolchain/0.2.0/arm/arm-none-eabi/include/c++/10.3.1/iostream ****   */
  59:/Library/DaisyToolchain/0.2.0/arm/arm-none-eabi/include/c++/10.3.1/iostream ****   ///@{
  60:/Library/DaisyToolchain/0.2.0/arm/arm-none-eabi/include/c++/10.3.1/iostream ****   extern istream cin;		/// Linked to standard input
  61:/Library/DaisyToolchain/0.2.0/arm/arm-none-eabi/include/c++/10.3.1/iostream ****   extern ostream cout;		/// Linked to standard output
  62:/Library/DaisyToolchain/0.2.0/arm/arm-none-eabi/include/c++/10.3.1/iostream ****   extern ostream cerr;		/// Linked to standard error (unbuffered)
  63:/Library/DaisyToolchain/0.2.0/arm/arm-none-eabi/include/c++/10.3.1/iostream ****   extern ostream clog;		/// Linked to standard error (buffered)
  64:/Library/DaisyToolchain/0.2.0/arm/arm-none-eabi/include/c++/10.3.1/iostream **** 
  65:/Library/DaisyToolchain/0.2.0/arm/arm-none-eabi/include/c++/10.3.1/iostream **** #ifdef _GLIBCXX_USE_WCHAR_T
  66:/Library/DaisyToolchain/0.2.0/arm/arm-none-eabi/include/c++/10.3.1/iostream ****   extern wistream wcin;		/// Linked to standard input
  67:/Library/DaisyToolchain/0.2.0/arm/arm-none-eabi/include/c++/10.3.1/iostream ****   extern wostream wcout;	/// Linked to standard output
  68:/Library/DaisyToolchain/0.2.0/arm/arm-none-eabi/include/c++/10.3.1/iostream ****   extern wostream wcerr;	/// Linked to standard error (unbuffered)
  69:/Library/DaisyToolchain/0.2.0/arm/arm-none-eabi/include/c++/10.3.1/iostream ****   extern wostream wclog;	/// Linked to standard error (buffered)
  70:/Library/DaisyToolchain/0.2.0/arm/arm-none-eabi/include/c++/10.3.1/iostream **** #endif
  71:/Library/DaisyToolchain/0.2.0/arm/arm-none-eabi/include/c++/10.3.1/iostream ****   ///@}
  72:/Library/DaisyToolchain/0.2.0/arm/arm-none-eabi/include/c++/10.3.1/iostream **** 
  73:/Library/DaisyToolchain/0.2.0/arm/arm-none-eabi/include/c++/10.3.1/iostream ****   // For construction of filebuffers for cout, cin, cerr, clog et. al.
  74:/Library/DaisyToolchain/0.2.0/arm/arm-none-eabi/include/c++/10.3.1/iostream ****   static ios_base::Init __ioinit;
 10134              		.loc 19 74 25 view .LVU2708
 10135 0002 054C     		ldr	r4, .L598
 10136 0004 2046     		mov	r0, r4
 10137 0006 FFF7FEFF 		bl	_ZNSt8ios_base4InitC1Ev
 10138              	.LVL755:
 10139 000a 2046     		mov	r0, r4
 10140 000c 034A     		ldr	r2, .L598+4
 10141 000e 0449     		ldr	r1, .L598+8
 10142              	.LBE2167:
 10143              	.LBE2169:
 10144              		.loc 2 477 1 view .LVU2709
 10145 0010 BDE81040 		pop	{r4, lr}
 10146              		.cfi_restore 14
 10147              		.cfi_restore 4
 10148              		.cfi_def_cfa_offset 0
 10149              	.LBB2170:
 10150              	.LBB2168:
 10151              		.loc 19 74 25 view .LVU2710
 10152 0014 FFF7FEBF 		b	__aeabi_atexit
 10153              	.LVL756:
 10154              	.L599:
 10155              		.align	2
 10156              	.L598:
 10157 0018 00000000 		.word	.LANCHOR2
ARM GAS  /var/folders/1y/_321xjh9623c014x9_qw12rr0000gn/T//ccXZVGQV.s 			page 279


 10158 001c 00000000 		.word	__dso_handle
 10159 0020 00000000 		.word	_ZNSt8ios_base4InitD1Ev
 10160              	.LBE2168:
 10161              	.LBE2170:
 10162              		.cfi_endproc
 10163              	.LFE4347:
 10165              		.section	.init_array,"aw",%init_array
 10166              		.align	2
 10167 0000 00000000 		.word	_GLOBAL__sub_I__ZN5daisy5Dubby4InitEv(target1)
 10168              		.section	.rodata
 10169              		.align	2
 10170              		.set	.LANCHOR1,. + 0
 10171              	.LC5:
 10172 0000 04       		.byte	4
 10173 0001 06       		.byte	6
 10174 0002 0000     		.space	2
 10175              	.LC6:
 10176 0004 04       		.byte	4
 10177 0005 03       		.byte	3
 10178 0006 0000     		.space	2
 10179              	.LC7:
 10180 0008 04       		.byte	4
 10181 0009 04       		.byte	4
 10182 000a 0000     		.space	2
 10183              	.LC8:
 10184 000c 04       		.byte	4
 10185 000d 02       		.byte	2
 10186 000e 0000     		.space	2
 10187              	.LC9:
 10188 0010 04       		.byte	4
 10189 0011 05       		.byte	5
 10190 0012 0000     		.space	2
 10191              	.LC10:
 10192 0014 01       		.byte	1
 10193 0015 08       		.byte	8
 10194 0016 0000     		.space	2
 10195              	.LC11:
 10196 0018 01       		.byte	1
 10197 0019 09       		.byte	9
 10198 001a 0000     		.space	2
 10199              	.LC12:
 10200 001c 06       		.byte	6
 10201 001d 09       		.byte	9
 10202 001e 0000     		.space	2
 10203              	.LC13:
 10204 0020 03       		.byte	3
 10205 0021 0B       		.byte	11
 10206              		.section	.bss._ZStL8__ioinit,"aw",%nobits
 10207              		.align	2
 10208              		.set	.LANCHOR2,. + 0
 10211              	_ZStL8__ioinit:
 10212 0000 00       		.space	1
 10213              		.section	.rodata._ZL7bitmaps,"a"
 10214              		.align	2
 10215              		.set	.LANCHOR0,. + 0
 10218              	_ZL7bitmaps:
 10219 0000 00000000 		.ascii	"\000\000\000\000\000\000\000\000\000\000\000\000\000"
ARM GAS  /var/folders/1y/_321xjh9623c014x9_qw12rr0000gn/T//ccXZVGQV.s 			page 280


 10219      00000000 
 10219      00000000 
 10219      00
 10220 000d 00000000 		.ascii	"\000\000\000\000\000\000\000\000\000\000\004\000\000"
 10220      00000000 
 10220      00000400 
 10220      00
 10221 001a 00000000 		.ascii	"\000\000\000\000\000\000\000\000\000\000\000\000\000"
 10221      00000000 
 10221      00000000 
 10221      00
 10222 0027 FE000000 		.ascii	"\376\000\000\000\000\000\000\000\000\000\000\000\000"
 10222      00000000 
 10222      00000000 
 10222      00
 10223 0034 000007FF 		.ascii	"\000\000\007\377\000\000\000\000\000\000\000\000\000"
 10223      00000000 
 10223      00000000 
 10223      00
 10224 0041 00000000 		.ascii	"\000\000\000\000\000\037\377\200\000\000\000\000\000"
 10224      001FFF80 
 10224      00000000 
 10224      00
 10225 004e 00000000 		.ascii	"\000\000\000\000\000\000\000\000?\377\300\000\000\000"
 10225      00000000 
 10225      3FFFC000 
 10225      0000
 10226 005c 00000000 		.ascii	"\000\000\000\000\000\000\000\000\000\000?\377\340\000"
 10226      00000000 
 10226      00003FFF 
 10226      E000
 10227 006a 00000000 		.ascii	"\000\000\000\000\000\000\000\000\000\000\000\000?\377"
 10227      00000000 
 10227      00000000 
 10227      3FFF
 10228 0078 F0000000 		.ascii	"\360\000\000\000\000\000\000\000\000\000\000\000\000"
 10228      00000000 
 10228      00000000 
 10228      00
 10229 0085 003FFFF8 		.ascii	"\000?\377\370\000\000\000\000\000\000\000\000\000\000"
 10229      00000000 
 10229      00000000 
 10229      0000
 10230 0093 0000007F 		.ascii	"\000\000\000\177\377\370\000\000\000\000\000\000\000"
 10230      FFF80000 
 10230      00000000 
 10230      00
 10231 00a0 00000000 		.ascii	"\000\000\000\000\000\000\177\377\370\000\000\000\000"
 10231      00007FFF 
 10231      F8000000 
 10231      00
 10232 00ad 00000000 		.ascii	"\000\000\000\000\000\000\000\000\000\177\377\370\000"
 10232      00000000 
 10232      007FFFF8 
 10232      00
 10233 00ba 00000000 		.ascii	"\000\000\000\000\000\000\000\000\000\000\000\000\177"
 10233      00000000 
ARM GAS  /var/folders/1y/_321xjh9623c014x9_qw12rr0000gn/T//ccXZVGQV.s 			page 281


 10233      00000000 
 10233      7F
 10234 00c7 FFF80000 		.ascii	"\377\370\000\000\000\000\000\000\000\000\000\000\000"
 10234      00000000 
 10234      00000000 
 10234      00
 10235 00d4 0000FFFF 		.ascii	"\000\000\377\377\360\000\000\000\000\000\000\000\000"
 10235      F0000000 
 10235      00000000 
 10235      00
 10236 00e1 00000000 		.ascii	"\000\000\000\000\000\377\377\360\000\000\000\000\000"
 10236      00FFFFF0 
 10236      00000000 
 10236      00
 10237 00ee 00000000 		.ascii	"\000\000\000\000\000\000\000\000\177\377\360\000\000"
 10237      00000000 
 10237      7FFFF000 
 10237      00
 10238 00fb 00000000 		.ascii	"\000\000\000\000\000\000\000\000\000\000\006?\377\360"
 10238      00000000 
 10238      0000063F 
 10238      FFF0
 10239 0109 00000000 		.ascii	"\000\000\000\000\000\000\000\000\000\000\000\000??\377"
 10239      00000000 
 10239      00000000 
 10239      3F3FFF
 10240 0118 E0000000 		.ascii	"\340\000\000\000\000\000\000\000\000\000\000\000\007"
 10240      00000000 
 10240      00000000 
 10240      07
 10241 0125 FFCFFFE0 		.ascii	"\377\317\377\340\000\000\000\000\000\000\000\000\000"
 10241      00000000 
 10241      00000000 
 10241      00
 10242 0132 00000FFF 		.ascii	"\000\000\017\377\307\377\340\000\000\000\000\000\000"
 10242      C7FFE000 
 10242      00000000 
 10242      00
 10243 013f 00000000 		.ascii	"\000\000\000\000\000\037\377\343\376\000\000\000\000"
 10243      001FFFE3 
 10243      FE000000 
 10243      00
 10244 014c 00000000 		.ascii	"\000\000\000\000\000\000\000\000\037\377\361\360\000"
 10244      00000000 
 10244      1FFFF1F0 
 10244      00
 10245 0159 00000000 		.ascii	"\000\000\000\000\000\000\000\000\000\000\000\037\377"
 10245      00000000 
 10245      0000001F 
 10245      FF
 10246 0166 F8000000 		.ascii	"\370\000\000\000\000\000\000\000\000\000\000\000\000"
 10246      00000000 
 10246      00000000 
 10246      00
 10247 0173 001FFFFC 		.ascii	"\000\037\377\374\000\000\000\000\000\000\000\000\000"
 10247      00000000 
 10247      00000000 
ARM GAS  /var/folders/1y/_321xjh9623c014x9_qw12rr0000gn/T//ccXZVGQV.s 			page 282


 10247      00
 10248 0180 00000000 		.ascii	"\000\000\000\000?\377\376\000\000\000\000\000\000\000"
 10248      3FFFFE00 
 10248      00000000 
 10248      0000
 10249 018e 00000000 		.ascii	"\000\000\000\000\000\000?\377\376\000\000\000\000\000"
 10249      00003FFF 
 10249      FE000000 
 10249      0000
 10250 019c 00000000 		.ascii	"\000\000\000\000\000\000\000\000?\377\374\000\000\000"
 10250      00000000 
 10250      3FFFFC00 
 10250      0000
 10251 01aa 00000000 		.ascii	"\000\000\000\000\000\000\000\000\000\000?\377\374\000"
 10251      00000000 
 10251      00003FFF 
 10251      FC00
 10252 01b8 00000700 		.ascii	"\000\000\007\000\000\000\000\000\000\000\000\000?\377"
 10252      00000000 
 10252      00000000 
 10252      3FFF
 10253 01c6 FC000000 		.ascii	"\374\000\000\000\177\200\000\000\000\000\000\000\000"
 10253      7F800000 
 10253      00000000 
 10253      00
 10254 01d3 003FFFF8 		.ascii	"\000?\377\370\000\000\007\377\340\000\000\000\000\000"
 10254      000007FF 
 10254      E0000000 
 10254      0000
 10255 01e1 0000003F 		.ascii	"\000\000\000?\377\370\000\000\017\377\360\000\000\000"
 10255      FFF80000 
 10255      0FFFF000 
 10255      0000
 10256 01ef 00000000 		.ascii	"\000\000\000\000\000\037\377\370\000\000\017\377\370"
 10256      001FFFF8 
 10256      00000FFF 
 10256      F8
 10257 01fc 00000000 		.ascii	"\000\000\000\000\000\000\000\000\017\377\370\000\000"
 10257      00000000 
 10257      0FFFF800 
 10257      00
 10258 0209 0FFFFC00 		.ascii	"\017\377\374\000\000\000\000\000\000\000\000\007\377"
 10258      00000000 
 10258      00000007 
 10258      FF
 10259 0216 F000000F 		.ascii	"\360\000\000\017\377\374\000\000\000\000\000\000\000"
 10259      FFFC0000 
 10259      00000000 
 10259      00
 10260 0223 0003FFF0 		.ascii	"\000\003\377\360\000\000\037\377\376\000\000\000\000"
 10260      00001FFF 
 10260      FE000000 
 10260      00
 10261 0230 00000000 		.ascii	"\000\000\000\000\001\377\000\000\000\037\377\376\000"
 10261      01FF0000 
 10261      001FFFFE 
 10261      00
ARM GAS  /var/folders/1y/_321xjh9623c014x9_qw12rr0000gn/T//ccXZVGQV.s 			page 283


 10262 023d 00000000 		.ascii	"\000\000\000\000\000\000\000\000\370\030\000\000\037"
 10262      00000000 
 10262      F8180000 
 10262      1F
 10263 024a FFFE0000 		.ascii	"\377\376\000\000\000\000\000\000\000\000\000\000\374"
 10263      00000000 
 10263      00000000 
 10263      FC
 10264 0257 00003FFF 		.ascii	"\000\000?\377\376\000\000\000\000\000\000\000\000\000"
 10264      FE000000 
 10264      00000000 
 10264      0000
 10265 0265 07FE0000 		.ascii	"\007\376\000\000?\377\374\000\000\000\000\000\000\000"
 10265      3FFFFC00 
 10265      00000000 
 10265      0000
 10266 0273 00003FFF 		.ascii	"\000\000?\377\000\000?\377\374\000\000\000\000\000\000"
 10266      00003FFF 
 10266      FC000000 
 10266      000000
 10267 0282 0000007F 		.ascii	"\000\000\000\177\377\200\000?\377\374\000\000\000\000"
 10267      FF80003F 
 10267      FFFC0000 
 10267      0000
 10268 0290 00000000 		.ascii	"\000\000\000\000\000\177\377\300\000\037\377\374\000"
 10268      007FFFC0 
 10268      001FFFFC 
 10268      00
 10269 029d 00000000 		.ascii	"\000\000\000\000\000\000\000\000\177\377\340\007\317"
 10269      00000000 
 10269      7FFFE007 
 10269      CF
 10270 02aa FFFC0000 		.ascii	"\377\374\000\000\000\000\000\000\000\000\000\377\377"
 10270      00000000 
 10270      000000FF 
 10270      FF
 10271 02b7 F03FE7FF 		.ascii	"\360?\347\377\370\000\000\000\000\000\000\000\000\000"
 10271      F8000000 
 10271      00000000 
 10271      0000
 10272 02c5 FFFFF3FF 		.ascii	"\377\377\363\377\363\377\370\000\000\000\000\000\000"
 10272      F3FFF800 
 10272      00000000 
 10272      00
 10273 02d2 000000FF 		.ascii	"\000\000\000\377\377\367\377\371\377\360\000\000\000"
 10273      FFF7FFF9 
 10273      FFF00000 
 10273      00
 10274 02df 00000000 		.ascii	"\000\000\000\000\000\000\377\377\367\377\374\376\000"
 10274      0000FFFF 
 10274      F7FFFCFE 
 10274      00
 10275 02ec 00000000 		.ascii	"\000\000\000\000\000\000\000\000\001\377\377\367\377"
 10275      00000000 
 10275      01FFFFF7 
 10275      FF
 10276 02f9 FE700000 		.ascii	"\376p\000\000\000\000\000\000\000\000\000\001\377\377"
ARM GAS  /var/folders/1y/_321xjh9623c014x9_qw12rr0000gn/T//ccXZVGQV.s 			page 284


 10276      00000000 
 10276      00000001 
 10276      FFFF
 10277 0307 E7FFFF00 		.ascii	"\347\377\377\000\000\000\000\000\000\000\000\000\000"
 10277      00000000 
 10277      00000000 
 10277      00
 10278 0314 01FFFFE7 		.ascii	"\001\377\377\347\377\377\200\000\000\000\000\000\000"
 10278      FFFF8000 
 10278      00000000 
 10278      00
 10279 0321 00000001 		.ascii	"\000\000\000\001\377\377\357\377\377\000\000\000\000"
 10279      FFFFEFFF 
 10279      FF000000 
 10279      00
 10280 032e 00000000 		.ascii	"\000\000\000\000\000\000\000\377\377\317\377\377\000"
 10280      000000FF 
 10280      FFCFFFFF 
 10280      00
 10281 033b 00000000 		.ascii	"\000\000\000\000\000\000\000\000\000\000\177\377\317"
 10281      00000000 
 10281      00007FFF 
 10281      CF
 10282 0348 FFFF0000 		.ascii	"\377\377\000\000\000\000\000\000\000\000\000\000\000"
 10282      00000000 
 10282      00000000 
 10282      00
 10283 0355 3FFFDFFF 		.ascii	"?\377\337\377\377\000\000\000\000\000\000\000\000\000"
 10283      FF000000 
 10283      00000000 
 10283      0000
 10284 0363 00001FFF 		.ascii	"\000\000\037\377\237\377\376\000\000\000\000\000\000"
 10284      9FFFFE00 
 10284      00000000 
 10284      00
 10285 0370 00000000 		.ascii	"\000\000\000\000\000\017\376\037\377\376\000\000\000"
 10285      000FFE1F 
 10285      FFFE0000 
 10285      00
 10286 037d 00000000 		.ascii	"\000\000\000\000\000\000\000\000\007\300\007\377\376"
 10286      00000000 
 10286      07C007FF 
 10286      FE
 10287 038a 00000000 		.ascii	"\000\000\000\000\000\000\000\000\000\000\000\000\000"
 10287      00000000 
 10287      00000000 
 10287      00
 10288 0397 07FFFC00 		.ascii	"\007\377\374\000\000\000\000\000\000\000\000\000\000"
 10288      00000000 
 10288      00000000 
 10288      00
 10289 03a4 00000003 		.ascii	"\000\000\000\003\377\374\000\000\000\000\000\000\000"
 10289      FFFC0000 
 10289      00000000 
 10289      00
 10290 03b1 00000000 		.ascii	"\000\000\000\000\000\000\001\377\374\000\000\000\000"
 10290      000001FF 
ARM GAS  /var/folders/1y/_321xjh9623c014x9_qw12rr0000gn/T//ccXZVGQV.s 			page 285


 10290      FC000000 
 10290      00
 10291 03be 00000000 		.ascii	"\000\000\000\000\000\000\000\000\000\000\377\360\000"
 10291      00000000 
 10291      0000FFF0 
 10291      00
 10292 03cb 00000000 		.ascii	"\000\000\000\000\000\000\000\000\000\000\000\000\000"
 10292      00000000 
 10292      00000000 
 10292      00
 10293 03d8 7F800000 		.ascii	"\177\200\000\000\000\000\000\000\000\000\000\000\000"
 10293      00000000 
 10293      00000000 
 10293      00
 10294 03e5 00000010 		.ascii	"\000\000\000\020\000\000\000\000\000\000\000\000\000"
 10294      00000000 
 10294      00000000 
 10294      00
 10295 03f2 00000000 		.ascii	"\000\000\000\000\000\000\000\000\000\000\000\000\000"
 10295      00000000 
 10295      00000000 
 10295      00
 10296 03ff 00       		.ascii	"\000"
 10297 0400 00000000 		.ascii	"\000\000\000\000\000\000\000\000\000\000\000\000\000"
 10297      00000000 
 10297      00000000 
 10297      00
 10298 040d 00000000 		.ascii	"\000\000\000\000\000\000\000\000\000\000\000\000\000"
 10298      00000000 
 10298      00000000 
 10298      00
 10299 041a 00000000 		.ascii	"\000\000\000\000\000\000\000\000\000\000\000\000\000"
 10299      00000000 
 10299      00000000 
 10299      00
 10300 0427 00000000 		.ascii	"\000\000\000\000\000\000\000\000\000\000\000\000\000"
 10300      00000000 
 10300      00000000 
 10300      00
 10301 0434 0001FC00 		.ascii	"\000\001\374\000\000?\200\000\000\000\000\000\000\000"
 10301      003F8000 
 10301      00000000 
 10301      0000
 10302 0442 00000007 		.ascii	"\000\000\000\007\377\000\000\377\300\000\000\000\000"
 10302      FF0000FF 
 10302      C0000000 
 10302      00
 10303 044f 00000000 		.ascii	"\000\000\000\000\000\000\017\377\000\000\377\300\000"
 10303      00000FFF 
 10303      0000FFC0 
 10303      00
 10304 045c 00000000 		.ascii	"\000\000\000\000\000\000\000\000\000\036\007\300\003"
 10304      00000000 
 10304      001E07C0 
 10304      03
 10305 0469 E3C00000 		.ascii	"\343\300\000\000\000\000\000\000\000\000\000\000<\001"
 10305      00000000 
ARM GAS  /var/folders/1y/_321xjh9623c014x9_qw12rr0000gn/T//ccXZVGQV.s 			page 286


 10305      00000000 
 10305      3C01
 10306 0477 E0078780 		.ascii	"\340\007\207\200\000\000\000\000\000\000\000\000\000"
 10306      00000000 
 10306      00000000 
 10306      00
 10307 0484 003830E0 		.ascii	"\00080\340\007\016\034\000\000\000\000\000\000\000\000"
 10307      070E1C00 
 10307      00000000 
 10307      000000
 10308 0493 000071F8 		.ascii	"\000\000q\370\340\007\014>\000\000\000\000\000\000\000"
 10308      E0070C3E 
 10308      00000000 
 10308      000000
 10309 04a2 00000071 		.ascii	"\000\000\000q\374p\016\014>\000\000\000\000\000\000"
 10309      FC700E0C 
 10309      3E000000 
 10309      000000
 10310 04b1 00000000 		.ascii	"\000\000\000\000s\236p\016\014~\000\000\000\000\000"
 10310      739E700E 
 10310      0C7E0000 
 10310      000000
 10311 04c0 00000000 		.ascii	"\000\000\000\000\000s\216p\016\017\356\000\000\000\000"
 10311      00738E70 
 10311      0E0FEE00 
 10311      000000
 10312 04cf 00000000 		.ascii	"\000\000\000\000\000\000s\334p\016\007\316\000\000\000"
 10312      000073DC 
 10312      700E07CE 
 10312      000000
 10313 04de 00000000 		.ascii	"\000\000\000\000\000\000\000q\374p\016\000\016\000\000"
 10313      00000071 
 10313      FC700E00 
 10313      0E0000
 10314 04ed 00000000 		.ascii	"\000\000\000\000\000\000\000\000y\374x\036\000\036\000"
 10314      00000000 
 10314      79FC781E 
 10314      001E00
 10315 04fc 00000000 		.ascii	"\000\000\000\000\000\000\000\000\0008`<<\000\034\000"
 10315      00000000 
 10315      0038603C 
 10315      3C001C00 
 10316 050c 00000000 		.ascii	"\000\000\000\000\000\000\000\000\000<\000\036x\000<"
 10316      00000000 
 10316      003C001E 
 10316      78003C
 10317 051b 00000000 		.ascii	"\000\000\000\000\000\000\000\000\000\000\017\000\017"
 10317      00000000 
 10317      00000F00 
 10317      0F
 10318 0528 F000F000 		.ascii	"\360\000\360\000\000\000\000\000\000\000\000\000\000"
 10318      00000000 
 10318      00000000 
 10318      00
 10319 0535 0FFC07E0 		.ascii	"\017\374\007\340?\360\000\000\000\000\000\000\000\000"
 10319      3FF00000 
 10319      00000000 
ARM GAS  /var/folders/1y/_321xjh9623c014x9_qw12rr0000gn/T//ccXZVGQV.s 			page 287


 10319      0000
 10320 0543 000007FE 		.ascii	"\000\000\007\376\003\300\177\340\000\000\000\000\000"
 10320      03C07FE0 
 10320      00000000 
 10320      00
 10321 0550 00000000 		.ascii	"\000\000\000\000\000\000\377\007\200\377\000\000\000"
 10321      0000FF07 
 10321      80FF0000 
 10321      00
 10322 055d 00000000 		.ascii	"\000\000\000\000\000\000\000\000\000\007\217\001\340"
 10322      00000000 
 10322      00078F01 
 10322      E0
 10323 056a 00000000 		.ascii	"\000\000\000\000\000\000\000\000\000\000\000\000\003"
 10323      00000000 
 10323      00000000 
 10323      03
 10324 0577 DE03C000 		.ascii	"\336\003\300\000\000\000\000\000\000\000\000\000\000"
 10324      00000000 
 10324      00000000 
 10324      00
 10325 0584 000001FC 		.ascii	"\000\000\001\374\007\200\000\000\000\000\000\000\000"
 10325      07800000 
 10325      00000000 
 10325      00
 10326 0591 00000000 		.ascii	"\000\000\000\000\000\000\370\017\000\000\000\000\000"
 10326      0000F80F 
 10326      00000000 
 10326      00
 10327 059e 00000000 		.ascii	"\000\000\000\000\000\000\000\000\000\360\037\000\000"
 10327      00000000 
 10327      00F01F00 
 10327      00
 10328 05ab 00000000 		.ascii	"\000\000\000\000\000\000\000\000\000\000\000\001\340"
 10328      00000000 
 10328      00000001 
 10328      E0
 10329 05b8 3F800000 		.ascii	"?\200\000\000\000\000\000\000\000\000\000\000\000\000"
 10329      00000000 
 10329      00000000 
 10329      0000
 10330 05c6 03C07BC0 		.ascii	"\003\300{\300\000\000\000\000\000\000\000\000\000\000"
 10330      00000000 
 10330      00000000 
 10330      0000
 10331 05d4 00000780 		.ascii	"\000\000\007\200\361\340\000\000\000\000\000\000\000"
 10331      F1E00000 
 10331      00000000 
 10331      00
 10332 05e1 00000000 		.ascii	"\000\000\000\000\000\377\001\340\377\000\000\000\000"
 10332      00FF01E0 
 10332      FF000000 
 10332      00
 10333 05ee 00000000 		.ascii	"\000\000\000\000\000\000\000\007\376\003\300\177\300"
 10333      00000007 
 10333      FE03C07F 
 10333      C0
ARM GAS  /var/folders/1y/_321xjh9623c014x9_qw12rr0000gn/T//ccXZVGQV.s 			page 288


 10334 05fb 00000000 		.ascii	"\000\000\000\000\000\000\000\000\000\000\017\374\007"
 10334      00000000 
 10334      00000FFC 
 10334      07
 10335 0608 E03FF000 		.ascii	"\340?\360\000\000\000\000\000\000\000\000\000\000\017"
 10335      00000000 
 10335      00000000 
 10335      000F
 10336 0616 000FF000 		.ascii	"\000\017\360\000\360\000\000\000\000\000\000\000\000"
 10336      F0000000 
 10336      00000000 
 10336      00
 10337 0623 00003C00 		.ascii	"\000\000<\000\036x\000<\000\000\000\000\000\000\000"
 10337      1E78003C 
 10337      00000000 
 10337      000000
 10338 0632 00000038 		.ascii	"\000\000\0008\000<<\002\034\000\000\000\000\000\000"
 10338      003C3C02 
 10338      1C000000 
 10338      000000
 10339 0641 00000000 		.ascii	"\000\000\000\000x\000x\036\037\036\000\000\000\000\000"
 10339      7800781E 
 10339      1F1E0000 
 10339      000000
 10340 0650 00000000 		.ascii	"\000\000\000\000\000q\300p\016?\216\000\000\000\000"
 10340      0071C070 
 10340      0E3F8E00 
 10340      000000
 10341 065f 00000000 		.ascii	"\000\000\000\000\000\000s\340p\016?\316\000\000\000"
 10341      000073E0 
 10341      700E3FCE 
 10341      000000
 10342 066e 00000000 		.ascii	"\000\000\000\000\000\000\000w\360p\0161\316\000\000"
 10342      00000077 
 10342      F0700E31 
 10342      CE0000
 10343 067d 00000000 		.ascii	"\000\000\000\000\000\000\000\000~8p\016y\316\000\000"
 10343      00000000 
 10343      7E38700E 
 10343      79CE0000 
 10344 068d 00000000 		.ascii	"\000\000\000\000\000\000\000\000|8p\016?\216\000\000"
 10344      00000000 
 10344      7C38700E 
 10344      3F8E0000 
 10345 069d 00000000 		.ascii	"\000\000\000\000\000\000\000\000|8\340\007\037\216\000"
 10345      00000000 
 10345      7C38E007 
 10345      1F8E00
 10346 06ac 00000000 		.ascii	"\000\000\000\000\000\000\000\000\0008p\340\007\016\034"
 10346      00000000 
 10346      003870E0 
 10346      070E1C
 10347 06bb 00000000 		.ascii	"\000\000\000\000\000\000\000\000\000\000\001\341\340"
 10347      00000000 
 10347      000001E1 
 10347      E0
 10348 06c8 03803C00 		.ascii	"\003\200<\000\000\000\000\000\000\000\000\000\000\003"
ARM GAS  /var/folders/1y/_321xjh9623c014x9_qw12rr0000gn/T//ccXZVGQV.s 			page 289


 10348      00000000 
 10348      00000000 
 10348      0003
 10349 06d6 C7C003E0 		.ascii	"\307\300\003\340x\000\000\000\000\000\000\000\000\000"
 10349      78000000 
 10349      00000000 
 10349      0000
 10350 06e4 0003FF00 		.ascii	"\000\003\377\000\000\377\360\000\000\000\000\000\000"
 10350      00FFF000 
 10350      00000000 
 10350      00
 10351 06f1 00000000 		.ascii	"\000\000\000\000\003\377\000\000\377\340\000\000\000"
 10351      03FF0000 
 10351      FFE00000 
 10351      00
 10352 06fe 00000000 		.ascii	"\000\000\000\000\000\000\000\001\374\000\000?\200\000"
 10352      00000001 
 10352      FC00003F 
 10352      8000
 10353 070c 00000000 		.ascii	"\000\000\000\000\000\000\000\000\000\000\000\000\000"
 10353      00000000 
 10353      00000000 
 10353      00
 10354 0719 00000000 		.ascii	"\000\000\000\000\000\000\000\000\000\000\000\000\000"
 10354      00000000 
 10354      00000000 
 10354      00
 10355 0726 00000000 		.ascii	"\000\000\000\000\000\000\000\000\000\000\000\000\000"
 10355      00000000 
 10355      00000000 
 10355      00
 10356 0733 00000000 		.ascii	"\000\000\000\000\000\000\000\000\000\000\000\000\000"
 10356      00000000 
 10356      00000000 
 10356      00
 10357 0740 00000000 		.ascii	"\000\000\000\000\000\000\000\000\000\000\000\000\000"
 10357      00000000 
 10357      00000000 
 10357      00
 10358 074d 00000000 		.ascii	"\000\000\000\000\000\000\000\000\000\000\000\000\000"
 10358      00000000 
 10358      00000000 
 10358      00
 10359 075a 00000000 		.ascii	"\000\000\000\000\000\000\000\000\000\000\000\000\000"
 10359      00000000 
 10359      00000000 
 10359      00
 10360 0767 00000000 		.ascii	"\000\000\000\000\000\000\000\000\000\000\000\000\000"
 10360      00000000 
 10360      00000000 
 10360      00
 10361 0774 00000000 		.ascii	"\000\000\000\000\000\000\000\000\000\000\000\000\000"
 10361      00000000 
 10361      00000000 
 10361      00
 10362 0781 00000000 		.ascii	"\000\000\000\000\000\000\000\000\000\000\000\000\000"
 10362      00000000 
ARM GAS  /var/folders/1y/_321xjh9623c014x9_qw12rr0000gn/T//ccXZVGQV.s 			page 290


 10362      00000000 
 10362      00
 10363 078e 00000000 		.ascii	"\000\000\000\000\000\000\000\000\000\000\000\000\000"
 10363      00000000 
 10363      00000000 
 10363      00
 10364 079b 00000000 		.ascii	"\000\000\000\000\000\000\000\000\000\000\000\000\000"
 10364      00000000 
 10364      00000000 
 10364      00
 10365 07a8 00000000 		.ascii	"\000\000\000\000\000\000\000\000\000\000\000\000\000"
 10365      00000000 
 10365      00000000 
 10365      00
 10366 07b5 00000000 		.ascii	"\000\000\000\000\000\000\000\000\000\000\000\000\000"
 10366      00000000 
 10366      00000000 
 10366      00
 10367 07c2 00000000 		.ascii	"\000\000\000\000\000\000\000\000\000\000\000\000\000"
 10367      00000000 
 10367      00000000 
 10367      00
 10368 07cf 00000000 		.ascii	"\000\000\000\000\000\000\000\000\000\000\000\000\000"
 10368      00000000 
 10368      00000000 
 10368      00
 10369 07dc 00000000 		.ascii	"\000\000\000\000\000\000\000\000\000\000\000\000\000"
 10369      00000000 
 10369      00000000 
 10369      00
 10370 07e9 00000000 		.ascii	"\000\000\000\000\000\000\000\000\000\000\000\000\000"
 10370      00000000 
 10370      00000000 
 10370      00
 10371 07f6 00000000 		.ascii	"\000\000\000\000\000\000\000\000\000\000"
 10371      00000000 
 10371      0000
 10372              		.text
 10373              	.Letext0:
 10374              		.file 20 "/Library/DaisyToolchain/0.2.0/arm/arm-none-eabi/include/machine/_default_types.h"
 10375              		.file 21 "/Library/DaisyToolchain/0.2.0/arm/arm-none-eabi/include/sys/_stdint.h"
 10376              		.file 22 "/Library/DaisyToolchain/0.2.0/arm/arm-none-eabi/include/stdint.h"
 10377              		.file 23 "../../libDaisy//Drivers/CMSIS/Device/ST/STM32H7xx/Include/stm32h750xx.h"
 10378              		.file 24 "/Library/DaisyToolchain/0.2.0/arm/lib/gcc/arm-none-eabi/10.3.1/include/stddef.h"
 10379              		.file 25 "/Library/DaisyToolchain/0.2.0/arm/arm-none-eabi/include/c++/10.3.1/cmath"
 10380              		.file 26 "/Library/DaisyToolchain/0.2.0/arm/arm-none-eabi/include/c++/10.3.1/cstdlib"
 10381              		.file 27 "/Library/DaisyToolchain/0.2.0/arm/arm-none-eabi/include/c++/10.3.1/cstdint"
 10382              		.file 28 "/Library/DaisyToolchain/0.2.0/arm/arm-none-eabi/include/c++/10.3.1/arm-none-eabi/thumb/v
 10383              		.file 29 "/Library/DaisyToolchain/0.2.0/arm/arm-none-eabi/include/c++/10.3.1/type_traits"
 10384              		.file 30 "/Library/DaisyToolchain/0.2.0/arm/arm-none-eabi/include/c++/10.3.1/debug/debug.h"
 10385              		.file 31 "/Library/DaisyToolchain/0.2.0/arm/arm-none-eabi/include/c++/10.3.1/bits/algorithmfwd.h"
 10386              		.file 32 "/Library/DaisyToolchain/0.2.0/arm/arm-none-eabi/include/c++/10.3.1/bits/exception_ptr.h"
 10387              		.file 33 "/Library/DaisyToolchain/0.2.0/arm/arm-none-eabi/include/c++/10.3.1/bits/stl_pair.h"
 10388              		.file 34 "/Library/DaisyToolchain/0.2.0/arm/arm-none-eabi/include/c++/10.3.1/initializer_list"
 10389              		.file 35 "/Library/DaisyToolchain/0.2.0/arm/arm-none-eabi/include/c++/10.3.1/cstdarg"
 10390              		.file 36 "/Library/DaisyToolchain/0.2.0/arm/arm-none-eabi/include/c++/10.3.1/cstdio"
 10391              		.file 37 "/Library/DaisyToolchain/0.2.0/arm/arm-none-eabi/include/c++/10.3.1/cstring"
ARM GAS  /var/folders/1y/_321xjh9623c014x9_qw12rr0000gn/T//ccXZVGQV.s 			page 291


 10392              		.file 38 "/Library/DaisyToolchain/0.2.0/arm/arm-none-eabi/include/c++/10.3.1/cwchar"
 10393              		.file 39 "/Library/DaisyToolchain/0.2.0/arm/arm-none-eabi/include/c++/10.3.1/clocale"
 10394              		.file 40 "/Library/DaisyToolchain/0.2.0/arm/arm-none-eabi/include/c++/10.3.1/bits/basic_string.h"
 10395              		.file 41 "/Library/DaisyToolchain/0.2.0/arm/arm-none-eabi/include/c++/10.3.1/bits/ios_base.h"
 10396              		.file 42 "/Library/DaisyToolchain/0.2.0/arm/arm-none-eabi/include/c++/10.3.1/cwctype"
 10397              		.file 43 "/Library/DaisyToolchain/0.2.0/arm/arm-none-eabi/include/c++/10.3.1/bits/predefined_ops.h
 10398              		.file 44 "/Library/DaisyToolchain/0.2.0/arm/arm-none-eabi/include/sys/_types.h"
 10399              		.file 45 "/Library/DaisyToolchain/0.2.0/arm/arm-none-eabi/include/sys/reent.h"
 10400              		.file 46 "/Library/DaisyToolchain/0.2.0/arm/arm-none-eabi/include/sys/lock.h"
 10401              		.file 47 "/Library/DaisyToolchain/0.2.0/arm/arm-none-eabi/include/math.h"
 10402              		.file 48 "/Library/DaisyToolchain/0.2.0/arm/arm-none-eabi/include/stdlib.h"
 10403              		.file 49 "/Library/DaisyToolchain/0.2.0/arm/arm-none-eabi/include/c++/10.3.1/math.h"
 10404              		.file 50 "/Library/DaisyToolchain/0.2.0/arm/arm-none-eabi/include/c++/10.3.1/stdlib.h"
 10405              		.file 51 "../../libDaisy//src/daisy_core.h"
 10406              		.file 52 "../../libDaisy//src/per/tim.h"
 10407              		.file 53 "../../libDaisy//src/sys/system.h"
 10408              		.file 54 "../../libDaisy//src/per/qspi.h"
 10409              		.file 55 "../../libDaisy//src/per/dac.h"
 10410              		.file 56 "../../libDaisy//src/per/gpio.h"
 10411              		.file 57 "../../libDaisy//src/per/adc.h"
 10412              		.file 58 "../../libDaisy//src/hid/MidiEvent.h"
 10413              		.file 59 "../../libDaisy//src/hid/usb.h"
 10414              		.file 60 "../../libDaisy//src/util/FIFO.h"
 10415              		.file 61 "../../libDaisy//src/hid/gatein.h"
 10416              		.file 62 "../../libDaisy//src/hid/disp/graphics_common.h"
 10417              		.file 63 "../../libDaisy//src/util/wav_format.h"
 10418              		.file 64 "../../libDaisy//src/dev/max11300.h"
 10419              		.file 65 "../../libDaisy//src/daisy_seed.h"
 10420              		.file 66 "Dubby.h"
 10421              		.file 67 "../../libDaisy//src/dev/sdram.h"
 10422              		.file 68 "/Library/DaisyToolchain/0.2.0/arm/lib/gcc/arm-none-eabi/10.3.1/include/stdarg.h"
 10423              		.file 69 "/Library/DaisyToolchain/0.2.0/arm/arm-none-eabi/include/stdio.h"
 10424              		.file 70 "../../libDaisy//src/util/oled_fonts.h"
 10425              		.file 71 "../../libDaisy//src/dev/sr_595.h"
 10426              		.file 72 "/Library/DaisyToolchain/0.2.0/arm/arm-none-eabi/include/string.h"
 10427              		.file 73 "/Library/DaisyToolchain/0.2.0/arm/arm-none-eabi/include/wchar.h"
 10428              		.file 74 "/Library/DaisyToolchain/0.2.0/arm/arm-none-eabi/include/locale.h"
 10429              		.file 75 "/Library/DaisyToolchain/0.2.0/arm/arm-none-eabi/include/c++/10.3.1/arm-none-eabi/thumb/v
 10430              		.file 76 "/Library/DaisyToolchain/0.2.0/arm/arm-none-eabi/include/wctype.h"
 10431              		.file 77 "./bitmaps/bmps.h"
 10432              		.file 78 "<built-in>"
ARM GAS  /var/folders/1y/_321xjh9623c014x9_qw12rr0000gn/T//ccXZVGQV.s 			page 292


DEFINED SYMBOLS
                            *ABS*:0000000000000000 Dubby.cpp
/var/folders/1y/_321xjh9623c014x9_qw12rr0000gn/T//ccXZVGQV.s:19     .text._ZNK5daisy11OledDisplayINS_13SSD130xDriverILj128ELj64ENS_24SSD130x4WireSpiTransportEEEE6HeightEv:0000000000000000 $t
/var/folders/1y/_321xjh9623c014x9_qw12rr0000gn/T//ccXZVGQV.s:26     .text._ZNK5daisy11OledDisplayINS_13SSD130xDriverILj128ELj64ENS_24SSD130x4WireSpiTransportEEEE6HeightEv:0000000000000000 _ZNK5daisy11OledDisplayINS_13SSD130xDriverILj128ELj64ENS_24SSD130x4WireSpiTransportEEEE6HeightEv
/var/folders/1y/_321xjh9623c014x9_qw12rr0000gn/T//ccXZVGQV.s:44     .text._ZNK5daisy11OledDisplayINS_13SSD130xDriverILj128ELj64ENS_24SSD130x4WireSpiTransportEEEE5WidthEv:0000000000000000 $t
/var/folders/1y/_321xjh9623c014x9_qw12rr0000gn/T//ccXZVGQV.s:51     .text._ZNK5daisy11OledDisplayINS_13SSD130xDriverILj128ELj64ENS_24SSD130x4WireSpiTransportEEEE5WidthEv:0000000000000000 _ZNK5daisy11OledDisplayINS_13SSD130xDriverILj128ELj64ENS_24SSD130x4WireSpiTransportEEEE5WidthEv
/var/folders/1y/_321xjh9623c014x9_qw12rr0000gn/T//ccXZVGQV.s:68     .text._ZN5daisy5Dubby11RenderScopeEv.part.0:0000000000000000 $t
/var/folders/1y/_321xjh9623c014x9_qw12rr0000gn/T//ccXZVGQV.s:74     .text._ZN5daisy5Dubby11RenderScopeEv.part.0:0000000000000000 _ZN5daisy5Dubby11RenderScopeEv.part.0
/var/folders/1y/_321xjh9623c014x9_qw12rr0000gn/T//ccXZVGQV.s:665    .text._ZN5daisy5Dubby11RenderScopeEv.part.0:00000000000001e8 $d
/var/folders/1y/_321xjh9623c014x9_qw12rr0000gn/T//ccXZVGQV.s:675    .text._ZN5daisy5Dubby12InitControlsEv:0000000000000000 $t
/var/folders/1y/_321xjh9623c014x9_qw12rr0000gn/T//ccXZVGQV.s:682    .text._ZN5daisy5Dubby12InitControlsEv:0000000000000000 _ZN5daisy5Dubby12InitControlsEv
/var/folders/1y/_321xjh9623c014x9_qw12rr0000gn/T//ccXZVGQV.s:842    .text._ZN5daisy5Dubby12InitControlsEv:00000000000000d4 $d
/var/folders/1y/_321xjh9623c014x9_qw12rr0000gn/T//ccXZVGQV.s:847    .text._ZN5daisy5Dubby11InitButtonsEv:0000000000000000 $t
/var/folders/1y/_321xjh9623c014x9_qw12rr0000gn/T//ccXZVGQV.s:854    .text._ZN5daisy5Dubby11InitButtonsEv:0000000000000000 _ZN5daisy5Dubby11InitButtonsEv
/var/folders/1y/_321xjh9623c014x9_qw12rr0000gn/T//ccXZVGQV.s:943    .text._ZN5daisy5Dubby11InitButtonsEv:0000000000000080 $d
/var/folders/1y/_321xjh9623c014x9_qw12rr0000gn/T//ccXZVGQV.s:948    .text._ZN5daisy5Dubby8InitMidiEv:0000000000000000 $t
/var/folders/1y/_321xjh9623c014x9_qw12rr0000gn/T//ccXZVGQV.s:955    .text._ZN5daisy5Dubby8InitMidiEv:0000000000000000 _ZN5daisy5Dubby8InitMidiEv
/var/folders/1y/_321xjh9623c014x9_qw12rr0000gn/T//ccXZVGQV.s:1277   .text._ZN5daisy5Dubby10DrawBitmapEi:0000000000000000 $t
/var/folders/1y/_321xjh9623c014x9_qw12rr0000gn/T//ccXZVGQV.s:1284   .text._ZN5daisy5Dubby10DrawBitmapEi:0000000000000000 _ZN5daisy5Dubby10DrawBitmapEi
/var/folders/1y/_321xjh9623c014x9_qw12rr0000gn/T//ccXZVGQV.s:1715   .text._ZN5daisy5Dubby10DrawBitmapEi:0000000000000124 $d
/var/folders/1y/_321xjh9623c014x9_qw12rr0000gn/T//ccXZVGQV.s:1728   .text._ZN5daisy5Dubby8DrawLogoEv:0000000000000000 $t
/var/folders/1y/_321xjh9623c014x9_qw12rr0000gn/T//ccXZVGQV.s:1735   .text._ZN5daisy5Dubby8DrawLogoEv:0000000000000000 _ZN5daisy5Dubby8DrawLogoEv
/var/folders/1y/_321xjh9623c014x9_qw12rr0000gn/T//ccXZVGQV.s:1753   .text._ZN5daisy5Dubby9UpdateBarEi:0000000000000000 $t
/var/folders/1y/_321xjh9623c014x9_qw12rr0000gn/T//ccXZVGQV.s:1760   .text._ZN5daisy5Dubby9UpdateBarEi:0000000000000000 _ZN5daisy5Dubby9UpdateBarEi
/var/folders/1y/_321xjh9623c014x9_qw12rr0000gn/T//ccXZVGQV.s:2811   .text._ZN5daisy5Dubby9UpdateBarEi:000000000000038c $d
/var/folders/1y/_321xjh9623c014x9_qw12rr0000gn/T//ccXZVGQV.s:2824   .text._ZN5daisy5Dubby9UpdateBarEi:0000000000000390 $t
/var/folders/1y/_321xjh9623c014x9_qw12rr0000gn/T//ccXZVGQV.s:2956   .text._ZN5daisy5Dubby15UpdateMixerPaneEv:0000000000000000 $t
/var/folders/1y/_321xjh9623c014x9_qw12rr0000gn/T//ccXZVGQV.s:2963   .text._ZN5daisy5Dubby15UpdateMixerPaneEv:0000000000000000 _ZN5daisy5Dubby15UpdateMixerPaneEv
/var/folders/1y/_321xjh9623c014x9_qw12rr0000gn/T//ccXZVGQV.s:3043   .text._ZN5daisy5Dubby11RenderScopeEv:0000000000000000 $t
/var/folders/1y/_321xjh9623c014x9_qw12rr0000gn/T//ccXZVGQV.s:3050   .text._ZN5daisy5Dubby11RenderScopeEv:0000000000000000 _ZN5daisy5Dubby11RenderScopeEv
/var/folders/1y/_321xjh9623c014x9_qw12rr0000gn/T//ccXZVGQV.s:3100   .text._ZN5daisy5Dubby17SwitchMIDIOutThruEb:0000000000000000 $t
/var/folders/1y/_321xjh9623c014x9_qw12rr0000gn/T//ccXZVGQV.s:3107   .text._ZN5daisy5Dubby17SwitchMIDIOutThruEb:0000000000000000 _ZN5daisy5Dubby17SwitchMIDIOutThruEb
/var/folders/1y/_321xjh9623c014x9_qw12rr0000gn/T//ccXZVGQV.s:3130   .text._ZN5daisy5Dubby11InitEncoderEv:0000000000000000 $t
/var/folders/1y/_321xjh9623c014x9_qw12rr0000gn/T//ccXZVGQV.s:3137   .text._ZN5daisy5Dubby11InitEncoderEv:0000000000000000 _ZN5daisy5Dubby11InitEncoderEv
/var/folders/1y/_321xjh9623c014x9_qw12rr0000gn/T//ccXZVGQV.s:3190   .text._ZN5daisy5Dubby11InitEncoderEv:0000000000000040 $d
/var/folders/1y/_321xjh9623c014x9_qw12rr0000gn/T//ccXZVGQV.s:3195   .text._ZN5daisy5Dubby18ProcessAllControlsEv:0000000000000000 $t
/var/folders/1y/_321xjh9623c014x9_qw12rr0000gn/T//ccXZVGQV.s:3202   .text._ZN5daisy5Dubby18ProcessAllControlsEv:0000000000000000 _ZN5daisy5Dubby18ProcessAllControlsEv
/var/folders/1y/_321xjh9623c014x9_qw12rr0000gn/T//ccXZVGQV.s:3310   .text._ZN5daisy5Dubby21ProcessAnalogControlsEv:0000000000000000 $t
/var/folders/1y/_321xjh9623c014x9_qw12rr0000gn/T//ccXZVGQV.s:3317   .text._ZN5daisy5Dubby21ProcessAnalogControlsEv:0000000000000000 _ZN5daisy5Dubby21ProcessAnalogControlsEv
/var/folders/1y/_321xjh9623c014x9_qw12rr0000gn/T//ccXZVGQV.s:3360   .text._ZN5daisy5Dubby22ProcessDigitalControlsEv:0000000000000000 $t
/var/folders/1y/_321xjh9623c014x9_qw12rr0000gn/T//ccXZVGQV.s:3367   .text._ZN5daisy5Dubby22ProcessDigitalControlsEv:0000000000000000 _ZN5daisy5Dubby22ProcessDigitalControlsEv
/var/folders/1y/_321xjh9623c014x9_qw12rr0000gn/T//ccXZVGQV.s:3432   .text._ZN5daisy5Dubby12GetKnobValueENS0_4CtrlE:0000000000000000 $t
/var/folders/1y/_321xjh9623c014x9_qw12rr0000gn/T//ccXZVGQV.s:3439   .text._ZN5daisy5Dubby12GetKnobValueENS0_4CtrlE:0000000000000000 _ZN5daisy5Dubby12GetKnobValueENS0_4CtrlE
/var/folders/1y/_321xjh9623c014x9_qw12rr0000gn/T//ccXZVGQV.s:3466   .text._ZN5daisy5Dubby9InitAudioEv:0000000000000000 $t
/var/folders/1y/_321xjh9623c014x9_qw12rr0000gn/T//ccXZVGQV.s:3473   .text._ZN5daisy5Dubby9InitAudioEv:0000000000000000 _ZN5daisy5Dubby9InitAudioEv
/var/folders/1y/_321xjh9623c014x9_qw12rr0000gn/T//ccXZVGQV.s:3813   .text._ZN5daisy5Dubby9InitAudioEv:0000000000000108 $d
/var/folders/1y/_321xjh9623c014x9_qw12rr0000gn/T//ccXZVGQV.s:3819   .rodata._ZN5daisy5Dubby14GetTextForEnumENS0_9MenuTypesEi.str1.4:0000000000000000 $d
/var/folders/1y/_321xjh9623c014x9_qw12rr0000gn/T//ccXZVGQV.s:3823   .text._ZN5daisy5Dubby14GetTextForEnumENS0_9MenuTypesEi:0000000000000000 $t
/var/folders/1y/_321xjh9623c014x9_qw12rr0000gn/T//ccXZVGQV.s:3830   .text._ZN5daisy5Dubby14GetTextForEnumENS0_9MenuTypesEi:0000000000000000 _ZN5daisy5Dubby14GetTextForEnumENS0_9MenuTypesEi
/var/folders/1y/_321xjh9623c014x9_qw12rr0000gn/T//ccXZVGQV.s:3871   .text._ZN5daisy5Dubby14GetTextForEnumENS0_9MenuTypesEi:0000000000000018 $d
/var/folders/1y/_321xjh9623c014x9_qw12rr0000gn/T//ccXZVGQV.s:3876   .text._ZN5daisy25OneBitGraphicsDisplayImplINS_11OledDisplayINS_13SSD130xDriverILj128ELj64ENS_24SSD130x4WireSpiTransportEEEEEE11WriteStringEPKc7FontDefb:0000000000000000 $t
/var/folders/1y/_321xjh9623c014x9_qw12rr0000gn/T//ccXZVGQV.s:3883   .text._ZN5daisy25OneBitGraphicsDisplayImplINS_11OledDisplayINS_13SSD130xDriverILj128ELj64ENS_24SSD130x4WireSpiTransportEEEEEE11WriteStringEPKc7FontDefb:0000000000000000 _ZN5daisy25OneBitGraphicsDisplayImplINS_11OledDisplayINS_13SSD130xDriverILj128ELj64ENS_24SSD130x4WireSpiTransportEEEEEE11WriteStringEPKc7FontDefb
/var/folders/1y/_321xjh9623c014x9_qw12rr0000gn/T//ccXZVGQV.s:4340   .text._ZN5daisy25OneBitGraphicsDisplayImplINS_11OledDisplayINS_13SSD130xDriverILj128ELj64ENS_24SSD130x4WireSpiTransportEEEEEE11WriteStringEPKc7FontDefb:00000000000001b8 $d
/var/folders/1y/_321xjh9623c014x9_qw12rr0000gn/T//ccXZVGQV.s:4350   .text._ZN5daisy5Dubby18HightlightMenuItemEv:0000000000000000 $t
/var/folders/1y/_321xjh9623c014x9_qw12rr0000gn/T//ccXZVGQV.s:4357   .text._ZN5daisy5Dubby18HightlightMenuItemEv:0000000000000000 _ZN5daisy5Dubby18HightlightMenuItemEv
/var/folders/1y/_321xjh9623c014x9_qw12rr0000gn/T//ccXZVGQV.s:5771   .text._ZN5daisy5Dubby18HightlightMenuItemEv:00000000000004e4 $d
/var/folders/1y/_321xjh9623c014x9_qw12rr0000gn/T//ccXZVGQV.s:5780   .text._ZN5daisy5Dubby11ReleaseMenuEv:0000000000000000 $t
ARM GAS  /var/folders/1y/_321xjh9623c014x9_qw12rr0000gn/T//ccXZVGQV.s 			page 293


/var/folders/1y/_321xjh9623c014x9_qw12rr0000gn/T//ccXZVGQV.s:5787   .text._ZN5daisy5Dubby11ReleaseMenuEv:0000000000000000 _ZN5daisy5Dubby11ReleaseMenuEv
/var/folders/1y/_321xjh9623c014x9_qw12rr0000gn/T//ccXZVGQV.s:6093   .text._ZN5daisy5Dubby11ReleaseMenuEv:00000000000000d0 $d
/var/folders/1y/_321xjh9623c014x9_qw12rr0000gn/T//ccXZVGQV.s:6098   .text._ZN5daisy5Dubby22DisplayPreferencesMenuEv:0000000000000000 $t
/var/folders/1y/_321xjh9623c014x9_qw12rr0000gn/T//ccXZVGQV.s:6105   .text._ZN5daisy5Dubby22DisplayPreferencesMenuEv:0000000000000000 _ZN5daisy5Dubby22DisplayPreferencesMenuEv
/var/folders/1y/_321xjh9623c014x9_qw12rr0000gn/T//ccXZVGQV.s:6488   .text._ZN5daisy5Dubby22DisplayPreferencesMenuEv:0000000000000124 $d
/var/folders/1y/_321xjh9623c014x9_qw12rr0000gn/T//ccXZVGQV.s:6495   .text._ZN5daisy5Dubby22DisplayPreferencesMenuEv:0000000000000128 $t
/var/folders/1y/_321xjh9623c014x9_qw12rr0000gn/T//ccXZVGQV.s:7281   .text._ZN5daisy5Dubby13UpdateSubmenuEv:0000000000000000 $t
/var/folders/1y/_321xjh9623c014x9_qw12rr0000gn/T//ccXZVGQV.s:7288   .text._ZN5daisy5Dubby13UpdateSubmenuEv:0000000000000000 _ZN5daisy5Dubby13UpdateSubmenuEv
/var/folders/1y/_321xjh9623c014x9_qw12rr0000gn/T//ccXZVGQV.s:7509   .text._ZN5daisy5Dubby10UpdateMenuEib:0000000000000000 $t
/var/folders/1y/_321xjh9623c014x9_qw12rr0000gn/T//ccXZVGQV.s:7516   .text._ZN5daisy5Dubby10UpdateMenuEib:0000000000000000 _ZN5daisy5Dubby10UpdateMenuEib
/var/folders/1y/_321xjh9623c014x9_qw12rr0000gn/T//ccXZVGQV.s:7787   .text._ZN5daisy5Dubby21UpdatePreferencesMenuEi:0000000000000000 $t
/var/folders/1y/_321xjh9623c014x9_qw12rr0000gn/T//ccXZVGQV.s:7794   .text._ZN5daisy5Dubby21UpdatePreferencesMenuEi:0000000000000000 _ZN5daisy5Dubby21UpdatePreferencesMenuEi
/var/folders/1y/_321xjh9623c014x9_qw12rr0000gn/T//ccXZVGQV.s:7841   .rodata._ZN5daisy5Dubby17ResetToBootloaderEv.str1.4:0000000000000000 $d
/var/folders/1y/_321xjh9623c014x9_qw12rr0000gn/T//ccXZVGQV.s:7845   .text._ZN5daisy5Dubby17ResetToBootloaderEv:0000000000000000 $t
/var/folders/1y/_321xjh9623c014x9_qw12rr0000gn/T//ccXZVGQV.s:7852   .text._ZN5daisy5Dubby17ResetToBootloaderEv:0000000000000000 _ZN5daisy5Dubby17ResetToBootloaderEv
/var/folders/1y/_321xjh9623c014x9_qw12rr0000gn/T//ccXZVGQV.s:8110   .text._ZN5daisy5Dubby17ResetToBootloaderEv:00000000000000b4 $d
/var/folders/1y/_321xjh9623c014x9_qw12rr0000gn/T//ccXZVGQV.s:8117   .text._ZN5daisy5Dubby13UpdateDisplayEv:0000000000000000 $t
/var/folders/1y/_321xjh9623c014x9_qw12rr0000gn/T//ccXZVGQV.s:8124   .text._ZN5daisy5Dubby13UpdateDisplayEv:0000000000000000 _ZN5daisy5Dubby13UpdateDisplayEv
/var/folders/1y/_321xjh9623c014x9_qw12rr0000gn/T//ccXZVGQV.s:8993   .text._ZN5daisy5Dubby13UpdateDisplayEv:0000000000000278 $d
/var/folders/1y/_321xjh9623c014x9_qw12rr0000gn/T//ccXZVGQV.s:9001   .text._ZN5daisy13SSD130xDriverILj128ELj64ENS_24SSD130x4WireSpiTransportEE4InitENS2_6ConfigE:0000000000000000 $t
/var/folders/1y/_321xjh9623c014x9_qw12rr0000gn/T//ccXZVGQV.s:9008   .text._ZN5daisy13SSD130xDriverILj128ELj64ENS_24SSD130x4WireSpiTransportEE4InitENS2_6ConfigE:0000000000000000 _ZN5daisy13SSD130xDriverILj128ELj64ENS_24SSD130x4WireSpiTransportEE4InitENS2_6ConfigE
/var/folders/1y/_321xjh9623c014x9_qw12rr0000gn/T//ccXZVGQV.s:9780   .text._ZN5daisy5Dubby11InitDisplayEv:0000000000000000 $t
/var/folders/1y/_321xjh9623c014x9_qw12rr0000gn/T//ccXZVGQV.s:9787   .text._ZN5daisy5Dubby11InitDisplayEv:0000000000000000 _ZN5daisy5Dubby11InitDisplayEv
/var/folders/1y/_321xjh9623c014x9_qw12rr0000gn/T//ccXZVGQV.s:9966   .text._ZN5daisy5Dubby11InitDisplayEv:0000000000000088 $d
/var/folders/1y/_321xjh9623c014x9_qw12rr0000gn/T//ccXZVGQV.s:9971   .text._ZN5daisy5Dubby4InitEv:0000000000000000 $t
/var/folders/1y/_321xjh9623c014x9_qw12rr0000gn/T//ccXZVGQV.s:9978   .text._ZN5daisy5Dubby4InitEv:0000000000000000 _ZN5daisy5Dubby4InitEv
/var/folders/1y/_321xjh9623c014x9_qw12rr0000gn/T//ccXZVGQV.s:10104  .text._ZN5daisy5Dubby4InitEv:000000000000008c $d
/var/folders/1y/_321xjh9623c014x9_qw12rr0000gn/T//ccXZVGQV.s:10109  .text.startup._GLOBAL__sub_I__ZN5daisy5Dubby4InitEv:0000000000000000 $t
/var/folders/1y/_321xjh9623c014x9_qw12rr0000gn/T//ccXZVGQV.s:10115  .text.startup._GLOBAL__sub_I__ZN5daisy5Dubby4InitEv:0000000000000000 _GLOBAL__sub_I__ZN5daisy5Dubby4InitEv
/var/folders/1y/_321xjh9623c014x9_qw12rr0000gn/T//ccXZVGQV.s:10157  .text.startup._GLOBAL__sub_I__ZN5daisy5Dubby4InitEv:0000000000000018 $d
/var/folders/1y/_321xjh9623c014x9_qw12rr0000gn/T//ccXZVGQV.s:10166  .init_array:0000000000000000 $d
/var/folders/1y/_321xjh9623c014x9_qw12rr0000gn/T//ccXZVGQV.s:10169  .rodata:0000000000000000 $d
/var/folders/1y/_321xjh9623c014x9_qw12rr0000gn/T//ccXZVGQV.s:10207  .bss._ZStL8__ioinit:0000000000000000 $d
/var/folders/1y/_321xjh9623c014x9_qw12rr0000gn/T//ccXZVGQV.s:10211  .bss._ZStL8__ioinit:0000000000000000 _ZStL8__ioinit
/var/folders/1y/_321xjh9623c014x9_qw12rr0000gn/T//ccXZVGQV.s:10214  .rodata._ZL7bitmaps:0000000000000000 $d
/var/folders/1y/_321xjh9623c014x9_qw12rr0000gn/T//ccXZVGQV.s:10218  .rodata._ZL7bitmaps:0000000000000000 _ZL7bitmaps

UNDEFINED SYMBOLS
_ZN5daisy6System6GetNowEv
dsy_gpio_write
_ZN5daisy9SpiHandle16BlockingTransmitEPhjm
_ZN5daisy9DaisySeed6GetPinEh
_ZN5daisy16AdcChannelConfig10InitSingleE12dsy_gpio_pinNS0_15ConversionSpeedE
_ZN5daisy9AdcHandle4InitEPNS_16AdcChannelConfigEjNS0_12OverSamplingE
_ZNK5daisy9AdcHandle6GetPtrEh
_ZNK5daisy9DaisySeed17AudioCallbackRateEv
_ZN5daisy13AnalogControl4InitEPtfbbf
_ZN5daisy9AdcHandle5StartEv
_ZN5daisy6Switch4InitE12dsy_gpio_pinf
_ZN5daisy17MidiUartTransport6ConfigC1Ev
memset
_ZN5daisy11UartHandler4InitERKNS0_6ConfigE
_ZN5daisy10MidiParser5ResetEv
dsy_gpio_init
_ZN5daisy16MidiUsbTransport4InitENS0_6ConfigE
_ZN5daisy12DubbyEncoder4InitE12dsy_gpio_pinS1_S1_f
_ZN5daisy13AnalogControl7ProcessEv
ARM GAS  /var/folders/1y/_321xjh9623c014x9_qw12rr0000gn/T//ccXZVGQV.s 			page 294


_ZN5daisy12DubbyEncoder8DebounceEv
_ZN5daisy6Switch8DebounceEv
_ZN5daisy9DaisySeed17CheckBoardVersionEv
_ZN5daisy9I2CHandle4InitERKNS0_6ConfigE
_ZN5daisy7Pcm30604InitENS_9I2CHandleE
_ZN5daisy9SaiHandle4InitERKNS0_6ConfigE
_ZN5daisy11AudioHandle4InitERKNS0_6ConfigENS_9SaiHandleES4_
Font_6x8
_ZN5daisy6System17ResetToBootloaderENS0_14BootloaderModeE
_ZN5daisy9SpiHandle4InitERKNS0_6ConfigE
_ZN5daisy6System5DelayEm
_ZNSt8ios_base4InitC1Ev
__aeabi_atexit
__dso_handle
_ZNSt8ios_base4InitD1Ev
