ARM GAS  /var/folders/1y/_321xjh9623c014x9_qw12rr0000gn/T//cc4eHiNS.s 			page 1


   1              		.cpu cortex-m7
   2              		.arch armv7e-m
   3              		.fpu fpv5-d16
   4              		.eabi_attribute 28, 1
   5              		.eabi_attribute 20, 1
   6              		.eabi_attribute 21, 1
   7              		.eabi_attribute 23, 3
   8              		.eabi_attribute 24, 1
   9              		.eabi_attribute 25, 1
  10              		.eabi_attribute 26, 1
  11              		.eabi_attribute 30, 2
  12              		.eabi_attribute 34, 1
  13              		.eabi_attribute 18, 4
  14              		.file	"Dubby.cpp"
  15              		.text
  16              	.Ltext0:
  17              		.cfi_sections	.debug_frame
  18              		.section	.text._ZNK5daisy11OledDisplayINS_13SSD130xDriverILj128ELj64ENS_24SSD130x4WireSpiTransport
  19              		.align	1
  20              		.p2align 2,,3
  21              		.weak	_ZNK5daisy11OledDisplayINS_13SSD130xDriverILj128ELj64ENS_24SSD130x4WireSpiTransportEEEE6Heig
  22              		.syntax unified
  23              		.thumb
  24              		.thumb_func
  26              	_ZNK5daisy11OledDisplayINS_13SSD130xDriverILj128ELj64ENS_24SSD130x4WireSpiTransportEEEE6HeightEv:
  27              	.LVL0:
  28              	.LFB2661:
  29              		.file 1 "../../libDaisy//src/hid/disp/oled_display.h"
   1:../../libDaisy//src/hid/disp/oled_display.h **** #pragma once
   2:../../libDaisy//src/hid/disp/oled_display.h **** #ifndef DSY_OLED_DISPLAY_H
   3:../../libDaisy//src/hid/disp/oled_display.h **** #define DSY_OLED_DISPLAY_H /**< Macro */
   4:../../libDaisy//src/hid/disp/oled_display.h **** 
   5:../../libDaisy//src/hid/disp/oled_display.h **** #include "display.h"
   6:../../libDaisy//src/hid/disp/oled_display.h **** 
   7:../../libDaisy//src/hid/disp/oled_display.h **** namespace daisy
   8:../../libDaisy//src/hid/disp/oled_display.h **** {
   9:../../libDaisy//src/hid/disp/oled_display.h **** /** 
  10:../../libDaisy//src/hid/disp/oled_display.h ****  * This class is for drawing to a monochrome OLED display. 
  11:../../libDaisy//src/hid/disp/oled_display.h ****  * @ingroup device
  12:../../libDaisy//src/hid/disp/oled_display.h **** */
  13:../../libDaisy//src/hid/disp/oled_display.h **** template <typename DisplayDriver>
  14:../../libDaisy//src/hid/disp/oled_display.h **** class OledDisplay : public OneBitGraphicsDisplayImpl<OledDisplay<DisplayDriver>>
  15:../../libDaisy//src/hid/disp/oled_display.h **** {
  16:../../libDaisy//src/hid/disp/oled_display.h ****   public:
  17:../../libDaisy//src/hid/disp/oled_display.h ****     OledDisplay() {}
  18:../../libDaisy//src/hid/disp/oled_display.h ****     virtual ~OledDisplay() {}
  19:../../libDaisy//src/hid/disp/oled_display.h **** 
  20:../../libDaisy//src/hid/disp/oled_display.h ****     struct Config
  21:../../libDaisy//src/hid/disp/oled_display.h ****     {
  22:../../libDaisy//src/hid/disp/oled_display.h ****         typename DisplayDriver::Config driver_config;
  23:../../libDaisy//src/hid/disp/oled_display.h ****     };
  24:../../libDaisy//src/hid/disp/oled_display.h **** 
  25:../../libDaisy//src/hid/disp/oled_display.h ****     void Init(Config config) { driver_.Init(config.driver_config); }
  26:../../libDaisy//src/hid/disp/oled_display.h **** 
  27:../../libDaisy//src/hid/disp/oled_display.h ****     uint16_t Height() const override { return driver_.Height(); }
  30              		.loc 1 27 14 view -0
  31              		.cfi_startproc
ARM GAS  /var/folders/1y/_321xjh9623c014x9_qw12rr0000gn/T//cc4eHiNS.s 			page 2


  32              		@ args = 0, pretend = 0, frame = 0
  33              		@ frame_needed = 0, uses_anonymous_args = 0
  34              		@ link register save eliminated.
  35              		.loc 1 27 65 is_stmt 0 view .LVU1
  36 0000 4020     		movs	r0, #64
  37              	.LVL1:
  38              		.loc 1 27 65 view .LVU2
  39 0002 7047     		bx	lr
  40              		.cfi_endproc
  41              	.LFE2661:
  43              		.section	.text._ZNK5daisy11OledDisplayINS_13SSD130xDriverILj128ELj64ENS_24SSD130x4WireSpiTransport
  44              		.align	1
  45              		.p2align 2,,3
  46              		.weak	_ZNK5daisy11OledDisplayINS_13SSD130xDriverILj128ELj64ENS_24SSD130x4WireSpiTransportEEEE5Widt
  47              		.syntax unified
  48              		.thumb
  49              		.thumb_func
  51              	_ZNK5daisy11OledDisplayINS_13SSD130xDriverILj128ELj64ENS_24SSD130x4WireSpiTransportEEEE5WidthEv:
  52              	.LVL2:
  53              	.LFB2662:
  28:../../libDaisy//src/hid/disp/oled_display.h ****     uint16_t Width() const override { return driver_.Width(); }
  54              		.loc 1 28 14 is_stmt 1 view -0
  55              		.cfi_startproc
  56              		@ args = 0, pretend = 0, frame = 0
  57              		@ frame_needed = 0, uses_anonymous_args = 0
  58              		@ link register save eliminated.
  59              		.loc 1 28 63 is_stmt 0 view .LVU4
  60 0000 8020     		movs	r0, #128
  61              	.LVL3:
  62              		.loc 1 28 63 view .LVU5
  63 0002 7047     		bx	lr
  64              		.cfi_endproc
  65              	.LFE2662:
  67              		.section	.text._ZN5daisy5Dubby11RenderScopeEv.part.0,"ax",%progbits
  68              		.align	1
  69              		.p2align 2,,3
  70              		.syntax unified
  71              		.thumb
  72              		.thumb_func
  74              	_ZN5daisy5Dubby11RenderScopeEv.part.0:
  75              	.LVL4:
  76              	.LFB2673:
  77              		.file 2 "Dubby.cpp"
   1:Dubby.cpp     **** #include "Dubby.h"
   2:Dubby.cpp     **** 
   3:Dubby.cpp     **** using namespace daisy;
   4:Dubby.cpp     **** 
   5:Dubby.cpp     **** // Hardware Definitions
   6:Dubby.cpp     **** #define PIN_GATE_IN_1 32
   7:Dubby.cpp     **** #define PIN_GATE_IN_2 23
   8:Dubby.cpp     **** #define PIN_GATE_IN_3 17
   9:Dubby.cpp     **** #define PIN_GATE_IN_4 19
  10:Dubby.cpp     **** #define PIN_KNOB_1 18
  11:Dubby.cpp     **** #define PIN_KNOB_2 15
  12:Dubby.cpp     **** #define PIN_KNOB_3 21
  13:Dubby.cpp     **** #define PIN_KNOB_4 22
  14:Dubby.cpp     **** #define PIN_JS_CLICK 3
ARM GAS  /var/folders/1y/_321xjh9623c014x9_qw12rr0000gn/T//cc4eHiNS.s 			page 3


  15:Dubby.cpp     **** #define PIN_JS_V 20
  16:Dubby.cpp     **** #define PIN_JS_H 16
  17:Dubby.cpp     **** #define PIN_ENC_CLICK 4
  18:Dubby.cpp     **** #define PIN_ENC_A 6
  19:Dubby.cpp     **** #define PIN_ENC_B 5 
  20:Dubby.cpp     **** #define PIN_OLED_DC 9
  21:Dubby.cpp     **** #define PIN_OLED_RESET 31
  22:Dubby.cpp     **** #define PIN_MIDI_OUT 13
  23:Dubby.cpp     **** #define PIN_MIDI_IN 14
  24:Dubby.cpp     **** 
  25:Dubby.cpp     **** #define OLED_WIDTH 128
  26:Dubby.cpp     **** #define OLED_HEIGHT 64
  27:Dubby.cpp     **** 
  28:Dubby.cpp     **** #define PANE_X_START 1
  29:Dubby.cpp     **** #define PANE_X_END 126
  30:Dubby.cpp     **** #define PANE_Y_START 1
  31:Dubby.cpp     **** #define PANE_Y_END 51
  32:Dubby.cpp     **** 
  33:Dubby.cpp     **** #define SUBMENU_X_START 1
  34:Dubby.cpp     **** #define SUBMENU_X_END 63
  35:Dubby.cpp     **** #define SUBMENU_Y_START 1
  36:Dubby.cpp     **** #define SUBMENU_Y_END 11
  37:Dubby.cpp     **** 
  38:Dubby.cpp     **** void Dubby::Init() 
  39:Dubby.cpp     **** {
  40:Dubby.cpp     ****     InitControls();
  41:Dubby.cpp     ****     InitButtons();
  42:Dubby.cpp     ****     
  43:Dubby.cpp     ****     screen_update_period_ = 17; // roughly 60Hz
  44:Dubby.cpp     ****     screen_update_last_   = seed.system.GetNow();
  45:Dubby.cpp     **** 
  46:Dubby.cpp     ****     for (int i = 0; i < 5; i++) 
  47:Dubby.cpp     ****     {
  48:Dubby.cpp     ****         submenuBoxBounding[i][0] = SUBMENU_X_START;
  49:Dubby.cpp     ****         submenuBoxBounding[i][1] = SUBMENU_Y_START + i * 10;
  50:Dubby.cpp     ****         submenuBoxBounding[i][2] = SUBMENU_X_END;
  51:Dubby.cpp     ****         submenuBoxBounding[i][3] = SUBMENU_Y_END + i * 10;
  52:Dubby.cpp     ****     }
  53:Dubby.cpp     **** 
  54:Dubby.cpp     ****     InitDisplay();
  55:Dubby.cpp     ****     InitEncoder();
  56:Dubby.cpp     ****     InitAudio();
  57:Dubby.cpp     ****     InitMidi();
  58:Dubby.cpp     **** }
  59:Dubby.cpp     **** 
  60:Dubby.cpp     **** void Dubby::InitControls()
  61:Dubby.cpp     **** {
  62:Dubby.cpp     ****     AdcChannelConfig cfg[CTRL_LAST];
  63:Dubby.cpp     **** 
  64:Dubby.cpp     ****     // Init ADC channels with Pins
  65:Dubby.cpp     ****     cfg[CTRL_1].InitSingle(seed.GetPin(PIN_KNOB_1));
  66:Dubby.cpp     ****     cfg[CTRL_2].InitSingle(seed.GetPin(PIN_KNOB_2));
  67:Dubby.cpp     ****     cfg[CTRL_3].InitSingle(seed.GetPin(PIN_KNOB_3));
  68:Dubby.cpp     ****     cfg[CTRL_4].InitSingle(seed.GetPin(PIN_KNOB_4));
  69:Dubby.cpp     ****     cfg[CTRL_5].InitSingle(seed.GetPin(PIN_JS_H));
  70:Dubby.cpp     ****     cfg[CTRL_6].InitSingle(seed.GetPin(PIN_JS_V));
  71:Dubby.cpp     **** 
ARM GAS  /var/folders/1y/_321xjh9623c014x9_qw12rr0000gn/T//cc4eHiNS.s 			page 4


  72:Dubby.cpp     ****     // Initialize ADC
  73:Dubby.cpp     ****     seed.adc.Init(cfg, CTRL_LAST);
  74:Dubby.cpp     **** 
  75:Dubby.cpp     ****     // Initialize analogInputs, with flip set to true
  76:Dubby.cpp     ****     for(size_t i = 0; i < CTRL_LAST; i++)
  77:Dubby.cpp     ****     {
  78:Dubby.cpp     ****         analogInputs[i].Init(seed.adc.GetPtr(i), seed.AudioCallbackRate(), true);
  79:Dubby.cpp     ****     }
  80:Dubby.cpp     **** 
  81:Dubby.cpp     ****     seed.adc.Start();
  82:Dubby.cpp     **** }
  83:Dubby.cpp     **** 
  84:Dubby.cpp     **** void Dubby::InitButtons()
  85:Dubby.cpp     **** {
  86:Dubby.cpp     ****     //Set button to pins, to be updated at a 1kHz  samplerate
  87:Dubby.cpp     ****     buttons[0].Init(seed.GetPin(PIN_GATE_IN_1), 1000);
  88:Dubby.cpp     ****     buttons[1].Init(seed.GetPin(PIN_GATE_IN_2), 1000);
  89:Dubby.cpp     ****     buttons[2].Init(seed.GetPin(PIN_GATE_IN_3), 1000);
  90:Dubby.cpp     ****     buttons[3].Init(seed.GetPin(PIN_GATE_IN_4), 1000);
  91:Dubby.cpp     **** }
  92:Dubby.cpp     **** 
  93:Dubby.cpp     **** void Dubby::InitMidi()
  94:Dubby.cpp     **** {
  95:Dubby.cpp     ****     MidiUartHandler::Config midi_config;
  96:Dubby.cpp     ****     midi.Init(midi_config);
  97:Dubby.cpp     **** }
  98:Dubby.cpp     **** 
  99:Dubby.cpp     **** void Dubby::InitDisplay() 
 100:Dubby.cpp     **** {
 101:Dubby.cpp     ****     /** Configure the Display */
 102:Dubby.cpp     ****     OledDisplay<SSD130x4WireSpi128x64Driver>::Config disp_cfg;
 103:Dubby.cpp     ****     disp_cfg.driver_config.transport_config.pin_config.dc    = seed.GetPin(9);
 104:Dubby.cpp     ****     disp_cfg.driver_config.transport_config.pin_config.reset = seed.GetPin(31);
 105:Dubby.cpp     ****     /** And Initialize */
 106:Dubby.cpp     ****     display.Init(disp_cfg);
 107:Dubby.cpp     **** }
 108:Dubby.cpp     **** 
 109:Dubby.cpp     **** void Dubby::UpdateDisplay() 
 110:Dubby.cpp     **** {
 111:Dubby.cpp     ****     if (encoder.TimeHeldMs() > 300) 
 112:Dubby.cpp     ****     {
 113:Dubby.cpp     ****         if (!menuActive) 
 114:Dubby.cpp     ****         {
 115:Dubby.cpp     ****             HightlightMenuItem();
 116:Dubby.cpp     ****             menuActive = true;
 117:Dubby.cpp     ****         }
 118:Dubby.cpp     **** 
 119:Dubby.cpp     ****         if (encoder.Increment()) UpdateMenu(encoder.Increment(), true);
 120:Dubby.cpp     ****     } 
 121:Dubby.cpp     **** 
 122:Dubby.cpp     ****     switch(menuItemSelected) 
 123:Dubby.cpp     ****     {
 124:Dubby.cpp     ****         case MENU1:
 125:Dubby.cpp     ****             RenderScope();
 126:Dubby.cpp     ****             break;
 127:Dubby.cpp     ****         case MENU2:
 128:Dubby.cpp     ****             UpdateMixerPane();
ARM GAS  /var/folders/1y/_321xjh9623c014x9_qw12rr0000gn/T//cc4eHiNS.s 			page 5


 129:Dubby.cpp     ****             break;
 130:Dubby.cpp     ****         case MENU3:
 131:Dubby.cpp     ****             if (encoder.Pressed() && preferencesMenuItemSelected == OPTION4) ResetToBootloader();
 132:Dubby.cpp     ****             if (encoder.Increment() && !menuActive) UpdatePreferencesMenu(encoder.Increment());
 133:Dubby.cpp     ****             break;
 134:Dubby.cpp     ****         default:
 135:Dubby.cpp     ****             break;
 136:Dubby.cpp     ****     }
 137:Dubby.cpp     ****     
 138:Dubby.cpp     ****     if (encoder.TimeHeldMs() < 300 && menuActive)
 139:Dubby.cpp     ****     {
 140:Dubby.cpp     ****         menuActive = false;
 141:Dubby.cpp     ****         
 142:Dubby.cpp     ****         ReleaseMenu();
 143:Dubby.cpp     ****         UpdateSubmenu();
 144:Dubby.cpp     ****     }
 145:Dubby.cpp     **** }
 146:Dubby.cpp     **** 
 147:Dubby.cpp     **** void Dubby::DrawLogo() 
 148:Dubby.cpp     **** {
 149:Dubby.cpp     ****     DrawBitmap(0);   
 150:Dubby.cpp     **** }
 151:Dubby.cpp     **** 
 152:Dubby.cpp     **** void Dubby::DrawBitmap(int bitmapIndex)
 153:Dubby.cpp     **** {
 154:Dubby.cpp     ****     display.Fill(false);
 155:Dubby.cpp     ****     display.SetCursor(30, 30);
 156:Dubby.cpp     ****     
 157:Dubby.cpp     ****     for (int x = 0; x < OLED_WIDTH; x += 8) {
 158:Dubby.cpp     ****         for (int y = 0; y < OLED_HEIGHT; y++) {
 159:Dubby.cpp     ****             // Calculate the index in the array
 160:Dubby.cpp     ****             int byteIndex = (y * OLED_WIDTH + x) / 8;
 161:Dubby.cpp     **** 
 162:Dubby.cpp     ****             // Get the byte containing 8 pixels
 163:Dubby.cpp     ****             char byte = bitmaps[bitmapIndex][byteIndex];
 164:Dubby.cpp     **** 
 165:Dubby.cpp     ****             // Process 8 pixels in the byte
 166:Dubby.cpp     ****             for (int bitIndex = 0; bitIndex < 8; bitIndex++) {
 167:Dubby.cpp     **** 
 168:Dubby.cpp     ****                 // Get the pixel value (0 or 1)
 169:Dubby.cpp     ****                 char pixel = (byte >> (7 - bitIndex)) & 0x01;
 170:Dubby.cpp     **** 
 171:Dubby.cpp     ****                 bool isWhite = (pixel == 1);
 172:Dubby.cpp     **** 
 173:Dubby.cpp     ****                 display.DrawPixel(x + bitIndex, y, isWhite);
 174:Dubby.cpp     ****             }
 175:Dubby.cpp     **** 
 176:Dubby.cpp     ****             if (y % 6 == 0) display.Update();
 177:Dubby.cpp     ****         }
 178:Dubby.cpp     ****     }
 179:Dubby.cpp     **** }
 180:Dubby.cpp     **** 
 181:Dubby.cpp     **** void Dubby::UpdateMenu(int increment, bool higlight) 
 182:Dubby.cpp     **** {
 183:Dubby.cpp     ****     if ((menuItemSelected >= 0 && increment == 1 && menuItemSelected < 2) || (increment != 1 && men
 184:Dubby.cpp     ****         menuItemSelected = (MenuItems)(menuItemSelected + increment);
 185:Dubby.cpp     **** 
ARM GAS  /var/folders/1y/_321xjh9623c014x9_qw12rr0000gn/T//cc4eHiNS.s 			page 6


 186:Dubby.cpp     ****     display.Fill(false);
 187:Dubby.cpp     **** 
 188:Dubby.cpp     ****     if (higlight) HightlightMenuItem();
 189:Dubby.cpp     ****     else ReleaseMenu();
 190:Dubby.cpp     ****     
 191:Dubby.cpp     ****     UpdateSubmenu();
 192:Dubby.cpp     **** 
 193:Dubby.cpp     ****     display.Update();
 194:Dubby.cpp     **** }
 195:Dubby.cpp     **** 
 196:Dubby.cpp     **** void Dubby::HightlightMenuItem() 
 197:Dubby.cpp     **** {
 198:Dubby.cpp     ****     display.DrawRect(menuBoxBounding[menuItemSelected][0], menuBoxBounding[menuItemSelected][1], me
 199:Dubby.cpp     **** 
 200:Dubby.cpp     ****     for (int i = 0; i < 3; i++) 
 201:Dubby.cpp     ****     {
 202:Dubby.cpp     ****         display.SetCursor(menuTextCursors[i][0], menuTextCursors[i][1]);
 203:Dubby.cpp     ****         display.WriteString(GetTextForEnum(MAINMENU, i), Font_6x8, i == menuItemSelected ? false : 
 204:Dubby.cpp     ****     }
 205:Dubby.cpp     **** 
 206:Dubby.cpp     ****     display.DrawRect(PANE_X_START - 1, PANE_Y_START - 1, PANE_X_END + 1, PANE_Y_END + 1, true);
 207:Dubby.cpp     **** 
 208:Dubby.cpp     ****     display.Update();
 209:Dubby.cpp     **** }
 210:Dubby.cpp     **** 
 211:Dubby.cpp     **** void Dubby::ReleaseMenu() 
 212:Dubby.cpp     **** {        
 213:Dubby.cpp     ****     display.Fill(false);
 214:Dubby.cpp     ****     display.DrawRect(menuBoxBounding[menuItemSelected][0], menuBoxBounding[menuItemSelected][1], me
 215:Dubby.cpp     **** 
 216:Dubby.cpp     ****     for (int i = 0; i < MENU_LAST; i++) 
 217:Dubby.cpp     ****     {
 218:Dubby.cpp     ****         display.SetCursor(menuTextCursors[i][0], menuTextCursors[i][1]);
 219:Dubby.cpp     ****         display.WriteString(GetTextForEnum(MAINMENU, i), Font_6x8, true);
 220:Dubby.cpp     ****     }
 221:Dubby.cpp     **** 
 222:Dubby.cpp     ****     display.Update();
 223:Dubby.cpp     **** }
 224:Dubby.cpp     **** 
 225:Dubby.cpp     **** void Dubby::UpdateMixerPane() 
 226:Dubby.cpp     **** {
 227:Dubby.cpp     ****     if(seed.system.GetNow() - screen_update_last_ > screen_update_period_)
 228:Dubby.cpp     ****     {
 229:Dubby.cpp     ****         screen_update_last_ = seed.system.GetNow();
 230:Dubby.cpp     ****         for (int i = 0; i < 4; i++) UpdateBar(i);
 231:Dubby.cpp     ****     }
 232:Dubby.cpp     **** }
 233:Dubby.cpp     **** 
 234:Dubby.cpp     **** void Dubby::UpdateSubmenu()
 235:Dubby.cpp     **** {
 236:Dubby.cpp     ****     switch(menuItemSelected) 
 237:Dubby.cpp     ****     {
 238:Dubby.cpp     ****         case MENU1:
 239:Dubby.cpp     ****             RenderScope();
 240:Dubby.cpp     ****             break;
 241:Dubby.cpp     ****         case MENU2:
 242:Dubby.cpp     ****             // for (int i = 0; i < 4; i++) UpdateBar(i);
ARM GAS  /var/folders/1y/_321xjh9623c014x9_qw12rr0000gn/T//cc4eHiNS.s 			page 7


 243:Dubby.cpp     ****             break;
 244:Dubby.cpp     ****         case MENU3:
 245:Dubby.cpp     ****             DisplayPreferencesMenu();
 246:Dubby.cpp     ****             break;
 247:Dubby.cpp     ****         default:
 248:Dubby.cpp     ****             break;
 249:Dubby.cpp     ****     }
 250:Dubby.cpp     **** 
 251:Dubby.cpp     ****     display.Update();
 252:Dubby.cpp     **** }
 253:Dubby.cpp     **** 
 254:Dubby.cpp     **** void Dubby::UpdateBar(int i) 
 255:Dubby.cpp     **** {
 256:Dubby.cpp     ****     display.DrawRect((i * 32)  + margin, 1, ((i + 1) * 31) - margin, 51, false, true);
 257:Dubby.cpp     ****     display.DrawRect((i * 32)  + margin, int(abs(1.0f - GetKnobValue(static_cast<Dubby::Ctrl>(i))) 
 258:Dubby.cpp     ****     display.DrawRect((i * 32)  + margin, int(abs((currentLevels[i] * 5.0f) - 1.0f) * 51.0f) + 1, ((
 259:Dubby.cpp     ****     
 260:Dubby.cpp     ****     display.Update();
 261:Dubby.cpp     **** }
 262:Dubby.cpp     **** 
 263:Dubby.cpp     **** void Dubby::RenderScope()
  78              		.loc 2 263 6 is_stmt 1 view -0
  79              		.cfi_startproc
  80              		@ args = 0, pretend = 0, frame = 32
  81              		@ frame_needed = 0, uses_anonymous_args = 0
  82              	.LBB279:
 264:Dubby.cpp     **** {
 265:Dubby.cpp     ****     if(seed.system.GetNow() - screen_update_last_ > screen_update_period_)
 266:Dubby.cpp     ****     {
 267:Dubby.cpp     ****         screen_update_last_ = seed.system.GetNow();
  83              		.loc 2 267 9 view .LVU7
  84              	.LBE279:
 263:Dubby.cpp     **** {
  85              		.loc 2 263 6 is_stmt 0 view .LVU8
  86 0000 2DE9F04F 		push	{r4, r5, r6, r7, r8, r9, r10, fp, lr}
  87              		.cfi_def_cfa_offset 36
  88              		.cfi_offset 4, -36
  89              		.cfi_offset 5, -32
  90              		.cfi_offset 6, -28
  91              		.cfi_offset 7, -24
  92              		.cfi_offset 8, -20
  93              		.cfi_offset 9, -16
  94              		.cfi_offset 10, -12
  95              		.cfi_offset 11, -8
  96              		.cfi_offset 14, -4
  97 0004 8246     		mov	r10, r0
  98 0006 89B0     		sub	sp, sp, #36
  99              		.cfi_def_cfa_offset 72
 100              	.LBB356:
 101              		.loc 2 267 49 view .LVU9
 102 0008 FFF7FEFF 		bl	_ZN5daisy6System6GetNowEv
 103              	.LVL5:
 104              	.LBB280:
 105              	.LBB281:
 106              	.LBB282:
 107              		.file 3 "../../libDaisy//src/hid/disp/display.h"
   1:../../libDaisy//src/hid/disp/display.h **** #pragma once
ARM GAS  /var/folders/1y/_321xjh9623c014x9_qw12rr0000gn/T//cc4eHiNS.s 			page 8


   2:../../libDaisy//src/hid/disp/display.h **** #ifndef DSY_DISPLAY_H
   3:../../libDaisy//src/hid/disp/display.h **** #define DSY_DISPLAY_H /**< Macro */
   4:../../libDaisy//src/hid/disp/display.h **** #include <cmath>
   5:../../libDaisy//src/hid/disp/display.h **** #include "util/oled_fonts.h"
   6:../../libDaisy//src/hid/disp/display.h **** #include "daisy_core.h"
   7:../../libDaisy//src/hid/disp/display.h **** #include "graphics_common.h"
   8:../../libDaisy//src/hid/disp/display.h **** 
   9:../../libDaisy//src/hid/disp/display.h **** #ifndef deg2rad
  10:../../libDaisy//src/hid/disp/display.h **** #define deg2rad(deg) ((deg)*3.141592 / 180.0)
  11:../../libDaisy//src/hid/disp/display.h **** #endif
  12:../../libDaisy//src/hid/disp/display.h **** 
  13:../../libDaisy//src/hid/disp/display.h **** namespace daisy
  14:../../libDaisy//src/hid/disp/display.h **** {
  15:../../libDaisy//src/hid/disp/display.h **** /** 
  16:../../libDaisy//src/hid/disp/display.h ****  * This interface is used as a base class for all types of 1bit-per-pixel
  17:../../libDaisy//src/hid/disp/display.h ****  * graphics displays.
  18:../../libDaisy//src/hid/disp/display.h **** */
  19:../../libDaisy//src/hid/disp/display.h **** class OneBitGraphicsDisplay
  20:../../libDaisy//src/hid/disp/display.h **** {
  21:../../libDaisy//src/hid/disp/display.h ****   public:
  22:../../libDaisy//src/hid/disp/display.h ****     OneBitGraphicsDisplay() {}
  23:../../libDaisy//src/hid/disp/display.h ****     virtual ~OneBitGraphicsDisplay() {}
  24:../../libDaisy//src/hid/disp/display.h **** 
  25:../../libDaisy//src/hid/disp/display.h ****     virtual uint16_t Height() const = 0;
  26:../../libDaisy//src/hid/disp/display.h ****     virtual uint16_t Width() const  = 0;
  27:../../libDaisy//src/hid/disp/display.h **** 
  28:../../libDaisy//src/hid/disp/display.h ****     Rectangle GetBounds() const
  29:../../libDaisy//src/hid/disp/display.h ****     {
  30:../../libDaisy//src/hid/disp/display.h ****         return Rectangle(int16_t(Width()), int16_t(Height()));
  31:../../libDaisy//src/hid/disp/display.h ****     }
  32:../../libDaisy//src/hid/disp/display.h **** 
  33:../../libDaisy//src/hid/disp/display.h **** 
  34:../../libDaisy//src/hid/disp/display.h ****     size_t CurrentX() { return currentX_; };
  35:../../libDaisy//src/hid/disp/display.h ****     size_t CurrentY() { return currentY_; };
  36:../../libDaisy//src/hid/disp/display.h **** 
  37:../../libDaisy//src/hid/disp/display.h ****     /** 
  38:../../libDaisy//src/hid/disp/display.h ****     Fills the entire display with either on/off.
  39:../../libDaisy//src/hid/disp/display.h ****     \param on Sets on or off.
  40:../../libDaisy//src/hid/disp/display.h ****     */
  41:../../libDaisy//src/hid/disp/display.h ****     virtual void Fill(bool on) = 0;
  42:../../libDaisy//src/hid/disp/display.h **** 
  43:../../libDaisy//src/hid/disp/display.h ****     /**
  44:../../libDaisy//src/hid/disp/display.h ****     Sets the pixel at the specified coordinate to be on/off.
  45:../../libDaisy//src/hid/disp/display.h ****     \param x   x Coordinate
  46:../../libDaisy//src/hid/disp/display.h ****     \param y   y coordinate
  47:../../libDaisy//src/hid/disp/display.h ****     \param on  on or off
  48:../../libDaisy//src/hid/disp/display.h ****     */
  49:../../libDaisy//src/hid/disp/display.h ****     virtual void DrawPixel(uint_fast8_t x, uint_fast8_t y, bool on) = 0;
  50:../../libDaisy//src/hid/disp/display.h **** 
  51:../../libDaisy//src/hid/disp/display.h ****     /**
  52:../../libDaisy//src/hid/disp/display.h ****     Draws a line from (x1, y1) to (y1, y2)
  53:../../libDaisy//src/hid/disp/display.h ****     \param x1  x Coordinate of the starting point
  54:../../libDaisy//src/hid/disp/display.h ****     \param y1  y Coordinate of the starting point
  55:../../libDaisy//src/hid/disp/display.h ****     \param x2  x Coordinate of the ending point
  56:../../libDaisy//src/hid/disp/display.h ****     \param y2  y Coordinate of the ending point
  57:../../libDaisy//src/hid/disp/display.h ****     \param on  on or off
  58:../../libDaisy//src/hid/disp/display.h ****     */
ARM GAS  /var/folders/1y/_321xjh9623c014x9_qw12rr0000gn/T//cc4eHiNS.s 			page 9


  59:../../libDaisy//src/hid/disp/display.h ****     virtual void DrawLine(uint_fast8_t x1,
  60:../../libDaisy//src/hid/disp/display.h ****                           uint_fast8_t y1,
  61:../../libDaisy//src/hid/disp/display.h ****                           uint_fast8_t x2,
  62:../../libDaisy//src/hid/disp/display.h ****                           uint_fast8_t y2,
  63:../../libDaisy//src/hid/disp/display.h ****                           bool         on)
  64:../../libDaisy//src/hid/disp/display.h ****         = 0;
  65:../../libDaisy//src/hid/disp/display.h **** 
  66:../../libDaisy//src/hid/disp/display.h ****     /**
  67:../../libDaisy//src/hid/disp/display.h ****     Draws a rectangle based on two coordinates.
  68:../../libDaisy//src/hid/disp/display.h ****     \param x1 x Coordinate of the first point
  69:../../libDaisy//src/hid/disp/display.h ****     \param y1 y Coordinate of the first point
  70:../../libDaisy//src/hid/disp/display.h ****     \param x2 x Coordinate of the second point
  71:../../libDaisy//src/hid/disp/display.h ****     \param y2 y Coordinate of the second point
  72:../../libDaisy//src/hid/disp/display.h ****     \param on on or off
  73:../../libDaisy//src/hid/disp/display.h ****     \param fill fill the rectangle or draw only the outline
  74:../../libDaisy//src/hid/disp/display.h ****     */
  75:../../libDaisy//src/hid/disp/display.h ****     virtual void DrawRect(uint_fast8_t x1,
  76:../../libDaisy//src/hid/disp/display.h ****                           uint_fast8_t y1,
  77:../../libDaisy//src/hid/disp/display.h ****                           uint_fast8_t x2,
  78:../../libDaisy//src/hid/disp/display.h ****                           uint_fast8_t y2,
  79:../../libDaisy//src/hid/disp/display.h ****                           bool         on,
  80:../../libDaisy//src/hid/disp/display.h ****                           bool         fill = false)
  81:../../libDaisy//src/hid/disp/display.h ****         = 0;
  82:../../libDaisy//src/hid/disp/display.h **** 
  83:../../libDaisy//src/hid/disp/display.h ****     /**
  84:../../libDaisy//src/hid/disp/display.h ****     Draws a rectangle.
  85:../../libDaisy//src/hid/disp/display.h ****     \param rect the rectangle
  86:../../libDaisy//src/hid/disp/display.h ****     \param on   on or off
  87:../../libDaisy//src/hid/disp/display.h ****     \param fill fill the rectangle or draw only the outline
  88:../../libDaisy//src/hid/disp/display.h ****     */
  89:../../libDaisy//src/hid/disp/display.h ****     void DrawRect(const Rectangle& rect, bool on, bool fill = false)
  90:../../libDaisy//src/hid/disp/display.h ****     {
  91:../../libDaisy//src/hid/disp/display.h ****         DrawRect(rect.GetX(),
  92:../../libDaisy//src/hid/disp/display.h ****                  rect.GetY(),
  93:../../libDaisy//src/hid/disp/display.h ****                  rect.GetRight(),
  94:../../libDaisy//src/hid/disp/display.h ****                  rect.GetBottom(),
  95:../../libDaisy//src/hid/disp/display.h ****                  on,
  96:../../libDaisy//src/hid/disp/display.h ****                  fill);
  97:../../libDaisy//src/hid/disp/display.h ****     }
  98:../../libDaisy//src/hid/disp/display.h **** 
  99:../../libDaisy//src/hid/disp/display.h ****     /**
 100:../../libDaisy//src/hid/disp/display.h ****     Draws an arc around the specified coordinate
 101:../../libDaisy//src/hid/disp/display.h ****     \param x           x Coordinate of the center of the arc
 102:../../libDaisy//src/hid/disp/display.h ****     \param y           y Coordinate of the center of the arc
 103:../../libDaisy//src/hid/disp/display.h ****     \param radius      radius of the arc
 104:../../libDaisy//src/hid/disp/display.h ****     \param start_angle angle where to start the arc
 105:../../libDaisy//src/hid/disp/display.h ****     \param sweep       total angle of the arc
 106:../../libDaisy//src/hid/disp/display.h ****     \param on  on or off
 107:../../libDaisy//src/hid/disp/display.h ****     */
 108:../../libDaisy//src/hid/disp/display.h ****     virtual void DrawArc(uint_fast8_t x,
 109:../../libDaisy//src/hid/disp/display.h ****                          uint_fast8_t y,
 110:../../libDaisy//src/hid/disp/display.h ****                          uint_fast8_t radius,
 111:../../libDaisy//src/hid/disp/display.h ****                          int_fast16_t start_angle,
 112:../../libDaisy//src/hid/disp/display.h ****                          int_fast16_t sweep,
 113:../../libDaisy//src/hid/disp/display.h ****                          bool         on)
 114:../../libDaisy//src/hid/disp/display.h ****         = 0;
 115:../../libDaisy//src/hid/disp/display.h **** 
ARM GAS  /var/folders/1y/_321xjh9623c014x9_qw12rr0000gn/T//cc4eHiNS.s 			page 10


 116:../../libDaisy//src/hid/disp/display.h ****     /**
 117:../../libDaisy//src/hid/disp/display.h ****     Draws a circle around the specified coordinate
 118:../../libDaisy//src/hid/disp/display.h ****     \param x           x Coordinate of the center of the circle
 119:../../libDaisy//src/hid/disp/display.h ****     \param y           y Coordinate of the center of the circle
 120:../../libDaisy//src/hid/disp/display.h ****     \param radius      radius of the circle
 121:../../libDaisy//src/hid/disp/display.h ****     \param on  on or off
 122:../../libDaisy//src/hid/disp/display.h ****     */
 123:../../libDaisy//src/hid/disp/display.h ****     void
 124:../../libDaisy//src/hid/disp/display.h ****     DrawCircle(uint_fast8_t x, uint_fast8_t y, uint_fast8_t radius, bool on)
 125:../../libDaisy//src/hid/disp/display.h ****     {
 126:../../libDaisy//src/hid/disp/display.h ****         DrawArc(x, y, radius, 0, 360, on);
 127:../../libDaisy//src/hid/disp/display.h ****     };
 128:../../libDaisy//src/hid/disp/display.h **** 
 129:../../libDaisy//src/hid/disp/display.h ****     /** 
 130:../../libDaisy//src/hid/disp/display.h ****     Writes the character with the specific FontDef
 131:../../libDaisy//src/hid/disp/display.h ****     to the display buffer at the current Cursor position.
 132:../../libDaisy//src/hid/disp/display.h ****     \param ch character to be written
 133:../../libDaisy//src/hid/disp/display.h ****     \param font font to be written in
 134:../../libDaisy//src/hid/disp/display.h ****     \param on    on or off
 135:../../libDaisy//src/hid/disp/display.h ****     \return &
 136:../../libDaisy//src/hid/disp/display.h ****     */
 137:../../libDaisy//src/hid/disp/display.h ****     virtual char WriteChar(char ch, FontDef font, bool on) = 0;
 138:../../libDaisy//src/hid/disp/display.h **** 
 139:../../libDaisy//src/hid/disp/display.h ****     /** 
 140:../../libDaisy//src/hid/disp/display.h ****     Similar to WriteChar, except it will handle an entire String.
 141:../../libDaisy//src/hid/disp/display.h ****     Wrapping does not happen automatically, so the width
 142:../../libDaisy//src/hid/disp/display.h ****     of the string must be kept within the dimensions of the screen.
 143:../../libDaisy//src/hid/disp/display.h ****     \param str string to be written
 144:../../libDaisy//src/hid/disp/display.h ****     \param font font to use
 145:../../libDaisy//src/hid/disp/display.h ****     \param on  on or off
 146:../../libDaisy//src/hid/disp/display.h ****     \return &
 147:../../libDaisy//src/hid/disp/display.h ****     */
 148:../../libDaisy//src/hid/disp/display.h ****     virtual char WriteString(const char* str, FontDef font, bool on) = 0;
 149:../../libDaisy//src/hid/disp/display.h **** 
 150:../../libDaisy//src/hid/disp/display.h ****     /** 
 151:../../libDaisy//src/hid/disp/display.h ****     Similar to WriteString but justified within a bounding box.
 152:../../libDaisy//src/hid/disp/display.h ****     \param str          string to be written
 153:../../libDaisy//src/hid/disp/display.h ****     \param font         font to use
 154:../../libDaisy//src/hid/disp/display.h ****     \param boundingBox  the bounding box to draw the text in
 155:../../libDaisy//src/hid/disp/display.h ****     \param alignment    the alignment to use
 156:../../libDaisy//src/hid/disp/display.h ****     \param on           on or off
 157:../../libDaisy//src/hid/disp/display.h ****     \return The rectangle that was drawn to
 158:../../libDaisy//src/hid/disp/display.h ****     */
 159:../../libDaisy//src/hid/disp/display.h ****     virtual Rectangle WriteStringAligned(const char*    str,
 160:../../libDaisy//src/hid/disp/display.h ****                                          const FontDef& font,
 161:../../libDaisy//src/hid/disp/display.h ****                                          Rectangle      boundingBox,
 162:../../libDaisy//src/hid/disp/display.h ****                                          Alignment      alignment,
 163:../../libDaisy//src/hid/disp/display.h ****                                          bool           on)
 164:../../libDaisy//src/hid/disp/display.h ****         = 0;
 165:../../libDaisy//src/hid/disp/display.h **** 
 166:../../libDaisy//src/hid/disp/display.h ****     /** 
 167:../../libDaisy//src/hid/disp/display.h ****     Moves the 'Cursor' position used for WriteChar, and WriteStr to the specified coordinate.
 168:../../libDaisy//src/hid/disp/display.h ****     \param x x pos
 169:../../libDaisy//src/hid/disp/display.h ****     \param y y pos
 170:../../libDaisy//src/hid/disp/display.h ****     */
 171:../../libDaisy//src/hid/disp/display.h ****     void SetCursor(uint16_t x, uint16_t y)
 172:../../libDaisy//src/hid/disp/display.h ****     {
ARM GAS  /var/folders/1y/_321xjh9623c014x9_qw12rr0000gn/T//cc4eHiNS.s 			page 11


 173:../../libDaisy//src/hid/disp/display.h ****         currentX_ = (x >= Width()) ? Width() - 1 : x;
 174:../../libDaisy//src/hid/disp/display.h ****         currentY_ = (y >= Height()) ? Height() - 1 : y;
 175:../../libDaisy//src/hid/disp/display.h ****     }
 176:../../libDaisy//src/hid/disp/display.h **** 
 177:../../libDaisy//src/hid/disp/display.h ****     /** 
 178:../../libDaisy//src/hid/disp/display.h ****     Writes the current display buffer to the OLED device using SPI or I2C depending on 
 179:../../libDaisy//src/hid/disp/display.h ****     how the object was initialized.
 180:../../libDaisy//src/hid/disp/display.h ****     */
 181:../../libDaisy//src/hid/disp/display.h ****     virtual void Update() = 0;
 182:../../libDaisy//src/hid/disp/display.h **** 
 183:../../libDaisy//src/hid/disp/display.h ****   protected:
 184:../../libDaisy//src/hid/disp/display.h ****     uint16_t currentX_;
 185:../../libDaisy//src/hid/disp/display.h ****     uint16_t currentY_;
 186:../../libDaisy//src/hid/disp/display.h **** };
 187:../../libDaisy//src/hid/disp/display.h **** 
 188:../../libDaisy//src/hid/disp/display.h **** /** This class is intended as a intermediary class for your actual implementation of the OneBitGrap
 189:../../libDaisy//src/hid/disp/display.h ****  *  interface. It uses the CRTP design pattern where the template argument is the child class. It p
 190:../../libDaisy//src/hid/disp/display.h ****  *  implementations for most of the functions, except DrawPixel(), Update() and Fill(), which you'l
 191:../../libDaisy//src/hid/disp/display.h ****  *  to provide in your child class.
 192:../../libDaisy//src/hid/disp/display.h ****  *  The main goal of this class is to provide common drawing functions without relying on massive a
 193:../../libDaisy//src/hid/disp/display.h ****  *  virtual function calls that would result in a performance loss. To achieve this, any drawing fu
 194:../../libDaisy//src/hid/disp/display.h ****  *  is implemented here and internally calls other drawing functions (e.g. DrawRect() which interna
 195:../../libDaisy//src/hid/disp/display.h ****  *  DrawPixel() and DrawLine()) makes these calls via the qualified name of these functions to expl
 196:../../libDaisy//src/hid/disp/display.h ****  *  suppress the virtual dispatch mechanism like this:
 197:../../libDaisy//src/hid/disp/display.h ****  * 
 198:../../libDaisy//src/hid/disp/display.h ****  *      ChildType::DrawPixel(...); // no virtual function call; direct call into the child class fu
 199:../../libDaisy//src/hid/disp/display.h ****  *  
 200:../../libDaisy//src/hid/disp/display.h ****  *  To create a custom OneBitGraphicsDisplay implementation, you can 
 201:../../libDaisy//src/hid/disp/display.h ****  *  A) inherit from OneBitGraphicsDisplay directly and provide all the drawing functions yourself
 202:../../libDaisy//src/hid/disp/display.h ****  *  B) Inherit from OneBitGraphicsDisplayImpl and only provide DrawPixel(), Fill() and Update()
 203:../../libDaisy//src/hid/disp/display.h ****  *     like this:
 204:../../libDaisy//src/hid/disp/display.h ****  *  
 205:../../libDaisy//src/hid/disp/display.h ****  *      class MyDisplayClass : public OneBitGraphicsDisplayImpl<MyDisplayClass> 
 206:../../libDaisy//src/hid/disp/display.h ****  *      {
 207:../../libDaisy//src/hid/disp/display.h ****  *      public:
 208:../../libDaisy//src/hid/disp/display.h ****  *          void Fill() override { ... };
 209:../../libDaisy//src/hid/disp/display.h ****  *          void DrawPixel(uint_fast8_t x, uint_fast8_t y, bool on) override { ... };
 210:../../libDaisy//src/hid/disp/display.h ****  *          void Update() override { ... }
 211:../../libDaisy//src/hid/disp/display.h ****  *      };
 212:../../libDaisy//src/hid/disp/display.h ****  *  
 213:../../libDaisy//src/hid/disp/display.h ****  */
 214:../../libDaisy//src/hid/disp/display.h **** template <class ChildType>
 215:../../libDaisy//src/hid/disp/display.h **** class OneBitGraphicsDisplayImpl : public OneBitGraphicsDisplay
 216:../../libDaisy//src/hid/disp/display.h **** {
 217:../../libDaisy//src/hid/disp/display.h ****   public:
 218:../../libDaisy//src/hid/disp/display.h ****     OneBitGraphicsDisplayImpl() {}
 219:../../libDaisy//src/hid/disp/display.h ****     virtual ~OneBitGraphicsDisplayImpl() {}
 220:../../libDaisy//src/hid/disp/display.h **** 
 221:../../libDaisy//src/hid/disp/display.h ****     void DrawLine(uint_fast8_t x1,
 222:../../libDaisy//src/hid/disp/display.h ****                   uint_fast8_t y1,
 223:../../libDaisy//src/hid/disp/display.h ****                   uint_fast8_t x2,
 224:../../libDaisy//src/hid/disp/display.h ****                   uint_fast8_t y2,
 225:../../libDaisy//src/hid/disp/display.h ****                   bool         on) override
 226:../../libDaisy//src/hid/disp/display.h ****     {
 227:../../libDaisy//src/hid/disp/display.h ****         int_fast16_t deltaX = abs((int_fast16_t)x2 - (int_fast16_t)x1);
 228:../../libDaisy//src/hid/disp/display.h ****         int_fast16_t deltaY = abs((int_fast16_t)y2 - (int_fast16_t)y1);
 229:../../libDaisy//src/hid/disp/display.h ****         int_fast16_t signX  = ((x1 < x2) ? 1 : -1);
ARM GAS  /var/folders/1y/_321xjh9623c014x9_qw12rr0000gn/T//cc4eHiNS.s 			page 12


 230:../../libDaisy//src/hid/disp/display.h ****         int_fast16_t signY  = ((y1 < y2) ? 1 : -1);
 231:../../libDaisy//src/hid/disp/display.h ****         int_fast16_t error  = deltaX - deltaY;
 232:../../libDaisy//src/hid/disp/display.h ****         int_fast16_t error2;
 233:../../libDaisy//src/hid/disp/display.h **** 
 234:../../libDaisy//src/hid/disp/display.h ****         // If we write "ChildType::DrawPixel(x2, y2, on);", we end up with
 235:../../libDaisy//src/hid/disp/display.h ****         // all sorts of weird compiler errors when the Child class is a template
 236:../../libDaisy//src/hid/disp/display.h ****         // class. The only way around this is to use this very verbose syntax:
 237:../../libDaisy//src/hid/disp/display.h ****         ((ChildType*)(this))->ChildType::DrawPixel(x2, y2, on);
 238:../../libDaisy//src/hid/disp/display.h **** 
 239:../../libDaisy//src/hid/disp/display.h ****         while((x1 != x2) || (y1 != y2))
 240:../../libDaisy//src/hid/disp/display.h ****         {
 241:../../libDaisy//src/hid/disp/display.h ****             ((ChildType*)(this))->ChildType::DrawPixel(x1, y1, on);
 242:../../libDaisy//src/hid/disp/display.h ****             error2 = error * 2;
 243:../../libDaisy//src/hid/disp/display.h ****             if(error2 > -deltaY)
 244:../../libDaisy//src/hid/disp/display.h ****             {
 245:../../libDaisy//src/hid/disp/display.h ****                 error -= deltaY;
 246:../../libDaisy//src/hid/disp/display.h ****                 x1 += signX;
 247:../../libDaisy//src/hid/disp/display.h ****             }
 248:../../libDaisy//src/hid/disp/display.h **** 
 249:../../libDaisy//src/hid/disp/display.h ****             if(error2 < deltaX)
 250:../../libDaisy//src/hid/disp/display.h ****             {
 251:../../libDaisy//src/hid/disp/display.h ****                 error += deltaX;
 252:../../libDaisy//src/hid/disp/display.h ****                 y1 += signY;
 253:../../libDaisy//src/hid/disp/display.h ****             }
 254:../../libDaisy//src/hid/disp/display.h ****         }
 255:../../libDaisy//src/hid/disp/display.h ****     }
 256:../../libDaisy//src/hid/disp/display.h **** 
 257:../../libDaisy//src/hid/disp/display.h ****     void DrawRect(uint_fast8_t x1,
 258:../../libDaisy//src/hid/disp/display.h ****                   uint_fast8_t y1,
 259:../../libDaisy//src/hid/disp/display.h ****                   uint_fast8_t x2,
 260:../../libDaisy//src/hid/disp/display.h ****                   uint_fast8_t y2,
 261:../../libDaisy//src/hid/disp/display.h ****                   bool         on,
 262:../../libDaisy//src/hid/disp/display.h ****                   bool         fill = false) override
 263:../../libDaisy//src/hid/disp/display.h ****     {
 264:../../libDaisy//src/hid/disp/display.h ****         if(fill)
 265:../../libDaisy//src/hid/disp/display.h ****         {
 266:../../libDaisy//src/hid/disp/display.h ****             for(uint_fast8_t x = x1; x <= x2; x++)
 108              		.loc 3 266 30 view .LVU10
 109 000c 0125     		movs	r5, #1
 110              	.LBE282:
 111              	.LBE281:
 112              	.LBE280:
 113              		.loc 2 267 29 view .LVU11
 114 000e 0AF51043 		add	r3, r10, #36864
 115 0012 C3F82809 		str	r0, [r3, #2344]
 268:Dubby.cpp     ****         display.DrawRect(PANE_X_START, PANE_Y_START, PANE_X_END, PANE_Y_END, false, true);
 116              		.loc 2 268 9 is_stmt 1 view .LVU12
 117              	.LVL6:
 118              	.LBB301:
 119              	.LBI280:
 257:../../libDaisy//src/hid/disp/display.h ****                   uint_fast8_t y1,
 120              		.loc 3 257 10 view .LVU13
 121              	.LBB299:
 122              	.LBI281:
 257:../../libDaisy//src/hid/disp/display.h ****                   uint_fast8_t y1,
 123              		.loc 3 257 10 view .LVU14
 124              	.LBB297:
ARM GAS  /var/folders/1y/_321xjh9623c014x9_qw12rr0000gn/T//cc4eHiNS.s 			page 13


 125              		.loc 3 266 40 view .LVU15
 126              	.L6:
 127              	.LBB283:
 267:../../libDaisy//src/hid/disp/display.h ****             {
 268:../../libDaisy//src/hid/disp/display.h ****                 for(uint_fast8_t y = y1; y <= y2; y++)
 128              		.loc 3 268 44 view .LVU16
 129              		.loc 3 268 34 is_stmt 0 view .LVU17
 130 0016 0122     		movs	r2, #1
 131              	.LVL7:
 132              	.L5:
 133              	.LBB284:
 134              	.LBI284:
  29:../../libDaisy//src/hid/disp/oled_display.h **** 
  30:../../libDaisy//src/hid/disp/oled_display.h ****     /** 
  31:../../libDaisy//src/hid/disp/oled_display.h ****     Fills the entire display with either on/off.
  32:../../libDaisy//src/hid/disp/oled_display.h ****     \param on Sets on or off.
  33:../../libDaisy//src/hid/disp/oled_display.h ****     */
  34:../../libDaisy//src/hid/disp/oled_display.h ****     void Fill(bool on) override { driver_.Fill(on); }
  35:../../libDaisy//src/hid/disp/oled_display.h **** 
  36:../../libDaisy//src/hid/disp/oled_display.h ****     /**
  37:../../libDaisy//src/hid/disp/oled_display.h ****     Sets the pixel at the specified coordinate to be on/off.
  38:../../libDaisy//src/hid/disp/oled_display.h ****     \param x   x Coordinate
  39:../../libDaisy//src/hid/disp/oled_display.h ****     \param y   y coordinate
  40:../../libDaisy//src/hid/disp/oled_display.h ****     \param on  on or off
  41:../../libDaisy//src/hid/disp/oled_display.h ****     */
  42:../../libDaisy//src/hid/disp/oled_display.h ****     void DrawPixel(uint_fast8_t x, uint_fast8_t y, bool on) override
 135              		.loc 1 42 10 is_stmt 1 view .LVU18
 136              	.LBB285:
 137              	.LBI285:
 138              		.file 4 "../../libDaisy//src/dev/oled_ssd130x.h"
   1:../../libDaisy//src/dev/oled_ssd130x.h **** #pragma once
   2:../../libDaisy//src/dev/oled_ssd130x.h **** #ifndef SA_OLED_SSD130X_H
   3:../../libDaisy//src/dev/oled_ssd130x.h **** #define SA_OLED_SSD130X_H /**< & */
   4:../../libDaisy//src/dev/oled_ssd130x.h **** 
   5:../../libDaisy//src/dev/oled_ssd130x.h **** #include "per/i2c.h"
   6:../../libDaisy//src/dev/oled_ssd130x.h **** #include "per/spi.h"
   7:../../libDaisy//src/dev/oled_ssd130x.h **** #include "per/gpio.h"
   8:../../libDaisy//src/dev/oled_ssd130x.h **** #include "sys/system.h"
   9:../../libDaisy//src/dev/oled_ssd130x.h **** 
  10:../../libDaisy//src/dev/oled_ssd130x.h **** namespace daisy
  11:../../libDaisy//src/dev/oled_ssd130x.h **** {
  12:../../libDaisy//src/dev/oled_ssd130x.h **** /**
  13:../../libDaisy//src/dev/oled_ssd130x.h ****  * I2C Transport for SSD1306 / SSD1309 OLED display devices
  14:../../libDaisy//src/dev/oled_ssd130x.h ****  */
  15:../../libDaisy//src/dev/oled_ssd130x.h **** class SSD130xI2CTransport
  16:../../libDaisy//src/dev/oled_ssd130x.h **** {
  17:../../libDaisy//src/dev/oled_ssd130x.h ****   public:
  18:../../libDaisy//src/dev/oled_ssd130x.h ****     struct Config
  19:../../libDaisy//src/dev/oled_ssd130x.h ****     {
  20:../../libDaisy//src/dev/oled_ssd130x.h ****         Config()
  21:../../libDaisy//src/dev/oled_ssd130x.h ****         {
  22:../../libDaisy//src/dev/oled_ssd130x.h ****             // Intialize using defaults
  23:../../libDaisy//src/dev/oled_ssd130x.h ****             Defaults();
  24:../../libDaisy//src/dev/oled_ssd130x.h ****         }
  25:../../libDaisy//src/dev/oled_ssd130x.h ****         I2CHandle::Config i2c_config;
  26:../../libDaisy//src/dev/oled_ssd130x.h ****         uint8_t           i2c_address;
  27:../../libDaisy//src/dev/oled_ssd130x.h ****         void              Defaults()
ARM GAS  /var/folders/1y/_321xjh9623c014x9_qw12rr0000gn/T//cc4eHiNS.s 			page 14


  28:../../libDaisy//src/dev/oled_ssd130x.h ****         {
  29:../../libDaisy//src/dev/oled_ssd130x.h ****             i2c_config.periph         = I2CHandle::Config::Peripheral::I2C_1;
  30:../../libDaisy//src/dev/oled_ssd130x.h ****             i2c_config.speed          = I2CHandle::Config::Speed::I2C_1MHZ;
  31:../../libDaisy//src/dev/oled_ssd130x.h ****             i2c_config.mode           = I2CHandle::Config::Mode::I2C_MASTER;
  32:../../libDaisy//src/dev/oled_ssd130x.h ****             i2c_config.pin_config.scl = {DSY_GPIOB, 8};
  33:../../libDaisy//src/dev/oled_ssd130x.h ****             i2c_config.pin_config.sda = {DSY_GPIOB, 9};
  34:../../libDaisy//src/dev/oled_ssd130x.h ****             i2c_address               = 0x3C;
  35:../../libDaisy//src/dev/oled_ssd130x.h ****         }
  36:../../libDaisy//src/dev/oled_ssd130x.h ****     };
  37:../../libDaisy//src/dev/oled_ssd130x.h ****     void Init(const Config& config)
  38:../../libDaisy//src/dev/oled_ssd130x.h ****     {
  39:../../libDaisy//src/dev/oled_ssd130x.h ****         i2c_address_ = config.i2c_address;
  40:../../libDaisy//src/dev/oled_ssd130x.h ****         i2c_.Init(config.i2c_config);
  41:../../libDaisy//src/dev/oled_ssd130x.h ****     };
  42:../../libDaisy//src/dev/oled_ssd130x.h ****     void SendCommand(uint8_t cmd)
  43:../../libDaisy//src/dev/oled_ssd130x.h ****     {
  44:../../libDaisy//src/dev/oled_ssd130x.h ****         uint8_t buf[2] = {0X00, cmd};
  45:../../libDaisy//src/dev/oled_ssd130x.h ****         i2c_.TransmitBlocking(i2c_address_, buf, 2, 1000);
  46:../../libDaisy//src/dev/oled_ssd130x.h ****     };
  47:../../libDaisy//src/dev/oled_ssd130x.h **** 
  48:../../libDaisy//src/dev/oled_ssd130x.h ****     void SendData(uint8_t* buff, size_t size)
  49:../../libDaisy//src/dev/oled_ssd130x.h ****     {
  50:../../libDaisy//src/dev/oled_ssd130x.h ****         for(size_t i = 0; i < size; i++)
  51:../../libDaisy//src/dev/oled_ssd130x.h ****         {
  52:../../libDaisy//src/dev/oled_ssd130x.h ****             uint8_t buf[2] = {0X40, buff[i]};
  53:../../libDaisy//src/dev/oled_ssd130x.h ****             i2c_.TransmitBlocking(i2c_address_, buf, 2, 1000);
  54:../../libDaisy//src/dev/oled_ssd130x.h ****         }
  55:../../libDaisy//src/dev/oled_ssd130x.h ****     };
  56:../../libDaisy//src/dev/oled_ssd130x.h **** 
  57:../../libDaisy//src/dev/oled_ssd130x.h ****   private:
  58:../../libDaisy//src/dev/oled_ssd130x.h ****     daisy::I2CHandle i2c_;
  59:../../libDaisy//src/dev/oled_ssd130x.h ****     uint8_t          i2c_address_;
  60:../../libDaisy//src/dev/oled_ssd130x.h **** };
  61:../../libDaisy//src/dev/oled_ssd130x.h **** 
  62:../../libDaisy//src/dev/oled_ssd130x.h **** /**
  63:../../libDaisy//src/dev/oled_ssd130x.h ****  * 4 Wire SPI Transport for SSD1306 / SSD1309 OLED display devices
  64:../../libDaisy//src/dev/oled_ssd130x.h ****  */
  65:../../libDaisy//src/dev/oled_ssd130x.h **** class SSD130x4WireSpiTransport
  66:../../libDaisy//src/dev/oled_ssd130x.h **** {
  67:../../libDaisy//src/dev/oled_ssd130x.h ****   public:
  68:../../libDaisy//src/dev/oled_ssd130x.h ****     struct Config
  69:../../libDaisy//src/dev/oled_ssd130x.h ****     {
  70:../../libDaisy//src/dev/oled_ssd130x.h ****         Config()
  71:../../libDaisy//src/dev/oled_ssd130x.h ****         {
  72:../../libDaisy//src/dev/oled_ssd130x.h ****             // Initialize using defaults
  73:../../libDaisy//src/dev/oled_ssd130x.h ****             Defaults();
  74:../../libDaisy//src/dev/oled_ssd130x.h ****         }
  75:../../libDaisy//src/dev/oled_ssd130x.h ****         SpiHandle::Config spi_config;
  76:../../libDaisy//src/dev/oled_ssd130x.h ****         struct
  77:../../libDaisy//src/dev/oled_ssd130x.h ****         {
  78:../../libDaisy//src/dev/oled_ssd130x.h ****             dsy_gpio_pin dc;    /**< & */
  79:../../libDaisy//src/dev/oled_ssd130x.h ****             dsy_gpio_pin reset; /**< & */
  80:../../libDaisy//src/dev/oled_ssd130x.h ****         } pin_config;
  81:../../libDaisy//src/dev/oled_ssd130x.h ****         void Defaults()
  82:../../libDaisy//src/dev/oled_ssd130x.h ****         {
  83:../../libDaisy//src/dev/oled_ssd130x.h ****             // SPI peripheral config
  84:../../libDaisy//src/dev/oled_ssd130x.h ****             spi_config.periph = SpiHandle::Config::Peripheral::SPI_1;
ARM GAS  /var/folders/1y/_321xjh9623c014x9_qw12rr0000gn/T//cc4eHiNS.s 			page 15


  85:../../libDaisy//src/dev/oled_ssd130x.h ****             spi_config.mode   = SpiHandle::Config::Mode::MASTER;
  86:../../libDaisy//src/dev/oled_ssd130x.h ****             spi_config.direction
  87:../../libDaisy//src/dev/oled_ssd130x.h ****                 = SpiHandle::Config::Direction::TWO_LINES_TX_ONLY;
  88:../../libDaisy//src/dev/oled_ssd130x.h ****             spi_config.datasize       = 8;
  89:../../libDaisy//src/dev/oled_ssd130x.h ****             spi_config.clock_polarity = SpiHandle::Config::ClockPolarity::LOW;
  90:../../libDaisy//src/dev/oled_ssd130x.h ****             spi_config.clock_phase    = SpiHandle::Config::ClockPhase::ONE_EDGE;
  91:../../libDaisy//src/dev/oled_ssd130x.h ****             spi_config.nss            = SpiHandle::Config::NSS::HARD_OUTPUT;
  92:../../libDaisy//src/dev/oled_ssd130x.h ****             spi_config.baud_prescaler = SpiHandle::Config::BaudPrescaler::PS_8;
  93:../../libDaisy//src/dev/oled_ssd130x.h ****             // SPI pin config
  94:../../libDaisy//src/dev/oled_ssd130x.h ****             spi_config.pin_config.sclk = {DSY_GPIOG, 11};
  95:../../libDaisy//src/dev/oled_ssd130x.h ****             spi_config.pin_config.miso = {DSY_GPIOX, 0};
  96:../../libDaisy//src/dev/oled_ssd130x.h ****             spi_config.pin_config.mosi = {DSY_GPIOB, 5};
  97:../../libDaisy//src/dev/oled_ssd130x.h ****             spi_config.pin_config.nss  = {DSY_GPIOG, 10};
  98:../../libDaisy//src/dev/oled_ssd130x.h ****             // SSD130x control pin config
  99:../../libDaisy//src/dev/oled_ssd130x.h ****             pin_config.dc    = {DSY_GPIOB, 4};
 100:../../libDaisy//src/dev/oled_ssd130x.h ****             pin_config.reset = {DSY_GPIOB, 15};
 101:../../libDaisy//src/dev/oled_ssd130x.h ****         }
 102:../../libDaisy//src/dev/oled_ssd130x.h ****     };
 103:../../libDaisy//src/dev/oled_ssd130x.h ****     void Init(const Config& config)
 104:../../libDaisy//src/dev/oled_ssd130x.h ****     {
 105:../../libDaisy//src/dev/oled_ssd130x.h ****         // Initialize both GPIO
 106:../../libDaisy//src/dev/oled_ssd130x.h ****         pin_dc_.mode = DSY_GPIO_MODE_OUTPUT_PP;
 107:../../libDaisy//src/dev/oled_ssd130x.h ****         pin_dc_.pin  = config.pin_config.dc;
 108:../../libDaisy//src/dev/oled_ssd130x.h ****         dsy_gpio_init(&pin_dc_);
 109:../../libDaisy//src/dev/oled_ssd130x.h ****         pin_reset_.mode = DSY_GPIO_MODE_OUTPUT_PP;
 110:../../libDaisy//src/dev/oled_ssd130x.h ****         pin_reset_.pin  = config.pin_config.reset;
 111:../../libDaisy//src/dev/oled_ssd130x.h ****         dsy_gpio_init(&pin_reset_);
 112:../../libDaisy//src/dev/oled_ssd130x.h **** 
 113:../../libDaisy//src/dev/oled_ssd130x.h ****         // Initialize SPI
 114:../../libDaisy//src/dev/oled_ssd130x.h ****         spi_.Init(config.spi_config);
 115:../../libDaisy//src/dev/oled_ssd130x.h **** 
 116:../../libDaisy//src/dev/oled_ssd130x.h ****         // Reset and Configure OLED.
 117:../../libDaisy//src/dev/oled_ssd130x.h ****         dsy_gpio_write(&pin_reset_, 0);
 118:../../libDaisy//src/dev/oled_ssd130x.h ****         System::Delay(10);
 119:../../libDaisy//src/dev/oled_ssd130x.h ****         dsy_gpio_write(&pin_reset_, 1);
 120:../../libDaisy//src/dev/oled_ssd130x.h ****         System::Delay(10);
 121:../../libDaisy//src/dev/oled_ssd130x.h ****     };
 122:../../libDaisy//src/dev/oled_ssd130x.h ****     void SendCommand(uint8_t cmd)
 123:../../libDaisy//src/dev/oled_ssd130x.h ****     {
 124:../../libDaisy//src/dev/oled_ssd130x.h ****         dsy_gpio_write(&pin_dc_, 0);
 125:../../libDaisy//src/dev/oled_ssd130x.h ****         spi_.BlockingTransmit(&cmd, 1);
 126:../../libDaisy//src/dev/oled_ssd130x.h ****     };
 127:../../libDaisy//src/dev/oled_ssd130x.h **** 
 128:../../libDaisy//src/dev/oled_ssd130x.h ****     void SendData(uint8_t* buff, size_t size)
 129:../../libDaisy//src/dev/oled_ssd130x.h ****     {
 130:../../libDaisy//src/dev/oled_ssd130x.h ****         dsy_gpio_write(&pin_dc_, 1);
 131:../../libDaisy//src/dev/oled_ssd130x.h ****         spi_.BlockingTransmit(buff, size);
 132:../../libDaisy//src/dev/oled_ssd130x.h ****     };
 133:../../libDaisy//src/dev/oled_ssd130x.h **** 
 134:../../libDaisy//src/dev/oled_ssd130x.h ****   private:
 135:../../libDaisy//src/dev/oled_ssd130x.h ****     SpiHandle spi_;
 136:../../libDaisy//src/dev/oled_ssd130x.h ****     dsy_gpio  pin_reset_;
 137:../../libDaisy//src/dev/oled_ssd130x.h ****     dsy_gpio  pin_dc_;
 138:../../libDaisy//src/dev/oled_ssd130x.h **** };
 139:../../libDaisy//src/dev/oled_ssd130x.h **** 
 140:../../libDaisy//src/dev/oled_ssd130x.h **** /**
 141:../../libDaisy//src/dev/oled_ssd130x.h ****  * Soft SPI Transport for SSD1306 / SSD1309 OLED display devices
ARM GAS  /var/folders/1y/_321xjh9623c014x9_qw12rr0000gn/T//cc4eHiNS.s 			page 16


 142:../../libDaisy//src/dev/oled_ssd130x.h ****  */
 143:../../libDaisy//src/dev/oled_ssd130x.h **** class SSD130x4WireSoftSpiTransport
 144:../../libDaisy//src/dev/oled_ssd130x.h **** {
 145:../../libDaisy//src/dev/oled_ssd130x.h ****   public:
 146:../../libDaisy//src/dev/oled_ssd130x.h ****     struct Config
 147:../../libDaisy//src/dev/oled_ssd130x.h ****     {
 148:../../libDaisy//src/dev/oled_ssd130x.h ****         Config()
 149:../../libDaisy//src/dev/oled_ssd130x.h ****         {
 150:../../libDaisy//src/dev/oled_ssd130x.h ****             // Initialize using defaults
 151:../../libDaisy//src/dev/oled_ssd130x.h ****             Defaults();
 152:../../libDaisy//src/dev/oled_ssd130x.h ****         }
 153:../../libDaisy//src/dev/oled_ssd130x.h ****         struct
 154:../../libDaisy//src/dev/oled_ssd130x.h ****         {
 155:../../libDaisy//src/dev/oled_ssd130x.h ****             uint32_t     sclk_delay;
 156:../../libDaisy//src/dev/oled_ssd130x.h ****             dsy_gpio_pin sclk;
 157:../../libDaisy//src/dev/oled_ssd130x.h ****             dsy_gpio_pin mosi;
 158:../../libDaisy//src/dev/oled_ssd130x.h ****             dsy_gpio_pin dc;
 159:../../libDaisy//src/dev/oled_ssd130x.h ****             dsy_gpio_pin reset;
 160:../../libDaisy//src/dev/oled_ssd130x.h ****         } pin_config;
 161:../../libDaisy//src/dev/oled_ssd130x.h ****         void Defaults()
 162:../../libDaisy//src/dev/oled_ssd130x.h ****         {
 163:../../libDaisy//src/dev/oled_ssd130x.h ****             pin_config.sclk_delay = 0; // fast as possible?!
 164:../../libDaisy//src/dev/oled_ssd130x.h ****             // SPI peripheral config
 165:../../libDaisy//src/dev/oled_ssd130x.h ****             pin_config.sclk = {DSY_GPIOD, 3}; /**< D10 - SPI2 SCK  */
 166:../../libDaisy//src/dev/oled_ssd130x.h ****             pin_config.mosi = {DSY_GPIOC, 3}; /**< D9  - SPI2 MOSI */
 167:../../libDaisy//src/dev/oled_ssd130x.h ****             // SSD130x control pin config
 168:../../libDaisy//src/dev/oled_ssd130x.h ****             pin_config.dc    = {DSY_GPIOC, 11}; //D2
 169:../../libDaisy//src/dev/oled_ssd130x.h ****             pin_config.reset = {DSY_GPIOC, 10}; //D3
 170:../../libDaisy//src/dev/oled_ssd130x.h ****         }
 171:../../libDaisy//src/dev/oled_ssd130x.h ****     };
 172:../../libDaisy//src/dev/oled_ssd130x.h ****     void Init(const Config& config)
 173:../../libDaisy//src/dev/oled_ssd130x.h ****     {
 174:../../libDaisy//src/dev/oled_ssd130x.h ****         // Initialize both GPIO
 175:../../libDaisy//src/dev/oled_ssd130x.h ****         pin_sclk_.mode = DSY_GPIO_MODE_OUTPUT_PP;
 176:../../libDaisy//src/dev/oled_ssd130x.h ****         pin_sclk_.pin  = config.pin_config.sclk;
 177:../../libDaisy//src/dev/oled_ssd130x.h ****         dsy_gpio_init(&pin_sclk_);
 178:../../libDaisy//src/dev/oled_ssd130x.h ****         dsy_gpio_write(&pin_sclk_, 1); //ClockPolarity::LOW
 179:../../libDaisy//src/dev/oled_ssd130x.h ****         clk_delay      = config.pin_config.sclk_delay;
 180:../../libDaisy//src/dev/oled_ssd130x.h ****         pin_mosi_.mode = DSY_GPIO_MODE_OUTPUT_PP;
 181:../../libDaisy//src/dev/oled_ssd130x.h ****         pin_mosi_.pin  = config.pin_config.mosi;
 182:../../libDaisy//src/dev/oled_ssd130x.h ****         dsy_gpio_init(&pin_mosi_);
 183:../../libDaisy//src/dev/oled_ssd130x.h ****         dsy_gpio_write(&pin_mosi_, 0);
 184:../../libDaisy//src/dev/oled_ssd130x.h **** 
 185:../../libDaisy//src/dev/oled_ssd130x.h ****         pin_dc_.mode = DSY_GPIO_MODE_OUTPUT_PP;
 186:../../libDaisy//src/dev/oled_ssd130x.h ****         pin_dc_.pin  = config.pin_config.dc;
 187:../../libDaisy//src/dev/oled_ssd130x.h ****         dsy_gpio_init(&pin_dc_);
 188:../../libDaisy//src/dev/oled_ssd130x.h ****         pin_reset_.mode = DSY_GPIO_MODE_OUTPUT_PP;
 189:../../libDaisy//src/dev/oled_ssd130x.h ****         pin_reset_.pin  = config.pin_config.reset;
 190:../../libDaisy//src/dev/oled_ssd130x.h ****         dsy_gpio_init(&pin_reset_);
 191:../../libDaisy//src/dev/oled_ssd130x.h **** 
 192:../../libDaisy//src/dev/oled_ssd130x.h ****         // Reset and Configure OLED.
 193:../../libDaisy//src/dev/oled_ssd130x.h ****         dsy_gpio_write(&pin_reset_, 0);
 194:../../libDaisy//src/dev/oled_ssd130x.h ****         System::Delay(10);
 195:../../libDaisy//src/dev/oled_ssd130x.h ****         dsy_gpio_write(&pin_reset_, 1);
 196:../../libDaisy//src/dev/oled_ssd130x.h ****         System::Delay(10);
 197:../../libDaisy//src/dev/oled_ssd130x.h ****     };
 198:../../libDaisy//src/dev/oled_ssd130x.h ****     void SendCommand(uint8_t cmd)
ARM GAS  /var/folders/1y/_321xjh9623c014x9_qw12rr0000gn/T//cc4eHiNS.s 			page 17


 199:../../libDaisy//src/dev/oled_ssd130x.h ****     {
 200:../../libDaisy//src/dev/oled_ssd130x.h ****         dsy_gpio_write(&pin_dc_, 0);
 201:../../libDaisy//src/dev/oled_ssd130x.h ****         SoftSpiTransmit(cmd);
 202:../../libDaisy//src/dev/oled_ssd130x.h ****     };
 203:../../libDaisy//src/dev/oled_ssd130x.h **** 
 204:../../libDaisy//src/dev/oled_ssd130x.h ****     void SendData(uint8_t* buff, size_t size)
 205:../../libDaisy//src/dev/oled_ssd130x.h ****     {
 206:../../libDaisy//src/dev/oled_ssd130x.h ****         dsy_gpio_write(&pin_dc_, 1);
 207:../../libDaisy//src/dev/oled_ssd130x.h ****         for(size_t i = 0; i < size; i++)
 208:../../libDaisy//src/dev/oled_ssd130x.h ****             SoftSpiTransmit(buff[i]);
 209:../../libDaisy//src/dev/oled_ssd130x.h ****     };
 210:../../libDaisy//src/dev/oled_ssd130x.h **** 
 211:../../libDaisy//src/dev/oled_ssd130x.h ****   private:
 212:../../libDaisy//src/dev/oled_ssd130x.h ****     void SoftSpiTransmit(uint8_t val)
 213:../../libDaisy//src/dev/oled_ssd130x.h ****     {
 214:../../libDaisy//src/dev/oled_ssd130x.h ****         // bit flip
 215:../../libDaisy//src/dev/oled_ssd130x.h ****         val = ((val & 0x01) << 7) | ((val & 0x02) << 5) | ((val & 0x04) << 3)
 216:../../libDaisy//src/dev/oled_ssd130x.h ****               | ((val & 0x08) << 1) | ((val & 0x10) >> 1) | ((val & 0x20) >> 3)
 217:../../libDaisy//src/dev/oled_ssd130x.h ****               | ((val & 0x40) >> 5) | ((val & 0x80) >> 7);
 218:../../libDaisy//src/dev/oled_ssd130x.h **** 
 219:../../libDaisy//src/dev/oled_ssd130x.h ****         for(uint8_t bit = 0u; bit < 8u; bit++)
 220:../../libDaisy//src/dev/oled_ssd130x.h ****         {
 221:../../libDaisy//src/dev/oled_ssd130x.h ****             dsy_gpio_write(&pin_mosi_, ((val & (1 << bit)) ? 1 : 0));
 222:../../libDaisy//src/dev/oled_ssd130x.h **** 
 223:../../libDaisy//src/dev/oled_ssd130x.h ****             System::DelayTicks(clk_delay);
 224:../../libDaisy//src/dev/oled_ssd130x.h **** 
 225:../../libDaisy//src/dev/oled_ssd130x.h ****             dsy_gpio_toggle(&pin_sclk_);
 226:../../libDaisy//src/dev/oled_ssd130x.h **** 
 227:../../libDaisy//src/dev/oled_ssd130x.h ****             System::DelayTicks(clk_delay);
 228:../../libDaisy//src/dev/oled_ssd130x.h **** 
 229:../../libDaisy//src/dev/oled_ssd130x.h ****             dsy_gpio_toggle(&pin_sclk_);
 230:../../libDaisy//src/dev/oled_ssd130x.h ****         }
 231:../../libDaisy//src/dev/oled_ssd130x.h ****     }
 232:../../libDaisy//src/dev/oled_ssd130x.h **** 
 233:../../libDaisy//src/dev/oled_ssd130x.h ****     uint32_t clk_delay;
 234:../../libDaisy//src/dev/oled_ssd130x.h ****     dsy_gpio pin_sclk_;
 235:../../libDaisy//src/dev/oled_ssd130x.h ****     dsy_gpio pin_mosi_;
 236:../../libDaisy//src/dev/oled_ssd130x.h ****     dsy_gpio pin_reset_;
 237:../../libDaisy//src/dev/oled_ssd130x.h ****     dsy_gpio pin_dc_;
 238:../../libDaisy//src/dev/oled_ssd130x.h **** };
 239:../../libDaisy//src/dev/oled_ssd130x.h **** 
 240:../../libDaisy//src/dev/oled_ssd130x.h **** 
 241:../../libDaisy//src/dev/oled_ssd130x.h **** /**
 242:../../libDaisy//src/dev/oled_ssd130x.h ****  * A driver implementation for the SSD1306/SSD1309
 243:../../libDaisy//src/dev/oled_ssd130x.h ****  */
 244:../../libDaisy//src/dev/oled_ssd130x.h **** template <size_t width, size_t height, typename Transport>
 245:../../libDaisy//src/dev/oled_ssd130x.h **** class SSD130xDriver
 246:../../libDaisy//src/dev/oled_ssd130x.h **** {
 247:../../libDaisy//src/dev/oled_ssd130x.h ****   public:
 248:../../libDaisy//src/dev/oled_ssd130x.h ****     struct Config
 249:../../libDaisy//src/dev/oled_ssd130x.h ****     {
 250:../../libDaisy//src/dev/oled_ssd130x.h ****         typename Transport::Config transport_config;
 251:../../libDaisy//src/dev/oled_ssd130x.h ****     };
 252:../../libDaisy//src/dev/oled_ssd130x.h **** 
 253:../../libDaisy//src/dev/oled_ssd130x.h ****     void Init(Config config)
 254:../../libDaisy//src/dev/oled_ssd130x.h ****     {
 255:../../libDaisy//src/dev/oled_ssd130x.h ****         transport_.Init(config.transport_config);
ARM GAS  /var/folders/1y/_321xjh9623c014x9_qw12rr0000gn/T//cc4eHiNS.s 			page 18


 256:../../libDaisy//src/dev/oled_ssd130x.h **** 
 257:../../libDaisy//src/dev/oled_ssd130x.h ****         // Init routine...
 258:../../libDaisy//src/dev/oled_ssd130x.h **** 
 259:../../libDaisy//src/dev/oled_ssd130x.h ****         // Display Off
 260:../../libDaisy//src/dev/oled_ssd130x.h ****         transport_.SendCommand(0xaE);
 261:../../libDaisy//src/dev/oled_ssd130x.h ****         // Dimension dependent commands...
 262:../../libDaisy//src/dev/oled_ssd130x.h ****         switch(height)
 263:../../libDaisy//src/dev/oled_ssd130x.h ****         {
 264:../../libDaisy//src/dev/oled_ssd130x.h ****             case 16:
 265:../../libDaisy//src/dev/oled_ssd130x.h ****                 // Display Clock Divide Ratio
 266:../../libDaisy//src/dev/oled_ssd130x.h ****                 transport_.SendCommand(0xD5);
 267:../../libDaisy//src/dev/oled_ssd130x.h ****                 transport_.SendCommand(0x60);
 268:../../libDaisy//src/dev/oled_ssd130x.h ****                 // Multiplex Ratio
 269:../../libDaisy//src/dev/oled_ssd130x.h ****                 transport_.SendCommand(0xA8);
 270:../../libDaisy//src/dev/oled_ssd130x.h ****                 transport_.SendCommand(0x0F);
 271:../../libDaisy//src/dev/oled_ssd130x.h ****                 // COM Pins
 272:../../libDaisy//src/dev/oled_ssd130x.h ****                 transport_.SendCommand(0xDA);
 273:../../libDaisy//src/dev/oled_ssd130x.h ****                 transport_.SendCommand(0x02);
 274:../../libDaisy//src/dev/oled_ssd130x.h ****                 break;
 275:../../libDaisy//src/dev/oled_ssd130x.h ****             case 32:
 276:../../libDaisy//src/dev/oled_ssd130x.h ****                 // Display Clock Divide Ratio
 277:../../libDaisy//src/dev/oled_ssd130x.h ****                 transport_.SendCommand(0xD5);
 278:../../libDaisy//src/dev/oled_ssd130x.h ****                 transport_.SendCommand(0x80);
 279:../../libDaisy//src/dev/oled_ssd130x.h ****                 // Multiplex Ratio
 280:../../libDaisy//src/dev/oled_ssd130x.h ****                 transport_.SendCommand(0xA8);
 281:../../libDaisy//src/dev/oled_ssd130x.h ****                 transport_.SendCommand(0x1F);
 282:../../libDaisy//src/dev/oled_ssd130x.h ****                 // COM Pins
 283:../../libDaisy//src/dev/oled_ssd130x.h ****                 transport_.SendCommand(0xDA);
 284:../../libDaisy//src/dev/oled_ssd130x.h ****                 if(width == 64)
 285:../../libDaisy//src/dev/oled_ssd130x.h ****                 {
 286:../../libDaisy//src/dev/oled_ssd130x.h ****                     transport_.SendCommand(0x12);
 287:../../libDaisy//src/dev/oled_ssd130x.h ****                 }
 288:../../libDaisy//src/dev/oled_ssd130x.h ****                 else
 289:../../libDaisy//src/dev/oled_ssd130x.h ****                 {
 290:../../libDaisy//src/dev/oled_ssd130x.h ****                     transport_.SendCommand(0x02);
 291:../../libDaisy//src/dev/oled_ssd130x.h ****                 }
 292:../../libDaisy//src/dev/oled_ssd130x.h **** 
 293:../../libDaisy//src/dev/oled_ssd130x.h ****                 break;
 294:../../libDaisy//src/dev/oled_ssd130x.h ****             case 48:
 295:../../libDaisy//src/dev/oled_ssd130x.h ****                 // Display Clock Divide Ratio
 296:../../libDaisy//src/dev/oled_ssd130x.h ****                 transport_.SendCommand(0xD5);
 297:../../libDaisy//src/dev/oled_ssd130x.h ****                 transport_.SendCommand(0x80);
 298:../../libDaisy//src/dev/oled_ssd130x.h ****                 // Multiplex Ratio
 299:../../libDaisy//src/dev/oled_ssd130x.h ****                 transport_.SendCommand(0xA8);
 300:../../libDaisy//src/dev/oled_ssd130x.h ****                 transport_.SendCommand(0x2F);
 301:../../libDaisy//src/dev/oled_ssd130x.h ****                 // COM Pins
 302:../../libDaisy//src/dev/oled_ssd130x.h ****                 transport_.SendCommand(0xDA);
 303:../../libDaisy//src/dev/oled_ssd130x.h ****                 transport_.SendCommand(0x12);
 304:../../libDaisy//src/dev/oled_ssd130x.h ****                 break;
 305:../../libDaisy//src/dev/oled_ssd130x.h ****             default: // 128
 306:../../libDaisy//src/dev/oled_ssd130x.h ****                 // Display Clock Divide Ratio
 307:../../libDaisy//src/dev/oled_ssd130x.h ****                 transport_.SendCommand(0xD5);
 308:../../libDaisy//src/dev/oled_ssd130x.h ****                 transport_.SendCommand(0x80);
 309:../../libDaisy//src/dev/oled_ssd130x.h ****                 // Multiplex Ratio
 310:../../libDaisy//src/dev/oled_ssd130x.h ****                 transport_.SendCommand(0xA8);
 311:../../libDaisy//src/dev/oled_ssd130x.h ****                 transport_.SendCommand(0x3F);
 312:../../libDaisy//src/dev/oled_ssd130x.h ****                 // COM Pins
ARM GAS  /var/folders/1y/_321xjh9623c014x9_qw12rr0000gn/T//cc4eHiNS.s 			page 19


 313:../../libDaisy//src/dev/oled_ssd130x.h ****                 transport_.SendCommand(0xDA);
 314:../../libDaisy//src/dev/oled_ssd130x.h ****                 transport_.SendCommand(0x12);
 315:../../libDaisy//src/dev/oled_ssd130x.h ****                 break;
 316:../../libDaisy//src/dev/oled_ssd130x.h ****         }
 317:../../libDaisy//src/dev/oled_ssd130x.h **** 
 318:../../libDaisy//src/dev/oled_ssd130x.h ****         // Display Offset
 319:../../libDaisy//src/dev/oled_ssd130x.h ****         transport_.SendCommand(0xD3);
 320:../../libDaisy//src/dev/oled_ssd130x.h ****         transport_.SendCommand(0x00);
 321:../../libDaisy//src/dev/oled_ssd130x.h ****         // Start Line Address
 322:../../libDaisy//src/dev/oled_ssd130x.h ****         transport_.SendCommand(0x40);
 323:../../libDaisy//src/dev/oled_ssd130x.h ****         // Normal Display
 324:../../libDaisy//src/dev/oled_ssd130x.h ****         transport_.SendCommand(0xA6);
 325:../../libDaisy//src/dev/oled_ssd130x.h ****         // All On Resume
 326:../../libDaisy//src/dev/oled_ssd130x.h ****         transport_.SendCommand(0xA4);
 327:../../libDaisy//src/dev/oled_ssd130x.h ****         // Charge Pump
 328:../../libDaisy//src/dev/oled_ssd130x.h ****         transport_.SendCommand(0x8D);
 329:../../libDaisy//src/dev/oled_ssd130x.h ****         transport_.SendCommand(0x14);
 330:../../libDaisy//src/dev/oled_ssd130x.h ****         // Set Segment Remap
 331:../../libDaisy//src/dev/oled_ssd130x.h ****         transport_.SendCommand(0xA1);
 332:../../libDaisy//src/dev/oled_ssd130x.h ****         // COM Output Scan Direction
 333:../../libDaisy//src/dev/oled_ssd130x.h ****         transport_.SendCommand(0xC8);
 334:../../libDaisy//src/dev/oled_ssd130x.h ****         // Contrast Control
 335:../../libDaisy//src/dev/oled_ssd130x.h ****         transport_.SendCommand(0x81);
 336:../../libDaisy//src/dev/oled_ssd130x.h ****         transport_.SendCommand(0x8F);
 337:../../libDaisy//src/dev/oled_ssd130x.h ****         // Pre Charge
 338:../../libDaisy//src/dev/oled_ssd130x.h ****         transport_.SendCommand(0xD9);
 339:../../libDaisy//src/dev/oled_ssd130x.h ****         transport_.SendCommand(0x25);
 340:../../libDaisy//src/dev/oled_ssd130x.h ****         // VCOM Detect
 341:../../libDaisy//src/dev/oled_ssd130x.h ****         transport_.SendCommand(0xDB);
 342:../../libDaisy//src/dev/oled_ssd130x.h ****         transport_.SendCommand(0x34);
 343:../../libDaisy//src/dev/oled_ssd130x.h **** 
 344:../../libDaisy//src/dev/oled_ssd130x.h **** 
 345:../../libDaisy//src/dev/oled_ssd130x.h ****         // Display On
 346:../../libDaisy//src/dev/oled_ssd130x.h ****         transport_.SendCommand(0xAF); //--turn on oled panel
 347:../../libDaisy//src/dev/oled_ssd130x.h ****     };
 348:../../libDaisy//src/dev/oled_ssd130x.h **** 
 349:../../libDaisy//src/dev/oled_ssd130x.h ****     size_t Width() const { return width; };
 350:../../libDaisy//src/dev/oled_ssd130x.h ****     size_t Height() const { return height; };
 351:../../libDaisy//src/dev/oled_ssd130x.h **** 
 352:../../libDaisy//src/dev/oled_ssd130x.h ****     void DrawPixel(uint_fast8_t x, uint_fast8_t y, bool on)
 139              		.loc 4 352 10 view .LVU19
 140              	.LBB286:
 141              	.LBI286:
 142              		.loc 4 352 10 view .LVU20
 143              	.LBB287:
 353:../../libDaisy//src/dev/oled_ssd130x.h ****     {
 354:../../libDaisy//src/dev/oled_ssd130x.h ****         if(x >= width || y >= height)
 355:../../libDaisy//src/dev/oled_ssd130x.h ****             return;
 356:../../libDaisy//src/dev/oled_ssd130x.h ****         if(on)
 357:../../libDaisy//src/dev/oled_ssd130x.h ****             buffer_[x + (y / 8) * width] |= (1 << (y % 8));
 358:../../libDaisy//src/dev/oled_ssd130x.h ****         else
 359:../../libDaisy//src/dev/oled_ssd130x.h ****             buffer_[x + (y / 8) * width] &= ~(1 << (y % 8));
 144              		.loc 4 359 28 is_stmt 0 view .LVU21
 145 0018 D308     		lsrs	r3, r2, #3
 146              		.loc 4 359 55 view .LVU22
 147 001a 02F00701 		and	r1, r2, #7
 148              		.loc 4 359 49 view .LVU23
ARM GAS  /var/folders/1y/_321xjh9623c014x9_qw12rr0000gn/T//cc4eHiNS.s 			page 20


 149 001e 0124     		movs	r4, #1
 150              		.loc 4 359 42 view .LVU24
 151 0020 05EBC313 		add	r3, r5, r3, lsl #7
 152              		.loc 4 359 49 view .LVU25
 153 0024 04FA01F0 		lsl	r0, r4, r1
 154              	.LBE287:
 155              	.LBE286:
 156              	.LBE285:
 157              	.LBE284:
 158              		.loc 3 268 17 view .LVU26
 159 0028 2244     		add	r2, r2, r4
 160              	.LVL8:
 161              	.LBB294:
 162              	.LBB292:
 163              	.LBB290:
 164              	.LBB288:
 165              		.loc 4 359 42 view .LVU27
 166 002a 5344     		add	r3, r3, r10
 167              	.LBE288:
 168              	.LBE290:
 169              	.LBE292:
 170              	.LBE294:
 171              		.loc 3 268 44 view .LVU28
 172 002c 342A     		cmp	r2, #52
 173              	.LBB295:
 174              	.LBB293:
 175              	.LBB291:
 176              	.LBB289:
 177              		.loc 4 359 42 view .LVU29
 178 002e 93F86414 		ldrb	r1, [r3, #1124]	@ zero_extendqisi2
 179 0032 21EA0001 		bic	r1, r1, r0
 180 0036 83F86414 		strb	r1, [r3, #1124]
 181              	.LVL9:
 182              		.loc 4 359 42 view .LVU30
 183              	.LBE289:
 184              	.LBE291:
 185              	.LBE293:
 186              	.LBE295:
 187              		.loc 3 268 17 is_stmt 1 view .LVU31
 188              		.loc 3 268 44 view .LVU32
 189 003a EDD1     		bne	.L5
 190              	.LBE283:
 266:../../libDaisy//src/hid/disp/display.h ****             {
 191              		.loc 3 266 13 view .LVU33
 192 003c 2544     		add	r5, r5, r4
 193              	.LVL10:
 266:../../libDaisy//src/hid/disp/display.h ****             {
 194              		.loc 3 266 40 view .LVU34
 195 003e 7F2D     		cmp	r5, #127
 196 0040 E9D1     		bne	.L6
 197 0042 0023     		movs	r3, #0
 198 0044 0AF51072 		add	r2, r10, #576
 199              	.LVL11:
 266:../../libDaisy//src/hid/disp/display.h ****             {
 200              		.loc 3 266 40 is_stmt 0 view .LVU35
 201 0048 A146     		mov	r9, r4
 202              	.LBE297:
ARM GAS  /var/folders/1y/_321xjh9623c014x9_qw12rr0000gn/T//cc4eHiNS.s 			page 21


 203              	.LBE299:
 204              	.LBE301:
 269:Dubby.cpp     ****         int prev_x = 0;
 270:Dubby.cpp     ****         int prev_y = (OLED_HEIGHT - 15) / 2;
 205              		.loc 2 270 13 view .LVU36
 206 004a 1826     		movs	r6, #24
 207              	.LBB302:
 208              	.LBB300:
 209              	.LBB298:
 266:../../libDaisy//src/hid/disp/display.h ****             {
 210              		.loc 3 266 40 view .LVU37
 211 004c 0193     		str	r3, [sp, #4]
 212 004e 0492     		str	r2, [sp, #16]
 213 0050 06E0     		b	.L21
 214              	.LVL12:
 215              	.L9:
 266:../../libDaisy//src/hid/disp/display.h ****             {
 216              		.loc 3 266 40 view .LVU38
 217 0052 019B     		ldr	r3, [sp, #4]
 218 0054 09F10109 		add	r9, r9, #1
 219              	.LVL13:
 220              	.LBB296:
 221              		.loc 3 268 34 view .LVU39
 222 0058 2646     		mov	r6, r4
 223 005a 7E33     		adds	r3, r3, #126
 224 005c 0193     		str	r3, [sp, #4]
 225              	.LBE296:
 226              	.LBE298:
 227              	.LBE300:
 228              	.LBE302:
 229              	.LBB303:
 230              	.LBB304:
 271:Dubby.cpp     ****         for(size_t i = 0; i < AUDIO_BLOCK_SIZE; i++)
 272:Dubby.cpp     ****         {
 273:Dubby.cpp     ****             int y = 1 + std::min(std::max((OLED_HEIGHT - 15) / 2
 274:Dubby.cpp     ****                                         - int(scope_buffer[i] * 150),
 275:Dubby.cpp     ****                                     0),
 276:Dubby.cpp     ****                             OLED_HEIGHT - 15);
 277:Dubby.cpp     ****             int x = 1 + i * (OLED_WIDTH - 2) / AUDIO_BLOCK_SIZE;
 278:Dubby.cpp     ****             if(i != 0)
 279:Dubby.cpp     ****             {
 280:Dubby.cpp     ****                 display.DrawLine(prev_x, prev_y, x, y, true);
 281:Dubby.cpp     ****             }
 282:Dubby.cpp     ****             prev_x = x;
 231              		.loc 2 282 20 view .LVU40
 232 005e 2B46     		mov	r3, r5
 233              	.LVL14:
 234              	.L21:
 273:Dubby.cpp     ****                                         - int(scope_buffer[i] * 150),
 235              		.loc 2 273 13 is_stmt 1 view .LVU41
 236              	.LBB305:
 237              	.LBI305:
 238              		.file 5 "/Library/DaisyToolchain/0.2.0/arm/arm-none-eabi/include/c++/10.3.1/bits/stl_algobase.h"
   1:/Library/DaisyToolchain/0.2.0/arm/arm-none-eabi/include/c++/10.3.1/bits/stl_algobase.h **** // Core algorithmic facilities -*- C++ -*-
   2:/Library/DaisyToolchain/0.2.0/arm/arm-none-eabi/include/c++/10.3.1/bits/stl_algobase.h **** 
   3:/Library/DaisyToolchain/0.2.0/arm/arm-none-eabi/include/c++/10.3.1/bits/stl_algobase.h **** // Copyright (C) 2001-2020 Free Software Foundation, Inc.
   4:/Library/DaisyToolchain/0.2.0/arm/arm-none-eabi/include/c++/10.3.1/bits/stl_algobase.h **** //
ARM GAS  /var/folders/1y/_321xjh9623c014x9_qw12rr0000gn/T//cc4eHiNS.s 			page 22


   5:/Library/DaisyToolchain/0.2.0/arm/arm-none-eabi/include/c++/10.3.1/bits/stl_algobase.h **** // This file is part of the GNU ISO C++ Library.  This library is free
   6:/Library/DaisyToolchain/0.2.0/arm/arm-none-eabi/include/c++/10.3.1/bits/stl_algobase.h **** // software; you can redistribute it and/or modify it under the
   7:/Library/DaisyToolchain/0.2.0/arm/arm-none-eabi/include/c++/10.3.1/bits/stl_algobase.h **** // terms of the GNU General Public License as published by the
   8:/Library/DaisyToolchain/0.2.0/arm/arm-none-eabi/include/c++/10.3.1/bits/stl_algobase.h **** // Free Software Foundation; either version 3, or (at your option)
   9:/Library/DaisyToolchain/0.2.0/arm/arm-none-eabi/include/c++/10.3.1/bits/stl_algobase.h **** // any later version.
  10:/Library/DaisyToolchain/0.2.0/arm/arm-none-eabi/include/c++/10.3.1/bits/stl_algobase.h **** 
  11:/Library/DaisyToolchain/0.2.0/arm/arm-none-eabi/include/c++/10.3.1/bits/stl_algobase.h **** // This library is distributed in the hope that it will be useful,
  12:/Library/DaisyToolchain/0.2.0/arm/arm-none-eabi/include/c++/10.3.1/bits/stl_algobase.h **** // but WITHOUT ANY WARRANTY; without even the implied warranty of
  13:/Library/DaisyToolchain/0.2.0/arm/arm-none-eabi/include/c++/10.3.1/bits/stl_algobase.h **** // MERCHANTABILITY or FITNESS FOR A PARTICULAR PURPOSE.  See the
  14:/Library/DaisyToolchain/0.2.0/arm/arm-none-eabi/include/c++/10.3.1/bits/stl_algobase.h **** // GNU General Public License for more details.
  15:/Library/DaisyToolchain/0.2.0/arm/arm-none-eabi/include/c++/10.3.1/bits/stl_algobase.h **** 
  16:/Library/DaisyToolchain/0.2.0/arm/arm-none-eabi/include/c++/10.3.1/bits/stl_algobase.h **** // Under Section 7 of GPL version 3, you are granted additional
  17:/Library/DaisyToolchain/0.2.0/arm/arm-none-eabi/include/c++/10.3.1/bits/stl_algobase.h **** // permissions described in the GCC Runtime Library Exception, version
  18:/Library/DaisyToolchain/0.2.0/arm/arm-none-eabi/include/c++/10.3.1/bits/stl_algobase.h **** // 3.1, as published by the Free Software Foundation.
  19:/Library/DaisyToolchain/0.2.0/arm/arm-none-eabi/include/c++/10.3.1/bits/stl_algobase.h **** 
  20:/Library/DaisyToolchain/0.2.0/arm/arm-none-eabi/include/c++/10.3.1/bits/stl_algobase.h **** // You should have received a copy of the GNU General Public License and
  21:/Library/DaisyToolchain/0.2.0/arm/arm-none-eabi/include/c++/10.3.1/bits/stl_algobase.h **** // a copy of the GCC Runtime Library Exception along with this program;
  22:/Library/DaisyToolchain/0.2.0/arm/arm-none-eabi/include/c++/10.3.1/bits/stl_algobase.h **** // see the files COPYING3 and COPYING.RUNTIME respectively.  If not, see
  23:/Library/DaisyToolchain/0.2.0/arm/arm-none-eabi/include/c++/10.3.1/bits/stl_algobase.h **** // <http://www.gnu.org/licenses/>.
  24:/Library/DaisyToolchain/0.2.0/arm/arm-none-eabi/include/c++/10.3.1/bits/stl_algobase.h **** 
  25:/Library/DaisyToolchain/0.2.0/arm/arm-none-eabi/include/c++/10.3.1/bits/stl_algobase.h **** /*
  26:/Library/DaisyToolchain/0.2.0/arm/arm-none-eabi/include/c++/10.3.1/bits/stl_algobase.h ****  *
  27:/Library/DaisyToolchain/0.2.0/arm/arm-none-eabi/include/c++/10.3.1/bits/stl_algobase.h ****  * Copyright (c) 1994
  28:/Library/DaisyToolchain/0.2.0/arm/arm-none-eabi/include/c++/10.3.1/bits/stl_algobase.h ****  * Hewlett-Packard Company
  29:/Library/DaisyToolchain/0.2.0/arm/arm-none-eabi/include/c++/10.3.1/bits/stl_algobase.h ****  *
  30:/Library/DaisyToolchain/0.2.0/arm/arm-none-eabi/include/c++/10.3.1/bits/stl_algobase.h ****  * Permission to use, copy, modify, distribute and sell this software
  31:/Library/DaisyToolchain/0.2.0/arm/arm-none-eabi/include/c++/10.3.1/bits/stl_algobase.h ****  * and its documentation for any purpose is hereby granted without fee,
  32:/Library/DaisyToolchain/0.2.0/arm/arm-none-eabi/include/c++/10.3.1/bits/stl_algobase.h ****  * provided that the above copyright notice appear in all copies and
  33:/Library/DaisyToolchain/0.2.0/arm/arm-none-eabi/include/c++/10.3.1/bits/stl_algobase.h ****  * that both that copyright notice and this permission notice appear
  34:/Library/DaisyToolchain/0.2.0/arm/arm-none-eabi/include/c++/10.3.1/bits/stl_algobase.h ****  * in supporting documentation.  Hewlett-Packard Company makes no
  35:/Library/DaisyToolchain/0.2.0/arm/arm-none-eabi/include/c++/10.3.1/bits/stl_algobase.h ****  * representations about the suitability of this software for any
  36:/Library/DaisyToolchain/0.2.0/arm/arm-none-eabi/include/c++/10.3.1/bits/stl_algobase.h ****  * purpose.  It is provided "as is" without express or implied warranty.
  37:/Library/DaisyToolchain/0.2.0/arm/arm-none-eabi/include/c++/10.3.1/bits/stl_algobase.h ****  *
  38:/Library/DaisyToolchain/0.2.0/arm/arm-none-eabi/include/c++/10.3.1/bits/stl_algobase.h ****  *
  39:/Library/DaisyToolchain/0.2.0/arm/arm-none-eabi/include/c++/10.3.1/bits/stl_algobase.h ****  * Copyright (c) 1996-1998
  40:/Library/DaisyToolchain/0.2.0/arm/arm-none-eabi/include/c++/10.3.1/bits/stl_algobase.h ****  * Silicon Graphics Computer Systems, Inc.
  41:/Library/DaisyToolchain/0.2.0/arm/arm-none-eabi/include/c++/10.3.1/bits/stl_algobase.h ****  *
  42:/Library/DaisyToolchain/0.2.0/arm/arm-none-eabi/include/c++/10.3.1/bits/stl_algobase.h ****  * Permission to use, copy, modify, distribute and sell this software
  43:/Library/DaisyToolchain/0.2.0/arm/arm-none-eabi/include/c++/10.3.1/bits/stl_algobase.h ****  * and its documentation for any purpose is hereby granted without fee,
  44:/Library/DaisyToolchain/0.2.0/arm/arm-none-eabi/include/c++/10.3.1/bits/stl_algobase.h ****  * provided that the above copyright notice appear in all copies and
  45:/Library/DaisyToolchain/0.2.0/arm/arm-none-eabi/include/c++/10.3.1/bits/stl_algobase.h ****  * that both that copyright notice and this permission notice appear
  46:/Library/DaisyToolchain/0.2.0/arm/arm-none-eabi/include/c++/10.3.1/bits/stl_algobase.h ****  * in supporting documentation.  Silicon Graphics makes no
  47:/Library/DaisyToolchain/0.2.0/arm/arm-none-eabi/include/c++/10.3.1/bits/stl_algobase.h ****  * representations about the suitability of this software for any
  48:/Library/DaisyToolchain/0.2.0/arm/arm-none-eabi/include/c++/10.3.1/bits/stl_algobase.h ****  * purpose.  It is provided "as is" without express or implied warranty.
  49:/Library/DaisyToolchain/0.2.0/arm/arm-none-eabi/include/c++/10.3.1/bits/stl_algobase.h ****  */
  50:/Library/DaisyToolchain/0.2.0/arm/arm-none-eabi/include/c++/10.3.1/bits/stl_algobase.h **** 
  51:/Library/DaisyToolchain/0.2.0/arm/arm-none-eabi/include/c++/10.3.1/bits/stl_algobase.h **** /** @file bits/stl_algobase.h
  52:/Library/DaisyToolchain/0.2.0/arm/arm-none-eabi/include/c++/10.3.1/bits/stl_algobase.h ****  *  This is an internal header file, included by other library headers.
  53:/Library/DaisyToolchain/0.2.0/arm/arm-none-eabi/include/c++/10.3.1/bits/stl_algobase.h ****  *  Do not attempt to use it directly. @headername{algorithm}
  54:/Library/DaisyToolchain/0.2.0/arm/arm-none-eabi/include/c++/10.3.1/bits/stl_algobase.h ****  */
  55:/Library/DaisyToolchain/0.2.0/arm/arm-none-eabi/include/c++/10.3.1/bits/stl_algobase.h **** 
  56:/Library/DaisyToolchain/0.2.0/arm/arm-none-eabi/include/c++/10.3.1/bits/stl_algobase.h **** #ifndef _STL_ALGOBASE_H
  57:/Library/DaisyToolchain/0.2.0/arm/arm-none-eabi/include/c++/10.3.1/bits/stl_algobase.h **** #define _STL_ALGOBASE_H 1
  58:/Library/DaisyToolchain/0.2.0/arm/arm-none-eabi/include/c++/10.3.1/bits/stl_algobase.h **** 
  59:/Library/DaisyToolchain/0.2.0/arm/arm-none-eabi/include/c++/10.3.1/bits/stl_algobase.h **** #include <bits/c++config.h>
  60:/Library/DaisyToolchain/0.2.0/arm/arm-none-eabi/include/c++/10.3.1/bits/stl_algobase.h **** #include <bits/functexcept.h>
  61:/Library/DaisyToolchain/0.2.0/arm/arm-none-eabi/include/c++/10.3.1/bits/stl_algobase.h **** #include <bits/cpp_type_traits.h>
ARM GAS  /var/folders/1y/_321xjh9623c014x9_qw12rr0000gn/T//cc4eHiNS.s 			page 23


  62:/Library/DaisyToolchain/0.2.0/arm/arm-none-eabi/include/c++/10.3.1/bits/stl_algobase.h **** #include <ext/type_traits.h>
  63:/Library/DaisyToolchain/0.2.0/arm/arm-none-eabi/include/c++/10.3.1/bits/stl_algobase.h **** #include <ext/numeric_traits.h>
  64:/Library/DaisyToolchain/0.2.0/arm/arm-none-eabi/include/c++/10.3.1/bits/stl_algobase.h **** #include <bits/stl_pair.h>
  65:/Library/DaisyToolchain/0.2.0/arm/arm-none-eabi/include/c++/10.3.1/bits/stl_algobase.h **** #include <bits/stl_iterator_base_types.h>
  66:/Library/DaisyToolchain/0.2.0/arm/arm-none-eabi/include/c++/10.3.1/bits/stl_algobase.h **** #include <bits/stl_iterator_base_funcs.h>
  67:/Library/DaisyToolchain/0.2.0/arm/arm-none-eabi/include/c++/10.3.1/bits/stl_algobase.h **** #include <bits/stl_iterator.h>
  68:/Library/DaisyToolchain/0.2.0/arm/arm-none-eabi/include/c++/10.3.1/bits/stl_algobase.h **** #include <bits/concept_check.h>
  69:/Library/DaisyToolchain/0.2.0/arm/arm-none-eabi/include/c++/10.3.1/bits/stl_algobase.h **** #include <debug/debug.h>
  70:/Library/DaisyToolchain/0.2.0/arm/arm-none-eabi/include/c++/10.3.1/bits/stl_algobase.h **** #include <bits/move.h> // For std::swap
  71:/Library/DaisyToolchain/0.2.0/arm/arm-none-eabi/include/c++/10.3.1/bits/stl_algobase.h **** #include <bits/predefined_ops.h>
  72:/Library/DaisyToolchain/0.2.0/arm/arm-none-eabi/include/c++/10.3.1/bits/stl_algobase.h **** #if __cplusplus >= 201103L
  73:/Library/DaisyToolchain/0.2.0/arm/arm-none-eabi/include/c++/10.3.1/bits/stl_algobase.h **** # include <type_traits>
  74:/Library/DaisyToolchain/0.2.0/arm/arm-none-eabi/include/c++/10.3.1/bits/stl_algobase.h **** #endif
  75:/Library/DaisyToolchain/0.2.0/arm/arm-none-eabi/include/c++/10.3.1/bits/stl_algobase.h **** #if __cplusplus > 201703L
  76:/Library/DaisyToolchain/0.2.0/arm/arm-none-eabi/include/c++/10.3.1/bits/stl_algobase.h **** # include <compare>
  77:/Library/DaisyToolchain/0.2.0/arm/arm-none-eabi/include/c++/10.3.1/bits/stl_algobase.h **** #endif
  78:/Library/DaisyToolchain/0.2.0/arm/arm-none-eabi/include/c++/10.3.1/bits/stl_algobase.h **** 
  79:/Library/DaisyToolchain/0.2.0/arm/arm-none-eabi/include/c++/10.3.1/bits/stl_algobase.h **** namespace std _GLIBCXX_VISIBILITY(default)
  80:/Library/DaisyToolchain/0.2.0/arm/arm-none-eabi/include/c++/10.3.1/bits/stl_algobase.h **** {
  81:/Library/DaisyToolchain/0.2.0/arm/arm-none-eabi/include/c++/10.3.1/bits/stl_algobase.h **** _GLIBCXX_BEGIN_NAMESPACE_VERSION
  82:/Library/DaisyToolchain/0.2.0/arm/arm-none-eabi/include/c++/10.3.1/bits/stl_algobase.h **** 
  83:/Library/DaisyToolchain/0.2.0/arm/arm-none-eabi/include/c++/10.3.1/bits/stl_algobase.h ****   /*
  84:/Library/DaisyToolchain/0.2.0/arm/arm-none-eabi/include/c++/10.3.1/bits/stl_algobase.h ****    * A constexpr wrapper for __builtin_memcmp.
  85:/Library/DaisyToolchain/0.2.0/arm/arm-none-eabi/include/c++/10.3.1/bits/stl_algobase.h ****    * @param __num The number of elements of type _Tp (not bytes).
  86:/Library/DaisyToolchain/0.2.0/arm/arm-none-eabi/include/c++/10.3.1/bits/stl_algobase.h ****    */
  87:/Library/DaisyToolchain/0.2.0/arm/arm-none-eabi/include/c++/10.3.1/bits/stl_algobase.h ****   template<typename _Tp, typename _Up>
  88:/Library/DaisyToolchain/0.2.0/arm/arm-none-eabi/include/c++/10.3.1/bits/stl_algobase.h ****     _GLIBCXX14_CONSTEXPR
  89:/Library/DaisyToolchain/0.2.0/arm/arm-none-eabi/include/c++/10.3.1/bits/stl_algobase.h ****     inline int
  90:/Library/DaisyToolchain/0.2.0/arm/arm-none-eabi/include/c++/10.3.1/bits/stl_algobase.h ****     __memcmp(const _Tp* __first1, const _Up* __first2, size_t __num)
  91:/Library/DaisyToolchain/0.2.0/arm/arm-none-eabi/include/c++/10.3.1/bits/stl_algobase.h ****     {
  92:/Library/DaisyToolchain/0.2.0/arm/arm-none-eabi/include/c++/10.3.1/bits/stl_algobase.h **** #if __cplusplus >= 201103L
  93:/Library/DaisyToolchain/0.2.0/arm/arm-none-eabi/include/c++/10.3.1/bits/stl_algobase.h ****       static_assert(sizeof(_Tp) == sizeof(_Up), "can be compared with memcmp");
  94:/Library/DaisyToolchain/0.2.0/arm/arm-none-eabi/include/c++/10.3.1/bits/stl_algobase.h **** #endif
  95:/Library/DaisyToolchain/0.2.0/arm/arm-none-eabi/include/c++/10.3.1/bits/stl_algobase.h **** #ifdef __cpp_lib_is_constant_evaluated
  96:/Library/DaisyToolchain/0.2.0/arm/arm-none-eabi/include/c++/10.3.1/bits/stl_algobase.h ****       if (std::is_constant_evaluated())
  97:/Library/DaisyToolchain/0.2.0/arm/arm-none-eabi/include/c++/10.3.1/bits/stl_algobase.h **** 	{
  98:/Library/DaisyToolchain/0.2.0/arm/arm-none-eabi/include/c++/10.3.1/bits/stl_algobase.h **** 	  for(; __num > 0; ++__first1, ++__first2, --__num)
  99:/Library/DaisyToolchain/0.2.0/arm/arm-none-eabi/include/c++/10.3.1/bits/stl_algobase.h **** 	    if (*__first1 != *__first2)
 100:/Library/DaisyToolchain/0.2.0/arm/arm-none-eabi/include/c++/10.3.1/bits/stl_algobase.h **** 	      return *__first1 < *__first2 ? -1 : 1;
 101:/Library/DaisyToolchain/0.2.0/arm/arm-none-eabi/include/c++/10.3.1/bits/stl_algobase.h **** 	  return 0;
 102:/Library/DaisyToolchain/0.2.0/arm/arm-none-eabi/include/c++/10.3.1/bits/stl_algobase.h **** 	}
 103:/Library/DaisyToolchain/0.2.0/arm/arm-none-eabi/include/c++/10.3.1/bits/stl_algobase.h ****       else
 104:/Library/DaisyToolchain/0.2.0/arm/arm-none-eabi/include/c++/10.3.1/bits/stl_algobase.h **** #endif
 105:/Library/DaisyToolchain/0.2.0/arm/arm-none-eabi/include/c++/10.3.1/bits/stl_algobase.h **** 	return __builtin_memcmp(__first1, __first2, sizeof(_Tp) * __num);
 106:/Library/DaisyToolchain/0.2.0/arm/arm-none-eabi/include/c++/10.3.1/bits/stl_algobase.h ****     }
 107:/Library/DaisyToolchain/0.2.0/arm/arm-none-eabi/include/c++/10.3.1/bits/stl_algobase.h **** 
 108:/Library/DaisyToolchain/0.2.0/arm/arm-none-eabi/include/c++/10.3.1/bits/stl_algobase.h **** #if __cplusplus < 201103L
 109:/Library/DaisyToolchain/0.2.0/arm/arm-none-eabi/include/c++/10.3.1/bits/stl_algobase.h ****   // See http://gcc.gnu.org/ml/libstdc++/2004-08/msg00167.html: in a
 110:/Library/DaisyToolchain/0.2.0/arm/arm-none-eabi/include/c++/10.3.1/bits/stl_algobase.h ****   // nutshell, we are partially implementing the resolution of DR 187,
 111:/Library/DaisyToolchain/0.2.0/arm/arm-none-eabi/include/c++/10.3.1/bits/stl_algobase.h ****   // when it's safe, i.e., the value_types are equal.
 112:/Library/DaisyToolchain/0.2.0/arm/arm-none-eabi/include/c++/10.3.1/bits/stl_algobase.h ****   template<bool _BoolType>
 113:/Library/DaisyToolchain/0.2.0/arm/arm-none-eabi/include/c++/10.3.1/bits/stl_algobase.h ****     struct __iter_swap
 114:/Library/DaisyToolchain/0.2.0/arm/arm-none-eabi/include/c++/10.3.1/bits/stl_algobase.h ****     {
 115:/Library/DaisyToolchain/0.2.0/arm/arm-none-eabi/include/c++/10.3.1/bits/stl_algobase.h ****       template<typename _ForwardIterator1, typename _ForwardIterator2>
 116:/Library/DaisyToolchain/0.2.0/arm/arm-none-eabi/include/c++/10.3.1/bits/stl_algobase.h **** 	static void
 117:/Library/DaisyToolchain/0.2.0/arm/arm-none-eabi/include/c++/10.3.1/bits/stl_algobase.h **** 	iter_swap(_ForwardIterator1 __a, _ForwardIterator2 __b)
 118:/Library/DaisyToolchain/0.2.0/arm/arm-none-eabi/include/c++/10.3.1/bits/stl_algobase.h **** 	{
ARM GAS  /var/folders/1y/_321xjh9623c014x9_qw12rr0000gn/T//cc4eHiNS.s 			page 24


 119:/Library/DaisyToolchain/0.2.0/arm/arm-none-eabi/include/c++/10.3.1/bits/stl_algobase.h **** 	  typedef typename iterator_traits<_ForwardIterator1>::value_type
 120:/Library/DaisyToolchain/0.2.0/arm/arm-none-eabi/include/c++/10.3.1/bits/stl_algobase.h **** 	    _ValueType1;
 121:/Library/DaisyToolchain/0.2.0/arm/arm-none-eabi/include/c++/10.3.1/bits/stl_algobase.h **** 	  _ValueType1 __tmp = *__a;
 122:/Library/DaisyToolchain/0.2.0/arm/arm-none-eabi/include/c++/10.3.1/bits/stl_algobase.h **** 	  *__a = *__b;
 123:/Library/DaisyToolchain/0.2.0/arm/arm-none-eabi/include/c++/10.3.1/bits/stl_algobase.h **** 	  *__b = __tmp;
 124:/Library/DaisyToolchain/0.2.0/arm/arm-none-eabi/include/c++/10.3.1/bits/stl_algobase.h **** 	}
 125:/Library/DaisyToolchain/0.2.0/arm/arm-none-eabi/include/c++/10.3.1/bits/stl_algobase.h ****     };
 126:/Library/DaisyToolchain/0.2.0/arm/arm-none-eabi/include/c++/10.3.1/bits/stl_algobase.h **** 
 127:/Library/DaisyToolchain/0.2.0/arm/arm-none-eabi/include/c++/10.3.1/bits/stl_algobase.h ****   template<>
 128:/Library/DaisyToolchain/0.2.0/arm/arm-none-eabi/include/c++/10.3.1/bits/stl_algobase.h ****     struct __iter_swap<true>
 129:/Library/DaisyToolchain/0.2.0/arm/arm-none-eabi/include/c++/10.3.1/bits/stl_algobase.h ****     {
 130:/Library/DaisyToolchain/0.2.0/arm/arm-none-eabi/include/c++/10.3.1/bits/stl_algobase.h ****       template<typename _ForwardIterator1, typename _ForwardIterator2>
 131:/Library/DaisyToolchain/0.2.0/arm/arm-none-eabi/include/c++/10.3.1/bits/stl_algobase.h **** 	static void
 132:/Library/DaisyToolchain/0.2.0/arm/arm-none-eabi/include/c++/10.3.1/bits/stl_algobase.h **** 	iter_swap(_ForwardIterator1 __a, _ForwardIterator2 __b)
 133:/Library/DaisyToolchain/0.2.0/arm/arm-none-eabi/include/c++/10.3.1/bits/stl_algobase.h **** 	{
 134:/Library/DaisyToolchain/0.2.0/arm/arm-none-eabi/include/c++/10.3.1/bits/stl_algobase.h **** 	  swap(*__a, *__b);
 135:/Library/DaisyToolchain/0.2.0/arm/arm-none-eabi/include/c++/10.3.1/bits/stl_algobase.h **** 	}
 136:/Library/DaisyToolchain/0.2.0/arm/arm-none-eabi/include/c++/10.3.1/bits/stl_algobase.h ****     };
 137:/Library/DaisyToolchain/0.2.0/arm/arm-none-eabi/include/c++/10.3.1/bits/stl_algobase.h **** #endif // C++03
 138:/Library/DaisyToolchain/0.2.0/arm/arm-none-eabi/include/c++/10.3.1/bits/stl_algobase.h **** 
 139:/Library/DaisyToolchain/0.2.0/arm/arm-none-eabi/include/c++/10.3.1/bits/stl_algobase.h ****   /**
 140:/Library/DaisyToolchain/0.2.0/arm/arm-none-eabi/include/c++/10.3.1/bits/stl_algobase.h ****    *  @brief Swaps the contents of two iterators.
 141:/Library/DaisyToolchain/0.2.0/arm/arm-none-eabi/include/c++/10.3.1/bits/stl_algobase.h ****    *  @ingroup mutating_algorithms
 142:/Library/DaisyToolchain/0.2.0/arm/arm-none-eabi/include/c++/10.3.1/bits/stl_algobase.h ****    *  @param  __a  An iterator.
 143:/Library/DaisyToolchain/0.2.0/arm/arm-none-eabi/include/c++/10.3.1/bits/stl_algobase.h ****    *  @param  __b  Another iterator.
 144:/Library/DaisyToolchain/0.2.0/arm/arm-none-eabi/include/c++/10.3.1/bits/stl_algobase.h ****    *  @return   Nothing.
 145:/Library/DaisyToolchain/0.2.0/arm/arm-none-eabi/include/c++/10.3.1/bits/stl_algobase.h ****    *
 146:/Library/DaisyToolchain/0.2.0/arm/arm-none-eabi/include/c++/10.3.1/bits/stl_algobase.h ****    *  This function swaps the values pointed to by two iterators, not the
 147:/Library/DaisyToolchain/0.2.0/arm/arm-none-eabi/include/c++/10.3.1/bits/stl_algobase.h ****    *  iterators themselves.
 148:/Library/DaisyToolchain/0.2.0/arm/arm-none-eabi/include/c++/10.3.1/bits/stl_algobase.h ****   */
 149:/Library/DaisyToolchain/0.2.0/arm/arm-none-eabi/include/c++/10.3.1/bits/stl_algobase.h ****   template<typename _ForwardIterator1, typename _ForwardIterator2>
 150:/Library/DaisyToolchain/0.2.0/arm/arm-none-eabi/include/c++/10.3.1/bits/stl_algobase.h ****     _GLIBCXX20_CONSTEXPR
 151:/Library/DaisyToolchain/0.2.0/arm/arm-none-eabi/include/c++/10.3.1/bits/stl_algobase.h ****     inline void
 152:/Library/DaisyToolchain/0.2.0/arm/arm-none-eabi/include/c++/10.3.1/bits/stl_algobase.h ****     iter_swap(_ForwardIterator1 __a, _ForwardIterator2 __b)
 153:/Library/DaisyToolchain/0.2.0/arm/arm-none-eabi/include/c++/10.3.1/bits/stl_algobase.h ****     {
 154:/Library/DaisyToolchain/0.2.0/arm/arm-none-eabi/include/c++/10.3.1/bits/stl_algobase.h ****       // concept requirements
 155:/Library/DaisyToolchain/0.2.0/arm/arm-none-eabi/include/c++/10.3.1/bits/stl_algobase.h ****       __glibcxx_function_requires(_Mutable_ForwardIteratorConcept<
 156:/Library/DaisyToolchain/0.2.0/arm/arm-none-eabi/include/c++/10.3.1/bits/stl_algobase.h **** 				  _ForwardIterator1>)
 157:/Library/DaisyToolchain/0.2.0/arm/arm-none-eabi/include/c++/10.3.1/bits/stl_algobase.h ****       __glibcxx_function_requires(_Mutable_ForwardIteratorConcept<
 158:/Library/DaisyToolchain/0.2.0/arm/arm-none-eabi/include/c++/10.3.1/bits/stl_algobase.h **** 				  _ForwardIterator2>)
 159:/Library/DaisyToolchain/0.2.0/arm/arm-none-eabi/include/c++/10.3.1/bits/stl_algobase.h **** 
 160:/Library/DaisyToolchain/0.2.0/arm/arm-none-eabi/include/c++/10.3.1/bits/stl_algobase.h **** #if __cplusplus < 201103L
 161:/Library/DaisyToolchain/0.2.0/arm/arm-none-eabi/include/c++/10.3.1/bits/stl_algobase.h ****       typedef typename iterator_traits<_ForwardIterator1>::value_type
 162:/Library/DaisyToolchain/0.2.0/arm/arm-none-eabi/include/c++/10.3.1/bits/stl_algobase.h **** 	_ValueType1;
 163:/Library/DaisyToolchain/0.2.0/arm/arm-none-eabi/include/c++/10.3.1/bits/stl_algobase.h ****       typedef typename iterator_traits<_ForwardIterator2>::value_type
 164:/Library/DaisyToolchain/0.2.0/arm/arm-none-eabi/include/c++/10.3.1/bits/stl_algobase.h **** 	_ValueType2;
 165:/Library/DaisyToolchain/0.2.0/arm/arm-none-eabi/include/c++/10.3.1/bits/stl_algobase.h **** 
 166:/Library/DaisyToolchain/0.2.0/arm/arm-none-eabi/include/c++/10.3.1/bits/stl_algobase.h ****       __glibcxx_function_requires(_ConvertibleConcept<_ValueType1,
 167:/Library/DaisyToolchain/0.2.0/arm/arm-none-eabi/include/c++/10.3.1/bits/stl_algobase.h **** 				  _ValueType2>)
 168:/Library/DaisyToolchain/0.2.0/arm/arm-none-eabi/include/c++/10.3.1/bits/stl_algobase.h ****       __glibcxx_function_requires(_ConvertibleConcept<_ValueType2,
 169:/Library/DaisyToolchain/0.2.0/arm/arm-none-eabi/include/c++/10.3.1/bits/stl_algobase.h **** 				  _ValueType1>)
 170:/Library/DaisyToolchain/0.2.0/arm/arm-none-eabi/include/c++/10.3.1/bits/stl_algobase.h **** 
 171:/Library/DaisyToolchain/0.2.0/arm/arm-none-eabi/include/c++/10.3.1/bits/stl_algobase.h ****       typedef typename iterator_traits<_ForwardIterator1>::reference
 172:/Library/DaisyToolchain/0.2.0/arm/arm-none-eabi/include/c++/10.3.1/bits/stl_algobase.h **** 	_ReferenceType1;
 173:/Library/DaisyToolchain/0.2.0/arm/arm-none-eabi/include/c++/10.3.1/bits/stl_algobase.h ****       typedef typename iterator_traits<_ForwardIterator2>::reference
 174:/Library/DaisyToolchain/0.2.0/arm/arm-none-eabi/include/c++/10.3.1/bits/stl_algobase.h **** 	_ReferenceType2;
 175:/Library/DaisyToolchain/0.2.0/arm/arm-none-eabi/include/c++/10.3.1/bits/stl_algobase.h ****       std::__iter_swap<__are_same<_ValueType1, _ValueType2>::__value
ARM GAS  /var/folders/1y/_321xjh9623c014x9_qw12rr0000gn/T//cc4eHiNS.s 			page 25


 176:/Library/DaisyToolchain/0.2.0/arm/arm-none-eabi/include/c++/10.3.1/bits/stl_algobase.h **** 	&& __are_same<_ValueType1&, _ReferenceType1>::__value
 177:/Library/DaisyToolchain/0.2.0/arm/arm-none-eabi/include/c++/10.3.1/bits/stl_algobase.h **** 	&& __are_same<_ValueType2&, _ReferenceType2>::__value>::
 178:/Library/DaisyToolchain/0.2.0/arm/arm-none-eabi/include/c++/10.3.1/bits/stl_algobase.h **** 	iter_swap(__a, __b);
 179:/Library/DaisyToolchain/0.2.0/arm/arm-none-eabi/include/c++/10.3.1/bits/stl_algobase.h **** #else
 180:/Library/DaisyToolchain/0.2.0/arm/arm-none-eabi/include/c++/10.3.1/bits/stl_algobase.h ****       // _GLIBCXX_RESOLVE_LIB_DEFECTS
 181:/Library/DaisyToolchain/0.2.0/arm/arm-none-eabi/include/c++/10.3.1/bits/stl_algobase.h ****       // 187. iter_swap underspecified
 182:/Library/DaisyToolchain/0.2.0/arm/arm-none-eabi/include/c++/10.3.1/bits/stl_algobase.h ****       swap(*__a, *__b);
 183:/Library/DaisyToolchain/0.2.0/arm/arm-none-eabi/include/c++/10.3.1/bits/stl_algobase.h **** #endif
 184:/Library/DaisyToolchain/0.2.0/arm/arm-none-eabi/include/c++/10.3.1/bits/stl_algobase.h ****     }
 185:/Library/DaisyToolchain/0.2.0/arm/arm-none-eabi/include/c++/10.3.1/bits/stl_algobase.h **** 
 186:/Library/DaisyToolchain/0.2.0/arm/arm-none-eabi/include/c++/10.3.1/bits/stl_algobase.h ****   /**
 187:/Library/DaisyToolchain/0.2.0/arm/arm-none-eabi/include/c++/10.3.1/bits/stl_algobase.h ****    *  @brief Swap the elements of two sequences.
 188:/Library/DaisyToolchain/0.2.0/arm/arm-none-eabi/include/c++/10.3.1/bits/stl_algobase.h ****    *  @ingroup mutating_algorithms
 189:/Library/DaisyToolchain/0.2.0/arm/arm-none-eabi/include/c++/10.3.1/bits/stl_algobase.h ****    *  @param  __first1  A forward iterator.
 190:/Library/DaisyToolchain/0.2.0/arm/arm-none-eabi/include/c++/10.3.1/bits/stl_algobase.h ****    *  @param  __last1   A forward iterator.
 191:/Library/DaisyToolchain/0.2.0/arm/arm-none-eabi/include/c++/10.3.1/bits/stl_algobase.h ****    *  @param  __first2  A forward iterator.
 192:/Library/DaisyToolchain/0.2.0/arm/arm-none-eabi/include/c++/10.3.1/bits/stl_algobase.h ****    *  @return   An iterator equal to @p first2+(last1-first1).
 193:/Library/DaisyToolchain/0.2.0/arm/arm-none-eabi/include/c++/10.3.1/bits/stl_algobase.h ****    *
 194:/Library/DaisyToolchain/0.2.0/arm/arm-none-eabi/include/c++/10.3.1/bits/stl_algobase.h ****    *  Swaps each element in the range @p [first1,last1) with the
 195:/Library/DaisyToolchain/0.2.0/arm/arm-none-eabi/include/c++/10.3.1/bits/stl_algobase.h ****    *  corresponding element in the range @p [first2,(last1-first1)).
 196:/Library/DaisyToolchain/0.2.0/arm/arm-none-eabi/include/c++/10.3.1/bits/stl_algobase.h ****    *  The ranges must not overlap.
 197:/Library/DaisyToolchain/0.2.0/arm/arm-none-eabi/include/c++/10.3.1/bits/stl_algobase.h ****   */
 198:/Library/DaisyToolchain/0.2.0/arm/arm-none-eabi/include/c++/10.3.1/bits/stl_algobase.h ****   template<typename _ForwardIterator1, typename _ForwardIterator2>
 199:/Library/DaisyToolchain/0.2.0/arm/arm-none-eabi/include/c++/10.3.1/bits/stl_algobase.h ****     _GLIBCXX20_CONSTEXPR
 200:/Library/DaisyToolchain/0.2.0/arm/arm-none-eabi/include/c++/10.3.1/bits/stl_algobase.h ****     _ForwardIterator2
 201:/Library/DaisyToolchain/0.2.0/arm/arm-none-eabi/include/c++/10.3.1/bits/stl_algobase.h ****     swap_ranges(_ForwardIterator1 __first1, _ForwardIterator1 __last1,
 202:/Library/DaisyToolchain/0.2.0/arm/arm-none-eabi/include/c++/10.3.1/bits/stl_algobase.h **** 		_ForwardIterator2 __first2)
 203:/Library/DaisyToolchain/0.2.0/arm/arm-none-eabi/include/c++/10.3.1/bits/stl_algobase.h ****     {
 204:/Library/DaisyToolchain/0.2.0/arm/arm-none-eabi/include/c++/10.3.1/bits/stl_algobase.h ****       // concept requirements
 205:/Library/DaisyToolchain/0.2.0/arm/arm-none-eabi/include/c++/10.3.1/bits/stl_algobase.h ****       __glibcxx_function_requires(_Mutable_ForwardIteratorConcept<
 206:/Library/DaisyToolchain/0.2.0/arm/arm-none-eabi/include/c++/10.3.1/bits/stl_algobase.h **** 				  _ForwardIterator1>)
 207:/Library/DaisyToolchain/0.2.0/arm/arm-none-eabi/include/c++/10.3.1/bits/stl_algobase.h ****       __glibcxx_function_requires(_Mutable_ForwardIteratorConcept<
 208:/Library/DaisyToolchain/0.2.0/arm/arm-none-eabi/include/c++/10.3.1/bits/stl_algobase.h **** 				  _ForwardIterator2>)
 209:/Library/DaisyToolchain/0.2.0/arm/arm-none-eabi/include/c++/10.3.1/bits/stl_algobase.h ****       __glibcxx_requires_valid_range(__first1, __last1);
 210:/Library/DaisyToolchain/0.2.0/arm/arm-none-eabi/include/c++/10.3.1/bits/stl_algobase.h **** 
 211:/Library/DaisyToolchain/0.2.0/arm/arm-none-eabi/include/c++/10.3.1/bits/stl_algobase.h ****       for (; __first1 != __last1; ++__first1, (void)++__first2)
 212:/Library/DaisyToolchain/0.2.0/arm/arm-none-eabi/include/c++/10.3.1/bits/stl_algobase.h **** 	std::iter_swap(__first1, __first2);
 213:/Library/DaisyToolchain/0.2.0/arm/arm-none-eabi/include/c++/10.3.1/bits/stl_algobase.h ****       return __first2;
 214:/Library/DaisyToolchain/0.2.0/arm/arm-none-eabi/include/c++/10.3.1/bits/stl_algobase.h ****     }
 215:/Library/DaisyToolchain/0.2.0/arm/arm-none-eabi/include/c++/10.3.1/bits/stl_algobase.h **** 
 216:/Library/DaisyToolchain/0.2.0/arm/arm-none-eabi/include/c++/10.3.1/bits/stl_algobase.h ****   /**
 217:/Library/DaisyToolchain/0.2.0/arm/arm-none-eabi/include/c++/10.3.1/bits/stl_algobase.h ****    *  @brief This does what you think it does.
 218:/Library/DaisyToolchain/0.2.0/arm/arm-none-eabi/include/c++/10.3.1/bits/stl_algobase.h ****    *  @ingroup sorting_algorithms
 219:/Library/DaisyToolchain/0.2.0/arm/arm-none-eabi/include/c++/10.3.1/bits/stl_algobase.h ****    *  @param  __a  A thing of arbitrary type.
 220:/Library/DaisyToolchain/0.2.0/arm/arm-none-eabi/include/c++/10.3.1/bits/stl_algobase.h ****    *  @param  __b  Another thing of arbitrary type.
 221:/Library/DaisyToolchain/0.2.0/arm/arm-none-eabi/include/c++/10.3.1/bits/stl_algobase.h ****    *  @return   The lesser of the parameters.
 222:/Library/DaisyToolchain/0.2.0/arm/arm-none-eabi/include/c++/10.3.1/bits/stl_algobase.h ****    *
 223:/Library/DaisyToolchain/0.2.0/arm/arm-none-eabi/include/c++/10.3.1/bits/stl_algobase.h ****    *  This is the simple classic generic implementation.  It will work on
 224:/Library/DaisyToolchain/0.2.0/arm/arm-none-eabi/include/c++/10.3.1/bits/stl_algobase.h ****    *  temporary expressions, since they are only evaluated once, unlike a
 225:/Library/DaisyToolchain/0.2.0/arm/arm-none-eabi/include/c++/10.3.1/bits/stl_algobase.h ****    *  preprocessor macro.
 226:/Library/DaisyToolchain/0.2.0/arm/arm-none-eabi/include/c++/10.3.1/bits/stl_algobase.h ****   */
 227:/Library/DaisyToolchain/0.2.0/arm/arm-none-eabi/include/c++/10.3.1/bits/stl_algobase.h ****   template<typename _Tp>
 228:/Library/DaisyToolchain/0.2.0/arm/arm-none-eabi/include/c++/10.3.1/bits/stl_algobase.h ****     _GLIBCXX14_CONSTEXPR
 229:/Library/DaisyToolchain/0.2.0/arm/arm-none-eabi/include/c++/10.3.1/bits/stl_algobase.h ****     inline const _Tp&
 230:/Library/DaisyToolchain/0.2.0/arm/arm-none-eabi/include/c++/10.3.1/bits/stl_algobase.h ****     min(const _Tp& __a, const _Tp& __b)
 231:/Library/DaisyToolchain/0.2.0/arm/arm-none-eabi/include/c++/10.3.1/bits/stl_algobase.h ****     {
 232:/Library/DaisyToolchain/0.2.0/arm/arm-none-eabi/include/c++/10.3.1/bits/stl_algobase.h ****       // concept requirements
ARM GAS  /var/folders/1y/_321xjh9623c014x9_qw12rr0000gn/T//cc4eHiNS.s 			page 26


 233:/Library/DaisyToolchain/0.2.0/arm/arm-none-eabi/include/c++/10.3.1/bits/stl_algobase.h ****       __glibcxx_function_requires(_LessThanComparableConcept<_Tp>)
 234:/Library/DaisyToolchain/0.2.0/arm/arm-none-eabi/include/c++/10.3.1/bits/stl_algobase.h ****       //return __b < __a ? __b : __a;
 235:/Library/DaisyToolchain/0.2.0/arm/arm-none-eabi/include/c++/10.3.1/bits/stl_algobase.h ****       if (__b < __a)
 236:/Library/DaisyToolchain/0.2.0/arm/arm-none-eabi/include/c++/10.3.1/bits/stl_algobase.h **** 	return __b;
 237:/Library/DaisyToolchain/0.2.0/arm/arm-none-eabi/include/c++/10.3.1/bits/stl_algobase.h ****       return __a;
 238:/Library/DaisyToolchain/0.2.0/arm/arm-none-eabi/include/c++/10.3.1/bits/stl_algobase.h ****     }
 239:/Library/DaisyToolchain/0.2.0/arm/arm-none-eabi/include/c++/10.3.1/bits/stl_algobase.h **** 
 240:/Library/DaisyToolchain/0.2.0/arm/arm-none-eabi/include/c++/10.3.1/bits/stl_algobase.h ****   /**
 241:/Library/DaisyToolchain/0.2.0/arm/arm-none-eabi/include/c++/10.3.1/bits/stl_algobase.h ****    *  @brief This does what you think it does.
 242:/Library/DaisyToolchain/0.2.0/arm/arm-none-eabi/include/c++/10.3.1/bits/stl_algobase.h ****    *  @ingroup sorting_algorithms
 243:/Library/DaisyToolchain/0.2.0/arm/arm-none-eabi/include/c++/10.3.1/bits/stl_algobase.h ****    *  @param  __a  A thing of arbitrary type.
 244:/Library/DaisyToolchain/0.2.0/arm/arm-none-eabi/include/c++/10.3.1/bits/stl_algobase.h ****    *  @param  __b  Another thing of arbitrary type.
 245:/Library/DaisyToolchain/0.2.0/arm/arm-none-eabi/include/c++/10.3.1/bits/stl_algobase.h ****    *  @return   The greater of the parameters.
 246:/Library/DaisyToolchain/0.2.0/arm/arm-none-eabi/include/c++/10.3.1/bits/stl_algobase.h ****    *
 247:/Library/DaisyToolchain/0.2.0/arm/arm-none-eabi/include/c++/10.3.1/bits/stl_algobase.h ****    *  This is the simple classic generic implementation.  It will work on
 248:/Library/DaisyToolchain/0.2.0/arm/arm-none-eabi/include/c++/10.3.1/bits/stl_algobase.h ****    *  temporary expressions, since they are only evaluated once, unlike a
 249:/Library/DaisyToolchain/0.2.0/arm/arm-none-eabi/include/c++/10.3.1/bits/stl_algobase.h ****    *  preprocessor macro.
 250:/Library/DaisyToolchain/0.2.0/arm/arm-none-eabi/include/c++/10.3.1/bits/stl_algobase.h ****   */
 251:/Library/DaisyToolchain/0.2.0/arm/arm-none-eabi/include/c++/10.3.1/bits/stl_algobase.h ****   template<typename _Tp>
 252:/Library/DaisyToolchain/0.2.0/arm/arm-none-eabi/include/c++/10.3.1/bits/stl_algobase.h ****     _GLIBCXX14_CONSTEXPR
 253:/Library/DaisyToolchain/0.2.0/arm/arm-none-eabi/include/c++/10.3.1/bits/stl_algobase.h ****     inline const _Tp&
 254:/Library/DaisyToolchain/0.2.0/arm/arm-none-eabi/include/c++/10.3.1/bits/stl_algobase.h ****     max(const _Tp& __a, const _Tp& __b)
 239              		.loc 5 254 5 view .LVU42
 240              	.LBE305:
 274:Dubby.cpp     ****                                     0),
 241              		.loc 2 274 61 is_stmt 0 view .LVU43
 242 0060 049A     		ldr	r2, [sp, #16]
 274:Dubby.cpp     ****                                     0),
 243              		.loc 2 274 63 view .LVU44
 244 0062 9FED617A 		vldr.32	s14, .L44
 274:Dubby.cpp     ****                                     0),
 245              		.loc 2 274 61 view .LVU45
 246 0066 F2EC017A 		vldmia.32	r2!, {s15}
 274:Dubby.cpp     ****                                     0),
 247              		.loc 2 274 63 view .LVU46
 248 006a 67EE877A 		vmul.f32	s15, s15, s14
 274:Dubby.cpp     ****                                     0),
 249              		.loc 2 274 61 view .LVU47
 250 006e 0492     		str	r2, [sp, #16]
 274:Dubby.cpp     ****                                     0),
 251              		.loc 2 274 43 view .LVU48
 252 0070 FDEEE77A 		vcvt.s32.f32	s15, s15
 253              	.LBB308:
 254              	.LBB306:
 255:/Library/DaisyToolchain/0.2.0/arm/arm-none-eabi/include/c++/10.3.1/bits/stl_algobase.h ****     {
 256:/Library/DaisyToolchain/0.2.0/arm/arm-none-eabi/include/c++/10.3.1/bits/stl_algobase.h ****       // concept requirements
 257:/Library/DaisyToolchain/0.2.0/arm/arm-none-eabi/include/c++/10.3.1/bits/stl_algobase.h ****       __glibcxx_function_requires(_LessThanComparableConcept<_Tp>)
 258:/Library/DaisyToolchain/0.2.0/arm/arm-none-eabi/include/c++/10.3.1/bits/stl_algobase.h ****       //return  __a < __b ? __b : __a;
 259:/Library/DaisyToolchain/0.2.0/arm/arm-none-eabi/include/c++/10.3.1/bits/stl_algobase.h ****       if (__a < __b)
 255              		.loc 5 259 7 view .LVU49
 256 0074 17EE902A 		vmov	r2, s15	@ int
 257 0078 D2F11804 		rsbs	r4, r2, #24
 258 007c 00F1AD80 		bmi	.L26
 259              	.LVL15:
 260              		.loc 5 259 7 view .LVU50
 261              	.LBE306:
 262              	.LBE308:
ARM GAS  /var/folders/1y/_321xjh9623c014x9_qw12rr0000gn/T//cc4eHiNS.s 			page 27


 263              	.LBB309:
 264              	.LBI309:
 230:/Library/DaisyToolchain/0.2.0/arm/arm-none-eabi/include/c++/10.3.1/bits/stl_algobase.h ****     {
 265              		.loc 5 230 5 is_stmt 1 view .LVU51
 266              	.LBB310:
 235:/Library/DaisyToolchain/0.2.0/arm/arm-none-eabi/include/c++/10.3.1/bits/stl_algobase.h **** 	return __b;
 267              		.loc 5 235 7 is_stmt 0 view .LVU52
 268 0080 312C     		cmp	r4, #49
 269 0082 40F3AB80 		ble	.L7
 270 0086 3224     		movs	r4, #50
 271              	.LVL16:
 272              	.L8:
 235:/Library/DaisyToolchain/0.2.0/arm/arm-none-eabi/include/c++/10.3.1/bits/stl_algobase.h **** 	return __b;
 273              		.loc 5 235 7 view .LVU53
 274              	.LBE310:
 275              	.LBE309:
 277:Dubby.cpp     ****             if(i != 0)
 276              		.loc 2 277 13 is_stmt 1 view .LVU54
 277:Dubby.cpp     ****             if(i != 0)
 277              		.loc 2 277 46 is_stmt 0 view .LVU55
 278 0088 019A     		ldr	r2, [sp, #4]
 278:Dubby.cpp     ****             {
 279              		.loc 2 278 13 view .LVU56
 280 008a B9F1010F 		cmp	r9, #1
 277:Dubby.cpp     ****             if(i != 0)
 281              		.loc 2 277 46 view .LVU57
 282 008e 4FEAD215 		lsr	r5, r2, #7
 277:Dubby.cpp     ****             if(i != 0)
 283              		.loc 2 277 23 view .LVU58
 284 0092 05F10105 		add	r5, r5, #1
 285              	.LVL17:
 278:Dubby.cpp     ****             {
 286              		.loc 2 278 13 is_stmt 1 view .LVU59
 287 0096 DCD0     		beq	.L9
 280:Dubby.cpp     ****             }
 288              		.loc 2 280 17 view .LVU60
 289              	.LBB311:
 290              	.LBB312:
 227:../../libDaisy//src/hid/disp/display.h ****         int_fast16_t deltaY = abs((int_fast16_t)y2 - (int_fast16_t)y1);
 291              		.loc 3 227 52 is_stmt 0 view .LVU61
 292 0098 EF1A     		subs	r7, r5, r3
 228:../../libDaisy//src/hid/disp/display.h ****         int_fast16_t signX  = ((x1 < x2) ? 1 : -1);
 293              		.loc 3 228 52 view .LVU62
 294 009a A4EB060E 		sub	lr, r4, r6
 295              	.LBE312:
 296              	.LBE311:
 280:Dubby.cpp     ****             }
 297              		.loc 2 280 33 view .LVU63
 298 009e 1946     		mov	r1, r3
 299 00a0 3246     		mov	r2, r6
 300              	.LVL18:
 301              	.LBB331:
 302              	.LBI311:
 221:../../libDaisy//src/hid/disp/display.h ****                   uint_fast8_t y1,
 303              		.loc 3 221 10 is_stmt 1 view .LVU64
 304              	.LBB329:
 227:../../libDaisy//src/hid/disp/display.h ****         int_fast16_t deltaY = abs((int_fast16_t)y2 - (int_fast16_t)y1);
ARM GAS  /var/folders/1y/_321xjh9623c014x9_qw12rr0000gn/T//cc4eHiNS.s 			page 28


 305              		.loc 3 227 22 is_stmt 0 view .LVU65
 306 00a2 002F     		cmp	r7, #0
 307 00a4 B8BF     		it	lt
 308 00a6 7F42     		rsblt	r7, r7, #0
 309              	.LVL19:
 228:../../libDaisy//src/hid/disp/display.h ****         int_fast16_t signX  = ((x1 < x2) ? 1 : -1);
 310              		.loc 3 228 22 view .LVU66
 311 00a8 BEF1000F 		cmp	lr, #0
 312 00ac B8BF     		it	lt
 313 00ae CEF1000E 		rsblt	lr, lr, #0
 314              	.LVL20:
 229:../../libDaisy//src/hid/disp/display.h ****         int_fast16_t signY  = ((y1 < y2) ? 1 : -1);
 315              		.loc 3 229 42 view .LVU67
 316 00b2 9D42     		cmp	r5, r3
 317 00b4 8CBF     		ite	hi
 318 00b6 0120     		movhi	r0, #1
 319 00b8 4FF0FF30 		movls	r0, #-1
 230:../../libDaisy//src/hid/disp/display.h ****         int_fast16_t error  = deltaX - deltaY;
 320              		.loc 3 230 42 view .LVU68
 321 00bc A642     		cmp	r6, r4
 229:../../libDaisy//src/hid/disp/display.h ****         int_fast16_t signY  = ((y1 < y2) ? 1 : -1);
 322              		.loc 3 229 42 view .LVU69
 323 00be 0290     		str	r0, [sp, #8]
 324              	.LVL21:
 231:../../libDaisy//src/hid/disp/display.h ****         int_fast16_t error2;
 325              		.loc 3 231 22 view .LVU70
 326 00c0 A7EB0E00 		sub	r0, r7, lr
 327              	.LVL22:
 231:../../libDaisy//src/hid/disp/display.h ****         int_fast16_t error2;
 328              		.loc 3 231 22 view .LVU71
 329 00c4 0590     		str	r0, [sp, #20]
 230:../../libDaisy//src/hid/disp/display.h ****         int_fast16_t error  = deltaX - deltaY;
 330              		.loc 3 230 42 view .LVU72
 331 00c6 C0F08B80 		bcc	.L24
 332              	.LVL23:
 333              	.LBB313:
 334              	.LBI313:
 335              		.loc 1 42 10 is_stmt 1 view .LVU73
 336              	.LBB314:
 337              	.LBI314:
 352:../../libDaisy//src/dev/oled_ssd130x.h ****     {
 338              		.loc 4 352 10 view .LVU74
 339              	.LBE314:
 340              	.LBE313:
 230:../../libDaisy//src/hid/disp/display.h ****         int_fast16_t error  = deltaX - deltaY;
 341              		.loc 3 230 42 is_stmt 0 view .LVU75
 342 00ca 4FF0FF30 		mov	r0, #-1
 343              	.LVL24:
 230:../../libDaisy//src/hid/disp/display.h ****         int_fast16_t error  = deltaX - deltaY;
 344              		.loc 3 230 42 view .LVU76
 345 00ce 0390     		str	r0, [sp, #12]
 346              	.LVL25:
 347              	.L23:
 348              	.LBB320:
 349              	.LBB317:
 350              	.LBB315:
 357:../../libDaisy//src/dev/oled_ssd130x.h ****         else
ARM GAS  /var/folders/1y/_321xjh9623c014x9_qw12rr0000gn/T//cc4eHiNS.s 			page 29


 351              		.loc 4 357 28 view .LVU77
 352 00d0 4FEAD40C 		lsr	ip, r4, #3
 357:../../libDaisy//src/dev/oled_ssd130x.h ****         else
 353              		.loc 4 357 48 view .LVU78
 354 00d4 4FF0010B 		mov	fp, #1
 357:../../libDaisy//src/dev/oled_ssd130x.h ****         else
 355              		.loc 4 357 54 view .LVU79
 356 00d8 04F00708 		and	r8, r4, #7
 357              	.LBE315:
 358              	.LBE317:
 359              	.LBE320:
 239:../../libDaisy//src/hid/disp/display.h ****         {
 360              		.loc 3 239 26 view .LVU80
 361 00dc 9D42     		cmp	r5, r3
 362              	.LBB321:
 363              	.LBB318:
 364              	.LBB316:
 357:../../libDaisy//src/dev/oled_ssd130x.h ****         else
 365              		.loc 4 357 42 view .LVU81
 366 00de 05EBCC1C 		add	ip, r5, ip, lsl #7
 357:../../libDaisy//src/dev/oled_ssd130x.h ****         else
 367              		.loc 4 357 48 view .LVU82
 368 00e2 0BFA08F8 		lsl	r8, fp, r8
 357:../../libDaisy//src/dev/oled_ssd130x.h ****         else
 369              		.loc 4 357 42 view .LVU83
 370 00e6 D444     		add	ip, ip, r10
 371 00e8 9CF864B4 		ldrb	fp, [ip, #1124]	@ zero_extendqisi2
 372 00ec 48EA0B08 		orr	r8, r8, fp
 373 00f0 8CF86484 		strb	r8, [ip, #1124]
 374              	.LVL26:
 357:../../libDaisy//src/dev/oled_ssd130x.h ****         else
 375              		.loc 4 357 42 view .LVU84
 376              	.LBE316:
 377              	.LBE318:
 378              	.LBE321:
 239:../../libDaisy//src/hid/disp/display.h ****         {
 379              		.loc 3 239 26 is_stmt 1 view .LVU85
 380 00f4 01D1     		bne	.L14
 381 00f6 A642     		cmp	r6, r4
 382 00f8 28D0     		beq	.L12
 383              	.L14:
 384              	.LVL27:
 243:../../libDaisy//src/hid/disp/display.h ****             {
 385              		.loc 3 243 23 is_stmt 0 view .LVU86
 386 00fa CEF10008 		rsb	r8, lr, #0
 387 00fe 0598     		ldr	r0, [sp, #20]
 388              	.LVL28:
 389              	.L16:
 390              	.LBB322:
 391              	.LBI322:
 392              		.loc 1 42 10 is_stmt 1 view .LVU87
 393              	.LBB323:
 394              	.LBI323:
 352:../../libDaisy//src/dev/oled_ssd130x.h ****     {
 395              		.loc 4 352 10 view .LVU88
 396              	.LBB324:
 357:../../libDaisy//src/dev/oled_ssd130x.h ****         else
ARM GAS  /var/folders/1y/_321xjh9623c014x9_qw12rr0000gn/T//cc4eHiNS.s 			page 30


 397              		.loc 4 357 48 is_stmt 0 view .LVU89
 398 0100 4FF0010C 		mov	ip, #1
 357:../../libDaisy//src/dev/oled_ssd130x.h ****         else
 399              		.loc 4 357 28 view .LVU90
 400 0104 D308     		lsrs	r3, r2, #3
 357:../../libDaisy//src/dev/oled_ssd130x.h ****         else
 401              		.loc 4 357 54 view .LVU91
 402 0106 02F00706 		and	r6, r2, #7
 354:../../libDaisy//src/dev/oled_ssd130x.h ****             return;
 403              		.loc 4 354 9 view .LVU92
 404 010a 7F29     		cmp	r1, #127
 357:../../libDaisy//src/dev/oled_ssd130x.h ****         else
 405              		.loc 4 357 42 view .LVU93
 406 010c 01EBC313 		add	r3, r1, r3, lsl #7
 407              	.LBE324:
 408              	.LBE323:
 409              	.LBE322:
 242:../../libDaisy//src/hid/disp/display.h ****             if(error2 > -deltaY)
 410              		.loc 3 242 20 view .LVU94
 411 0110 00FA0CFB 		lsl	fp, r0, ip
 412              	.LVL29:
 413              	.LBB327:
 414              	.LBB326:
 415              	.LBB325:
 357:../../libDaisy//src/dev/oled_ssd130x.h ****         else
 416              		.loc 4 357 48 view .LVU95
 417 0114 0CFA06F6 		lsl	r6, ip, r6
 354:../../libDaisy//src/dev/oled_ssd130x.h ****             return;
 418              		.loc 4 354 9 view .LVU96
 419 0118 08D8     		bhi	.L17
 420 011a 3F2A     		cmp	r2, #63
 357:../../libDaisy//src/dev/oled_ssd130x.h ****         else
 421              		.loc 4 357 42 view .LVU97
 422 011c 5344     		add	r3, r3, r10
 354:../../libDaisy//src/dev/oled_ssd130x.h ****             return;
 423              		.loc 4 354 9 view .LVU98
 424 011e 05D8     		bhi	.L17
 357:../../libDaisy//src/dev/oled_ssd130x.h ****         else
 425              		.loc 4 357 42 view .LVU99
 426 0120 93F864C4 		ldrb	ip, [r3, #1124]	@ zero_extendqisi2
 427 0124 46EA0C06 		orr	r6, r6, ip
 428 0128 83F86464 		strb	r6, [r3, #1124]
 429              	.L17:
 357:../../libDaisy//src/dev/oled_ssd130x.h ****         else
 430              		.loc 4 357 42 view .LVU100
 431              	.LBE325:
 432              	.LBE326:
 433              	.LBE327:
 243:../../libDaisy//src/hid/disp/display.h ****             {
 434              		.loc 3 243 13 view .LVU101
 435 012c B8EB400F 		cmp	r8, r0, lsl #1
 436 0130 03DA     		bge	.L18
 246:../../libDaisy//src/hid/disp/display.h ****             }
 437              		.loc 3 246 20 view .LVU102
 438 0132 029B     		ldr	r3, [sp, #8]
 245:../../libDaisy//src/hid/disp/display.h ****                 x1 += signX;
 439              		.loc 3 245 23 view .LVU103
ARM GAS  /var/folders/1y/_321xjh9623c014x9_qw12rr0000gn/T//cc4eHiNS.s 			page 31


 440 0134 A0EB0E00 		sub	r0, r0, lr
 441              	.LVL30:
 246:../../libDaisy//src/hid/disp/display.h ****             }
 442              		.loc 3 246 20 view .LVU104
 443 0138 1944     		add	r1, r1, r3
 444              	.LVL31:
 445              	.L18:
 249:../../libDaisy//src/hid/disp/display.h ****             {
 446              		.loc 3 249 13 view .LVU105
 447 013a 5F45     		cmp	r7, fp
 448 013c 02DD     		ble	.L19
 252:../../libDaisy//src/hid/disp/display.h ****             }
 449              		.loc 3 252 20 view .LVU106
 450 013e 039B     		ldr	r3, [sp, #12]
 251:../../libDaisy//src/hid/disp/display.h ****                 y1 += signY;
 451              		.loc 3 251 23 view .LVU107
 452 0140 3844     		add	r0, r0, r7
 453              	.LVL32:
 252:../../libDaisy//src/hid/disp/display.h ****             }
 454              		.loc 3 252 20 view .LVU108
 455 0142 1A44     		add	r2, r2, r3
 456              	.LVL33:
 457              	.L19:
 239:../../libDaisy//src/hid/disp/display.h ****         {
 458              		.loc 3 239 26 is_stmt 1 view .LVU109
 459 0144 8D42     		cmp	r5, r1
 460 0146 DBD1     		bne	.L16
 239:../../libDaisy//src/hid/disp/display.h ****         {
 461              		.loc 3 239 26 is_stmt 0 view .LVU110
 462 0148 9442     		cmp	r4, r2
 463 014a D9D1     		bne	.L16
 464              	.LVL34:
 465              	.L12:
 239:../../libDaisy//src/hid/disp/display.h ****         {
 466              		.loc 3 239 26 view .LVU111
 467              	.LBE329:
 468              	.LBE331:
 469              		.loc 2 282 13 is_stmt 1 view .LVU112
 283:Dubby.cpp     ****             prev_y = y;
 470              		.loc 2 283 13 view .LVU113
 471              		.loc 2 283 13 is_stmt 0 view .LVU114
 472              	.LBE304:
 271:Dubby.cpp     ****         {
 473              		.loc 2 271 9 is_stmt 1 view .LVU115
 271:Dubby.cpp     ****         {
 474              		.loc 2 271 29 view .LVU116
 475 014c B9F1800F 		cmp	r9, #128
 476 0150 7FF47FAF 		bne	.L9
 477              	.LBE303:
 478              	.LBB335:
 479              	.LBB336:
 480              	.LBB337:
 481              	.LBB338:
 482              	.LBB339:
 124:../../libDaisy//src/dev/oled_ssd130x.h ****         spi_.BlockingTransmit(&cmd, 1);
 483              		.loc 4 124 24 is_stmt 0 view .LVU117
 484 0154 0AF58B67 		add	r7, r10, #1112
ARM GAS  /var/folders/1y/_321xjh9623c014x9_qw12rr0000gn/T//cc4eHiNS.s 			page 32


 485 0158 0AF58C66 		add	r6, r10, #1120
 486 015c 0AF26444 		addw	r4, r10, #1124
 125:../../libDaisy//src/dev/oled_ssd130x.h ****     };
 487              		.loc 4 125 30 view .LVU118
 488 0160 B025     		movs	r5, #176
 489              	.LVL35:
 490              	.L22:
 125:../../libDaisy//src/dev/oled_ssd130x.h ****     };
 491              		.loc 4 125 30 view .LVU119
 492 0162 4FF00008 		mov	r8, #0
 124:../../libDaisy//src/dev/oled_ssd130x.h ****         spi_.BlockingTransmit(&cmd, 1);
 493              		.loc 4 124 23 view .LVU120
 494 0166 3046     		mov	r0, r6
 495 0168 8DF81F50 		strb	r5, [sp, #31]
 496              	.LVL36:
 124:../../libDaisy//src/dev/oled_ssd130x.h ****         spi_.BlockingTransmit(&cmd, 1);
 497              		.loc 4 124 23 view .LVU121
 498              	.LBE339:
 499              	.LBI338:
 122:../../libDaisy//src/dev/oled_ssd130x.h ****     {
 500              		.loc 4 122 10 is_stmt 1 view .LVU122
 501              	.LBB340:
 124:../../libDaisy//src/dev/oled_ssd130x.h ****         spi_.BlockingTransmit(&cmd, 1);
 502              		.loc 4 124 9 view .LVU123
 503              	.LBE340:
 504              	.LBE338:
 360:../../libDaisy//src/dev/oled_ssd130x.h ****     }
 361:../../libDaisy//src/dev/oled_ssd130x.h **** 
 362:../../libDaisy//src/dev/oled_ssd130x.h ****     void Fill(bool on)
 363:../../libDaisy//src/dev/oled_ssd130x.h ****     {
 364:../../libDaisy//src/dev/oled_ssd130x.h ****         for(size_t i = 0; i < sizeof(buffer_); i++)
 365:../../libDaisy//src/dev/oled_ssd130x.h ****         {
 366:../../libDaisy//src/dev/oled_ssd130x.h ****             buffer_[i] = on ? 0xff : 0x00;
 367:../../libDaisy//src/dev/oled_ssd130x.h ****         }
 368:../../libDaisy//src/dev/oled_ssd130x.h ****     };
 369:../../libDaisy//src/dev/oled_ssd130x.h **** 
 370:../../libDaisy//src/dev/oled_ssd130x.h ****     /**
 371:../../libDaisy//src/dev/oled_ssd130x.h ****      * Update the display 
 372:../../libDaisy//src/dev/oled_ssd130x.h ****     */
 373:../../libDaisy//src/dev/oled_ssd130x.h ****     void Update()
 374:../../libDaisy//src/dev/oled_ssd130x.h ****     {
 375:../../libDaisy//src/dev/oled_ssd130x.h ****         uint8_t i;
 376:../../libDaisy//src/dev/oled_ssd130x.h ****         uint8_t high_column_addr;
 377:../../libDaisy//src/dev/oled_ssd130x.h ****         switch(height)
 378:../../libDaisy//src/dev/oled_ssd130x.h ****         {
 379:../../libDaisy//src/dev/oled_ssd130x.h ****             case 32: high_column_addr = 0x12; break;
 380:../../libDaisy//src/dev/oled_ssd130x.h **** 
 381:../../libDaisy//src/dev/oled_ssd130x.h ****             default: high_column_addr = 0x10; break;
 382:../../libDaisy//src/dev/oled_ssd130x.h ****         }
 383:../../libDaisy//src/dev/oled_ssd130x.h ****         for(i = 0; i < (height / 8); i++)
 505              		.loc 4 383 22 is_stmt 0 view .LVU124
 506 016c 0135     		adds	r5, r5, #1
 507              	.LVL37:
 508              	.LBB343:
 509              	.LBB341:
 124:../../libDaisy//src/dev/oled_ssd130x.h ****         spi_.BlockingTransmit(&cmd, 1);
 510              		.loc 4 124 23 view .LVU125
ARM GAS  /var/folders/1y/_321xjh9623c014x9_qw12rr0000gn/T//cc4eHiNS.s 			page 33


 511 016e 4146     		mov	r1, r8
 512 0170 FFF7FEFF 		bl	dsy_gpio_write
 513              	.LVL38:
 125:../../libDaisy//src/dev/oled_ssd130x.h ****     };
 514              		.loc 4 125 9 is_stmt 1 view .LVU126
 125:../../libDaisy//src/dev/oled_ssd130x.h ****     };
 515              		.loc 4 125 30 is_stmt 0 view .LVU127
 516 0174 6423     		movs	r3, #100
 517 0176 0122     		movs	r2, #1
 518 0178 0DF11F01 		add	r1, sp, #31
 519 017c 3846     		mov	r0, r7
 520              	.LBE341:
 521              	.LBE343:
 522              		.loc 4 383 22 view .LVU128
 523 017e EDB2     		uxtb	r5, r5
 524              	.LBB344:
 525              	.LBB342:
 125:../../libDaisy//src/dev/oled_ssd130x.h ****     };
 526              		.loc 4 125 30 view .LVU129
 527 0180 FFF7FEFF 		bl	_ZN5daisy9SpiHandle16BlockingTransmitEPhjm
 528              	.LVL39:
 125:../../libDaisy//src/dev/oled_ssd130x.h ****     };
 529              		.loc 4 125 30 view .LVU130
 530              	.LBE342:
 531              	.LBE344:
 532              	.LBB345:
 533              	.LBB346:
 124:../../libDaisy//src/dev/oled_ssd130x.h ****         spi_.BlockingTransmit(&cmd, 1);
 534              		.loc 4 124 23 view .LVU131
 535 0184 4146     		mov	r1, r8
 536 0186 3046     		mov	r0, r6
 537 0188 8DF81F80 		strb	r8, [sp, #31]
 538              	.LVL40:
 124:../../libDaisy//src/dev/oled_ssd130x.h ****         spi_.BlockingTransmit(&cmd, 1);
 539              		.loc 4 124 23 view .LVU132
 540              	.LBE346:
 541              	.LBI345:
 122:../../libDaisy//src/dev/oled_ssd130x.h ****     {
 542              		.loc 4 122 10 is_stmt 1 view .LVU133
 543              	.LBB347:
 124:../../libDaisy//src/dev/oled_ssd130x.h ****         spi_.BlockingTransmit(&cmd, 1);
 544              		.loc 4 124 9 view .LVU134
 124:../../libDaisy//src/dev/oled_ssd130x.h ****         spi_.BlockingTransmit(&cmd, 1);
 545              		.loc 4 124 23 is_stmt 0 view .LVU135
 546 018c FFF7FEFF 		bl	dsy_gpio_write
 547              	.LVL41:
 125:../../libDaisy//src/dev/oled_ssd130x.h ****     };
 548              		.loc 4 125 9 is_stmt 1 view .LVU136
 125:../../libDaisy//src/dev/oled_ssd130x.h ****     };
 549              		.loc 4 125 30 is_stmt 0 view .LVU137
 550 0190 0122     		movs	r2, #1
 551 0192 6423     		movs	r3, #100
 552 0194 0DF11F01 		add	r1, sp, #31
 553 0198 3846     		mov	r0, r7
 554 019a FFF7FEFF 		bl	_ZN5daisy9SpiHandle16BlockingTransmitEPhjm
 555              	.LVL42:
 125:../../libDaisy//src/dev/oled_ssd130x.h ****     };
ARM GAS  /var/folders/1y/_321xjh9623c014x9_qw12rr0000gn/T//cc4eHiNS.s 			page 34


 556              		.loc 4 125 30 view .LVU138
 557 019e 1023     		movs	r3, #16
 558              	.LBE347:
 559              	.LBE345:
 560              	.LBB348:
 561              	.LBB349:
 124:../../libDaisy//src/dev/oled_ssd130x.h ****         spi_.BlockingTransmit(&cmd, 1);
 562              		.loc 4 124 23 view .LVU139
 563 01a0 4146     		mov	r1, r8
 564 01a2 3046     		mov	r0, r6
 565 01a4 8DF81F30 		strb	r3, [sp, #31]
 566              	.LVL43:
 124:../../libDaisy//src/dev/oled_ssd130x.h ****         spi_.BlockingTransmit(&cmd, 1);
 567              		.loc 4 124 23 view .LVU140
 568              	.LBE349:
 569              	.LBI348:
 122:../../libDaisy//src/dev/oled_ssd130x.h ****     {
 570              		.loc 4 122 10 is_stmt 1 view .LVU141
 571              	.LBB350:
 124:../../libDaisy//src/dev/oled_ssd130x.h ****         spi_.BlockingTransmit(&cmd, 1);
 572              		.loc 4 124 9 view .LVU142
 124:../../libDaisy//src/dev/oled_ssd130x.h ****         spi_.BlockingTransmit(&cmd, 1);
 573              		.loc 4 124 23 is_stmt 0 view .LVU143
 574 01a8 FFF7FEFF 		bl	dsy_gpio_write
 575              	.LVL44:
 125:../../libDaisy//src/dev/oled_ssd130x.h ****     };
 576              		.loc 4 125 9 is_stmt 1 view .LVU144
 125:../../libDaisy//src/dev/oled_ssd130x.h ****     };
 577              		.loc 4 125 30 is_stmt 0 view .LVU145
 578 01ac 6423     		movs	r3, #100
 579 01ae 0122     		movs	r2, #1
 580 01b0 0DF11F01 		add	r1, sp, #31
 581 01b4 3846     		mov	r0, r7
 582 01b6 FFF7FEFF 		bl	_ZN5daisy9SpiHandle16BlockingTransmitEPhjm
 583              	.LVL45:
 125:../../libDaisy//src/dev/oled_ssd130x.h ****     };
 584              		.loc 4 125 30 view .LVU146
 585              	.LBE350:
 586              	.LBE348:
 587              	.LBB351:
 588              	.LBI351:
 128:../../libDaisy//src/dev/oled_ssd130x.h ****     {
 589              		.loc 4 128 10 is_stmt 1 view .LVU147
 590              	.LBB352:
 130:../../libDaisy//src/dev/oled_ssd130x.h ****         spi_.BlockingTransmit(buff, size);
 591              		.loc 4 130 9 view .LVU148
 130:../../libDaisy//src/dev/oled_ssd130x.h ****         spi_.BlockingTransmit(buff, size);
 592              		.loc 4 130 23 is_stmt 0 view .LVU149
 593 01ba 0121     		movs	r1, #1
 594 01bc 3046     		mov	r0, r6
 595 01be FFF7FEFF 		bl	dsy_gpio_write
 596              	.LVL46:
 131:../../libDaisy//src/dev/oled_ssd130x.h ****     };
 597              		.loc 4 131 9 is_stmt 1 view .LVU150
 131:../../libDaisy//src/dev/oled_ssd130x.h ****     };
 598              		.loc 4 131 30 is_stmt 0 view .LVU151
 599 01c2 8022     		movs	r2, #128
ARM GAS  /var/folders/1y/_321xjh9623c014x9_qw12rr0000gn/T//cc4eHiNS.s 			page 35


 600 01c4 2146     		mov	r1, r4
 601 01c6 6423     		movs	r3, #100
 602 01c8 3846     		mov	r0, r7
 603              	.LBE352:
 604              	.LBE351:
 605              		.loc 4 383 22 view .LVU152
 606 01ca 1444     		add	r4, r4, r2
 607              	.LVL47:
 608              	.LBB354:
 609              	.LBB353:
 131:../../libDaisy//src/dev/oled_ssd130x.h ****     };
 610              		.loc 4 131 30 view .LVU153
 611 01cc FFF7FEFF 		bl	_ZN5daisy9SpiHandle16BlockingTransmitEPhjm
 612              	.LVL48:
 131:../../libDaisy//src/dev/oled_ssd130x.h ****     };
 613              		.loc 4 131 30 view .LVU154
 614              	.LBE353:
 615              	.LBE354:
 616              		.loc 4 383 9 is_stmt 1 view .LVU155
 617              		.loc 4 383 22 view .LVU156
 618 01d0 B82D     		cmp	r5, #184
 619 01d2 C6D1     		bne	.L22
 620              	.LBE337:
 621              	.LBE336:
 622              	.LBE335:
 623              	.LBE356:
 284:Dubby.cpp     ****         }
 285:Dubby.cpp     **** 
 286:Dubby.cpp     ****         display.Update();
 287:Dubby.cpp     ****     }   
 288:Dubby.cpp     **** }
 624              		.loc 2 288 1 is_stmt 0 view .LVU157
 625 01d4 09B0     		add	sp, sp, #36
 626              		.cfi_remember_state
 627              		.cfi_def_cfa_offset 36
 628              		@ sp needed
 629 01d6 BDE8F08F 		pop	{r4, r5, r6, r7, r8, r9, r10, fp, pc}
 630              	.LVL49:
 631              	.L26:
 632              		.cfi_restore_state
 633              	.LBB357:
 634              	.LBB355:
 635              	.LBB334:
 636              	.LBB332:
 637              	.LBB307:
 638              		.loc 2 288 1 view .LVU158
 639 01da 0024     		movs	r4, #0
 640              	.LVL50:
 641              	.L7:
 642              		.loc 2 288 1 view .LVU159
 643              	.LBE307:
 644              	.LBE332:
 276:Dubby.cpp     ****             int x = 1 + i * (OLED_WIDTH - 2) / AUDIO_BLOCK_SIZE;
 645              		.loc 2 276 45 view .LVU160
 646 01dc 0134     		adds	r4, r4, #1
 647 01de 53E7     		b	.L8
 648              	.LVL51:
ARM GAS  /var/folders/1y/_321xjh9623c014x9_qw12rr0000gn/T//cc4eHiNS.s 			page 36


 649              	.L24:
 650              	.LBB333:
 651              	.LBB330:
 652              	.LBB328:
 653              		.loc 1 42 10 is_stmt 1 view .LVU161
 654              	.LBB319:
 352:../../libDaisy//src/dev/oled_ssd130x.h ****     {
 655              		.loc 4 352 10 view .LVU162
 656              	.LBE319:
 657              	.LBE328:
 230:../../libDaisy//src/hid/disp/display.h ****         int_fast16_t error  = deltaX - deltaY;
 658              		.loc 3 230 42 is_stmt 0 view .LVU163
 659 01e0 0120     		movs	r0, #1
 660 01e2 0390     		str	r0, [sp, #12]
 661 01e4 74E7     		b	.L23
 662              	.L45:
 663 01e6 00BF     		.align	2
 664              	.L44:
 665 01e8 00001643 		.word	1125515264
 666              	.LBE330:
 667              	.LBE333:
 668              	.LBE334:
 669              	.LBE355:
 670              	.LBE357:
 671              		.cfi_endproc
 672              	.LFE2673:
 674              		.section	.text._ZN5daisy5Dubby12InitControlsEv,"ax",%progbits
 675              		.align	1
 676              		.p2align 2,,3
 677              		.global	_ZN5daisy5Dubby12InitControlsEv
 678              		.syntax unified
 679              		.thumb
 680              		.thumb_func
 682              	_ZN5daisy5Dubby12InitControlsEv:
 683              	.LVL52:
 684              	.LFB2569:
  61:Dubby.cpp     ****     AdcChannelConfig cfg[CTRL_LAST];
 685              		.loc 2 61 1 is_stmt 1 view -0
 686              		.cfi_startproc
 687              		@ args = 0, pretend = 0, frame = 136
 688              		@ frame_needed = 0, uses_anonymous_args = 0
  62:Dubby.cpp     **** 
 689              		.loc 2 62 5 view .LVU165
  65:Dubby.cpp     ****     cfg[CTRL_2].InitSingle(seed.GetPin(PIN_KNOB_2));
 690              		.loc 2 65 5 view .LVU166
  61:Dubby.cpp     ****     AdcChannelConfig cfg[CTRL_LAST];
 691              		.loc 2 61 1 is_stmt 0 view .LVU167
 692 0000 F0B5     		push	{r4, r5, r6, r7, lr}
 693              		.cfi_def_cfa_offset 20
 694              		.cfi_offset 4, -20
 695              		.cfi_offset 5, -16
 696              		.cfi_offset 6, -12
 697              		.cfi_offset 7, -8
 698              		.cfi_offset 14, -4
 699 0002 0546     		mov	r5, r0
 700 0004 A3B0     		sub	sp, sp, #140
 701              		.cfi_def_cfa_offset 160
ARM GAS  /var/folders/1y/_321xjh9623c014x9_qw12rr0000gn/T//cc4eHiNS.s 			page 37


  65:Dubby.cpp     ****     cfg[CTRL_2].InitSingle(seed.GetPin(PIN_KNOB_2));
 702              		.loc 2 65 27 view .LVU168
 703 0006 1220     		movs	r0, #18
 704              	.LVL53:
 705              	.LBB358:
  76:Dubby.cpp     ****     {
 706              		.loc 2 76 16 view .LVU169
 707 0008 0024     		movs	r4, #0
 708              	.LBE358:
  65:Dubby.cpp     ****     cfg[CTRL_2].InitSingle(seed.GetPin(PIN_KNOB_2));
 709              		.loc 2 65 27 view .LVU170
 710 000a FFF7FEFF 		bl	_ZN5daisy9DaisySeed6GetPinEh
 711              	.LVL54:
 712 000e 0346     		mov	r3, r0	@ movhi
 713 0010 08A8     		add	r0, sp, #32
  73:Dubby.cpp     **** 
 714              		.loc 2 73 18 view .LVU171
 715 0012 05F13406 		add	r6, r5, #52
  65:Dubby.cpp     ****     cfg[CTRL_2].InitSingle(seed.GetPin(PIN_KNOB_2));
 716              		.loc 2 65 27 view .LVU172
 717 0016 ADF80830 		strh	r3, [sp, #8]	@ movhi
 718              	.LBB359:
  78:Dubby.cpp     ****     }
 719              		.loc 2 78 29 view .LVU173
 720 001a 05F11C07 		add	r7, r5, #28
 721              	.LBE359:
  65:Dubby.cpp     ****     cfg[CTRL_2].InitSingle(seed.GetPin(PIN_KNOB_2));
 722              		.loc 2 65 27 view .LVU174
 723 001e 0299     		ldr	r1, [sp, #8]
 724 0020 05F58E75 		add	r5, r5, #284
 725              	.LVL55:
  65:Dubby.cpp     ****     cfg[CTRL_2].InitSingle(seed.GetPin(PIN_KNOB_2));
 726              		.loc 2 65 27 view .LVU175
 727 0024 FFF7FEFF 		bl	_ZN5daisy16AdcChannelConfig10InitSingleE12dsy_gpio_pin
 728              	.LVL56:
  66:Dubby.cpp     ****     cfg[CTRL_3].InitSingle(seed.GetPin(PIN_KNOB_3));
 729              		.loc 2 66 5 is_stmt 1 view .LVU176
  66:Dubby.cpp     ****     cfg[CTRL_3].InitSingle(seed.GetPin(PIN_KNOB_3));
 730              		.loc 2 66 27 is_stmt 0 view .LVU177
 731 0028 0F20     		movs	r0, #15
 732 002a FFF7FEFF 		bl	_ZN5daisy9DaisySeed6GetPinEh
 733              	.LVL57:
 734 002e 0346     		mov	r3, r0	@ movhi
 735 0030 0DF13100 		add	r0, sp, #49
 736 0034 ADF80C30 		strh	r3, [sp, #12]	@ movhi
 737 0038 0399     		ldr	r1, [sp, #12]
 738 003a FFF7FEFF 		bl	_ZN5daisy16AdcChannelConfig10InitSingleE12dsy_gpio_pin
 739              	.LVL58:
  67:Dubby.cpp     ****     cfg[CTRL_4].InitSingle(seed.GetPin(PIN_KNOB_4));
 740              		.loc 2 67 5 is_stmt 1 view .LVU178
  67:Dubby.cpp     ****     cfg[CTRL_4].InitSingle(seed.GetPin(PIN_KNOB_4));
 741              		.loc 2 67 27 is_stmt 0 view .LVU179
 742 003e 1520     		movs	r0, #21
 743 0040 FFF7FEFF 		bl	_ZN5daisy9DaisySeed6GetPinEh
 744              	.LVL59:
 745 0044 0346     		mov	r3, r0	@ movhi
 746 0046 0DF14200 		add	r0, sp, #66
ARM GAS  /var/folders/1y/_321xjh9623c014x9_qw12rr0000gn/T//cc4eHiNS.s 			page 38


 747 004a ADF81030 		strh	r3, [sp, #16]	@ movhi
 748 004e 0499     		ldr	r1, [sp, #16]
 749 0050 FFF7FEFF 		bl	_ZN5daisy16AdcChannelConfig10InitSingleE12dsy_gpio_pin
 750              	.LVL60:
  68:Dubby.cpp     ****     cfg[CTRL_5].InitSingle(seed.GetPin(PIN_JS_H));
 751              		.loc 2 68 5 is_stmt 1 view .LVU180
  68:Dubby.cpp     ****     cfg[CTRL_5].InitSingle(seed.GetPin(PIN_JS_H));
 752              		.loc 2 68 27 is_stmt 0 view .LVU181
 753 0054 1620     		movs	r0, #22
 754 0056 FFF7FEFF 		bl	_ZN5daisy9DaisySeed6GetPinEh
 755              	.LVL61:
 756 005a 0346     		mov	r3, r0	@ movhi
 757 005c 0DF15300 		add	r0, sp, #83
 758 0060 ADF81430 		strh	r3, [sp, #20]	@ movhi
 759 0064 0599     		ldr	r1, [sp, #20]
 760 0066 FFF7FEFF 		bl	_ZN5daisy16AdcChannelConfig10InitSingleE12dsy_gpio_pin
 761              	.LVL62:
  69:Dubby.cpp     ****     cfg[CTRL_6].InitSingle(seed.GetPin(PIN_JS_V));
 762              		.loc 2 69 5 is_stmt 1 view .LVU182
  69:Dubby.cpp     ****     cfg[CTRL_6].InitSingle(seed.GetPin(PIN_JS_V));
 763              		.loc 2 69 27 is_stmt 0 view .LVU183
 764 006a 1020     		movs	r0, #16
 765 006c FFF7FEFF 		bl	_ZN5daisy9DaisySeed6GetPinEh
 766              	.LVL63:
 767 0070 0346     		mov	r3, r0	@ movhi
 768 0072 19A8     		add	r0, sp, #100
 769 0074 ADF81830 		strh	r3, [sp, #24]	@ movhi
 770 0078 0699     		ldr	r1, [sp, #24]
 771 007a FFF7FEFF 		bl	_ZN5daisy16AdcChannelConfig10InitSingleE12dsy_gpio_pin
 772              	.LVL64:
  70:Dubby.cpp     **** 
 773              		.loc 2 70 5 is_stmt 1 view .LVU184
  70:Dubby.cpp     **** 
 774              		.loc 2 70 27 is_stmt 0 view .LVU185
 775 007e 1420     		movs	r0, #20
 776 0080 FFF7FEFF 		bl	_ZN5daisy9DaisySeed6GetPinEh
 777              	.LVL65:
 778 0084 0346     		mov	r3, r0	@ movhi
 779 0086 0DF17500 		add	r0, sp, #117
 780 008a ADF81C30 		strh	r3, [sp, #28]	@ movhi
 781 008e 0799     		ldr	r1, [sp, #28]
 782 0090 FFF7FEFF 		bl	_ZN5daisy16AdcChannelConfig10InitSingleE12dsy_gpio_pin
 783              	.LVL66:
  73:Dubby.cpp     **** 
 784              		.loc 2 73 5 is_stmt 1 view .LVU186
  73:Dubby.cpp     **** 
 785              		.loc 2 73 18 is_stmt 0 view .LVU187
 786 0094 0423     		movs	r3, #4
 787 0096 0622     		movs	r2, #6
 788 0098 08A9     		add	r1, sp, #32
 789 009a 3046     		mov	r0, r6
 790 009c FFF7FEFF 		bl	_ZN5daisy9AdcHandle4InitEPNS_16AdcChannelConfigEjNS0_12OverSamplingE
 791              	.LVL67:
  76:Dubby.cpp     ****     {
 792              		.loc 2 76 5 is_stmt 1 view .LVU188
 793              	.LBB360:
  76:Dubby.cpp     ****     {
ARM GAS  /var/folders/1y/_321xjh9623c014x9_qw12rr0000gn/T//cc4eHiNS.s 			page 39


 794              		.loc 2 76 25 view .LVU189
 795              	.L47:
  78:Dubby.cpp     ****     }
 796              		.loc 2 78 9 discriminator 2 view .LVU190
  78:Dubby.cpp     ****     }
 797              		.loc 2 78 29 is_stmt 0 discriminator 2 view .LVU191
 798 00a0 E1B2     		uxtb	r1, r4
 799 00a2 3046     		mov	r0, r6
 800 00a4 FFF7FEFF 		bl	_ZNK5daisy9AdcHandle6GetPtrEh
 801              	.LVL68:
 802 00a8 0146     		mov	r1, r0
  76:Dubby.cpp     ****     {
 803              		.loc 2 76 5 discriminator 2 view .LVU192
 804 00aa 0134     		adds	r4, r4, #1
 805              	.LVL69:
  78:Dubby.cpp     ****     }
 806              		.loc 2 78 29 discriminator 2 view .LVU193
 807 00ac 3846     		mov	r0, r7
 808 00ae 0191     		str	r1, [sp, #4]
 809 00b0 FFF7FEFF 		bl	_ZNK5daisy9DaisySeed17AudioCallbackRateEv
 810              	.LVL70:
 811 00b4 2846     		mov	r0, r5
 812 00b6 DFED070A 		vldr.32	s1, .L50
 813 00ba 0023     		movs	r3, #0
 814 00bc 0122     		movs	r2, #1
 815 00be 0199     		ldr	r1, [sp, #4]
  76:Dubby.cpp     ****     {
 816              		.loc 2 76 25 discriminator 2 view .LVU194
 817 00c0 2035     		adds	r5, r5, #32
  78:Dubby.cpp     ****     }
 818              		.loc 2 78 29 discriminator 2 view .LVU195
 819 00c2 FFF7FEFF 		bl	_ZN5daisy13AnalogControl4InitEPtfbbf
 820              	.LVL71:
  76:Dubby.cpp     ****     {
 821              		.loc 2 76 5 is_stmt 1 discriminator 2 view .LVU196
  76:Dubby.cpp     ****     {
 822              		.loc 2 76 25 discriminator 2 view .LVU197
 823 00c6 062C     		cmp	r4, #6
 824 00c8 EAD1     		bne	.L47
 825              	.LBE360:
  81:Dubby.cpp     **** }
 826              		.loc 2 81 5 view .LVU198
  81:Dubby.cpp     **** }
 827              		.loc 2 81 19 is_stmt 0 view .LVU199
 828 00ca 3046     		mov	r0, r6
 829 00cc FFF7FEFF 		bl	_ZN5daisy9AdcHandle5StartEv
 830              	.LVL72:
  82:Dubby.cpp     **** 
 831              		.loc 2 82 1 view .LVU200
 832 00d0 23B0     		add	sp, sp, #140
 833              		.cfi_def_cfa_offset 20
 834              		@ sp needed
 835 00d2 F0BD     		pop	{r4, r5, r6, r7, pc}
 836              	.LVL73:
 837              	.L51:
  82:Dubby.cpp     **** 
 838              		.loc 2 82 1 view .LVU201
ARM GAS  /var/folders/1y/_321xjh9623c014x9_qw12rr0000gn/T//cc4eHiNS.s 			page 40


 839              		.align	2
 840              	.L50:
 841 00d4 6F12033B 		.word	990057071
 842              		.cfi_endproc
 843              	.LFE2569:
 845              		.section	.text._ZN5daisy5Dubby11InitButtonsEv,"ax",%progbits
 846              		.align	1
 847              		.p2align 2,,3
 848              		.global	_ZN5daisy5Dubby11InitButtonsEv
 849              		.syntax unified
 850              		.thumb
 851              		.thumb_func
 853              	_ZN5daisy5Dubby11InitButtonsEv:
 854              	.LVL74:
 855              	.LFB2570:
  85:Dubby.cpp     ****     //Set button to pins, to be updated at a 1kHz  samplerate
 856              		.loc 2 85 1 is_stmt 1 view -0
 857              		.cfi_startproc
 858              		@ args = 0, pretend = 0, frame = 16
 859              		@ frame_needed = 0, uses_anonymous_args = 0
  87:Dubby.cpp     ****     buttons[1].Init(seed.GetPin(PIN_GATE_IN_2), 1000);
 860              		.loc 2 87 5 view .LVU203
  85:Dubby.cpp     ****     //Set button to pins, to be updated at a 1kHz  samplerate
 861              		.loc 2 85 1 is_stmt 0 view .LVU204
 862 0000 10B5     		push	{r4, lr}
 863              		.cfi_def_cfa_offset 8
 864              		.cfi_offset 4, -8
 865              		.cfi_offset 14, -4
 866 0002 0446     		mov	r4, r0
  87:Dubby.cpp     ****     buttons[1].Init(seed.GetPin(PIN_GATE_IN_2), 1000);
 867              		.loc 2 87 20 view .LVU205
 868 0004 2020     		movs	r0, #32
 869              	.LVL75:
  85:Dubby.cpp     ****     //Set button to pins, to be updated at a 1kHz  samplerate
 870              		.loc 2 85 1 view .LVU206
 871 0006 2DED028B 		vpush.64	{d8}
 872              		.cfi_def_cfa_offset 16
 873              		.cfi_offset 80, -16
 874              		.cfi_offset 81, -12
 875 000a 84B0     		sub	sp, sp, #16
 876              		.cfi_def_cfa_offset 32
  87:Dubby.cpp     ****     buttons[1].Init(seed.GetPin(PIN_GATE_IN_2), 1000);
 877              		.loc 2 87 20 view .LVU207
 878 000c 9FED1C8A 		vldr.32	s16, .L54
 879 0010 FFF7FEFF 		bl	_ZN5daisy9DaisySeed6GetPinEh
 880              	.LVL76:
 881 0014 0346     		mov	r3, r0	@ movhi
 882 0016 B0EE480A 		vmov.f32	s0, s16
 883 001a 04F50070 		add	r0, r4, #512
 884 001e ADF80030 		strh	r3, [sp]	@ movhi
 885 0022 0099     		ldr	r1, [sp]
 886 0024 FFF7FEFF 		bl	_ZN5daisy6Switch4InitE12dsy_gpio_pinf
 887              	.LVL77:
  88:Dubby.cpp     ****     buttons[2].Init(seed.GetPin(PIN_GATE_IN_3), 1000);
 888              		.loc 2 88 5 is_stmt 1 view .LVU208
  88:Dubby.cpp     ****     buttons[2].Init(seed.GetPin(PIN_GATE_IN_3), 1000);
 889              		.loc 2 88 20 is_stmt 0 view .LVU209
ARM GAS  /var/folders/1y/_321xjh9623c014x9_qw12rr0000gn/T//cc4eHiNS.s 			page 41


 890 0028 1720     		movs	r0, #23
 891 002a FFF7FEFF 		bl	_ZN5daisy9DaisySeed6GetPinEh
 892              	.LVL78:
 893 002e 0346     		mov	r3, r0	@ movhi
 894 0030 B0EE480A 		vmov.f32	s0, s16
 895 0034 04F50470 		add	r0, r4, #528
 896 0038 ADF80430 		strh	r3, [sp, #4]	@ movhi
 897 003c 0199     		ldr	r1, [sp, #4]
 898 003e FFF7FEFF 		bl	_ZN5daisy6Switch4InitE12dsy_gpio_pinf
 899              	.LVL79:
  89:Dubby.cpp     ****     buttons[3].Init(seed.GetPin(PIN_GATE_IN_4), 1000);
 900              		.loc 2 89 5 is_stmt 1 view .LVU210
  89:Dubby.cpp     ****     buttons[3].Init(seed.GetPin(PIN_GATE_IN_4), 1000);
 901              		.loc 2 89 20 is_stmt 0 view .LVU211
 902 0042 1120     		movs	r0, #17
 903 0044 FFF7FEFF 		bl	_ZN5daisy9DaisySeed6GetPinEh
 904              	.LVL80:
 905 0048 0346     		mov	r3, r0	@ movhi
 906 004a B0EE480A 		vmov.f32	s0, s16
 907 004e 04F50870 		add	r0, r4, #544
 908 0052 ADF80830 		strh	r3, [sp, #8]	@ movhi
 909 0056 0299     		ldr	r1, [sp, #8]
 910 0058 FFF7FEFF 		bl	_ZN5daisy6Switch4InitE12dsy_gpio_pinf
 911              	.LVL81:
  90:Dubby.cpp     **** }
 912              		.loc 2 90 5 is_stmt 1 view .LVU212
  90:Dubby.cpp     **** }
 913              		.loc 2 90 20 is_stmt 0 view .LVU213
 914 005c 1320     		movs	r0, #19
 915 005e FFF7FEFF 		bl	_ZN5daisy9DaisySeed6GetPinEh
 916              	.LVL82:
 917 0062 0346     		mov	r3, r0	@ movhi
 918 0064 B0EE480A 		vmov.f32	s0, s16
 919 0068 04F50C70 		add	r0, r4, #560
 920 006c ADF80C30 		strh	r3, [sp, #12]	@ movhi
 921 0070 0399     		ldr	r1, [sp, #12]
  91:Dubby.cpp     **** 
 922              		.loc 2 91 1 view .LVU214
 923 0072 04B0     		add	sp, sp, #16
 924              		.cfi_def_cfa_offset 16
 925              		@ sp needed
 926 0074 BDEC028B 		vldm	sp!, {d8}
 927              		.cfi_restore 80
 928              		.cfi_restore 81
 929              		.cfi_def_cfa_offset 8
 930 0078 BDE81040 		pop	{r4, lr}
 931              		.cfi_restore 14
 932              		.cfi_restore 4
 933              		.cfi_def_cfa_offset 0
 934              	.LVL83:
  90:Dubby.cpp     **** }
 935              		.loc 2 90 20 view .LVU215
 936 007c FFF7FEBF 		b	_ZN5daisy6Switch4InitE12dsy_gpio_pinf
 937              	.LVL84:
 938              	.L55:
  90:Dubby.cpp     **** }
 939              		.loc 2 90 20 view .LVU216
ARM GAS  /var/folders/1y/_321xjh9623c014x9_qw12rr0000gn/T//cc4eHiNS.s 			page 42


 940              		.align	2
 941              	.L54:
 942 0080 00007A44 		.word	1148846080
 943              		.cfi_endproc
 944              	.LFE2570:
 946              		.section	.text._ZN5daisy5Dubby8InitMidiEv,"ax",%progbits
 947              		.align	1
 948              		.p2align 2,,3
 949              		.global	_ZN5daisy5Dubby8InitMidiEv
 950              		.syntax unified
 951              		.thumb
 952              		.thumb_func
 954              	_ZN5daisy5Dubby8InitMidiEv:
 955              	.LVL85:
 956              	.LFB2571:
  94:Dubby.cpp     ****     MidiUartHandler::Config midi_config;
 957              		.loc 2 94 1 is_stmt 1 view -0
 958              		.cfi_startproc
 959              		@ args = 0, pretend = 0, frame = 32
 960              		@ frame_needed = 0, uses_anonymous_args = 0
  95:Dubby.cpp     ****     midi.Init(midi_config);
 961              		.loc 2 95 5 view .LVU218
 962              	.LBB374:
 963              	.LBI374:
 964              		.file 6 "../../libDaisy//src/hid/midi.h"
   1:../../libDaisy//src/hid/midi.h **** #pragma once
   2:../../libDaisy//src/hid/midi.h **** #ifndef DSY_MIDI_H
   3:../../libDaisy//src/hid/midi.h **** #define DSY_MIDI_H
   4:../../libDaisy//src/hid/midi.h **** 
   5:../../libDaisy//src/hid/midi.h **** // TODO: make this adjustable
   6:../../libDaisy//src/hid/midi.h **** #define SYSEX_BUFFER_LEN 128
   7:../../libDaisy//src/hid/midi.h **** 
   8:../../libDaisy//src/hid/midi.h **** #include <stdint.h>
   9:../../libDaisy//src/hid/midi.h **** #include <stdlib.h>
  10:../../libDaisy//src/hid/midi.h **** #include "per/uart.h"
  11:../../libDaisy//src/hid/midi.h **** #include "util/ringbuffer.h"
  12:../../libDaisy//src/hid/midi.h **** #include "hid/MidiEvent.h"
  13:../../libDaisy//src/hid/midi.h **** #include "hid/usb_midi.h"
  14:../../libDaisy//src/hid/midi.h **** #include "sys/system.h"
  15:../../libDaisy//src/hid/midi.h **** 
  16:../../libDaisy//src/hid/midi.h **** namespace daisy
  17:../../libDaisy//src/hid/midi.h **** {
  18:../../libDaisy//src/hid/midi.h **** /** @brief   Transport layer for sending and receiving MIDI data over UART 
  19:../../libDaisy//src/hid/midi.h ****  *  @details This is the mode of communication used for TRS and DIN MIDI
  20:../../libDaisy//src/hid/midi.h ****  *  @ingroup midi
  21:../../libDaisy//src/hid/midi.h **** */
  22:../../libDaisy//src/hid/midi.h **** class MidiUartTransport
  23:../../libDaisy//src/hid/midi.h **** {
  24:../../libDaisy//src/hid/midi.h ****   public:
  25:../../libDaisy//src/hid/midi.h ****     MidiUartTransport() {}
  26:../../libDaisy//src/hid/midi.h ****     ~MidiUartTransport() {}
  27:../../libDaisy//src/hid/midi.h **** 
  28:../../libDaisy//src/hid/midi.h ****     struct Config
  29:../../libDaisy//src/hid/midi.h ****     {
  30:../../libDaisy//src/hid/midi.h ****         UartHandler::Config::Peripheral periph;
  31:../../libDaisy//src/hid/midi.h ****         dsy_gpio_pin                    rx;
  32:../../libDaisy//src/hid/midi.h ****         dsy_gpio_pin                    tx;
ARM GAS  /var/folders/1y/_321xjh9623c014x9_qw12rr0000gn/T//cc4eHiNS.s 			page 43


  33:../../libDaisy//src/hid/midi.h **** 
  34:../../libDaisy//src/hid/midi.h ****         Config()
  35:../../libDaisy//src/hid/midi.h ****         {
  36:../../libDaisy//src/hid/midi.h ****             periph = UartHandler::Config::Peripheral::USART_1;
  37:../../libDaisy//src/hid/midi.h ****             rx     = {DSY_GPIOB, 7};
  38:../../libDaisy//src/hid/midi.h ****             tx     = {DSY_GPIOB, 6};
  39:../../libDaisy//src/hid/midi.h ****         }
  40:../../libDaisy//src/hid/midi.h ****     };
  41:../../libDaisy//src/hid/midi.h **** 
  42:../../libDaisy//src/hid/midi.h ****     inline void Init(Config config)
  43:../../libDaisy//src/hid/midi.h ****     {
  44:../../libDaisy//src/hid/midi.h ****         UartHandler::Config uart_config;
  45:../../libDaisy//src/hid/midi.h **** 
  46:../../libDaisy//src/hid/midi.h ****         //defaults
  47:../../libDaisy//src/hid/midi.h ****         uart_config.baudrate   = 31250;
  48:../../libDaisy//src/hid/midi.h ****         uart_config.stopbits   = UartHandler::Config::StopBits::BITS_1;
  49:../../libDaisy//src/hid/midi.h ****         uart_config.parity     = UartHandler::Config::Parity::NONE;
  50:../../libDaisy//src/hid/midi.h ****         uart_config.mode       = UartHandler::Config::Mode::TX_RX;
  51:../../libDaisy//src/hid/midi.h ****         uart_config.wordlength = UartHandler::Config::WordLength::BITS_8;
  52:../../libDaisy//src/hid/midi.h **** 
  53:../../libDaisy//src/hid/midi.h ****         //user settings
  54:../../libDaisy//src/hid/midi.h ****         uart_config.periph        = config.periph;
  55:../../libDaisy//src/hid/midi.h ****         uart_config.pin_config.rx = config.rx;
  56:../../libDaisy//src/hid/midi.h ****         uart_config.pin_config.tx = config.tx;
  57:../../libDaisy//src/hid/midi.h **** 
  58:../../libDaisy//src/hid/midi.h ****         uart_.Init(uart_config);
  59:../../libDaisy//src/hid/midi.h ****     }
  60:../../libDaisy//src/hid/midi.h **** 
  61:../../libDaisy//src/hid/midi.h ****     inline void    StartRx() { uart_.StartRx(); }
  62:../../libDaisy//src/hid/midi.h ****     inline size_t  Readable() { return uart_.Readable(); }
  63:../../libDaisy//src/hid/midi.h ****     inline uint8_t Rx() { return uart_.PopRx(); }
  64:../../libDaisy//src/hid/midi.h ****     inline bool    RxActive() { return uart_.RxActive(); }
  65:../../libDaisy//src/hid/midi.h ****     inline void    FlushRx() { uart_.FlushRx(); }
  66:../../libDaisy//src/hid/midi.h ****     inline void    Tx(uint8_t* buff, size_t size) { uart_.PollTx(buff, size); }
  67:../../libDaisy//src/hid/midi.h **** 
  68:../../libDaisy//src/hid/midi.h ****   private:
  69:../../libDaisy//src/hid/midi.h ****     UartHandler uart_;
  70:../../libDaisy//src/hid/midi.h **** };
  71:../../libDaisy//src/hid/midi.h **** 
  72:../../libDaisy//src/hid/midi.h **** /** 
  73:../../libDaisy//src/hid/midi.h ****     @brief Simple MIDI Handler \n 
  74:../../libDaisy//src/hid/midi.h ****     Parses bytes from an input into valid MidiEvents. \n 
  75:../../libDaisy//src/hid/midi.h ****     The MidiEvents fill a FIFO queue that the user can pop messages from.
  76:../../libDaisy//src/hid/midi.h ****     @author shensley
  77:../../libDaisy//src/hid/midi.h ****     @date March 2020
  78:../../libDaisy//src/hid/midi.h ****     @ingroup midi
  79:../../libDaisy//src/hid/midi.h **** */
  80:../../libDaisy//src/hid/midi.h **** template <typename Transport>
  81:../../libDaisy//src/hid/midi.h **** class MidiHandler
  82:../../libDaisy//src/hid/midi.h **** {
  83:../../libDaisy//src/hid/midi.h ****   public:
  84:../../libDaisy//src/hid/midi.h ****     MidiHandler() {}
  85:../../libDaisy//src/hid/midi.h ****     ~MidiHandler() {}
  86:../../libDaisy//src/hid/midi.h **** 
  87:../../libDaisy//src/hid/midi.h ****     struct Config
 965              		.loc 6 87 12 view .LVU219
 966              	.LBB375:
ARM GAS  /var/folders/1y/_321xjh9623c014x9_qw12rr0000gn/T//cc4eHiNS.s 			page 44


 967              	.LBI375:
  34:../../libDaisy//src/hid/midi.h ****         {
 968              		.loc 6 34 9 view .LVU220
 969              	.LBE375:
 970              	.LBE374:
  36:../../libDaisy//src/hid/midi.h ****             rx     = {DSY_GPIOB, 7};
 971              		.loc 6 36 13 view .LVU221
  37:../../libDaisy//src/hid/midi.h ****             tx     = {DSY_GPIOB, 6};
 972              		.loc 6 37 13 view .LVU222
  38:../../libDaisy//src/hid/midi.h ****         }
 973              		.loc 6 38 13 view .LVU223
  96:Dubby.cpp     **** }
 974              		.loc 2 96 5 view .LVU224
  94:Dubby.cpp     ****     MidiUartHandler::Config midi_config;
 975              		.loc 2 94 1 is_stmt 0 view .LVU225
 976 0000 70B5     		push	{r4, r5, r6, lr}
 977              		.cfi_def_cfa_offset 16
 978              		.cfi_offset 4, -16
 979              		.cfi_offset 5, -12
 980              		.cfi_offset 6, -8
 981              		.cfi_offset 14, -4
 982              	.LBB376:
 983              	.LBB377:
 984              	.LBB378:
 985              	.LBB379:
 986              	.LBB380:
 987              	.LBB381:
 988              	.LBB382:
 989              		.file 7 "../../libDaisy//src/per/uart.h"
   1:../../libDaisy//src/per/uart.h **** /* 
   2:../../libDaisy//src/per/uart.h **** TODO
   3:../../libDaisy//src/per/uart.h **** - UART1 defaults to DMA, add flexible config for DMA on all periphs
   4:../../libDaisy//src/per/uart.h **** - Transmit function improvements.
   5:../../libDaisy//src/per/uart.h **** - Overflow handling, etc. for Rx Queue.
   6:../../libDaisy//src/per/uart.h **** */
   7:../../libDaisy//src/per/uart.h **** 
   8:../../libDaisy//src/per/uart.h **** #pragma once
   9:../../libDaisy//src/per/uart.h **** #ifndef DSY_UART_H
  10:../../libDaisy//src/per/uart.h **** #define DSY_UART_H /**< macro */
  11:../../libDaisy//src/per/uart.h **** #include "daisy_core.h"
  12:../../libDaisy//src/per/uart.h **** 
  13:../../libDaisy//src/per/uart.h **** 
  14:../../libDaisy//src/per/uart.h **** namespace daisy
  15:../../libDaisy//src/per/uart.h **** {
  16:../../libDaisy//src/per/uart.h **** /** @addtogroup serial
  17:../../libDaisy//src/per/uart.h ****     @{
  18:../../libDaisy//src/per/uart.h ****     */
  19:../../libDaisy//src/per/uart.h **** 
  20:../../libDaisy//src/per/uart.h **** /** 
  21:../../libDaisy//src/per/uart.h ****     Uart Peripheral
  22:../../libDaisy//src/per/uart.h ****     @author shensley
  23:../../libDaisy//src/per/uart.h ****     @date March 2020
  24:../../libDaisy//src/per/uart.h ****     */
  25:../../libDaisy//src/per/uart.h **** class UartHandler
  26:../../libDaisy//src/per/uart.h **** {
  27:../../libDaisy//src/per/uart.h ****   public:
  28:../../libDaisy//src/per/uart.h ****     struct Config
ARM GAS  /var/folders/1y/_321xjh9623c014x9_qw12rr0000gn/T//cc4eHiNS.s 			page 45


  29:../../libDaisy//src/per/uart.h ****     {
  30:../../libDaisy//src/per/uart.h ****         enum class Peripheral
  31:../../libDaisy//src/per/uart.h ****         {
  32:../../libDaisy//src/per/uart.h ****             USART_1,
  33:../../libDaisy//src/per/uart.h ****             USART_2,
  34:../../libDaisy//src/per/uart.h ****             USART_3,
  35:../../libDaisy//src/per/uart.h ****             UART_4,
  36:../../libDaisy//src/per/uart.h ****             UART_5,
  37:../../libDaisy//src/per/uart.h ****             USART_6,
  38:../../libDaisy//src/per/uart.h ****             UART_7,
  39:../../libDaisy//src/per/uart.h ****             UART_8,
  40:../../libDaisy//src/per/uart.h ****             LPUART_1,
  41:../../libDaisy//src/per/uart.h ****         };
  42:../../libDaisy//src/per/uart.h **** 
  43:../../libDaisy//src/per/uart.h ****         enum class StopBits
  44:../../libDaisy//src/per/uart.h ****         {
  45:../../libDaisy//src/per/uart.h ****             BITS_0_5,
  46:../../libDaisy//src/per/uart.h ****             BITS_1,
  47:../../libDaisy//src/per/uart.h ****             BITS_1_5,
  48:../../libDaisy//src/per/uart.h ****             BITS_2,
  49:../../libDaisy//src/per/uart.h ****         };
  50:../../libDaisy//src/per/uart.h **** 
  51:../../libDaisy//src/per/uart.h ****         enum class Parity
  52:../../libDaisy//src/per/uart.h ****         {
  53:../../libDaisy//src/per/uart.h ****             NONE,
  54:../../libDaisy//src/per/uart.h ****             EVEN,
  55:../../libDaisy//src/per/uart.h ****             ODD,
  56:../../libDaisy//src/per/uart.h ****         };
  57:../../libDaisy//src/per/uart.h **** 
  58:../../libDaisy//src/per/uart.h ****         enum class Mode
  59:../../libDaisy//src/per/uart.h ****         {
  60:../../libDaisy//src/per/uart.h ****             RX,
  61:../../libDaisy//src/per/uart.h ****             TX,
  62:../../libDaisy//src/per/uart.h ****             TX_RX,
  63:../../libDaisy//src/per/uart.h ****         };
  64:../../libDaisy//src/per/uart.h **** 
  65:../../libDaisy//src/per/uart.h ****         enum class WordLength
  66:../../libDaisy//src/per/uart.h ****         {
  67:../../libDaisy//src/per/uart.h ****             BITS_7,
  68:../../libDaisy//src/per/uart.h ****             BITS_8,
  69:../../libDaisy//src/per/uart.h ****             BITS_9,
  70:../../libDaisy//src/per/uart.h ****         };
  71:../../libDaisy//src/per/uart.h **** 
  72:../../libDaisy//src/per/uart.h ****         struct
  73:../../libDaisy//src/per/uart.h ****         {
  74:../../libDaisy//src/per/uart.h ****             dsy_gpio_pin tx; /**< & */
  75:../../libDaisy//src/per/uart.h ****             dsy_gpio_pin rx; /**< & */
  76:../../libDaisy//src/per/uart.h ****         } pin_config;        /**< & */
  77:../../libDaisy//src/per/uart.h **** 
  78:../../libDaisy//src/per/uart.h ****         Config()
  79:../../libDaisy//src/per/uart.h ****         {
  80:../../libDaisy//src/per/uart.h ****             // user must init periph, pin_config, and mode
  81:../../libDaisy//src/per/uart.h ****             stopbits   = StopBits::BITS_1;
 990              		.loc 7 81 24 view .LVU226
 991 0002 0123     		movs	r3, #1
 992              	.LBE382:
 993              	.LBE381:
ARM GAS  /var/folders/1y/_321xjh9623c014x9_qw12rr0000gn/T//cc4eHiNS.s 			page 46


 994              	.LBE380:
 995              	.LBE379:
 996              	.LBE378:
 997              	.LBE377:
 998              	.LBE376:
  94:Dubby.cpp     ****     MidiUartHandler::Config midi_config;
 999              		.loc 2 94 1 view .LVU227
 1000 0004 88B0     		sub	sp, sp, #32
 1001              		.cfi_def_cfa_offset 48
 1002              	.LBB410:
 1003              	.LBB407:
  88:../../libDaisy//src/hid/midi.h ****     {
  89:../../libDaisy//src/hid/midi.h ****         typename Transport::Config transport_config;
  90:../../libDaisy//src/hid/midi.h ****     };
  91:../../libDaisy//src/hid/midi.h **** 
  92:../../libDaisy//src/hid/midi.h ****     /** Initializes the MidiHandler 
  93:../../libDaisy//src/hid/midi.h ****      *  \param config Configuration structure used to define specifics to the MIDI Handler.
  94:../../libDaisy//src/hid/midi.h ****      */
  95:../../libDaisy//src/hid/midi.h ****     void Init(Config config)
  96:../../libDaisy//src/hid/midi.h ****     {
  97:../../libDaisy//src/hid/midi.h ****         config_ = config;
 1004              		.loc 6 97 9 view .LVU228
 1005 0006 0025     		movs	r5, #0
 1006              	.LBE407:
 1007              	.LBE410:
  94:Dubby.cpp     ****     MidiUartHandler::Config midi_config;
 1008              		.loc 2 94 1 view .LVU229
 1009 0008 0446     		mov	r4, r0
 1010              	.LBB411:
 1011              	.LBB408:
 1012              	.LBB400:
 1013              	.LBB396:
 1014              	.LBB391:
 1015              	.LBB386:
 1016              	.LBB383:
  82:../../libDaisy//src/per/uart.h ****             parity     = Parity::NONE;
  83:../../libDaisy//src/per/uart.h ****             wordlength = WordLength::BITS_8;
 1017              		.loc 7 83 24 view .LVU230
 1018 000a 0693     		str	r3, [sp, #24]
 1019              	.LBE383:
 1020              	.LBE386:
 1021              	.LBE391:
  58:../../libDaisy//src/hid/midi.h ****     }
 1022              		.loc 6 58 19 view .LVU231
 1023 000c 49F61410 		movw	r0, #39188
 1024              	.LVL86:
  58:../../libDaisy//src/hid/midi.h ****     }
 1025              		.loc 6 58 19 view .LVU232
 1026              	.LBE396:
 1027              	.LBE400:
 1028              	.LBE408:
 1029              	.LBI376:
  95:../../libDaisy//src/hid/midi.h ****     {
 1030              		.loc 6 95 10 is_stmt 1 view .LVU233
 1031              	.LBB409:
 1032              		.loc 6 97 9 is_stmt 0 view .LVU234
 1033 0010 04F51046 		add	r6, r4, #36864
ARM GAS  /var/folders/1y/_321xjh9623c014x9_qw12rr0000gn/T//cc4eHiNS.s 			page 47


 1034 0014 0E4A     		ldr	r2, .L58
 1035              	.LBB401:
 1036              	.LBB397:
 1037              	.LBB392:
 1038              	.LBB387:
  79:../../libDaisy//src/per/uart.h ****             // user must init periph, pin_config, and mode
 1039              		.loc 7 79 9 view .LVU235
 1040 0016 0F49     		ldr	r1, .L58+4
 1041              	.LBE387:
 1042              	.LBE392:
  58:../../libDaisy//src/hid/midi.h ****     }
 1043              		.loc 6 58 19 view .LVU236
 1044 0018 2044     		add	r0, r0, r4
 1045              	.LBE397:
 1046              	.LBE401:
 1047              		.loc 6 97 9 view .LVU237
 1048 001a C6F81029 		str	r2, [r6, #2320]
 1049              	.LVL87:
 1050              	.LBB402:
 1051              	.LBI378:
  42:../../libDaisy//src/hid/midi.h ****     {
 1052              		.loc 6 42 17 is_stmt 1 view .LVU238
 1053              	.LBB398:
  44:../../libDaisy//src/hid/midi.h **** 
 1054              		.loc 6 44 9 view .LVU239
 1055              	.LBB393:
 1056              	.LBI380:
  78:../../libDaisy//src/per/uart.h ****         {
 1057              		.loc 7 78 9 view .LVU240
 1058              	.LBB388:
 1059              	.LBB384:
  81:../../libDaisy//src/per/uart.h ****             parity     = Parity::NONE;
 1060              		.loc 7 81 13 view .LVU241
  82:../../libDaisy//src/per/uart.h ****             wordlength = WordLength::BITS_8;
 1061              		.loc 7 82 13 view .LVU242
 1062              		.loc 7 83 13 view .LVU243
  84:../../libDaisy//src/per/uart.h ****             baudrate   = 4800;
 1063              		.loc 7 84 13 view .LVU244
 1064              		.loc 7 84 13 is_stmt 0 view .LVU245
 1065              	.LBE384:
 1066              	.LBE388:
 1067              	.LBE393:
  47:../../libDaisy//src/hid/midi.h ****         uart_config.stopbits   = UartHandler::Config::StopBits::BITS_1;
 1068              		.loc 6 47 9 is_stmt 1 view .LVU246
  48:../../libDaisy//src/hid/midi.h ****         uart_config.parity     = UartHandler::Config::Parity::NONE;
 1069              		.loc 6 48 9 view .LVU247
  49:../../libDaisy//src/hid/midi.h ****         uart_config.mode       = UartHandler::Config::Mode::TX_RX;
 1070              		.loc 6 49 9 view .LVU248
  50:../../libDaisy//src/hid/midi.h ****         uart_config.wordlength = UartHandler::Config::WordLength::BITS_8;
 1071              		.loc 6 50 9 view .LVU249
  51:../../libDaisy//src/hid/midi.h **** 
 1072              		.loc 6 51 9 view .LVU250
  54:../../libDaisy//src/hid/midi.h ****         uart_config.pin_config.rx = config.rx;
 1073              		.loc 6 54 9 view .LVU251
  55:../../libDaisy//src/hid/midi.h ****         uart_config.pin_config.tx = config.tx;
 1074              		.loc 6 55 9 view .LVU252
  56:../../libDaisy//src/hid/midi.h **** 
ARM GAS  /var/folders/1y/_321xjh9623c014x9_qw12rr0000gn/T//cc4eHiNS.s 			page 48


 1075              		.loc 6 56 9 view .LVU253
 1076              	.LBB394:
 1077              	.LBB389:
  79:../../libDaisy//src/per/uart.h ****             // user must init periph, pin_config, and mode
 1078              		.loc 7 79 9 is_stmt 0 view .LVU254
 1079 001e 0191     		str	r1, [sp, #4]
 1080              	.LBE389:
 1081              	.LBE394:
  58:../../libDaisy//src/hid/midi.h ****     }
 1082              		.loc 6 58 19 view .LVU255
 1083 0020 01A9     		add	r1, sp, #4
 1084              	.LBE398:
 1085              	.LBE402:
 1086              		.loc 6 97 9 view .LVU256
 1087 0022 C6F80C59 		str	r5, [r6, #2316]
 1088              	.LBB403:
 1089              	.LBB399:
 1090              	.LBB395:
 1091              	.LBB390:
 1092              	.LBB385:
  82:../../libDaisy//src/per/uart.h ****             wordlength = WordLength::BITS_8;
 1093              		.loc 7 82 24 view .LVU257
 1094 0026 0495     		str	r5, [sp, #16]
  81:../../libDaisy//src/per/uart.h ****             parity     = Parity::NONE;
 1095              		.loc 7 81 24 view .LVU258
 1096 0028 CDE90253 		strd	r5, r3, [sp, #8]
 1097              	.LBE385:
 1098              	.LBE390:
 1099              	.LBE395:
  47:../../libDaisy//src/hid/midi.h ****         uart_config.stopbits   = UartHandler::Config::StopBits::BITS_1;
 1100              		.loc 6 47 32 view .LVU259
 1101 002c 47F61223 		movw	r3, #31250
 1102 0030 0793     		str	r3, [sp, #28]
  58:../../libDaisy//src/hid/midi.h ****     }
 1103              		.loc 6 58 9 is_stmt 1 view .LVU260
  50:../../libDaisy//src/hid/midi.h ****         uart_config.wordlength = UartHandler::Config::WordLength::BITS_8;
 1104              		.loc 6 50 32 is_stmt 0 view .LVU261
 1105 0032 0223     		movs	r3, #2
 1106 0034 0593     		str	r3, [sp, #20]
  58:../../libDaisy//src/hid/midi.h ****     }
 1107              		.loc 6 58 19 view .LVU262
 1108 0036 FFF7FEFF 		bl	_ZN5daisy11UartHandler4InitERKNS0_6ConfigE
 1109              	.LVL88:
  58:../../libDaisy//src/hid/midi.h ****     }
 1110              		.loc 6 58 19 view .LVU263
 1111              	.LBE399:
 1112              	.LBE403:
 1113              	.LBB404:
 1114              	.LBI404:
 1115              		.file 8 "../../libDaisy//src/util/ringbuffer.h"
   1:../../libDaisy//src/util/ringbuffer.h **** #pragma once
   2:../../libDaisy//src/util/ringbuffer.h **** #ifndef DSY_RINGBUFFER_H
   3:../../libDaisy//src/util/ringbuffer.h **** #define DSY_RINGBUFFER_H
   4:../../libDaisy//src/util/ringbuffer.h **** 
   5:../../libDaisy//src/util/ringbuffer.h **** #include <algorithm>
   6:../../libDaisy//src/util/ringbuffer.h **** 
   7:../../libDaisy//src/util/ringbuffer.h **** namespace daisy
ARM GAS  /var/folders/1y/_321xjh9623c014x9_qw12rr0000gn/T//cc4eHiNS.s 			page 49


   8:../../libDaisy//src/util/ringbuffer.h **** {
   9:../../libDaisy//src/util/ringbuffer.h **** /** @addtogroup utility
  10:../../libDaisy//src/util/ringbuffer.h ****     @{
  11:../../libDaisy//src/util/ringbuffer.h **** */
  12:../../libDaisy//src/util/ringbuffer.h **** 
  13:../../libDaisy//src/util/ringbuffer.h **** /**
  14:../../libDaisy//src/util/ringbuffer.h **** Utility Ring Buffer \n 
  15:../../libDaisy//src/util/ringbuffer.h **** imported from pichenettes/stmlib
  16:../../libDaisy//src/util/ringbuffer.h **** */
  17:../../libDaisy//src/util/ringbuffer.h **** template <typename T, size_t size>
  18:../../libDaisy//src/util/ringbuffer.h **** class RingBuffer
  19:../../libDaisy//src/util/ringbuffer.h **** {
  20:../../libDaisy//src/util/ringbuffer.h ****   public:
  21:../../libDaisy//src/util/ringbuffer.h ****     RingBuffer() {}
  22:../../libDaisy//src/util/ringbuffer.h **** 
  23:../../libDaisy//src/util/ringbuffer.h ****     /** Initializes the Ring Buffer */
  24:../../libDaisy//src/util/ringbuffer.h ****     inline void Init() { read_ptr_ = write_ptr_ = 0; }
 1116              		.loc 8 24 17 is_stmt 1 view .LVU264
 1117              	.LBE404:
  98:../../libDaisy//src/hid/midi.h **** 
  99:../../libDaisy//src/hid/midi.h ****         transport_.Init(config_.transport_config);
 100:../../libDaisy//src/hid/midi.h **** 
 101:../../libDaisy//src/hid/midi.h ****         event_q_.Init();
 102:../../libDaisy//src/hid/midi.h ****         incoming_message_.type = MessageLast;
 1118              		.loc 6 102 32 is_stmt 0 view .LVU265
 1119 003a 0A23     		movs	r3, #10
 1120              	.LBB406:
 1121              	.LBB405:
 1122              		.loc 8 24 49 view .LVU266
 1123 003c C6F80059 		str	r5, [r6, #2304]
 1124              		.loc 8 24 36 view .LVU267
 1125 0040 C6F8FC58 		str	r5, [r6, #2300]
 1126              	.LVL89:
 1127              		.loc 8 24 36 view .LVU268
 1128              	.LBE405:
 1129              	.LBE406:
 103:../../libDaisy//src/hid/midi.h ****         pstate_                = ParserEmpty;
 1130              		.loc 6 103 32 view .LVU269
 1131 0044 84F86858 		strb	r5, [r4, #2152]
 1132              	.LVL90:
 102:../../libDaisy//src/hid/midi.h ****         pstate_                = ParserEmpty;
 1133              		.loc 6 102 32 view .LVU270
 1134 0048 84F86C38 		strb	r3, [r4, #2156]
 1135              	.LBE409:
 1136              	.LBE411:
  97:Dubby.cpp     **** 
 1137              		.loc 2 97 1 view .LVU271
 1138 004c 08B0     		add	sp, sp, #32
 1139              		.cfi_def_cfa_offset 16
 1140              		@ sp needed
 1141 004e 70BD     		pop	{r4, r5, r6, pc}
 1142              	.LVL91:
 1143              	.L59:
  97:Dubby.cpp     **** 
 1144              		.loc 2 97 1 view .LVU272
 1145              		.align	2
 1146              	.L58:
ARM GAS  /var/folders/1y/_321xjh9623c014x9_qw12rr0000gn/T//cc4eHiNS.s 			page 50


 1147 0050 01070106 		.word	100730625
 1148 0054 01060107 		.word	117507585
 1149              		.cfi_endproc
 1150              	.LFE2571:
 1152              		.section	.text._ZN5daisy5Dubby10DrawBitmapEi,"ax",%progbits
 1153              		.align	1
 1154              		.p2align 2,,3
 1155              		.global	_ZN5daisy5Dubby10DrawBitmapEi
 1156              		.syntax unified
 1157              		.thumb
 1158              		.thumb_func
 1160              	_ZN5daisy5Dubby10DrawBitmapEi:
 1161              	.LVL92:
 1162              	.LFB2584:
 153:Dubby.cpp     ****     display.Fill(false);
 1163              		.loc 2 153 1 is_stmt 1 view -0
 1164              		.cfi_startproc
 1165              		@ args = 0, pretend = 0, frame = 24
 1166              		@ frame_needed = 0, uses_anonymous_args = 0
 153:Dubby.cpp     ****     display.Fill(false);
 1167              		.loc 2 153 1 is_stmt 0 view .LVU274
 1168 0000 0B46     		mov	r3, r1
 1169              	.LBB448:
 1170              	.LBB449:
 1171              	.LBB450:
 366:../../libDaisy//src/dev/oled_ssd130x.h ****         }
 1172              		.loc 4 366 24 view .LVU275
 1173 0002 0021     		movs	r1, #0
 1174              	.LVL93:
 366:../../libDaisy//src/dev/oled_ssd130x.h ****         }
 1175              		.loc 4 366 24 view .LVU276
 1176 0004 4FF48062 		mov	r2, #1024
 1177 0008 9B02     		lsls	r3, r3, #10
 1178              	.LVL94:
 366:../../libDaisy//src/dev/oled_ssd130x.h ****         }
 1179              		.loc 4 366 24 view .LVU277
 1180              	.LBE450:
 1181              	.LBE449:
 1182              	.LBE448:
 153:Dubby.cpp     ****     display.Fill(false);
 1183              		.loc 2 153 1 view .LVU278
 1184 000a 2DE9F04F 		push	{r4, r5, r6, r7, r8, r9, r10, fp, lr}
 1185              		.cfi_def_cfa_offset 36
 1186              		.cfi_offset 4, -36
 1187              		.cfi_offset 5, -32
 1188              		.cfi_offset 6, -28
 1189              		.cfi_offset 7, -24
 1190              		.cfi_offset 8, -20
 1191              		.cfi_offset 9, -16
 1192              		.cfi_offset 10, -12
 1193              		.cfi_offset 11, -8
 1194              		.cfi_offset 14, -4
 1195 000e 8246     		mov	r10, r0
 154:Dubby.cpp     ****     display.SetCursor(30, 30);
 1196              		.loc 2 154 5 is_stmt 1 view .LVU279
 1197              	.LVL95:
 1198              	.LBB455:
ARM GAS  /var/folders/1y/_321xjh9623c014x9_qw12rr0000gn/T//cc4eHiNS.s 			page 51


 1199              	.LBI448:
  34:../../libDaisy//src/hid/disp/oled_display.h **** 
 1200              		.loc 1 34 10 view .LVU280
 1201              	.LBB453:
 1202              	.LBI449:
 362:../../libDaisy//src/dev/oled_ssd130x.h ****     {
 1203              		.loc 4 362 10 view .LVU281
 1204              	.LBB451:
 364:../../libDaisy//src/dev/oled_ssd130x.h ****         {
 1205              		.loc 4 364 29 view .LVU282
 1206              	.LBE451:
 1207              	.LBE453:
 1208              	.LBE455:
 153:Dubby.cpp     ****     display.Fill(false);
 1209              		.loc 2 153 1 is_stmt 0 view .LVU283
 1210 0010 87B0     		sub	sp, sp, #28
 1211              		.cfi_def_cfa_offset 64
 1212 0012 00F26440 		addw	r0, r0, #1124
 1213              	.LVL96:
 1214              	.LBB456:
 157:Dubby.cpp     ****         for (int y = 0; y < OLED_HEIGHT; y++) {
 1215              		.loc 2 157 14 view .LVU284
 1216 0016 8B46     		mov	fp, r1
 1217 0018 0293     		str	r3, [sp, #8]
 1218 001a 0390     		str	r0, [sp, #12]
 1219              	.LBE456:
 1220              	.LBB526:
 1221              	.LBB454:
 1222              	.LBB452:
 366:../../libDaisy//src/dev/oled_ssd130x.h ****         }
 1223              		.loc 4 366 24 view .LVU285
 1224 001c FFF7FEFF 		bl	memset
 1225              	.LVL97:
 366:../../libDaisy//src/dev/oled_ssd130x.h ****         }
 1226              		.loc 4 366 24 view .LVU286
 1227              	.LBE452:
 1228              	.LBE454:
 1229              	.LBE526:
 155:Dubby.cpp     ****     
 1230              		.loc 2 155 5 is_stmt 1 view .LVU287
 1231              	.LBB527:
 1232              	.LBI527:
 171:../../libDaisy//src/hid/disp/display.h ****     {
 1233              		.loc 3 171 10 view .LVU288
 1234              	.LBB528:
 173:../../libDaisy//src/hid/disp/display.h ****         currentY_ = (y >= Height()) ? Height() - 1 : y;
 1235              		.loc 3 173 9 view .LVU289
 174:../../libDaisy//src/hid/disp/display.h ****     }
 1236              		.loc 3 174 9 view .LVU290
 173:../../libDaisy//src/hid/disp/display.h ****         currentY_ = (y >= Height()) ? Height() - 1 : y;
 1237              		.loc 3 173 19 is_stmt 0 view .LVU291
 1238 0020 4FF01E13 		mov	r3, #1966110
 1239 0024 CAF85434 		str	r3, [r10, #1108]
 1240              	.LVL98:
 173:../../libDaisy//src/hid/disp/display.h ****         currentY_ = (y >= Height()) ? Height() - 1 : y;
 1241              		.loc 3 173 19 view .LVU292
 1242              	.LBE528:
ARM GAS  /var/folders/1y/_321xjh9623c014x9_qw12rr0000gn/T//cc4eHiNS.s 			page 52


 1243              	.LBE527:
 1244              	.LBB529:
 157:Dubby.cpp     ****         for (int y = 0; y < OLED_HEIGHT; y++) {
 1245              		.loc 2 157 23 is_stmt 1 view .LVU293
 1246              	.L69:
 1247              	.LBB457:
 158:Dubby.cpp     ****             // Calculate the index in the array
 1248              		.loc 2 158 27 view .LVU294
 1249 0028 0BF26443 		addw	r3, fp, #1124
 158:Dubby.cpp     ****             // Calculate the index in the array
 1250              		.loc 2 158 18 is_stmt 0 view .LVU295
 1251 002c 4FF00009 		mov	r9, #0
 1252 0030 0193     		str	r3, [sp, #4]
 1253              	.LVL99:
 1254              	.L66:
 1255              	.LBB458:
 160:Dubby.cpp     **** 
 1256              		.loc 2 160 13 is_stmt 1 view .LVU296
 163:Dubby.cpp     **** 
 1257              		.loc 2 163 13 view .LVU297
 166:Dubby.cpp     **** 
 1258              		.loc 2 166 13 view .LVU298
 1259              	.LBB459:
 166:Dubby.cpp     **** 
 1260              		.loc 2 166 45 view .LVU299
 1261              	.LBB460:
 1262              	.LBB461:
 1263              	.LBB462:
 1264              	.LBB463:
 1265              	.LBB464:
 1266              	.LBB465:
 359:../../libDaisy//src/dev/oled_ssd130x.h ****     }
 1267              		.loc 4 359 55 is_stmt 0 view .LVU300
 1268 0032 09F00702 		and	r2, r9, #7
 1269              	.LBE465:
 1270              	.LBE464:
 1271              	.LBE463:
 1272              	.LBE462:
 1273              	.LBE461:
 1274              	.LBE460:
 1275              	.LBE459:
 163:Dubby.cpp     **** 
 1276              		.loc 2 163 18 view .LVU301
 1277 0036 3B48     		ldr	r0, .L76
 1278              	.LBB499:
 1279              	.LBB495:
 1280              	.LBB489:
 1281              	.LBB483:
 1282              	.LBB477:
 1283              	.LBB471:
 1284              	.LBB466:
 359:../../libDaisy//src/dev/oled_ssd130x.h ****     }
 1285              		.loc 4 359 49 view .LVU302
 1286 0038 0124     		movs	r4, #1
 1287              	.LBE466:
 1288              	.LBE471:
 1289              	.LBE477:
ARM GAS  /var/folders/1y/_321xjh9623c014x9_qw12rr0000gn/T//cc4eHiNS.s 			page 53


 1290              	.LBE483:
 1291              	.LBE489:
 1292              	.LBE495:
 1293              	.LBE499:
 160:Dubby.cpp     **** 
 1294              		.loc 2 160 17 view .LVU303
 1295 003a 0BEBC911 		add	r1, fp, r9, lsl #7
 1296              	.LBB500:
 1297              	.LBB496:
 1298              	.LBB490:
 1299              	.LBB484:
 1300              	.LBB478:
 1301              	.LBB472:
 1302              	.LBB467:
 359:../../libDaisy//src/dev/oled_ssd130x.h ****     }
 1303              		.loc 4 359 28 view .LVU304
 1304 003e 4FEAD903 		lsr	r3, r9, #3
 359:../../libDaisy//src/dev/oled_ssd130x.h ****     }
 1305              		.loc 4 359 49 view .LVU305
 1306 0042 9440     		lsls	r4, r4, r2
 1307              	.LBE467:
 1308              	.LBE472:
 1309              	.LBE478:
 1310              	.LBE484:
 1311              	.LBE490:
 1312              	.LBE496:
 1313              	.LBE500:
 163:Dubby.cpp     **** 
 1314              		.loc 2 163 18 view .LVU306
 1315 0044 00EBE101 		add	r1, r0, r1, asr #3
 1316 0048 0198     		ldr	r0, [sp, #4]
 1317              	.LBB501:
 1318              	.LBB497:
 169:Dubby.cpp     **** 
 1319              		.loc 2 169 31 view .LVU307
 1320 004a 0722     		movs	r2, #7
 1321              	.LBB491:
 1322              	.LBB485:
 1323              	.LBB479:
 1324              	.LBB473:
 1325              	.LBB468:
 359:../../libDaisy//src/dev/oled_ssd130x.h ****     }
 1326              		.loc 4 359 42 view .LVU308
 1327 004c 64B2     		sxtb	r4, r4
 1328 004e 00EBC313 		add	r3, r0, r3, lsl #7
 1329              	.LBE468:
 1330              	.LBE473:
 1331              	.LBE479:
 1332              	.LBE485:
 1333              	.LBE491:
 169:Dubby.cpp     **** 
 1334              		.loc 2 169 31 view .LVU309
 1335 0052 0298     		ldr	r0, [sp, #8]
 1336              	.LBB492:
 1337              	.LBB486:
 1338              	.LBB480:
 1339              	.LBB474:
ARM GAS  /var/folders/1y/_321xjh9623c014x9_qw12rr0000gn/T//cc4eHiNS.s 			page 54


 1340              	.LBB469:
 359:../../libDaisy//src/dev/oled_ssd130x.h ****     }
 1341              		.loc 4 359 42 view .LVU310
 1342 0054 E543     		mvns	r5, r4
 1343              	.LBE469:
 1344              	.LBE474:
 1345              	.LBE480:
 1346              	.LBE486:
 1347              	.LBE492:
 169:Dubby.cpp     **** 
 1348              		.loc 2 169 31 view .LVU311
 1349 0056 085C     		ldrb	r0, [r1, r0]	@ zero_extendqisi2
 1350 0058 5344     		add	r3, r3, r10
 1351              	.LVL100:
 1352              	.L63:
 169:Dubby.cpp     **** 
 1353              		.loc 2 169 17 is_stmt 1 discriminator 2 view .LVU312
 171:Dubby.cpp     **** 
 1354              		.loc 2 171 17 discriminator 2 view .LVU313
 173:Dubby.cpp     ****             }
 1355              		.loc 2 173 17 discriminator 2 view .LVU314
 1356              	.LBB493:
 1357              	.LBI461:
 1358              		.loc 1 42 10 discriminator 2 view .LVU315
 1359              	.LBB487:
 1360              	.LBI462:
 352:../../libDaisy//src/dev/oled_ssd130x.h ****     {
 1361              		.loc 4 352 10 discriminator 2 view .LVU316
 1362              	.LBB481:
 1363              	.LBB475:
 1364              	.LBI464:
 352:../../libDaisy//src/dev/oled_ssd130x.h ****     {
 1365              		.loc 4 352 10 discriminator 2 view .LVU317
 352:../../libDaisy//src/dev/oled_ssd130x.h ****     {
 1366              		.loc 4 352 10 is_stmt 0 discriminator 2 view .LVU318
 1367              	.LBE475:
 1368              	.LBE481:
 1369              	.LBE487:
 1370              	.LBE493:
 169:Dubby.cpp     **** 
 1371              		.loc 2 169 36 discriminator 2 view .LVU319
 1372 005a 40FA02F1 		asr	r1, r0, r2
 1373              	.LBE497:
 166:Dubby.cpp     **** 
 1374              		.loc 2 166 45 discriminator 2 view .LVU320
 1375 005e 013A     		subs	r2, r2, #1
 1376 0060 0133     		adds	r3, r3, #1
 1377              	.LBB498:
 1378              	.LBB494:
 1379              	.LBB488:
 1380              	.LBB482:
 356:../../libDaisy//src/dev/oled_ssd130x.h ****             buffer_[x + (y / 8) * width] |= (1 << (y % 8));
 1381              		.loc 4 356 9 discriminator 2 view .LVU321
 1382 0062 11F0010F 		tst	r1, #1
 357:../../libDaisy//src/dev/oled_ssd130x.h ****         else
 1383              		.loc 4 357 42 discriminator 2 view .LVU322
 1384 0066 13F8011C 		ldrb	r1, [r3, #-1]	@ zero_extendqisi2
ARM GAS  /var/folders/1y/_321xjh9623c014x9_qw12rr0000gn/T//cc4eHiNS.s 			page 55


 1385 006a 14BF     		ite	ne
 1386 006c 2143     		orrne	r1, r1, r4
 1387              	.LBB476:
 1388              	.LBB470:
 359:../../libDaisy//src/dev/oled_ssd130x.h ****     }
 1389              		.loc 4 359 42 discriminator 2 view .LVU323
 1390 006e 2940     		andeq	r1, r1, r5
 1391 0070 03F8011C 		strb	r1, [r3, #-1]
 1392              	.LVL101:
 359:../../libDaisy//src/dev/oled_ssd130x.h ****     }
 1393              		.loc 4 359 42 discriminator 2 view .LVU324
 1394              	.LBE470:
 1395              	.LBE476:
 1396              	.LBE482:
 1397              	.LBE488:
 1398              	.LBE494:
 1399              	.LBE498:
 166:Dubby.cpp     **** 
 1400              		.loc 2 166 13 is_stmt 1 discriminator 2 view .LVU325
 166:Dubby.cpp     **** 
 1401              		.loc 2 166 45 discriminator 2 view .LVU326
 1402 0074 511C     		adds	r1, r2, #1
 1403 0076 F0D1     		bne	.L63
 1404              	.LBE501:
 176:Dubby.cpp     ****         }
 1405              		.loc 2 176 13 view .LVU327
 1406              	.LBB502:
 1407 0078 2B4B     		ldr	r3, .L76+4
 1408              	.LBE502:
 1409 007a 2C4A     		ldr	r2, .L76+8
 1410              	.LBB503:
 1411 007c 03FB09F3 		mul	r3, r3, r9
 1412              	.LBE503:
 1413 0080 B2EB730F 		cmp	r2, r3, ror #1
 1414 0084 0CD2     		bcs	.L64
 1415              	.L67:
 176:Dubby.cpp     ****         }
 1416              		.loc 2 176 13 is_stmt 0 view .LVU328
 1417              	.LBE458:
 158:Dubby.cpp     ****             // Calculate the index in the array
 1418              		.loc 2 158 9 is_stmt 1 view .LVU329
 1419 0086 09F10109 		add	r9, r9, #1
 1420              	.LVL102:
 158:Dubby.cpp     ****             // Calculate the index in the array
 1421              		.loc 2 158 27 view .LVU330
 1422 008a B9F1400F 		cmp	r9, #64
 1423 008e D0D1     		bne	.L66
 1424              	.LBE457:
 157:Dubby.cpp     ****         for (int y = 0; y < OLED_HEIGHT; y++) {
 1425              		.loc 2 157 5 discriminator 2 view .LVU331
 157:Dubby.cpp     ****         for (int y = 0; y < OLED_HEIGHT; y++) {
 1426              		.loc 2 157 39 is_stmt 0 discriminator 2 view .LVU332
 1427 0090 0BF1080B 		add	fp, fp, #8
 1428              	.LVL103:
 157:Dubby.cpp     ****         for (int y = 0; y < OLED_HEIGHT; y++) {
 1429              		.loc 2 157 23 is_stmt 1 discriminator 2 view .LVU333
 1430 0094 BBF1800F 		cmp	fp, #128
ARM GAS  /var/folders/1y/_321xjh9623c014x9_qw12rr0000gn/T//cc4eHiNS.s 			page 56


 1431 0098 C6D1     		bne	.L69
 1432              	.LBE529:
 179:Dubby.cpp     **** 
 1433              		.loc 2 179 1 is_stmt 0 view .LVU334
 1434 009a 07B0     		add	sp, sp, #28
 1435              		.cfi_remember_state
 1436              		.cfi_def_cfa_offset 36
 1437              		@ sp needed
 1438 009c BDE8F08F 		pop	{r4, r5, r6, r7, r8, r9, r10, fp, pc}
 1439              	.LVL104:
 1440              	.L64:
 1441              		.cfi_restore_state
 1442              	.LBB530:
 1443              	.LBB525:
 1444              	.LBB524:
 1445              	.LBB504:
 1446              	.LBB505:
 1447              	.LBB506:
 1448              	.LBB507:
 1449              	.LBB508:
 124:../../libDaisy//src/dev/oled_ssd130x.h ****         spi_.BlockingTransmit(&cmd, 1);
 1450              		.loc 4 124 24 view .LVU335
 1451 00a0 0AF58B66 		add	r6, r10, #1112
 1452 00a4 0AF58C65 		add	r5, r10, #1120
 1453 00a8 DDF80C80 		ldr	r8, [sp, #12]
 125:../../libDaisy//src/dev/oled_ssd130x.h ****     };
 1454              		.loc 4 125 30 view .LVU336
 1455 00ac B024     		movs	r4, #176
 1456              	.L68:
 1457              	.LVL105:
 124:../../libDaisy//src/dev/oled_ssd130x.h ****         spi_.BlockingTransmit(&cmd, 1);
 1458              		.loc 4 124 23 view .LVU337
 1459 00ae 0021     		movs	r1, #0
 1460 00b0 2846     		mov	r0, r5
 1461 00b2 8DF81740 		strb	r4, [sp, #23]
 1462              	.LVL106:
 124:../../libDaisy//src/dev/oled_ssd130x.h ****         spi_.BlockingTransmit(&cmd, 1);
 1463              		.loc 4 124 23 view .LVU338
 1464              	.LBE508:
 1465              	.LBI507:
 122:../../libDaisy//src/dev/oled_ssd130x.h ****     {
 1466              		.loc 4 122 10 is_stmt 1 view .LVU339
 1467              	.LBB509:
 124:../../libDaisy//src/dev/oled_ssd130x.h ****         spi_.BlockingTransmit(&cmd, 1);
 1468              		.loc 4 124 9 view .LVU340
 1469              	.LBE509:
 1470              	.LBE507:
 1471              		.loc 4 383 22 is_stmt 0 view .LVU341
 1472 00b6 0134     		adds	r4, r4, #1
 1473              	.LVL107:
 1474              		.loc 4 383 22 view .LVU342
 1475 00b8 0F46     		mov	r7, r1
 1476              	.LBB511:
 1477              	.LBB510:
 124:../../libDaisy//src/dev/oled_ssd130x.h ****         spi_.BlockingTransmit(&cmd, 1);
 1478              		.loc 4 124 23 view .LVU343
 1479 00ba FFF7FEFF 		bl	dsy_gpio_write
ARM GAS  /var/folders/1y/_321xjh9623c014x9_qw12rr0000gn/T//cc4eHiNS.s 			page 57


 1480              	.LVL108:
 125:../../libDaisy//src/dev/oled_ssd130x.h ****     };
 1481              		.loc 4 125 9 is_stmt 1 view .LVU344
 125:../../libDaisy//src/dev/oled_ssd130x.h ****     };
 1482              		.loc 4 125 30 is_stmt 0 view .LVU345
 1483 00be 6423     		movs	r3, #100
 1484 00c0 0122     		movs	r2, #1
 1485 00c2 0DF11701 		add	r1, sp, #23
 1486 00c6 3046     		mov	r0, r6
 1487 00c8 FFF7FEFF 		bl	_ZN5daisy9SpiHandle16BlockingTransmitEPhjm
 1488              	.LVL109:
 125:../../libDaisy//src/dev/oled_ssd130x.h ****     };
 1489              		.loc 4 125 30 view .LVU346
 1490              	.LBE510:
 1491              	.LBE511:
 1492              	.LBB512:
 1493              	.LBB513:
 124:../../libDaisy//src/dev/oled_ssd130x.h ****         spi_.BlockingTransmit(&cmd, 1);
 1494              		.loc 4 124 23 view .LVU347
 1495 00cc 3946     		mov	r1, r7
 1496 00ce 2846     		mov	r0, r5
 1497 00d0 8DF81770 		strb	r7, [sp, #23]
 1498              	.LVL110:
 124:../../libDaisy//src/dev/oled_ssd130x.h ****         spi_.BlockingTransmit(&cmd, 1);
 1499              		.loc 4 124 23 view .LVU348
 1500              	.LBE513:
 1501              	.LBI512:
 122:../../libDaisy//src/dev/oled_ssd130x.h ****     {
 1502              		.loc 4 122 10 is_stmt 1 view .LVU349
 1503              	.LBB514:
 124:../../libDaisy//src/dev/oled_ssd130x.h ****         spi_.BlockingTransmit(&cmd, 1);
 1504              		.loc 4 124 9 view .LVU350
 124:../../libDaisy//src/dev/oled_ssd130x.h ****         spi_.BlockingTransmit(&cmd, 1);
 1505              		.loc 4 124 23 is_stmt 0 view .LVU351
 1506 00d4 FFF7FEFF 		bl	dsy_gpio_write
 1507              	.LVL111:
 125:../../libDaisy//src/dev/oled_ssd130x.h ****     };
 1508              		.loc 4 125 9 is_stmt 1 view .LVU352
 125:../../libDaisy//src/dev/oled_ssd130x.h ****     };
 1509              		.loc 4 125 30 is_stmt 0 view .LVU353
 1510 00d8 0122     		movs	r2, #1
 1511 00da 6423     		movs	r3, #100
 1512 00dc 0DF11701 		add	r1, sp, #23
 1513 00e0 3046     		mov	r0, r6
 1514              	.LBE514:
 1515              	.LBE512:
 1516              		.loc 4 383 22 view .LVU354
 1517 00e2 E4B2     		uxtb	r4, r4
 1518              	.LBB516:
 1519              	.LBB515:
 125:../../libDaisy//src/dev/oled_ssd130x.h ****     };
 1520              		.loc 4 125 30 view .LVU355
 1521 00e4 FFF7FEFF 		bl	_ZN5daisy9SpiHandle16BlockingTransmitEPhjm
 1522              	.LVL112:
 125:../../libDaisy//src/dev/oled_ssd130x.h ****     };
 1523              		.loc 4 125 30 view .LVU356
 1524 00e8 1023     		movs	r3, #16
ARM GAS  /var/folders/1y/_321xjh9623c014x9_qw12rr0000gn/T//cc4eHiNS.s 			page 58


 1525              	.LBE515:
 1526              	.LBE516:
 1527              	.LBB517:
 1528              	.LBB518:
 124:../../libDaisy//src/dev/oled_ssd130x.h ****         spi_.BlockingTransmit(&cmd, 1);
 1529              		.loc 4 124 23 view .LVU357
 1530 00ea 3946     		mov	r1, r7
 1531 00ec 2846     		mov	r0, r5
 1532 00ee 8DF81730 		strb	r3, [sp, #23]
 1533              	.LVL113:
 124:../../libDaisy//src/dev/oled_ssd130x.h ****         spi_.BlockingTransmit(&cmd, 1);
 1534              		.loc 4 124 23 view .LVU358
 1535              	.LBE518:
 1536              	.LBI517:
 122:../../libDaisy//src/dev/oled_ssd130x.h ****     {
 1537              		.loc 4 122 10 is_stmt 1 view .LVU359
 1538              	.LBB519:
 124:../../libDaisy//src/dev/oled_ssd130x.h ****         spi_.BlockingTransmit(&cmd, 1);
 1539              		.loc 4 124 9 view .LVU360
 124:../../libDaisy//src/dev/oled_ssd130x.h ****         spi_.BlockingTransmit(&cmd, 1);
 1540              		.loc 4 124 23 is_stmt 0 view .LVU361
 1541 00f2 FFF7FEFF 		bl	dsy_gpio_write
 1542              	.LVL114:
 125:../../libDaisy//src/dev/oled_ssd130x.h ****     };
 1543              		.loc 4 125 9 is_stmt 1 view .LVU362
 125:../../libDaisy//src/dev/oled_ssd130x.h ****     };
 1544              		.loc 4 125 30 is_stmt 0 view .LVU363
 1545 00f6 6423     		movs	r3, #100
 1546 00f8 0122     		movs	r2, #1
 1547 00fa 0DF11701 		add	r1, sp, #23
 1548 00fe 3046     		mov	r0, r6
 1549 0100 FFF7FEFF 		bl	_ZN5daisy9SpiHandle16BlockingTransmitEPhjm
 1550              	.LVL115:
 125:../../libDaisy//src/dev/oled_ssd130x.h ****     };
 1551              		.loc 4 125 30 view .LVU364
 1552              	.LBE519:
 1553              	.LBE517:
 1554              	.LBB520:
 1555              	.LBI520:
 128:../../libDaisy//src/dev/oled_ssd130x.h ****     {
 1556              		.loc 4 128 10 is_stmt 1 view .LVU365
 1557              	.LBB521:
 130:../../libDaisy//src/dev/oled_ssd130x.h ****         spi_.BlockingTransmit(buff, size);
 1558              		.loc 4 130 9 view .LVU366
 130:../../libDaisy//src/dev/oled_ssd130x.h ****         spi_.BlockingTransmit(buff, size);
 1559              		.loc 4 130 23 is_stmt 0 view .LVU367
 1560 0104 0121     		movs	r1, #1
 1561 0106 2846     		mov	r0, r5
 1562 0108 FFF7FEFF 		bl	dsy_gpio_write
 1563              	.LVL116:
 131:../../libDaisy//src/dev/oled_ssd130x.h ****     };
 1564              		.loc 4 131 9 is_stmt 1 view .LVU368
 131:../../libDaisy//src/dev/oled_ssd130x.h ****     };
 1565              		.loc 4 131 30 is_stmt 0 view .LVU369
 1566 010c 4146     		mov	r1, r8
 1567 010e 6423     		movs	r3, #100
 1568 0110 8022     		movs	r2, #128
ARM GAS  /var/folders/1y/_321xjh9623c014x9_qw12rr0000gn/T//cc4eHiNS.s 			page 59


 1569 0112 3046     		mov	r0, r6
 1570              	.LBE521:
 1571              	.LBE520:
 1572              		.loc 4 383 22 view .LVU370
 1573 0114 08F18008 		add	r8, r8, #128
 1574              	.LVL117:
 1575              	.LBB523:
 1576              	.LBB522:
 131:../../libDaisy//src/dev/oled_ssd130x.h ****     };
 1577              		.loc 4 131 30 view .LVU371
 1578 0118 FFF7FEFF 		bl	_ZN5daisy9SpiHandle16BlockingTransmitEPhjm
 1579              	.LVL118:
 131:../../libDaisy//src/dev/oled_ssd130x.h ****     };
 1580              		.loc 4 131 30 view .LVU372
 1581              	.LBE522:
 1582              	.LBE523:
 1583              		.loc 4 383 9 is_stmt 1 view .LVU373
 1584              		.loc 4 383 22 view .LVU374
 1585 011c B82C     		cmp	r4, #184
 1586 011e C6D1     		bne	.L68
 1587 0120 B1E7     		b	.L67
 1588              	.L77:
 1589 0122 00BF     		.align	2
 1590              	.L76:
 1591 0124 00000000 		.word	.LANCHOR0
 1592 0128 ABAAAAAA 		.word	-1431655765
 1593 012c AAAAAA2A 		.word	715827882
 1594              	.LBE506:
 1595              	.LBE505:
 1596              	.LBE504:
 1597              	.LBE524:
 1598              	.LBE525:
 1599              	.LBE530:
 1600              		.cfi_endproc
 1601              	.LFE2584:
 1603              		.section	.text._ZN5daisy5Dubby8DrawLogoEv,"ax",%progbits
 1604              		.align	1
 1605              		.p2align 2,,3
 1606              		.global	_ZN5daisy5Dubby8DrawLogoEv
 1607              		.syntax unified
 1608              		.thumb
 1609              		.thumb_func
 1611              	_ZN5daisy5Dubby8DrawLogoEv:
 1612              	.LVL119:
 1613              	.LFB2583:
 148:Dubby.cpp     ****     DrawBitmap(0);   
 1614              		.loc 2 148 1 view -0
 1615              		.cfi_startproc
 1616              		@ args = 0, pretend = 0, frame = 0
 1617              		@ frame_needed = 0, uses_anonymous_args = 0
 1618              		@ link register save eliminated.
 149:Dubby.cpp     **** }
 1619              		.loc 2 149 5 view .LVU376
 149:Dubby.cpp     **** }
 1620              		.loc 2 149 15 is_stmt 0 view .LVU377
 1621 0000 0021     		movs	r1, #0
 1622 0002 FFF7FEBF 		b	_ZN5daisy5Dubby10DrawBitmapEi
ARM GAS  /var/folders/1y/_321xjh9623c014x9_qw12rr0000gn/T//cc4eHiNS.s 			page 60


 1623              	.LVL120:
 149:Dubby.cpp     **** }
 1624              		.loc 2 149 15 view .LVU378
 1625              		.cfi_endproc
 1626              	.LFE2583:
 1628 0006 00BF     		.section	.text._ZN5daisy5Dubby9UpdateBarEi,"ax",%progbits
 1629              		.align	1
 1630              		.p2align 2,,3
 1631              		.global	_ZN5daisy5Dubby9UpdateBarEi
 1632              		.syntax unified
 1633              		.thumb
 1634              		.thumb_func
 1636              	_ZN5daisy5Dubby9UpdateBarEi:
 1637              	.LVL121:
 1638              	.LFB2590:
 255:Dubby.cpp     ****     display.DrawRect((i * 32)  + margin, 1, ((i + 1) * 31) - margin, 51, false, true);
 1639              		.loc 2 255 1 is_stmt 1 view -0
 1640              		.cfi_startproc
 1641              		@ args = 0, pretend = 0, frame = 48
 1642              		@ frame_needed = 0, uses_anonymous_args = 0
 256:Dubby.cpp     ****     display.DrawRect((i * 32)  + margin, int(abs(1.0f - GetKnobValue(static_cast<Dubby::Ctrl>(i))) 
 1643              		.loc 2 256 5 view .LVU380
 255:Dubby.cpp     ****     display.DrawRect((i * 32)  + margin, 1, ((i + 1) * 31) - margin, 51, false, true);
 1644              		.loc 2 255 1 is_stmt 0 view .LVU381
 1645 0000 2DE9F04F 		push	{r4, r5, r6, r7, r8, r9, r10, fp, lr}
 1646              		.cfi_def_cfa_offset 36
 1647              		.cfi_offset 4, -36
 1648              		.cfi_offset 5, -32
 1649              		.cfi_offset 6, -28
 1650              		.cfi_offset 7, -24
 1651              		.cfi_offset 8, -20
 1652              		.cfi_offset 9, -16
 1653              		.cfi_offset 10, -12
 1654              		.cfi_offset 11, -8
 1655              		.cfi_offset 14, -4
 256:Dubby.cpp     ****     display.DrawRect((i * 32)  + margin, int(abs(1.0f - GetKnobValue(static_cast<Dubby::Ctrl>(i))) 
 1656              		.loc 2 256 34 view .LVU382
 1657 0004 00F51043 		add	r3, r0, #36864
 255:Dubby.cpp     ****     display.DrawRect((i * 32)  + margin, 1, ((i + 1) * 31) - margin, 51, false, true);
 1658              		.loc 2 255 1 view .LVU383
 1659 0008 8DB0     		sub	sp, sp, #52
 1660              		.cfi_def_cfa_offset 88
 256:Dubby.cpp     ****     display.DrawRect((i * 32)  + margin, int(abs(1.0f - GetKnobValue(static_cast<Dubby::Ctrl>(i))) 
 1661              		.loc 2 256 25 view .LVU384
 1662 000a 4A01     		lsls	r2, r1, #5
 256:Dubby.cpp     ****     display.DrawRect((i * 32)  + margin, int(abs(1.0f - GetKnobValue(static_cast<Dubby::Ctrl>(i))) 
 1663              		.loc 2 256 34 view .LVU385
 1664 000c 0993     		str	r3, [sp, #36]
 256:Dubby.cpp     ****     display.DrawRect((i * 32)  + margin, int(abs(1.0f - GetKnobValue(static_cast<Dubby::Ctrl>(i))) 
 1665              		.loc 2 256 25 view .LVU386
 1666 000e 0692     		str	r2, [sp, #24]
 256:Dubby.cpp     ****     display.DrawRect((i * 32)  + margin, int(abs(1.0f - GetKnobValue(static_cast<Dubby::Ctrl>(i))) 
 1667              		.loc 2 256 34 view .LVU387
 1668 0010 D3F82029 		ldr	r2, [r3, #2336]
 256:Dubby.cpp     ****     display.DrawRect((i * 32)  + margin, int(abs(1.0f - GetKnobValue(static_cast<Dubby::Ctrl>(i))) 
 1669              		.loc 2 256 49 view .LVU388
 1670 0014 4B1C     		adds	r3, r1, #1
ARM GAS  /var/folders/1y/_321xjh9623c014x9_qw12rr0000gn/T//cc4eHiNS.s 			page 61


 255:Dubby.cpp     ****     display.DrawRect((i * 32)  + margin, 1, ((i + 1) * 31) - margin, 51, false, true);
 1671              		.loc 2 255 1 view .LVU389
 1672 0016 0391     		str	r1, [sp, #12]
 256:Dubby.cpp     ****     display.DrawRect((i * 32)  + margin, int(abs(1.0f - GetKnobValue(static_cast<Dubby::Ctrl>(i))) 
 1673              		.loc 2 256 54 view .LVU390
 1674 0018 C3EB4313 		rsb	r3, r3, r3, lsl #5
 256:Dubby.cpp     ****     display.DrawRect((i * 32)  + margin, int(abs(1.0f - GetKnobValue(static_cast<Dubby::Ctrl>(i))) 
 1675              		.loc 2 256 32 view .LVU391
 1676 001c 02EB4115 		add	r5, r2, r1, lsl #5
 256:Dubby.cpp     ****     display.DrawRect((i * 32)  + margin, int(abs(1.0f - GetKnobValue(static_cast<Dubby::Ctrl>(i))) 
 1677              		.loc 2 256 60 view .LVU392
 1678 0020 9A1A     		subs	r2, r3, r2
 256:Dubby.cpp     ****     display.DrawRect((i * 32)  + margin, int(abs(1.0f - GetKnobValue(static_cast<Dubby::Ctrl>(i))) 
 1679              		.loc 2 256 54 view .LVU393
 1680 0022 0793     		str	r3, [sp, #28]
 1681              	.LBB645:
 1682              	.LBB646:
 1683              	.LBB647:
 266:../../libDaisy//src/hid/disp/display.h ****             {
 1684              		.loc 3 266 40 view .LVU394
 1685 0024 9542     		cmp	r5, r2
 1686              	.LBE647:
 1687              	.LBE646:
 1688              	.LBE645:
 256:Dubby.cpp     ****     display.DrawRect((i * 32)  + margin, int(abs(1.0f - GetKnobValue(static_cast<Dubby::Ctrl>(i))) 
 1689              		.loc 2 256 21 view .LVU395
 1690 0026 9446     		mov	ip, r2
 1691              	.LVL122:
 1692              	.LBB664:
 1693              	.LBI645:
 257:../../libDaisy//src/hid/disp/display.h ****                   uint_fast8_t y1,
 1694              		.loc 3 257 10 is_stmt 1 view .LVU396
 1695              	.LBB663:
 1696              	.LBI646:
 257:../../libDaisy//src/hid/disp/display.h ****                   uint_fast8_t y1,
 1697              		.loc 3 257 10 view .LVU397
 1698              	.LBB662:
 266:../../libDaisy//src/hid/disp/display.h ****             {
 1699              		.loc 3 266 40 view .LVU398
 1700 0028 18D8     		bhi	.L85
 1701 002a 2E46     		mov	r6, r5
 1702              	.LVL123:
 1703              	.L80:
 1704              	.LBB648:
 1705              		.loc 3 268 34 is_stmt 0 view .LVU399
 1706 002c 0121     		movs	r1, #1
 1707              	.L84:
 1708              	.LVL124:
 1709              	.LBB649:
 1710              	.LBI649:
 1711              		.loc 1 42 10 is_stmt 1 view .LVU400
 1712              	.LBB650:
 1713              	.LBI650:
 352:../../libDaisy//src/dev/oled_ssd130x.h ****     {
 1714              		.loc 4 352 10 view .LVU401
 1715              	.LBB651:
 1716              	.LBB652:
ARM GAS  /var/folders/1y/_321xjh9623c014x9_qw12rr0000gn/T//cc4eHiNS.s 			page 62


 1717              	.LBI652:
 352:../../libDaisy//src/dev/oled_ssd130x.h ****     {
 1718              		.loc 4 352 10 view .LVU402
 352:../../libDaisy//src/dev/oled_ssd130x.h ****     {
 1719              		.loc 4 352 10 is_stmt 0 view .LVU403
 1720              	.LBE652:
 1721              	.LBE651:
 1722              	.LBE650:
 1723              	.LBE649:
 1724              		.loc 3 268 17 is_stmt 1 view .LVU404
 1725              		.loc 3 268 44 view .LVU405
 1726              	.LBB661:
 1727              	.LBB660:
 1728              	.LBB659:
 1729              	.LBB656:
 1730              	.LBB653:
 359:../../libDaisy//src/dev/oled_ssd130x.h ****     }
 1731              		.loc 4 359 28 is_stmt 0 view .LVU406
 1732 002e CB08     		lsrs	r3, r1, #3
 359:../../libDaisy//src/dev/oled_ssd130x.h ****     }
 1733              		.loc 4 359 55 view .LVU407
 1734 0030 01F00707 		and	r7, r1, #7
 359:../../libDaisy//src/dev/oled_ssd130x.h ****     }
 1735              		.loc 4 359 49 view .LVU408
 1736 0034 0124     		movs	r4, #1
 1737              	.LBE653:
 1738              	.LBE656:
 354:../../libDaisy//src/dev/oled_ssd130x.h ****             return;
 1739              		.loc 4 354 9 view .LVU409
 1740 0036 7F2E     		cmp	r6, #127
 1741              	.LBB657:
 1742              	.LBB654:
 359:../../libDaisy//src/dev/oled_ssd130x.h ****     }
 1743              		.loc 4 359 42 view .LVU410
 1744 0038 06EBC313 		add	r3, r6, r3, lsl #7
 1745 003c 2144     		add	r1, r1, r4
 1746              	.LVL125:
 359:../../libDaisy//src/dev/oled_ssd130x.h ****     }
 1747              		.loc 4 359 49 view .LVU411
 1748 003e 04FA07F4 		lsl	r4, r4, r7
 359:../../libDaisy//src/dev/oled_ssd130x.h ****     }
 1749              		.loc 4 359 42 view .LVU412
 1750 0042 0344     		add	r3, r3, r0
 1751              	.LBE654:
 1752              	.LBE657:
 354:../../libDaisy//src/dev/oled_ssd130x.h ****             return;
 1753              		.loc 4 354 9 view .LVU413
 1754 0044 05D8     		bhi	.L83
 1755              	.LBB658:
 1756              	.LBB655:
 359:../../libDaisy//src/dev/oled_ssd130x.h ****     }
 1757              		.loc 4 359 42 view .LVU414
 1758 0046 93F86474 		ldrb	r7, [r3, #1124]	@ zero_extendqisi2
 1759 004a 27EA0404 		bic	r4, r7, r4
 1760 004e 83F86444 		strb	r4, [r3, #1124]
 1761              	.L83:
 1762              	.LBE655:
ARM GAS  /var/folders/1y/_321xjh9623c014x9_qw12rr0000gn/T//cc4eHiNS.s 			page 63


 1763              	.LBE658:
 1764              	.LBE659:
 1765              	.LBE660:
 1766              	.LBE661:
 1767              		.loc 3 268 44 view .LVU415
 1768 0052 3429     		cmp	r1, #52
 1769 0054 EBD1     		bne	.L84
 1770              	.LBE648:
 266:../../libDaisy//src/hid/disp/display.h ****             {
 1771              		.loc 3 266 13 is_stmt 1 view .LVU416
 1772 0056 0136     		adds	r6, r6, #1
 1773              	.LVL126:
 266:../../libDaisy//src/hid/disp/display.h ****             {
 1774              		.loc 3 266 40 view .LVU417
 1775 0058 B242     		cmp	r2, r6
 1776 005a E7D2     		bcs	.L80
 1777              	.LVL127:
 1778              	.L85:
 266:../../libDaisy//src/hid/disp/display.h ****             {
 1779              		.loc 3 266 40 is_stmt 0 view .LVU418
 1780              	.LBE662:
 1781              	.LBE663:
 1782              	.LBE664:
 257:Dubby.cpp     ****     display.DrawRect((i * 32)  + margin, int(abs((currentLevels[i] * 5.0f) - 1.0f) * 51.0f) + 1, ((
 1783              		.loc 2 257 5 is_stmt 1 view .LVU419
 1784              	.LBB665:
 1785              	.LBI665:
 289:Dubby.cpp     **** 
 290:Dubby.cpp     **** void Dubby::DisplayPreferencesMenu()
 291:Dubby.cpp     **** {
 292:Dubby.cpp     ****     display.DrawRect(PANE_X_START, PANE_Y_START, PANE_X_END, PANE_Y_END, false, true);
 293:Dubby.cpp     **** 
 294:Dubby.cpp     ****     for (int i = 0; i < PREFERENCESMENU_LAST; i++)
 295:Dubby.cpp     ****     {
 296:Dubby.cpp     ****         display.SetCursor(5, 3 + (i * 10));
 297:Dubby.cpp     ****         display.WriteString(GetTextForEnum(PREFERENCESMENU, i), Font_6x8, true);
 298:Dubby.cpp     **** 
 299:Dubby.cpp     ****         if (preferencesMenuItemSelected == i)
 300:Dubby.cpp     ****             display.DrawRect(submenuBoxBounding[i][0], submenuBoxBounding[i][1], submenuBoxBounding
 301:Dubby.cpp     ****     }
 302:Dubby.cpp     **** 
 303:Dubby.cpp     ****     display.Update();
 304:Dubby.cpp     **** }
 305:Dubby.cpp     **** 
 306:Dubby.cpp     **** void Dubby::UpdatePreferencesMenu(int increment) 
 307:Dubby.cpp     **** {
 308:Dubby.cpp     ****     if (((preferencesMenuItemSelected >= 0 && increment == 1 && preferencesMenuItemSelected < PREFE
 309:Dubby.cpp     ****     {
 310:Dubby.cpp     ****         preferencesMenuItemSelected = (PreferenesMenuItems)(preferencesMenuItemSelected + increment
 311:Dubby.cpp     ****         
 312:Dubby.cpp     ****         DisplayPreferencesMenu();
 313:Dubby.cpp     ****     }
 314:Dubby.cpp     **** }
 315:Dubby.cpp     **** 
 316:Dubby.cpp     **** void Dubby::ResetToBootloader() 
 317:Dubby.cpp     **** {
 318:Dubby.cpp     ****     DrawBitmap(1);
ARM GAS  /var/folders/1y/_321xjh9623c014x9_qw12rr0000gn/T//cc4eHiNS.s 			page 64


 319:Dubby.cpp     **** 
 320:Dubby.cpp     ****     display.SetCursor(20, 55);
 321:Dubby.cpp     ****     display.WriteString("FIRMWARE UPDATE", Font_6x8, true);
 322:Dubby.cpp     **** 
 323:Dubby.cpp     ****     display.Update();
 324:Dubby.cpp     **** 
 325:Dubby.cpp     ****     System::ResetToBootloader();
 326:Dubby.cpp     **** }
 327:Dubby.cpp     **** 
 328:Dubby.cpp     **** void Dubby::InitEncoder()
 329:Dubby.cpp     **** {
 330:Dubby.cpp     ****     encoder.Init(seed.GetPin(PIN_ENC_A),
 331:Dubby.cpp     ****                 seed.GetPin(PIN_ENC_B),
 332:Dubby.cpp     ****                 seed.GetPin(PIN_ENC_CLICK));
 333:Dubby.cpp     **** }
 334:Dubby.cpp     **** 
 335:Dubby.cpp     **** void Dubby::ProcessAllControls()
 336:Dubby.cpp     **** {
 337:Dubby.cpp     ****     ProcessAnalogControls();
 338:Dubby.cpp     ****     ProcessDigitalControls();
 339:Dubby.cpp     **** }
 340:Dubby.cpp     **** 
 341:Dubby.cpp     **** void Dubby::ProcessAnalogControls()
 342:Dubby.cpp     **** {
 343:Dubby.cpp     ****     for(size_t i = 0; i < CTRL_LAST; i++)
 344:Dubby.cpp     ****         analogInputs[i].Process();
 345:Dubby.cpp     **** }
 346:Dubby.cpp     **** 
 347:Dubby.cpp     **** void Dubby::ProcessDigitalControls()
 348:Dubby.cpp     **** {
 349:Dubby.cpp     ****     encoder.Debounce();
 350:Dubby.cpp     **** 
 351:Dubby.cpp     ****     for (int i = 0; i < 4; i++) buttons[i].Debounce();
 352:Dubby.cpp     **** }
 353:Dubby.cpp     **** 
 354:Dubby.cpp     **** float Dubby::GetKnobValue(Ctrl k)
 1786              		.loc 2 354 7 view .LVU420
 1787              	.LBE665:
 355:Dubby.cpp     **** {
 356:Dubby.cpp     ****     return (analogInputs[k].Value());
 1788              		.loc 2 356 5 view .LVU421
 1789              	.LBB672:
 1790              	.LBB666:
 1791              	.LBI666:
 1792              		.file 9 "../../libDaisy//src/hid/ctrl.h"
   1:../../libDaisy//src/hid/ctrl.h **** #pragma once
   2:../../libDaisy//src/hid/ctrl.h **** #ifndef DSY_KNOB_H
   3:../../libDaisy//src/hid/ctrl.h **** #define DSY_KNOB_H /**< & */
   4:../../libDaisy//src/hid/ctrl.h **** #include <stdint.h>
   5:../../libDaisy//src/hid/ctrl.h **** 
   6:../../libDaisy//src/hid/ctrl.h **** #ifdef __cplusplus
   7:../../libDaisy//src/hid/ctrl.h **** namespace daisy
   8:../../libDaisy//src/hid/ctrl.h **** {
   9:../../libDaisy//src/hid/ctrl.h **** /**
  10:../../libDaisy//src/hid/ctrl.h ****     @brief Hardware Interface for control inputs \n 
  11:../../libDaisy//src/hid/ctrl.h ****     Primarily designed for ADC input controls such as \n 
  12:../../libDaisy//src/hid/ctrl.h ****     potentiometers, and control voltage. \n 
ARM GAS  /var/folders/1y/_321xjh9623c014x9_qw12rr0000gn/T//cc4eHiNS.s 			page 65


  13:../../libDaisy//src/hid/ctrl.h ****     @author Stephen Hensley
  14:../../libDaisy//src/hid/ctrl.h ****     @date November 2019
  15:../../libDaisy//src/hid/ctrl.h ****     @ingroup controls
  16:../../libDaisy//src/hid/ctrl.h **** */
  17:../../libDaisy//src/hid/ctrl.h **** class AnalogControl
  18:../../libDaisy//src/hid/ctrl.h **** {
  19:../../libDaisy//src/hid/ctrl.h ****   public:
  20:../../libDaisy//src/hid/ctrl.h ****     /** Constructor */
  21:../../libDaisy//src/hid/ctrl.h ****     AnalogControl() {}
  22:../../libDaisy//src/hid/ctrl.h ****     /** destructor */
  23:../../libDaisy//src/hid/ctrl.h ****     ~AnalogControl() {}
  24:../../libDaisy//src/hid/ctrl.h **** 
  25:../../libDaisy//src/hid/ctrl.h ****     /** 
  26:../../libDaisy//src/hid/ctrl.h ****     Initializes the control
  27:../../libDaisy//src/hid/ctrl.h ****     \param *adcptr is a pointer to the raw adc read value -- This can be acquired with dsy_adc_get_
  28:../../libDaisy//src/hid/ctrl.h ****     \param sr is the samplerate in Hz that the Process function will be called at.
  29:../../libDaisy//src/hid/ctrl.h ****     \param flip determines whether the input is flipped (i.e. 1.f - input) or not before being proc
  30:../../libDaisy//src/hid/ctrl.h ****     \param invert determines whether the input is inverted (i.e. -1.f * input) or note before being
  31:../../libDaisy//src/hid/ctrl.h ****     \param slew_seconds is the slew time in seconds that it takes for the control to change to a ne
  32:../../libDaisy//src/hid/ctrl.h ****     */
  33:../../libDaisy//src/hid/ctrl.h ****     void Init(uint16_t *adcptr,
  34:../../libDaisy//src/hid/ctrl.h ****               float     sr,
  35:../../libDaisy//src/hid/ctrl.h ****               bool      flip         = false,
  36:../../libDaisy//src/hid/ctrl.h ****               bool      invert       = false,
  37:../../libDaisy//src/hid/ctrl.h ****               float     slew_seconds = 0.002f);
  38:../../libDaisy//src/hid/ctrl.h **** 
  39:../../libDaisy//src/hid/ctrl.h ****     /** 
  40:../../libDaisy//src/hid/ctrl.h ****     This Initializes the AnalogControl for a -5V to 5V inverted input
  41:../../libDaisy//src/hid/ctrl.h ****     All of the Init details are the same otherwise
  42:../../libDaisy//src/hid/ctrl.h ****     \param *adcptr Pointer to analog digital converter
  43:../../libDaisy//src/hid/ctrl.h ****     \param sr Audio engine sample rate
  44:../../libDaisy//src/hid/ctrl.h ****     */
  45:../../libDaisy//src/hid/ctrl.h ****     void InitBipolarCv(uint16_t *adcptr, float sr);
  46:../../libDaisy//src/hid/ctrl.h **** 
  47:../../libDaisy//src/hid/ctrl.h ****     /** 
  48:../../libDaisy//src/hid/ctrl.h ****     Filters, and transforms a raw ADC read into a normalized range.
  49:../../libDaisy//src/hid/ctrl.h ****     this should be called at the rate of specified by samplerate at Init time.   
  50:../../libDaisy//src/hid/ctrl.h ****     Default Initializations will return 0.0 -> 1.0
  51:../../libDaisy//src/hid/ctrl.h ****     Bi-polar CV inputs will return -1.0 -> 1.0
  52:../../libDaisy//src/hid/ctrl.h ****     */
  53:../../libDaisy//src/hid/ctrl.h ****     float Process();
  54:../../libDaisy//src/hid/ctrl.h **** 
  55:../../libDaisy//src/hid/ctrl.h ****     /** Returns the current stored value, without reprocessing */
  56:../../libDaisy//src/hid/ctrl.h ****     inline float Value() const { return val_; }
 1793              		.loc 9 56 18 view .LVU422
 1794              	.LBB667:
 1795              		.loc 9 56 34 view .LVU423
 1796              		.loc 9 56 34 is_stmt 0 view .LVU424
 1797              	.LBE667:
 1798              	.LBE666:
 1799              	.LBE672:
 1800              	.LBB673:
 1801              	.LBI673:
 1802              		.file 10 "/Library/DaisyToolchain/0.2.0/arm/arm-none-eabi/include/c++/10.3.1/bits/std_abs.h"
   1:/Library/DaisyToolchain/0.2.0/arm/arm-none-eabi/include/c++/10.3.1/bits/std_abs.h **** // -*- C++ -*- C library enhancements header.
   2:/Library/DaisyToolchain/0.2.0/arm/arm-none-eabi/include/c++/10.3.1/bits/std_abs.h **** 
   3:/Library/DaisyToolchain/0.2.0/arm/arm-none-eabi/include/c++/10.3.1/bits/std_abs.h **** // Copyright (C) 2016-2020 Free Software Foundation, Inc.
ARM GAS  /var/folders/1y/_321xjh9623c014x9_qw12rr0000gn/T//cc4eHiNS.s 			page 66


   4:/Library/DaisyToolchain/0.2.0/arm/arm-none-eabi/include/c++/10.3.1/bits/std_abs.h **** //
   5:/Library/DaisyToolchain/0.2.0/arm/arm-none-eabi/include/c++/10.3.1/bits/std_abs.h **** // This file is part of the GNU ISO C++ Library.  This library is free
   6:/Library/DaisyToolchain/0.2.0/arm/arm-none-eabi/include/c++/10.3.1/bits/std_abs.h **** // software; you can redistribute it and/or modify it under the
   7:/Library/DaisyToolchain/0.2.0/arm/arm-none-eabi/include/c++/10.3.1/bits/std_abs.h **** // terms of the GNU General Public License as published by the
   8:/Library/DaisyToolchain/0.2.0/arm/arm-none-eabi/include/c++/10.3.1/bits/std_abs.h **** // Free Software Foundation; either version 3, or (at your option)
   9:/Library/DaisyToolchain/0.2.0/arm/arm-none-eabi/include/c++/10.3.1/bits/std_abs.h **** // any later version.
  10:/Library/DaisyToolchain/0.2.0/arm/arm-none-eabi/include/c++/10.3.1/bits/std_abs.h **** 
  11:/Library/DaisyToolchain/0.2.0/arm/arm-none-eabi/include/c++/10.3.1/bits/std_abs.h **** // This library is distributed in the hope that it will be useful,
  12:/Library/DaisyToolchain/0.2.0/arm/arm-none-eabi/include/c++/10.3.1/bits/std_abs.h **** // but WITHOUT ANY WARRANTY; without even the implied warranty of
  13:/Library/DaisyToolchain/0.2.0/arm/arm-none-eabi/include/c++/10.3.1/bits/std_abs.h **** // MERCHANTABILITY or FITNESS FOR A PARTICULAR PURPOSE.  See the
  14:/Library/DaisyToolchain/0.2.0/arm/arm-none-eabi/include/c++/10.3.1/bits/std_abs.h **** // GNU General Public License for more details.
  15:/Library/DaisyToolchain/0.2.0/arm/arm-none-eabi/include/c++/10.3.1/bits/std_abs.h **** 
  16:/Library/DaisyToolchain/0.2.0/arm/arm-none-eabi/include/c++/10.3.1/bits/std_abs.h **** // Under Section 7 of GPL version 3, you are granted additional
  17:/Library/DaisyToolchain/0.2.0/arm/arm-none-eabi/include/c++/10.3.1/bits/std_abs.h **** // permissions described in the GCC Runtime Library Exception, version
  18:/Library/DaisyToolchain/0.2.0/arm/arm-none-eabi/include/c++/10.3.1/bits/std_abs.h **** // 3.1, as published by the Free Software Foundation.
  19:/Library/DaisyToolchain/0.2.0/arm/arm-none-eabi/include/c++/10.3.1/bits/std_abs.h **** 
  20:/Library/DaisyToolchain/0.2.0/arm/arm-none-eabi/include/c++/10.3.1/bits/std_abs.h **** // You should have received a copy of the GNU General Public License and
  21:/Library/DaisyToolchain/0.2.0/arm/arm-none-eabi/include/c++/10.3.1/bits/std_abs.h **** // a copy of the GCC Runtime Library Exception along with this program;
  22:/Library/DaisyToolchain/0.2.0/arm/arm-none-eabi/include/c++/10.3.1/bits/std_abs.h **** // see the files COPYING3 and COPYING.RUNTIME respectively.  If not, see
  23:/Library/DaisyToolchain/0.2.0/arm/arm-none-eabi/include/c++/10.3.1/bits/std_abs.h **** // <http://www.gnu.org/licenses/>.
  24:/Library/DaisyToolchain/0.2.0/arm/arm-none-eabi/include/c++/10.3.1/bits/std_abs.h **** 
  25:/Library/DaisyToolchain/0.2.0/arm/arm-none-eabi/include/c++/10.3.1/bits/std_abs.h **** /** @file include/bits/std_abs.h
  26:/Library/DaisyToolchain/0.2.0/arm/arm-none-eabi/include/c++/10.3.1/bits/std_abs.h ****  *  This is an internal header file, included by other library headers.
  27:/Library/DaisyToolchain/0.2.0/arm/arm-none-eabi/include/c++/10.3.1/bits/std_abs.h ****  *  Do not attempt to use it directly. @headername{cmath, cstdlib}
  28:/Library/DaisyToolchain/0.2.0/arm/arm-none-eabi/include/c++/10.3.1/bits/std_abs.h ****  */
  29:/Library/DaisyToolchain/0.2.0/arm/arm-none-eabi/include/c++/10.3.1/bits/std_abs.h **** 
  30:/Library/DaisyToolchain/0.2.0/arm/arm-none-eabi/include/c++/10.3.1/bits/std_abs.h **** #ifndef _GLIBCXX_BITS_STD_ABS_H
  31:/Library/DaisyToolchain/0.2.0/arm/arm-none-eabi/include/c++/10.3.1/bits/std_abs.h **** #define _GLIBCXX_BITS_STD_ABS_H
  32:/Library/DaisyToolchain/0.2.0/arm/arm-none-eabi/include/c++/10.3.1/bits/std_abs.h **** 
  33:/Library/DaisyToolchain/0.2.0/arm/arm-none-eabi/include/c++/10.3.1/bits/std_abs.h **** #pragma GCC system_header
  34:/Library/DaisyToolchain/0.2.0/arm/arm-none-eabi/include/c++/10.3.1/bits/std_abs.h **** 
  35:/Library/DaisyToolchain/0.2.0/arm/arm-none-eabi/include/c++/10.3.1/bits/std_abs.h **** #include <bits/c++config.h>
  36:/Library/DaisyToolchain/0.2.0/arm/arm-none-eabi/include/c++/10.3.1/bits/std_abs.h **** 
  37:/Library/DaisyToolchain/0.2.0/arm/arm-none-eabi/include/c++/10.3.1/bits/std_abs.h **** #define _GLIBCXX_INCLUDE_NEXT_C_HEADERS
  38:/Library/DaisyToolchain/0.2.0/arm/arm-none-eabi/include/c++/10.3.1/bits/std_abs.h **** #include_next <stdlib.h>
  39:/Library/DaisyToolchain/0.2.0/arm/arm-none-eabi/include/c++/10.3.1/bits/std_abs.h **** #ifdef __CORRECT_ISO_CPP_MATH_H_PROTO
  40:/Library/DaisyToolchain/0.2.0/arm/arm-none-eabi/include/c++/10.3.1/bits/std_abs.h **** # include_next <math.h>
  41:/Library/DaisyToolchain/0.2.0/arm/arm-none-eabi/include/c++/10.3.1/bits/std_abs.h **** #endif
  42:/Library/DaisyToolchain/0.2.0/arm/arm-none-eabi/include/c++/10.3.1/bits/std_abs.h **** #undef _GLIBCXX_INCLUDE_NEXT_C_HEADERS
  43:/Library/DaisyToolchain/0.2.0/arm/arm-none-eabi/include/c++/10.3.1/bits/std_abs.h **** 
  44:/Library/DaisyToolchain/0.2.0/arm/arm-none-eabi/include/c++/10.3.1/bits/std_abs.h **** #undef abs
  45:/Library/DaisyToolchain/0.2.0/arm/arm-none-eabi/include/c++/10.3.1/bits/std_abs.h **** 
  46:/Library/DaisyToolchain/0.2.0/arm/arm-none-eabi/include/c++/10.3.1/bits/std_abs.h **** extern "C++"
  47:/Library/DaisyToolchain/0.2.0/arm/arm-none-eabi/include/c++/10.3.1/bits/std_abs.h **** {
  48:/Library/DaisyToolchain/0.2.0/arm/arm-none-eabi/include/c++/10.3.1/bits/std_abs.h **** namespace std _GLIBCXX_VISIBILITY(default)
  49:/Library/DaisyToolchain/0.2.0/arm/arm-none-eabi/include/c++/10.3.1/bits/std_abs.h **** {
  50:/Library/DaisyToolchain/0.2.0/arm/arm-none-eabi/include/c++/10.3.1/bits/std_abs.h **** _GLIBCXX_BEGIN_NAMESPACE_VERSION
  51:/Library/DaisyToolchain/0.2.0/arm/arm-none-eabi/include/c++/10.3.1/bits/std_abs.h **** 
  52:/Library/DaisyToolchain/0.2.0/arm/arm-none-eabi/include/c++/10.3.1/bits/std_abs.h ****   using ::abs;
  53:/Library/DaisyToolchain/0.2.0/arm/arm-none-eabi/include/c++/10.3.1/bits/std_abs.h **** 
  54:/Library/DaisyToolchain/0.2.0/arm/arm-none-eabi/include/c++/10.3.1/bits/std_abs.h **** #ifndef __CORRECT_ISO_CPP_STDLIB_H_PROTO
  55:/Library/DaisyToolchain/0.2.0/arm/arm-none-eabi/include/c++/10.3.1/bits/std_abs.h ****   inline long
  56:/Library/DaisyToolchain/0.2.0/arm/arm-none-eabi/include/c++/10.3.1/bits/std_abs.h ****   abs(long __i) { return __builtin_labs(__i); }
  57:/Library/DaisyToolchain/0.2.0/arm/arm-none-eabi/include/c++/10.3.1/bits/std_abs.h **** #endif
  58:/Library/DaisyToolchain/0.2.0/arm/arm-none-eabi/include/c++/10.3.1/bits/std_abs.h **** 
  59:/Library/DaisyToolchain/0.2.0/arm/arm-none-eabi/include/c++/10.3.1/bits/std_abs.h **** #ifdef _GLIBCXX_USE_LONG_LONG
  60:/Library/DaisyToolchain/0.2.0/arm/arm-none-eabi/include/c++/10.3.1/bits/std_abs.h ****   inline long long
ARM GAS  /var/folders/1y/_321xjh9623c014x9_qw12rr0000gn/T//cc4eHiNS.s 			page 67


  61:/Library/DaisyToolchain/0.2.0/arm/arm-none-eabi/include/c++/10.3.1/bits/std_abs.h ****   abs(long long __x) { return __builtin_llabs (__x); }
  62:/Library/DaisyToolchain/0.2.0/arm/arm-none-eabi/include/c++/10.3.1/bits/std_abs.h **** #endif
  63:/Library/DaisyToolchain/0.2.0/arm/arm-none-eabi/include/c++/10.3.1/bits/std_abs.h **** 
  64:/Library/DaisyToolchain/0.2.0/arm/arm-none-eabi/include/c++/10.3.1/bits/std_abs.h **** // _GLIBCXX_RESOLVE_LIB_DEFECTS
  65:/Library/DaisyToolchain/0.2.0/arm/arm-none-eabi/include/c++/10.3.1/bits/std_abs.h **** // 2192. Validity and return type of std::abs(0u) is unclear
  66:/Library/DaisyToolchain/0.2.0/arm/arm-none-eabi/include/c++/10.3.1/bits/std_abs.h **** // 2294. <cstdlib> should declare abs(double)
  67:/Library/DaisyToolchain/0.2.0/arm/arm-none-eabi/include/c++/10.3.1/bits/std_abs.h **** // 2735. std::abs(short), std::abs(signed char) and others should return int
  68:/Library/DaisyToolchain/0.2.0/arm/arm-none-eabi/include/c++/10.3.1/bits/std_abs.h **** 
  69:/Library/DaisyToolchain/0.2.0/arm/arm-none-eabi/include/c++/10.3.1/bits/std_abs.h **** #ifndef __CORRECT_ISO_CPP_MATH_H_PROTO
  70:/Library/DaisyToolchain/0.2.0/arm/arm-none-eabi/include/c++/10.3.1/bits/std_abs.h ****   inline _GLIBCXX_CONSTEXPR double
  71:/Library/DaisyToolchain/0.2.0/arm/arm-none-eabi/include/c++/10.3.1/bits/std_abs.h ****   abs(double __x)
  72:/Library/DaisyToolchain/0.2.0/arm/arm-none-eabi/include/c++/10.3.1/bits/std_abs.h ****   { return __builtin_fabs(__x); }
  73:/Library/DaisyToolchain/0.2.0/arm/arm-none-eabi/include/c++/10.3.1/bits/std_abs.h **** 
  74:/Library/DaisyToolchain/0.2.0/arm/arm-none-eabi/include/c++/10.3.1/bits/std_abs.h ****   inline _GLIBCXX_CONSTEXPR float
  75:/Library/DaisyToolchain/0.2.0/arm/arm-none-eabi/include/c++/10.3.1/bits/std_abs.h ****   abs(float __x)
 1803              		.loc 10 75 3 is_stmt 1 view .LVU425
 1804              	.LBB674:
  76:/Library/DaisyToolchain/0.2.0/arm/arm-none-eabi/include/c++/10.3.1/bits/std_abs.h ****   { return __builtin_fabsf(__x); }
 1805              		.loc 10 76 5 view .LVU426
 1806              		.loc 10 76 5 is_stmt 0 view .LVU427
 1807              	.LBE674:
 1808              	.LBE673:
 1809              	.LBB676:
 1810              	.LBB670:
 1811              	.LBB668:
 1812              		.loc 9 56 41 view .LVU428
 1813 005c 9DF80C30 		ldrb	r3, [sp, #12]	@ zero_extendqisi2
 1814              	.LBE668:
 1815              	.LBE670:
 1816              	.LBE676:
 257:Dubby.cpp     ****     display.DrawRect((i * 32)  + margin, int(abs((currentLevels[i] * 5.0f) - 1.0f) * 51.0f) + 1, ((
 1817              		.loc 2 257 49 view .LVU429
 1818 0060 F7EE007A 		vmov.f32	s15, #1.0e+0
 257:Dubby.cpp     ****     display.DrawRect((i * 32)  + margin, int(abs((currentLevels[i] * 5.0f) - 1.0f) * 51.0f) + 1, ((
 1819              		.loc 2 257 100 view .LVU430
 1820 0064 9FEDC97A 		vldr.32	s14, .L183
 1821              	.LBB677:
 1822              	.LBB678:
 1823              	.LBB679:
 227:../../libDaisy//src/hid/disp/display.h ****         int_fast16_t deltaY = abs((int_fast16_t)y2 - (int_fast16_t)y1);
 1824              		.loc 3 227 52 view .LVU431
 1825 0068 A2EB050A 		sub	r10, r2, r5
 1826              	.LBE679:
 1827              	.LBE678:
 1828              	.LBE677:
 1829              	.LBB756:
 1830              	.LBB671:
 1831              	.LBB669:
 1832              		.loc 9 56 41 view .LVU432
 1833 006c 00EB4313 		add	r3, r0, r3, lsl #5
 1834              	.LBE669:
 1835              	.LBE671:
 1836              	.LBE756:
 1837              	.LBB757:
 1838              	.LBB706:
 1839              	.LBB701:
 227:../../libDaisy//src/hid/disp/display.h ****         int_fast16_t deltaY = abs((int_fast16_t)y2 - (int_fast16_t)y1);
ARM GAS  /var/folders/1y/_321xjh9623c014x9_qw12rr0000gn/T//cc4eHiNS.s 			page 68


 1840              		.loc 3 227 22 view .LVU433
 1841 0070 BAF1000F 		cmp	r10, #0
 1842              	.LBE701:
 1843              	.LBE706:
 1844              	.LBE757:
 257:Dubby.cpp     ****     display.DrawRect((i * 32)  + margin, int(abs((currentLevels[i] * 5.0f) - 1.0f) * 51.0f) + 1, ((
 1845              		.loc 2 257 49 view .LVU434
 1846 0074 D3ED4A6A 		vldr.32	s13, [r3, #296]
 1847              	.LBB758:
 1848              	.LBB707:
 1849              	.LBB702:
 227:../../libDaisy//src/hid/disp/display.h ****         int_fast16_t deltaY = abs((int_fast16_t)y2 - (int_fast16_t)y1);
 1850              		.loc 3 227 22 view .LVU435
 1851 0078 B8BF     		it	lt
 1852 007a CAF1000A 		rsblt	r10, r10, #0
 229:../../libDaisy//src/hid/disp/display.h ****         int_fast16_t signY  = ((y1 < y2) ? 1 : -1);
 1853              		.loc 3 229 42 view .LVU436
 1854 007e 9542     		cmp	r5, r2
 1855              	.LBE702:
 1856              	.LBE707:
 1857              	.LBE758:
 257:Dubby.cpp     ****     display.DrawRect((i * 32)  + margin, int(abs((currentLevels[i] * 5.0f) - 1.0f) * 51.0f) + 1, ((
 1858              		.loc 2 257 49 view .LVU437
 1859 0080 77EEE67A 		vsub.f32	s15, s15, s13
 1860              	.LBB759:
 1861              	.LBB675:
 1862              		.loc 10 76 31 view .LVU438
 1863 0084 F0EEE77A 		vabs.f32	s15, s15
 1864              	.LBE675:
 1865              	.LBE759:
 257:Dubby.cpp     ****     display.DrawRect((i * 32)  + margin, int(abs((currentLevels[i] * 5.0f) - 1.0f) * 51.0f) + 1, ((
 1866              		.loc 2 257 100 view .LVU439
 1867 0088 67EE877A 		vmul.f32	s15, s15, s14
 257:Dubby.cpp     ****     display.DrawRect((i * 32)  + margin, int(abs((currentLevels[i] * 5.0f) - 1.0f) * 51.0f) + 1, ((
 1868              		.loc 2 257 42 view .LVU440
 1869 008c FDEEE77A 		vcvt.s32.f32	s15, s15
 257:Dubby.cpp     ****     display.DrawRect((i * 32)  + margin, int(abs((currentLevels[i] * 5.0f) - 1.0f) * 51.0f) + 1, ((
 1870              		.loc 2 257 109 view .LVU441
 1871 0090 17EE903A 		vmov	r3, s15	@ int
 1872 0094 03F10107 		add	r7, r3, #1
 1873              	.LVL128:
 1874              	.LBB760:
 1875              	.LBI677:
 257:../../libDaisy//src/hid/disp/display.h ****                   uint_fast8_t y1,
 1876              		.loc 3 257 10 is_stmt 1 view .LVU442
 1877              	.LBB708:
 1878              	.LBI678:
 221:../../libDaisy//src/hid/disp/display.h ****                   uint_fast8_t y1,
 1879              		.loc 3 221 10 view .LVU443
 1880              	.LBB703:
 229:../../libDaisy//src/hid/disp/display.h ****         int_fast16_t signY  = ((y1 < y2) ? 1 : -1);
 1881              		.loc 3 229 42 is_stmt 0 view .LVU444
 1882 0098 80F08E81 		bcs	.L182
 1883              	.LVL129:
 1884              	.LBB680:
 1885              	.LBI680:
 1886              		.loc 1 42 10 is_stmt 1 view .LVU445
ARM GAS  /var/folders/1y/_321xjh9623c014x9_qw12rr0000gn/T//cc4eHiNS.s 			page 69


 1887              	.LBB681:
 1888              	.LBB682:
 1889              	.LBB683:
 354:../../libDaisy//src/dev/oled_ssd130x.h ****             return;
 1890              		.loc 4 354 14 is_stmt 0 view .LVU446
 1891 009c 7F2A     		cmp	r2, #127
 1892              	.LBE683:
 1893              	.LBE682:
  43:../../libDaisy//src/hid/disp/oled_display.h ****     {
  44:../../libDaisy//src/hid/disp/oled_display.h ****         driver_.DrawPixel(x, y, on);
 1894              		.loc 1 44 26 view .LVU447
 1895 009e 00F58B64 		add	r4, r0, #1112
 1896              	.LVL130:
 1897              	.LBB687:
 1898              	.LBI682:
 352:../../libDaisy//src/dev/oled_ssd130x.h ****     {
 1899              		.loc 4 352 10 is_stmt 1 view .LVU448
 1900              	.LBE687:
 1901              	.LBE681:
 1902              	.LBE680:
 229:../../libDaisy//src/hid/disp/display.h ****         int_fast16_t signY  = ((y1 < y2) ? 1 : -1);
 1903              		.loc 3 229 42 is_stmt 0 view .LVU449
 1904 00a2 4FF0010B 		mov	fp, #1
 1905              	.LBB695:
 1906              	.LBB692:
 1907              	.LBB688:
 1908              	.LBB684:
 354:../../libDaisy//src/dev/oled_ssd130x.h ****             return;
 1909              		.loc 4 354 14 view .LVU450
 1910 00a6 94BF     		ite	ls
 1911 00a8 0023     		movls	r3, #0
 1912 00aa 0123     		movhi	r3, #1
 354:../../libDaisy//src/dev/oled_ssd130x.h ****             return;
 1913              		.loc 4 354 28 view .LVU451
 1914 00ac 3F2F     		cmp	r7, #63
 354:../../libDaisy//src/dev/oled_ssd130x.h ****             return;
 1915              		.loc 4 354 14 view .LVU452
 1916 00ae 0493     		str	r3, [sp, #16]
 354:../../libDaisy//src/dev/oled_ssd130x.h ****             return;
 1917              		.loc 4 354 28 view .LVU453
 1918 00b0 94BF     		ite	ls
 1919 00b2 0021     		movls	r1, #0
 1920 00b4 0121     		movhi	r1, #1
 1921 00b6 0591     		str	r1, [sp, #20]
 354:../../libDaisy//src/dev/oled_ssd130x.h ****             return;
 1922              		.loc 4 354 9 view .LVU454
 1923 00b8 13B9     		cbnz	r3, .L88
 1924 00ba 0029     		cmp	r1, #0
 1925 00bc 00F08C81 		beq	.L125
 1926              	.LVL131:
 1927              	.L88:
 354:../../libDaisy//src/dev/oled_ssd130x.h ****             return;
 1928              		.loc 4 354 9 view .LVU455
 1929              	.LBE684:
 1930              	.LBE688:
 1931              	.LBE692:
 1932              	.LBE695:
ARM GAS  /var/folders/1y/_321xjh9623c014x9_qw12rr0000gn/T//cc4eHiNS.s 			page 70


 227:../../libDaisy//src/hid/disp/display.h ****         int_fast16_t deltaY = abs((int_fast16_t)y2 - (int_fast16_t)y1);
 1933              		.loc 3 227 22 view .LVU456
 1934 00c0 D046     		mov	r8, r10
 1935              	.LBE703:
 1936              	.LBE708:
 1937              	.LBE760:
 257:Dubby.cpp     ****     display.DrawRect((i * 32)  + margin, int(abs((currentLevels[i] * 5.0f) - 1.0f) * 51.0f) + 1, ((
 1938              		.loc 2 257 21 view .LVU457
 1939 00c2 3E46     		mov	r6, r7
 256:Dubby.cpp     ****     display.DrawRect((i * 32)  + margin, int(abs(1.0f - GetKnobValue(static_cast<Dubby::Ctrl>(i))) 
 1940              		.loc 2 256 21 view .LVU458
 1941 00c4 AE46     		mov	lr, r5
 1942              	.L90:
 1943              	.LVL132:
 1944              	.LBB761:
 1945              	.LBB709:
 1946              	.LBB704:
 1947              	.LBB696:
 1948              	.LBI696:
  42:../../libDaisy//src/hid/disp/oled_display.h ****     {
 1949              		.loc 1 42 10 is_stmt 1 view .LVU459
 1950              	.LBB697:
 1951              	.LBI697:
 352:../../libDaisy//src/dev/oled_ssd130x.h ****     {
 1952              		.loc 4 352 10 view .LVU460
 1953              	.LBB698:
 357:../../libDaisy//src/dev/oled_ssd130x.h ****         else
 1954              		.loc 4 357 28 is_stmt 0 view .LVU461
 1955 00c6 F108     		lsrs	r1, r6, #3
 357:../../libDaisy//src/dev/oled_ssd130x.h ****         else
 1956              		.loc 4 357 54 view .LVU462
 1957 00c8 06F00703 		and	r3, r6, #7
 357:../../libDaisy//src/dev/oled_ssd130x.h ****         else
 1958              		.loc 4 357 48 view .LVU463
 1959 00cc 4FF00109 		mov	r9, #1
 354:../../libDaisy//src/dev/oled_ssd130x.h ****             return;
 1960              		.loc 4 354 9 view .LVU464
 1961 00d0 BEF17F0F 		cmp	lr, #127
 357:../../libDaisy//src/dev/oled_ssd130x.h ****         else
 1962              		.loc 4 357 42 view .LVU465
 1963 00d4 0EEBC111 		add	r1, lr, r1, lsl #7
 357:../../libDaisy//src/dev/oled_ssd130x.h ****         else
 1964              		.loc 4 357 48 view .LVU466
 1965 00d8 09FA03F3 		lsl	r3, r9, r3
 354:../../libDaisy//src/dev/oled_ssd130x.h ****             return;
 1966              		.loc 4 354 9 view .LVU467
 1967 00dc 08D8     		bhi	.L91
 1968 00de 3F2E     		cmp	r6, #63
 357:../../libDaisy//src/dev/oled_ssd130x.h ****         else
 1969              		.loc 4 357 42 view .LVU468
 1970 00e0 0144     		add	r1, r1, r0
 354:../../libDaisy//src/dev/oled_ssd130x.h ****             return;
 1971              		.loc 4 354 9 view .LVU469
 1972 00e2 05D8     		bhi	.L91
 357:../../libDaisy//src/dev/oled_ssd130x.h ****         else
 1973              		.loc 4 357 42 view .LVU470
 1974 00e4 91F86494 		ldrb	r9, [r1, #1124]	@ zero_extendqisi2
ARM GAS  /var/folders/1y/_321xjh9623c014x9_qw12rr0000gn/T//cc4eHiNS.s 			page 71


 1975 00e8 43EA0903 		orr	r3, r3, r9
 1976 00ec 81F86434 		strb	r3, [r1, #1124]
 1977              	.L91:
 357:../../libDaisy//src/dev/oled_ssd130x.h ****         else
 1978              		.loc 4 357 42 view .LVU471
 1979              	.LBE698:
 1980              	.LBE697:
 1981              	.LBE696:
 243:../../libDaisy//src/hid/disp/display.h ****             {
 1982              		.loc 3 243 13 view .LVU472
 1983 00f0 5FEA4803 		lsls	r3, r8, #1
 246:../../libDaisy//src/hid/disp/display.h ****             }
 1984              		.loc 3 246 20 view .LVU473
 1985 00f4 18BF     		it	ne
 1986 00f6 DE44     		addne	lr, lr, fp
 1987              	.LVL133:
 249:../../libDaisy//src/hid/disp/display.h ****             {
 1988              		.loc 3 249 13 view .LVU474
 1989 00f8 9A45     		cmp	r10, r3
 1990 00fa 01DD     		ble	.L93
 251:../../libDaisy//src/hid/disp/display.h ****                 y1 += signY;
 1991              		.loc 3 251 23 view .LVU475
 1992 00fc D044     		add	r8, r8, r10
 1993              	.LVL134:
 252:../../libDaisy//src/hid/disp/display.h ****             }
 1994              		.loc 3 252 20 view .LVU476
 1995 00fe 013E     		subs	r6, r6, #1
 1996              	.LVL135:
 1997              	.L93:
 239:../../libDaisy//src/hid/disp/display.h ****         {
 1998              		.loc 3 239 26 is_stmt 1 view .LVU477
 1999 0100 7245     		cmp	r2, lr
 2000 0102 E0D1     		bne	.L90
 239:../../libDaisy//src/hid/disp/display.h ****         {
 2001              		.loc 3 239 26 is_stmt 0 view .LVU478
 2002 0104 B742     		cmp	r7, r6
 2003 0106 DED1     		bne	.L90
 2004 0108 0023     		movs	r3, #0
 2005 010a 0893     		str	r3, [sp, #32]
 2006              	.LVL136:
 2007              	.L87:
 239:../../libDaisy//src/hid/disp/display.h ****         {
 2008              		.loc 3 239 26 view .LVU479
 2009              	.LBE704:
 2010              	.LBE709:
 2011              	.LBB710:
 2012              	.LBI710:
 221:../../libDaisy//src/hid/disp/display.h ****                   uint_fast8_t y1,
 2013              		.loc 3 221 10 is_stmt 1 view .LVU480
 2014              	.LBB711:
 228:../../libDaisy//src/hid/disp/display.h ****         int_fast16_t signX  = ((x1 < x2) ? 1 : -1);
 2015              		.loc 3 228 52 is_stmt 0 view .LVU481
 2016 010c C7F13303 		rsb	r3, r7, #51
 230:../../libDaisy//src/hid/disp/display.h ****         int_fast16_t error  = deltaX - deltaY;
 2017              		.loc 3 230 42 view .LVU482
 2018 0110 332F     		cmp	r7, #51
 228:../../libDaisy//src/hid/disp/display.h ****         int_fast16_t signX  = ((x1 < x2) ? 1 : -1);
ARM GAS  /var/folders/1y/_321xjh9623c014x9_qw12rr0000gn/T//cc4eHiNS.s 			page 72


 2019              		.loc 3 228 22 view .LVU483
 2020 0112 83EAE371 		eor	r1, r3, r3, asr #31
 2021 0116 A1EBE371 		sub	r1, r1, r3, asr #31
 2022 011a 0B46     		mov	r3, r1
 230:../../libDaisy//src/hid/disp/display.h ****         int_fast16_t error  = deltaX - deltaY;
 2023              		.loc 3 230 42 view .LVU484
 2024 011c B4BF     		ite	lt
 2025 011e 0123     		movlt	r3, #1
 2026 0120 4FF0FF33 		movge	r3, #-1
 231:../../libDaisy//src/hid/disp/display.h ****         int_fast16_t error2;
 2027              		.loc 3 231 22 view .LVU485
 2028 0124 C1F1000A 		rsb	r10, r1, #0
 228:../../libDaisy//src/hid/disp/display.h ****         int_fast16_t signX  = ((x1 < x2) ? 1 : -1);
 2029              		.loc 3 228 22 view .LVU486
 2030 0128 0191     		str	r1, [sp, #4]
 2031              	.LVL137:
 230:../../libDaisy//src/hid/disp/display.h ****         int_fast16_t error  = deltaX - deltaY;
 2032              		.loc 3 230 42 view .LVU487
 2033 012a 0293     		str	r3, [sp, #8]
 2034              	.LVL138:
 2035              	.LBB712:
 2036              	.LBI712:
  42:../../libDaisy//src/hid/disp/oled_display.h ****     {
 2037              		.loc 1 42 10 is_stmt 1 view .LVU488
 2038              	.LBB713:
 2039              	.LBI713:
 352:../../libDaisy//src/dev/oled_ssd130x.h ****     {
 2040              		.loc 4 352 10 view .LVU489
 2041              	.LBB714:
 354:../../libDaisy//src/dev/oled_ssd130x.h ****             return;
 2042              		.loc 4 354 9 is_stmt 0 view .LVU490
 2043 012c 049B     		ldr	r3, [sp, #16]
 2044              	.LVL139:
 354:../../libDaisy//src/dev/oled_ssd130x.h ****             return;
 2045              		.loc 4 354 9 view .LVU491
 2046 012e 43B9     		cbnz	r3, .L95
 357:../../libDaisy//src/dev/oled_ssd130x.h ****         else
 2047              		.loc 4 357 42 view .LVU492
 2048 0130 02F54073 		add	r3, r2, #768
 2049 0134 0344     		add	r3, r3, r0
 2050 0136 93F86414 		ldrb	r1, [r3, #1124]	@ zero_extendqisi2
 2051              	.LVL140:
 357:../../libDaisy//src/dev/oled_ssd130x.h ****         else
 2052              		.loc 4 357 42 view .LVU493
 2053 013a 41F00801 		orr	r1, r1, #8
 2054 013e 83F86414 		strb	r1, [r3, #1124]
 2055              	.L95:
 2056              	.LVL141:
 357:../../libDaisy//src/dev/oled_ssd130x.h ****         else
 2057              		.loc 4 357 42 view .LVU494
 2058              	.LBE714:
 2059              	.LBE713:
 2060              	.LBE712:
 239:../../libDaisy//src/hid/disp/display.h ****         {
 2061              		.loc 3 239 26 is_stmt 1 view .LVU495
 2062 0142 332F     		cmp	r7, #51
 2063 0144 29D0     		beq	.L96
ARM GAS  /var/folders/1y/_321xjh9623c014x9_qw12rr0000gn/T//cc4eHiNS.s 			page 73


 2064 0146 5646     		mov	r6, r10
 2065 0148 3946     		mov	r1, r7
 2066              	.LBE711:
 2067              	.LBE710:
 2068              	.LBE761:
 256:Dubby.cpp     ****     display.DrawRect((i * 32)  + margin, int(abs(1.0f - GetKnobValue(static_cast<Dubby::Ctrl>(i))) 
 2069              		.loc 2 256 21 is_stmt 0 view .LVU496
 2070 014a 9646     		mov	lr, r2
 2071              	.LVL142:
 2072              	.L97:
 2073              	.LBB762:
 2074              	.LBB722:
 2075              	.LBB721:
 2076              	.LBB715:
 2077              	.LBI715:
  42:../../libDaisy//src/hid/disp/oled_display.h ****     {
 2078              		.loc 1 42 10 is_stmt 1 view .LVU497
 2079              	.LBB716:
 2080              	.LBI716:
 352:../../libDaisy//src/dev/oled_ssd130x.h ****     {
 2081              		.loc 4 352 10 view .LVU498
 2082              	.LBB717:
 357:../../libDaisy//src/dev/oled_ssd130x.h ****         else
 2083              		.loc 4 357 48 is_stmt 0 view .LVU499
 2084 014c 4FF0010B 		mov	fp, #1
 357:../../libDaisy//src/dev/oled_ssd130x.h ****         else
 2085              		.loc 4 357 28 view .LVU500
 2086 0150 CB08     		lsrs	r3, r1, #3
 357:../../libDaisy//src/dev/oled_ssd130x.h ****         else
 2087              		.loc 4 357 54 view .LVU501
 2088 0152 01F00708 		and	r8, r1, #7
 354:../../libDaisy//src/dev/oled_ssd130x.h ****             return;
 2089              		.loc 4 354 9 view .LVU502
 2090 0156 BEF17F0F 		cmp	lr, #127
 357:../../libDaisy//src/dev/oled_ssd130x.h ****         else
 2091              		.loc 4 357 42 view .LVU503
 2092 015a 0EEBC313 		add	r3, lr, r3, lsl #7
 2093              	.LBE717:
 2094              	.LBE716:
 2095              	.LBE715:
 242:../../libDaisy//src/hid/disp/display.h ****             if(error2 > -deltaY)
 2096              		.loc 3 242 20 view .LVU504
 2097 015e 06FA0BF9 		lsl	r9, r6, fp
 2098              	.LVL143:
 2099              	.LBB720:
 2100              	.LBB719:
 2101              	.LBB718:
 357:../../libDaisy//src/dev/oled_ssd130x.h ****         else
 2102              		.loc 4 357 48 view .LVU505
 2103 0162 0BFA08F8 		lsl	r8, fp, r8
 354:../../libDaisy//src/dev/oled_ssd130x.h ****             return;
 2104              		.loc 4 354 9 view .LVU506
 2105 0166 08D8     		bhi	.L99
 354:../../libDaisy//src/dev/oled_ssd130x.h ****             return;
 2106              		.loc 4 354 9 view .LVU507
 2107 0168 3F29     		cmp	r1, #63
 357:../../libDaisy//src/dev/oled_ssd130x.h ****         else
ARM GAS  /var/folders/1y/_321xjh9623c014x9_qw12rr0000gn/T//cc4eHiNS.s 			page 74


 2108              		.loc 4 357 42 view .LVU508
 2109 016a 0344     		add	r3, r3, r0
 354:../../libDaisy//src/dev/oled_ssd130x.h ****             return;
 2110              		.loc 4 354 9 view .LVU509
 2111 016c 05D8     		bhi	.L99
 357:../../libDaisy//src/dev/oled_ssd130x.h ****         else
 2112              		.loc 4 357 42 view .LVU510
 2113 016e 93F864B4 		ldrb	fp, [r3, #1124]	@ zero_extendqisi2
 2114 0172 48EA0B08 		orr	r8, r8, fp
 2115 0176 83F86484 		strb	r8, [r3, #1124]
 2116              	.L99:
 357:../../libDaisy//src/dev/oled_ssd130x.h ****         else
 2117              		.loc 4 357 42 view .LVU511
 2118              	.LBE718:
 2119              	.LBE719:
 2120              	.LBE720:
 243:../../libDaisy//src/hid/disp/display.h ****             {
 2121              		.loc 3 243 13 view .LVU512
 2122 017a BAEB460F 		cmp	r10, r6, lsl #1
 2123 017e 03DA     		bge	.L100
 245:../../libDaisy//src/hid/disp/display.h ****                 x1 += signX;
 2124              		.loc 3 245 23 view .LVU513
 2125 0180 019B     		ldr	r3, [sp, #4]
 246:../../libDaisy//src/hid/disp/display.h ****             }
 2126              		.loc 3 246 20 view .LVU514
 2127 0182 0EF1FF3E 		add	lr, lr, #-1
 2128              	.LVL144:
 245:../../libDaisy//src/hid/disp/display.h ****                 x1 += signX;
 2129              		.loc 3 245 23 view .LVU515
 2130 0186 F61A     		subs	r6, r6, r3
 2131              	.LVL145:
 2132              	.L100:
 249:../../libDaisy//src/hid/disp/display.h ****             {
 2133              		.loc 3 249 13 view .LVU516
 2134 0188 B9F1000F 		cmp	r9, #0
 2135 018c 01D0     		beq	.L101
 252:../../libDaisy//src/hid/disp/display.h ****             }
 2136              		.loc 3 252 20 view .LVU517
 2137 018e 029B     		ldr	r3, [sp, #8]
 2138 0190 1944     		add	r1, r1, r3
 2139              	.LVL146:
 2140              	.L101:
