ARM GAS  /var/folders/1y/_321xjh9623c014x9_qw12rr0000gn/T//ccE17DNe.s 			page 1


   1              		.cpu cortex-m7
   2              		.arch armv7e-m
   3              		.fpu fpv5-d16
   4              		.eabi_attribute 28, 1
   5              		.eabi_attribute 20, 1
   6              		.eabi_attribute 21, 1
   7              		.eabi_attribute 23, 3
   8              		.eabi_attribute 24, 1
   9              		.eabi_attribute 25, 1
  10              		.eabi_attribute 26, 1
  11              		.eabi_attribute 30, 2
  12              		.eabi_attribute 34, 1
  13              		.eabi_attribute 18, 4
  14              		.file	"Dubby.cpp"
  15              		.text
  16              	.Ltext0:
  17              		.cfi_sections	.debug_frame
  18              		.section	.text._ZNK5daisy11OledDisplayINS_13SSD130xDriverILj128ELj64ENS_24SSD130x4WireSpiTransport
  19              		.align	1
  20              		.p2align 2,,3
  21              		.weak	_ZNK5daisy11OledDisplayINS_13SSD130xDriverILj128ELj64ENS_24SSD130x4WireSpiTransportEEEE6Heig
  22              		.syntax unified
  23              		.thumb
  24              		.thumb_func
  26              	_ZNK5daisy11OledDisplayINS_13SSD130xDriverILj128ELj64ENS_24SSD130x4WireSpiTransportEEEE6HeightEv:
  27              	.LVL0:
  28              	.LFB4317:
  29              		.file 1 "../../libDaisy//src/hid/disp/oled_display.h"
   1:../../libDaisy//src/hid/disp/oled_display.h **** #pragma once
   2:../../libDaisy//src/hid/disp/oled_display.h **** #ifndef DSY_OLED_DISPLAY_H
   3:../../libDaisy//src/hid/disp/oled_display.h **** #define DSY_OLED_DISPLAY_H /**< Macro */
   4:../../libDaisy//src/hid/disp/oled_display.h **** 
   5:../../libDaisy//src/hid/disp/oled_display.h **** #include "display.h"
   6:../../libDaisy//src/hid/disp/oled_display.h **** 
   7:../../libDaisy//src/hid/disp/oled_display.h **** namespace daisy
   8:../../libDaisy//src/hid/disp/oled_display.h **** {
   9:../../libDaisy//src/hid/disp/oled_display.h **** /** 
  10:../../libDaisy//src/hid/disp/oled_display.h ****  * This class is for drawing to a monochrome OLED display. 
  11:../../libDaisy//src/hid/disp/oled_display.h ****  * @ingroup device
  12:../../libDaisy//src/hid/disp/oled_display.h **** */
  13:../../libDaisy//src/hid/disp/oled_display.h **** template <typename DisplayDriver>
  14:../../libDaisy//src/hid/disp/oled_display.h **** class OledDisplay : public OneBitGraphicsDisplayImpl<OledDisplay<DisplayDriver>>
  15:../../libDaisy//src/hid/disp/oled_display.h **** {
  16:../../libDaisy//src/hid/disp/oled_display.h ****   public:
  17:../../libDaisy//src/hid/disp/oled_display.h ****     OledDisplay() {}
  18:../../libDaisy//src/hid/disp/oled_display.h ****     virtual ~OledDisplay() {}
  19:../../libDaisy//src/hid/disp/oled_display.h **** 
  20:../../libDaisy//src/hid/disp/oled_display.h ****     struct Config
  21:../../libDaisy//src/hid/disp/oled_display.h ****     {
  22:../../libDaisy//src/hid/disp/oled_display.h ****         typename DisplayDriver::Config driver_config;
  23:../../libDaisy//src/hid/disp/oled_display.h ****     };
  24:../../libDaisy//src/hid/disp/oled_display.h **** 
  25:../../libDaisy//src/hid/disp/oled_display.h ****     void Init(Config config) { driver_.Init(config.driver_config); }
  26:../../libDaisy//src/hid/disp/oled_display.h **** 
  27:../../libDaisy//src/hid/disp/oled_display.h ****     uint16_t Height() const override { return driver_.Height(); }
  30              		.loc 1 27 14 view -0
  31              		.cfi_startproc
ARM GAS  /var/folders/1y/_321xjh9623c014x9_qw12rr0000gn/T//ccE17DNe.s 			page 2


  32              		@ args = 0, pretend = 0, frame = 0
  33              		@ frame_needed = 0, uses_anonymous_args = 0
  34              		@ link register save eliminated.
  35              		.loc 1 27 65 is_stmt 0 view .LVU1
  36 0000 4020     		movs	r0, #64
  37              	.LVL1:
  38              		.loc 1 27 65 view .LVU2
  39 0002 7047     		bx	lr
  40              		.cfi_endproc
  41              	.LFE4317:
  43              		.section	.text._ZNK5daisy11OledDisplayINS_13SSD130xDriverILj128ELj64ENS_24SSD130x4WireSpiTransport
  44              		.align	1
  45              		.p2align 2,,3
  46              		.weak	_ZNK5daisy11OledDisplayINS_13SSD130xDriverILj128ELj64ENS_24SSD130x4WireSpiTransportEEEE5Widt
  47              		.syntax unified
  48              		.thumb
  49              		.thumb_func
  51              	_ZNK5daisy11OledDisplayINS_13SSD130xDriverILj128ELj64ENS_24SSD130x4WireSpiTransportEEEE5WidthEv:
  52              	.LVL2:
  53              	.LFB4318:
  28:../../libDaisy//src/hid/disp/oled_display.h ****     uint16_t Width() const override { return driver_.Width(); }
  54              		.loc 1 28 14 is_stmt 1 view -0
  55              		.cfi_startproc
  56              		@ args = 0, pretend = 0, frame = 0
  57              		@ frame_needed = 0, uses_anonymous_args = 0
  58              		@ link register save eliminated.
  59              		.loc 1 28 63 is_stmt 0 view .LVU4
  60 0000 8020     		movs	r0, #128
  61              	.LVL3:
  62              		.loc 1 28 63 view .LVU5
  63 0002 7047     		bx	lr
  64              		.cfi_endproc
  65              	.LFE4318:
  67              		.section	.text._ZN5daisy5Dubby11RenderScopeEv.part.0,"ax",%progbits
  68              		.align	1
  69              		.p2align 2,,3
  70              		.syntax unified
  71              		.thumb
  72              		.thumb_func
  74              	_ZN5daisy5Dubby11RenderScopeEv.part.0:
  75              	.LVL4:
  76              	.LFB4330:
  77              		.file 2 "Dubby.cpp"
   1:Dubby.cpp     **** #include "Dubby.h"
   2:Dubby.cpp     **** 
   3:Dubby.cpp     **** using namespace daisy;
   4:Dubby.cpp     **** 
   5:Dubby.cpp     **** // Hardware Definitions
   6:Dubby.cpp     **** #define PIN_GATE_IN_1 32
   7:Dubby.cpp     **** #define PIN_GATE_IN_2 23
   8:Dubby.cpp     **** #define PIN_GATE_IN_3 17
   9:Dubby.cpp     **** #define PIN_GATE_IN_4 19
  10:Dubby.cpp     **** #define PIN_KNOB_1 18
  11:Dubby.cpp     **** #define PIN_KNOB_2 15
  12:Dubby.cpp     **** #define PIN_KNOB_3 21
  13:Dubby.cpp     **** #define PIN_KNOB_4 22
  14:Dubby.cpp     **** #define PIN_JS_CLICK 3
ARM GAS  /var/folders/1y/_321xjh9623c014x9_qw12rr0000gn/T//ccE17DNe.s 			page 3


  15:Dubby.cpp     **** #define PIN_JS_V 20
  16:Dubby.cpp     **** #define PIN_JS_H 16
  17:Dubby.cpp     **** #define PIN_ENC_CLICK 4
  18:Dubby.cpp     **** #define PIN_ENC_A 6
  19:Dubby.cpp     **** #define PIN_ENC_B 5 
  20:Dubby.cpp     **** #define PIN_OLED_DC 9
  21:Dubby.cpp     **** #define PIN_OLED_RESET 31
  22:Dubby.cpp     **** #define PIN_MIDI_OUT 13
  23:Dubby.cpp     **** #define PIN_MIDI_IN 14
  24:Dubby.cpp     **** #define PIN_MIDI_SWITCH 1
  25:Dubby.cpp     **** 
  26:Dubby.cpp     **** #define OLED_WIDTH 128
  27:Dubby.cpp     **** #define OLED_HEIGHT 64
  28:Dubby.cpp     **** 
  29:Dubby.cpp     **** #define PANE_X_START 1
  30:Dubby.cpp     **** #define PANE_X_END 126
  31:Dubby.cpp     **** #define PANE_Y_START 1
  32:Dubby.cpp     **** #define PANE_Y_END 51
  33:Dubby.cpp     **** 
  34:Dubby.cpp     **** #define SUBMENU_X_START 1
  35:Dubby.cpp     **** #define SUBMENU_X_END 63
  36:Dubby.cpp     **** #define SUBMENU_Y_START 1
  37:Dubby.cpp     **** #define SUBMENU_Y_END 11
  38:Dubby.cpp     **** 
  39:Dubby.cpp     **** void Dubby::Init() 
  40:Dubby.cpp     **** {
  41:Dubby.cpp     ****     InitControls();
  42:Dubby.cpp     ****     InitButtons();
  43:Dubby.cpp     ****     
  44:Dubby.cpp     ****     screen_update_period_ = 17; // roughly 60Hz
  45:Dubby.cpp     ****     screen_update_last_   = seed.system.GetNow();
  46:Dubby.cpp     **** 
  47:Dubby.cpp     ****     for (int i = 0; i < 5; i++) 
  48:Dubby.cpp     ****     {
  49:Dubby.cpp     ****         submenuBoxBounding[i][0] = SUBMENU_X_START;
  50:Dubby.cpp     ****         submenuBoxBounding[i][1] = SUBMENU_Y_START + i * 10;
  51:Dubby.cpp     ****         submenuBoxBounding[i][2] = SUBMENU_X_END;
  52:Dubby.cpp     ****         submenuBoxBounding[i][3] = SUBMENU_Y_END + i * 10;
  53:Dubby.cpp     ****     }
  54:Dubby.cpp     **** 
  55:Dubby.cpp     ****     InitDisplay();
  56:Dubby.cpp     ****     InitEncoder();
  57:Dubby.cpp     ****     InitAudio();
  58:Dubby.cpp     ****     InitMidi();
  59:Dubby.cpp     **** }
  60:Dubby.cpp     **** 
  61:Dubby.cpp     **** void Dubby::InitControls()
  62:Dubby.cpp     **** {
  63:Dubby.cpp     ****     AdcChannelConfig cfg[CTRL_LAST];
  64:Dubby.cpp     **** 
  65:Dubby.cpp     ****     // Init ADC channels with Pins
  66:Dubby.cpp     ****     cfg[CTRL_1].InitSingle(seed.GetPin(PIN_KNOB_1));
  67:Dubby.cpp     ****     cfg[CTRL_2].InitSingle(seed.GetPin(PIN_KNOB_2));
  68:Dubby.cpp     ****     cfg[CTRL_3].InitSingle(seed.GetPin(PIN_KNOB_3));
  69:Dubby.cpp     ****     cfg[CTRL_4].InitSingle(seed.GetPin(PIN_KNOB_4));
  70:Dubby.cpp     ****     cfg[CTRL_5].InitSingle(seed.GetPin(PIN_JS_H));
  71:Dubby.cpp     ****     cfg[CTRL_6].InitSingle(seed.GetPin(PIN_JS_V));
ARM GAS  /var/folders/1y/_321xjh9623c014x9_qw12rr0000gn/T//ccE17DNe.s 			page 4


  72:Dubby.cpp     **** 
  73:Dubby.cpp     ****     // Initialize ADC
  74:Dubby.cpp     ****     seed.adc.Init(cfg, CTRL_LAST);
  75:Dubby.cpp     **** 
  76:Dubby.cpp     ****     // Initialize analogInputs, with flip set to true
  77:Dubby.cpp     ****     for(size_t i = 0; i < CTRL_LAST; i++)
  78:Dubby.cpp     ****     {
  79:Dubby.cpp     ****         analogInputs[i].Init(seed.adc.GetPtr(i), seed.AudioCallbackRate(), true);
  80:Dubby.cpp     ****     }
  81:Dubby.cpp     **** 
  82:Dubby.cpp     ****     seed.adc.Start();
  83:Dubby.cpp     **** }
  84:Dubby.cpp     **** 
  85:Dubby.cpp     **** void Dubby::InitButtons()
  86:Dubby.cpp     **** {
  87:Dubby.cpp     ****     //Set button to pins, to be updated at a 1kHz  samplerate
  88:Dubby.cpp     ****     buttons[0].Init(seed.GetPin(PIN_GATE_IN_1), 1000);
  89:Dubby.cpp     ****     buttons[1].Init(seed.GetPin(PIN_GATE_IN_2), 1000);
  90:Dubby.cpp     ****     buttons[2].Init(seed.GetPin(PIN_GATE_IN_3), 1000);
  91:Dubby.cpp     ****     buttons[3].Init(seed.GetPin(PIN_GATE_IN_4), 1000);
  92:Dubby.cpp     **** }
  93:Dubby.cpp     **** 
  94:Dubby.cpp     **** void Dubby::InitMidi()
  95:Dubby.cpp     **** {
  96:Dubby.cpp     ****     MidiUartHandler::Config midi_config;
  97:Dubby.cpp     ****     midi.Init(midi_config);
  98:Dubby.cpp     **** 
  99:Dubby.cpp     ****     // RELAY FOR SWITCHING MIDI OUT / MIDI THRU
 100:Dubby.cpp     ****     midi_sw_output.pin  = seed.GetPin(PIN_MIDI_SWITCH);
 101:Dubby.cpp     ****     midi_sw_output.mode = DSY_GPIO_MODE_OUTPUT_PP;
 102:Dubby.cpp     ****     midi_sw_output.pull = DSY_GPIO_NOPULL;
 103:Dubby.cpp     ****     dsy_gpio_init(&midi_sw_output);
 104:Dubby.cpp     **** 
 105:Dubby.cpp     ****     dsy_gpio_write(&midi_sw_output, false); 
 106:Dubby.cpp     **** }
 107:Dubby.cpp     **** 
 108:Dubby.cpp     **** void Dubby::InitDisplay() 
 109:Dubby.cpp     **** {
 110:Dubby.cpp     ****     /** Configure the Display */
 111:Dubby.cpp     ****     OledDisplay<SSD130x4WireSpi128x64Driver>::Config disp_cfg;
 112:Dubby.cpp     ****     disp_cfg.driver_config.transport_config.pin_config.dc    = seed.GetPin(9);
 113:Dubby.cpp     ****     disp_cfg.driver_config.transport_config.pin_config.reset = seed.GetPin(31);
 114:Dubby.cpp     ****     /** And Initialize */
 115:Dubby.cpp     ****     display.Init(disp_cfg);
 116:Dubby.cpp     **** }
 117:Dubby.cpp     **** 
 118:Dubby.cpp     **** void Dubby::UpdateDisplay() 
 119:Dubby.cpp     **** {
 120:Dubby.cpp     ****     if (encoder.TimeHeldMs() > 300) 
 121:Dubby.cpp     ****     {
 122:Dubby.cpp     ****         if (!menuActive) 
 123:Dubby.cpp     ****         {
 124:Dubby.cpp     ****             HightlightMenuItem();
 125:Dubby.cpp     ****             menuActive = true;
 126:Dubby.cpp     ****         }
 127:Dubby.cpp     **** 
 128:Dubby.cpp     ****         if (encoder.Increment()) UpdateMenu(encoder.Increment(), true);
ARM GAS  /var/folders/1y/_321xjh9623c014x9_qw12rr0000gn/T//ccE17DNe.s 			page 5


 129:Dubby.cpp     ****     } 
 130:Dubby.cpp     **** 
 131:Dubby.cpp     ****     switch(menuItemSelected) 
 132:Dubby.cpp     ****     {
 133:Dubby.cpp     ****         case MENU1:
 134:Dubby.cpp     ****             RenderScope();
 135:Dubby.cpp     ****             break;
 136:Dubby.cpp     ****         case MENU2:
 137:Dubby.cpp     ****             UpdateMixerPane();
 138:Dubby.cpp     ****             break;
 139:Dubby.cpp     ****         case MENU3:
 140:Dubby.cpp     ****             if (encoder.Pressed() && preferencesMenuItemSelected == OPTION4) ResetToBootloader();
 141:Dubby.cpp     ****             if (encoder.Increment() && !menuActive) UpdatePreferencesMenu(encoder.Increment());
 142:Dubby.cpp     ****             break;
 143:Dubby.cpp     ****         default:
 144:Dubby.cpp     ****             break;
 145:Dubby.cpp     ****     }
 146:Dubby.cpp     ****     
 147:Dubby.cpp     ****     if (encoder.TimeHeldMs() < 300 && menuActive)
 148:Dubby.cpp     ****     {
 149:Dubby.cpp     ****         menuActive = false;
 150:Dubby.cpp     ****         
 151:Dubby.cpp     ****         ReleaseMenu();
 152:Dubby.cpp     ****         UpdateSubmenu();
 153:Dubby.cpp     ****     }
 154:Dubby.cpp     **** }
 155:Dubby.cpp     **** 
 156:Dubby.cpp     **** void Dubby::DrawLogo() 
 157:Dubby.cpp     **** {
 158:Dubby.cpp     ****     DrawBitmap(0);   
 159:Dubby.cpp     **** }
 160:Dubby.cpp     **** 
 161:Dubby.cpp     **** void Dubby::DrawBitmap(int bitmapIndex)
 162:Dubby.cpp     **** {
 163:Dubby.cpp     ****     display.Fill(false);
 164:Dubby.cpp     ****     display.SetCursor(30, 30);
 165:Dubby.cpp     ****     
 166:Dubby.cpp     ****     for (int x = 0; x < OLED_WIDTH; x += 8) {
 167:Dubby.cpp     ****         for (int y = 0; y < OLED_HEIGHT; y++) {
 168:Dubby.cpp     ****             // Calculate the index in the array
 169:Dubby.cpp     ****             int byteIndex = (y * OLED_WIDTH + x) / 8;
 170:Dubby.cpp     **** 
 171:Dubby.cpp     ****             // Get the byte containing 8 pixels
 172:Dubby.cpp     ****             char byte = bitmaps[bitmapIndex][byteIndex];
 173:Dubby.cpp     **** 
 174:Dubby.cpp     ****             // Process 8 pixels in the byte
 175:Dubby.cpp     ****             for (int bitIndex = 0; bitIndex < 8; bitIndex++) {
 176:Dubby.cpp     **** 
 177:Dubby.cpp     ****                 // Get the pixel value (0 or 1)
 178:Dubby.cpp     ****                 char pixel = (byte >> (7 - bitIndex)) & 0x01;
 179:Dubby.cpp     **** 
 180:Dubby.cpp     ****                 bool isWhite = (pixel == 1);
 181:Dubby.cpp     **** 
 182:Dubby.cpp     ****                 display.DrawPixel(x + bitIndex, y, isWhite);
 183:Dubby.cpp     ****             }
 184:Dubby.cpp     **** 
 185:Dubby.cpp     ****             if (y % 6 == 0) display.Update();
ARM GAS  /var/folders/1y/_321xjh9623c014x9_qw12rr0000gn/T//ccE17DNe.s 			page 6


 186:Dubby.cpp     ****         }
 187:Dubby.cpp     ****     }
 188:Dubby.cpp     **** }
 189:Dubby.cpp     **** 
 190:Dubby.cpp     **** void Dubby::UpdateMenu(int increment, bool higlight) 
 191:Dubby.cpp     **** {
 192:Dubby.cpp     ****     // if ((menuItemSelected >= 0 && increment == 1 && menuItemSelected < 2) || (increment != 1 && 
 193:Dubby.cpp     ****     // {
 194:Dubby.cpp     ****         int mItemSelected = menuItemSelected;
 195:Dubby.cpp     ****         if ((int)menuItemSelected + increment >= 3) mItemSelected = 0;
 196:Dubby.cpp     ****         else if ((int)menuItemSelected + increment < 0) mItemSelected = 3;
 197:Dubby.cpp     ****         else mItemSelected += increment;
 198:Dubby.cpp     **** 
 199:Dubby.cpp     ****         menuItemSelected = (MenuItems)(mItemSelected);
 200:Dubby.cpp     ****     // }
 201:Dubby.cpp     **** 
 202:Dubby.cpp     ****     display.Fill(false);
 203:Dubby.cpp     **** 
 204:Dubby.cpp     ****     if (higlight) HightlightMenuItem();
 205:Dubby.cpp     ****     else ReleaseMenu();
 206:Dubby.cpp     ****     
 207:Dubby.cpp     ****     UpdateSubmenu();
 208:Dubby.cpp     **** 
 209:Dubby.cpp     ****     display.Update();
 210:Dubby.cpp     **** }
 211:Dubby.cpp     **** 
 212:Dubby.cpp     **** void Dubby::HightlightMenuItem() 
 213:Dubby.cpp     **** {
 214:Dubby.cpp     ****     // display.DrawRect(menuBoxBounding[menuItemSelected][0], menuBoxBounding[menuItemSelected][1],
 215:Dubby.cpp     ****     display.DrawRect(menuBoxBounding[0][0], menuBoxBounding[0][1], menuBoxBounding[0][2], menuBoxBo
 216:Dubby.cpp     **** 
 217:Dubby.cpp     ****     for (int i = 0; i < 3; i++) 
 218:Dubby.cpp     ****     {
 219:Dubby.cpp     ****         display.SetCursor(menuTextCursors[i][0], menuTextCursors[i][1]);
 220:Dubby.cpp     ****         int currentText = menuItemSelected + i < 3 ? menuItemSelected + i : (menuItemSelected + i) 
 221:Dubby.cpp     ****         
 222:Dubby.cpp     ****          display.WriteString(GetTextForEnum(MAINMENU, currentText), Font_6x8, f_truncate/*, i == me
 223:Dubby.cpp     ****     }
 224:Dubby.cpp     **** 
 225:Dubby.cpp     ****     display.DrawRect(PANE_X_START - 1, PANE_Y_START - 1, PANE_X_END + 1, PANE_Y_END + 1, true);
 226:Dubby.cpp     **** 
 227:Dubby.cpp     ****     display.Update();
 228:Dubby.cpp     **** }
 229:Dubby.cpp     **** 
 230:Dubby.cpp     **** void Dubby::ReleaseMenu() 
 231:Dubby.cpp     **** {        
 232:Dubby.cpp     ****     display.Fill(false);
 233:Dubby.cpp     ****     //display.DrawRect(menuBoxBounding[menuItemSelected][0], menuBoxBounding[menuItemSelected][1], 
 234:Dubby.cpp     **** 
 235:Dubby.cpp     ****     // for (int i = 0; i < MENU_LAST; i++) 
 236:Dubby.cpp     ****     // {
 237:Dubby.cpp     ****         display.SetCursor(menuTextCursors[0][0], menuTextCursors[0][1]);
 238:Dubby.cpp     ****         display.WriteString(GetTextForEnum(MAINMENU, menuItemSelected), Font_6x8, true);
 239:Dubby.cpp     ****     // }
 240:Dubby.cpp     **** 
 241:Dubby.cpp     ****     display.Update();
 242:Dubby.cpp     **** }
ARM GAS  /var/folders/1y/_321xjh9623c014x9_qw12rr0000gn/T//ccE17DNe.s 			page 7


 243:Dubby.cpp     **** 
 244:Dubby.cpp     **** void Dubby::UpdateMixerPane() 
 245:Dubby.cpp     **** {
 246:Dubby.cpp     ****     if(seed.system.GetNow() - screen_update_last_ > screen_update_period_)
 247:Dubby.cpp     ****     {
 248:Dubby.cpp     ****         screen_update_last_ = seed.system.GetNow();
 249:Dubby.cpp     ****         for (int i = 0; i < 4; i++) UpdateBar(i);
 250:Dubby.cpp     ****     }
 251:Dubby.cpp     **** }
 252:Dubby.cpp     **** 
 253:Dubby.cpp     **** void Dubby::UpdateSubmenu()
 254:Dubby.cpp     **** {
 255:Dubby.cpp     ****     switch(menuItemSelected) 
 256:Dubby.cpp     ****     {
 257:Dubby.cpp     ****         case MENU1:
 258:Dubby.cpp     ****             RenderScope();
 259:Dubby.cpp     ****             break;
 260:Dubby.cpp     ****         case MENU2:
 261:Dubby.cpp     ****             // for (int i = 0; i < 4; i++) UpdateBar(i);
 262:Dubby.cpp     ****             break;
 263:Dubby.cpp     ****         case MENU3:
 264:Dubby.cpp     ****             DisplayPreferencesMenu();
 265:Dubby.cpp     ****             break;
 266:Dubby.cpp     ****         default:
 267:Dubby.cpp     ****             break;
 268:Dubby.cpp     ****     }
 269:Dubby.cpp     **** 
 270:Dubby.cpp     ****     display.Update();
 271:Dubby.cpp     **** }
 272:Dubby.cpp     **** 
 273:Dubby.cpp     **** void Dubby::UpdateBar(int i) 
 274:Dubby.cpp     **** {
 275:Dubby.cpp     ****     display.DrawRect((i * 32)  + margin, 1, ((i + 1) * 31) - margin, 51, false, true);
 276:Dubby.cpp     ****     display.DrawRect((i * 32)  + margin, int(abs(1.0f - GetKnobValue(static_cast<Dubby::Ctrl>(i))) 
 277:Dubby.cpp     ****     display.DrawRect((i * 32)  + margin, int(abs((currentLevels[i] * 5.0f) - 1.0f) * 51.0f) + 1, ((
 278:Dubby.cpp     ****     
 279:Dubby.cpp     ****     display.Update();
 280:Dubby.cpp     **** }
 281:Dubby.cpp     **** 
 282:Dubby.cpp     **** void Dubby::RenderScope()
  78              		.loc 2 282 6 is_stmt 1 view -0
  79              		.cfi_startproc
  80              		@ args = 0, pretend = 0, frame = 32
  81              		@ frame_needed = 0, uses_anonymous_args = 0
  82              	.LBB280:
 283:Dubby.cpp     **** {
 284:Dubby.cpp     ****     if(seed.system.GetNow() - screen_update_last_ > screen_update_period_)
 285:Dubby.cpp     ****     {
 286:Dubby.cpp     ****         screen_update_last_ = seed.system.GetNow();
  83              		.loc 2 286 9 view .LVU7
  84              	.LBE280:
 282:Dubby.cpp     **** {
  85              		.loc 2 282 6 is_stmt 0 view .LVU8
  86 0000 2DE9F04F 		push	{r4, r5, r6, r7, r8, r9, r10, fp, lr}
  87              		.cfi_def_cfa_offset 36
  88              		.cfi_offset 4, -36
  89              		.cfi_offset 5, -32
ARM GAS  /var/folders/1y/_321xjh9623c014x9_qw12rr0000gn/T//ccE17DNe.s 			page 8


  90              		.cfi_offset 6, -28
  91              		.cfi_offset 7, -24
  92              		.cfi_offset 8, -20
  93              		.cfi_offset 9, -16
  94              		.cfi_offset 10, -12
  95              		.cfi_offset 11, -8
  96              		.cfi_offset 14, -4
  97 0004 8246     		mov	r10, r0
  98 0006 89B0     		sub	sp, sp, #36
  99              		.cfi_def_cfa_offset 72
 100              	.LBB357:
 101              		.loc 2 286 49 view .LVU9
 102 0008 FFF7FEFF 		bl	_ZN5daisy6System6GetNowEv
 103              	.LVL5:
 104              	.LBB281:
 105              	.LBB282:
 106              	.LBB283:
 107              		.file 3 "../../libDaisy//src/hid/disp/display.h"
   1:../../libDaisy//src/hid/disp/display.h **** #pragma once
   2:../../libDaisy//src/hid/disp/display.h **** #ifndef DSY_DISPLAY_H
   3:../../libDaisy//src/hid/disp/display.h **** #define DSY_DISPLAY_H /**< Macro */
   4:../../libDaisy//src/hid/disp/display.h **** #include <cmath>
   5:../../libDaisy//src/hid/disp/display.h **** #include "util/oled_fonts.h"
   6:../../libDaisy//src/hid/disp/display.h **** #include "daisy_core.h"
   7:../../libDaisy//src/hid/disp/display.h **** #include "graphics_common.h"
   8:../../libDaisy//src/hid/disp/display.h **** 
   9:../../libDaisy//src/hid/disp/display.h **** #ifndef deg2rad
  10:../../libDaisy//src/hid/disp/display.h **** #define deg2rad(deg) ((deg)*3.141592 / 180.0)
  11:../../libDaisy//src/hid/disp/display.h **** #endif
  12:../../libDaisy//src/hid/disp/display.h **** 
  13:../../libDaisy//src/hid/disp/display.h **** namespace daisy
  14:../../libDaisy//src/hid/disp/display.h **** {
  15:../../libDaisy//src/hid/disp/display.h **** /** 
  16:../../libDaisy//src/hid/disp/display.h ****  * This interface is used as a base class for all types of 1bit-per-pixel
  17:../../libDaisy//src/hid/disp/display.h ****  * graphics displays.
  18:../../libDaisy//src/hid/disp/display.h **** */
  19:../../libDaisy//src/hid/disp/display.h **** class OneBitGraphicsDisplay
  20:../../libDaisy//src/hid/disp/display.h **** {
  21:../../libDaisy//src/hid/disp/display.h ****   public:
  22:../../libDaisy//src/hid/disp/display.h ****     OneBitGraphicsDisplay() {}
  23:../../libDaisy//src/hid/disp/display.h ****     virtual ~OneBitGraphicsDisplay() {}
  24:../../libDaisy//src/hid/disp/display.h **** 
  25:../../libDaisy//src/hid/disp/display.h ****     virtual uint16_t Height() const = 0;
  26:../../libDaisy//src/hid/disp/display.h ****     virtual uint16_t Width() const  = 0;
  27:../../libDaisy//src/hid/disp/display.h **** 
  28:../../libDaisy//src/hid/disp/display.h ****     Rectangle GetBounds() const
  29:../../libDaisy//src/hid/disp/display.h ****     {
  30:../../libDaisy//src/hid/disp/display.h ****         return Rectangle(int16_t(Width()), int16_t(Height()));
  31:../../libDaisy//src/hid/disp/display.h ****     }
  32:../../libDaisy//src/hid/disp/display.h **** 
  33:../../libDaisy//src/hid/disp/display.h **** 
  34:../../libDaisy//src/hid/disp/display.h ****     size_t CurrentX() { return currentX_; };
  35:../../libDaisy//src/hid/disp/display.h ****     size_t CurrentY() { return currentY_; };
  36:../../libDaisy//src/hid/disp/display.h **** 
  37:../../libDaisy//src/hid/disp/display.h ****     /** 
  38:../../libDaisy//src/hid/disp/display.h ****     Fills the entire display with either on/off.
  39:../../libDaisy//src/hid/disp/display.h ****     \param on Sets on or off.
ARM GAS  /var/folders/1y/_321xjh9623c014x9_qw12rr0000gn/T//ccE17DNe.s 			page 9


  40:../../libDaisy//src/hid/disp/display.h ****     */
  41:../../libDaisy//src/hid/disp/display.h ****     virtual void Fill(bool on) = 0;
  42:../../libDaisy//src/hid/disp/display.h **** 
  43:../../libDaisy//src/hid/disp/display.h ****     /**
  44:../../libDaisy//src/hid/disp/display.h ****     Sets the pixel at the specified coordinate to be on/off.
  45:../../libDaisy//src/hid/disp/display.h ****     \param x   x Coordinate
  46:../../libDaisy//src/hid/disp/display.h ****     \param y   y coordinate
  47:../../libDaisy//src/hid/disp/display.h ****     \param on  on or off
  48:../../libDaisy//src/hid/disp/display.h ****     */
  49:../../libDaisy//src/hid/disp/display.h ****     virtual void DrawPixel(uint_fast8_t x, uint_fast8_t y, bool on) = 0;
  50:../../libDaisy//src/hid/disp/display.h **** 
  51:../../libDaisy//src/hid/disp/display.h ****     /**
  52:../../libDaisy//src/hid/disp/display.h ****     Draws a line from (x1, y1) to (y1, y2)
  53:../../libDaisy//src/hid/disp/display.h ****     \param x1  x Coordinate of the starting point
  54:../../libDaisy//src/hid/disp/display.h ****     \param y1  y Coordinate of the starting point
  55:../../libDaisy//src/hid/disp/display.h ****     \param x2  x Coordinate of the ending point
  56:../../libDaisy//src/hid/disp/display.h ****     \param y2  y Coordinate of the ending point
  57:../../libDaisy//src/hid/disp/display.h ****     \param on  on or off
  58:../../libDaisy//src/hid/disp/display.h ****     */
  59:../../libDaisy//src/hid/disp/display.h ****     virtual void DrawLine(uint_fast8_t x1,
  60:../../libDaisy//src/hid/disp/display.h ****                           uint_fast8_t y1,
  61:../../libDaisy//src/hid/disp/display.h ****                           uint_fast8_t x2,
  62:../../libDaisy//src/hid/disp/display.h ****                           uint_fast8_t y2,
  63:../../libDaisy//src/hid/disp/display.h ****                           bool         on)
  64:../../libDaisy//src/hid/disp/display.h ****         = 0;
  65:../../libDaisy//src/hid/disp/display.h **** 
  66:../../libDaisy//src/hid/disp/display.h ****     /**
  67:../../libDaisy//src/hid/disp/display.h ****     Draws a rectangle based on two coordinates.
  68:../../libDaisy//src/hid/disp/display.h ****     \param x1 x Coordinate of the first point
  69:../../libDaisy//src/hid/disp/display.h ****     \param y1 y Coordinate of the first point
  70:../../libDaisy//src/hid/disp/display.h ****     \param x2 x Coordinate of the second point
  71:../../libDaisy//src/hid/disp/display.h ****     \param y2 y Coordinate of the second point
  72:../../libDaisy//src/hid/disp/display.h ****     \param on on or off
  73:../../libDaisy//src/hid/disp/display.h ****     \param fill fill the rectangle or draw only the outline
  74:../../libDaisy//src/hid/disp/display.h ****     */
  75:../../libDaisy//src/hid/disp/display.h ****     virtual void DrawRect(uint_fast8_t x1,
  76:../../libDaisy//src/hid/disp/display.h ****                           uint_fast8_t y1,
  77:../../libDaisy//src/hid/disp/display.h ****                           uint_fast8_t x2,
  78:../../libDaisy//src/hid/disp/display.h ****                           uint_fast8_t y2,
  79:../../libDaisy//src/hid/disp/display.h ****                           bool         on,
  80:../../libDaisy//src/hid/disp/display.h ****                           bool         fill = false)
  81:../../libDaisy//src/hid/disp/display.h ****         = 0;
  82:../../libDaisy//src/hid/disp/display.h **** 
  83:../../libDaisy//src/hid/disp/display.h ****     /**
  84:../../libDaisy//src/hid/disp/display.h ****     Draws a rectangle.
  85:../../libDaisy//src/hid/disp/display.h ****     \param rect the rectangle
  86:../../libDaisy//src/hid/disp/display.h ****     \param on   on or off
  87:../../libDaisy//src/hid/disp/display.h ****     \param fill fill the rectangle or draw only the outline
  88:../../libDaisy//src/hid/disp/display.h ****     */
  89:../../libDaisy//src/hid/disp/display.h ****     void DrawRect(const Rectangle& rect, bool on, bool fill = false)
  90:../../libDaisy//src/hid/disp/display.h ****     {
  91:../../libDaisy//src/hid/disp/display.h ****         DrawRect(rect.GetX(),
  92:../../libDaisy//src/hid/disp/display.h ****                  rect.GetY(),
  93:../../libDaisy//src/hid/disp/display.h ****                  rect.GetRight(),
  94:../../libDaisy//src/hid/disp/display.h ****                  rect.GetBottom(),
  95:../../libDaisy//src/hid/disp/display.h ****                  on,
  96:../../libDaisy//src/hid/disp/display.h ****                  fill);
ARM GAS  /var/folders/1y/_321xjh9623c014x9_qw12rr0000gn/T//ccE17DNe.s 			page 10


  97:../../libDaisy//src/hid/disp/display.h ****     }
  98:../../libDaisy//src/hid/disp/display.h **** 
  99:../../libDaisy//src/hid/disp/display.h ****     /**
 100:../../libDaisy//src/hid/disp/display.h ****     Draws an arc around the specified coordinate
 101:../../libDaisy//src/hid/disp/display.h ****     \param x           x Coordinate of the center of the arc
 102:../../libDaisy//src/hid/disp/display.h ****     \param y           y Coordinate of the center of the arc
 103:../../libDaisy//src/hid/disp/display.h ****     \param radius      radius of the arc
 104:../../libDaisy//src/hid/disp/display.h ****     \param start_angle angle where to start the arc
 105:../../libDaisy//src/hid/disp/display.h ****     \param sweep       total angle of the arc
 106:../../libDaisy//src/hid/disp/display.h ****     \param on  on or off
 107:../../libDaisy//src/hid/disp/display.h ****     */
 108:../../libDaisy//src/hid/disp/display.h ****     virtual void DrawArc(uint_fast8_t x,
 109:../../libDaisy//src/hid/disp/display.h ****                          uint_fast8_t y,
 110:../../libDaisy//src/hid/disp/display.h ****                          uint_fast8_t radius,
 111:../../libDaisy//src/hid/disp/display.h ****                          int_fast16_t start_angle,
 112:../../libDaisy//src/hid/disp/display.h ****                          int_fast16_t sweep,
 113:../../libDaisy//src/hid/disp/display.h ****                          bool         on)
 114:../../libDaisy//src/hid/disp/display.h ****         = 0;
 115:../../libDaisy//src/hid/disp/display.h **** 
 116:../../libDaisy//src/hid/disp/display.h ****     /**
 117:../../libDaisy//src/hid/disp/display.h ****     Draws a circle around the specified coordinate
 118:../../libDaisy//src/hid/disp/display.h ****     \param x           x Coordinate of the center of the circle
 119:../../libDaisy//src/hid/disp/display.h ****     \param y           y Coordinate of the center of the circle
 120:../../libDaisy//src/hid/disp/display.h ****     \param radius      radius of the circle
 121:../../libDaisy//src/hid/disp/display.h ****     \param on  on or off
 122:../../libDaisy//src/hid/disp/display.h ****     */
 123:../../libDaisy//src/hid/disp/display.h ****     void
 124:../../libDaisy//src/hid/disp/display.h ****     DrawCircle(uint_fast8_t x, uint_fast8_t y, uint_fast8_t radius, bool on)
 125:../../libDaisy//src/hid/disp/display.h ****     {
 126:../../libDaisy//src/hid/disp/display.h ****         DrawArc(x, y, radius, 0, 360, on);
 127:../../libDaisy//src/hid/disp/display.h ****     };
 128:../../libDaisy//src/hid/disp/display.h **** 
 129:../../libDaisy//src/hid/disp/display.h ****     /** 
 130:../../libDaisy//src/hid/disp/display.h ****     Writes the character with the specific FontDef
 131:../../libDaisy//src/hid/disp/display.h ****     to the display buffer at the current Cursor position.
 132:../../libDaisy//src/hid/disp/display.h ****     \param ch character to be written
 133:../../libDaisy//src/hid/disp/display.h ****     \param font font to be written in
 134:../../libDaisy//src/hid/disp/display.h ****     \param on    on or off
 135:../../libDaisy//src/hid/disp/display.h ****     \return &
 136:../../libDaisy//src/hid/disp/display.h ****     */
 137:../../libDaisy//src/hid/disp/display.h ****     virtual char WriteChar(char ch, FontDef font, bool on) = 0;
 138:../../libDaisy//src/hid/disp/display.h **** 
 139:../../libDaisy//src/hid/disp/display.h ****     /** 
 140:../../libDaisy//src/hid/disp/display.h ****     Similar to WriteChar, except it will handle an entire String.
 141:../../libDaisy//src/hid/disp/display.h ****     Wrapping does not happen automatically, so the width
 142:../../libDaisy//src/hid/disp/display.h ****     of the string must be kept within the dimensions of the screen.
 143:../../libDaisy//src/hid/disp/display.h ****     \param str string to be written
 144:../../libDaisy//src/hid/disp/display.h ****     \param font font to use
 145:../../libDaisy//src/hid/disp/display.h ****     \param on  on or off
 146:../../libDaisy//src/hid/disp/display.h ****     \return &
 147:../../libDaisy//src/hid/disp/display.h ****     */
 148:../../libDaisy//src/hid/disp/display.h ****     virtual char WriteString(const char* str, FontDef font, bool on) = 0;
 149:../../libDaisy//src/hid/disp/display.h **** 
 150:../../libDaisy//src/hid/disp/display.h ****     /** 
 151:../../libDaisy//src/hid/disp/display.h ****     Similar to WriteString but justified within a bounding box.
 152:../../libDaisy//src/hid/disp/display.h ****     \param str          string to be written
 153:../../libDaisy//src/hid/disp/display.h ****     \param font         font to use
ARM GAS  /var/folders/1y/_321xjh9623c014x9_qw12rr0000gn/T//ccE17DNe.s 			page 11


 154:../../libDaisy//src/hid/disp/display.h ****     \param boundingBox  the bounding box to draw the text in
 155:../../libDaisy//src/hid/disp/display.h ****     \param alignment    the alignment to use
 156:../../libDaisy//src/hid/disp/display.h ****     \param on           on or off
 157:../../libDaisy//src/hid/disp/display.h ****     \return The rectangle that was drawn to
 158:../../libDaisy//src/hid/disp/display.h ****     */
 159:../../libDaisy//src/hid/disp/display.h ****     virtual Rectangle WriteStringAligned(const char*    str,
 160:../../libDaisy//src/hid/disp/display.h ****                                          const FontDef& font,
 161:../../libDaisy//src/hid/disp/display.h ****                                          Rectangle      boundingBox,
 162:../../libDaisy//src/hid/disp/display.h ****                                          Alignment      alignment,
 163:../../libDaisy//src/hid/disp/display.h ****                                          bool           on)
 164:../../libDaisy//src/hid/disp/display.h ****         = 0;
 165:../../libDaisy//src/hid/disp/display.h **** 
 166:../../libDaisy//src/hid/disp/display.h ****     /** 
 167:../../libDaisy//src/hid/disp/display.h ****     Moves the 'Cursor' position used for WriteChar, and WriteStr to the specified coordinate.
 168:../../libDaisy//src/hid/disp/display.h ****     \param x x pos
 169:../../libDaisy//src/hid/disp/display.h ****     \param y y pos
 170:../../libDaisy//src/hid/disp/display.h ****     */
 171:../../libDaisy//src/hid/disp/display.h ****     void SetCursor(uint16_t x, uint16_t y)
 172:../../libDaisy//src/hid/disp/display.h ****     {
 173:../../libDaisy//src/hid/disp/display.h ****         currentX_ = (x >= Width()) ? Width() - 1 : x;
 174:../../libDaisy//src/hid/disp/display.h ****         currentY_ = (y >= Height()) ? Height() - 1 : y;
 175:../../libDaisy//src/hid/disp/display.h ****     }
 176:../../libDaisy//src/hid/disp/display.h **** 
 177:../../libDaisy//src/hid/disp/display.h ****     /** 
 178:../../libDaisy//src/hid/disp/display.h ****     Writes the current display buffer to the OLED device using SPI or I2C depending on 
 179:../../libDaisy//src/hid/disp/display.h ****     how the object was initialized.
 180:../../libDaisy//src/hid/disp/display.h ****     */
 181:../../libDaisy//src/hid/disp/display.h ****     virtual void Update() = 0;
 182:../../libDaisy//src/hid/disp/display.h **** 
 183:../../libDaisy//src/hid/disp/display.h ****   protected:
 184:../../libDaisy//src/hid/disp/display.h ****     uint16_t currentX_;
 185:../../libDaisy//src/hid/disp/display.h ****     uint16_t currentY_;
 186:../../libDaisy//src/hid/disp/display.h **** };
 187:../../libDaisy//src/hid/disp/display.h **** 
 188:../../libDaisy//src/hid/disp/display.h **** /** This class is intended as a intermediary class for your actual implementation of the OneBitGrap
 189:../../libDaisy//src/hid/disp/display.h ****  *  interface. It uses the CRTP design pattern where the template argument is the child class. It p
 190:../../libDaisy//src/hid/disp/display.h ****  *  implementations for most of the functions, except DrawPixel(), Update() and Fill(), which you'l
 191:../../libDaisy//src/hid/disp/display.h ****  *  to provide in your child class.
 192:../../libDaisy//src/hid/disp/display.h ****  *  The main goal of this class is to provide common drawing functions without relying on massive a
 193:../../libDaisy//src/hid/disp/display.h ****  *  virtual function calls that would result in a performance loss. To achieve this, any drawing fu
 194:../../libDaisy//src/hid/disp/display.h ****  *  is implemented here and internally calls other drawing functions (e.g. DrawRect() which interna
 195:../../libDaisy//src/hid/disp/display.h ****  *  DrawPixel() and DrawLine()) makes these calls via the qualified name of these functions to expl
 196:../../libDaisy//src/hid/disp/display.h ****  *  suppress the virtual dispatch mechanism like this:
 197:../../libDaisy//src/hid/disp/display.h ****  * 
 198:../../libDaisy//src/hid/disp/display.h ****  *      ChildType::DrawPixel(...); // no virtual function call; direct call into the child class fu
 199:../../libDaisy//src/hid/disp/display.h ****  *  
 200:../../libDaisy//src/hid/disp/display.h ****  *  To create a custom OneBitGraphicsDisplay implementation, you can 
 201:../../libDaisy//src/hid/disp/display.h ****  *  A) inherit from OneBitGraphicsDisplay directly and provide all the drawing functions yourself
 202:../../libDaisy//src/hid/disp/display.h ****  *  B) Inherit from OneBitGraphicsDisplayImpl and only provide DrawPixel(), Fill() and Update()
 203:../../libDaisy//src/hid/disp/display.h ****  *     like this:
 204:../../libDaisy//src/hid/disp/display.h ****  *  
 205:../../libDaisy//src/hid/disp/display.h ****  *      class MyDisplayClass : public OneBitGraphicsDisplayImpl<MyDisplayClass> 
 206:../../libDaisy//src/hid/disp/display.h ****  *      {
 207:../../libDaisy//src/hid/disp/display.h ****  *      public:
 208:../../libDaisy//src/hid/disp/display.h ****  *          void Fill() override { ... };
 209:../../libDaisy//src/hid/disp/display.h ****  *          void DrawPixel(uint_fast8_t x, uint_fast8_t y, bool on) override { ... };
 210:../../libDaisy//src/hid/disp/display.h ****  *          void Update() override { ... }
ARM GAS  /var/folders/1y/_321xjh9623c014x9_qw12rr0000gn/T//ccE17DNe.s 			page 12


 211:../../libDaisy//src/hid/disp/display.h ****  *      };
 212:../../libDaisy//src/hid/disp/display.h ****  *  
 213:../../libDaisy//src/hid/disp/display.h ****  */
 214:../../libDaisy//src/hid/disp/display.h **** template <class ChildType>
 215:../../libDaisy//src/hid/disp/display.h **** class OneBitGraphicsDisplayImpl : public OneBitGraphicsDisplay
 216:../../libDaisy//src/hid/disp/display.h **** {
 217:../../libDaisy//src/hid/disp/display.h ****   public:
 218:../../libDaisy//src/hid/disp/display.h ****     OneBitGraphicsDisplayImpl() {}
 219:../../libDaisy//src/hid/disp/display.h ****     virtual ~OneBitGraphicsDisplayImpl() {}
 220:../../libDaisy//src/hid/disp/display.h **** 
 221:../../libDaisy//src/hid/disp/display.h ****     void DrawLine(uint_fast8_t x1,
 222:../../libDaisy//src/hid/disp/display.h ****                   uint_fast8_t y1,
 223:../../libDaisy//src/hid/disp/display.h ****                   uint_fast8_t x2,
 224:../../libDaisy//src/hid/disp/display.h ****                   uint_fast8_t y2,
 225:../../libDaisy//src/hid/disp/display.h ****                   bool         on) override
 226:../../libDaisy//src/hid/disp/display.h ****     {
 227:../../libDaisy//src/hid/disp/display.h ****         int_fast16_t deltaX = abs((int_fast16_t)x2 - (int_fast16_t)x1);
 228:../../libDaisy//src/hid/disp/display.h ****         int_fast16_t deltaY = abs((int_fast16_t)y2 - (int_fast16_t)y1);
 229:../../libDaisy//src/hid/disp/display.h ****         int_fast16_t signX  = ((x1 < x2) ? 1 : -1);
 230:../../libDaisy//src/hid/disp/display.h ****         int_fast16_t signY  = ((y1 < y2) ? 1 : -1);
 231:../../libDaisy//src/hid/disp/display.h ****         int_fast16_t error  = deltaX - deltaY;
 232:../../libDaisy//src/hid/disp/display.h ****         int_fast16_t error2;
 233:../../libDaisy//src/hid/disp/display.h **** 
 234:../../libDaisy//src/hid/disp/display.h ****         // If we write "ChildType::DrawPixel(x2, y2, on);", we end up with
 235:../../libDaisy//src/hid/disp/display.h ****         // all sorts of weird compiler errors when the Child class is a template
 236:../../libDaisy//src/hid/disp/display.h ****         // class. The only way around this is to use this very verbose syntax:
 237:../../libDaisy//src/hid/disp/display.h ****         ((ChildType*)(this))->ChildType::DrawPixel(x2, y2, on);
 238:../../libDaisy//src/hid/disp/display.h **** 
 239:../../libDaisy//src/hid/disp/display.h ****         while((x1 != x2) || (y1 != y2))
 240:../../libDaisy//src/hid/disp/display.h ****         {
 241:../../libDaisy//src/hid/disp/display.h ****             ((ChildType*)(this))->ChildType::DrawPixel(x1, y1, on);
 242:../../libDaisy//src/hid/disp/display.h ****             error2 = error * 2;
 243:../../libDaisy//src/hid/disp/display.h ****             if(error2 > -deltaY)
 244:../../libDaisy//src/hid/disp/display.h ****             {
 245:../../libDaisy//src/hid/disp/display.h ****                 error -= deltaY;
 246:../../libDaisy//src/hid/disp/display.h ****                 x1 += signX;
 247:../../libDaisy//src/hid/disp/display.h ****             }
 248:../../libDaisy//src/hid/disp/display.h **** 
 249:../../libDaisy//src/hid/disp/display.h ****             if(error2 < deltaX)
 250:../../libDaisy//src/hid/disp/display.h ****             {
 251:../../libDaisy//src/hid/disp/display.h ****                 error += deltaX;
 252:../../libDaisy//src/hid/disp/display.h ****                 y1 += signY;
 253:../../libDaisy//src/hid/disp/display.h ****             }
 254:../../libDaisy//src/hid/disp/display.h ****         }
 255:../../libDaisy//src/hid/disp/display.h ****     }
 256:../../libDaisy//src/hid/disp/display.h **** 
 257:../../libDaisy//src/hid/disp/display.h ****     void DrawRect(uint_fast8_t x1,
 258:../../libDaisy//src/hid/disp/display.h ****                   uint_fast8_t y1,
 259:../../libDaisy//src/hid/disp/display.h ****                   uint_fast8_t x2,
 260:../../libDaisy//src/hid/disp/display.h ****                   uint_fast8_t y2,
 261:../../libDaisy//src/hid/disp/display.h ****                   bool         on,
 262:../../libDaisy//src/hid/disp/display.h ****                   bool         fill = false) override
 263:../../libDaisy//src/hid/disp/display.h ****     {
 264:../../libDaisy//src/hid/disp/display.h ****         if(fill)
 265:../../libDaisy//src/hid/disp/display.h ****         {
 266:../../libDaisy//src/hid/disp/display.h ****             for(uint_fast8_t x = x1; x <= x2; x++)
 108              		.loc 3 266 30 view .LVU10
ARM GAS  /var/folders/1y/_321xjh9623c014x9_qw12rr0000gn/T//ccE17DNe.s 			page 13


 109 000c 0125     		movs	r5, #1
 110              	.LBE283:
 111              	.LBE282:
 112              	.LBE281:
 113              		.loc 2 286 29 view .LVU11
 114 000e 0AF51043 		add	r3, r10, #36864
 115 0012 C3F8280A 		str	r0, [r3, #2600]
 287:Dubby.cpp     ****         display.DrawRect(PANE_X_START, PANE_Y_START, PANE_X_END, PANE_Y_END, false, true);
 116              		.loc 2 287 9 is_stmt 1 view .LVU12
 117              	.LVL6:
 118              	.LBB302:
 119              	.LBI281:
 257:../../libDaisy//src/hid/disp/display.h ****                   uint_fast8_t y1,
 120              		.loc 3 257 10 view .LVU13
 121              	.LBB300:
 122              	.LBI282:
 257:../../libDaisy//src/hid/disp/display.h ****                   uint_fast8_t y1,
 123              		.loc 3 257 10 view .LVU14
 124              	.LBB298:
 125              		.loc 3 266 40 view .LVU15
 126              	.L6:
 127              	.LBB284:
 267:../../libDaisy//src/hid/disp/display.h ****             {
 268:../../libDaisy//src/hid/disp/display.h ****                 for(uint_fast8_t y = y1; y <= y2; y++)
 128              		.loc 3 268 44 view .LVU16
 129              		.loc 3 268 34 is_stmt 0 view .LVU17
 130 0016 0122     		movs	r2, #1
 131              	.LVL7:
 132              	.L5:
 133              	.LBB285:
 134              	.LBI285:
  29:../../libDaisy//src/hid/disp/oled_display.h **** 
  30:../../libDaisy//src/hid/disp/oled_display.h ****     /** 
  31:../../libDaisy//src/hid/disp/oled_display.h ****     Fills the entire display with either on/off.
  32:../../libDaisy//src/hid/disp/oled_display.h ****     \param on Sets on or off.
  33:../../libDaisy//src/hid/disp/oled_display.h ****     */
  34:../../libDaisy//src/hid/disp/oled_display.h ****     void Fill(bool on) override { driver_.Fill(on); }
  35:../../libDaisy//src/hid/disp/oled_display.h **** 
  36:../../libDaisy//src/hid/disp/oled_display.h ****     /**
  37:../../libDaisy//src/hid/disp/oled_display.h ****     Sets the pixel at the specified coordinate to be on/off.
  38:../../libDaisy//src/hid/disp/oled_display.h ****     \param x   x Coordinate
  39:../../libDaisy//src/hid/disp/oled_display.h ****     \param y   y coordinate
  40:../../libDaisy//src/hid/disp/oled_display.h ****     \param on  on or off
  41:../../libDaisy//src/hid/disp/oled_display.h ****     */
  42:../../libDaisy//src/hid/disp/oled_display.h ****     void DrawPixel(uint_fast8_t x, uint_fast8_t y, bool on) override
 135              		.loc 1 42 10 is_stmt 1 view .LVU18
 136              	.LBB286:
 137              	.LBI286:
 138              		.file 4 "../../libDaisy//src/dev/oled_ssd130x.h"
   1:../../libDaisy//src/dev/oled_ssd130x.h **** #pragma once
   2:../../libDaisy//src/dev/oled_ssd130x.h **** #ifndef SA_OLED_SSD130X_H
   3:../../libDaisy//src/dev/oled_ssd130x.h **** #define SA_OLED_SSD130X_H /**< & */
   4:../../libDaisy//src/dev/oled_ssd130x.h **** 
   5:../../libDaisy//src/dev/oled_ssd130x.h **** #include "per/i2c.h"
   6:../../libDaisy//src/dev/oled_ssd130x.h **** #include "per/spi.h"
   7:../../libDaisy//src/dev/oled_ssd130x.h **** #include "per/gpio.h"
   8:../../libDaisy//src/dev/oled_ssd130x.h **** #include "sys/system.h"
ARM GAS  /var/folders/1y/_321xjh9623c014x9_qw12rr0000gn/T//ccE17DNe.s 			page 14


   9:../../libDaisy//src/dev/oled_ssd130x.h **** 
  10:../../libDaisy//src/dev/oled_ssd130x.h **** namespace daisy
  11:../../libDaisy//src/dev/oled_ssd130x.h **** {
  12:../../libDaisy//src/dev/oled_ssd130x.h **** /**
  13:../../libDaisy//src/dev/oled_ssd130x.h ****  * I2C Transport for SSD1306 / SSD1309 OLED display devices
  14:../../libDaisy//src/dev/oled_ssd130x.h ****  */
  15:../../libDaisy//src/dev/oled_ssd130x.h **** class SSD130xI2CTransport
  16:../../libDaisy//src/dev/oled_ssd130x.h **** {
  17:../../libDaisy//src/dev/oled_ssd130x.h ****   public:
  18:../../libDaisy//src/dev/oled_ssd130x.h ****     struct Config
  19:../../libDaisy//src/dev/oled_ssd130x.h ****     {
  20:../../libDaisy//src/dev/oled_ssd130x.h ****         Config()
  21:../../libDaisy//src/dev/oled_ssd130x.h ****         {
  22:../../libDaisy//src/dev/oled_ssd130x.h ****             // Intialize using defaults
  23:../../libDaisy//src/dev/oled_ssd130x.h ****             Defaults();
  24:../../libDaisy//src/dev/oled_ssd130x.h ****         }
  25:../../libDaisy//src/dev/oled_ssd130x.h ****         I2CHandle::Config i2c_config;
  26:../../libDaisy//src/dev/oled_ssd130x.h ****         uint8_t           i2c_address;
  27:../../libDaisy//src/dev/oled_ssd130x.h ****         void              Defaults()
  28:../../libDaisy//src/dev/oled_ssd130x.h ****         {
  29:../../libDaisy//src/dev/oled_ssd130x.h ****             i2c_config.periph         = I2CHandle::Config::Peripheral::I2C_1;
  30:../../libDaisy//src/dev/oled_ssd130x.h ****             i2c_config.speed          = I2CHandle::Config::Speed::I2C_1MHZ;
  31:../../libDaisy//src/dev/oled_ssd130x.h ****             i2c_config.mode           = I2CHandle::Config::Mode::I2C_MASTER;
  32:../../libDaisy//src/dev/oled_ssd130x.h ****             i2c_config.pin_config.scl = {DSY_GPIOB, 8};
  33:../../libDaisy//src/dev/oled_ssd130x.h ****             i2c_config.pin_config.sda = {DSY_GPIOB, 9};
  34:../../libDaisy//src/dev/oled_ssd130x.h ****             i2c_address               = 0x3C;
  35:../../libDaisy//src/dev/oled_ssd130x.h ****         }
  36:../../libDaisy//src/dev/oled_ssd130x.h ****     };
  37:../../libDaisy//src/dev/oled_ssd130x.h ****     void Init(const Config& config)
  38:../../libDaisy//src/dev/oled_ssd130x.h ****     {
  39:../../libDaisy//src/dev/oled_ssd130x.h ****         i2c_address_ = config.i2c_address;
  40:../../libDaisy//src/dev/oled_ssd130x.h ****         i2c_.Init(config.i2c_config);
  41:../../libDaisy//src/dev/oled_ssd130x.h ****     };
  42:../../libDaisy//src/dev/oled_ssd130x.h ****     void SendCommand(uint8_t cmd)
  43:../../libDaisy//src/dev/oled_ssd130x.h ****     {
  44:../../libDaisy//src/dev/oled_ssd130x.h ****         uint8_t buf[2] = {0X00, cmd};
  45:../../libDaisy//src/dev/oled_ssd130x.h ****         i2c_.TransmitBlocking(i2c_address_, buf, 2, 1000);
  46:../../libDaisy//src/dev/oled_ssd130x.h ****     };
  47:../../libDaisy//src/dev/oled_ssd130x.h **** 
  48:../../libDaisy//src/dev/oled_ssd130x.h ****     void SendData(uint8_t* buff, size_t size)
  49:../../libDaisy//src/dev/oled_ssd130x.h ****     {
  50:../../libDaisy//src/dev/oled_ssd130x.h ****         for(size_t i = 0; i < size; i++)
  51:../../libDaisy//src/dev/oled_ssd130x.h ****         {
  52:../../libDaisy//src/dev/oled_ssd130x.h ****             uint8_t buf[2] = {0X40, buff[i]};
  53:../../libDaisy//src/dev/oled_ssd130x.h ****             i2c_.TransmitBlocking(i2c_address_, buf, 2, 1000);
  54:../../libDaisy//src/dev/oled_ssd130x.h ****         }
  55:../../libDaisy//src/dev/oled_ssd130x.h ****     };
  56:../../libDaisy//src/dev/oled_ssd130x.h **** 
  57:../../libDaisy//src/dev/oled_ssd130x.h ****   private:
  58:../../libDaisy//src/dev/oled_ssd130x.h ****     daisy::I2CHandle i2c_;
  59:../../libDaisy//src/dev/oled_ssd130x.h ****     uint8_t          i2c_address_;
  60:../../libDaisy//src/dev/oled_ssd130x.h **** };
  61:../../libDaisy//src/dev/oled_ssd130x.h **** 
  62:../../libDaisy//src/dev/oled_ssd130x.h **** /**
  63:../../libDaisy//src/dev/oled_ssd130x.h ****  * 4 Wire SPI Transport for SSD1306 / SSD1309 OLED display devices
  64:../../libDaisy//src/dev/oled_ssd130x.h ****  */
  65:../../libDaisy//src/dev/oled_ssd130x.h **** class SSD130x4WireSpiTransport
ARM GAS  /var/folders/1y/_321xjh9623c014x9_qw12rr0000gn/T//ccE17DNe.s 			page 15


  66:../../libDaisy//src/dev/oled_ssd130x.h **** {
  67:../../libDaisy//src/dev/oled_ssd130x.h ****   public:
  68:../../libDaisy//src/dev/oled_ssd130x.h ****     struct Config
  69:../../libDaisy//src/dev/oled_ssd130x.h ****     {
  70:../../libDaisy//src/dev/oled_ssd130x.h ****         Config()
  71:../../libDaisy//src/dev/oled_ssd130x.h ****         {
  72:../../libDaisy//src/dev/oled_ssd130x.h ****             // Initialize using defaults
  73:../../libDaisy//src/dev/oled_ssd130x.h ****             Defaults();
  74:../../libDaisy//src/dev/oled_ssd130x.h ****         }
  75:../../libDaisy//src/dev/oled_ssd130x.h ****         SpiHandle::Config spi_config;
  76:../../libDaisy//src/dev/oled_ssd130x.h ****         struct
  77:../../libDaisy//src/dev/oled_ssd130x.h ****         {
  78:../../libDaisy//src/dev/oled_ssd130x.h ****             dsy_gpio_pin dc;    /**< & */
  79:../../libDaisy//src/dev/oled_ssd130x.h ****             dsy_gpio_pin reset; /**< & */
  80:../../libDaisy//src/dev/oled_ssd130x.h ****         } pin_config;
  81:../../libDaisy//src/dev/oled_ssd130x.h ****         void Defaults()
  82:../../libDaisy//src/dev/oled_ssd130x.h ****         {
  83:../../libDaisy//src/dev/oled_ssd130x.h ****             // SPI peripheral config
  84:../../libDaisy//src/dev/oled_ssd130x.h ****             spi_config.periph = SpiHandle::Config::Peripheral::SPI_1;
  85:../../libDaisy//src/dev/oled_ssd130x.h ****             spi_config.mode   = SpiHandle::Config::Mode::MASTER;
  86:../../libDaisy//src/dev/oled_ssd130x.h ****             spi_config.direction
  87:../../libDaisy//src/dev/oled_ssd130x.h ****                 = SpiHandle::Config::Direction::TWO_LINES_TX_ONLY;
  88:../../libDaisy//src/dev/oled_ssd130x.h ****             spi_config.datasize       = 8;
  89:../../libDaisy//src/dev/oled_ssd130x.h ****             spi_config.clock_polarity = SpiHandle::Config::ClockPolarity::LOW;
  90:../../libDaisy//src/dev/oled_ssd130x.h ****             spi_config.clock_phase    = SpiHandle::Config::ClockPhase::ONE_EDGE;
  91:../../libDaisy//src/dev/oled_ssd130x.h ****             spi_config.nss            = SpiHandle::Config::NSS::HARD_OUTPUT;
  92:../../libDaisy//src/dev/oled_ssd130x.h ****             spi_config.baud_prescaler = SpiHandle::Config::BaudPrescaler::PS_8;
  93:../../libDaisy//src/dev/oled_ssd130x.h ****             // SPI pin config
  94:../../libDaisy//src/dev/oled_ssd130x.h ****             spi_config.pin_config.sclk = {DSY_GPIOG, 11};
  95:../../libDaisy//src/dev/oled_ssd130x.h ****             spi_config.pin_config.miso = {DSY_GPIOX, 0};
  96:../../libDaisy//src/dev/oled_ssd130x.h ****             spi_config.pin_config.mosi = {DSY_GPIOB, 5};
  97:../../libDaisy//src/dev/oled_ssd130x.h ****             spi_config.pin_config.nss  = {DSY_GPIOG, 10};
  98:../../libDaisy//src/dev/oled_ssd130x.h ****             // SSD130x control pin config
  99:../../libDaisy//src/dev/oled_ssd130x.h ****             pin_config.dc    = {DSY_GPIOB, 4};
 100:../../libDaisy//src/dev/oled_ssd130x.h ****             pin_config.reset = {DSY_GPIOB, 15};
 101:../../libDaisy//src/dev/oled_ssd130x.h ****         }
 102:../../libDaisy//src/dev/oled_ssd130x.h ****     };
 103:../../libDaisy//src/dev/oled_ssd130x.h ****     void Init(const Config& config)
 104:../../libDaisy//src/dev/oled_ssd130x.h ****     {
 105:../../libDaisy//src/dev/oled_ssd130x.h ****         // Initialize both GPIO
 106:../../libDaisy//src/dev/oled_ssd130x.h ****         pin_dc_.mode = DSY_GPIO_MODE_OUTPUT_PP;
 107:../../libDaisy//src/dev/oled_ssd130x.h ****         pin_dc_.pin  = config.pin_config.dc;
 108:../../libDaisy//src/dev/oled_ssd130x.h ****         dsy_gpio_init(&pin_dc_);
 109:../../libDaisy//src/dev/oled_ssd130x.h ****         pin_reset_.mode = DSY_GPIO_MODE_OUTPUT_PP;
 110:../../libDaisy//src/dev/oled_ssd130x.h ****         pin_reset_.pin  = config.pin_config.reset;
 111:../../libDaisy//src/dev/oled_ssd130x.h ****         dsy_gpio_init(&pin_reset_);
 112:../../libDaisy//src/dev/oled_ssd130x.h **** 
 113:../../libDaisy//src/dev/oled_ssd130x.h ****         // Initialize SPI
 114:../../libDaisy//src/dev/oled_ssd130x.h ****         spi_.Init(config.spi_config);
 115:../../libDaisy//src/dev/oled_ssd130x.h **** 
 116:../../libDaisy//src/dev/oled_ssd130x.h ****         // Reset and Configure OLED.
 117:../../libDaisy//src/dev/oled_ssd130x.h ****         dsy_gpio_write(&pin_reset_, 0);
 118:../../libDaisy//src/dev/oled_ssd130x.h ****         System::Delay(10);
 119:../../libDaisy//src/dev/oled_ssd130x.h ****         dsy_gpio_write(&pin_reset_, 1);
 120:../../libDaisy//src/dev/oled_ssd130x.h ****         System::Delay(10);
 121:../../libDaisy//src/dev/oled_ssd130x.h ****     };
 122:../../libDaisy//src/dev/oled_ssd130x.h ****     void SendCommand(uint8_t cmd)
ARM GAS  /var/folders/1y/_321xjh9623c014x9_qw12rr0000gn/T//ccE17DNe.s 			page 16


 123:../../libDaisy//src/dev/oled_ssd130x.h ****     {
 124:../../libDaisy//src/dev/oled_ssd130x.h ****         dsy_gpio_write(&pin_dc_, 0);
 125:../../libDaisy//src/dev/oled_ssd130x.h ****         spi_.BlockingTransmit(&cmd, 1);
 126:../../libDaisy//src/dev/oled_ssd130x.h ****     };
 127:../../libDaisy//src/dev/oled_ssd130x.h **** 
 128:../../libDaisy//src/dev/oled_ssd130x.h ****     void SendData(uint8_t* buff, size_t size)
 129:../../libDaisy//src/dev/oled_ssd130x.h ****     {
 130:../../libDaisy//src/dev/oled_ssd130x.h ****         dsy_gpio_write(&pin_dc_, 1);
 131:../../libDaisy//src/dev/oled_ssd130x.h ****         spi_.BlockingTransmit(buff, size);
 132:../../libDaisy//src/dev/oled_ssd130x.h ****     };
 133:../../libDaisy//src/dev/oled_ssd130x.h **** 
 134:../../libDaisy//src/dev/oled_ssd130x.h ****   private:
 135:../../libDaisy//src/dev/oled_ssd130x.h ****     SpiHandle spi_;
 136:../../libDaisy//src/dev/oled_ssd130x.h ****     dsy_gpio  pin_reset_;
 137:../../libDaisy//src/dev/oled_ssd130x.h ****     dsy_gpio  pin_dc_;
 138:../../libDaisy//src/dev/oled_ssd130x.h **** };
 139:../../libDaisy//src/dev/oled_ssd130x.h **** 
 140:../../libDaisy//src/dev/oled_ssd130x.h **** /**
 141:../../libDaisy//src/dev/oled_ssd130x.h ****  * Soft SPI Transport for SSD1306 / SSD1309 OLED display devices
 142:../../libDaisy//src/dev/oled_ssd130x.h ****  */
 143:../../libDaisy//src/dev/oled_ssd130x.h **** class SSD130x4WireSoftSpiTransport
 144:../../libDaisy//src/dev/oled_ssd130x.h **** {
 145:../../libDaisy//src/dev/oled_ssd130x.h ****   public:
 146:../../libDaisy//src/dev/oled_ssd130x.h ****     struct Config
 147:../../libDaisy//src/dev/oled_ssd130x.h ****     {
 148:../../libDaisy//src/dev/oled_ssd130x.h ****         Config()
 149:../../libDaisy//src/dev/oled_ssd130x.h ****         {
 150:../../libDaisy//src/dev/oled_ssd130x.h ****             // Initialize using defaults
 151:../../libDaisy//src/dev/oled_ssd130x.h ****             Defaults();
 152:../../libDaisy//src/dev/oled_ssd130x.h ****         }
 153:../../libDaisy//src/dev/oled_ssd130x.h ****         struct
 154:../../libDaisy//src/dev/oled_ssd130x.h ****         {
 155:../../libDaisy//src/dev/oled_ssd130x.h ****             uint32_t     sclk_delay;
 156:../../libDaisy//src/dev/oled_ssd130x.h ****             dsy_gpio_pin sclk;
 157:../../libDaisy//src/dev/oled_ssd130x.h ****             dsy_gpio_pin mosi;
 158:../../libDaisy//src/dev/oled_ssd130x.h ****             dsy_gpio_pin dc;
 159:../../libDaisy//src/dev/oled_ssd130x.h ****             dsy_gpio_pin reset;
 160:../../libDaisy//src/dev/oled_ssd130x.h ****         } pin_config;
 161:../../libDaisy//src/dev/oled_ssd130x.h ****         void Defaults()
 162:../../libDaisy//src/dev/oled_ssd130x.h ****         {
 163:../../libDaisy//src/dev/oled_ssd130x.h ****             pin_config.sclk_delay = 0; // fast as possible?!
 164:../../libDaisy//src/dev/oled_ssd130x.h ****             // SPI peripheral config
 165:../../libDaisy//src/dev/oled_ssd130x.h ****             pin_config.sclk = {DSY_GPIOD, 3}; /**< D10 - SPI2 SCK  */
 166:../../libDaisy//src/dev/oled_ssd130x.h ****             pin_config.mosi = {DSY_GPIOC, 3}; /**< D9  - SPI2 MOSI */
 167:../../libDaisy//src/dev/oled_ssd130x.h ****             // SSD130x control pin config
 168:../../libDaisy//src/dev/oled_ssd130x.h ****             pin_config.dc    = {DSY_GPIOC, 11}; //D2
 169:../../libDaisy//src/dev/oled_ssd130x.h ****             pin_config.reset = {DSY_GPIOC, 10}; //D3
 170:../../libDaisy//src/dev/oled_ssd130x.h ****         }
 171:../../libDaisy//src/dev/oled_ssd130x.h ****     };
 172:../../libDaisy//src/dev/oled_ssd130x.h ****     void Init(const Config& config)
 173:../../libDaisy//src/dev/oled_ssd130x.h ****     {
 174:../../libDaisy//src/dev/oled_ssd130x.h ****         // Initialize both GPIO
 175:../../libDaisy//src/dev/oled_ssd130x.h ****         pin_sclk_.mode = DSY_GPIO_MODE_OUTPUT_PP;
 176:../../libDaisy//src/dev/oled_ssd130x.h ****         pin_sclk_.pin  = config.pin_config.sclk;
 177:../../libDaisy//src/dev/oled_ssd130x.h ****         dsy_gpio_init(&pin_sclk_);
 178:../../libDaisy//src/dev/oled_ssd130x.h ****         dsy_gpio_write(&pin_sclk_, 1); //ClockPolarity::LOW
 179:../../libDaisy//src/dev/oled_ssd130x.h ****         clk_delay      = config.pin_config.sclk_delay;
ARM GAS  /var/folders/1y/_321xjh9623c014x9_qw12rr0000gn/T//ccE17DNe.s 			page 17


 180:../../libDaisy//src/dev/oled_ssd130x.h ****         pin_mosi_.mode = DSY_GPIO_MODE_OUTPUT_PP;
 181:../../libDaisy//src/dev/oled_ssd130x.h ****         pin_mosi_.pin  = config.pin_config.mosi;
 182:../../libDaisy//src/dev/oled_ssd130x.h ****         dsy_gpio_init(&pin_mosi_);
 183:../../libDaisy//src/dev/oled_ssd130x.h ****         dsy_gpio_write(&pin_mosi_, 0);
 184:../../libDaisy//src/dev/oled_ssd130x.h **** 
 185:../../libDaisy//src/dev/oled_ssd130x.h ****         pin_dc_.mode = DSY_GPIO_MODE_OUTPUT_PP;
 186:../../libDaisy//src/dev/oled_ssd130x.h ****         pin_dc_.pin  = config.pin_config.dc;
 187:../../libDaisy//src/dev/oled_ssd130x.h ****         dsy_gpio_init(&pin_dc_);
 188:../../libDaisy//src/dev/oled_ssd130x.h ****         pin_reset_.mode = DSY_GPIO_MODE_OUTPUT_PP;
 189:../../libDaisy//src/dev/oled_ssd130x.h ****         pin_reset_.pin  = config.pin_config.reset;
 190:../../libDaisy//src/dev/oled_ssd130x.h ****         dsy_gpio_init(&pin_reset_);
 191:../../libDaisy//src/dev/oled_ssd130x.h **** 
 192:../../libDaisy//src/dev/oled_ssd130x.h ****         // Reset and Configure OLED.
 193:../../libDaisy//src/dev/oled_ssd130x.h ****         dsy_gpio_write(&pin_reset_, 0);
 194:../../libDaisy//src/dev/oled_ssd130x.h ****         System::Delay(10);
 195:../../libDaisy//src/dev/oled_ssd130x.h ****         dsy_gpio_write(&pin_reset_, 1);
 196:../../libDaisy//src/dev/oled_ssd130x.h ****         System::Delay(10);
 197:../../libDaisy//src/dev/oled_ssd130x.h ****     };
 198:../../libDaisy//src/dev/oled_ssd130x.h ****     void SendCommand(uint8_t cmd)
 199:../../libDaisy//src/dev/oled_ssd130x.h ****     {
 200:../../libDaisy//src/dev/oled_ssd130x.h ****         dsy_gpio_write(&pin_dc_, 0);
 201:../../libDaisy//src/dev/oled_ssd130x.h ****         SoftSpiTransmit(cmd);
 202:../../libDaisy//src/dev/oled_ssd130x.h ****     };
 203:../../libDaisy//src/dev/oled_ssd130x.h **** 
 204:../../libDaisy//src/dev/oled_ssd130x.h ****     void SendData(uint8_t* buff, size_t size)
 205:../../libDaisy//src/dev/oled_ssd130x.h ****     {
 206:../../libDaisy//src/dev/oled_ssd130x.h ****         dsy_gpio_write(&pin_dc_, 1);
 207:../../libDaisy//src/dev/oled_ssd130x.h ****         for(size_t i = 0; i < size; i++)
 208:../../libDaisy//src/dev/oled_ssd130x.h ****             SoftSpiTransmit(buff[i]);
 209:../../libDaisy//src/dev/oled_ssd130x.h ****     };
 210:../../libDaisy//src/dev/oled_ssd130x.h **** 
 211:../../libDaisy//src/dev/oled_ssd130x.h ****   private:
 212:../../libDaisy//src/dev/oled_ssd130x.h ****     void SoftSpiTransmit(uint8_t val)
 213:../../libDaisy//src/dev/oled_ssd130x.h ****     {
 214:../../libDaisy//src/dev/oled_ssd130x.h ****         // bit flip
 215:../../libDaisy//src/dev/oled_ssd130x.h ****         val = ((val & 0x01) << 7) | ((val & 0x02) << 5) | ((val & 0x04) << 3)
 216:../../libDaisy//src/dev/oled_ssd130x.h ****               | ((val & 0x08) << 1) | ((val & 0x10) >> 1) | ((val & 0x20) >> 3)
 217:../../libDaisy//src/dev/oled_ssd130x.h ****               | ((val & 0x40) >> 5) | ((val & 0x80) >> 7);
 218:../../libDaisy//src/dev/oled_ssd130x.h **** 
 219:../../libDaisy//src/dev/oled_ssd130x.h ****         for(uint8_t bit = 0u; bit < 8u; bit++)
 220:../../libDaisy//src/dev/oled_ssd130x.h ****         {
 221:../../libDaisy//src/dev/oled_ssd130x.h ****             dsy_gpio_write(&pin_mosi_, ((val & (1 << bit)) ? 1 : 0));
 222:../../libDaisy//src/dev/oled_ssd130x.h **** 
 223:../../libDaisy//src/dev/oled_ssd130x.h ****             System::DelayTicks(clk_delay);
 224:../../libDaisy//src/dev/oled_ssd130x.h **** 
 225:../../libDaisy//src/dev/oled_ssd130x.h ****             dsy_gpio_toggle(&pin_sclk_);
 226:../../libDaisy//src/dev/oled_ssd130x.h **** 
 227:../../libDaisy//src/dev/oled_ssd130x.h ****             System::DelayTicks(clk_delay);
 228:../../libDaisy//src/dev/oled_ssd130x.h **** 
 229:../../libDaisy//src/dev/oled_ssd130x.h ****             dsy_gpio_toggle(&pin_sclk_);
 230:../../libDaisy//src/dev/oled_ssd130x.h ****         }
 231:../../libDaisy//src/dev/oled_ssd130x.h ****     }
 232:../../libDaisy//src/dev/oled_ssd130x.h **** 
 233:../../libDaisy//src/dev/oled_ssd130x.h ****     uint32_t clk_delay;
 234:../../libDaisy//src/dev/oled_ssd130x.h ****     dsy_gpio pin_sclk_;
 235:../../libDaisy//src/dev/oled_ssd130x.h ****     dsy_gpio pin_mosi_;
 236:../../libDaisy//src/dev/oled_ssd130x.h ****     dsy_gpio pin_reset_;
ARM GAS  /var/folders/1y/_321xjh9623c014x9_qw12rr0000gn/T//ccE17DNe.s 			page 18


 237:../../libDaisy//src/dev/oled_ssd130x.h ****     dsy_gpio pin_dc_;
 238:../../libDaisy//src/dev/oled_ssd130x.h **** };
 239:../../libDaisy//src/dev/oled_ssd130x.h **** 
 240:../../libDaisy//src/dev/oled_ssd130x.h **** 
 241:../../libDaisy//src/dev/oled_ssd130x.h **** /**
 242:../../libDaisy//src/dev/oled_ssd130x.h ****  * A driver implementation for the SSD1306/SSD1309
 243:../../libDaisy//src/dev/oled_ssd130x.h ****  */
 244:../../libDaisy//src/dev/oled_ssd130x.h **** template <size_t width, size_t height, typename Transport>
 245:../../libDaisy//src/dev/oled_ssd130x.h **** class SSD130xDriver
 246:../../libDaisy//src/dev/oled_ssd130x.h **** {
 247:../../libDaisy//src/dev/oled_ssd130x.h ****   public:
 248:../../libDaisy//src/dev/oled_ssd130x.h ****     struct Config
 249:../../libDaisy//src/dev/oled_ssd130x.h ****     {
 250:../../libDaisy//src/dev/oled_ssd130x.h ****         typename Transport::Config transport_config;
 251:../../libDaisy//src/dev/oled_ssd130x.h ****     };
 252:../../libDaisy//src/dev/oled_ssd130x.h **** 
 253:../../libDaisy//src/dev/oled_ssd130x.h ****     void Init(Config config)
 254:../../libDaisy//src/dev/oled_ssd130x.h ****     {
 255:../../libDaisy//src/dev/oled_ssd130x.h ****         transport_.Init(config.transport_config);
 256:../../libDaisy//src/dev/oled_ssd130x.h **** 
 257:../../libDaisy//src/dev/oled_ssd130x.h ****         // Init routine...
 258:../../libDaisy//src/dev/oled_ssd130x.h **** 
 259:../../libDaisy//src/dev/oled_ssd130x.h ****         // Display Off
 260:../../libDaisy//src/dev/oled_ssd130x.h ****         transport_.SendCommand(0xaE);
 261:../../libDaisy//src/dev/oled_ssd130x.h ****         // Dimension dependent commands...
 262:../../libDaisy//src/dev/oled_ssd130x.h ****         switch(height)
 263:../../libDaisy//src/dev/oled_ssd130x.h ****         {
 264:../../libDaisy//src/dev/oled_ssd130x.h ****             case 16:
 265:../../libDaisy//src/dev/oled_ssd130x.h ****                 // Display Clock Divide Ratio
 266:../../libDaisy//src/dev/oled_ssd130x.h ****                 transport_.SendCommand(0xD5);
 267:../../libDaisy//src/dev/oled_ssd130x.h ****                 transport_.SendCommand(0x60);
 268:../../libDaisy//src/dev/oled_ssd130x.h ****                 // Multiplex Ratio
 269:../../libDaisy//src/dev/oled_ssd130x.h ****                 transport_.SendCommand(0xA8);
 270:../../libDaisy//src/dev/oled_ssd130x.h ****                 transport_.SendCommand(0x0F);
 271:../../libDaisy//src/dev/oled_ssd130x.h ****                 // COM Pins
 272:../../libDaisy//src/dev/oled_ssd130x.h ****                 transport_.SendCommand(0xDA);
 273:../../libDaisy//src/dev/oled_ssd130x.h ****                 transport_.SendCommand(0x02);
 274:../../libDaisy//src/dev/oled_ssd130x.h ****                 break;
 275:../../libDaisy//src/dev/oled_ssd130x.h ****             case 32:
 276:../../libDaisy//src/dev/oled_ssd130x.h ****                 // Display Clock Divide Ratio
 277:../../libDaisy//src/dev/oled_ssd130x.h ****                 transport_.SendCommand(0xD5);
 278:../../libDaisy//src/dev/oled_ssd130x.h ****                 transport_.SendCommand(0x80);
 279:../../libDaisy//src/dev/oled_ssd130x.h ****                 // Multiplex Ratio
 280:../../libDaisy//src/dev/oled_ssd130x.h ****                 transport_.SendCommand(0xA8);
 281:../../libDaisy//src/dev/oled_ssd130x.h ****                 transport_.SendCommand(0x1F);
 282:../../libDaisy//src/dev/oled_ssd130x.h ****                 // COM Pins
 283:../../libDaisy//src/dev/oled_ssd130x.h ****                 transport_.SendCommand(0xDA);
 284:../../libDaisy//src/dev/oled_ssd130x.h ****                 if(width == 64)
 285:../../libDaisy//src/dev/oled_ssd130x.h ****                 {
 286:../../libDaisy//src/dev/oled_ssd130x.h ****                     transport_.SendCommand(0x12);
 287:../../libDaisy//src/dev/oled_ssd130x.h ****                 }
 288:../../libDaisy//src/dev/oled_ssd130x.h ****                 else
 289:../../libDaisy//src/dev/oled_ssd130x.h ****                 {
 290:../../libDaisy//src/dev/oled_ssd130x.h ****                     transport_.SendCommand(0x02);
 291:../../libDaisy//src/dev/oled_ssd130x.h ****                 }
 292:../../libDaisy//src/dev/oled_ssd130x.h **** 
 293:../../libDaisy//src/dev/oled_ssd130x.h ****                 break;
ARM GAS  /var/folders/1y/_321xjh9623c014x9_qw12rr0000gn/T//ccE17DNe.s 			page 19


 294:../../libDaisy//src/dev/oled_ssd130x.h ****             case 48:
 295:../../libDaisy//src/dev/oled_ssd130x.h ****                 // Display Clock Divide Ratio
 296:../../libDaisy//src/dev/oled_ssd130x.h ****                 transport_.SendCommand(0xD5);
 297:../../libDaisy//src/dev/oled_ssd130x.h ****                 transport_.SendCommand(0x80);
 298:../../libDaisy//src/dev/oled_ssd130x.h ****                 // Multiplex Ratio
 299:../../libDaisy//src/dev/oled_ssd130x.h ****                 transport_.SendCommand(0xA8);
 300:../../libDaisy//src/dev/oled_ssd130x.h ****                 transport_.SendCommand(0x2F);
 301:../../libDaisy//src/dev/oled_ssd130x.h ****                 // COM Pins
 302:../../libDaisy//src/dev/oled_ssd130x.h ****                 transport_.SendCommand(0xDA);
 303:../../libDaisy//src/dev/oled_ssd130x.h ****                 transport_.SendCommand(0x12);
 304:../../libDaisy//src/dev/oled_ssd130x.h ****                 break;
 305:../../libDaisy//src/dev/oled_ssd130x.h ****             default: // 128
 306:../../libDaisy//src/dev/oled_ssd130x.h ****                 // Display Clock Divide Ratio
 307:../../libDaisy//src/dev/oled_ssd130x.h ****                 transport_.SendCommand(0xD5);
 308:../../libDaisy//src/dev/oled_ssd130x.h ****                 transport_.SendCommand(0x80);
 309:../../libDaisy//src/dev/oled_ssd130x.h ****                 // Multiplex Ratio
 310:../../libDaisy//src/dev/oled_ssd130x.h ****                 transport_.SendCommand(0xA8);
 311:../../libDaisy//src/dev/oled_ssd130x.h ****                 transport_.SendCommand(0x3F);
 312:../../libDaisy//src/dev/oled_ssd130x.h ****                 // COM Pins
 313:../../libDaisy//src/dev/oled_ssd130x.h ****                 transport_.SendCommand(0xDA);
 314:../../libDaisy//src/dev/oled_ssd130x.h ****                 transport_.SendCommand(0x12);
 315:../../libDaisy//src/dev/oled_ssd130x.h ****                 break;
 316:../../libDaisy//src/dev/oled_ssd130x.h ****         }
 317:../../libDaisy//src/dev/oled_ssd130x.h **** 
 318:../../libDaisy//src/dev/oled_ssd130x.h ****         // Display Offset
 319:../../libDaisy//src/dev/oled_ssd130x.h ****         transport_.SendCommand(0xD3);
 320:../../libDaisy//src/dev/oled_ssd130x.h ****         transport_.SendCommand(0x00);
 321:../../libDaisy//src/dev/oled_ssd130x.h ****         // Start Line Address
 322:../../libDaisy//src/dev/oled_ssd130x.h ****         transport_.SendCommand(0x40);
 323:../../libDaisy//src/dev/oled_ssd130x.h ****         // Normal Display
 324:../../libDaisy//src/dev/oled_ssd130x.h ****         transport_.SendCommand(0xA6);
 325:../../libDaisy//src/dev/oled_ssd130x.h ****         // All On Resume
 326:../../libDaisy//src/dev/oled_ssd130x.h ****         transport_.SendCommand(0xA4);
 327:../../libDaisy//src/dev/oled_ssd130x.h ****         // Charge Pump
 328:../../libDaisy//src/dev/oled_ssd130x.h ****         transport_.SendCommand(0x8D);
 329:../../libDaisy//src/dev/oled_ssd130x.h ****         transport_.SendCommand(0x14);
 330:../../libDaisy//src/dev/oled_ssd130x.h ****         // Set Segment Remap
 331:../../libDaisy//src/dev/oled_ssd130x.h ****         transport_.SendCommand(0xA1);
 332:../../libDaisy//src/dev/oled_ssd130x.h ****         // COM Output Scan Direction
 333:../../libDaisy//src/dev/oled_ssd130x.h ****         transport_.SendCommand(0xC8);
 334:../../libDaisy//src/dev/oled_ssd130x.h ****         // Contrast Control
 335:../../libDaisy//src/dev/oled_ssd130x.h ****         transport_.SendCommand(0x81);
 336:../../libDaisy//src/dev/oled_ssd130x.h ****         transport_.SendCommand(0x8F);
 337:../../libDaisy//src/dev/oled_ssd130x.h ****         // Pre Charge
 338:../../libDaisy//src/dev/oled_ssd130x.h ****         transport_.SendCommand(0xD9);
 339:../../libDaisy//src/dev/oled_ssd130x.h ****         transport_.SendCommand(0x25);
 340:../../libDaisy//src/dev/oled_ssd130x.h ****         // VCOM Detect
 341:../../libDaisy//src/dev/oled_ssd130x.h ****         transport_.SendCommand(0xDB);
 342:../../libDaisy//src/dev/oled_ssd130x.h ****         transport_.SendCommand(0x34);
 343:../../libDaisy//src/dev/oled_ssd130x.h **** 
 344:../../libDaisy//src/dev/oled_ssd130x.h **** 
 345:../../libDaisy//src/dev/oled_ssd130x.h ****         // Display On
 346:../../libDaisy//src/dev/oled_ssd130x.h ****         transport_.SendCommand(0xAF); //--turn on oled panel
 347:../../libDaisy//src/dev/oled_ssd130x.h ****     };
 348:../../libDaisy//src/dev/oled_ssd130x.h **** 
 349:../../libDaisy//src/dev/oled_ssd130x.h ****     size_t Width() const { return width; };
 350:../../libDaisy//src/dev/oled_ssd130x.h ****     size_t Height() const { return height; };
ARM GAS  /var/folders/1y/_321xjh9623c014x9_qw12rr0000gn/T//ccE17DNe.s 			page 20


 351:../../libDaisy//src/dev/oled_ssd130x.h **** 
 352:../../libDaisy//src/dev/oled_ssd130x.h ****     void DrawPixel(uint_fast8_t x, uint_fast8_t y, bool on)
 139              		.loc 4 352 10 view .LVU19
 140              	.LBB287:
 141              	.LBI287:
 142              		.loc 4 352 10 view .LVU20
 143              	.LBB288:
 353:../../libDaisy//src/dev/oled_ssd130x.h ****     {
 354:../../libDaisy//src/dev/oled_ssd130x.h ****         if(x >= width || y >= height)
 355:../../libDaisy//src/dev/oled_ssd130x.h ****             return;
 356:../../libDaisy//src/dev/oled_ssd130x.h ****         if(on)
 357:../../libDaisy//src/dev/oled_ssd130x.h ****             buffer_[x + (y / 8) * width] |= (1 << (y % 8));
 358:../../libDaisy//src/dev/oled_ssd130x.h ****         else
 359:../../libDaisy//src/dev/oled_ssd130x.h ****             buffer_[x + (y / 8) * width] &= ~(1 << (y % 8));
 144              		.loc 4 359 28 is_stmt 0 view .LVU21
 145 0018 D308     		lsrs	r3, r2, #3
 146              		.loc 4 359 55 view .LVU22
 147 001a 02F00701 		and	r1, r2, #7
 148              		.loc 4 359 49 view .LVU23
 149 001e 0124     		movs	r4, #1
 150              		.loc 4 359 42 view .LVU24
 151 0020 05EBC313 		add	r3, r5, r3, lsl #7
 152              		.loc 4 359 49 view .LVU25
 153 0024 04FA01F0 		lsl	r0, r4, r1
 154              	.LBE288:
 155              	.LBE287:
 156              	.LBE286:
 157              	.LBE285:
 158              		.loc 3 268 17 view .LVU26
 159 0028 2244     		add	r2, r2, r4
 160              	.LVL8:
 161              	.LBB295:
 162              	.LBB293:
 163              	.LBB291:
 164              	.LBB289:
 165              		.loc 4 359 42 view .LVU27
 166 002a 5344     		add	r3, r3, r10
 167              	.LBE289:
 168              	.LBE291:
 169              	.LBE293:
 170              	.LBE295:
 171              		.loc 3 268 44 view .LVU28
 172 002c 342A     		cmp	r2, #52
 173              	.LBB296:
 174              	.LBB294:
 175              	.LBB292:
 176              	.LBB290:
 177              		.loc 4 359 42 view .LVU29
 178 002e 93F8BC14 		ldrb	r1, [r3, #1212]	@ zero_extendqisi2
 179 0032 21EA0001 		bic	r1, r1, r0
 180 0036 83F8BC14 		strb	r1, [r3, #1212]
 181              	.LVL9:
 182              		.loc 4 359 42 view .LVU30
 183              	.LBE290:
 184              	.LBE292:
 185              	.LBE294:
 186              	.LBE296:
ARM GAS  /var/folders/1y/_321xjh9623c014x9_qw12rr0000gn/T//ccE17DNe.s 			page 21


 187              		.loc 3 268 17 is_stmt 1 view .LVU31
 188              		.loc 3 268 44 view .LVU32
 189 003a EDD1     		bne	.L5
 190              	.LBE284:
 266:../../libDaisy//src/hid/disp/display.h ****             {
 191              		.loc 3 266 13 view .LVU33
 192 003c 2544     		add	r5, r5, r4
 193              	.LVL10:
 266:../../libDaisy//src/hid/disp/display.h ****             {
 194              		.loc 3 266 40 view .LVU34
 195 003e 7F2D     		cmp	r5, #127
 196 0040 E9D1     		bne	.L6
 197 0042 0023     		movs	r3, #0
 198 0044 0AF52672 		add	r2, r10, #664
 199              	.LVL11:
 266:../../libDaisy//src/hid/disp/display.h ****             {
 200              		.loc 3 266 40 is_stmt 0 view .LVU35
 201 0048 A146     		mov	r9, r4
 202              	.LBE298:
 203              	.LBE300:
 204              	.LBE302:
 288:Dubby.cpp     ****         int prev_x = 0;
 289:Dubby.cpp     ****         int prev_y = (OLED_HEIGHT - 15) / 2;
 205              		.loc 2 289 13 view .LVU36
 206 004a 1826     		movs	r6, #24
 207              	.LBB303:
 208              	.LBB301:
 209              	.LBB299:
 266:../../libDaisy//src/hid/disp/display.h ****             {
 210              		.loc 3 266 40 view .LVU37
 211 004c 0193     		str	r3, [sp, #4]
 212 004e 0492     		str	r2, [sp, #16]
 213 0050 06E0     		b	.L21
 214              	.LVL12:
 215              	.L9:
 266:../../libDaisy//src/hid/disp/display.h ****             {
 216              		.loc 3 266 40 view .LVU38
 217 0052 019B     		ldr	r3, [sp, #4]
 218 0054 09F10109 		add	r9, r9, #1
 219              	.LVL13:
 220              	.LBB297:
 221              		.loc 3 268 34 view .LVU39
 222 0058 2646     		mov	r6, r4
 223 005a 7E33     		adds	r3, r3, #126
 224 005c 0193     		str	r3, [sp, #4]
 225              	.LBE297:
 226              	.LBE299:
 227              	.LBE301:
 228              	.LBE303:
 229              	.LBB304:
 230              	.LBB305:
 290:Dubby.cpp     ****         for(size_t i = 0; i < AUDIO_BLOCK_SIZE; i++)
 291:Dubby.cpp     ****         {
 292:Dubby.cpp     ****             int y = 1 + std::min(std::max((OLED_HEIGHT - 15) / 2
 293:Dubby.cpp     ****                                         - int(scope_buffer[i] * 150),
 294:Dubby.cpp     ****                                     0),
 295:Dubby.cpp     ****                             OLED_HEIGHT - 15);
ARM GAS  /var/folders/1y/_321xjh9623c014x9_qw12rr0000gn/T//ccE17DNe.s 			page 22


 296:Dubby.cpp     ****             int x = 1 + i * (OLED_WIDTH - 2) / AUDIO_BLOCK_SIZE;
 297:Dubby.cpp     ****             if(i != 0)
 298:Dubby.cpp     ****             {
 299:Dubby.cpp     ****                 display.DrawLine(prev_x, prev_y, x, y, true);
 300:Dubby.cpp     ****             }
 301:Dubby.cpp     ****             prev_x = x;
 231              		.loc 2 301 20 view .LVU40
 232 005e 2B46     		mov	r3, r5
 233              	.LVL14:
 234              	.L21:
 292:Dubby.cpp     ****                                         - int(scope_buffer[i] * 150),
 235              		.loc 2 292 13 is_stmt 1 view .LVU41
 236              	.LBB306:
 237              	.LBI306:
 238              		.file 5 "/Library/DaisyToolchain/0.2.0/arm/arm-none-eabi/include/c++/10.3.1/bits/stl_algobase.h"
   1:/Library/DaisyToolchain/0.2.0/arm/arm-none-eabi/include/c++/10.3.1/bits/stl_algobase.h **** // Core algorithmic facilities -*- C++ -*-
   2:/Library/DaisyToolchain/0.2.0/arm/arm-none-eabi/include/c++/10.3.1/bits/stl_algobase.h **** 
   3:/Library/DaisyToolchain/0.2.0/arm/arm-none-eabi/include/c++/10.3.1/bits/stl_algobase.h **** // Copyright (C) 2001-2020 Free Software Foundation, Inc.
   4:/Library/DaisyToolchain/0.2.0/arm/arm-none-eabi/include/c++/10.3.1/bits/stl_algobase.h **** //
   5:/Library/DaisyToolchain/0.2.0/arm/arm-none-eabi/include/c++/10.3.1/bits/stl_algobase.h **** // This file is part of the GNU ISO C++ Library.  This library is free
   6:/Library/DaisyToolchain/0.2.0/arm/arm-none-eabi/include/c++/10.3.1/bits/stl_algobase.h **** // software; you can redistribute it and/or modify it under the
   7:/Library/DaisyToolchain/0.2.0/arm/arm-none-eabi/include/c++/10.3.1/bits/stl_algobase.h **** // terms of the GNU General Public License as published by the
   8:/Library/DaisyToolchain/0.2.0/arm/arm-none-eabi/include/c++/10.3.1/bits/stl_algobase.h **** // Free Software Foundation; either version 3, or (at your option)
   9:/Library/DaisyToolchain/0.2.0/arm/arm-none-eabi/include/c++/10.3.1/bits/stl_algobase.h **** // any later version.
  10:/Library/DaisyToolchain/0.2.0/arm/arm-none-eabi/include/c++/10.3.1/bits/stl_algobase.h **** 
  11:/Library/DaisyToolchain/0.2.0/arm/arm-none-eabi/include/c++/10.3.1/bits/stl_algobase.h **** // This library is distributed in the hope that it will be useful,
  12:/Library/DaisyToolchain/0.2.0/arm/arm-none-eabi/include/c++/10.3.1/bits/stl_algobase.h **** // but WITHOUT ANY WARRANTY; without even the implied warranty of
  13:/Library/DaisyToolchain/0.2.0/arm/arm-none-eabi/include/c++/10.3.1/bits/stl_algobase.h **** // MERCHANTABILITY or FITNESS FOR A PARTICULAR PURPOSE.  See the
  14:/Library/DaisyToolchain/0.2.0/arm/arm-none-eabi/include/c++/10.3.1/bits/stl_algobase.h **** // GNU General Public License for more details.
  15:/Library/DaisyToolchain/0.2.0/arm/arm-none-eabi/include/c++/10.3.1/bits/stl_algobase.h **** 
  16:/Library/DaisyToolchain/0.2.0/arm/arm-none-eabi/include/c++/10.3.1/bits/stl_algobase.h **** // Under Section 7 of GPL version 3, you are granted additional
  17:/Library/DaisyToolchain/0.2.0/arm/arm-none-eabi/include/c++/10.3.1/bits/stl_algobase.h **** // permissions described in the GCC Runtime Library Exception, version
  18:/Library/DaisyToolchain/0.2.0/arm/arm-none-eabi/include/c++/10.3.1/bits/stl_algobase.h **** // 3.1, as published by the Free Software Foundation.
  19:/Library/DaisyToolchain/0.2.0/arm/arm-none-eabi/include/c++/10.3.1/bits/stl_algobase.h **** 
  20:/Library/DaisyToolchain/0.2.0/arm/arm-none-eabi/include/c++/10.3.1/bits/stl_algobase.h **** // You should have received a copy of the GNU General Public License and
  21:/Library/DaisyToolchain/0.2.0/arm/arm-none-eabi/include/c++/10.3.1/bits/stl_algobase.h **** // a copy of the GCC Runtime Library Exception along with this program;
  22:/Library/DaisyToolchain/0.2.0/arm/arm-none-eabi/include/c++/10.3.1/bits/stl_algobase.h **** // see the files COPYING3 and COPYING.RUNTIME respectively.  If not, see
  23:/Library/DaisyToolchain/0.2.0/arm/arm-none-eabi/include/c++/10.3.1/bits/stl_algobase.h **** // <http://www.gnu.org/licenses/>.
  24:/Library/DaisyToolchain/0.2.0/arm/arm-none-eabi/include/c++/10.3.1/bits/stl_algobase.h **** 
  25:/Library/DaisyToolchain/0.2.0/arm/arm-none-eabi/include/c++/10.3.1/bits/stl_algobase.h **** /*
  26:/Library/DaisyToolchain/0.2.0/arm/arm-none-eabi/include/c++/10.3.1/bits/stl_algobase.h ****  *
  27:/Library/DaisyToolchain/0.2.0/arm/arm-none-eabi/include/c++/10.3.1/bits/stl_algobase.h ****  * Copyright (c) 1994
  28:/Library/DaisyToolchain/0.2.0/arm/arm-none-eabi/include/c++/10.3.1/bits/stl_algobase.h ****  * Hewlett-Packard Company
  29:/Library/DaisyToolchain/0.2.0/arm/arm-none-eabi/include/c++/10.3.1/bits/stl_algobase.h ****  *
  30:/Library/DaisyToolchain/0.2.0/arm/arm-none-eabi/include/c++/10.3.1/bits/stl_algobase.h ****  * Permission to use, copy, modify, distribute and sell this software
  31:/Library/DaisyToolchain/0.2.0/arm/arm-none-eabi/include/c++/10.3.1/bits/stl_algobase.h ****  * and its documentation for any purpose is hereby granted without fee,
  32:/Library/DaisyToolchain/0.2.0/arm/arm-none-eabi/include/c++/10.3.1/bits/stl_algobase.h ****  * provided that the above copyright notice appear in all copies and
  33:/Library/DaisyToolchain/0.2.0/arm/arm-none-eabi/include/c++/10.3.1/bits/stl_algobase.h ****  * that both that copyright notice and this permission notice appear
  34:/Library/DaisyToolchain/0.2.0/arm/arm-none-eabi/include/c++/10.3.1/bits/stl_algobase.h ****  * in supporting documentation.  Hewlett-Packard Company makes no
  35:/Library/DaisyToolchain/0.2.0/arm/arm-none-eabi/include/c++/10.3.1/bits/stl_algobase.h ****  * representations about the suitability of this software for any
  36:/Library/DaisyToolchain/0.2.0/arm/arm-none-eabi/include/c++/10.3.1/bits/stl_algobase.h ****  * purpose.  It is provided "as is" without express or implied warranty.
  37:/Library/DaisyToolchain/0.2.0/arm/arm-none-eabi/include/c++/10.3.1/bits/stl_algobase.h ****  *
  38:/Library/DaisyToolchain/0.2.0/arm/arm-none-eabi/include/c++/10.3.1/bits/stl_algobase.h ****  *
  39:/Library/DaisyToolchain/0.2.0/arm/arm-none-eabi/include/c++/10.3.1/bits/stl_algobase.h ****  * Copyright (c) 1996-1998
  40:/Library/DaisyToolchain/0.2.0/arm/arm-none-eabi/include/c++/10.3.1/bits/stl_algobase.h ****  * Silicon Graphics Computer Systems, Inc.
  41:/Library/DaisyToolchain/0.2.0/arm/arm-none-eabi/include/c++/10.3.1/bits/stl_algobase.h ****  *
  42:/Library/DaisyToolchain/0.2.0/arm/arm-none-eabi/include/c++/10.3.1/bits/stl_algobase.h ****  * Permission to use, copy, modify, distribute and sell this software
ARM GAS  /var/folders/1y/_321xjh9623c014x9_qw12rr0000gn/T//ccE17DNe.s 			page 23


  43:/Library/DaisyToolchain/0.2.0/arm/arm-none-eabi/include/c++/10.3.1/bits/stl_algobase.h ****  * and its documentation for any purpose is hereby granted without fee,
  44:/Library/DaisyToolchain/0.2.0/arm/arm-none-eabi/include/c++/10.3.1/bits/stl_algobase.h ****  * provided that the above copyright notice appear in all copies and
  45:/Library/DaisyToolchain/0.2.0/arm/arm-none-eabi/include/c++/10.3.1/bits/stl_algobase.h ****  * that both that copyright notice and this permission notice appear
  46:/Library/DaisyToolchain/0.2.0/arm/arm-none-eabi/include/c++/10.3.1/bits/stl_algobase.h ****  * in supporting documentation.  Silicon Graphics makes no
  47:/Library/DaisyToolchain/0.2.0/arm/arm-none-eabi/include/c++/10.3.1/bits/stl_algobase.h ****  * representations about the suitability of this software for any
  48:/Library/DaisyToolchain/0.2.0/arm/arm-none-eabi/include/c++/10.3.1/bits/stl_algobase.h ****  * purpose.  It is provided "as is" without express or implied warranty.
  49:/Library/DaisyToolchain/0.2.0/arm/arm-none-eabi/include/c++/10.3.1/bits/stl_algobase.h ****  */
  50:/Library/DaisyToolchain/0.2.0/arm/arm-none-eabi/include/c++/10.3.1/bits/stl_algobase.h **** 
  51:/Library/DaisyToolchain/0.2.0/arm/arm-none-eabi/include/c++/10.3.1/bits/stl_algobase.h **** /** @file bits/stl_algobase.h
  52:/Library/DaisyToolchain/0.2.0/arm/arm-none-eabi/include/c++/10.3.1/bits/stl_algobase.h ****  *  This is an internal header file, included by other library headers.
  53:/Library/DaisyToolchain/0.2.0/arm/arm-none-eabi/include/c++/10.3.1/bits/stl_algobase.h ****  *  Do not attempt to use it directly. @headername{algorithm}
  54:/Library/DaisyToolchain/0.2.0/arm/arm-none-eabi/include/c++/10.3.1/bits/stl_algobase.h ****  */
  55:/Library/DaisyToolchain/0.2.0/arm/arm-none-eabi/include/c++/10.3.1/bits/stl_algobase.h **** 
  56:/Library/DaisyToolchain/0.2.0/arm/arm-none-eabi/include/c++/10.3.1/bits/stl_algobase.h **** #ifndef _STL_ALGOBASE_H
  57:/Library/DaisyToolchain/0.2.0/arm/arm-none-eabi/include/c++/10.3.1/bits/stl_algobase.h **** #define _STL_ALGOBASE_H 1
  58:/Library/DaisyToolchain/0.2.0/arm/arm-none-eabi/include/c++/10.3.1/bits/stl_algobase.h **** 
  59:/Library/DaisyToolchain/0.2.0/arm/arm-none-eabi/include/c++/10.3.1/bits/stl_algobase.h **** #include <bits/c++config.h>
  60:/Library/DaisyToolchain/0.2.0/arm/arm-none-eabi/include/c++/10.3.1/bits/stl_algobase.h **** #include <bits/functexcept.h>
  61:/Library/DaisyToolchain/0.2.0/arm/arm-none-eabi/include/c++/10.3.1/bits/stl_algobase.h **** #include <bits/cpp_type_traits.h>
  62:/Library/DaisyToolchain/0.2.0/arm/arm-none-eabi/include/c++/10.3.1/bits/stl_algobase.h **** #include <ext/type_traits.h>
  63:/Library/DaisyToolchain/0.2.0/arm/arm-none-eabi/include/c++/10.3.1/bits/stl_algobase.h **** #include <ext/numeric_traits.h>
  64:/Library/DaisyToolchain/0.2.0/arm/arm-none-eabi/include/c++/10.3.1/bits/stl_algobase.h **** #include <bits/stl_pair.h>
  65:/Library/DaisyToolchain/0.2.0/arm/arm-none-eabi/include/c++/10.3.1/bits/stl_algobase.h **** #include <bits/stl_iterator_base_types.h>
  66:/Library/DaisyToolchain/0.2.0/arm/arm-none-eabi/include/c++/10.3.1/bits/stl_algobase.h **** #include <bits/stl_iterator_base_funcs.h>
  67:/Library/DaisyToolchain/0.2.0/arm/arm-none-eabi/include/c++/10.3.1/bits/stl_algobase.h **** #include <bits/stl_iterator.h>
  68:/Library/DaisyToolchain/0.2.0/arm/arm-none-eabi/include/c++/10.3.1/bits/stl_algobase.h **** #include <bits/concept_check.h>
  69:/Library/DaisyToolchain/0.2.0/arm/arm-none-eabi/include/c++/10.3.1/bits/stl_algobase.h **** #include <debug/debug.h>
  70:/Library/DaisyToolchain/0.2.0/arm/arm-none-eabi/include/c++/10.3.1/bits/stl_algobase.h **** #include <bits/move.h> // For std::swap
  71:/Library/DaisyToolchain/0.2.0/arm/arm-none-eabi/include/c++/10.3.1/bits/stl_algobase.h **** #include <bits/predefined_ops.h>
  72:/Library/DaisyToolchain/0.2.0/arm/arm-none-eabi/include/c++/10.3.1/bits/stl_algobase.h **** #if __cplusplus >= 201103L
  73:/Library/DaisyToolchain/0.2.0/arm/arm-none-eabi/include/c++/10.3.1/bits/stl_algobase.h **** # include <type_traits>
  74:/Library/DaisyToolchain/0.2.0/arm/arm-none-eabi/include/c++/10.3.1/bits/stl_algobase.h **** #endif
  75:/Library/DaisyToolchain/0.2.0/arm/arm-none-eabi/include/c++/10.3.1/bits/stl_algobase.h **** #if __cplusplus > 201703L
  76:/Library/DaisyToolchain/0.2.0/arm/arm-none-eabi/include/c++/10.3.1/bits/stl_algobase.h **** # include <compare>
  77:/Library/DaisyToolchain/0.2.0/arm/arm-none-eabi/include/c++/10.3.1/bits/stl_algobase.h **** #endif
  78:/Library/DaisyToolchain/0.2.0/arm/arm-none-eabi/include/c++/10.3.1/bits/stl_algobase.h **** 
  79:/Library/DaisyToolchain/0.2.0/arm/arm-none-eabi/include/c++/10.3.1/bits/stl_algobase.h **** namespace std _GLIBCXX_VISIBILITY(default)
  80:/Library/DaisyToolchain/0.2.0/arm/arm-none-eabi/include/c++/10.3.1/bits/stl_algobase.h **** {
  81:/Library/DaisyToolchain/0.2.0/arm/arm-none-eabi/include/c++/10.3.1/bits/stl_algobase.h **** _GLIBCXX_BEGIN_NAMESPACE_VERSION
  82:/Library/DaisyToolchain/0.2.0/arm/arm-none-eabi/include/c++/10.3.1/bits/stl_algobase.h **** 
  83:/Library/DaisyToolchain/0.2.0/arm/arm-none-eabi/include/c++/10.3.1/bits/stl_algobase.h ****   /*
  84:/Library/DaisyToolchain/0.2.0/arm/arm-none-eabi/include/c++/10.3.1/bits/stl_algobase.h ****    * A constexpr wrapper for __builtin_memcmp.
  85:/Library/DaisyToolchain/0.2.0/arm/arm-none-eabi/include/c++/10.3.1/bits/stl_algobase.h ****    * @param __num The number of elements of type _Tp (not bytes).
  86:/Library/DaisyToolchain/0.2.0/arm/arm-none-eabi/include/c++/10.3.1/bits/stl_algobase.h ****    */
  87:/Library/DaisyToolchain/0.2.0/arm/arm-none-eabi/include/c++/10.3.1/bits/stl_algobase.h ****   template<typename _Tp, typename _Up>
  88:/Library/DaisyToolchain/0.2.0/arm/arm-none-eabi/include/c++/10.3.1/bits/stl_algobase.h ****     _GLIBCXX14_CONSTEXPR
  89:/Library/DaisyToolchain/0.2.0/arm/arm-none-eabi/include/c++/10.3.1/bits/stl_algobase.h ****     inline int
  90:/Library/DaisyToolchain/0.2.0/arm/arm-none-eabi/include/c++/10.3.1/bits/stl_algobase.h ****     __memcmp(const _Tp* __first1, const _Up* __first2, size_t __num)
  91:/Library/DaisyToolchain/0.2.0/arm/arm-none-eabi/include/c++/10.3.1/bits/stl_algobase.h ****     {
  92:/Library/DaisyToolchain/0.2.0/arm/arm-none-eabi/include/c++/10.3.1/bits/stl_algobase.h **** #if __cplusplus >= 201103L
  93:/Library/DaisyToolchain/0.2.0/arm/arm-none-eabi/include/c++/10.3.1/bits/stl_algobase.h ****       static_assert(sizeof(_Tp) == sizeof(_Up), "can be compared with memcmp");
  94:/Library/DaisyToolchain/0.2.0/arm/arm-none-eabi/include/c++/10.3.1/bits/stl_algobase.h **** #endif
  95:/Library/DaisyToolchain/0.2.0/arm/arm-none-eabi/include/c++/10.3.1/bits/stl_algobase.h **** #ifdef __cpp_lib_is_constant_evaluated
  96:/Library/DaisyToolchain/0.2.0/arm/arm-none-eabi/include/c++/10.3.1/bits/stl_algobase.h ****       if (std::is_constant_evaluated())
  97:/Library/DaisyToolchain/0.2.0/arm/arm-none-eabi/include/c++/10.3.1/bits/stl_algobase.h **** 	{
  98:/Library/DaisyToolchain/0.2.0/arm/arm-none-eabi/include/c++/10.3.1/bits/stl_algobase.h **** 	  for(; __num > 0; ++__first1, ++__first2, --__num)
  99:/Library/DaisyToolchain/0.2.0/arm/arm-none-eabi/include/c++/10.3.1/bits/stl_algobase.h **** 	    if (*__first1 != *__first2)
ARM GAS  /var/folders/1y/_321xjh9623c014x9_qw12rr0000gn/T//ccE17DNe.s 			page 24


 100:/Library/DaisyToolchain/0.2.0/arm/arm-none-eabi/include/c++/10.3.1/bits/stl_algobase.h **** 	      return *__first1 < *__first2 ? -1 : 1;
 101:/Library/DaisyToolchain/0.2.0/arm/arm-none-eabi/include/c++/10.3.1/bits/stl_algobase.h **** 	  return 0;
 102:/Library/DaisyToolchain/0.2.0/arm/arm-none-eabi/include/c++/10.3.1/bits/stl_algobase.h **** 	}
 103:/Library/DaisyToolchain/0.2.0/arm/arm-none-eabi/include/c++/10.3.1/bits/stl_algobase.h ****       else
 104:/Library/DaisyToolchain/0.2.0/arm/arm-none-eabi/include/c++/10.3.1/bits/stl_algobase.h **** #endif
 105:/Library/DaisyToolchain/0.2.0/arm/arm-none-eabi/include/c++/10.3.1/bits/stl_algobase.h **** 	return __builtin_memcmp(__first1, __first2, sizeof(_Tp) * __num);
 106:/Library/DaisyToolchain/0.2.0/arm/arm-none-eabi/include/c++/10.3.1/bits/stl_algobase.h ****     }
 107:/Library/DaisyToolchain/0.2.0/arm/arm-none-eabi/include/c++/10.3.1/bits/stl_algobase.h **** 
 108:/Library/DaisyToolchain/0.2.0/arm/arm-none-eabi/include/c++/10.3.1/bits/stl_algobase.h **** #if __cplusplus < 201103L
 109:/Library/DaisyToolchain/0.2.0/arm/arm-none-eabi/include/c++/10.3.1/bits/stl_algobase.h ****   // See http://gcc.gnu.org/ml/libstdc++/2004-08/msg00167.html: in a
 110:/Library/DaisyToolchain/0.2.0/arm/arm-none-eabi/include/c++/10.3.1/bits/stl_algobase.h ****   // nutshell, we are partially implementing the resolution of DR 187,
 111:/Library/DaisyToolchain/0.2.0/arm/arm-none-eabi/include/c++/10.3.1/bits/stl_algobase.h ****   // when it's safe, i.e., the value_types are equal.
 112:/Library/DaisyToolchain/0.2.0/arm/arm-none-eabi/include/c++/10.3.1/bits/stl_algobase.h ****   template<bool _BoolType>
 113:/Library/DaisyToolchain/0.2.0/arm/arm-none-eabi/include/c++/10.3.1/bits/stl_algobase.h ****     struct __iter_swap
 114:/Library/DaisyToolchain/0.2.0/arm/arm-none-eabi/include/c++/10.3.1/bits/stl_algobase.h ****     {
 115:/Library/DaisyToolchain/0.2.0/arm/arm-none-eabi/include/c++/10.3.1/bits/stl_algobase.h ****       template<typename _ForwardIterator1, typename _ForwardIterator2>
 116:/Library/DaisyToolchain/0.2.0/arm/arm-none-eabi/include/c++/10.3.1/bits/stl_algobase.h **** 	static void
 117:/Library/DaisyToolchain/0.2.0/arm/arm-none-eabi/include/c++/10.3.1/bits/stl_algobase.h **** 	iter_swap(_ForwardIterator1 __a, _ForwardIterator2 __b)
 118:/Library/DaisyToolchain/0.2.0/arm/arm-none-eabi/include/c++/10.3.1/bits/stl_algobase.h **** 	{
 119:/Library/DaisyToolchain/0.2.0/arm/arm-none-eabi/include/c++/10.3.1/bits/stl_algobase.h **** 	  typedef typename iterator_traits<_ForwardIterator1>::value_type
 120:/Library/DaisyToolchain/0.2.0/arm/arm-none-eabi/include/c++/10.3.1/bits/stl_algobase.h **** 	    _ValueType1;
 121:/Library/DaisyToolchain/0.2.0/arm/arm-none-eabi/include/c++/10.3.1/bits/stl_algobase.h **** 	  _ValueType1 __tmp = *__a;
 122:/Library/DaisyToolchain/0.2.0/arm/arm-none-eabi/include/c++/10.3.1/bits/stl_algobase.h **** 	  *__a = *__b;
 123:/Library/DaisyToolchain/0.2.0/arm/arm-none-eabi/include/c++/10.3.1/bits/stl_algobase.h **** 	  *__b = __tmp;
 124:/Library/DaisyToolchain/0.2.0/arm/arm-none-eabi/include/c++/10.3.1/bits/stl_algobase.h **** 	}
 125:/Library/DaisyToolchain/0.2.0/arm/arm-none-eabi/include/c++/10.3.1/bits/stl_algobase.h ****     };
 126:/Library/DaisyToolchain/0.2.0/arm/arm-none-eabi/include/c++/10.3.1/bits/stl_algobase.h **** 
 127:/Library/DaisyToolchain/0.2.0/arm/arm-none-eabi/include/c++/10.3.1/bits/stl_algobase.h ****   template<>
 128:/Library/DaisyToolchain/0.2.0/arm/arm-none-eabi/include/c++/10.3.1/bits/stl_algobase.h ****     struct __iter_swap<true>
 129:/Library/DaisyToolchain/0.2.0/arm/arm-none-eabi/include/c++/10.3.1/bits/stl_algobase.h ****     {
 130:/Library/DaisyToolchain/0.2.0/arm/arm-none-eabi/include/c++/10.3.1/bits/stl_algobase.h ****       template<typename _ForwardIterator1, typename _ForwardIterator2>
 131:/Library/DaisyToolchain/0.2.0/arm/arm-none-eabi/include/c++/10.3.1/bits/stl_algobase.h **** 	static void
 132:/Library/DaisyToolchain/0.2.0/arm/arm-none-eabi/include/c++/10.3.1/bits/stl_algobase.h **** 	iter_swap(_ForwardIterator1 __a, _ForwardIterator2 __b)
 133:/Library/DaisyToolchain/0.2.0/arm/arm-none-eabi/include/c++/10.3.1/bits/stl_algobase.h **** 	{
 134:/Library/DaisyToolchain/0.2.0/arm/arm-none-eabi/include/c++/10.3.1/bits/stl_algobase.h **** 	  swap(*__a, *__b);
 135:/Library/DaisyToolchain/0.2.0/arm/arm-none-eabi/include/c++/10.3.1/bits/stl_algobase.h **** 	}
 136:/Library/DaisyToolchain/0.2.0/arm/arm-none-eabi/include/c++/10.3.1/bits/stl_algobase.h ****     };
 137:/Library/DaisyToolchain/0.2.0/arm/arm-none-eabi/include/c++/10.3.1/bits/stl_algobase.h **** #endif // C++03
 138:/Library/DaisyToolchain/0.2.0/arm/arm-none-eabi/include/c++/10.3.1/bits/stl_algobase.h **** 
 139:/Library/DaisyToolchain/0.2.0/arm/arm-none-eabi/include/c++/10.3.1/bits/stl_algobase.h ****   /**
 140:/Library/DaisyToolchain/0.2.0/arm/arm-none-eabi/include/c++/10.3.1/bits/stl_algobase.h ****    *  @brief Swaps the contents of two iterators.
 141:/Library/DaisyToolchain/0.2.0/arm/arm-none-eabi/include/c++/10.3.1/bits/stl_algobase.h ****    *  @ingroup mutating_algorithms
 142:/Library/DaisyToolchain/0.2.0/arm/arm-none-eabi/include/c++/10.3.1/bits/stl_algobase.h ****    *  @param  __a  An iterator.
 143:/Library/DaisyToolchain/0.2.0/arm/arm-none-eabi/include/c++/10.3.1/bits/stl_algobase.h ****    *  @param  __b  Another iterator.
 144:/Library/DaisyToolchain/0.2.0/arm/arm-none-eabi/include/c++/10.3.1/bits/stl_algobase.h ****    *  @return   Nothing.
 145:/Library/DaisyToolchain/0.2.0/arm/arm-none-eabi/include/c++/10.3.1/bits/stl_algobase.h ****    *
 146:/Library/DaisyToolchain/0.2.0/arm/arm-none-eabi/include/c++/10.3.1/bits/stl_algobase.h ****    *  This function swaps the values pointed to by two iterators, not the
 147:/Library/DaisyToolchain/0.2.0/arm/arm-none-eabi/include/c++/10.3.1/bits/stl_algobase.h ****    *  iterators themselves.
 148:/Library/DaisyToolchain/0.2.0/arm/arm-none-eabi/include/c++/10.3.1/bits/stl_algobase.h ****   */
 149:/Library/DaisyToolchain/0.2.0/arm/arm-none-eabi/include/c++/10.3.1/bits/stl_algobase.h ****   template<typename _ForwardIterator1, typename _ForwardIterator2>
 150:/Library/DaisyToolchain/0.2.0/arm/arm-none-eabi/include/c++/10.3.1/bits/stl_algobase.h ****     _GLIBCXX20_CONSTEXPR
 151:/Library/DaisyToolchain/0.2.0/arm/arm-none-eabi/include/c++/10.3.1/bits/stl_algobase.h ****     inline void
 152:/Library/DaisyToolchain/0.2.0/arm/arm-none-eabi/include/c++/10.3.1/bits/stl_algobase.h ****     iter_swap(_ForwardIterator1 __a, _ForwardIterator2 __b)
 153:/Library/DaisyToolchain/0.2.0/arm/arm-none-eabi/include/c++/10.3.1/bits/stl_algobase.h ****     {
 154:/Library/DaisyToolchain/0.2.0/arm/arm-none-eabi/include/c++/10.3.1/bits/stl_algobase.h ****       // concept requirements
 155:/Library/DaisyToolchain/0.2.0/arm/arm-none-eabi/include/c++/10.3.1/bits/stl_algobase.h ****       __glibcxx_function_requires(_Mutable_ForwardIteratorConcept<
 156:/Library/DaisyToolchain/0.2.0/arm/arm-none-eabi/include/c++/10.3.1/bits/stl_algobase.h **** 				  _ForwardIterator1>)
ARM GAS  /var/folders/1y/_321xjh9623c014x9_qw12rr0000gn/T//ccE17DNe.s 			page 25


 157:/Library/DaisyToolchain/0.2.0/arm/arm-none-eabi/include/c++/10.3.1/bits/stl_algobase.h ****       __glibcxx_function_requires(_Mutable_ForwardIteratorConcept<
 158:/Library/DaisyToolchain/0.2.0/arm/arm-none-eabi/include/c++/10.3.1/bits/stl_algobase.h **** 				  _ForwardIterator2>)
 159:/Library/DaisyToolchain/0.2.0/arm/arm-none-eabi/include/c++/10.3.1/bits/stl_algobase.h **** 
 160:/Library/DaisyToolchain/0.2.0/arm/arm-none-eabi/include/c++/10.3.1/bits/stl_algobase.h **** #if __cplusplus < 201103L
 161:/Library/DaisyToolchain/0.2.0/arm/arm-none-eabi/include/c++/10.3.1/bits/stl_algobase.h ****       typedef typename iterator_traits<_ForwardIterator1>::value_type
 162:/Library/DaisyToolchain/0.2.0/arm/arm-none-eabi/include/c++/10.3.1/bits/stl_algobase.h **** 	_ValueType1;
 163:/Library/DaisyToolchain/0.2.0/arm/arm-none-eabi/include/c++/10.3.1/bits/stl_algobase.h ****       typedef typename iterator_traits<_ForwardIterator2>::value_type
 164:/Library/DaisyToolchain/0.2.0/arm/arm-none-eabi/include/c++/10.3.1/bits/stl_algobase.h **** 	_ValueType2;
 165:/Library/DaisyToolchain/0.2.0/arm/arm-none-eabi/include/c++/10.3.1/bits/stl_algobase.h **** 
 166:/Library/DaisyToolchain/0.2.0/arm/arm-none-eabi/include/c++/10.3.1/bits/stl_algobase.h ****       __glibcxx_function_requires(_ConvertibleConcept<_ValueType1,
 167:/Library/DaisyToolchain/0.2.0/arm/arm-none-eabi/include/c++/10.3.1/bits/stl_algobase.h **** 				  _ValueType2>)
 168:/Library/DaisyToolchain/0.2.0/arm/arm-none-eabi/include/c++/10.3.1/bits/stl_algobase.h ****       __glibcxx_function_requires(_ConvertibleConcept<_ValueType2,
 169:/Library/DaisyToolchain/0.2.0/arm/arm-none-eabi/include/c++/10.3.1/bits/stl_algobase.h **** 				  _ValueType1>)
 170:/Library/DaisyToolchain/0.2.0/arm/arm-none-eabi/include/c++/10.3.1/bits/stl_algobase.h **** 
 171:/Library/DaisyToolchain/0.2.0/arm/arm-none-eabi/include/c++/10.3.1/bits/stl_algobase.h ****       typedef typename iterator_traits<_ForwardIterator1>::reference
 172:/Library/DaisyToolchain/0.2.0/arm/arm-none-eabi/include/c++/10.3.1/bits/stl_algobase.h **** 	_ReferenceType1;
 173:/Library/DaisyToolchain/0.2.0/arm/arm-none-eabi/include/c++/10.3.1/bits/stl_algobase.h ****       typedef typename iterator_traits<_ForwardIterator2>::reference
 174:/Library/DaisyToolchain/0.2.0/arm/arm-none-eabi/include/c++/10.3.1/bits/stl_algobase.h **** 	_ReferenceType2;
 175:/Library/DaisyToolchain/0.2.0/arm/arm-none-eabi/include/c++/10.3.1/bits/stl_algobase.h ****       std::__iter_swap<__are_same<_ValueType1, _ValueType2>::__value
 176:/Library/DaisyToolchain/0.2.0/arm/arm-none-eabi/include/c++/10.3.1/bits/stl_algobase.h **** 	&& __are_same<_ValueType1&, _ReferenceType1>::__value
 177:/Library/DaisyToolchain/0.2.0/arm/arm-none-eabi/include/c++/10.3.1/bits/stl_algobase.h **** 	&& __are_same<_ValueType2&, _ReferenceType2>::__value>::
 178:/Library/DaisyToolchain/0.2.0/arm/arm-none-eabi/include/c++/10.3.1/bits/stl_algobase.h **** 	iter_swap(__a, __b);
 179:/Library/DaisyToolchain/0.2.0/arm/arm-none-eabi/include/c++/10.3.1/bits/stl_algobase.h **** #else
 180:/Library/DaisyToolchain/0.2.0/arm/arm-none-eabi/include/c++/10.3.1/bits/stl_algobase.h ****       // _GLIBCXX_RESOLVE_LIB_DEFECTS
 181:/Library/DaisyToolchain/0.2.0/arm/arm-none-eabi/include/c++/10.3.1/bits/stl_algobase.h ****       // 187. iter_swap underspecified
 182:/Library/DaisyToolchain/0.2.0/arm/arm-none-eabi/include/c++/10.3.1/bits/stl_algobase.h ****       swap(*__a, *__b);
 183:/Library/DaisyToolchain/0.2.0/arm/arm-none-eabi/include/c++/10.3.1/bits/stl_algobase.h **** #endif
 184:/Library/DaisyToolchain/0.2.0/arm/arm-none-eabi/include/c++/10.3.1/bits/stl_algobase.h ****     }
 185:/Library/DaisyToolchain/0.2.0/arm/arm-none-eabi/include/c++/10.3.1/bits/stl_algobase.h **** 
 186:/Library/DaisyToolchain/0.2.0/arm/arm-none-eabi/include/c++/10.3.1/bits/stl_algobase.h ****   /**
 187:/Library/DaisyToolchain/0.2.0/arm/arm-none-eabi/include/c++/10.3.1/bits/stl_algobase.h ****    *  @brief Swap the elements of two sequences.
 188:/Library/DaisyToolchain/0.2.0/arm/arm-none-eabi/include/c++/10.3.1/bits/stl_algobase.h ****    *  @ingroup mutating_algorithms
 189:/Library/DaisyToolchain/0.2.0/arm/arm-none-eabi/include/c++/10.3.1/bits/stl_algobase.h ****    *  @param  __first1  A forward iterator.
 190:/Library/DaisyToolchain/0.2.0/arm/arm-none-eabi/include/c++/10.3.1/bits/stl_algobase.h ****    *  @param  __last1   A forward iterator.
 191:/Library/DaisyToolchain/0.2.0/arm/arm-none-eabi/include/c++/10.3.1/bits/stl_algobase.h ****    *  @param  __first2  A forward iterator.
 192:/Library/DaisyToolchain/0.2.0/arm/arm-none-eabi/include/c++/10.3.1/bits/stl_algobase.h ****    *  @return   An iterator equal to @p first2+(last1-first1).
 193:/Library/DaisyToolchain/0.2.0/arm/arm-none-eabi/include/c++/10.3.1/bits/stl_algobase.h ****    *
 194:/Library/DaisyToolchain/0.2.0/arm/arm-none-eabi/include/c++/10.3.1/bits/stl_algobase.h ****    *  Swaps each element in the range @p [first1,last1) with the
 195:/Library/DaisyToolchain/0.2.0/arm/arm-none-eabi/include/c++/10.3.1/bits/stl_algobase.h ****    *  corresponding element in the range @p [first2,(last1-first1)).
 196:/Library/DaisyToolchain/0.2.0/arm/arm-none-eabi/include/c++/10.3.1/bits/stl_algobase.h ****    *  The ranges must not overlap.
 197:/Library/DaisyToolchain/0.2.0/arm/arm-none-eabi/include/c++/10.3.1/bits/stl_algobase.h ****   */
 198:/Library/DaisyToolchain/0.2.0/arm/arm-none-eabi/include/c++/10.3.1/bits/stl_algobase.h ****   template<typename _ForwardIterator1, typename _ForwardIterator2>
 199:/Library/DaisyToolchain/0.2.0/arm/arm-none-eabi/include/c++/10.3.1/bits/stl_algobase.h ****     _GLIBCXX20_CONSTEXPR
 200:/Library/DaisyToolchain/0.2.0/arm/arm-none-eabi/include/c++/10.3.1/bits/stl_algobase.h ****     _ForwardIterator2
 201:/Library/DaisyToolchain/0.2.0/arm/arm-none-eabi/include/c++/10.3.1/bits/stl_algobase.h ****     swap_ranges(_ForwardIterator1 __first1, _ForwardIterator1 __last1,
 202:/Library/DaisyToolchain/0.2.0/arm/arm-none-eabi/include/c++/10.3.1/bits/stl_algobase.h **** 		_ForwardIterator2 __first2)
 203:/Library/DaisyToolchain/0.2.0/arm/arm-none-eabi/include/c++/10.3.1/bits/stl_algobase.h ****     {
 204:/Library/DaisyToolchain/0.2.0/arm/arm-none-eabi/include/c++/10.3.1/bits/stl_algobase.h ****       // concept requirements
 205:/Library/DaisyToolchain/0.2.0/arm/arm-none-eabi/include/c++/10.3.1/bits/stl_algobase.h ****       __glibcxx_function_requires(_Mutable_ForwardIteratorConcept<
 206:/Library/DaisyToolchain/0.2.0/arm/arm-none-eabi/include/c++/10.3.1/bits/stl_algobase.h **** 				  _ForwardIterator1>)
 207:/Library/DaisyToolchain/0.2.0/arm/arm-none-eabi/include/c++/10.3.1/bits/stl_algobase.h ****       __glibcxx_function_requires(_Mutable_ForwardIteratorConcept<
 208:/Library/DaisyToolchain/0.2.0/arm/arm-none-eabi/include/c++/10.3.1/bits/stl_algobase.h **** 				  _ForwardIterator2>)
 209:/Library/DaisyToolchain/0.2.0/arm/arm-none-eabi/include/c++/10.3.1/bits/stl_algobase.h ****       __glibcxx_requires_valid_range(__first1, __last1);
 210:/Library/DaisyToolchain/0.2.0/arm/arm-none-eabi/include/c++/10.3.1/bits/stl_algobase.h **** 
 211:/Library/DaisyToolchain/0.2.0/arm/arm-none-eabi/include/c++/10.3.1/bits/stl_algobase.h ****       for (; __first1 != __last1; ++__first1, (void)++__first2)
 212:/Library/DaisyToolchain/0.2.0/arm/arm-none-eabi/include/c++/10.3.1/bits/stl_algobase.h **** 	std::iter_swap(__first1, __first2);
 213:/Library/DaisyToolchain/0.2.0/arm/arm-none-eabi/include/c++/10.3.1/bits/stl_algobase.h ****       return __first2;
ARM GAS  /var/folders/1y/_321xjh9623c014x9_qw12rr0000gn/T//ccE17DNe.s 			page 26


 214:/Library/DaisyToolchain/0.2.0/arm/arm-none-eabi/include/c++/10.3.1/bits/stl_algobase.h ****     }
 215:/Library/DaisyToolchain/0.2.0/arm/arm-none-eabi/include/c++/10.3.1/bits/stl_algobase.h **** 
 216:/Library/DaisyToolchain/0.2.0/arm/arm-none-eabi/include/c++/10.3.1/bits/stl_algobase.h ****   /**
 217:/Library/DaisyToolchain/0.2.0/arm/arm-none-eabi/include/c++/10.3.1/bits/stl_algobase.h ****    *  @brief This does what you think it does.
 218:/Library/DaisyToolchain/0.2.0/arm/arm-none-eabi/include/c++/10.3.1/bits/stl_algobase.h ****    *  @ingroup sorting_algorithms
 219:/Library/DaisyToolchain/0.2.0/arm/arm-none-eabi/include/c++/10.3.1/bits/stl_algobase.h ****    *  @param  __a  A thing of arbitrary type.
 220:/Library/DaisyToolchain/0.2.0/arm/arm-none-eabi/include/c++/10.3.1/bits/stl_algobase.h ****    *  @param  __b  Another thing of arbitrary type.
 221:/Library/DaisyToolchain/0.2.0/arm/arm-none-eabi/include/c++/10.3.1/bits/stl_algobase.h ****    *  @return   The lesser of the parameters.
 222:/Library/DaisyToolchain/0.2.0/arm/arm-none-eabi/include/c++/10.3.1/bits/stl_algobase.h ****    *
 223:/Library/DaisyToolchain/0.2.0/arm/arm-none-eabi/include/c++/10.3.1/bits/stl_algobase.h ****    *  This is the simple classic generic implementation.  It will work on
 224:/Library/DaisyToolchain/0.2.0/arm/arm-none-eabi/include/c++/10.3.1/bits/stl_algobase.h ****    *  temporary expressions, since they are only evaluated once, unlike a
 225:/Library/DaisyToolchain/0.2.0/arm/arm-none-eabi/include/c++/10.3.1/bits/stl_algobase.h ****    *  preprocessor macro.
 226:/Library/DaisyToolchain/0.2.0/arm/arm-none-eabi/include/c++/10.3.1/bits/stl_algobase.h ****   */
 227:/Library/DaisyToolchain/0.2.0/arm/arm-none-eabi/include/c++/10.3.1/bits/stl_algobase.h ****   template<typename _Tp>
 228:/Library/DaisyToolchain/0.2.0/arm/arm-none-eabi/include/c++/10.3.1/bits/stl_algobase.h ****     _GLIBCXX14_CONSTEXPR
 229:/Library/DaisyToolchain/0.2.0/arm/arm-none-eabi/include/c++/10.3.1/bits/stl_algobase.h ****     inline const _Tp&
 230:/Library/DaisyToolchain/0.2.0/arm/arm-none-eabi/include/c++/10.3.1/bits/stl_algobase.h ****     min(const _Tp& __a, const _Tp& __b)
 231:/Library/DaisyToolchain/0.2.0/arm/arm-none-eabi/include/c++/10.3.1/bits/stl_algobase.h ****     {
 232:/Library/DaisyToolchain/0.2.0/arm/arm-none-eabi/include/c++/10.3.1/bits/stl_algobase.h ****       // concept requirements
 233:/Library/DaisyToolchain/0.2.0/arm/arm-none-eabi/include/c++/10.3.1/bits/stl_algobase.h ****       __glibcxx_function_requires(_LessThanComparableConcept<_Tp>)
 234:/Library/DaisyToolchain/0.2.0/arm/arm-none-eabi/include/c++/10.3.1/bits/stl_algobase.h ****       //return __b < __a ? __b : __a;
 235:/Library/DaisyToolchain/0.2.0/arm/arm-none-eabi/include/c++/10.3.1/bits/stl_algobase.h ****       if (__b < __a)
 236:/Library/DaisyToolchain/0.2.0/arm/arm-none-eabi/include/c++/10.3.1/bits/stl_algobase.h **** 	return __b;
 237:/Library/DaisyToolchain/0.2.0/arm/arm-none-eabi/include/c++/10.3.1/bits/stl_algobase.h ****       return __a;
 238:/Library/DaisyToolchain/0.2.0/arm/arm-none-eabi/include/c++/10.3.1/bits/stl_algobase.h ****     }
 239:/Library/DaisyToolchain/0.2.0/arm/arm-none-eabi/include/c++/10.3.1/bits/stl_algobase.h **** 
 240:/Library/DaisyToolchain/0.2.0/arm/arm-none-eabi/include/c++/10.3.1/bits/stl_algobase.h ****   /**
 241:/Library/DaisyToolchain/0.2.0/arm/arm-none-eabi/include/c++/10.3.1/bits/stl_algobase.h ****    *  @brief This does what you think it does.
 242:/Library/DaisyToolchain/0.2.0/arm/arm-none-eabi/include/c++/10.3.1/bits/stl_algobase.h ****    *  @ingroup sorting_algorithms
 243:/Library/DaisyToolchain/0.2.0/arm/arm-none-eabi/include/c++/10.3.1/bits/stl_algobase.h ****    *  @param  __a  A thing of arbitrary type.
 244:/Library/DaisyToolchain/0.2.0/arm/arm-none-eabi/include/c++/10.3.1/bits/stl_algobase.h ****    *  @param  __b  Another thing of arbitrary type.
 245:/Library/DaisyToolchain/0.2.0/arm/arm-none-eabi/include/c++/10.3.1/bits/stl_algobase.h ****    *  @return   The greater of the parameters.
 246:/Library/DaisyToolchain/0.2.0/arm/arm-none-eabi/include/c++/10.3.1/bits/stl_algobase.h ****    *
 247:/Library/DaisyToolchain/0.2.0/arm/arm-none-eabi/include/c++/10.3.1/bits/stl_algobase.h ****    *  This is the simple classic generic implementation.  It will work on
 248:/Library/DaisyToolchain/0.2.0/arm/arm-none-eabi/include/c++/10.3.1/bits/stl_algobase.h ****    *  temporary expressions, since they are only evaluated once, unlike a
 249:/Library/DaisyToolchain/0.2.0/arm/arm-none-eabi/include/c++/10.3.1/bits/stl_algobase.h ****    *  preprocessor macro.
 250:/Library/DaisyToolchain/0.2.0/arm/arm-none-eabi/include/c++/10.3.1/bits/stl_algobase.h ****   */
 251:/Library/DaisyToolchain/0.2.0/arm/arm-none-eabi/include/c++/10.3.1/bits/stl_algobase.h ****   template<typename _Tp>
 252:/Library/DaisyToolchain/0.2.0/arm/arm-none-eabi/include/c++/10.3.1/bits/stl_algobase.h ****     _GLIBCXX14_CONSTEXPR
 253:/Library/DaisyToolchain/0.2.0/arm/arm-none-eabi/include/c++/10.3.1/bits/stl_algobase.h ****     inline const _Tp&
 254:/Library/DaisyToolchain/0.2.0/arm/arm-none-eabi/include/c++/10.3.1/bits/stl_algobase.h ****     max(const _Tp& __a, const _Tp& __b)
 239              		.loc 5 254 5 view .LVU42
 240              	.LBE306:
 293:Dubby.cpp     ****                                     0),
 241              		.loc 2 293 61 is_stmt 0 view .LVU43
 242 0060 049A     		ldr	r2, [sp, #16]
 293:Dubby.cpp     ****                                     0),
 243              		.loc 2 293 63 view .LVU44
 244 0062 9FED617A 		vldr.32	s14, .L44
 293:Dubby.cpp     ****                                     0),
 245              		.loc 2 293 61 view .LVU45
 246 0066 F2EC017A 		vldmia.32	r2!, {s15}
 293:Dubby.cpp     ****                                     0),
 247              		.loc 2 293 63 view .LVU46
 248 006a 67EE877A 		vmul.f32	s15, s15, s14
 293:Dubby.cpp     ****                                     0),
 249              		.loc 2 293 61 view .LVU47
ARM GAS  /var/folders/1y/_321xjh9623c014x9_qw12rr0000gn/T//ccE17DNe.s 			page 27


 250 006e 0492     		str	r2, [sp, #16]
 293:Dubby.cpp     ****                                     0),
 251              		.loc 2 293 43 view .LVU48
 252 0070 FDEEE77A 		vcvt.s32.f32	s15, s15
 253              	.LBB309:
 254              	.LBB307:
 255:/Library/DaisyToolchain/0.2.0/arm/arm-none-eabi/include/c++/10.3.1/bits/stl_algobase.h ****     {
 256:/Library/DaisyToolchain/0.2.0/arm/arm-none-eabi/include/c++/10.3.1/bits/stl_algobase.h ****       // concept requirements
 257:/Library/DaisyToolchain/0.2.0/arm/arm-none-eabi/include/c++/10.3.1/bits/stl_algobase.h ****       __glibcxx_function_requires(_LessThanComparableConcept<_Tp>)
 258:/Library/DaisyToolchain/0.2.0/arm/arm-none-eabi/include/c++/10.3.1/bits/stl_algobase.h ****       //return  __a < __b ? __b : __a;
 259:/Library/DaisyToolchain/0.2.0/arm/arm-none-eabi/include/c++/10.3.1/bits/stl_algobase.h ****       if (__a < __b)
 255              		.loc 5 259 7 view .LVU49
 256 0074 17EE902A 		vmov	r2, s15	@ int
 257 0078 D2F11804 		rsbs	r4, r2, #24
 258 007c 00F1AD80 		bmi	.L26
 259              	.LVL15:
 260              		.loc 5 259 7 view .LVU50
 261              	.LBE307:
 262              	.LBE309:
 263              	.LBB310:
 264              	.LBI310:
 230:/Library/DaisyToolchain/0.2.0/arm/arm-none-eabi/include/c++/10.3.1/bits/stl_algobase.h ****     {
 265              		.loc 5 230 5 is_stmt 1 view .LVU51
 266              	.LBB311:
 235:/Library/DaisyToolchain/0.2.0/arm/arm-none-eabi/include/c++/10.3.1/bits/stl_algobase.h **** 	return __b;
 267              		.loc 5 235 7 is_stmt 0 view .LVU52
 268 0080 312C     		cmp	r4, #49
 269 0082 40F3AB80 		ble	.L7
 270 0086 3224     		movs	r4, #50
 271              	.LVL16:
 272              	.L8:
 235:/Library/DaisyToolchain/0.2.0/arm/arm-none-eabi/include/c++/10.3.1/bits/stl_algobase.h **** 	return __b;
 273              		.loc 5 235 7 view .LVU53
 274              	.LBE311:
 275              	.LBE310:
 296:Dubby.cpp     ****             if(i != 0)
 276              		.loc 2 296 13 is_stmt 1 view .LVU54
 296:Dubby.cpp     ****             if(i != 0)
 277              		.loc 2 296 46 is_stmt 0 view .LVU55
 278 0088 019A     		ldr	r2, [sp, #4]
 297:Dubby.cpp     ****             {
 279              		.loc 2 297 13 view .LVU56
 280 008a B9F1010F 		cmp	r9, #1
 296:Dubby.cpp     ****             if(i != 0)
 281              		.loc 2 296 46 view .LVU57
 282 008e 4FEAD215 		lsr	r5, r2, #7
 296:Dubby.cpp     ****             if(i != 0)
 283              		.loc 2 296 23 view .LVU58
 284 0092 05F10105 		add	r5, r5, #1
 285              	.LVL17:
 297:Dubby.cpp     ****             {
 286              		.loc 2 297 13 is_stmt 1 view .LVU59
 287 0096 DCD0     		beq	.L9
 299:Dubby.cpp     ****             }
 288              		.loc 2 299 17 view .LVU60
 289              	.LBB312:
 290              	.LBB313:
ARM GAS  /var/folders/1y/_321xjh9623c014x9_qw12rr0000gn/T//ccE17DNe.s 			page 28


 227:../../libDaisy//src/hid/disp/display.h ****         int_fast16_t deltaY = abs((int_fast16_t)y2 - (int_fast16_t)y1);
 291              		.loc 3 227 52 is_stmt 0 view .LVU61
 292 0098 EF1A     		subs	r7, r5, r3
 228:../../libDaisy//src/hid/disp/display.h ****         int_fast16_t signX  = ((x1 < x2) ? 1 : -1);
 293              		.loc 3 228 52 view .LVU62
 294 009a A4EB060E 		sub	lr, r4, r6
 295              	.LBE313:
 296              	.LBE312:
 299:Dubby.cpp     ****             }
 297              		.loc 2 299 33 view .LVU63
 298 009e 1946     		mov	r1, r3
 299 00a0 3246     		mov	r2, r6
 300              	.LVL18:
 301              	.LBB332:
 302              	.LBI312:
 221:../../libDaisy//src/hid/disp/display.h ****                   uint_fast8_t y1,
 303              		.loc 3 221 10 is_stmt 1 view .LVU64
 304              	.LBB330:
 227:../../libDaisy//src/hid/disp/display.h ****         int_fast16_t deltaY = abs((int_fast16_t)y2 - (int_fast16_t)y1);
 305              		.loc 3 227 22 is_stmt 0 view .LVU65
 306 00a2 002F     		cmp	r7, #0
 307 00a4 B8BF     		it	lt
 308 00a6 7F42     		rsblt	r7, r7, #0
 309              	.LVL19:
 228:../../libDaisy//src/hid/disp/display.h ****         int_fast16_t signX  = ((x1 < x2) ? 1 : -1);
 310              		.loc 3 228 22 view .LVU66
 311 00a8 BEF1000F 		cmp	lr, #0
 312 00ac B8BF     		it	lt
 313 00ae CEF1000E 		rsblt	lr, lr, #0
 314              	.LVL20:
 229:../../libDaisy//src/hid/disp/display.h ****         int_fast16_t signY  = ((y1 < y2) ? 1 : -1);
 315              		.loc 3 229 42 view .LVU67
 316 00b2 9D42     		cmp	r5, r3
 317 00b4 8CBF     		ite	hi
 318 00b6 0120     		movhi	r0, #1
 319 00b8 4FF0FF30 		movls	r0, #-1
 230:../../libDaisy//src/hid/disp/display.h ****         int_fast16_t error  = deltaX - deltaY;
 320              		.loc 3 230 42 view .LVU68
 321 00bc A642     		cmp	r6, r4
 229:../../libDaisy//src/hid/disp/display.h ****         int_fast16_t signY  = ((y1 < y2) ? 1 : -1);
 322              		.loc 3 229 42 view .LVU69
 323 00be 0290     		str	r0, [sp, #8]
 324              	.LVL21:
 231:../../libDaisy//src/hid/disp/display.h ****         int_fast16_t error2;
 325              		.loc 3 231 22 view .LVU70
 326 00c0 A7EB0E00 		sub	r0, r7, lr
 327              	.LVL22:
 231:../../libDaisy//src/hid/disp/display.h ****         int_fast16_t error2;
 328              		.loc 3 231 22 view .LVU71
 329 00c4 0590     		str	r0, [sp, #20]
 230:../../libDaisy//src/hid/disp/display.h ****         int_fast16_t error  = deltaX - deltaY;
 330              		.loc 3 230 42 view .LVU72
 331 00c6 C0F08B80 		bcc	.L24
 332              	.LVL23:
 333              	.LBB314:
 334              	.LBI314:
 335              		.loc 1 42 10 is_stmt 1 view .LVU73
ARM GAS  /var/folders/1y/_321xjh9623c014x9_qw12rr0000gn/T//ccE17DNe.s 			page 29


 336              	.LBB315:
 337              	.LBI315:
 352:../../libDaisy//src/dev/oled_ssd130x.h ****     {
 338              		.loc 4 352 10 view .LVU74
 339              	.LBE315:
 340              	.LBE314:
 230:../../libDaisy//src/hid/disp/display.h ****         int_fast16_t error  = deltaX - deltaY;
 341              		.loc 3 230 42 is_stmt 0 view .LVU75
 342 00ca 4FF0FF30 		mov	r0, #-1
 343              	.LVL24:
 230:../../libDaisy//src/hid/disp/display.h ****         int_fast16_t error  = deltaX - deltaY;
 344              		.loc 3 230 42 view .LVU76
 345 00ce 0390     		str	r0, [sp, #12]
 346              	.LVL25:
 347              	.L23:
 348              	.LBB321:
 349              	.LBB318:
 350              	.LBB316:
 357:../../libDaisy//src/dev/oled_ssd130x.h ****         else
 351              		.loc 4 357 28 view .LVU77
 352 00d0 4FEAD40C 		lsr	ip, r4, #3
 357:../../libDaisy//src/dev/oled_ssd130x.h ****         else
 353              		.loc 4 357 48 view .LVU78
 354 00d4 4FF0010B 		mov	fp, #1
 357:../../libDaisy//src/dev/oled_ssd130x.h ****         else
 355              		.loc 4 357 54 view .LVU79
 356 00d8 04F00708 		and	r8, r4, #7
 357              	.LBE316:
 358              	.LBE318:
 359              	.LBE321:
 239:../../libDaisy//src/hid/disp/display.h ****         {
 360              		.loc 3 239 26 view .LVU80
 361 00dc 9D42     		cmp	r5, r3
 362              	.LBB322:
 363              	.LBB319:
 364              	.LBB317:
 357:../../libDaisy//src/dev/oled_ssd130x.h ****         else
 365              		.loc 4 357 42 view .LVU81
 366 00de 05EBCC1C 		add	ip, r5, ip, lsl #7
 357:../../libDaisy//src/dev/oled_ssd130x.h ****         else
 367              		.loc 4 357 48 view .LVU82
 368 00e2 0BFA08F8 		lsl	r8, fp, r8
 357:../../libDaisy//src/dev/oled_ssd130x.h ****         else
 369              		.loc 4 357 42 view .LVU83
 370 00e6 D444     		add	ip, ip, r10
 371 00e8 9CF8BCB4 		ldrb	fp, [ip, #1212]	@ zero_extendqisi2
 372 00ec 48EA0B08 		orr	r8, r8, fp
 373 00f0 8CF8BC84 		strb	r8, [ip, #1212]
 374              	.LVL26:
 357:../../libDaisy//src/dev/oled_ssd130x.h ****         else
 375              		.loc 4 357 42 view .LVU84
 376              	.LBE317:
 377              	.LBE319:
 378              	.LBE322:
 239:../../libDaisy//src/hid/disp/display.h ****         {
 379              		.loc 3 239 26 is_stmt 1 view .LVU85
 380 00f4 01D1     		bne	.L14
ARM GAS  /var/folders/1y/_321xjh9623c014x9_qw12rr0000gn/T//ccE17DNe.s 			page 30


 381 00f6 A642     		cmp	r6, r4
 382 00f8 28D0     		beq	.L12
 383              	.L14:
 384              	.LVL27:
 243:../../libDaisy//src/hid/disp/display.h ****             {
 385              		.loc 3 243 23 is_stmt 0 view .LVU86
 386 00fa CEF10008 		rsb	r8, lr, #0
 387 00fe 0598     		ldr	r0, [sp, #20]
 388              	.LVL28:
 389              	.L16:
 390              	.LBB323:
 391              	.LBI323:
 392              		.loc 1 42 10 is_stmt 1 view .LVU87
 393              	.LBB324:
 394              	.LBI324:
 352:../../libDaisy//src/dev/oled_ssd130x.h ****     {
 395              		.loc 4 352 10 view .LVU88
 396              	.LBB325:
 357:../../libDaisy//src/dev/oled_ssd130x.h ****         else
 397              		.loc 4 357 48 is_stmt 0 view .LVU89
 398 0100 4FF0010C 		mov	ip, #1
 357:../../libDaisy//src/dev/oled_ssd130x.h ****         else
 399              		.loc 4 357 28 view .LVU90
 400 0104 D308     		lsrs	r3, r2, #3
 357:../../libDaisy//src/dev/oled_ssd130x.h ****         else
 401              		.loc 4 357 54 view .LVU91
 402 0106 02F00706 		and	r6, r2, #7
 354:../../libDaisy//src/dev/oled_ssd130x.h ****             return;
 403              		.loc 4 354 9 view .LVU92
 404 010a 7F29     		cmp	r1, #127
 357:../../libDaisy//src/dev/oled_ssd130x.h ****         else
 405              		.loc 4 357 42 view .LVU93
 406 010c 01EBC313 		add	r3, r1, r3, lsl #7
 407              	.LBE325:
 408              	.LBE324:
 409              	.LBE323:
 242:../../libDaisy//src/hid/disp/display.h ****             if(error2 > -deltaY)
 410              		.loc 3 242 20 view .LVU94
 411 0110 00FA0CFB 		lsl	fp, r0, ip
 412              	.LVL29:
 413              	.LBB328:
 414              	.LBB327:
 415              	.LBB326:
 357:../../libDaisy//src/dev/oled_ssd130x.h ****         else
 416              		.loc 4 357 48 view .LVU95
 417 0114 0CFA06F6 		lsl	r6, ip, r6
 354:../../libDaisy//src/dev/oled_ssd130x.h ****             return;
 418              		.loc 4 354 9 view .LVU96
 419 0118 08D8     		bhi	.L17
 420 011a 3F2A     		cmp	r2, #63
 357:../../libDaisy//src/dev/oled_ssd130x.h ****         else
 421              		.loc 4 357 42 view .LVU97
 422 011c 5344     		add	r3, r3, r10
 354:../../libDaisy//src/dev/oled_ssd130x.h ****             return;
 423              		.loc 4 354 9 view .LVU98
 424 011e 05D8     		bhi	.L17
 357:../../libDaisy//src/dev/oled_ssd130x.h ****         else
ARM GAS  /var/folders/1y/_321xjh9623c014x9_qw12rr0000gn/T//ccE17DNe.s 			page 31


 425              		.loc 4 357 42 view .LVU99
 426 0120 93F8BCC4 		ldrb	ip, [r3, #1212]	@ zero_extendqisi2
 427 0124 46EA0C06 		orr	r6, r6, ip
 428 0128 83F8BC64 		strb	r6, [r3, #1212]
 429              	.L17:
 357:../../libDaisy//src/dev/oled_ssd130x.h ****         else
 430              		.loc 4 357 42 view .LVU100
 431              	.LBE326:
 432              	.LBE327:
 433              	.LBE328:
 243:../../libDaisy//src/hid/disp/display.h ****             {
 434              		.loc 3 243 13 view .LVU101
 435 012c B8EB400F 		cmp	r8, r0, lsl #1
 436 0130 03DA     		bge	.L18
 246:../../libDaisy//src/hid/disp/display.h ****             }
 437              		.loc 3 246 20 view .LVU102
 438 0132 029B     		ldr	r3, [sp, #8]
 245:../../libDaisy//src/hid/disp/display.h ****                 x1 += signX;
 439              		.loc 3 245 23 view .LVU103
 440 0134 A0EB0E00 		sub	r0, r0, lr
 441              	.LVL30:
 246:../../libDaisy//src/hid/disp/display.h ****             }
 442              		.loc 3 246 20 view .LVU104
 443 0138 1944     		add	r1, r1, r3
 444              	.LVL31:
 445              	.L18:
 249:../../libDaisy//src/hid/disp/display.h ****             {
 446              		.loc 3 249 13 view .LVU105
 447 013a 5F45     		cmp	r7, fp
 448 013c 02DD     		ble	.L19
 252:../../libDaisy//src/hid/disp/display.h ****             }
 449              		.loc 3 252 20 view .LVU106
 450 013e 039B     		ldr	r3, [sp, #12]
 251:../../libDaisy//src/hid/disp/display.h ****                 y1 += signY;
 451              		.loc 3 251 23 view .LVU107
 452 0140 3844     		add	r0, r0, r7
 453              	.LVL32:
 252:../../libDaisy//src/hid/disp/display.h ****             }
 454              		.loc 3 252 20 view .LVU108
 455 0142 1A44     		add	r2, r2, r3
 456              	.LVL33:
 457              	.L19:
 239:../../libDaisy//src/hid/disp/display.h ****         {
 458              		.loc 3 239 26 is_stmt 1 view .LVU109
 459 0144 8D42     		cmp	r5, r1
 460 0146 DBD1     		bne	.L16
 239:../../libDaisy//src/hid/disp/display.h ****         {
 461              		.loc 3 239 26 is_stmt 0 view .LVU110
 462 0148 9442     		cmp	r4, r2
 463 014a D9D1     		bne	.L16
 464              	.LVL34:
 465              	.L12:
 239:../../libDaisy//src/hid/disp/display.h ****         {
 466              		.loc 3 239 26 view .LVU111
 467              	.LBE330:
 468              	.LBE332:
 469              		.loc 2 301 13 is_stmt 1 view .LVU112
ARM GAS  /var/folders/1y/_321xjh9623c014x9_qw12rr0000gn/T//ccE17DNe.s 			page 32


 302:Dubby.cpp     ****             prev_y = y;
 470              		.loc 2 302 13 view .LVU113
 471              		.loc 2 302 13 is_stmt 0 view .LVU114
 472              	.LBE305:
 290:Dubby.cpp     ****         {
 473              		.loc 2 290 9 is_stmt 1 view .LVU115
 290:Dubby.cpp     ****         {
 474              		.loc 2 290 29 view .LVU116
 475 014c B9F1800F 		cmp	r9, #128
 476 0150 7FF47FAF 		bne	.L9
 477              	.LBE304:
 478              	.LBB336:
 479              	.LBB337:
 480              	.LBB338:
 481              	.LBB339:
 482              	.LBB340:
 124:../../libDaisy//src/dev/oled_ssd130x.h ****         spi_.BlockingTransmit(&cmd, 1);
 483              		.loc 4 124 24 is_stmt 0 view .LVU117
 484 0154 0AF59667 		add	r7, r10, #1200
 485 0158 0AF59766 		add	r6, r10, #1208
 486 015c 0AF2BC44 		addw	r4, r10, #1212
 125:../../libDaisy//src/dev/oled_ssd130x.h ****     };
 487              		.loc 4 125 30 view .LVU118
 488 0160 B025     		movs	r5, #176
 489              	.LVL35:
 490              	.L22:
 125:../../libDaisy//src/dev/oled_ssd130x.h ****     };
 491              		.loc 4 125 30 view .LVU119
 492 0162 4FF00008 		mov	r8, #0
 124:../../libDaisy//src/dev/oled_ssd130x.h ****         spi_.BlockingTransmit(&cmd, 1);
 493              		.loc 4 124 23 view .LVU120
 494 0166 3046     		mov	r0, r6
 495 0168 8DF81F50 		strb	r5, [sp, #31]
 496              	.LVL36:
 124:../../libDaisy//src/dev/oled_ssd130x.h ****         spi_.BlockingTransmit(&cmd, 1);
 497              		.loc 4 124 23 view .LVU121
 498              	.LBE340:
 499              	.LBI339:
 122:../../libDaisy//src/dev/oled_ssd130x.h ****     {
 500              		.loc 4 122 10 is_stmt 1 view .LVU122
 501              	.LBB341:
 124:../../libDaisy//src/dev/oled_ssd130x.h ****         spi_.BlockingTransmit(&cmd, 1);
 502              		.loc 4 124 9 view .LVU123
 503              	.LBE341:
 504              	.LBE339:
 360:../../libDaisy//src/dev/oled_ssd130x.h ****     }
 361:../../libDaisy//src/dev/oled_ssd130x.h **** 
 362:../../libDaisy//src/dev/oled_ssd130x.h ****     void Fill(bool on)
 363:../../libDaisy//src/dev/oled_ssd130x.h ****     {
 364:../../libDaisy//src/dev/oled_ssd130x.h ****         for(size_t i = 0; i < sizeof(buffer_); i++)
 365:../../libDaisy//src/dev/oled_ssd130x.h ****         {
 366:../../libDaisy//src/dev/oled_ssd130x.h ****             buffer_[i] = on ? 0xff : 0x00;
 367:../../libDaisy//src/dev/oled_ssd130x.h ****         }
 368:../../libDaisy//src/dev/oled_ssd130x.h ****     };
 369:../../libDaisy//src/dev/oled_ssd130x.h **** 
 370:../../libDaisy//src/dev/oled_ssd130x.h ****     /**
 371:../../libDaisy//src/dev/oled_ssd130x.h ****      * Update the display 
ARM GAS  /var/folders/1y/_321xjh9623c014x9_qw12rr0000gn/T//ccE17DNe.s 			page 33


 372:../../libDaisy//src/dev/oled_ssd130x.h ****     */
 373:../../libDaisy//src/dev/oled_ssd130x.h ****     void Update()
 374:../../libDaisy//src/dev/oled_ssd130x.h ****     {
 375:../../libDaisy//src/dev/oled_ssd130x.h ****         uint8_t i;
 376:../../libDaisy//src/dev/oled_ssd130x.h ****         uint8_t high_column_addr;
 377:../../libDaisy//src/dev/oled_ssd130x.h ****         switch(height)
 378:../../libDaisy//src/dev/oled_ssd130x.h ****         {
 379:../../libDaisy//src/dev/oled_ssd130x.h ****             case 32: high_column_addr = 0x12; break;
 380:../../libDaisy//src/dev/oled_ssd130x.h **** 
 381:../../libDaisy//src/dev/oled_ssd130x.h ****             default: high_column_addr = 0x10; break;
 382:../../libDaisy//src/dev/oled_ssd130x.h ****         }
 383:../../libDaisy//src/dev/oled_ssd130x.h ****         for(i = 0; i < (height / 8); i++)
 505              		.loc 4 383 22 is_stmt 0 view .LVU124
 506 016c 0135     		adds	r5, r5, #1
 507              	.LVL37:
 508              	.LBB344:
 509              	.LBB342:
 124:../../libDaisy//src/dev/oled_ssd130x.h ****         spi_.BlockingTransmit(&cmd, 1);
 510              		.loc 4 124 23 view .LVU125
 511 016e 4146     		mov	r1, r8
 512 0170 FFF7FEFF 		bl	dsy_gpio_write
 513              	.LVL38:
 125:../../libDaisy//src/dev/oled_ssd130x.h ****     };
 514              		.loc 4 125 9 is_stmt 1 view .LVU126
 125:../../libDaisy//src/dev/oled_ssd130x.h ****     };
 515              		.loc 4 125 30 is_stmt 0 view .LVU127
 516 0174 6423     		movs	r3, #100
 517 0176 0122     		movs	r2, #1
 518 0178 0DF11F01 		add	r1, sp, #31
 519 017c 3846     		mov	r0, r7
 520              	.LBE342:
 521              	.LBE344:
 522              		.loc 4 383 22 view .LVU128
 523 017e EDB2     		uxtb	r5, r5
 524              	.LBB345:
 525              	.LBB343:
 125:../../libDaisy//src/dev/oled_ssd130x.h ****     };
 526              		.loc 4 125 30 view .LVU129
 527 0180 FFF7FEFF 		bl	_ZN5daisy9SpiHandle16BlockingTransmitEPhjm
 528              	.LVL39:
 125:../../libDaisy//src/dev/oled_ssd130x.h ****     };
 529              		.loc 4 125 30 view .LVU130
 530              	.LBE343:
 531              	.LBE345:
 532              	.LBB346:
 533              	.LBB347:
 124:../../libDaisy//src/dev/oled_ssd130x.h ****         spi_.BlockingTransmit(&cmd, 1);
 534              		.loc 4 124 23 view .LVU131
 535 0184 4146     		mov	r1, r8
 536 0186 3046     		mov	r0, r6
 537 0188 8DF81F80 		strb	r8, [sp, #31]
 538              	.LVL40:
 124:../../libDaisy//src/dev/oled_ssd130x.h ****         spi_.BlockingTransmit(&cmd, 1);
 539              		.loc 4 124 23 view .LVU132
 540              	.LBE347:
 541              	.LBI346:
 122:../../libDaisy//src/dev/oled_ssd130x.h ****     {
ARM GAS  /var/folders/1y/_321xjh9623c014x9_qw12rr0000gn/T//ccE17DNe.s 			page 34


 542              		.loc 4 122 10 is_stmt 1 view .LVU133
 543              	.LBB348:
 124:../../libDaisy//src/dev/oled_ssd130x.h ****         spi_.BlockingTransmit(&cmd, 1);
 544              		.loc 4 124 9 view .LVU134
 124:../../libDaisy//src/dev/oled_ssd130x.h ****         spi_.BlockingTransmit(&cmd, 1);
 545              		.loc 4 124 23 is_stmt 0 view .LVU135
 546 018c FFF7FEFF 		bl	dsy_gpio_write
 547              	.LVL41:
 125:../../libDaisy//src/dev/oled_ssd130x.h ****     };
 548              		.loc 4 125 9 is_stmt 1 view .LVU136
 125:../../libDaisy//src/dev/oled_ssd130x.h ****     };
 549              		.loc 4 125 30 is_stmt 0 view .LVU137
 550 0190 0122     		movs	r2, #1
 551 0192 6423     		movs	r3, #100
 552 0194 0DF11F01 		add	r1, sp, #31
 553 0198 3846     		mov	r0, r7
 554 019a FFF7FEFF 		bl	_ZN5daisy9SpiHandle16BlockingTransmitEPhjm
 555              	.LVL42:
 125:../../libDaisy//src/dev/oled_ssd130x.h ****     };
 556              		.loc 4 125 30 view .LVU138
 557 019e 1023     		movs	r3, #16
 558              	.LBE348:
 559              	.LBE346:
 560              	.LBB349:
 561              	.LBB350:
 124:../../libDaisy//src/dev/oled_ssd130x.h ****         spi_.BlockingTransmit(&cmd, 1);
 562              		.loc 4 124 23 view .LVU139
 563 01a0 4146     		mov	r1, r8
 564 01a2 3046     		mov	r0, r6
 565 01a4 8DF81F30 		strb	r3, [sp, #31]
 566              	.LVL43:
 124:../../libDaisy//src/dev/oled_ssd130x.h ****         spi_.BlockingTransmit(&cmd, 1);
 567              		.loc 4 124 23 view .LVU140
 568              	.LBE350:
 569              	.LBI349:
 122:../../libDaisy//src/dev/oled_ssd130x.h ****     {
 570              		.loc 4 122 10 is_stmt 1 view .LVU141
 571              	.LBB351:
 124:../../libDaisy//src/dev/oled_ssd130x.h ****         spi_.BlockingTransmit(&cmd, 1);
 572              		.loc 4 124 9 view .LVU142
 124:../../libDaisy//src/dev/oled_ssd130x.h ****         spi_.BlockingTransmit(&cmd, 1);
 573              		.loc 4 124 23 is_stmt 0 view .LVU143
 574 01a8 FFF7FEFF 		bl	dsy_gpio_write
 575              	.LVL44:
 125:../../libDaisy//src/dev/oled_ssd130x.h ****     };
 576              		.loc 4 125 9 is_stmt 1 view .LVU144
 125:../../libDaisy//src/dev/oled_ssd130x.h ****     };
 577              		.loc 4 125 30 is_stmt 0 view .LVU145
 578 01ac 6423     		movs	r3, #100
 579 01ae 0122     		movs	r2, #1
 580 01b0 0DF11F01 		add	r1, sp, #31
 581 01b4 3846     		mov	r0, r7
 582 01b6 FFF7FEFF 		bl	_ZN5daisy9SpiHandle16BlockingTransmitEPhjm
 583              	.LVL45:
 125:../../libDaisy//src/dev/oled_ssd130x.h ****     };
 584              		.loc 4 125 30 view .LVU146
 585              	.LBE351:
ARM GAS  /var/folders/1y/_321xjh9623c014x9_qw12rr0000gn/T//ccE17DNe.s 			page 35


 586              	.LBE349:
 587              	.LBB352:
 588              	.LBI352:
 128:../../libDaisy//src/dev/oled_ssd130x.h ****     {
 589              		.loc 4 128 10 is_stmt 1 view .LVU147
 590              	.LBB353:
 130:../../libDaisy//src/dev/oled_ssd130x.h ****         spi_.BlockingTransmit(buff, size);
 591              		.loc 4 130 9 view .LVU148
 130:../../libDaisy//src/dev/oled_ssd130x.h ****         spi_.BlockingTransmit(buff, size);
 592              		.loc 4 130 23 is_stmt 0 view .LVU149
 593 01ba 0121     		movs	r1, #1
 594 01bc 3046     		mov	r0, r6
 595 01be FFF7FEFF 		bl	dsy_gpio_write
 596              	.LVL46:
 131:../../libDaisy//src/dev/oled_ssd130x.h ****     };
 597              		.loc 4 131 9 is_stmt 1 view .LVU150
 131:../../libDaisy//src/dev/oled_ssd130x.h ****     };
 598              		.loc 4 131 30 is_stmt 0 view .LVU151
 599 01c2 8022     		movs	r2, #128
 600 01c4 2146     		mov	r1, r4
 601 01c6 6423     		movs	r3, #100
 602 01c8 3846     		mov	r0, r7
 603              	.LBE353:
 604              	.LBE352:
 605              		.loc 4 383 22 view .LVU152
 606 01ca 1444     		add	r4, r4, r2
 607              	.LVL47:
 608              	.LBB355:
 609              	.LBB354:
 131:../../libDaisy//src/dev/oled_ssd130x.h ****     };
 610              		.loc 4 131 30 view .LVU153
 611 01cc FFF7FEFF 		bl	_ZN5daisy9SpiHandle16BlockingTransmitEPhjm
 612              	.LVL48:
 131:../../libDaisy//src/dev/oled_ssd130x.h ****     };
 613              		.loc 4 131 30 view .LVU154
 614              	.LBE354:
 615              	.LBE355:
 616              		.loc 4 383 9 is_stmt 1 view .LVU155
 617              		.loc 4 383 22 view .LVU156
 618 01d0 B82D     		cmp	r5, #184
 619 01d2 C6D1     		bne	.L22
 620              	.LBE338:
 621              	.LBE337:
 622              	.LBE336:
 623              	.LBE357:
 303:Dubby.cpp     ****         }
 304:Dubby.cpp     **** 
 305:Dubby.cpp     ****         display.Update();
 306:Dubby.cpp     ****     }   
 307:Dubby.cpp     **** }
 624              		.loc 2 307 1 is_stmt 0 view .LVU157
 625 01d4 09B0     		add	sp, sp, #36
 626              		.cfi_remember_state
 627              		.cfi_def_cfa_offset 36
 628              		@ sp needed
 629 01d6 BDE8F08F 		pop	{r4, r5, r6, r7, r8, r9, r10, fp, pc}
 630              	.LVL49:
ARM GAS  /var/folders/1y/_321xjh9623c014x9_qw12rr0000gn/T//ccE17DNe.s 			page 36


 631              	.L26:
 632              		.cfi_restore_state
 633              	.LBB358:
 634              	.LBB356:
 635              	.LBB335:
 636              	.LBB333:
 637              	.LBB308:
 638              		.loc 2 307 1 view .LVU158
 639 01da 0024     		movs	r4, #0
 640              	.LVL50:
 641              	.L7:
 642              		.loc 2 307 1 view .LVU159
 643              	.LBE308:
 644              	.LBE333:
 295:Dubby.cpp     ****             int x = 1 + i * (OLED_WIDTH - 2) / AUDIO_BLOCK_SIZE;
 645              		.loc 2 295 45 view .LVU160
 646 01dc 0134     		adds	r4, r4, #1
 647 01de 53E7     		b	.L8
 648              	.LVL51:
 649              	.L24:
 650              	.LBB334:
 651              	.LBB331:
 652              	.LBB329:
 653              		.loc 1 42 10 is_stmt 1 view .LVU161
 654              	.LBB320:
 352:../../libDaisy//src/dev/oled_ssd130x.h ****     {
 655              		.loc 4 352 10 view .LVU162
 656              	.LBE320:
 657              	.LBE329:
 230:../../libDaisy//src/hid/disp/display.h ****         int_fast16_t error  = deltaX - deltaY;
 658              		.loc 3 230 42 is_stmt 0 view .LVU163
 659 01e0 0120     		movs	r0, #1
 660 01e2 0390     		str	r0, [sp, #12]
 661 01e4 74E7     		b	.L23
 662              	.L45:
 663 01e6 00BF     		.align	2
 664              	.L44:
 665 01e8 00001643 		.word	1125515264
 666              	.LBE331:
 667              	.LBE334:
 668              	.LBE335:
 669              	.LBE356:
 670              	.LBE358:
 671              		.cfi_endproc
 672              	.LFE4330:
 674              		.section	.text._ZN5daisy5Dubby12InitControlsEv,"ax",%progbits
 675              		.align	1
 676              		.p2align 2,,3
 677              		.global	_ZN5daisy5Dubby12InitControlsEv
 678              		.syntax unified
 679              		.thumb
 680              		.thumb_func
 682              	_ZN5daisy5Dubby12InitControlsEv:
 683              	.LVL52:
 684              	.LFB3721:
  62:Dubby.cpp     ****     AdcChannelConfig cfg[CTRL_LAST];
 685              		.loc 2 62 1 is_stmt 1 view -0
ARM GAS  /var/folders/1y/_321xjh9623c014x9_qw12rr0000gn/T//ccE17DNe.s 			page 37


 686              		.cfi_startproc
 687              		@ args = 0, pretend = 0, frame = 144
 688              		@ frame_needed = 0, uses_anonymous_args = 0
  63:Dubby.cpp     **** 
 689              		.loc 2 63 5 view .LVU165
  66:Dubby.cpp     ****     cfg[CTRL_2].InitSingle(seed.GetPin(PIN_KNOB_2));
 690              		.loc 2 66 5 view .LVU166
  62:Dubby.cpp     ****     AdcChannelConfig cfg[CTRL_LAST];
 691              		.loc 2 62 1 is_stmt 0 view .LVU167
 692 0000 F0B5     		push	{r4, r5, r6, r7, lr}
 693              		.cfi_def_cfa_offset 20
 694              		.cfi_offset 4, -20
 695              		.cfi_offset 5, -16
 696              		.cfi_offset 6, -12
 697              		.cfi_offset 7, -8
 698              		.cfi_offset 14, -4
 699 0002 A5B0     		sub	sp, sp, #148
 700              		.cfi_def_cfa_offset 168
  62:Dubby.cpp     ****     AdcChannelConfig cfg[CTRL_LAST];
 701              		.loc 2 62 1 view .LVU168
 702 0004 0546     		mov	r5, r0
  66:Dubby.cpp     ****     cfg[CTRL_2].InitSingle(seed.GetPin(PIN_KNOB_2));
 703              		.loc 2 66 27 view .LVU169
 704 0006 1220     		movs	r0, #18
 705              	.LVL53:
 706              	.LBB359:
  77:Dubby.cpp     ****     {
 707              		.loc 2 77 16 view .LVU170
 708 0008 0024     		movs	r4, #0
 709              	.LBE359:
  66:Dubby.cpp     ****     cfg[CTRL_2].InitSingle(seed.GetPin(PIN_KNOB_2));
 710              		.loc 2 66 27 view .LVU171
 711 000a FFF7FEFF 		bl	_ZN5daisy9DaisySeed6GetPinEh
 712              	.LVL54:
 713 000e ADF80C00 		strh	r0, [sp, #12]	@ movhi
 714 0012 0222     		movs	r2, #2
 715 0014 0399     		ldr	r1, [sp, #12]
 716 0016 09A8     		add	r0, sp, #36
  74:Dubby.cpp     **** 
 717              		.loc 2 74 18 view .LVU172
 718 0018 05F13406 		add	r6, r5, #52
  66:Dubby.cpp     ****     cfg[CTRL_2].InitSingle(seed.GetPin(PIN_KNOB_2));
 719              		.loc 2 66 27 view .LVU173
 720 001c FFF7FEFF 		bl	_ZN5daisy16AdcChannelConfig10InitSingleE12dsy_gpio_pinNS0_15ConversionSpeedE
 721              	.LVL55:
  67:Dubby.cpp     ****     cfg[CTRL_3].InitSingle(seed.GetPin(PIN_KNOB_3));
 722              		.loc 2 67 5 is_stmt 1 view .LVU174
  67:Dubby.cpp     ****     cfg[CTRL_3].InitSingle(seed.GetPin(PIN_KNOB_3));
 723              		.loc 2 67 27 is_stmt 0 view .LVU175
 724 0020 0F20     		movs	r0, #15
 725 0022 FFF7FEFF 		bl	_ZN5daisy9DaisySeed6GetPinEh
 726              	.LVL56:
 727 0026 ADF81000 		strh	r0, [sp, #16]	@ movhi
 728 002a 0222     		movs	r2, #2
 729 002c 0499     		ldr	r1, [sp, #16]
 730 002e 0DF13600 		add	r0, sp, #54
 731              	.LBB360:
ARM GAS  /var/folders/1y/_321xjh9623c014x9_qw12rr0000gn/T//ccE17DNe.s 			page 38


  79:Dubby.cpp     ****     }
 732              		.loc 2 79 29 view .LVU176
 733 0032 05F11C07 		add	r7, r5, #28
 734              	.LBE360:
  67:Dubby.cpp     ****     cfg[CTRL_3].InitSingle(seed.GetPin(PIN_KNOB_3));
 735              		.loc 2 67 27 view .LVU177
 736 0036 FFF7FEFF 		bl	_ZN5daisy16AdcChannelConfig10InitSingleE12dsy_gpio_pinNS0_15ConversionSpeedE
 737              	.LVL57:
  68:Dubby.cpp     ****     cfg[CTRL_4].InitSingle(seed.GetPin(PIN_KNOB_4));
 738              		.loc 2 68 5 is_stmt 1 view .LVU178
  68:Dubby.cpp     ****     cfg[CTRL_4].InitSingle(seed.GetPin(PIN_KNOB_4));
 739              		.loc 2 68 27 is_stmt 0 view .LVU179
 740 003a 1520     		movs	r0, #21
 741 003c FFF7FEFF 		bl	_ZN5daisy9DaisySeed6GetPinEh
 742              	.LVL58:
 743 0040 ADF81400 		strh	r0, [sp, #20]	@ movhi
 744 0044 0222     		movs	r2, #2
 745 0046 0599     		ldr	r1, [sp, #20]
 746 0048 12A8     		add	r0, sp, #72
 747 004a 05F59075 		add	r5, r5, #288
 748              	.LVL59:
  68:Dubby.cpp     ****     cfg[CTRL_4].InitSingle(seed.GetPin(PIN_KNOB_4));
 749              		.loc 2 68 27 view .LVU180
 750 004e FFF7FEFF 		bl	_ZN5daisy16AdcChannelConfig10InitSingleE12dsy_gpio_pinNS0_15ConversionSpeedE
 751              	.LVL60:
  69:Dubby.cpp     ****     cfg[CTRL_5].InitSingle(seed.GetPin(PIN_JS_H));
 752              		.loc 2 69 5 is_stmt 1 view .LVU181
  69:Dubby.cpp     ****     cfg[CTRL_5].InitSingle(seed.GetPin(PIN_JS_H));
 753              		.loc 2 69 27 is_stmt 0 view .LVU182
 754 0052 1620     		movs	r0, #22
 755 0054 FFF7FEFF 		bl	_ZN5daisy9DaisySeed6GetPinEh
 756              	.LVL61:
 757 0058 ADF81800 		strh	r0, [sp, #24]	@ movhi
 758 005c 0222     		movs	r2, #2
 759 005e 0699     		ldr	r1, [sp, #24]
 760 0060 0DF15A00 		add	r0, sp, #90
 761 0064 FFF7FEFF 		bl	_ZN5daisy16AdcChannelConfig10InitSingleE12dsy_gpio_pinNS0_15ConversionSpeedE
 762              	.LVL62:
  70:Dubby.cpp     ****     cfg[CTRL_6].InitSingle(seed.GetPin(PIN_JS_V));
 763              		.loc 2 70 5 is_stmt 1 view .LVU183
  70:Dubby.cpp     ****     cfg[CTRL_6].InitSingle(seed.GetPin(PIN_JS_V));
 764              		.loc 2 70 27 is_stmt 0 view .LVU184
 765 0068 1020     		movs	r0, #16
 766 006a FFF7FEFF 		bl	_ZN5daisy9DaisySeed6GetPinEh
 767              	.LVL63:
 768 006e ADF81C00 		strh	r0, [sp, #28]	@ movhi
 769 0072 0222     		movs	r2, #2
 770 0074 0799     		ldr	r1, [sp, #28]
 771 0076 1BA8     		add	r0, sp, #108
 772 0078 FFF7FEFF 		bl	_ZN5daisy16AdcChannelConfig10InitSingleE12dsy_gpio_pinNS0_15ConversionSpeedE
 773              	.LVL64:
  71:Dubby.cpp     **** 
 774              		.loc 2 71 5 is_stmt 1 view .LVU185
  71:Dubby.cpp     **** 
 775              		.loc 2 71 27 is_stmt 0 view .LVU186
 776 007c 1420     		movs	r0, #20
 777 007e FFF7FEFF 		bl	_ZN5daisy9DaisySeed6GetPinEh
ARM GAS  /var/folders/1y/_321xjh9623c014x9_qw12rr0000gn/T//ccE17DNe.s 			page 39


 778              	.LVL65:
 779 0082 ADF82000 		strh	r0, [sp, #32]	@ movhi
 780 0086 0222     		movs	r2, #2
 781 0088 0899     		ldr	r1, [sp, #32]
 782 008a 0DF17E00 		add	r0, sp, #126
 783 008e FFF7FEFF 		bl	_ZN5daisy16AdcChannelConfig10InitSingleE12dsy_gpio_pinNS0_15ConversionSpeedE
 784              	.LVL66:
  74:Dubby.cpp     **** 
 785              		.loc 2 74 5 is_stmt 1 view .LVU187
  74:Dubby.cpp     **** 
 786              		.loc 2 74 18 is_stmt 0 view .LVU188
 787 0092 0423     		movs	r3, #4
 788 0094 0622     		movs	r2, #6
 789 0096 09A9     		add	r1, sp, #36
 790 0098 3046     		mov	r0, r6
 791 009a FFF7FEFF 		bl	_ZN5daisy9AdcHandle4InitEPNS_16AdcChannelConfigEjNS0_12OverSamplingE
 792              	.LVL67:
  77:Dubby.cpp     ****     {
 793              		.loc 2 77 5 is_stmt 1 view .LVU189
 794              	.LBB361:
  77:Dubby.cpp     ****     {
 795              		.loc 2 77 25 view .LVU190
 796              	.L47:
  79:Dubby.cpp     ****     }
 797              		.loc 2 79 9 discriminator 2 view .LVU191
  79:Dubby.cpp     ****     }
 798              		.loc 2 79 29 is_stmt 0 discriminator 2 view .LVU192
 799 009e E1B2     		uxtb	r1, r4
 800 00a0 3046     		mov	r0, r6
 801 00a2 FFF7FEFF 		bl	_ZNK5daisy9AdcHandle6GetPtrEh
 802              	.LVL68:
 803 00a6 0146     		mov	r1, r0
  77:Dubby.cpp     ****     {
 804              		.loc 2 77 5 discriminator 2 view .LVU193
 805 00a8 0134     		adds	r4, r4, #1
 806              	.LVL69:
  79:Dubby.cpp     ****     }
 807              		.loc 2 79 29 discriminator 2 view .LVU194
 808 00aa 3846     		mov	r0, r7
 809 00ac 0191     		str	r1, [sp, #4]
 810 00ae FFF7FEFF 		bl	_ZNK5daisy9DaisySeed17AudioCallbackRateEv
 811              	.LVL70:
 812 00b2 2846     		mov	r0, r5
 813 00b4 DFED070A 		vldr.32	s1, .L50
 814 00b8 0023     		movs	r3, #0
 815 00ba 0122     		movs	r2, #1
 816 00bc 0199     		ldr	r1, [sp, #4]
  77:Dubby.cpp     ****     {
 817              		.loc 2 77 25 discriminator 2 view .LVU195
 818 00be 2035     		adds	r5, r5, #32
  79:Dubby.cpp     ****     }
 819              		.loc 2 79 29 discriminator 2 view .LVU196
 820 00c0 FFF7FEFF 		bl	_ZN5daisy13AnalogControl4InitEPtfbbf
 821              	.LVL71:
  77:Dubby.cpp     ****     {
 822              		.loc 2 77 5 is_stmt 1 discriminator 2 view .LVU197
  77:Dubby.cpp     ****     {
ARM GAS  /var/folders/1y/_321xjh9623c014x9_qw12rr0000gn/T//ccE17DNe.s 			page 40


 823              		.loc 2 77 25 discriminator 2 view .LVU198
 824 00c4 062C     		cmp	r4, #6
 825 00c6 EAD1     		bne	.L47
 826              	.LBE361:
  82:Dubby.cpp     **** }
 827              		.loc 2 82 5 view .LVU199
  82:Dubby.cpp     **** }
 828              		.loc 2 82 19 is_stmt 0 view .LVU200
 829 00c8 3046     		mov	r0, r6
 830 00ca FFF7FEFF 		bl	_ZN5daisy9AdcHandle5StartEv
 831              	.LVL72:
  83:Dubby.cpp     **** 
 832              		.loc 2 83 1 view .LVU201
 833 00ce 25B0     		add	sp, sp, #148
 834              		.cfi_def_cfa_offset 20
 835              		@ sp needed
 836 00d0 F0BD     		pop	{r4, r5, r6, r7, pc}
 837              	.LVL73:
 838              	.L51:
  83:Dubby.cpp     **** 
 839              		.loc 2 83 1 view .LVU202
 840 00d2 00BF     		.align	2
 841              	.L50:
 842 00d4 6F12033B 		.word	990057071
 843              		.cfi_endproc
 844              	.LFE3721:
 846              		.section	.text._ZN5daisy5Dubby11InitButtonsEv,"ax",%progbits
 847              		.align	1
 848              		.p2align 2,,3
 849              		.global	_ZN5daisy5Dubby11InitButtonsEv
 850              		.syntax unified
 851              		.thumb
 852              		.thumb_func
 854              	_ZN5daisy5Dubby11InitButtonsEv:
 855              	.LVL74:
 856              	.LFB3722:
  86:Dubby.cpp     ****     //Set button to pins, to be updated at a 1kHz  samplerate
 857              		.loc 2 86 1 is_stmt 1 view -0
 858              		.cfi_startproc
 859              		@ args = 0, pretend = 0, frame = 16
 860              		@ frame_needed = 0, uses_anonymous_args = 0
  88:Dubby.cpp     ****     buttons[1].Init(seed.GetPin(PIN_GATE_IN_2), 1000);
 861              		.loc 2 88 5 view .LVU204
  86:Dubby.cpp     ****     //Set button to pins, to be updated at a 1kHz  samplerate
 862              		.loc 2 86 1 is_stmt 0 view .LVU205
 863 0000 10B5     		push	{r4, lr}
 864              		.cfi_def_cfa_offset 8
 865              		.cfi_offset 4, -8
 866              		.cfi_offset 14, -4
 867 0002 0446     		mov	r4, r0
  88:Dubby.cpp     ****     buttons[1].Init(seed.GetPin(PIN_GATE_IN_2), 1000);
 868              		.loc 2 88 20 view .LVU206
 869 0004 2020     		movs	r0, #32
 870              	.LVL75:
  86:Dubby.cpp     ****     //Set button to pins, to be updated at a 1kHz  samplerate
 871              		.loc 2 86 1 view .LVU207
 872 0006 2DED028B 		vpush.64	{d8}
ARM GAS  /var/folders/1y/_321xjh9623c014x9_qw12rr0000gn/T//ccE17DNe.s 			page 41


 873              		.cfi_def_cfa_offset 16
 874              		.cfi_offset 80, -16
 875              		.cfi_offset 81, -12
 876 000a 84B0     		sub	sp, sp, #16
 877              		.cfi_def_cfa_offset 32
  88:Dubby.cpp     ****     buttons[1].Init(seed.GetPin(PIN_GATE_IN_2), 1000);
 878              		.loc 2 88 20 view .LVU208
 879 000c 9FED1C8A 		vldr.32	s16, .L54
 880 0010 FFF7FEFF 		bl	_ZN5daisy9DaisySeed6GetPinEh
 881              	.LVL76:
 882 0014 0346     		mov	r3, r0	@ movhi
 883 0016 B0EE480A 		vmov.f32	s0, s16
 884 001a 04F51670 		add	r0, r4, #600
 885 001e ADF80030 		strh	r3, [sp]	@ movhi
 886 0022 0099     		ldr	r1, [sp]
 887 0024 FFF7FEFF 		bl	_ZN5daisy6Switch4InitE12dsy_gpio_pinf
 888              	.LVL77:
  89:Dubby.cpp     ****     buttons[2].Init(seed.GetPin(PIN_GATE_IN_3), 1000);
 889              		.loc 2 89 5 is_stmt 1 view .LVU209
  89:Dubby.cpp     ****     buttons[2].Init(seed.GetPin(PIN_GATE_IN_3), 1000);
 890              		.loc 2 89 20 is_stmt 0 view .LVU210
 891 0028 1720     		movs	r0, #23
 892 002a FFF7FEFF 		bl	_ZN5daisy9DaisySeed6GetPinEh
 893              	.LVL78:
 894 002e 0346     		mov	r3, r0	@ movhi
 895 0030 B0EE480A 		vmov.f32	s0, s16
 896 0034 04F51A70 		add	r0, r4, #616
 897 0038 ADF80430 		strh	r3, [sp, #4]	@ movhi
 898 003c 0199     		ldr	r1, [sp, #4]
 899 003e FFF7FEFF 		bl	_ZN5daisy6Switch4InitE12dsy_gpio_pinf
 900              	.LVL79:
  90:Dubby.cpp     ****     buttons[3].Init(seed.GetPin(PIN_GATE_IN_4), 1000);
 901              		.loc 2 90 5 is_stmt 1 view .LVU211
  90:Dubby.cpp     ****     buttons[3].Init(seed.GetPin(PIN_GATE_IN_4), 1000);
 902              		.loc 2 90 20 is_stmt 0 view .LVU212
 903 0042 1120     		movs	r0, #17
 904 0044 FFF7FEFF 		bl	_ZN5daisy9DaisySeed6GetPinEh
 905              	.LVL80:
 906 0048 0346     		mov	r3, r0	@ movhi
 907 004a B0EE480A 		vmov.f32	s0, s16
 908 004e 04F51E70 		add	r0, r4, #632
 909 0052 ADF80830 		strh	r3, [sp, #8]	@ movhi
 910 0056 0299     		ldr	r1, [sp, #8]
 911 0058 FFF7FEFF 		bl	_ZN5daisy6Switch4InitE12dsy_gpio_pinf
 912              	.LVL81:
  91:Dubby.cpp     **** }
 913              		.loc 2 91 5 is_stmt 1 view .LVU213
  91:Dubby.cpp     **** }
 914              		.loc 2 91 20 is_stmt 0 view .LVU214
 915 005c 1320     		movs	r0, #19
 916 005e FFF7FEFF 		bl	_ZN5daisy9DaisySeed6GetPinEh
 917              	.LVL82:
 918 0062 0346     		mov	r3, r0	@ movhi
 919 0064 B0EE480A 		vmov.f32	s0, s16
 920 0068 04F52270 		add	r0, r4, #648
 921 006c ADF80C30 		strh	r3, [sp, #12]	@ movhi
 922 0070 0399     		ldr	r1, [sp, #12]
ARM GAS  /var/folders/1y/_321xjh9623c014x9_qw12rr0000gn/T//ccE17DNe.s 			page 42


  92:Dubby.cpp     **** 
 923              		.loc 2 92 1 view .LVU215
 924 0072 04B0     		add	sp, sp, #16
 925              		.cfi_def_cfa_offset 16
 926              		@ sp needed
 927 0074 BDEC028B 		vldm	sp!, {d8}
 928              		.cfi_restore 80
 929              		.cfi_restore 81
 930              		.cfi_def_cfa_offset 8
 931 0078 BDE81040 		pop	{r4, lr}
 932              		.cfi_restore 14
 933              		.cfi_restore 4
 934              		.cfi_def_cfa_offset 0
 935              	.LVL83:
  91:Dubby.cpp     **** }
 936              		.loc 2 91 20 view .LVU216
 937 007c FFF7FEBF 		b	_ZN5daisy6Switch4InitE12dsy_gpio_pinf
 938              	.LVL84:
 939              	.L55:
  91:Dubby.cpp     **** }
 940              		.loc 2 91 20 view .LVU217
 941              		.align	2
 942              	.L54:
 943 0080 00007A44 		.word	1148846080
 944              		.cfi_endproc
 945              	.LFE3722:
 947              		.section	.text._ZN5daisy5Dubby8InitMidiEv,"ax",%progbits
 948              		.align	1
 949              		.p2align 2,,3
 950              		.global	_ZN5daisy5Dubby8InitMidiEv
 951              		.syntax unified
 952              		.thumb
 953              		.thumb_func
 955              	_ZN5daisy5Dubby8InitMidiEv:
 956              	.LVL85:
 957              	.LFB3723:
  95:Dubby.cpp     ****     MidiUartHandler::Config midi_config;
 958              		.loc 2 95 1 is_stmt 1 view -0
 959              		.cfi_startproc
 960              		@ args = 0, pretend = 0, frame = 80
 961              		@ frame_needed = 0, uses_anonymous_args = 0
  96:Dubby.cpp     ****     midi.Init(midi_config);
 962              		.loc 2 96 5 view .LVU219
  95:Dubby.cpp     ****     MidiUartHandler::Config midi_config;
 963              		.loc 2 95 1 is_stmt 0 view .LVU220
 964 0000 2DE9F041 		push	{r4, r5, r6, r7, r8, lr}
 965              		.cfi_def_cfa_offset 24
 966              		.cfi_offset 4, -24
 967              		.cfi_offset 5, -20
 968              		.cfi_offset 6, -16
 969              		.cfi_offset 7, -12
 970              		.cfi_offset 8, -8
 971              		.cfi_offset 14, -4
 972 0004 94B0     		sub	sp, sp, #80
 973              		.cfi_def_cfa_offset 104
 974              	.LVL86:
 975              	.LBB377:
ARM GAS  /var/folders/1y/_321xjh9623c014x9_qw12rr0000gn/T//ccE17DNe.s 			page 43


 976              	.LBI377:
 977              		.file 6 "../../libDaisy//src/hid/midi.h"
   1:../../libDaisy//src/hid/midi.h **** #pragma once
   2:../../libDaisy//src/hid/midi.h **** #ifndef DSY_MIDI_H
   3:../../libDaisy//src/hid/midi.h **** #define DSY_MIDI_H
   4:../../libDaisy//src/hid/midi.h **** 
   5:../../libDaisy//src/hid/midi.h **** #include <stdint.h>
   6:../../libDaisy//src/hid/midi.h **** #include <stdlib.h>
   7:../../libDaisy//src/hid/midi.h **** #include <algorithm>
   8:../../libDaisy//src/hid/midi.h **** #include "per/uart.h"
   9:../../libDaisy//src/hid/midi.h **** #include "util/ringbuffer.h"
  10:../../libDaisy//src/hid/midi.h **** #include "util/FIFO.h"
  11:../../libDaisy//src/hid/midi.h **** #include "hid/midi_parser.h"
  12:../../libDaisy//src/hid/midi.h **** #include "hid/usb_midi.h"
  13:../../libDaisy//src/hid/midi.h **** #include "sys/dma.h"
  14:../../libDaisy//src/hid/midi.h **** #include "sys/system.h"
  15:../../libDaisy//src/hid/midi.h **** 
  16:../../libDaisy//src/hid/midi.h **** namespace daisy
  17:../../libDaisy//src/hid/midi.h **** {
  18:../../libDaisy//src/hid/midi.h **** /** @brief   Transport layer for sending and receiving MIDI data over UART
  19:../../libDaisy//src/hid/midi.h ****  *  @details This is the mode of communication used for TRS and DIN MIDI
  20:../../libDaisy//src/hid/midi.h ****  *           There is an additional 2kB of RAM data used within this class
  21:../../libDaisy//src/hid/midi.h ****  *           for processing bulk data from the UART peripheral
  22:../../libDaisy//src/hid/midi.h ****  *  @ingroup midi
  23:../../libDaisy//src/hid/midi.h **** */
  24:../../libDaisy//src/hid/midi.h **** class MidiUartTransport
  25:../../libDaisy//src/hid/midi.h **** {
  26:../../libDaisy//src/hid/midi.h ****   public:
  27:../../libDaisy//src/hid/midi.h ****     typedef void (*MidiRxParseCallback)(uint8_t* data,
  28:../../libDaisy//src/hid/midi.h ****                                         size_t   size,
  29:../../libDaisy//src/hid/midi.h ****                                         void*    context);
  30:../../libDaisy//src/hid/midi.h **** 
  31:../../libDaisy//src/hid/midi.h ****     MidiUartTransport() {}
  32:../../libDaisy//src/hid/midi.h ****     ~MidiUartTransport() {}
  33:../../libDaisy//src/hid/midi.h **** 
  34:../../libDaisy//src/hid/midi.h ****     /** @brief Configuration structure for UART MIDI */
  35:../../libDaisy//src/hid/midi.h ****     struct Config
  36:../../libDaisy//src/hid/midi.h ****     {
  37:../../libDaisy//src/hid/midi.h ****         UartHandler::Config::Peripheral periph;
  38:../../libDaisy//src/hid/midi.h ****         dsy_gpio_pin                    rx;
  39:../../libDaisy//src/hid/midi.h ****         dsy_gpio_pin                    tx;
  40:../../libDaisy//src/hid/midi.h **** 
  41:../../libDaisy//src/hid/midi.h ****         /** Pointer to buffer for DMA UART rx byte transfer in background.
  42:../../libDaisy//src/hid/midi.h ****          *
  43:../../libDaisy//src/hid/midi.h ****          *  @details By default this uses a shared buffer in DMA_BUFFER_MEM_SECTION,
  44:../../libDaisy//src/hid/midi.h ****          *           which can only be utilized for a single UART peripheral. To
  45:../../libDaisy//src/hid/midi.h ****          *           use MIDI with multiple UART peripherals, you must provide your own
  46:../../libDaisy//src/hid/midi.h ****          *           buffer, allocated to a DMA-capable memory section.
  47:../../libDaisy//src/hid/midi.h ****          */
  48:../../libDaisy//src/hid/midi.h ****         uint8_t* rx_buffer;
  49:../../libDaisy//src/hid/midi.h **** 
  50:../../libDaisy//src/hid/midi.h ****         /** Size in bytes of rx_buffer.
  51:../../libDaisy//src/hid/midi.h ****          *
  52:../../libDaisy//src/hid/midi.h ****          *  @details This size determines the maximum Rx bytes readable by the UART in the backgrou
  53:../../libDaisy//src/hid/midi.h ****          *           By default it's set to the size of the default shared rx_buffer (256 bytes).
  54:../../libDaisy//src/hid/midi.h ****          *           While much smaller sizes can be used, data can get missed if the buffer is too
  55:../../libDaisy//src/hid/midi.h ****          */
ARM GAS  /var/folders/1y/_321xjh9623c014x9_qw12rr0000gn/T//ccE17DNe.s 			page 44


  56:../../libDaisy//src/hid/midi.h ****         size_t rx_buffer_size;
  57:../../libDaisy//src/hid/midi.h **** 
  58:../../libDaisy//src/hid/midi.h ****         Config();
  59:../../libDaisy//src/hid/midi.h ****     };
  60:../../libDaisy//src/hid/midi.h **** 
  61:../../libDaisy//src/hid/midi.h ****     /** @brief Initialization of UART using config struct */
  62:../../libDaisy//src/hid/midi.h ****     inline void Init(Config config)
  63:../../libDaisy//src/hid/midi.h ****     {
  64:../../libDaisy//src/hid/midi.h ****         UartHandler::Config uart_config;
  65:../../libDaisy//src/hid/midi.h **** 
  66:../../libDaisy//src/hid/midi.h ****         //defaults
  67:../../libDaisy//src/hid/midi.h ****         uart_config.baudrate   = 31250;
  68:../../libDaisy//src/hid/midi.h ****         uart_config.stopbits   = UartHandler::Config::StopBits::BITS_1;
  69:../../libDaisy//src/hid/midi.h ****         uart_config.parity     = UartHandler::Config::Parity::NONE;
  70:../../libDaisy//src/hid/midi.h ****         uart_config.mode       = UartHandler::Config::Mode::TX_RX;
  71:../../libDaisy//src/hid/midi.h ****         uart_config.wordlength = UartHandler::Config::WordLength::BITS_8;
  72:../../libDaisy//src/hid/midi.h **** 
  73:../../libDaisy//src/hid/midi.h ****         //user settings
  74:../../libDaisy//src/hid/midi.h ****         uart_config.periph        = config.periph;
  75:../../libDaisy//src/hid/midi.h ****         uart_config.pin_config.rx = config.rx;
  76:../../libDaisy//src/hid/midi.h ****         uart_config.pin_config.tx = config.tx;
  77:../../libDaisy//src/hid/midi.h **** 
  78:../../libDaisy//src/hid/midi.h ****         rx_buffer      = config.rx_buffer;
  79:../../libDaisy//src/hid/midi.h ****         rx_buffer_size = config.rx_buffer_size;
  80:../../libDaisy//src/hid/midi.h **** 
  81:../../libDaisy//src/hid/midi.h ****         /** zero the buffer to ensure emptiness regardless of source memory */
  82:../../libDaisy//src/hid/midi.h ****         std::fill(rx_buffer, rx_buffer + rx_buffer_size, 0);
  83:../../libDaisy//src/hid/midi.h **** 
  84:../../libDaisy//src/hid/midi.h ****         uart_.Init(uart_config);
  85:../../libDaisy//src/hid/midi.h ****     }
  86:../../libDaisy//src/hid/midi.h **** 
  87:../../libDaisy//src/hid/midi.h ****     /** @brief Start the UART peripheral in listening mode.
  88:../../libDaisy//src/hid/midi.h ****      *  This will fill an internal data structure in the background */
  89:../../libDaisy//src/hid/midi.h ****     inline void StartRx(MidiRxParseCallback parse_callback, void* context)
  90:../../libDaisy//src/hid/midi.h ****     {
  91:../../libDaisy//src/hid/midi.h ****         parse_context_  = context;
  92:../../libDaisy//src/hid/midi.h ****         parse_callback_ = parse_callback;
  93:../../libDaisy//src/hid/midi.h ****         dsy_dma_clear_cache_for_buffer((uint8_t*)this,
  94:../../libDaisy//src/hid/midi.h ****                                        sizeof(MidiUartTransport));
  95:../../libDaisy//src/hid/midi.h ****         uart_.DmaListenStart(
  96:../../libDaisy//src/hid/midi.h ****             rx_buffer, rx_buffer_size, MidiUartTransport::rxCallback, this);
  97:../../libDaisy//src/hid/midi.h ****     }
  98:../../libDaisy//src/hid/midi.h **** 
  99:../../libDaisy//src/hid/midi.h ****     /** @brief returns whether the UART peripheral is actively listening in the background or not *
 100:../../libDaisy//src/hid/midi.h ****     inline bool RxActive() { return uart_.IsListening(); }
 101:../../libDaisy//src/hid/midi.h **** 
 102:../../libDaisy//src/hid/midi.h ****     /** @brief This is a no-op for UART transport - Rx is via DMA callback with circular buffer */
 103:../../libDaisy//src/hid/midi.h ****     inline void FlushRx() {}
 104:../../libDaisy//src/hid/midi.h **** 
 105:../../libDaisy//src/hid/midi.h ****     /** @brief sends the buffer of bytes out of the UART peripheral */
 106:../../libDaisy//src/hid/midi.h ****     inline void Tx(uint8_t* buff, size_t size) { uart_.PollTx(buff, size); }
 107:../../libDaisy//src/hid/midi.h **** 
 108:../../libDaisy//src/hid/midi.h ****   private:
 109:../../libDaisy//src/hid/midi.h ****     UartHandler         uart_;
 110:../../libDaisy//src/hid/midi.h ****     uint8_t*            rx_buffer;
 111:../../libDaisy//src/hid/midi.h ****     size_t              rx_buffer_size;
 112:../../libDaisy//src/hid/midi.h ****     void*               parse_context_;
ARM GAS  /var/folders/1y/_321xjh9623c014x9_qw12rr0000gn/T//ccE17DNe.s 			page 45


 113:../../libDaisy//src/hid/midi.h ****     MidiRxParseCallback parse_callback_;
 114:../../libDaisy//src/hid/midi.h **** 
 115:../../libDaisy//src/hid/midi.h ****     /** Static callback for Uart MIDI that occurs when
 116:../../libDaisy//src/hid/midi.h ****          *  new data is available from the peripheral.
 117:../../libDaisy//src/hid/midi.h ****          *  The new data is transferred from the peripheral to the
 118:../../libDaisy//src/hid/midi.h ****          *  MIDI instance's byte FIFO that feeds the MIDI parser.
 119:../../libDaisy//src/hid/midi.h ****          *
 120:../../libDaisy//src/hid/midi.h ****          *  TODO: Handle UartHandler errors better/at all.
 121:../../libDaisy//src/hid/midi.h ****          *  (If there is a UART error, there's not really any recovery
 122:../../libDaisy//src/hid/midi.h ****          *  option at the moment)
 123:../../libDaisy//src/hid/midi.h ****          */
 124:../../libDaisy//src/hid/midi.h ****     static void rxCallback(uint8_t*            data,
 125:../../libDaisy//src/hid/midi.h ****                            size_t              size,
 126:../../libDaisy//src/hid/midi.h ****                            void*               context,
 127:../../libDaisy//src/hid/midi.h ****                            UartHandler::Result res)
 128:../../libDaisy//src/hid/midi.h ****     {
 129:../../libDaisy//src/hid/midi.h ****         /** Read context as transport type */
 130:../../libDaisy//src/hid/midi.h ****         MidiUartTransport* transport
 131:../../libDaisy//src/hid/midi.h ****             = reinterpret_cast<MidiUartTransport*>(context);
 132:../../libDaisy//src/hid/midi.h ****         if(res == UartHandler::Result::OK)
 133:../../libDaisy//src/hid/midi.h ****         {
 134:../../libDaisy//src/hid/midi.h ****             if(transport->parse_callback_)
 135:../../libDaisy//src/hid/midi.h ****             {
 136:../../libDaisy//src/hid/midi.h ****                 transport->parse_callback_(
 137:../../libDaisy//src/hid/midi.h ****                     data, size, transport->parse_context_);
 138:../../libDaisy//src/hid/midi.h ****             }
 139:../../libDaisy//src/hid/midi.h ****         }
 140:../../libDaisy//src/hid/midi.h ****     }
 141:../../libDaisy//src/hid/midi.h **** };
 142:../../libDaisy//src/hid/midi.h **** 
 143:../../libDaisy//src/hid/midi.h **** /**
 144:../../libDaisy//src/hid/midi.h ****     @brief Simple MIDI Handler \n
 145:../../libDaisy//src/hid/midi.h ****     Parses bytes from an input into valid MidiEvents. \n
 146:../../libDaisy//src/hid/midi.h ****     The MidiEvents fill a FIFO queue that the user can pop messages from.
 147:../../libDaisy//src/hid/midi.h ****     @author shensley
 148:../../libDaisy//src/hid/midi.h ****     @date March 2020
 149:../../libDaisy//src/hid/midi.h ****     @ingroup midi
 150:../../libDaisy//src/hid/midi.h **** */
 151:../../libDaisy//src/hid/midi.h **** template <typename Transport>
 152:../../libDaisy//src/hid/midi.h **** class MidiHandler
 153:../../libDaisy//src/hid/midi.h **** {
 154:../../libDaisy//src/hid/midi.h ****   public:
 155:../../libDaisy//src/hid/midi.h ****     MidiHandler() {}
 156:../../libDaisy//src/hid/midi.h ****     ~MidiHandler() {}
 157:../../libDaisy//src/hid/midi.h **** 
 158:../../libDaisy//src/hid/midi.h ****     struct Config
 978              		.loc 6 158 12 is_stmt 1 view .LVU221
 979              	.LBE377:
  95:Dubby.cpp     ****     MidiUartHandler::Config midi_config;
 980              		.loc 2 95 1 is_stmt 0 view .LVU222
 981 0006 0446     		mov	r4, r0
 982              	.LBB380:
 983              	.LBB378:
 984              		.loc 6 158 12 view .LVU223
 985 0008 01AD     		add	r5, sp, #4
 986              	.LVL87:
 987              		.loc 6 158 12 view .LVU224
ARM GAS  /var/folders/1y/_321xjh9623c014x9_qw12rr0000gn/T//ccE17DNe.s 			page 46


 988              	.LBE378:
 989              	.LBE380:
 990              	.LBB381:
 991              	.LBB382:
 159:../../libDaisy//src/hid/midi.h ****     {
 160:../../libDaisy//src/hid/midi.h ****         typename Transport::Config transport_config;
 161:../../libDaisy//src/hid/midi.h ****     };
 162:../../libDaisy//src/hid/midi.h **** 
 163:../../libDaisy//src/hid/midi.h ****     /** Initializes the MidiHandler
 164:../../libDaisy//src/hid/midi.h ****      *  \param config Configuration structure used to define specifics to the MIDI Handler.
 165:../../libDaisy//src/hid/midi.h ****      */
 166:../../libDaisy//src/hid/midi.h ****     void Init(Config config)
 167:../../libDaisy//src/hid/midi.h ****     {
 168:../../libDaisy//src/hid/midi.h ****         config_ = config;
 169:../../libDaisy//src/hid/midi.h ****         transport_.Init(config_.transport_config);
 992              		.loc 6 169 24 view .LVU225
 993 000a 04F6CC08 		addw	r8, r4, #2252
 994              	.LBE382:
 995              	.LBE381:
 996              	.LBB409:
 997              	.LBB379:
 158:../../libDaisy//src/hid/midi.h ****     {
 998              		.loc 6 158 12 view .LVU226
 999 000e 2846     		mov	r0, r5
 1000              	.LVL88:
 158:../../libDaisy//src/hid/midi.h ****     {
 1001              		.loc 6 158 12 view .LVU227
 1002 0010 FFF7FEFF 		bl	_ZN5daisy17MidiUartTransport6ConfigC1Ev
 1003              	.LVL89:
 158:../../libDaisy//src/hid/midi.h ****     {
 1004              		.loc 6 158 12 view .LVU228
 1005              	.LBE379:
 1006              	.LBE409:
  97:Dubby.cpp     **** 
 1007              		.loc 2 97 5 is_stmt 1 view .LVU229
  97:Dubby.cpp     **** 
 1008              		.loc 2 97 5 is_stmt 0 view .LVU230
 1009 0014 0DF1140E 		add	lr, sp, #20
 1010              	.LBB410:
 1011              	.LBB405:
 168:../../libDaisy//src/hid/midi.h ****         transport_.Init(config_.transport_config);
 1012              		.loc 6 168 9 view .LVU231
 1013 0018 04F6BC0C 		addw	ip, r4, #2236
 1014              	.LVL90:
 168:../../libDaisy//src/hid/midi.h ****         transport_.Init(config_.transport_config);
 1015              		.loc 6 168 9 view .LVU232
 1016 001c 95E80F00 		ldm	r5, {r0, r1, r2, r3}
 1017 0020 8CE80F00 		stm	ip, {r0, r1, r2, r3}
 1018 0024 8EE80F00 		stm	lr, {r0, r1, r2, r3}
 1019              	.LBE405:
 1020              	.LBI381:
 166:../../libDaisy//src/hid/midi.h ****     {
 1021              		.loc 6 166 10 is_stmt 1 view .LVU233
 1022              	.LVL91:
 1023              	.LBB406:
 1024              	.LBB383:
 1025              	.LBB384:
ARM GAS  /var/folders/1y/_321xjh9623c014x9_qw12rr0000gn/T//ccE17DNe.s 			page 47


 1026              	.LBB385:
 1027              	.LBB386:
 1028              	.LBB387:
 1029              		.file 7 "../../libDaisy//src/per/uart.h"
   1:../../libDaisy//src/per/uart.h **** /* 
   2:../../libDaisy//src/per/uart.h **** TODO
   3:../../libDaisy//src/per/uart.h **** - Overflow handling, etc. for Rx Queue.
   4:../../libDaisy//src/per/uart.h **** */
   5:../../libDaisy//src/per/uart.h **** 
   6:../../libDaisy//src/per/uart.h **** #pragma once
   7:../../libDaisy//src/per/uart.h **** #ifndef DSY_UART_H
   8:../../libDaisy//src/per/uart.h **** #define DSY_UART_H /**< macro */
   9:../../libDaisy//src/per/uart.h **** #include "daisy_core.h"
  10:../../libDaisy//src/per/uart.h **** 
  11:../../libDaisy//src/per/uart.h **** 
  12:../../libDaisy//src/per/uart.h **** namespace daisy
  13:../../libDaisy//src/per/uart.h **** {
  14:../../libDaisy//src/per/uart.h **** /** @addtogroup serial
  15:../../libDaisy//src/per/uart.h ****     @{
  16:../../libDaisy//src/per/uart.h ****     */
  17:../../libDaisy//src/per/uart.h **** 
  18:../../libDaisy//src/per/uart.h **** /** 
  19:../../libDaisy//src/per/uart.h ****     Uart Peripheral
  20:../../libDaisy//src/per/uart.h ****     @author shensley
  21:../../libDaisy//src/per/uart.h ****     @date March 2020
  22:../../libDaisy//src/per/uart.h ****     */
  23:../../libDaisy//src/per/uart.h **** class UartHandler
  24:../../libDaisy//src/per/uart.h **** {
  25:../../libDaisy//src/per/uart.h ****   public:
  26:../../libDaisy//src/per/uart.h ****     struct Config
  27:../../libDaisy//src/per/uart.h ****     {
  28:../../libDaisy//src/per/uart.h ****         enum class Peripheral
  29:../../libDaisy//src/per/uart.h ****         {
  30:../../libDaisy//src/per/uart.h ****             USART_1,
  31:../../libDaisy//src/per/uart.h ****             USART_2,
  32:../../libDaisy//src/per/uart.h ****             USART_3,
  33:../../libDaisy//src/per/uart.h ****             UART_4,
  34:../../libDaisy//src/per/uart.h ****             UART_5,
  35:../../libDaisy//src/per/uart.h ****             USART_6,
  36:../../libDaisy//src/per/uart.h ****             UART_7,
  37:../../libDaisy//src/per/uart.h ****             UART_8,
  38:../../libDaisy//src/per/uart.h ****             LPUART_1,
  39:../../libDaisy//src/per/uart.h ****         };
  40:../../libDaisy//src/per/uart.h **** 
  41:../../libDaisy//src/per/uart.h ****         enum class StopBits
  42:../../libDaisy//src/per/uart.h ****         {
  43:../../libDaisy//src/per/uart.h ****             BITS_0_5,
  44:../../libDaisy//src/per/uart.h ****             BITS_1,
  45:../../libDaisy//src/per/uart.h ****             BITS_1_5,
  46:../../libDaisy//src/per/uart.h ****             BITS_2,
  47:../../libDaisy//src/per/uart.h ****         };
  48:../../libDaisy//src/per/uart.h **** 
  49:../../libDaisy//src/per/uart.h ****         enum class Parity
  50:../../libDaisy//src/per/uart.h ****         {
  51:../../libDaisy//src/per/uart.h ****             NONE,
  52:../../libDaisy//src/per/uart.h ****             EVEN,
  53:../../libDaisy//src/per/uart.h ****             ODD,
ARM GAS  /var/folders/1y/_321xjh9623c014x9_qw12rr0000gn/T//ccE17DNe.s 			page 48


  54:../../libDaisy//src/per/uart.h ****         };
  55:../../libDaisy//src/per/uart.h **** 
  56:../../libDaisy//src/per/uart.h ****         enum class Mode
  57:../../libDaisy//src/per/uart.h ****         {
  58:../../libDaisy//src/per/uart.h ****             RX,
  59:../../libDaisy//src/per/uart.h ****             TX,
  60:../../libDaisy//src/per/uart.h ****             TX_RX,
  61:../../libDaisy//src/per/uart.h ****         };
  62:../../libDaisy//src/per/uart.h **** 
  63:../../libDaisy//src/per/uart.h ****         enum class WordLength
  64:../../libDaisy//src/per/uart.h ****         {
  65:../../libDaisy//src/per/uart.h ****             BITS_7,
  66:../../libDaisy//src/per/uart.h ****             BITS_8,
  67:../../libDaisy//src/per/uart.h ****             BITS_9,
  68:../../libDaisy//src/per/uart.h ****         };
  69:../../libDaisy//src/per/uart.h **** 
  70:../../libDaisy//src/per/uart.h ****         struct
  71:../../libDaisy//src/per/uart.h ****         {
  72:../../libDaisy//src/per/uart.h ****             dsy_gpio_pin tx; /**< & */
  73:../../libDaisy//src/per/uart.h ****             dsy_gpio_pin rx; /**< & */
  74:../../libDaisy//src/per/uart.h ****         } pin_config;        /**< & */
  75:../../libDaisy//src/per/uart.h **** 
  76:../../libDaisy//src/per/uart.h ****         Config()
  77:../../libDaisy//src/per/uart.h ****         {
  78:../../libDaisy//src/per/uart.h ****             // user must init periph, pin_config, and mode
  79:../../libDaisy//src/per/uart.h ****             stopbits   = StopBits::BITS_1;
 1030              		.loc 7 79 24 is_stmt 0 view .LVU234
 1031 0028 0123     		movs	r3, #1
  80:../../libDaisy//src/per/uart.h ****             parity     = Parity::NONE;
 1032              		.loc 7 80 24 view .LVU235
 1033 002a 4FF0000E 		mov	lr, #0
 1034 002e 09AD     		add	r5, sp, #36
 1035 0030 D4F8C478 		ldr	r7, [r4, #2244]
 1036              	.LVL92:
  79:../../libDaisy//src/per/uart.h ****             parity     = Parity::NONE;
 1037              		.loc 7 79 24 view .LVU236
 1038 0034 0F93     		str	r3, [sp, #60]
  81:../../libDaisy//src/per/uart.h ****             wordlength = WordLength::BITS_8;
 1039              		.loc 7 81 24 view .LVU237
 1040 0036 1293     		str	r3, [sp, #72]
  82:../../libDaisy//src/per/uart.h ****             baudrate   = 31250;
 1041              		.loc 7 82 24 view .LVU238
 1042 0038 47F61223 		movw	r3, #31250
 1043 003c D4F8C868 		ldr	r6, [r4, #2248]
 1044              	.LVL93:
 1045              		.loc 7 82 24 view .LVU239
 1046              	.LBE387:
 1047              	.LBE386:
 1048              	.LBE385:
 1049              	.LBE384:
 1050              	.LBI383:
  62:../../libDaisy//src/hid/midi.h ****     {
 1051              		.loc 6 62 17 is_stmt 1 view .LVU240
 1052              	.LBB398:
  64:../../libDaisy//src/hid/midi.h **** 
 1053              		.loc 6 64 9 view .LVU241
 1054              	.LBB392:
ARM GAS  /var/folders/1y/_321xjh9623c014x9_qw12rr0000gn/T//ccE17DNe.s 			page 49


 1055              	.LBI385:
  76:../../libDaisy//src/per/uart.h ****         {
 1056              		.loc 7 76 9 view .LVU242
 1057              	.LBB390:
 1058              	.LBB388:
  79:../../libDaisy//src/per/uart.h ****             parity     = Parity::NONE;
 1059              		.loc 7 79 13 view .LVU243
  80:../../libDaisy//src/per/uart.h ****             wordlength = WordLength::BITS_8;
 1060              		.loc 7 80 13 view .LVU244
  81:../../libDaisy//src/per/uart.h ****             baudrate   = 31250;
 1061              		.loc 7 81 13 view .LVU245
 1062              		.loc 7 82 13 view .LVU246
 1063              		.loc 7 82 13 is_stmt 0 view .LVU247
 1064              	.LBE388:
 1065              	.LBE390:
 1066              	.LBE392:
  67:../../libDaisy//src/hid/midi.h ****         uart_config.stopbits   = UartHandler::Config::StopBits::BITS_1;
 1067              		.loc 6 67 9 is_stmt 1 view .LVU248
  68:../../libDaisy//src/hid/midi.h ****         uart_config.parity     = UartHandler::Config::Parity::NONE;
 1068              		.loc 6 68 9 view .LVU249
  69:../../libDaisy//src/hid/midi.h ****         uart_config.mode       = UartHandler::Config::Mode::TX_RX;
 1069              		.loc 6 69 9 view .LVU250
  70:../../libDaisy//src/hid/midi.h ****         uart_config.wordlength = UartHandler::Config::WordLength::BITS_8;
 1070              		.loc 6 70 9 view .LVU251
  71:../../libDaisy//src/hid/midi.h **** 
 1071              		.loc 6 71 9 view .LVU252
  74:../../libDaisy//src/hid/midi.h ****         uart_config.pin_config.rx = config.rx;
 1072              		.loc 6 74 9 view .LVU253
 1073              	.LBB393:
 1074              	.LBB391:
 1075              	.LBB389:
 1076              		.loc 7 82 24 is_stmt 0 view .LVU254
 1077 0040 1393     		str	r3, [sp, #76]
  80:../../libDaisy//src/per/uart.h ****             wordlength = WordLength::BITS_8;
 1078              		.loc 7 80 24 view .LVU255
 1079 0042 0223     		movs	r3, #2
 1080 0044 CDE910E3 		strd	lr, r3, [sp, #64]
 1081 0048 9CE80F00 		ldm	ip, {r0, r1, r2, r3}
 1082 004c 85E80F00 		stm	r5, {r0, r1, r2, r3}
 1083              	.LBE389:
 1084              	.LBE391:
 1085              	.LBE393:
  75:../../libDaisy//src/hid/midi.h ****         uart_config.pin_config.tx = config.tx;
 1086              		.loc 6 75 35 view .LVU256
 1087 0050 BDF82830 		ldrh	r3, [sp, #40]
  74:../../libDaisy//src/hid/midi.h ****         uart_config.pin_config.rx = config.rx;
 1088              		.loc 6 74 35 view .LVU257
 1089 0054 0E90     		str	r0, [sp, #56]
  75:../../libDaisy//src/hid/midi.h ****         uart_config.pin_config.tx = config.tx;
 1090              		.loc 6 75 9 is_stmt 1 view .LVU258
  78:../../libDaisy//src/hid/midi.h ****         rx_buffer_size = config.rx_buffer_size;
 1091              		.loc 6 78 24 is_stmt 0 view .LVU259
 1092 0056 C4F8D078 		str	r7, [r4, #2256]
  79:../../libDaisy//src/hid/midi.h **** 
 1093              		.loc 6 79 24 view .LVU260
 1094 005a C4F8D468 		str	r6, [r4, #2260]
  75:../../libDaisy//src/hid/midi.h ****         uart_config.pin_config.tx = config.tx;
ARM GAS  /var/folders/1y/_321xjh9623c014x9_qw12rr0000gn/T//ccE17DNe.s 			page 50


 1095              		.loc 6 75 35 view .LVU261
 1096 005e ADF83630 		strh	r3, [sp, #54]	@ movhi
  76:../../libDaisy//src/hid/midi.h **** 
 1097              		.loc 6 76 9 is_stmt 1 view .LVU262
  76:../../libDaisy//src/hid/midi.h **** 
 1098              		.loc 6 76 35 is_stmt 0 view .LVU263
 1099 0062 BDF82A30 		ldrh	r3, [sp, #42]
 1100 0066 ADF83430 		strh	r3, [sp, #52]	@ movhi
  78:../../libDaisy//src/hid/midi.h ****         rx_buffer_size = config.rx_buffer_size;
 1101              		.loc 6 78 9 is_stmt 1 view .LVU264
  79:../../libDaisy//src/hid/midi.h **** 
 1102              		.loc 6 79 9 view .LVU265
  82:../../libDaisy//src/hid/midi.h **** 
 1103              		.loc 6 82 9 view .LVU266
 1104              	.LVL94:
 1105              	.LBB394:
 1106              	.LBI394:
 260:/Library/DaisyToolchain/0.2.0/arm/arm-none-eabi/include/c++/10.3.1/bits/stl_algobase.h **** 	return __b;
 261:/Library/DaisyToolchain/0.2.0/arm/arm-none-eabi/include/c++/10.3.1/bits/stl_algobase.h ****       return __a;
 262:/Library/DaisyToolchain/0.2.0/arm/arm-none-eabi/include/c++/10.3.1/bits/stl_algobase.h ****     }
 263:/Library/DaisyToolchain/0.2.0/arm/arm-none-eabi/include/c++/10.3.1/bits/stl_algobase.h **** 
 264:/Library/DaisyToolchain/0.2.0/arm/arm-none-eabi/include/c++/10.3.1/bits/stl_algobase.h ****   /**
 265:/Library/DaisyToolchain/0.2.0/arm/arm-none-eabi/include/c++/10.3.1/bits/stl_algobase.h ****    *  @brief This does what you think it does.
 266:/Library/DaisyToolchain/0.2.0/arm/arm-none-eabi/include/c++/10.3.1/bits/stl_algobase.h ****    *  @ingroup sorting_algorithms
 267:/Library/DaisyToolchain/0.2.0/arm/arm-none-eabi/include/c++/10.3.1/bits/stl_algobase.h ****    *  @param  __a  A thing of arbitrary type.
 268:/Library/DaisyToolchain/0.2.0/arm/arm-none-eabi/include/c++/10.3.1/bits/stl_algobase.h ****    *  @param  __b  Another thing of arbitrary type.
 269:/Library/DaisyToolchain/0.2.0/arm/arm-none-eabi/include/c++/10.3.1/bits/stl_algobase.h ****    *  @param  __comp  A @link comparison_functors comparison functor@endlink.
 270:/Library/DaisyToolchain/0.2.0/arm/arm-none-eabi/include/c++/10.3.1/bits/stl_algobase.h ****    *  @return   The lesser of the parameters.
 271:/Library/DaisyToolchain/0.2.0/arm/arm-none-eabi/include/c++/10.3.1/bits/stl_algobase.h ****    *
 272:/Library/DaisyToolchain/0.2.0/arm/arm-none-eabi/include/c++/10.3.1/bits/stl_algobase.h ****    *  This will work on temporary expressions, since they are only evaluated
 273:/Library/DaisyToolchain/0.2.0/arm/arm-none-eabi/include/c++/10.3.1/bits/stl_algobase.h ****    *  once, unlike a preprocessor macro.
 274:/Library/DaisyToolchain/0.2.0/arm/arm-none-eabi/include/c++/10.3.1/bits/stl_algobase.h ****   */
 275:/Library/DaisyToolchain/0.2.0/arm/arm-none-eabi/include/c++/10.3.1/bits/stl_algobase.h ****   template<typename _Tp, typename _Compare>
 276:/Library/DaisyToolchain/0.2.0/arm/arm-none-eabi/include/c++/10.3.1/bits/stl_algobase.h ****     _GLIBCXX14_CONSTEXPR
 277:/Library/DaisyToolchain/0.2.0/arm/arm-none-eabi/include/c++/10.3.1/bits/stl_algobase.h ****     inline const _Tp&
 278:/Library/DaisyToolchain/0.2.0/arm/arm-none-eabi/include/c++/10.3.1/bits/stl_algobase.h ****     min(const _Tp& __a, const _Tp& __b, _Compare __comp)
 279:/Library/DaisyToolchain/0.2.0/arm/arm-none-eabi/include/c++/10.3.1/bits/stl_algobase.h ****     {
 280:/Library/DaisyToolchain/0.2.0/arm/arm-none-eabi/include/c++/10.3.1/bits/stl_algobase.h ****       //return __comp(__b, __a) ? __b : __a;
 281:/Library/DaisyToolchain/0.2.0/arm/arm-none-eabi/include/c++/10.3.1/bits/stl_algobase.h ****       if (__comp(__b, __a))
 282:/Library/DaisyToolchain/0.2.0/arm/arm-none-eabi/include/c++/10.3.1/bits/stl_algobase.h **** 	return __b;
 283:/Library/DaisyToolchain/0.2.0/arm/arm-none-eabi/include/c++/10.3.1/bits/stl_algobase.h ****       return __a;
 284:/Library/DaisyToolchain/0.2.0/arm/arm-none-eabi/include/c++/10.3.1/bits/stl_algobase.h ****     }
 285:/Library/DaisyToolchain/0.2.0/arm/arm-none-eabi/include/c++/10.3.1/bits/stl_algobase.h **** 
 286:/Library/DaisyToolchain/0.2.0/arm/arm-none-eabi/include/c++/10.3.1/bits/stl_algobase.h ****   /**
 287:/Library/DaisyToolchain/0.2.0/arm/arm-none-eabi/include/c++/10.3.1/bits/stl_algobase.h ****    *  @brief This does what you think it does.
 288:/Library/DaisyToolchain/0.2.0/arm/arm-none-eabi/include/c++/10.3.1/bits/stl_algobase.h ****    *  @ingroup sorting_algorithms
 289:/Library/DaisyToolchain/0.2.0/arm/arm-none-eabi/include/c++/10.3.1/bits/stl_algobase.h ****    *  @param  __a  A thing of arbitrary type.
 290:/Library/DaisyToolchain/0.2.0/arm/arm-none-eabi/include/c++/10.3.1/bits/stl_algobase.h ****    *  @param  __b  Another thing of arbitrary type.
 291:/Library/DaisyToolchain/0.2.0/arm/arm-none-eabi/include/c++/10.3.1/bits/stl_algobase.h ****    *  @param  __comp  A @link comparison_functors comparison functor@endlink.
 292:/Library/DaisyToolchain/0.2.0/arm/arm-none-eabi/include/c++/10.3.1/bits/stl_algobase.h ****    *  @return   The greater of the parameters.
 293:/Library/DaisyToolchain/0.2.0/arm/arm-none-eabi/include/c++/10.3.1/bits/stl_algobase.h ****    *
 294:/Library/DaisyToolchain/0.2.0/arm/arm-none-eabi/include/c++/10.3.1/bits/stl_algobase.h ****    *  This will work on temporary expressions, since they are only evaluated
 295:/Library/DaisyToolchain/0.2.0/arm/arm-none-eabi/include/c++/10.3.1/bits/stl_algobase.h ****    *  once, unlike a preprocessor macro.
 296:/Library/DaisyToolchain/0.2.0/arm/arm-none-eabi/include/c++/10.3.1/bits/stl_algobase.h ****   */
 297:/Library/DaisyToolchain/0.2.0/arm/arm-none-eabi/include/c++/10.3.1/bits/stl_algobase.h ****   template<typename _Tp, typename _Compare>
 298:/Library/DaisyToolchain/0.2.0/arm/arm-none-eabi/include/c++/10.3.1/bits/stl_algobase.h ****     _GLIBCXX14_CONSTEXPR
 299:/Library/DaisyToolchain/0.2.0/arm/arm-none-eabi/include/c++/10.3.1/bits/stl_algobase.h ****     inline const _Tp&
ARM GAS  /var/folders/1y/_321xjh9623c014x9_qw12rr0000gn/T//ccE17DNe.s 			page 51


 300:/Library/DaisyToolchain/0.2.0/arm/arm-none-eabi/include/c++/10.3.1/bits/stl_algobase.h ****     max(const _Tp& __a, const _Tp& __b, _Compare __comp)
 301:/Library/DaisyToolchain/0.2.0/arm/arm-none-eabi/include/c++/10.3.1/bits/stl_algobase.h ****     {
 302:/Library/DaisyToolchain/0.2.0/arm/arm-none-eabi/include/c++/10.3.1/bits/stl_algobase.h ****       //return __comp(__a, __b) ? __b : __a;
 303:/Library/DaisyToolchain/0.2.0/arm/arm-none-eabi/include/c++/10.3.1/bits/stl_algobase.h ****       if (__comp(__a, __b))
 304:/Library/DaisyToolchain/0.2.0/arm/arm-none-eabi/include/c++/10.3.1/bits/stl_algobase.h **** 	return __b;
 305:/Library/DaisyToolchain/0.2.0/arm/arm-none-eabi/include/c++/10.3.1/bits/stl_algobase.h ****       return __a;
 306:/Library/DaisyToolchain/0.2.0/arm/arm-none-eabi/include/c++/10.3.1/bits/stl_algobase.h ****     }
 307:/Library/DaisyToolchain/0.2.0/arm/arm-none-eabi/include/c++/10.3.1/bits/stl_algobase.h **** 
 308:/Library/DaisyToolchain/0.2.0/arm/arm-none-eabi/include/c++/10.3.1/bits/stl_algobase.h ****   // Fallback implementation of the function in bits/stl_iterator.h used to
 309:/Library/DaisyToolchain/0.2.0/arm/arm-none-eabi/include/c++/10.3.1/bits/stl_algobase.h ****   // remove the __normal_iterator wrapper. See copy, fill, ...
 310:/Library/DaisyToolchain/0.2.0/arm/arm-none-eabi/include/c++/10.3.1/bits/stl_algobase.h ****   template<typename _Iterator>
 311:/Library/DaisyToolchain/0.2.0/arm/arm-none-eabi/include/c++/10.3.1/bits/stl_algobase.h ****     _GLIBCXX20_CONSTEXPR
 312:/Library/DaisyToolchain/0.2.0/arm/arm-none-eabi/include/c++/10.3.1/bits/stl_algobase.h ****     inline _Iterator
 313:/Library/DaisyToolchain/0.2.0/arm/arm-none-eabi/include/c++/10.3.1/bits/stl_algobase.h ****     __niter_base(_Iterator __it)
 314:/Library/DaisyToolchain/0.2.0/arm/arm-none-eabi/include/c++/10.3.1/bits/stl_algobase.h ****     _GLIBCXX_NOEXCEPT_IF(std::is_nothrow_copy_constructible<_Iterator>::value)
 315:/Library/DaisyToolchain/0.2.0/arm/arm-none-eabi/include/c++/10.3.1/bits/stl_algobase.h ****     { return __it; }
 316:/Library/DaisyToolchain/0.2.0/arm/arm-none-eabi/include/c++/10.3.1/bits/stl_algobase.h **** 
 317:/Library/DaisyToolchain/0.2.0/arm/arm-none-eabi/include/c++/10.3.1/bits/stl_algobase.h ****   // Reverse the __niter_base transformation to get a
 318:/Library/DaisyToolchain/0.2.0/arm/arm-none-eabi/include/c++/10.3.1/bits/stl_algobase.h ****   // __normal_iterator back again (this assumes that __normal_iterator
 319:/Library/DaisyToolchain/0.2.0/arm/arm-none-eabi/include/c++/10.3.1/bits/stl_algobase.h ****   // is only used to wrap random access iterators, like pointers).
 320:/Library/DaisyToolchain/0.2.0/arm/arm-none-eabi/include/c++/10.3.1/bits/stl_algobase.h ****   template<typename _From, typename _To>
 321:/Library/DaisyToolchain/0.2.0/arm/arm-none-eabi/include/c++/10.3.1/bits/stl_algobase.h ****     _GLIBCXX20_CONSTEXPR
 322:/Library/DaisyToolchain/0.2.0/arm/arm-none-eabi/include/c++/10.3.1/bits/stl_algobase.h ****     inline _From
 323:/Library/DaisyToolchain/0.2.0/arm/arm-none-eabi/include/c++/10.3.1/bits/stl_algobase.h ****     __niter_wrap(_From __from, _To __res)
 324:/Library/DaisyToolchain/0.2.0/arm/arm-none-eabi/include/c++/10.3.1/bits/stl_algobase.h ****     { return __from + (__res - std::__niter_base(__from)); }
 325:/Library/DaisyToolchain/0.2.0/arm/arm-none-eabi/include/c++/10.3.1/bits/stl_algobase.h **** 
 326:/Library/DaisyToolchain/0.2.0/arm/arm-none-eabi/include/c++/10.3.1/bits/stl_algobase.h ****   // No need to wrap, iterator already has the right type.
 327:/Library/DaisyToolchain/0.2.0/arm/arm-none-eabi/include/c++/10.3.1/bits/stl_algobase.h ****   template<typename _Iterator>
 328:/Library/DaisyToolchain/0.2.0/arm/arm-none-eabi/include/c++/10.3.1/bits/stl_algobase.h ****     _GLIBCXX20_CONSTEXPR
 329:/Library/DaisyToolchain/0.2.0/arm/arm-none-eabi/include/c++/10.3.1/bits/stl_algobase.h ****     inline _Iterator
 330:/Library/DaisyToolchain/0.2.0/arm/arm-none-eabi/include/c++/10.3.1/bits/stl_algobase.h ****     __niter_wrap(const _Iterator&, _Iterator __res)
 331:/Library/DaisyToolchain/0.2.0/arm/arm-none-eabi/include/c++/10.3.1/bits/stl_algobase.h ****     { return __res; }
 332:/Library/DaisyToolchain/0.2.0/arm/arm-none-eabi/include/c++/10.3.1/bits/stl_algobase.h **** 
 333:/Library/DaisyToolchain/0.2.0/arm/arm-none-eabi/include/c++/10.3.1/bits/stl_algobase.h ****   // All of these auxiliary structs serve two purposes.  (1) Replace
 334:/Library/DaisyToolchain/0.2.0/arm/arm-none-eabi/include/c++/10.3.1/bits/stl_algobase.h ****   // calls to copy with memmove whenever possible.  (Memmove, not memcpy,
 335:/Library/DaisyToolchain/0.2.0/arm/arm-none-eabi/include/c++/10.3.1/bits/stl_algobase.h ****   // because the input and output ranges are permitted to overlap.)
 336:/Library/DaisyToolchain/0.2.0/arm/arm-none-eabi/include/c++/10.3.1/bits/stl_algobase.h ****   // (2) If we're using random access iterators, then write the loop as
 337:/Library/DaisyToolchain/0.2.0/arm/arm-none-eabi/include/c++/10.3.1/bits/stl_algobase.h ****   // a for loop with an explicit count.
 338:/Library/DaisyToolchain/0.2.0/arm/arm-none-eabi/include/c++/10.3.1/bits/stl_algobase.h **** 
 339:/Library/DaisyToolchain/0.2.0/arm/arm-none-eabi/include/c++/10.3.1/bits/stl_algobase.h ****   template<bool _IsMove, bool _IsSimple, typename _Category>
 340:/Library/DaisyToolchain/0.2.0/arm/arm-none-eabi/include/c++/10.3.1/bits/stl_algobase.h ****     struct __copy_move
 341:/Library/DaisyToolchain/0.2.0/arm/arm-none-eabi/include/c++/10.3.1/bits/stl_algobase.h ****     {
 342:/Library/DaisyToolchain/0.2.0/arm/arm-none-eabi/include/c++/10.3.1/bits/stl_algobase.h ****       template<typename _II, typename _OI>
 343:/Library/DaisyToolchain/0.2.0/arm/arm-none-eabi/include/c++/10.3.1/bits/stl_algobase.h **** 	_GLIBCXX20_CONSTEXPR
 344:/Library/DaisyToolchain/0.2.0/arm/arm-none-eabi/include/c++/10.3.1/bits/stl_algobase.h **** 	static _OI
 345:/Library/DaisyToolchain/0.2.0/arm/arm-none-eabi/include/c++/10.3.1/bits/stl_algobase.h **** 	__copy_m(_II __first, _II __last, _OI __result)
 346:/Library/DaisyToolchain/0.2.0/arm/arm-none-eabi/include/c++/10.3.1/bits/stl_algobase.h **** 	{
 347:/Library/DaisyToolchain/0.2.0/arm/arm-none-eabi/include/c++/10.3.1/bits/stl_algobase.h **** 	  for (; __first != __last; ++__result, (void)++__first)
 348:/Library/DaisyToolchain/0.2.0/arm/arm-none-eabi/include/c++/10.3.1/bits/stl_algobase.h **** 	    *__result = *__first;
 349:/Library/DaisyToolchain/0.2.0/arm/arm-none-eabi/include/c++/10.3.1/bits/stl_algobase.h **** 	  return __result;
 350:/Library/DaisyToolchain/0.2.0/arm/arm-none-eabi/include/c++/10.3.1/bits/stl_algobase.h **** 	}
 351:/Library/DaisyToolchain/0.2.0/arm/arm-none-eabi/include/c++/10.3.1/bits/stl_algobase.h ****     };
 352:/Library/DaisyToolchain/0.2.0/arm/arm-none-eabi/include/c++/10.3.1/bits/stl_algobase.h **** 
 353:/Library/DaisyToolchain/0.2.0/arm/arm-none-eabi/include/c++/10.3.1/bits/stl_algobase.h **** #if __cplusplus >= 201103L
 354:/Library/DaisyToolchain/0.2.0/arm/arm-none-eabi/include/c++/10.3.1/bits/stl_algobase.h ****   template<typename _Category>
 355:/Library/DaisyToolchain/0.2.0/arm/arm-none-eabi/include/c++/10.3.1/bits/stl_algobase.h ****     struct __copy_move<true, false, _Category>
 356:/Library/DaisyToolchain/0.2.0/arm/arm-none-eabi/include/c++/10.3.1/bits/stl_algobase.h ****     {
ARM GAS  /var/folders/1y/_321xjh9623c014x9_qw12rr0000gn/T//ccE17DNe.s 			page 52


 357:/Library/DaisyToolchain/0.2.0/arm/arm-none-eabi/include/c++/10.3.1/bits/stl_algobase.h ****       template<typename _II, typename _OI>
 358:/Library/DaisyToolchain/0.2.0/arm/arm-none-eabi/include/c++/10.3.1/bits/stl_algobase.h **** 	_GLIBCXX20_CONSTEXPR
 359:/Library/DaisyToolchain/0.2.0/arm/arm-none-eabi/include/c++/10.3.1/bits/stl_algobase.h **** 	static _OI
 360:/Library/DaisyToolchain/0.2.0/arm/arm-none-eabi/include/c++/10.3.1/bits/stl_algobase.h **** 	__copy_m(_II __first, _II __last, _OI __result)
 361:/Library/DaisyToolchain/0.2.0/arm/arm-none-eabi/include/c++/10.3.1/bits/stl_algobase.h **** 	{
 362:/Library/DaisyToolchain/0.2.0/arm/arm-none-eabi/include/c++/10.3.1/bits/stl_algobase.h **** 	  for (; __first != __last; ++__result, (void)++__first)
 363:/Library/DaisyToolchain/0.2.0/arm/arm-none-eabi/include/c++/10.3.1/bits/stl_algobase.h **** 	    *__result = std::move(*__first);
 364:/Library/DaisyToolchain/0.2.0/arm/arm-none-eabi/include/c++/10.3.1/bits/stl_algobase.h **** 	  return __result;
 365:/Library/DaisyToolchain/0.2.0/arm/arm-none-eabi/include/c++/10.3.1/bits/stl_algobase.h **** 	}
 366:/Library/DaisyToolchain/0.2.0/arm/arm-none-eabi/include/c++/10.3.1/bits/stl_algobase.h ****     };
 367:/Library/DaisyToolchain/0.2.0/arm/arm-none-eabi/include/c++/10.3.1/bits/stl_algobase.h **** #endif
 368:/Library/DaisyToolchain/0.2.0/arm/arm-none-eabi/include/c++/10.3.1/bits/stl_algobase.h **** 
 369:/Library/DaisyToolchain/0.2.0/arm/arm-none-eabi/include/c++/10.3.1/bits/stl_algobase.h ****   template<>
 370:/Library/DaisyToolchain/0.2.0/arm/arm-none-eabi/include/c++/10.3.1/bits/stl_algobase.h ****     struct __copy_move<false, false, random_access_iterator_tag>
 371:/Library/DaisyToolchain/0.2.0/arm/arm-none-eabi/include/c++/10.3.1/bits/stl_algobase.h ****     {
 372:/Library/DaisyToolchain/0.2.0/arm/arm-none-eabi/include/c++/10.3.1/bits/stl_algobase.h ****       template<typename _II, typename _OI>
 373:/Library/DaisyToolchain/0.2.0/arm/arm-none-eabi/include/c++/10.3.1/bits/stl_algobase.h **** 	_GLIBCXX20_CONSTEXPR
 374:/Library/DaisyToolchain/0.2.0/arm/arm-none-eabi/include/c++/10.3.1/bits/stl_algobase.h **** 	static _OI
 375:/Library/DaisyToolchain/0.2.0/arm/arm-none-eabi/include/c++/10.3.1/bits/stl_algobase.h **** 	__copy_m(_II __first, _II __last, _OI __result)
 376:/Library/DaisyToolchain/0.2.0/arm/arm-none-eabi/include/c++/10.3.1/bits/stl_algobase.h **** 	{
 377:/Library/DaisyToolchain/0.2.0/arm/arm-none-eabi/include/c++/10.3.1/bits/stl_algobase.h **** 	  typedef typename iterator_traits<_II>::difference_type _Distance;
 378:/Library/DaisyToolchain/0.2.0/arm/arm-none-eabi/include/c++/10.3.1/bits/stl_algobase.h **** 	  for(_Distance __n = __last - __first; __n > 0; --__n)
 379:/Library/DaisyToolchain/0.2.0/arm/arm-none-eabi/include/c++/10.3.1/bits/stl_algobase.h **** 	    {
 380:/Library/DaisyToolchain/0.2.0/arm/arm-none-eabi/include/c++/10.3.1/bits/stl_algobase.h **** 	      *__result = *__first;
 381:/Library/DaisyToolchain/0.2.0/arm/arm-none-eabi/include/c++/10.3.1/bits/stl_algobase.h **** 	      ++__first;
 382:/Library/DaisyToolchain/0.2.0/arm/arm-none-eabi/include/c++/10.3.1/bits/stl_algobase.h **** 	      ++__result;
 383:/Library/DaisyToolchain/0.2.0/arm/arm-none-eabi/include/c++/10.3.1/bits/stl_algobase.h **** 	    }
 384:/Library/DaisyToolchain/0.2.0/arm/arm-none-eabi/include/c++/10.3.1/bits/stl_algobase.h **** 	  return __result;
 385:/Library/DaisyToolchain/0.2.0/arm/arm-none-eabi/include/c++/10.3.1/bits/stl_algobase.h **** 	}
 386:/Library/DaisyToolchain/0.2.0/arm/arm-none-eabi/include/c++/10.3.1/bits/stl_algobase.h ****     };
 387:/Library/DaisyToolchain/0.2.0/arm/arm-none-eabi/include/c++/10.3.1/bits/stl_algobase.h **** 
 388:/Library/DaisyToolchain/0.2.0/arm/arm-none-eabi/include/c++/10.3.1/bits/stl_algobase.h **** #if __cplusplus >= 201103L
 389:/Library/DaisyToolchain/0.2.0/arm/arm-none-eabi/include/c++/10.3.1/bits/stl_algobase.h ****   template<>
 390:/Library/DaisyToolchain/0.2.0/arm/arm-none-eabi/include/c++/10.3.1/bits/stl_algobase.h ****     struct __copy_move<true, false, random_access_iterator_tag>
 391:/Library/DaisyToolchain/0.2.0/arm/arm-none-eabi/include/c++/10.3.1/bits/stl_algobase.h ****     {
 392:/Library/DaisyToolchain/0.2.0/arm/arm-none-eabi/include/c++/10.3.1/bits/stl_algobase.h ****       template<typename _II, typename _OI>
 393:/Library/DaisyToolchain/0.2.0/arm/arm-none-eabi/include/c++/10.3.1/bits/stl_algobase.h **** 	_GLIBCXX20_CONSTEXPR
 394:/Library/DaisyToolchain/0.2.0/arm/arm-none-eabi/include/c++/10.3.1/bits/stl_algobase.h **** 	static _OI
 395:/Library/DaisyToolchain/0.2.0/arm/arm-none-eabi/include/c++/10.3.1/bits/stl_algobase.h **** 	__copy_m(_II __first, _II __last, _OI __result)
 396:/Library/DaisyToolchain/0.2.0/arm/arm-none-eabi/include/c++/10.3.1/bits/stl_algobase.h **** 	{
 397:/Library/DaisyToolchain/0.2.0/arm/arm-none-eabi/include/c++/10.3.1/bits/stl_algobase.h **** 	  typedef typename iterator_traits<_II>::difference_type _Distance;
 398:/Library/DaisyToolchain/0.2.0/arm/arm-none-eabi/include/c++/10.3.1/bits/stl_algobase.h **** 	  for(_Distance __n = __last - __first; __n > 0; --__n)
 399:/Library/DaisyToolchain/0.2.0/arm/arm-none-eabi/include/c++/10.3.1/bits/stl_algobase.h **** 	    {
 400:/Library/DaisyToolchain/0.2.0/arm/arm-none-eabi/include/c++/10.3.1/bits/stl_algobase.h **** 	      *__result = std::move(*__first);
 401:/Library/DaisyToolchain/0.2.0/arm/arm-none-eabi/include/c++/10.3.1/bits/stl_algobase.h **** 	      ++__first;
 402:/Library/DaisyToolchain/0.2.0/arm/arm-none-eabi/include/c++/10.3.1/bits/stl_algobase.h **** 	      ++__result;
 403:/Library/DaisyToolchain/0.2.0/arm/arm-none-eabi/include/c++/10.3.1/bits/stl_algobase.h **** 	    }
 404:/Library/DaisyToolchain/0.2.0/arm/arm-none-eabi/include/c++/10.3.1/bits/stl_algobase.h **** 	  return __result;
 405:/Library/DaisyToolchain/0.2.0/arm/arm-none-eabi/include/c++/10.3.1/bits/stl_algobase.h **** 	}
 406:/Library/DaisyToolchain/0.2.0/arm/arm-none-eabi/include/c++/10.3.1/bits/stl_algobase.h ****     };
 407:/Library/DaisyToolchain/0.2.0/arm/arm-none-eabi/include/c++/10.3.1/bits/stl_algobase.h **** #endif
 408:/Library/DaisyToolchain/0.2.0/arm/arm-none-eabi/include/c++/10.3.1/bits/stl_algobase.h **** 
 409:/Library/DaisyToolchain/0.2.0/arm/arm-none-eabi/include/c++/10.3.1/bits/stl_algobase.h ****   template<bool _IsMove>
 410:/Library/DaisyToolchain/0.2.0/arm/arm-none-eabi/include/c++/10.3.1/bits/stl_algobase.h ****     struct __copy_move<_IsMove, true, random_access_iterator_tag>
 411:/Library/DaisyToolchain/0.2.0/arm/arm-none-eabi/include/c++/10.3.1/bits/stl_algobase.h ****     {
 412:/Library/DaisyToolchain/0.2.0/arm/arm-none-eabi/include/c++/10.3.1/bits/stl_algobase.h ****       template<typename _Tp>
 413:/Library/DaisyToolchain/0.2.0/arm/arm-none-eabi/include/c++/10.3.1/bits/stl_algobase.h **** 	_GLIBCXX20_CONSTEXPR
ARM GAS  /var/folders/1y/_321xjh9623c014x9_qw12rr0000gn/T//ccE17DNe.s 			page 53


 414:/Library/DaisyToolchain/0.2.0/arm/arm-none-eabi/include/c++/10.3.1/bits/stl_algobase.h **** 	static _Tp*
 415:/Library/DaisyToolchain/0.2.0/arm/arm-none-eabi/include/c++/10.3.1/bits/stl_algobase.h **** 	__copy_m(const _Tp* __first, const _Tp* __last, _Tp* __result)
 416:/Library/DaisyToolchain/0.2.0/arm/arm-none-eabi/include/c++/10.3.1/bits/stl_algobase.h **** 	{
 417:/Library/DaisyToolchain/0.2.0/arm/arm-none-eabi/include/c++/10.3.1/bits/stl_algobase.h **** #if __cplusplus >= 201103L
 418:/Library/DaisyToolchain/0.2.0/arm/arm-none-eabi/include/c++/10.3.1/bits/stl_algobase.h **** 	  using __assignable = conditional<_IsMove,
 419:/Library/DaisyToolchain/0.2.0/arm/arm-none-eabi/include/c++/10.3.1/bits/stl_algobase.h **** 					   is_move_assignable<_Tp>,
 420:/Library/DaisyToolchain/0.2.0/arm/arm-none-eabi/include/c++/10.3.1/bits/stl_algobase.h **** 					   is_copy_assignable<_Tp>>;
 421:/Library/DaisyToolchain/0.2.0/arm/arm-none-eabi/include/c++/10.3.1/bits/stl_algobase.h **** 	  // trivial types can have deleted assignment
 422:/Library/DaisyToolchain/0.2.0/arm/arm-none-eabi/include/c++/10.3.1/bits/stl_algobase.h **** 	  static_assert( __assignable::type::value, "type is not assignable" );
 423:/Library/DaisyToolchain/0.2.0/arm/arm-none-eabi/include/c++/10.3.1/bits/stl_algobase.h **** #endif
 424:/Library/DaisyToolchain/0.2.0/arm/arm-none-eabi/include/c++/10.3.1/bits/stl_algobase.h **** 	  const ptrdiff_t _Num = __last - __first;
 425:/Library/DaisyToolchain/0.2.0/arm/arm-none-eabi/include/c++/10.3.1/bits/stl_algobase.h **** 	  if (_Num)
 426:/Library/DaisyToolchain/0.2.0/arm/arm-none-eabi/include/c++/10.3.1/bits/stl_algobase.h **** 	    __builtin_memmove(__result, __first, sizeof(_Tp) * _Num);
 427:/Library/DaisyToolchain/0.2.0/arm/arm-none-eabi/include/c++/10.3.1/bits/stl_algobase.h **** 	  return __result + _Num;
 428:/Library/DaisyToolchain/0.2.0/arm/arm-none-eabi/include/c++/10.3.1/bits/stl_algobase.h **** 	}
 429:/Library/DaisyToolchain/0.2.0/arm/arm-none-eabi/include/c++/10.3.1/bits/stl_algobase.h ****     };
 430:/Library/DaisyToolchain/0.2.0/arm/arm-none-eabi/include/c++/10.3.1/bits/stl_algobase.h **** 
 431:/Library/DaisyToolchain/0.2.0/arm/arm-none-eabi/include/c++/10.3.1/bits/stl_algobase.h ****   // Helpers for streambuf iterators (either istream or ostream).
 432:/Library/DaisyToolchain/0.2.0/arm/arm-none-eabi/include/c++/10.3.1/bits/stl_algobase.h ****   // NB: avoid including <iosfwd>, relatively large.
 433:/Library/DaisyToolchain/0.2.0/arm/arm-none-eabi/include/c++/10.3.1/bits/stl_algobase.h ****   template<typename _CharT>
 434:/Library/DaisyToolchain/0.2.0/arm/arm-none-eabi/include/c++/10.3.1/bits/stl_algobase.h ****     struct char_traits;
 435:/Library/DaisyToolchain/0.2.0/arm/arm-none-eabi/include/c++/10.3.1/bits/stl_algobase.h **** 
 436:/Library/DaisyToolchain/0.2.0/arm/arm-none-eabi/include/c++/10.3.1/bits/stl_algobase.h ****   template<typename _CharT, typename _Traits>
 437:/Library/DaisyToolchain/0.2.0/arm/arm-none-eabi/include/c++/10.3.1/bits/stl_algobase.h ****     class istreambuf_iterator;
 438:/Library/DaisyToolchain/0.2.0/arm/arm-none-eabi/include/c++/10.3.1/bits/stl_algobase.h **** 
 439:/Library/DaisyToolchain/0.2.0/arm/arm-none-eabi/include/c++/10.3.1/bits/stl_algobase.h ****   template<typename _CharT, typename _Traits>
 440:/Library/DaisyToolchain/0.2.0/arm/arm-none-eabi/include/c++/10.3.1/bits/stl_algobase.h ****     class ostreambuf_iterator;
 441:/Library/DaisyToolchain/0.2.0/arm/arm-none-eabi/include/c++/10.3.1/bits/stl_algobase.h **** 
 442:/Library/DaisyToolchain/0.2.0/arm/arm-none-eabi/include/c++/10.3.1/bits/stl_algobase.h ****   template<bool _IsMove, typename _CharT>
 443:/Library/DaisyToolchain/0.2.0/arm/arm-none-eabi/include/c++/10.3.1/bits/stl_algobase.h ****     typename __gnu_cxx::__enable_if<__is_char<_CharT>::__value,
 444:/Library/DaisyToolchain/0.2.0/arm/arm-none-eabi/include/c++/10.3.1/bits/stl_algobase.h **** 	     ostreambuf_iterator<_CharT, char_traits<_CharT> > >::__type
 445:/Library/DaisyToolchain/0.2.0/arm/arm-none-eabi/include/c++/10.3.1/bits/stl_algobase.h ****     __copy_move_a2(_CharT*, _CharT*,
 446:/Library/DaisyToolchain/0.2.0/arm/arm-none-eabi/include/c++/10.3.1/bits/stl_algobase.h **** 		   ostreambuf_iterator<_CharT, char_traits<_CharT> >);
 447:/Library/DaisyToolchain/0.2.0/arm/arm-none-eabi/include/c++/10.3.1/bits/stl_algobase.h **** 
 448:/Library/DaisyToolchain/0.2.0/arm/arm-none-eabi/include/c++/10.3.1/bits/stl_algobase.h ****   template<bool _IsMove, typename _CharT>
 449:/Library/DaisyToolchain/0.2.0/arm/arm-none-eabi/include/c++/10.3.1/bits/stl_algobase.h ****     typename __gnu_cxx::__enable_if<__is_char<_CharT>::__value,
 450:/Library/DaisyToolchain/0.2.0/arm/arm-none-eabi/include/c++/10.3.1/bits/stl_algobase.h **** 	     ostreambuf_iterator<_CharT, char_traits<_CharT> > >::__type
 451:/Library/DaisyToolchain/0.2.0/arm/arm-none-eabi/include/c++/10.3.1/bits/stl_algobase.h ****     __copy_move_a2(const _CharT*, const _CharT*,
 452:/Library/DaisyToolchain/0.2.0/arm/arm-none-eabi/include/c++/10.3.1/bits/stl_algobase.h **** 		   ostreambuf_iterator<_CharT, char_traits<_CharT> >);
 453:/Library/DaisyToolchain/0.2.0/arm/arm-none-eabi/include/c++/10.3.1/bits/stl_algobase.h **** 
 454:/Library/DaisyToolchain/0.2.0/arm/arm-none-eabi/include/c++/10.3.1/bits/stl_algobase.h ****   template<bool _IsMove, typename _CharT>
 455:/Library/DaisyToolchain/0.2.0/arm/arm-none-eabi/include/c++/10.3.1/bits/stl_algobase.h ****     typename __gnu_cxx::__enable_if<__is_char<_CharT>::__value,
 456:/Library/DaisyToolchain/0.2.0/arm/arm-none-eabi/include/c++/10.3.1/bits/stl_algobase.h **** 				    _CharT*>::__type
 457:/Library/DaisyToolchain/0.2.0/arm/arm-none-eabi/include/c++/10.3.1/bits/stl_algobase.h ****     __copy_move_a2(istreambuf_iterator<_CharT, char_traits<_CharT> >,
 458:/Library/DaisyToolchain/0.2.0/arm/arm-none-eabi/include/c++/10.3.1/bits/stl_algobase.h **** 		   istreambuf_iterator<_CharT, char_traits<_CharT> >, _CharT*);
 459:/Library/DaisyToolchain/0.2.0/arm/arm-none-eabi/include/c++/10.3.1/bits/stl_algobase.h **** 
 460:/Library/DaisyToolchain/0.2.0/arm/arm-none-eabi/include/c++/10.3.1/bits/stl_algobase.h ****   template<bool _IsMove, typename _II, typename _OI>
 461:/Library/DaisyToolchain/0.2.0/arm/arm-none-eabi/include/c++/10.3.1/bits/stl_algobase.h ****     _GLIBCXX20_CONSTEXPR
 462:/Library/DaisyToolchain/0.2.0/arm/arm-none-eabi/include/c++/10.3.1/bits/stl_algobase.h ****     inline _OI
 463:/Library/DaisyToolchain/0.2.0/arm/arm-none-eabi/include/c++/10.3.1/bits/stl_algobase.h ****     __copy_move_a2(_II __first, _II __last, _OI __result)
 464:/Library/DaisyToolchain/0.2.0/arm/arm-none-eabi/include/c++/10.3.1/bits/stl_algobase.h ****     {
 465:/Library/DaisyToolchain/0.2.0/arm/arm-none-eabi/include/c++/10.3.1/bits/stl_algobase.h ****       typedef typename iterator_traits<_II>::iterator_category _Category;
 466:/Library/DaisyToolchain/0.2.0/arm/arm-none-eabi/include/c++/10.3.1/bits/stl_algobase.h **** #ifdef __cpp_lib_is_constant_evaluated
 467:/Library/DaisyToolchain/0.2.0/arm/arm-none-eabi/include/c++/10.3.1/bits/stl_algobase.h ****       if (std::is_constant_evaluated())
 468:/Library/DaisyToolchain/0.2.0/arm/arm-none-eabi/include/c++/10.3.1/bits/stl_algobase.h **** 	return std::__copy_move<_IsMove, false, _Category>::
 469:/Library/DaisyToolchain/0.2.0/arm/arm-none-eabi/include/c++/10.3.1/bits/stl_algobase.h **** 	  __copy_m(__first, __last, __result);
 470:/Library/DaisyToolchain/0.2.0/arm/arm-none-eabi/include/c++/10.3.1/bits/stl_algobase.h **** #endif
ARM GAS  /var/folders/1y/_321xjh9623c014x9_qw12rr0000gn/T//ccE17DNe.s 			page 54


 471:/Library/DaisyToolchain/0.2.0/arm/arm-none-eabi/include/c++/10.3.1/bits/stl_algobase.h ****       return std::__copy_move<_IsMove, __memcpyable<_OI, _II>::__value,
 472:/Library/DaisyToolchain/0.2.0/arm/arm-none-eabi/include/c++/10.3.1/bits/stl_algobase.h **** 			      _Category>::__copy_m(__first, __last, __result);
 473:/Library/DaisyToolchain/0.2.0/arm/arm-none-eabi/include/c++/10.3.1/bits/stl_algobase.h ****     }
 474:/Library/DaisyToolchain/0.2.0/arm/arm-none-eabi/include/c++/10.3.1/bits/stl_algobase.h **** 
 475:/Library/DaisyToolchain/0.2.0/arm/arm-none-eabi/include/c++/10.3.1/bits/stl_algobase.h **** _GLIBCXX_BEGIN_NAMESPACE_CONTAINER
 476:/Library/DaisyToolchain/0.2.0/arm/arm-none-eabi/include/c++/10.3.1/bits/stl_algobase.h **** 
 477:/Library/DaisyToolchain/0.2.0/arm/arm-none-eabi/include/c++/10.3.1/bits/stl_algobase.h ****   template<typename _Tp, typename _Ref, typename _Ptr>
 478:/Library/DaisyToolchain/0.2.0/arm/arm-none-eabi/include/c++/10.3.1/bits/stl_algobase.h ****     struct _Deque_iterator;
 479:/Library/DaisyToolchain/0.2.0/arm/arm-none-eabi/include/c++/10.3.1/bits/stl_algobase.h **** 
 480:/Library/DaisyToolchain/0.2.0/arm/arm-none-eabi/include/c++/10.3.1/bits/stl_algobase.h **** _GLIBCXX_END_NAMESPACE_CONTAINER
 481:/Library/DaisyToolchain/0.2.0/arm/arm-none-eabi/include/c++/10.3.1/bits/stl_algobase.h **** 
 482:/Library/DaisyToolchain/0.2.0/arm/arm-none-eabi/include/c++/10.3.1/bits/stl_algobase.h ****   template<bool _IsMove,
 483:/Library/DaisyToolchain/0.2.0/arm/arm-none-eabi/include/c++/10.3.1/bits/stl_algobase.h **** 	   typename _Tp, typename _Ref, typename _Ptr, typename _OI>
 484:/Library/DaisyToolchain/0.2.0/arm/arm-none-eabi/include/c++/10.3.1/bits/stl_algobase.h ****     _OI
 485:/Library/DaisyToolchain/0.2.0/arm/arm-none-eabi/include/c++/10.3.1/bits/stl_algobase.h ****     __copy_move_a1(_GLIBCXX_STD_C::_Deque_iterator<_Tp, _Ref, _Ptr>,
 486:/Library/DaisyToolchain/0.2.0/arm/arm-none-eabi/include/c++/10.3.1/bits/stl_algobase.h **** 		   _GLIBCXX_STD_C::_Deque_iterator<_Tp, _Ref, _Ptr>,
 487:/Library/DaisyToolchain/0.2.0/arm/arm-none-eabi/include/c++/10.3.1/bits/stl_algobase.h **** 		   _OI);
 488:/Library/DaisyToolchain/0.2.0/arm/arm-none-eabi/include/c++/10.3.1/bits/stl_algobase.h **** 
 489:/Library/DaisyToolchain/0.2.0/arm/arm-none-eabi/include/c++/10.3.1/bits/stl_algobase.h ****   template<bool _IsMove,
 490:/Library/DaisyToolchain/0.2.0/arm/arm-none-eabi/include/c++/10.3.1/bits/stl_algobase.h **** 	   typename _ITp, typename _IRef, typename _IPtr, typename _OTp>
 491:/Library/DaisyToolchain/0.2.0/arm/arm-none-eabi/include/c++/10.3.1/bits/stl_algobase.h ****     _GLIBCXX_STD_C::_Deque_iterator<_OTp, _OTp&, _OTp*>
 492:/Library/DaisyToolchain/0.2.0/arm/arm-none-eabi/include/c++/10.3.1/bits/stl_algobase.h ****     __copy_move_a1(_GLIBCXX_STD_C::_Deque_iterator<_ITp, _IRef, _IPtr>,
 493:/Library/DaisyToolchain/0.2.0/arm/arm-none-eabi/include/c++/10.3.1/bits/stl_algobase.h **** 		   _GLIBCXX_STD_C::_Deque_iterator<_ITp, _IRef, _IPtr>,
 494:/Library/DaisyToolchain/0.2.0/arm/arm-none-eabi/include/c++/10.3.1/bits/stl_algobase.h **** 		   _GLIBCXX_STD_C::_Deque_iterator<_OTp, _OTp&, _OTp*>);
 495:/Library/DaisyToolchain/0.2.0/arm/arm-none-eabi/include/c++/10.3.1/bits/stl_algobase.h **** 
 496:/Library/DaisyToolchain/0.2.0/arm/arm-none-eabi/include/c++/10.3.1/bits/stl_algobase.h ****   template<bool _IsMove, typename _II, typename _Tp>
 497:/Library/DaisyToolchain/0.2.0/arm/arm-none-eabi/include/c++/10.3.1/bits/stl_algobase.h ****     typename __gnu_cxx::__enable_if<
 498:/Library/DaisyToolchain/0.2.0/arm/arm-none-eabi/include/c++/10.3.1/bits/stl_algobase.h ****       __is_random_access_iter<_II>::__value,
 499:/Library/DaisyToolchain/0.2.0/arm/arm-none-eabi/include/c++/10.3.1/bits/stl_algobase.h ****       _GLIBCXX_STD_C::_Deque_iterator<_Tp, _Tp&, _Tp*> >::__type
 500:/Library/DaisyToolchain/0.2.0/arm/arm-none-eabi/include/c++/10.3.1/bits/stl_algobase.h ****     __copy_move_a1(_II, _II, _GLIBCXX_STD_C::_Deque_iterator<_Tp, _Tp&, _Tp*>);
 501:/Library/DaisyToolchain/0.2.0/arm/arm-none-eabi/include/c++/10.3.1/bits/stl_algobase.h **** 
 502:/Library/DaisyToolchain/0.2.0/arm/arm-none-eabi/include/c++/10.3.1/bits/stl_algobase.h ****   template<bool _IsMove, typename _II, typename _OI>
 503:/Library/DaisyToolchain/0.2.0/arm/arm-none-eabi/include/c++/10.3.1/bits/stl_algobase.h ****     _GLIBCXX20_CONSTEXPR
 504:/Library/DaisyToolchain/0.2.0/arm/arm-none-eabi/include/c++/10.3.1/bits/stl_algobase.h ****     inline _OI
 505:/Library/DaisyToolchain/0.2.0/arm/arm-none-eabi/include/c++/10.3.1/bits/stl_algobase.h ****     __copy_move_a1(_II __first, _II __last, _OI __result)
 506:/Library/DaisyToolchain/0.2.0/arm/arm-none-eabi/include/c++/10.3.1/bits/stl_algobase.h ****     { return std::__copy_move_a2<_IsMove>(__first, __last, __result); }
 507:/Library/DaisyToolchain/0.2.0/arm/arm-none-eabi/include/c++/10.3.1/bits/stl_algobase.h **** 
 508:/Library/DaisyToolchain/0.2.0/arm/arm-none-eabi/include/c++/10.3.1/bits/stl_algobase.h ****   template<bool _IsMove, typename _II, typename _OI>
 509:/Library/DaisyToolchain/0.2.0/arm/arm-none-eabi/include/c++/10.3.1/bits/stl_algobase.h ****     _GLIBCXX20_CONSTEXPR
 510:/Library/DaisyToolchain/0.2.0/arm/arm-none-eabi/include/c++/10.3.1/bits/stl_algobase.h ****     inline _OI
 511:/Library/DaisyToolchain/0.2.0/arm/arm-none-eabi/include/c++/10.3.1/bits/stl_algobase.h ****     __copy_move_a(_II __first, _II __last, _OI __result)
 512:/Library/DaisyToolchain/0.2.0/arm/arm-none-eabi/include/c++/10.3.1/bits/stl_algobase.h ****     {
 513:/Library/DaisyToolchain/0.2.0/arm/arm-none-eabi/include/c++/10.3.1/bits/stl_algobase.h ****       return std::__niter_wrap(__result,
 514:/Library/DaisyToolchain/0.2.0/arm/arm-none-eabi/include/c++/10.3.1/bits/stl_algobase.h **** 		std::__copy_move_a1<_IsMove>(std::__niter_base(__first),
 515:/Library/DaisyToolchain/0.2.0/arm/arm-none-eabi/include/c++/10.3.1/bits/stl_algobase.h **** 					     std::__niter_base(__last),
 516:/Library/DaisyToolchain/0.2.0/arm/arm-none-eabi/include/c++/10.3.1/bits/stl_algobase.h **** 					     std::__niter_base(__result)));
 517:/Library/DaisyToolchain/0.2.0/arm/arm-none-eabi/include/c++/10.3.1/bits/stl_algobase.h ****     }
 518:/Library/DaisyToolchain/0.2.0/arm/arm-none-eabi/include/c++/10.3.1/bits/stl_algobase.h **** 
 519:/Library/DaisyToolchain/0.2.0/arm/arm-none-eabi/include/c++/10.3.1/bits/stl_algobase.h ****   template<bool _IsMove,
 520:/Library/DaisyToolchain/0.2.0/arm/arm-none-eabi/include/c++/10.3.1/bits/stl_algobase.h **** 	   typename _Ite, typename _Seq, typename _Cat, typename _OI>
 521:/Library/DaisyToolchain/0.2.0/arm/arm-none-eabi/include/c++/10.3.1/bits/stl_algobase.h ****     _OI
 522:/Library/DaisyToolchain/0.2.0/arm/arm-none-eabi/include/c++/10.3.1/bits/stl_algobase.h ****     __copy_move_a(const ::__gnu_debug::_Safe_iterator<_Ite, _Seq, _Cat>&,
 523:/Library/DaisyToolchain/0.2.0/arm/arm-none-eabi/include/c++/10.3.1/bits/stl_algobase.h **** 		  const ::__gnu_debug::_Safe_iterator<_Ite, _Seq, _Cat>&,
 524:/Library/DaisyToolchain/0.2.0/arm/arm-none-eabi/include/c++/10.3.1/bits/stl_algobase.h **** 		  _OI);
 525:/Library/DaisyToolchain/0.2.0/arm/arm-none-eabi/include/c++/10.3.1/bits/stl_algobase.h **** 
 526:/Library/DaisyToolchain/0.2.0/arm/arm-none-eabi/include/c++/10.3.1/bits/stl_algobase.h ****   template<bool _IsMove,
 527:/Library/DaisyToolchain/0.2.0/arm/arm-none-eabi/include/c++/10.3.1/bits/stl_algobase.h **** 	   typename _II, typename _Ite, typename _Seq, typename _Cat>
ARM GAS  /var/folders/1y/_321xjh9623c014x9_qw12rr0000gn/T//ccE17DNe.s 			page 55


 528:/Library/DaisyToolchain/0.2.0/arm/arm-none-eabi/include/c++/10.3.1/bits/stl_algobase.h ****     __gnu_debug::_Safe_iterator<_Ite, _Seq, _Cat>
 529:/Library/DaisyToolchain/0.2.0/arm/arm-none-eabi/include/c++/10.3.1/bits/stl_algobase.h ****     __copy_move_a(_II, _II,
 530:/Library/DaisyToolchain/0.2.0/arm/arm-none-eabi/include/c++/10.3.1/bits/stl_algobase.h **** 		  const ::__gnu_debug::_Safe_iterator<_Ite, _Seq, _Cat>&);
 531:/Library/DaisyToolchain/0.2.0/arm/arm-none-eabi/include/c++/10.3.1/bits/stl_algobase.h **** 
 532:/Library/DaisyToolchain/0.2.0/arm/arm-none-eabi/include/c++/10.3.1/bits/stl_algobase.h ****   template<bool _IsMove,
 533:/Library/DaisyToolchain/0.2.0/arm/arm-none-eabi/include/c++/10.3.1/bits/stl_algobase.h **** 	   typename _IIte, typename _ISeq, typename _ICat,
 534:/Library/DaisyToolchain/0.2.0/arm/arm-none-eabi/include/c++/10.3.1/bits/stl_algobase.h **** 	   typename _OIte, typename _OSeq, typename _OCat>
 535:/Library/DaisyToolchain/0.2.0/arm/arm-none-eabi/include/c++/10.3.1/bits/stl_algobase.h ****     ::__gnu_debug::_Safe_iterator<_OIte, _OSeq, _OCat>
 536:/Library/DaisyToolchain/0.2.0/arm/arm-none-eabi/include/c++/10.3.1/bits/stl_algobase.h ****     __copy_move_a(const ::__gnu_debug::_Safe_iterator<_IIte, _ISeq, _ICat>&,
 537:/Library/DaisyToolchain/0.2.0/arm/arm-none-eabi/include/c++/10.3.1/bits/stl_algobase.h **** 		  const ::__gnu_debug::_Safe_iterator<_IIte, _ISeq, _ICat>&,
 538:/Library/DaisyToolchain/0.2.0/arm/arm-none-eabi/include/c++/10.3.1/bits/stl_algobase.h **** 		  const ::__gnu_debug::_Safe_iterator<_OIte, _OSeq, _OCat>&);
 539:/Library/DaisyToolchain/0.2.0/arm/arm-none-eabi/include/c++/10.3.1/bits/stl_algobase.h **** 
 540:/Library/DaisyToolchain/0.2.0/arm/arm-none-eabi/include/c++/10.3.1/bits/stl_algobase.h ****   /**
 541:/Library/DaisyToolchain/0.2.0/arm/arm-none-eabi/include/c++/10.3.1/bits/stl_algobase.h ****    *  @brief Copies the range [first,last) into result.
 542:/Library/DaisyToolchain/0.2.0/arm/arm-none-eabi/include/c++/10.3.1/bits/stl_algobase.h ****    *  @ingroup mutating_algorithms
 543:/Library/DaisyToolchain/0.2.0/arm/arm-none-eabi/include/c++/10.3.1/bits/stl_algobase.h ****    *  @param  __first  An input iterator.
 544:/Library/DaisyToolchain/0.2.0/arm/arm-none-eabi/include/c++/10.3.1/bits/stl_algobase.h ****    *  @param  __last   An input iterator.
 545:/Library/DaisyToolchain/0.2.0/arm/arm-none-eabi/include/c++/10.3.1/bits/stl_algobase.h ****    *  @param  __result An output iterator.
 546:/Library/DaisyToolchain/0.2.0/arm/arm-none-eabi/include/c++/10.3.1/bits/stl_algobase.h ****    *  @return   result + (last - first)
 547:/Library/DaisyToolchain/0.2.0/arm/arm-none-eabi/include/c++/10.3.1/bits/stl_algobase.h ****    *
 548:/Library/DaisyToolchain/0.2.0/arm/arm-none-eabi/include/c++/10.3.1/bits/stl_algobase.h ****    *  This inline function will boil down to a call to @c memmove whenever
 549:/Library/DaisyToolchain/0.2.0/arm/arm-none-eabi/include/c++/10.3.1/bits/stl_algobase.h ****    *  possible.  Failing that, if random access iterators are passed, then the
 550:/Library/DaisyToolchain/0.2.0/arm/arm-none-eabi/include/c++/10.3.1/bits/stl_algobase.h ****    *  loop count will be known (and therefore a candidate for compiler
 551:/Library/DaisyToolchain/0.2.0/arm/arm-none-eabi/include/c++/10.3.1/bits/stl_algobase.h ****    *  optimizations such as unrolling).  Result may not be contained within
 552:/Library/DaisyToolchain/0.2.0/arm/arm-none-eabi/include/c++/10.3.1/bits/stl_algobase.h ****    *  [first,last); the copy_backward function should be used instead.
 553:/Library/DaisyToolchain/0.2.0/arm/arm-none-eabi/include/c++/10.3.1/bits/stl_algobase.h ****    *
 554:/Library/DaisyToolchain/0.2.0/arm/arm-none-eabi/include/c++/10.3.1/bits/stl_algobase.h ****    *  Note that the end of the output range is permitted to be contained
 555:/Library/DaisyToolchain/0.2.0/arm/arm-none-eabi/include/c++/10.3.1/bits/stl_algobase.h ****    *  within [first,last).
 556:/Library/DaisyToolchain/0.2.0/arm/arm-none-eabi/include/c++/10.3.1/bits/stl_algobase.h ****   */
 557:/Library/DaisyToolchain/0.2.0/arm/arm-none-eabi/include/c++/10.3.1/bits/stl_algobase.h ****   template<typename _II, typename _OI>
 558:/Library/DaisyToolchain/0.2.0/arm/arm-none-eabi/include/c++/10.3.1/bits/stl_algobase.h ****     _GLIBCXX20_CONSTEXPR
 559:/Library/DaisyToolchain/0.2.0/arm/arm-none-eabi/include/c++/10.3.1/bits/stl_algobase.h ****     inline _OI
 560:/Library/DaisyToolchain/0.2.0/arm/arm-none-eabi/include/c++/10.3.1/bits/stl_algobase.h ****     copy(_II __first, _II __last, _OI __result)
 561:/Library/DaisyToolchain/0.2.0/arm/arm-none-eabi/include/c++/10.3.1/bits/stl_algobase.h ****     {
 562:/Library/DaisyToolchain/0.2.0/arm/arm-none-eabi/include/c++/10.3.1/bits/stl_algobase.h ****       // concept requirements
 563:/Library/DaisyToolchain/0.2.0/arm/arm-none-eabi/include/c++/10.3.1/bits/stl_algobase.h ****       __glibcxx_function_requires(_InputIteratorConcept<_II>)
 564:/Library/DaisyToolchain/0.2.0/arm/arm-none-eabi/include/c++/10.3.1/bits/stl_algobase.h ****       __glibcxx_function_requires(_OutputIteratorConcept<_OI,
 565:/Library/DaisyToolchain/0.2.0/arm/arm-none-eabi/include/c++/10.3.1/bits/stl_algobase.h **** 	    typename iterator_traits<_II>::value_type>)
 566:/Library/DaisyToolchain/0.2.0/arm/arm-none-eabi/include/c++/10.3.1/bits/stl_algobase.h ****       __glibcxx_requires_can_increment_range(__first, __last, __result);
 567:/Library/DaisyToolchain/0.2.0/arm/arm-none-eabi/include/c++/10.3.1/bits/stl_algobase.h **** 
 568:/Library/DaisyToolchain/0.2.0/arm/arm-none-eabi/include/c++/10.3.1/bits/stl_algobase.h ****       return std::__copy_move_a<__is_move_iterator<_II>::__value>
 569:/Library/DaisyToolchain/0.2.0/arm/arm-none-eabi/include/c++/10.3.1/bits/stl_algobase.h **** 	     (std::__miter_base(__first), std::__miter_base(__last), __result);
 570:/Library/DaisyToolchain/0.2.0/arm/arm-none-eabi/include/c++/10.3.1/bits/stl_algobase.h ****     }
 571:/Library/DaisyToolchain/0.2.0/arm/arm-none-eabi/include/c++/10.3.1/bits/stl_algobase.h **** 
 572:/Library/DaisyToolchain/0.2.0/arm/arm-none-eabi/include/c++/10.3.1/bits/stl_algobase.h **** #if __cplusplus >= 201103L
 573:/Library/DaisyToolchain/0.2.0/arm/arm-none-eabi/include/c++/10.3.1/bits/stl_algobase.h ****   /**
 574:/Library/DaisyToolchain/0.2.0/arm/arm-none-eabi/include/c++/10.3.1/bits/stl_algobase.h ****    *  @brief Moves the range [first,last) into result.
 575:/Library/DaisyToolchain/0.2.0/arm/arm-none-eabi/include/c++/10.3.1/bits/stl_algobase.h ****    *  @ingroup mutating_algorithms
 576:/Library/DaisyToolchain/0.2.0/arm/arm-none-eabi/include/c++/10.3.1/bits/stl_algobase.h ****    *  @param  __first  An input iterator.
 577:/Library/DaisyToolchain/0.2.0/arm/arm-none-eabi/include/c++/10.3.1/bits/stl_algobase.h ****    *  @param  __last   An input iterator.
 578:/Library/DaisyToolchain/0.2.0/arm/arm-none-eabi/include/c++/10.3.1/bits/stl_algobase.h ****    *  @param  __result An output iterator.
 579:/Library/DaisyToolchain/0.2.0/arm/arm-none-eabi/include/c++/10.3.1/bits/stl_algobase.h ****    *  @return   result + (last - first)
 580:/Library/DaisyToolchain/0.2.0/arm/arm-none-eabi/include/c++/10.3.1/bits/stl_algobase.h ****    *
 581:/Library/DaisyToolchain/0.2.0/arm/arm-none-eabi/include/c++/10.3.1/bits/stl_algobase.h ****    *  This inline function will boil down to a call to @c memmove whenever
 582:/Library/DaisyToolchain/0.2.0/arm/arm-none-eabi/include/c++/10.3.1/bits/stl_algobase.h ****    *  possible.  Failing that, if random access iterators are passed, then the
 583:/Library/DaisyToolchain/0.2.0/arm/arm-none-eabi/include/c++/10.3.1/bits/stl_algobase.h ****    *  loop count will be known (and therefore a candidate for compiler
 584:/Library/DaisyToolchain/0.2.0/arm/arm-none-eabi/include/c++/10.3.1/bits/stl_algobase.h ****    *  optimizations such as unrolling).  Result may not be contained within
ARM GAS  /var/folders/1y/_321xjh9623c014x9_qw12rr0000gn/T//ccE17DNe.s 			page 56


 585:/Library/DaisyToolchain/0.2.0/arm/arm-none-eabi/include/c++/10.3.1/bits/stl_algobase.h ****    *  [first,last); the move_backward function should be used instead.
 586:/Library/DaisyToolchain/0.2.0/arm/arm-none-eabi/include/c++/10.3.1/bits/stl_algobase.h ****    *
 587:/Library/DaisyToolchain/0.2.0/arm/arm-none-eabi/include/c++/10.3.1/bits/stl_algobase.h ****    *  Note that the end of the output range is permitted to be contained
 588:/Library/DaisyToolchain/0.2.0/arm/arm-none-eabi/include/c++/10.3.1/bits/stl_algobase.h ****    *  within [first,last).
 589:/Library/DaisyToolchain/0.2.0/arm/arm-none-eabi/include/c++/10.3.1/bits/stl_algobase.h ****   */
 590:/Library/DaisyToolchain/0.2.0/arm/arm-none-eabi/include/c++/10.3.1/bits/stl_algobase.h ****   template<typename _II, typename _OI>
 591:/Library/DaisyToolchain/0.2.0/arm/arm-none-eabi/include/c++/10.3.1/bits/stl_algobase.h ****     _GLIBCXX20_CONSTEXPR
 592:/Library/DaisyToolchain/0.2.0/arm/arm-none-eabi/include/c++/10.3.1/bits/stl_algobase.h ****     inline _OI
 593:/Library/DaisyToolchain/0.2.0/arm/arm-none-eabi/include/c++/10.3.1/bits/stl_algobase.h ****     move(_II __first, _II __last, _OI __result)
 594:/Library/DaisyToolchain/0.2.0/arm/arm-none-eabi/include/c++/10.3.1/bits/stl_algobase.h ****     {
 595:/Library/DaisyToolchain/0.2.0/arm/arm-none-eabi/include/c++/10.3.1/bits/stl_algobase.h ****       // concept requirements
 596:/Library/DaisyToolchain/0.2.0/arm/arm-none-eabi/include/c++/10.3.1/bits/stl_algobase.h ****       __glibcxx_function_requires(_InputIteratorConcept<_II>)
 597:/Library/DaisyToolchain/0.2.0/arm/arm-none-eabi/include/c++/10.3.1/bits/stl_algobase.h ****       __glibcxx_function_requires(_OutputIteratorConcept<_OI,
 598:/Library/DaisyToolchain/0.2.0/arm/arm-none-eabi/include/c++/10.3.1/bits/stl_algobase.h **** 	    typename iterator_traits<_II>::value_type>)
 599:/Library/DaisyToolchain/0.2.0/arm/arm-none-eabi/include/c++/10.3.1/bits/stl_algobase.h ****       __glibcxx_requires_can_increment_range(__first, __last, __result);
 600:/Library/DaisyToolchain/0.2.0/arm/arm-none-eabi/include/c++/10.3.1/bits/stl_algobase.h **** 
 601:/Library/DaisyToolchain/0.2.0/arm/arm-none-eabi/include/c++/10.3.1/bits/stl_algobase.h ****       return std::__copy_move_a<true>(std::__miter_base(__first),
 602:/Library/DaisyToolchain/0.2.0/arm/arm-none-eabi/include/c++/10.3.1/bits/stl_algobase.h **** 				      std::__miter_base(__last), __result);
 603:/Library/DaisyToolchain/0.2.0/arm/arm-none-eabi/include/c++/10.3.1/bits/stl_algobase.h ****     }
 604:/Library/DaisyToolchain/0.2.0/arm/arm-none-eabi/include/c++/10.3.1/bits/stl_algobase.h **** 
 605:/Library/DaisyToolchain/0.2.0/arm/arm-none-eabi/include/c++/10.3.1/bits/stl_algobase.h **** #define _GLIBCXX_MOVE3(_Tp, _Up, _Vp) std::move(_Tp, _Up, _Vp)
 606:/Library/DaisyToolchain/0.2.0/arm/arm-none-eabi/include/c++/10.3.1/bits/stl_algobase.h **** #else
 607:/Library/DaisyToolchain/0.2.0/arm/arm-none-eabi/include/c++/10.3.1/bits/stl_algobase.h **** #define _GLIBCXX_MOVE3(_Tp, _Up, _Vp) std::copy(_Tp, _Up, _Vp)
 608:/Library/DaisyToolchain/0.2.0/arm/arm-none-eabi/include/c++/10.3.1/bits/stl_algobase.h **** #endif
 609:/Library/DaisyToolchain/0.2.0/arm/arm-none-eabi/include/c++/10.3.1/bits/stl_algobase.h **** 
 610:/Library/DaisyToolchain/0.2.0/arm/arm-none-eabi/include/c++/10.3.1/bits/stl_algobase.h ****   template<bool _IsMove, bool _IsSimple, typename _Category>
 611:/Library/DaisyToolchain/0.2.0/arm/arm-none-eabi/include/c++/10.3.1/bits/stl_algobase.h ****     struct __copy_move_backward
 612:/Library/DaisyToolchain/0.2.0/arm/arm-none-eabi/include/c++/10.3.1/bits/stl_algobase.h ****     {
 613:/Library/DaisyToolchain/0.2.0/arm/arm-none-eabi/include/c++/10.3.1/bits/stl_algobase.h ****       template<typename _BI1, typename _BI2>
 614:/Library/DaisyToolchain/0.2.0/arm/arm-none-eabi/include/c++/10.3.1/bits/stl_algobase.h **** 	_GLIBCXX20_CONSTEXPR
 615:/Library/DaisyToolchain/0.2.0/arm/arm-none-eabi/include/c++/10.3.1/bits/stl_algobase.h **** 	static _BI2
 616:/Library/DaisyToolchain/0.2.0/arm/arm-none-eabi/include/c++/10.3.1/bits/stl_algobase.h **** 	__copy_move_b(_BI1 __first, _BI1 __last, _BI2 __result)
 617:/Library/DaisyToolchain/0.2.0/arm/arm-none-eabi/include/c++/10.3.1/bits/stl_algobase.h **** 	{
 618:/Library/DaisyToolchain/0.2.0/arm/arm-none-eabi/include/c++/10.3.1/bits/stl_algobase.h **** 	  while (__first != __last)
 619:/Library/DaisyToolchain/0.2.0/arm/arm-none-eabi/include/c++/10.3.1/bits/stl_algobase.h **** 	    *--__result = *--__last;
 620:/Library/DaisyToolchain/0.2.0/arm/arm-none-eabi/include/c++/10.3.1/bits/stl_algobase.h **** 	  return __result;
 621:/Library/DaisyToolchain/0.2.0/arm/arm-none-eabi/include/c++/10.3.1/bits/stl_algobase.h **** 	}
 622:/Library/DaisyToolchain/0.2.0/arm/arm-none-eabi/include/c++/10.3.1/bits/stl_algobase.h ****     };
 623:/Library/DaisyToolchain/0.2.0/arm/arm-none-eabi/include/c++/10.3.1/bits/stl_algobase.h **** 
 624:/Library/DaisyToolchain/0.2.0/arm/arm-none-eabi/include/c++/10.3.1/bits/stl_algobase.h **** #if __cplusplus >= 201103L
 625:/Library/DaisyToolchain/0.2.0/arm/arm-none-eabi/include/c++/10.3.1/bits/stl_algobase.h ****   template<typename _Category>
 626:/Library/DaisyToolchain/0.2.0/arm/arm-none-eabi/include/c++/10.3.1/bits/stl_algobase.h ****     struct __copy_move_backward<true, false, _Category>
 627:/Library/DaisyToolchain/0.2.0/arm/arm-none-eabi/include/c++/10.3.1/bits/stl_algobase.h ****     {
 628:/Library/DaisyToolchain/0.2.0/arm/arm-none-eabi/include/c++/10.3.1/bits/stl_algobase.h ****       template<typename _BI1, typename _BI2>
 629:/Library/DaisyToolchain/0.2.0/arm/arm-none-eabi/include/c++/10.3.1/bits/stl_algobase.h **** 	_GLIBCXX20_CONSTEXPR
 630:/Library/DaisyToolchain/0.2.0/arm/arm-none-eabi/include/c++/10.3.1/bits/stl_algobase.h **** 	static _BI2
 631:/Library/DaisyToolchain/0.2.0/arm/arm-none-eabi/include/c++/10.3.1/bits/stl_algobase.h **** 	__copy_move_b(_BI1 __first, _BI1 __last, _BI2 __result)
 632:/Library/DaisyToolchain/0.2.0/arm/arm-none-eabi/include/c++/10.3.1/bits/stl_algobase.h **** 	{
 633:/Library/DaisyToolchain/0.2.0/arm/arm-none-eabi/include/c++/10.3.1/bits/stl_algobase.h **** 	  while (__first != __last)
 634:/Library/DaisyToolchain/0.2.0/arm/arm-none-eabi/include/c++/10.3.1/bits/stl_algobase.h **** 	    *--__result = std::move(*--__last);
 635:/Library/DaisyToolchain/0.2.0/arm/arm-none-eabi/include/c++/10.3.1/bits/stl_algobase.h **** 	  return __result;
 636:/Library/DaisyToolchain/0.2.0/arm/arm-none-eabi/include/c++/10.3.1/bits/stl_algobase.h **** 	}
 637:/Library/DaisyToolchain/0.2.0/arm/arm-none-eabi/include/c++/10.3.1/bits/stl_algobase.h ****     };
 638:/Library/DaisyToolchain/0.2.0/arm/arm-none-eabi/include/c++/10.3.1/bits/stl_algobase.h **** #endif
 639:/Library/DaisyToolchain/0.2.0/arm/arm-none-eabi/include/c++/10.3.1/bits/stl_algobase.h **** 
 640:/Library/DaisyToolchain/0.2.0/arm/arm-none-eabi/include/c++/10.3.1/bits/stl_algobase.h ****   template<>
 641:/Library/DaisyToolchain/0.2.0/arm/arm-none-eabi/include/c++/10.3.1/bits/stl_algobase.h ****     struct __copy_move_backward<false, false, random_access_iterator_tag>
ARM GAS  /var/folders/1y/_321xjh9623c014x9_qw12rr0000gn/T//ccE17DNe.s 			page 57


 642:/Library/DaisyToolchain/0.2.0/arm/arm-none-eabi/include/c++/10.3.1/bits/stl_algobase.h ****     {
 643:/Library/DaisyToolchain/0.2.0/arm/arm-none-eabi/include/c++/10.3.1/bits/stl_algobase.h ****       template<typename _BI1, typename _BI2>
 644:/Library/DaisyToolchain/0.2.0/arm/arm-none-eabi/include/c++/10.3.1/bits/stl_algobase.h **** 	_GLIBCXX20_CONSTEXPR
 645:/Library/DaisyToolchain/0.2.0/arm/arm-none-eabi/include/c++/10.3.1/bits/stl_algobase.h **** 	static _BI2
 646:/Library/DaisyToolchain/0.2.0/arm/arm-none-eabi/include/c++/10.3.1/bits/stl_algobase.h **** 	__copy_move_b(_BI1 __first, _BI1 __last, _BI2 __result)
 647:/Library/DaisyToolchain/0.2.0/arm/arm-none-eabi/include/c++/10.3.1/bits/stl_algobase.h **** 	{
 648:/Library/DaisyToolchain/0.2.0/arm/arm-none-eabi/include/c++/10.3.1/bits/stl_algobase.h **** 	  typename iterator_traits<_BI1>::difference_type
 649:/Library/DaisyToolchain/0.2.0/arm/arm-none-eabi/include/c++/10.3.1/bits/stl_algobase.h **** 	    __n = __last - __first;
 650:/Library/DaisyToolchain/0.2.0/arm/arm-none-eabi/include/c++/10.3.1/bits/stl_algobase.h **** 	  for (; __n > 0; --__n)
 651:/Library/DaisyToolchain/0.2.0/arm/arm-none-eabi/include/c++/10.3.1/bits/stl_algobase.h **** 	    *--__result = *--__last;
 652:/Library/DaisyToolchain/0.2.0/arm/arm-none-eabi/include/c++/10.3.1/bits/stl_algobase.h **** 	  return __result;
 653:/Library/DaisyToolchain/0.2.0/arm/arm-none-eabi/include/c++/10.3.1/bits/stl_algobase.h **** 	}
 654:/Library/DaisyToolchain/0.2.0/arm/arm-none-eabi/include/c++/10.3.1/bits/stl_algobase.h ****     };
 655:/Library/DaisyToolchain/0.2.0/arm/arm-none-eabi/include/c++/10.3.1/bits/stl_algobase.h **** 
 656:/Library/DaisyToolchain/0.2.0/arm/arm-none-eabi/include/c++/10.3.1/bits/stl_algobase.h **** #if __cplusplus >= 201103L
 657:/Library/DaisyToolchain/0.2.0/arm/arm-none-eabi/include/c++/10.3.1/bits/stl_algobase.h ****   template<>
 658:/Library/DaisyToolchain/0.2.0/arm/arm-none-eabi/include/c++/10.3.1/bits/stl_algobase.h ****     struct __copy_move_backward<true, false, random_access_iterator_tag>
 659:/Library/DaisyToolchain/0.2.0/arm/arm-none-eabi/include/c++/10.3.1/bits/stl_algobase.h ****     {
 660:/Library/DaisyToolchain/0.2.0/arm/arm-none-eabi/include/c++/10.3.1/bits/stl_algobase.h ****       template<typename _BI1, typename _BI2>
 661:/Library/DaisyToolchain/0.2.0/arm/arm-none-eabi/include/c++/10.3.1/bits/stl_algobase.h **** 	_GLIBCXX20_CONSTEXPR
 662:/Library/DaisyToolchain/0.2.0/arm/arm-none-eabi/include/c++/10.3.1/bits/stl_algobase.h **** 	static _BI2
 663:/Library/DaisyToolchain/0.2.0/arm/arm-none-eabi/include/c++/10.3.1/bits/stl_algobase.h **** 	__copy_move_b(_BI1 __first, _BI1 __last, _BI2 __result)
 664:/Library/DaisyToolchain/0.2.0/arm/arm-none-eabi/include/c++/10.3.1/bits/stl_algobase.h **** 	{
 665:/Library/DaisyToolchain/0.2.0/arm/arm-none-eabi/include/c++/10.3.1/bits/stl_algobase.h **** 	  typename iterator_traits<_BI1>::difference_type
 666:/Library/DaisyToolchain/0.2.0/arm/arm-none-eabi/include/c++/10.3.1/bits/stl_algobase.h **** 	    __n = __last - __first;
 667:/Library/DaisyToolchain/0.2.0/arm/arm-none-eabi/include/c++/10.3.1/bits/stl_algobase.h **** 	  for (; __n > 0; --__n)
 668:/Library/DaisyToolchain/0.2.0/arm/arm-none-eabi/include/c++/10.3.1/bits/stl_algobase.h **** 	    *--__result = std::move(*--__last);
 669:/Library/DaisyToolchain/0.2.0/arm/arm-none-eabi/include/c++/10.3.1/bits/stl_algobase.h **** 	  return __result;
 670:/Library/DaisyToolchain/0.2.0/arm/arm-none-eabi/include/c++/10.3.1/bits/stl_algobase.h **** 	}
 671:/Library/DaisyToolchain/0.2.0/arm/arm-none-eabi/include/c++/10.3.1/bits/stl_algobase.h ****     };
 672:/Library/DaisyToolchain/0.2.0/arm/arm-none-eabi/include/c++/10.3.1/bits/stl_algobase.h **** #endif
 673:/Library/DaisyToolchain/0.2.0/arm/arm-none-eabi/include/c++/10.3.1/bits/stl_algobase.h **** 
 674:/Library/DaisyToolchain/0.2.0/arm/arm-none-eabi/include/c++/10.3.1/bits/stl_algobase.h ****   template<bool _IsMove>
 675:/Library/DaisyToolchain/0.2.0/arm/arm-none-eabi/include/c++/10.3.1/bits/stl_algobase.h ****     struct __copy_move_backward<_IsMove, true, random_access_iterator_tag>
 676:/Library/DaisyToolchain/0.2.0/arm/arm-none-eabi/include/c++/10.3.1/bits/stl_algobase.h ****     {
 677:/Library/DaisyToolchain/0.2.0/arm/arm-none-eabi/include/c++/10.3.1/bits/stl_algobase.h ****       template<typename _Tp>
 678:/Library/DaisyToolchain/0.2.0/arm/arm-none-eabi/include/c++/10.3.1/bits/stl_algobase.h **** 	_GLIBCXX20_CONSTEXPR
 679:/Library/DaisyToolchain/0.2.0/arm/arm-none-eabi/include/c++/10.3.1/bits/stl_algobase.h **** 	static _Tp*
 680:/Library/DaisyToolchain/0.2.0/arm/arm-none-eabi/include/c++/10.3.1/bits/stl_algobase.h **** 	__copy_move_b(const _Tp* __first, const _Tp* __last, _Tp* __result)
 681:/Library/DaisyToolchain/0.2.0/arm/arm-none-eabi/include/c++/10.3.1/bits/stl_algobase.h **** 	{
 682:/Library/DaisyToolchain/0.2.0/arm/arm-none-eabi/include/c++/10.3.1/bits/stl_algobase.h **** #if __cplusplus >= 201103L
 683:/Library/DaisyToolchain/0.2.0/arm/arm-none-eabi/include/c++/10.3.1/bits/stl_algobase.h **** 	  using __assignable = conditional<_IsMove,
 684:/Library/DaisyToolchain/0.2.0/arm/arm-none-eabi/include/c++/10.3.1/bits/stl_algobase.h **** 					   is_move_assignable<_Tp>,
 685:/Library/DaisyToolchain/0.2.0/arm/arm-none-eabi/include/c++/10.3.1/bits/stl_algobase.h **** 					   is_copy_assignable<_Tp>>;
 686:/Library/DaisyToolchain/0.2.0/arm/arm-none-eabi/include/c++/10.3.1/bits/stl_algobase.h **** 	  // trivial types can have deleted assignment
 687:/Library/DaisyToolchain/0.2.0/arm/arm-none-eabi/include/c++/10.3.1/bits/stl_algobase.h **** 	  static_assert( __assignable::type::value, "type is not assignable" );
 688:/Library/DaisyToolchain/0.2.0/arm/arm-none-eabi/include/c++/10.3.1/bits/stl_algobase.h **** #endif
 689:/Library/DaisyToolchain/0.2.0/arm/arm-none-eabi/include/c++/10.3.1/bits/stl_algobase.h **** 	  const ptrdiff_t _Num = __last - __first;
 690:/Library/DaisyToolchain/0.2.0/arm/arm-none-eabi/include/c++/10.3.1/bits/stl_algobase.h **** 	  if (_Num)
 691:/Library/DaisyToolchain/0.2.0/arm/arm-none-eabi/include/c++/10.3.1/bits/stl_algobase.h **** 	    __builtin_memmove(__result - _Num, __first, sizeof(_Tp) * _Num);
 692:/Library/DaisyToolchain/0.2.0/arm/arm-none-eabi/include/c++/10.3.1/bits/stl_algobase.h **** 	  return __result - _Num;
 693:/Library/DaisyToolchain/0.2.0/arm/arm-none-eabi/include/c++/10.3.1/bits/stl_algobase.h **** 	}
 694:/Library/DaisyToolchain/0.2.0/arm/arm-none-eabi/include/c++/10.3.1/bits/stl_algobase.h ****     };
 695:/Library/DaisyToolchain/0.2.0/arm/arm-none-eabi/include/c++/10.3.1/bits/stl_algobase.h **** 
 696:/Library/DaisyToolchain/0.2.0/arm/arm-none-eabi/include/c++/10.3.1/bits/stl_algobase.h ****   template<bool _IsMove, typename _BI1, typename _BI2>
 697:/Library/DaisyToolchain/0.2.0/arm/arm-none-eabi/include/c++/10.3.1/bits/stl_algobase.h ****     _GLIBCXX20_CONSTEXPR
 698:/Library/DaisyToolchain/0.2.0/arm/arm-none-eabi/include/c++/10.3.1/bits/stl_algobase.h ****     inline _BI2
ARM GAS  /var/folders/1y/_321xjh9623c014x9_qw12rr0000gn/T//ccE17DNe.s 			page 58


 699:/Library/DaisyToolchain/0.2.0/arm/arm-none-eabi/include/c++/10.3.1/bits/stl_algobase.h ****     __copy_move_backward_a2(_BI1 __first, _BI1 __last, _BI2 __result)
 700:/Library/DaisyToolchain/0.2.0/arm/arm-none-eabi/include/c++/10.3.1/bits/stl_algobase.h ****     {
 701:/Library/DaisyToolchain/0.2.0/arm/arm-none-eabi/include/c++/10.3.1/bits/stl_algobase.h ****       typedef typename iterator_traits<_BI1>::iterator_category _Category;
 702:/Library/DaisyToolchain/0.2.0/arm/arm-none-eabi/include/c++/10.3.1/bits/stl_algobase.h **** #ifdef __cpp_lib_is_constant_evaluated
 703:/Library/DaisyToolchain/0.2.0/arm/arm-none-eabi/include/c++/10.3.1/bits/stl_algobase.h ****       if (std::is_constant_evaluated())
 704:/Library/DaisyToolchain/0.2.0/arm/arm-none-eabi/include/c++/10.3.1/bits/stl_algobase.h **** 	return std::__copy_move_backward<_IsMove, false, _Category>::
 705:/Library/DaisyToolchain/0.2.0/arm/arm-none-eabi/include/c++/10.3.1/bits/stl_algobase.h **** 	  __copy_move_b(__first, __last, __result);
 706:/Library/DaisyToolchain/0.2.0/arm/arm-none-eabi/include/c++/10.3.1/bits/stl_algobase.h **** #endif
 707:/Library/DaisyToolchain/0.2.0/arm/arm-none-eabi/include/c++/10.3.1/bits/stl_algobase.h ****       return std::__copy_move_backward<_IsMove,
 708:/Library/DaisyToolchain/0.2.0/arm/arm-none-eabi/include/c++/10.3.1/bits/stl_algobase.h **** 				       __memcpyable<_BI2, _BI1>::__value,
 709:/Library/DaisyToolchain/0.2.0/arm/arm-none-eabi/include/c++/10.3.1/bits/stl_algobase.h **** 				       _Category>::__copy_move_b(__first,
 710:/Library/DaisyToolchain/0.2.0/arm/arm-none-eabi/include/c++/10.3.1/bits/stl_algobase.h **** 								 __last,
 711:/Library/DaisyToolchain/0.2.0/arm/arm-none-eabi/include/c++/10.3.1/bits/stl_algobase.h **** 								 __result);
 712:/Library/DaisyToolchain/0.2.0/arm/arm-none-eabi/include/c++/10.3.1/bits/stl_algobase.h ****     }
 713:/Library/DaisyToolchain/0.2.0/arm/arm-none-eabi/include/c++/10.3.1/bits/stl_algobase.h **** 
 714:/Library/DaisyToolchain/0.2.0/arm/arm-none-eabi/include/c++/10.3.1/bits/stl_algobase.h ****   template<bool _IsMove, typename _BI1, typename _BI2>
 715:/Library/DaisyToolchain/0.2.0/arm/arm-none-eabi/include/c++/10.3.1/bits/stl_algobase.h ****     _GLIBCXX20_CONSTEXPR
 716:/Library/DaisyToolchain/0.2.0/arm/arm-none-eabi/include/c++/10.3.1/bits/stl_algobase.h ****     inline _BI2
 717:/Library/DaisyToolchain/0.2.0/arm/arm-none-eabi/include/c++/10.3.1/bits/stl_algobase.h ****     __copy_move_backward_a1(_BI1 __first, _BI1 __last, _BI2 __result)
 718:/Library/DaisyToolchain/0.2.0/arm/arm-none-eabi/include/c++/10.3.1/bits/stl_algobase.h ****     { return std::__copy_move_backward_a2<_IsMove>(__first, __last, __result); }
 719:/Library/DaisyToolchain/0.2.0/arm/arm-none-eabi/include/c++/10.3.1/bits/stl_algobase.h **** 
 720:/Library/DaisyToolchain/0.2.0/arm/arm-none-eabi/include/c++/10.3.1/bits/stl_algobase.h ****   template<bool _IsMove,
 721:/Library/DaisyToolchain/0.2.0/arm/arm-none-eabi/include/c++/10.3.1/bits/stl_algobase.h **** 	   typename _Tp, typename _Ref, typename _Ptr, typename _OI>
 722:/Library/DaisyToolchain/0.2.0/arm/arm-none-eabi/include/c++/10.3.1/bits/stl_algobase.h ****     _OI
 723:/Library/DaisyToolchain/0.2.0/arm/arm-none-eabi/include/c++/10.3.1/bits/stl_algobase.h ****     __copy_move_backward_a1(_GLIBCXX_STD_C::_Deque_iterator<_Tp, _Ref, _Ptr>,
 724:/Library/DaisyToolchain/0.2.0/arm/arm-none-eabi/include/c++/10.3.1/bits/stl_algobase.h **** 			    _GLIBCXX_STD_C::_Deque_iterator<_Tp, _Ref, _Ptr>,
 725:/Library/DaisyToolchain/0.2.0/arm/arm-none-eabi/include/c++/10.3.1/bits/stl_algobase.h **** 			    _OI);
 726:/Library/DaisyToolchain/0.2.0/arm/arm-none-eabi/include/c++/10.3.1/bits/stl_algobase.h **** 
 727:/Library/DaisyToolchain/0.2.0/arm/arm-none-eabi/include/c++/10.3.1/bits/stl_algobase.h ****   template<bool _IsMove,
 728:/Library/DaisyToolchain/0.2.0/arm/arm-none-eabi/include/c++/10.3.1/bits/stl_algobase.h **** 	   typename _ITp, typename _IRef, typename _IPtr, typename _OTp>
 729:/Library/DaisyToolchain/0.2.0/arm/arm-none-eabi/include/c++/10.3.1/bits/stl_algobase.h ****     _GLIBCXX_STD_C::_Deque_iterator<_OTp, _OTp&, _OTp*>
 730:/Library/DaisyToolchain/0.2.0/arm/arm-none-eabi/include/c++/10.3.1/bits/stl_algobase.h ****     __copy_move_backward_a1(
 731:/Library/DaisyToolchain/0.2.0/arm/arm-none-eabi/include/c++/10.3.1/bits/stl_algobase.h **** 			_GLIBCXX_STD_C::_Deque_iterator<_ITp, _IRef, _IPtr>,
 732:/Library/DaisyToolchain/0.2.0/arm/arm-none-eabi/include/c++/10.3.1/bits/stl_algobase.h **** 			_GLIBCXX_STD_C::_Deque_iterator<_ITp, _IRef, _IPtr>,
 733:/Library/DaisyToolchain/0.2.0/arm/arm-none-eabi/include/c++/10.3.1/bits/stl_algobase.h **** 			_GLIBCXX_STD_C::_Deque_iterator<_OTp, _OTp&, _OTp*>);
 734:/Library/DaisyToolchain/0.2.0/arm/arm-none-eabi/include/c++/10.3.1/bits/stl_algobase.h **** 
 735:/Library/DaisyToolchain/0.2.0/arm/arm-none-eabi/include/c++/10.3.1/bits/stl_algobase.h ****   template<bool _IsMove, typename _II, typename _Tp>
 736:/Library/DaisyToolchain/0.2.0/arm/arm-none-eabi/include/c++/10.3.1/bits/stl_algobase.h ****     typename __gnu_cxx::__enable_if<
 737:/Library/DaisyToolchain/0.2.0/arm/arm-none-eabi/include/c++/10.3.1/bits/stl_algobase.h ****       __is_random_access_iter<_II>::__value,
 738:/Library/DaisyToolchain/0.2.0/arm/arm-none-eabi/include/c++/10.3.1/bits/stl_algobase.h ****       _GLIBCXX_STD_C::_Deque_iterator<_Tp, _Tp&, _Tp*> >::__type
 739:/Library/DaisyToolchain/0.2.0/arm/arm-none-eabi/include/c++/10.3.1/bits/stl_algobase.h ****     __copy_move_backward_a1(_II, _II,
 740:/Library/DaisyToolchain/0.2.0/arm/arm-none-eabi/include/c++/10.3.1/bits/stl_algobase.h **** 			    _GLIBCXX_STD_C::_Deque_iterator<_Tp, _Tp&, _Tp*>);
 741:/Library/DaisyToolchain/0.2.0/arm/arm-none-eabi/include/c++/10.3.1/bits/stl_algobase.h **** 
 742:/Library/DaisyToolchain/0.2.0/arm/arm-none-eabi/include/c++/10.3.1/bits/stl_algobase.h ****   template<bool _IsMove, typename _II, typename _OI>
 743:/Library/DaisyToolchain/0.2.0/arm/arm-none-eabi/include/c++/10.3.1/bits/stl_algobase.h ****     _GLIBCXX20_CONSTEXPR
 744:/Library/DaisyToolchain/0.2.0/arm/arm-none-eabi/include/c++/10.3.1/bits/stl_algobase.h ****     inline _OI
 745:/Library/DaisyToolchain/0.2.0/arm/arm-none-eabi/include/c++/10.3.1/bits/stl_algobase.h ****     __copy_move_backward_a(_II __first, _II __last, _OI __result)
 746:/Library/DaisyToolchain/0.2.0/arm/arm-none-eabi/include/c++/10.3.1/bits/stl_algobase.h ****     {
 747:/Library/DaisyToolchain/0.2.0/arm/arm-none-eabi/include/c++/10.3.1/bits/stl_algobase.h ****       return std::__niter_wrap(__result,
 748:/Library/DaisyToolchain/0.2.0/arm/arm-none-eabi/include/c++/10.3.1/bits/stl_algobase.h **** 		std::__copy_move_backward_a1<_IsMove>
 749:/Library/DaisyToolchain/0.2.0/arm/arm-none-eabi/include/c++/10.3.1/bits/stl_algobase.h **** 		  (std::__niter_base(__first), std::__niter_base(__last),
 750:/Library/DaisyToolchain/0.2.0/arm/arm-none-eabi/include/c++/10.3.1/bits/stl_algobase.h **** 		   std::__niter_base(__result)));
 751:/Library/DaisyToolchain/0.2.0/arm/arm-none-eabi/include/c++/10.3.1/bits/stl_algobase.h ****     }
 752:/Library/DaisyToolchain/0.2.0/arm/arm-none-eabi/include/c++/10.3.1/bits/stl_algobase.h **** 
 753:/Library/DaisyToolchain/0.2.0/arm/arm-none-eabi/include/c++/10.3.1/bits/stl_algobase.h ****   template<bool _IsMove,
 754:/Library/DaisyToolchain/0.2.0/arm/arm-none-eabi/include/c++/10.3.1/bits/stl_algobase.h **** 	   typename _Ite, typename _Seq, typename _Cat, typename _OI>
 755:/Library/DaisyToolchain/0.2.0/arm/arm-none-eabi/include/c++/10.3.1/bits/stl_algobase.h ****     _OI
ARM GAS  /var/folders/1y/_321xjh9623c014x9_qw12rr0000gn/T//ccE17DNe.s 			page 59


 756:/Library/DaisyToolchain/0.2.0/arm/arm-none-eabi/include/c++/10.3.1/bits/stl_algobase.h ****     __copy_move_backward_a(
 757:/Library/DaisyToolchain/0.2.0/arm/arm-none-eabi/include/c++/10.3.1/bits/stl_algobase.h **** 		const ::__gnu_debug::_Safe_iterator<_Ite, _Seq, _Cat>&,
 758:/Library/DaisyToolchain/0.2.0/arm/arm-none-eabi/include/c++/10.3.1/bits/stl_algobase.h **** 		const ::__gnu_debug::_Safe_iterator<_Ite, _Seq, _Cat>&,
 759:/Library/DaisyToolchain/0.2.0/arm/arm-none-eabi/include/c++/10.3.1/bits/stl_algobase.h **** 		_OI);
 760:/Library/DaisyToolchain/0.2.0/arm/arm-none-eabi/include/c++/10.3.1/bits/stl_algobase.h **** 
 761:/Library/DaisyToolchain/0.2.0/arm/arm-none-eabi/include/c++/10.3.1/bits/stl_algobase.h ****   template<bool _IsMove,
 762:/Library/DaisyToolchain/0.2.0/arm/arm-none-eabi/include/c++/10.3.1/bits/stl_algobase.h **** 	   typename _II, typename _Ite, typename _Seq, typename _Cat>
 763:/Library/DaisyToolchain/0.2.0/arm/arm-none-eabi/include/c++/10.3.1/bits/stl_algobase.h ****     __gnu_debug::_Safe_iterator<_Ite, _Seq, _Cat>
 764:/Library/DaisyToolchain/0.2.0/arm/arm-none-eabi/include/c++/10.3.1/bits/stl_algobase.h ****     __copy_move_backward_a(_II, _II,
 765:/Library/DaisyToolchain/0.2.0/arm/arm-none-eabi/include/c++/10.3.1/bits/stl_algobase.h **** 		const ::__gnu_debug::_Safe_iterator<_Ite, _Seq, _Cat>&);
 766:/Library/DaisyToolchain/0.2.0/arm/arm-none-eabi/include/c++/10.3.1/bits/stl_algobase.h **** 
 767:/Library/DaisyToolchain/0.2.0/arm/arm-none-eabi/include/c++/10.3.1/bits/stl_algobase.h ****   template<bool _IsMove,
 768:/Library/DaisyToolchain/0.2.0/arm/arm-none-eabi/include/c++/10.3.1/bits/stl_algobase.h **** 	   typename _IIte, typename _ISeq, typename _ICat,
 769:/Library/DaisyToolchain/0.2.0/arm/arm-none-eabi/include/c++/10.3.1/bits/stl_algobase.h **** 	   typename _OIte, typename _OSeq, typename _OCat>
 770:/Library/DaisyToolchain/0.2.0/arm/arm-none-eabi/include/c++/10.3.1/bits/stl_algobase.h ****     ::__gnu_debug::_Safe_iterator<_OIte, _OSeq, _OCat>
 771:/Library/DaisyToolchain/0.2.0/arm/arm-none-eabi/include/c++/10.3.1/bits/stl_algobase.h ****     __copy_move_backward_a(
 772:/Library/DaisyToolchain/0.2.0/arm/arm-none-eabi/include/c++/10.3.1/bits/stl_algobase.h **** 		const ::__gnu_debug::_Safe_iterator<_IIte, _ISeq, _ICat>&,
 773:/Library/DaisyToolchain/0.2.0/arm/arm-none-eabi/include/c++/10.3.1/bits/stl_algobase.h **** 		const ::__gnu_debug::_Safe_iterator<_IIte, _ISeq, _ICat>&,
 774:/Library/DaisyToolchain/0.2.0/arm/arm-none-eabi/include/c++/10.3.1/bits/stl_algobase.h **** 		const ::__gnu_debug::_Safe_iterator<_OIte, _OSeq, _OCat>&);
 775:/Library/DaisyToolchain/0.2.0/arm/arm-none-eabi/include/c++/10.3.1/bits/stl_algobase.h **** 
 776:/Library/DaisyToolchain/0.2.0/arm/arm-none-eabi/include/c++/10.3.1/bits/stl_algobase.h ****   /**
 777:/Library/DaisyToolchain/0.2.0/arm/arm-none-eabi/include/c++/10.3.1/bits/stl_algobase.h ****    *  @brief Copies the range [first,last) into result.
 778:/Library/DaisyToolchain/0.2.0/arm/arm-none-eabi/include/c++/10.3.1/bits/stl_algobase.h ****    *  @ingroup mutating_algorithms
 779:/Library/DaisyToolchain/0.2.0/arm/arm-none-eabi/include/c++/10.3.1/bits/stl_algobase.h ****    *  @param  __first  A bidirectional iterator.
 780:/Library/DaisyToolchain/0.2.0/arm/arm-none-eabi/include/c++/10.3.1/bits/stl_algobase.h ****    *  @param  __last   A bidirectional iterator.
 781:/Library/DaisyToolchain/0.2.0/arm/arm-none-eabi/include/c++/10.3.1/bits/stl_algobase.h ****    *  @param  __result A bidirectional iterator.
 782:/Library/DaisyToolchain/0.2.0/arm/arm-none-eabi/include/c++/10.3.1/bits/stl_algobase.h ****    *  @return   result - (last - first)
 783:/Library/DaisyToolchain/0.2.0/arm/arm-none-eabi/include/c++/10.3.1/bits/stl_algobase.h ****    *
 784:/Library/DaisyToolchain/0.2.0/arm/arm-none-eabi/include/c++/10.3.1/bits/stl_algobase.h ****    *  The function has the same effect as copy, but starts at the end of the
 785:/Library/DaisyToolchain/0.2.0/arm/arm-none-eabi/include/c++/10.3.1/bits/stl_algobase.h ****    *  range and works its way to the start, returning the start of the result.
 786:/Library/DaisyToolchain/0.2.0/arm/arm-none-eabi/include/c++/10.3.1/bits/stl_algobase.h ****    *  This inline function will boil down to a call to @c memmove whenever
 787:/Library/DaisyToolchain/0.2.0/arm/arm-none-eabi/include/c++/10.3.1/bits/stl_algobase.h ****    *  possible.  Failing that, if random access iterators are passed, then the
 788:/Library/DaisyToolchain/0.2.0/arm/arm-none-eabi/include/c++/10.3.1/bits/stl_algobase.h ****    *  loop count will be known (and therefore a candidate for compiler
 789:/Library/DaisyToolchain/0.2.0/arm/arm-none-eabi/include/c++/10.3.1/bits/stl_algobase.h ****    *  optimizations such as unrolling).
 790:/Library/DaisyToolchain/0.2.0/arm/arm-none-eabi/include/c++/10.3.1/bits/stl_algobase.h ****    *
 791:/Library/DaisyToolchain/0.2.0/arm/arm-none-eabi/include/c++/10.3.1/bits/stl_algobase.h ****    *  Result may not be in the range (first,last].  Use copy instead.  Note
 792:/Library/DaisyToolchain/0.2.0/arm/arm-none-eabi/include/c++/10.3.1/bits/stl_algobase.h ****    *  that the start of the output range may overlap [first,last).
 793:/Library/DaisyToolchain/0.2.0/arm/arm-none-eabi/include/c++/10.3.1/bits/stl_algobase.h ****   */
 794:/Library/DaisyToolchain/0.2.0/arm/arm-none-eabi/include/c++/10.3.1/bits/stl_algobase.h ****   template<typename _BI1, typename _BI2>
 795:/Library/DaisyToolchain/0.2.0/arm/arm-none-eabi/include/c++/10.3.1/bits/stl_algobase.h ****     _GLIBCXX20_CONSTEXPR
 796:/Library/DaisyToolchain/0.2.0/arm/arm-none-eabi/include/c++/10.3.1/bits/stl_algobase.h ****     inline _BI2
 797:/Library/DaisyToolchain/0.2.0/arm/arm-none-eabi/include/c++/10.3.1/bits/stl_algobase.h ****     copy_backward(_BI1 __first, _BI1 __last, _BI2 __result)
 798:/Library/DaisyToolchain/0.2.0/arm/arm-none-eabi/include/c++/10.3.1/bits/stl_algobase.h ****     {
 799:/Library/DaisyToolchain/0.2.0/arm/arm-none-eabi/include/c++/10.3.1/bits/stl_algobase.h ****       // concept requirements
 800:/Library/DaisyToolchain/0.2.0/arm/arm-none-eabi/include/c++/10.3.1/bits/stl_algobase.h ****       __glibcxx_function_requires(_BidirectionalIteratorConcept<_BI1>)
 801:/Library/DaisyToolchain/0.2.0/arm/arm-none-eabi/include/c++/10.3.1/bits/stl_algobase.h ****       __glibcxx_function_requires(_Mutable_BidirectionalIteratorConcept<_BI2>)
 802:/Library/DaisyToolchain/0.2.0/arm/arm-none-eabi/include/c++/10.3.1/bits/stl_algobase.h ****       __glibcxx_function_requires(_ConvertibleConcept<
 803:/Library/DaisyToolchain/0.2.0/arm/arm-none-eabi/include/c++/10.3.1/bits/stl_algobase.h **** 	    typename iterator_traits<_BI1>::value_type,
 804:/Library/DaisyToolchain/0.2.0/arm/arm-none-eabi/include/c++/10.3.1/bits/stl_algobase.h **** 	    typename iterator_traits<_BI2>::value_type>)
 805:/Library/DaisyToolchain/0.2.0/arm/arm-none-eabi/include/c++/10.3.1/bits/stl_algobase.h ****       __glibcxx_requires_can_decrement_range(__first, __last, __result);
 806:/Library/DaisyToolchain/0.2.0/arm/arm-none-eabi/include/c++/10.3.1/bits/stl_algobase.h **** 
 807:/Library/DaisyToolchain/0.2.0/arm/arm-none-eabi/include/c++/10.3.1/bits/stl_algobase.h ****       return std::__copy_move_backward_a<__is_move_iterator<_BI1>::__value>
 808:/Library/DaisyToolchain/0.2.0/arm/arm-none-eabi/include/c++/10.3.1/bits/stl_algobase.h **** 	     (std::__miter_base(__first), std::__miter_base(__last), __result);
 809:/Library/DaisyToolchain/0.2.0/arm/arm-none-eabi/include/c++/10.3.1/bits/stl_algobase.h ****     }
 810:/Library/DaisyToolchain/0.2.0/arm/arm-none-eabi/include/c++/10.3.1/bits/stl_algobase.h **** 
 811:/Library/DaisyToolchain/0.2.0/arm/arm-none-eabi/include/c++/10.3.1/bits/stl_algobase.h **** #if __cplusplus >= 201103L
 812:/Library/DaisyToolchain/0.2.0/arm/arm-none-eabi/include/c++/10.3.1/bits/stl_algobase.h ****   /**
ARM GAS  /var/folders/1y/_321xjh9623c014x9_qw12rr0000gn/T//ccE17DNe.s 			page 60


 813:/Library/DaisyToolchain/0.2.0/arm/arm-none-eabi/include/c++/10.3.1/bits/stl_algobase.h ****    *  @brief Moves the range [first,last) into result.
 814:/Library/DaisyToolchain/0.2.0/arm/arm-none-eabi/include/c++/10.3.1/bits/stl_algobase.h ****    *  @ingroup mutating_algorithms
 815:/Library/DaisyToolchain/0.2.0/arm/arm-none-eabi/include/c++/10.3.1/bits/stl_algobase.h ****    *  @param  __first  A bidirectional iterator.
 816:/Library/DaisyToolchain/0.2.0/arm/arm-none-eabi/include/c++/10.3.1/bits/stl_algobase.h ****    *  @param  __last   A bidirectional iterator.
 817:/Library/DaisyToolchain/0.2.0/arm/arm-none-eabi/include/c++/10.3.1/bits/stl_algobase.h ****    *  @param  __result A bidirectional iterator.
 818:/Library/DaisyToolchain/0.2.0/arm/arm-none-eabi/include/c++/10.3.1/bits/stl_algobase.h ****    *  @return   result - (last - first)
 819:/Library/DaisyToolchain/0.2.0/arm/arm-none-eabi/include/c++/10.3.1/bits/stl_algobase.h ****    *
 820:/Library/DaisyToolchain/0.2.0/arm/arm-none-eabi/include/c++/10.3.1/bits/stl_algobase.h ****    *  The function has the same effect as move, but starts at the end of the
 821:/Library/DaisyToolchain/0.2.0/arm/arm-none-eabi/include/c++/10.3.1/bits/stl_algobase.h ****    *  range and works its way to the start, returning the start of the result.
 822:/Library/DaisyToolchain/0.2.0/arm/arm-none-eabi/include/c++/10.3.1/bits/stl_algobase.h ****    *  This inline function will boil down to a call to @c memmove whenever
 823:/Library/DaisyToolchain/0.2.0/arm/arm-none-eabi/include/c++/10.3.1/bits/stl_algobase.h ****    *  possible.  Failing that, if random access iterators are passed, then the
 824:/Library/DaisyToolchain/0.2.0/arm/arm-none-eabi/include/c++/10.3.1/bits/stl_algobase.h ****    *  loop count will be known (and therefore a candidate for compiler
 825:/Library/DaisyToolchain/0.2.0/arm/arm-none-eabi/include/c++/10.3.1/bits/stl_algobase.h ****    *  optimizations such as unrolling).
 826:/Library/DaisyToolchain/0.2.0/arm/arm-none-eabi/include/c++/10.3.1/bits/stl_algobase.h ****    *
 827:/Library/DaisyToolchain/0.2.0/arm/arm-none-eabi/include/c++/10.3.1/bits/stl_algobase.h ****    *  Result may not be in the range (first,last].  Use move instead.  Note
 828:/Library/DaisyToolchain/0.2.0/arm/arm-none-eabi/include/c++/10.3.1/bits/stl_algobase.h ****    *  that the start of the output range may overlap [first,last).
 829:/Library/DaisyToolchain/0.2.0/arm/arm-none-eabi/include/c++/10.3.1/bits/stl_algobase.h ****   */
 830:/Library/DaisyToolchain/0.2.0/arm/arm-none-eabi/include/c++/10.3.1/bits/stl_algobase.h ****   template<typename _BI1, typename _BI2>
 831:/Library/DaisyToolchain/0.2.0/arm/arm-none-eabi/include/c++/10.3.1/bits/stl_algobase.h ****     _GLIBCXX20_CONSTEXPR
 832:/Library/DaisyToolchain/0.2.0/arm/arm-none-eabi/include/c++/10.3.1/bits/stl_algobase.h ****     inline _BI2
 833:/Library/DaisyToolchain/0.2.0/arm/arm-none-eabi/include/c++/10.3.1/bits/stl_algobase.h ****     move_backward(_BI1 __first, _BI1 __last, _BI2 __result)
 834:/Library/DaisyToolchain/0.2.0/arm/arm-none-eabi/include/c++/10.3.1/bits/stl_algobase.h ****     {
 835:/Library/DaisyToolchain/0.2.0/arm/arm-none-eabi/include/c++/10.3.1/bits/stl_algobase.h ****       // concept requirements
 836:/Library/DaisyToolchain/0.2.0/arm/arm-none-eabi/include/c++/10.3.1/bits/stl_algobase.h ****       __glibcxx_function_requires(_BidirectionalIteratorConcept<_BI1>)
 837:/Library/DaisyToolchain/0.2.0/arm/arm-none-eabi/include/c++/10.3.1/bits/stl_algobase.h ****       __glibcxx_function_requires(_Mutable_BidirectionalIteratorConcept<_BI2>)
 838:/Library/DaisyToolchain/0.2.0/arm/arm-none-eabi/include/c++/10.3.1/bits/stl_algobase.h ****       __glibcxx_function_requires(_ConvertibleConcept<
 839:/Library/DaisyToolchain/0.2.0/arm/arm-none-eabi/include/c++/10.3.1/bits/stl_algobase.h **** 	    typename iterator_traits<_BI1>::value_type,
 840:/Library/DaisyToolchain/0.2.0/arm/arm-none-eabi/include/c++/10.3.1/bits/stl_algobase.h **** 	    typename iterator_traits<_BI2>::value_type>)
 841:/Library/DaisyToolchain/0.2.0/arm/arm-none-eabi/include/c++/10.3.1/bits/stl_algobase.h ****       __glibcxx_requires_can_decrement_range(__first, __last, __result);
 842:/Library/DaisyToolchain/0.2.0/arm/arm-none-eabi/include/c++/10.3.1/bits/stl_algobase.h **** 
 843:/Library/DaisyToolchain/0.2.0/arm/arm-none-eabi/include/c++/10.3.1/bits/stl_algobase.h ****       return std::__copy_move_backward_a<true>(std::__miter_base(__first),
 844:/Library/DaisyToolchain/0.2.0/arm/arm-none-eabi/include/c++/10.3.1/bits/stl_algobase.h **** 					       std::__miter_base(__last),
 845:/Library/DaisyToolchain/0.2.0/arm/arm-none-eabi/include/c++/10.3.1/bits/stl_algobase.h **** 					       __result);
 846:/Library/DaisyToolchain/0.2.0/arm/arm-none-eabi/include/c++/10.3.1/bits/stl_algobase.h ****     }
 847:/Library/DaisyToolchain/0.2.0/arm/arm-none-eabi/include/c++/10.3.1/bits/stl_algobase.h **** 
 848:/Library/DaisyToolchain/0.2.0/arm/arm-none-eabi/include/c++/10.3.1/bits/stl_algobase.h **** #define _GLIBCXX_MOVE_BACKWARD3(_Tp, _Up, _Vp) std::move_backward(_Tp, _Up, _Vp)
 849:/Library/DaisyToolchain/0.2.0/arm/arm-none-eabi/include/c++/10.3.1/bits/stl_algobase.h **** #else
 850:/Library/DaisyToolchain/0.2.0/arm/arm-none-eabi/include/c++/10.3.1/bits/stl_algobase.h **** #define _GLIBCXX_MOVE_BACKWARD3(_Tp, _Up, _Vp) std::copy_backward(_Tp, _Up, _Vp)
 851:/Library/DaisyToolchain/0.2.0/arm/arm-none-eabi/include/c++/10.3.1/bits/stl_algobase.h **** #endif
 852:/Library/DaisyToolchain/0.2.0/arm/arm-none-eabi/include/c++/10.3.1/bits/stl_algobase.h **** 
 853:/Library/DaisyToolchain/0.2.0/arm/arm-none-eabi/include/c++/10.3.1/bits/stl_algobase.h ****   template<typename _ForwardIterator, typename _Tp>
 854:/Library/DaisyToolchain/0.2.0/arm/arm-none-eabi/include/c++/10.3.1/bits/stl_algobase.h ****     _GLIBCXX20_CONSTEXPR
 855:/Library/DaisyToolchain/0.2.0/arm/arm-none-eabi/include/c++/10.3.1/bits/stl_algobase.h ****     inline typename
 856:/Library/DaisyToolchain/0.2.0/arm/arm-none-eabi/include/c++/10.3.1/bits/stl_algobase.h ****     __gnu_cxx::__enable_if<!__is_scalar<_Tp>::__value, void>::__type
 857:/Library/DaisyToolchain/0.2.0/arm/arm-none-eabi/include/c++/10.3.1/bits/stl_algobase.h ****     __fill_a1(_ForwardIterator __first, _ForwardIterator __last,
 858:/Library/DaisyToolchain/0.2.0/arm/arm-none-eabi/include/c++/10.3.1/bits/stl_algobase.h **** 	      const _Tp& __value)
 859:/Library/DaisyToolchain/0.2.0/arm/arm-none-eabi/include/c++/10.3.1/bits/stl_algobase.h ****     {
 860:/Library/DaisyToolchain/0.2.0/arm/arm-none-eabi/include/c++/10.3.1/bits/stl_algobase.h ****       for (; __first != __last; ++__first)
 861:/Library/DaisyToolchain/0.2.0/arm/arm-none-eabi/include/c++/10.3.1/bits/stl_algobase.h **** 	*__first = __value;
 862:/Library/DaisyToolchain/0.2.0/arm/arm-none-eabi/include/c++/10.3.1/bits/stl_algobase.h ****     }
 863:/Library/DaisyToolchain/0.2.0/arm/arm-none-eabi/include/c++/10.3.1/bits/stl_algobase.h **** 
 864:/Library/DaisyToolchain/0.2.0/arm/arm-none-eabi/include/c++/10.3.1/bits/stl_algobase.h ****   template<typename _ForwardIterator, typename _Tp>
 865:/Library/DaisyToolchain/0.2.0/arm/arm-none-eabi/include/c++/10.3.1/bits/stl_algobase.h ****     _GLIBCXX20_CONSTEXPR
 866:/Library/DaisyToolchain/0.2.0/arm/arm-none-eabi/include/c++/10.3.1/bits/stl_algobase.h ****     inline typename
 867:/Library/DaisyToolchain/0.2.0/arm/arm-none-eabi/include/c++/10.3.1/bits/stl_algobase.h ****     __gnu_cxx::__enable_if<__is_scalar<_Tp>::__value, void>::__type
 868:/Library/DaisyToolchain/0.2.0/arm/arm-none-eabi/include/c++/10.3.1/bits/stl_algobase.h ****     __fill_a1(_ForwardIterator __first, _ForwardIterator __last,
 869:/Library/DaisyToolchain/0.2.0/arm/arm-none-eabi/include/c++/10.3.1/bits/stl_algobase.h **** 	      const _Tp& __value)
ARM GAS  /var/folders/1y/_321xjh9623c014x9_qw12rr0000gn/T//ccE17DNe.s 			page 61


 870:/Library/DaisyToolchain/0.2.0/arm/arm-none-eabi/include/c++/10.3.1/bits/stl_algobase.h ****     {
 871:/Library/DaisyToolchain/0.2.0/arm/arm-none-eabi/include/c++/10.3.1/bits/stl_algobase.h ****       const _Tp __tmp = __value;
 872:/Library/DaisyToolchain/0.2.0/arm/arm-none-eabi/include/c++/10.3.1/bits/stl_algobase.h ****       for (; __first != __last; ++__first)
 873:/Library/DaisyToolchain/0.2.0/arm/arm-none-eabi/include/c++/10.3.1/bits/stl_algobase.h **** 	*__first = __tmp;
 874:/Library/DaisyToolchain/0.2.0/arm/arm-none-eabi/include/c++/10.3.1/bits/stl_algobase.h ****     }
 875:/Library/DaisyToolchain/0.2.0/arm/arm-none-eabi/include/c++/10.3.1/bits/stl_algobase.h **** 
 876:/Library/DaisyToolchain/0.2.0/arm/arm-none-eabi/include/c++/10.3.1/bits/stl_algobase.h ****   // Specialization: for char types we can use memset.
 877:/Library/DaisyToolchain/0.2.0/arm/arm-none-eabi/include/c++/10.3.1/bits/stl_algobase.h ****   template<typename _Tp>
 878:/Library/DaisyToolchain/0.2.0/arm/arm-none-eabi/include/c++/10.3.1/bits/stl_algobase.h ****     _GLIBCXX20_CONSTEXPR
 879:/Library/DaisyToolchain/0.2.0/arm/arm-none-eabi/include/c++/10.3.1/bits/stl_algobase.h ****     inline typename
 880:/Library/DaisyToolchain/0.2.0/arm/arm-none-eabi/include/c++/10.3.1/bits/stl_algobase.h ****     __gnu_cxx::__enable_if<__is_byte<_Tp>::__value, void>::__type
 881:/Library/DaisyToolchain/0.2.0/arm/arm-none-eabi/include/c++/10.3.1/bits/stl_algobase.h ****     __fill_a1(_Tp* __first, _Tp* __last, const _Tp& __c)
 882:/Library/DaisyToolchain/0.2.0/arm/arm-none-eabi/include/c++/10.3.1/bits/stl_algobase.h ****     {
 883:/Library/DaisyToolchain/0.2.0/arm/arm-none-eabi/include/c++/10.3.1/bits/stl_algobase.h ****       const _Tp __tmp = __c;
 884:/Library/DaisyToolchain/0.2.0/arm/arm-none-eabi/include/c++/10.3.1/bits/stl_algobase.h **** #if __cpp_lib_is_constant_evaluated
 885:/Library/DaisyToolchain/0.2.0/arm/arm-none-eabi/include/c++/10.3.1/bits/stl_algobase.h ****       if (std::is_constant_evaluated())
 886:/Library/DaisyToolchain/0.2.0/arm/arm-none-eabi/include/c++/10.3.1/bits/stl_algobase.h **** 	{
 887:/Library/DaisyToolchain/0.2.0/arm/arm-none-eabi/include/c++/10.3.1/bits/stl_algobase.h **** 	  for (; __first != __last; ++__first)
 888:/Library/DaisyToolchain/0.2.0/arm/arm-none-eabi/include/c++/10.3.1/bits/stl_algobase.h **** 	    *__first = __tmp;
 889:/Library/DaisyToolchain/0.2.0/arm/arm-none-eabi/include/c++/10.3.1/bits/stl_algobase.h **** 	  return;
 890:/Library/DaisyToolchain/0.2.0/arm/arm-none-eabi/include/c++/10.3.1/bits/stl_algobase.h **** 	}
 891:/Library/DaisyToolchain/0.2.0/arm/arm-none-eabi/include/c++/10.3.1/bits/stl_algobase.h **** #endif
 892:/Library/DaisyToolchain/0.2.0/arm/arm-none-eabi/include/c++/10.3.1/bits/stl_algobase.h ****       if (const size_t __len = __last - __first)
 893:/Library/DaisyToolchain/0.2.0/arm/arm-none-eabi/include/c++/10.3.1/bits/stl_algobase.h **** 	__builtin_memset(__first, static_cast<unsigned char>(__tmp), __len);
 894:/Library/DaisyToolchain/0.2.0/arm/arm-none-eabi/include/c++/10.3.1/bits/stl_algobase.h ****     }
 895:/Library/DaisyToolchain/0.2.0/arm/arm-none-eabi/include/c++/10.3.1/bits/stl_algobase.h **** 
 896:/Library/DaisyToolchain/0.2.0/arm/arm-none-eabi/include/c++/10.3.1/bits/stl_algobase.h ****   template<typename _Ite, typename _Cont, typename _Tp>
 897:/Library/DaisyToolchain/0.2.0/arm/arm-none-eabi/include/c++/10.3.1/bits/stl_algobase.h ****     _GLIBCXX20_CONSTEXPR
 898:/Library/DaisyToolchain/0.2.0/arm/arm-none-eabi/include/c++/10.3.1/bits/stl_algobase.h ****     inline void
 899:/Library/DaisyToolchain/0.2.0/arm/arm-none-eabi/include/c++/10.3.1/bits/stl_algobase.h ****     __fill_a1(::__gnu_cxx::__normal_iterator<_Ite, _Cont> __first,
 900:/Library/DaisyToolchain/0.2.0/arm/arm-none-eabi/include/c++/10.3.1/bits/stl_algobase.h **** 	      ::__gnu_cxx::__normal_iterator<_Ite, _Cont> __last,
 901:/Library/DaisyToolchain/0.2.0/arm/arm-none-eabi/include/c++/10.3.1/bits/stl_algobase.h **** 	      const _Tp& __value)
 902:/Library/DaisyToolchain/0.2.0/arm/arm-none-eabi/include/c++/10.3.1/bits/stl_algobase.h ****     { std::__fill_a1(__first.base(), __last.base(), __value); }
 903:/Library/DaisyToolchain/0.2.0/arm/arm-none-eabi/include/c++/10.3.1/bits/stl_algobase.h **** 
 904:/Library/DaisyToolchain/0.2.0/arm/arm-none-eabi/include/c++/10.3.1/bits/stl_algobase.h ****   template<typename _Tp, typename _VTp>
 905:/Library/DaisyToolchain/0.2.0/arm/arm-none-eabi/include/c++/10.3.1/bits/stl_algobase.h ****     void
 906:/Library/DaisyToolchain/0.2.0/arm/arm-none-eabi/include/c++/10.3.1/bits/stl_algobase.h ****     __fill_a1(const _GLIBCXX_STD_C::_Deque_iterator<_Tp, _Tp&, _Tp*>&,
 907:/Library/DaisyToolchain/0.2.0/arm/arm-none-eabi/include/c++/10.3.1/bits/stl_algobase.h **** 	      const _GLIBCXX_STD_C::_Deque_iterator<_Tp, _Tp&, _Tp*>&,
 908:/Library/DaisyToolchain/0.2.0/arm/arm-none-eabi/include/c++/10.3.1/bits/stl_algobase.h **** 	      const _VTp&);
 909:/Library/DaisyToolchain/0.2.0/arm/arm-none-eabi/include/c++/10.3.1/bits/stl_algobase.h **** 
 910:/Library/DaisyToolchain/0.2.0/arm/arm-none-eabi/include/c++/10.3.1/bits/stl_algobase.h ****   template<typename _FIte, typename _Tp>
 911:/Library/DaisyToolchain/0.2.0/arm/arm-none-eabi/include/c++/10.3.1/bits/stl_algobase.h ****     _GLIBCXX20_CONSTEXPR
 912:/Library/DaisyToolchain/0.2.0/arm/arm-none-eabi/include/c++/10.3.1/bits/stl_algobase.h ****     inline void
 913:/Library/DaisyToolchain/0.2.0/arm/arm-none-eabi/include/c++/10.3.1/bits/stl_algobase.h ****     __fill_a(_FIte __first, _FIte __last, const _Tp& __value)
 914:/Library/DaisyToolchain/0.2.0/arm/arm-none-eabi/include/c++/10.3.1/bits/stl_algobase.h ****     { std::__fill_a1(__first, __last, __value); }
 915:/Library/DaisyToolchain/0.2.0/arm/arm-none-eabi/include/c++/10.3.1/bits/stl_algobase.h **** 
 916:/Library/DaisyToolchain/0.2.0/arm/arm-none-eabi/include/c++/10.3.1/bits/stl_algobase.h ****   template<typename _Ite, typename _Seq, typename _Cat, typename _Tp>
 917:/Library/DaisyToolchain/0.2.0/arm/arm-none-eabi/include/c++/10.3.1/bits/stl_algobase.h ****     void
 918:/Library/DaisyToolchain/0.2.0/arm/arm-none-eabi/include/c++/10.3.1/bits/stl_algobase.h ****     __fill_a(const ::__gnu_debug::_Safe_iterator<_Ite, _Seq, _Cat>&,
 919:/Library/DaisyToolchain/0.2.0/arm/arm-none-eabi/include/c++/10.3.1/bits/stl_algobase.h **** 	     const ::__gnu_debug::_Safe_iterator<_Ite, _Seq, _Cat>&,
 920:/Library/DaisyToolchain/0.2.0/arm/arm-none-eabi/include/c++/10.3.1/bits/stl_algobase.h **** 	     const _Tp&);
 921:/Library/DaisyToolchain/0.2.0/arm/arm-none-eabi/include/c++/10.3.1/bits/stl_algobase.h **** 
 922:/Library/DaisyToolchain/0.2.0/arm/arm-none-eabi/include/c++/10.3.1/bits/stl_algobase.h ****   /**
 923:/Library/DaisyToolchain/0.2.0/arm/arm-none-eabi/include/c++/10.3.1/bits/stl_algobase.h ****    *  @brief Fills the range [first,last) with copies of value.
 924:/Library/DaisyToolchain/0.2.0/arm/arm-none-eabi/include/c++/10.3.1/bits/stl_algobase.h ****    *  @ingroup mutating_algorithms
 925:/Library/DaisyToolchain/0.2.0/arm/arm-none-eabi/include/c++/10.3.1/bits/stl_algobase.h ****    *  @param  __first  A forward iterator.
 926:/Library/DaisyToolchain/0.2.0/arm/arm-none-eabi/include/c++/10.3.1/bits/stl_algobase.h ****    *  @param  __last   A forward iterator.
ARM GAS  /var/folders/1y/_321xjh9623c014x9_qw12rr0000gn/T//ccE17DNe.s 			page 62


 927:/Library/DaisyToolchain/0.2.0/arm/arm-none-eabi/include/c++/10.3.1/bits/stl_algobase.h ****    *  @param  __value  A reference-to-const of arbitrary type.
 928:/Library/DaisyToolchain/0.2.0/arm/arm-none-eabi/include/c++/10.3.1/bits/stl_algobase.h ****    *  @return   Nothing.
 929:/Library/DaisyToolchain/0.2.0/arm/arm-none-eabi/include/c++/10.3.1/bits/stl_algobase.h ****    *
 930:/Library/DaisyToolchain/0.2.0/arm/arm-none-eabi/include/c++/10.3.1/bits/stl_algobase.h ****    *  This function fills a range with copies of the same value.  For char
 931:/Library/DaisyToolchain/0.2.0/arm/arm-none-eabi/include/c++/10.3.1/bits/stl_algobase.h ****    *  types filling contiguous areas of memory, this becomes an inline call
 932:/Library/DaisyToolchain/0.2.0/arm/arm-none-eabi/include/c++/10.3.1/bits/stl_algobase.h ****    *  to @c memset or @c wmemset.
 933:/Library/DaisyToolchain/0.2.0/arm/arm-none-eabi/include/c++/10.3.1/bits/stl_algobase.h ****   */
 934:/Library/DaisyToolchain/0.2.0/arm/arm-none-eabi/include/c++/10.3.1/bits/stl_algobase.h ****   template<typename _ForwardIterator, typename _Tp>
 935:/Library/DaisyToolchain/0.2.0/arm/arm-none-eabi/include/c++/10.3.1/bits/stl_algobase.h ****     _GLIBCXX20_CONSTEXPR
 936:/Library/DaisyToolchain/0.2.0/arm/arm-none-eabi/include/c++/10.3.1/bits/stl_algobase.h ****     inline void
 937:/Library/DaisyToolchain/0.2.0/arm/arm-none-eabi/include/c++/10.3.1/bits/stl_algobase.h ****     fill(_ForwardIterator __first, _ForwardIterator __last, const _Tp& __value)
 1107              		.loc 5 937 5 view .LVU267
 1108              	.LBB395:
 1109              	.LBI395:
 913:/Library/DaisyToolchain/0.2.0/arm/arm-none-eabi/include/c++/10.3.1/bits/stl_algobase.h ****     { std::__fill_a1(__first, __last, __value); }
 1110              		.loc 5 913 5 view .LVU268
 1111              	.LBB396:
 1112              	.LBI396:
 868:/Library/DaisyToolchain/0.2.0/arm/arm-none-eabi/include/c++/10.3.1/bits/stl_algobase.h **** 	      const _Tp& __value)
 1113              		.loc 5 868 5 view .LVU269
 1114              	.LBB397:
 872:/Library/DaisyToolchain/0.2.0/arm/arm-none-eabi/include/c++/10.3.1/bits/stl_algobase.h **** 	*__first = __tmp;
 1115              		.loc 5 872 22 view .LVU270
 1116 006a 26B1     		cbz	r6, .L57
 873:/Library/DaisyToolchain/0.2.0/arm/arm-none-eabi/include/c++/10.3.1/bits/stl_algobase.h ****     }
 1117              		.loc 5 873 11 is_stmt 0 view .LVU271
 1118 006c 3246     		mov	r2, r6
 1119 006e 7146     		mov	r1, lr
 1120 0070 3846     		mov	r0, r7
 1121 0072 FFF7FEFF 		bl	memset
 1122              	.LVL95:
 1123              	.L57:
 873:/Library/DaisyToolchain/0.2.0/arm/arm-none-eabi/include/c++/10.3.1/bits/stl_algobase.h ****     }
 1124              		.loc 5 873 11 view .LVU272
 1125              	.LBE397:
 1126              	.LBE396:
 1127              	.LBE395:
 1128              	.LBE394:
  84:../../libDaisy//src/hid/midi.h ****     }
 1129              		.loc 6 84 9 is_stmt 1 view .LVU273
  84:../../libDaisy//src/hid/midi.h ****     }
 1130              		.loc 6 84 19 is_stmt 0 view .LVU274
 1131 0076 0DA9     		add	r1, sp, #52
 1132 0078 4046     		mov	r0, r8
 1133 007a FFF7FEFF 		bl	_ZN5daisy11UartHandler4InitERKNS0_6ConfigE
 1134              	.LVL96:
  84:../../libDaisy//src/hid/midi.h ****     }
 1135              		.loc 6 84 19 view .LVU275
 1136              	.LBE398:
 1137              	.LBE383:
 1138              	.LBB399:
 1139              	.LBI399:
 1140              		.file 8 "../../libDaisy//src/hid/midi_parser.h"
   1:../../libDaisy//src/hid/midi_parser.h **** #pragma once
   2:../../libDaisy//src/hid/midi_parser.h **** #ifndef DSY_MIDI_PARSER_H
   3:../../libDaisy//src/hid/midi_parser.h **** #define DSY_MIDI_PARSER_H
   4:../../libDaisy//src/hid/midi_parser.h **** 
ARM GAS  /var/folders/1y/_321xjh9623c014x9_qw12rr0000gn/T//ccE17DNe.s 			page 63


   5:../../libDaisy//src/hid/midi_parser.h **** #include <stdint.h>
   6:../../libDaisy//src/hid/midi_parser.h **** #include <stdlib.h>
   7:../../libDaisy//src/hid/midi_parser.h **** #include "hid/MidiEvent.h"
   8:../../libDaisy//src/hid/midi_parser.h **** 
   9:../../libDaisy//src/hid/midi_parser.h **** namespace daisy
  10:../../libDaisy//src/hid/midi_parser.h **** {
  11:../../libDaisy//src/hid/midi_parser.h **** /** @brief   Utility class for parsing raw byte streams into MIDI messages
  12:../../libDaisy//src/hid/midi_parser.h ****  *  @details Implemented as a state machine designed to parse one byte at a time
  13:../../libDaisy//src/hid/midi_parser.h ****  *  @ingroup midi
  14:../../libDaisy//src/hid/midi_parser.h ****  */
  15:../../libDaisy//src/hid/midi_parser.h **** class MidiParser
  16:../../libDaisy//src/hid/midi_parser.h **** {
  17:../../libDaisy//src/hid/midi_parser.h ****   public:
  18:../../libDaisy//src/hid/midi_parser.h ****     MidiParser(){};
  19:../../libDaisy//src/hid/midi_parser.h ****     ~MidiParser() {}
  20:../../libDaisy//src/hid/midi_parser.h **** 
  21:../../libDaisy//src/hid/midi_parser.h ****     inline void Init() { Reset(); }
 1141              		.loc 8 21 17 is_stmt 1 view .LVU276
 1142              	.LBB400:
 1143              		.loc 8 21 26 view .LVU277
 1144              	.LBE400:
 1145              	.LBE399:
 1146              	.LBE406:
 1147              	.LBE410:
 103:Dubby.cpp     **** 
 1148              		.loc 2 103 19 is_stmt 0 view .LVU278
 1149 007e 49F61C25 		movw	r5, #39452
 1150              	.LBB411:
 1151              	.LBB407:
 1152              	.LBB403:
 1153              	.LBB401:
 1154              		.loc 8 21 31 view .LVU279
 1155 0082 04F50E60 		add	r0, r4, #2272
 1156              	.LVL97:
 1157              		.loc 8 21 31 view .LVU280
 1158              	.LBE401:
 1159              	.LBE403:
 1160              	.LBE407:
 1161              	.LBE411:
 100:Dubby.cpp     ****     midi_sw_output.mode = DSY_GPIO_MODE_OUTPUT_PP;
 1162              		.loc 2 100 54 view .LVU281
 1163 0086 04F51046 		add	r6, r4, #36864
 1164              	.LBB412:
 1165              	.LBB408:
 1166              	.LBB404:
 1167              	.LBB402:
 1168              		.loc 8 21 31 view .LVU282
 1169 008a FFF7FEFF 		bl	_ZN5daisy10MidiParser5ResetEv
 1170              	.LVL98:
 1171              		.loc 8 21 31 view .LVU283
 1172              	.LBE402:
 1173              	.LBE404:
 1174              	.LBE408:
 1175              	.LBE412:
 100:Dubby.cpp     ****     midi_sw_output.mode = DSY_GPIO_MODE_OUTPUT_PP;
 1176              		.loc 2 100 5 is_stmt 1 view .LVU284
 100:Dubby.cpp     ****     midi_sw_output.mode = DSY_GPIO_MODE_OUTPUT_PP;
ARM GAS  /var/folders/1y/_321xjh9623c014x9_qw12rr0000gn/T//ccE17DNe.s 			page 64


 1177              		.loc 2 100 54 is_stmt 0 view .LVU285
 1178 008e 0120     		movs	r0, #1
 1179 0090 FFF7FEFF 		bl	_ZN5daisy9DaisySeed6GetPinEh
 1180              	.LVL99:
 103:Dubby.cpp     **** 
 1181              		.loc 2 103 19 view .LVU286
 1182 0094 2544     		add	r5, r5, r4
 101:Dubby.cpp     ****     midi_sw_output.pull = DSY_GPIO_NOPULL;
 1183              		.loc 2 101 25 view .LVU287
 1184 0096 0123     		movs	r3, #1
 100:Dubby.cpp     ****     midi_sw_output.mode = DSY_GPIO_MODE_OUTPUT_PP;
 1185              		.loc 2 100 54 view .LVU288
 1186 0098 A6F81C0A 		strh	r0, [r6, #2588]	@ movhi
 101:Dubby.cpp     ****     midi_sw_output.pull = DSY_GPIO_NOPULL;
 1187              		.loc 2 101 5 is_stmt 1 view .LVU289
 102:Dubby.cpp     ****     dsy_gpio_init(&midi_sw_output);
 1188              		.loc 2 102 5 view .LVU290
 103:Dubby.cpp     **** 
 1189              		.loc 2 103 18 is_stmt 0 view .LVU291
 1190 009c 2846     		mov	r0, r5
 101:Dubby.cpp     ****     midi_sw_output.pull = DSY_GPIO_NOPULL;
 1191              		.loc 2 101 25 view .LVU292
 1192 009e A6F81E3A 		strh	r3, [r6, #2590]	@ movhi
 103:Dubby.cpp     **** 
 1193              		.loc 2 103 5 is_stmt 1 view .LVU293
 103:Dubby.cpp     **** 
 1194              		.loc 2 103 18 is_stmt 0 view .LVU294
 1195 00a2 FFF7FEFF 		bl	dsy_gpio_init
 1196              	.LVL100:
 105:Dubby.cpp     **** }
 1197              		.loc 2 105 5 is_stmt 1 view .LVU295
 105:Dubby.cpp     **** }
 1198              		.loc 2 105 19 is_stmt 0 view .LVU296
 1199 00a6 0021     		movs	r1, #0
 1200 00a8 2846     		mov	r0, r5
 1201 00aa FFF7FEFF 		bl	dsy_gpio_write
 1202              	.LVL101:
 106:Dubby.cpp     **** 
 1203              		.loc 2 106 1 view .LVU297
 1204 00ae 14B0     		add	sp, sp, #80
 1205              		.cfi_def_cfa_offset 24
 1206              		@ sp needed
 1207 00b0 BDE8F081 		pop	{r4, r5, r6, r7, r8, pc}
 106:Dubby.cpp     **** 
 1208              		.loc 2 106 1 view .LVU298
 1209              		.cfi_endproc
 1210              	.LFE3723:
 1212              		.section	.text._ZN5daisy5Dubby10DrawBitmapEi,"ax",%progbits
 1213              		.align	1
 1214              		.p2align 2,,3
 1215              		.global	_ZN5daisy5Dubby10DrawBitmapEi
 1216              		.syntax unified
 1217              		.thumb
 1218              		.thumb_func
 1220              	_ZN5daisy5Dubby10DrawBitmapEi:
 1221              	.LVL102:
 1222              	.LFB3736:
ARM GAS  /var/folders/1y/_321xjh9623c014x9_qw12rr0000gn/T//ccE17DNe.s 			page 65


 162:Dubby.cpp     ****     display.Fill(false);
 1223              		.loc 2 162 1 is_stmt 1 view -0
 1224              		.cfi_startproc
 1225              		@ args = 0, pretend = 0, frame = 24
 1226              		@ frame_needed = 0, uses_anonymous_args = 0
 162:Dubby.cpp     ****     display.Fill(false);
 1227              		.loc 2 162 1 is_stmt 0 view .LVU300
 1228 0000 0B46     		mov	r3, r1
 1229              	.LBB449:
 1230              	.LBB450:
 1231              	.LBB451:
 366:../../libDaisy//src/dev/oled_ssd130x.h ****         }
 1232              		.loc 4 366 24 view .LVU301
 1233 0002 0021     		movs	r1, #0
 1234              	.LVL103:
 366:../../libDaisy//src/dev/oled_ssd130x.h ****         }
 1235              		.loc 4 366 24 view .LVU302
 1236 0004 4FF48062 		mov	r2, #1024
 1237 0008 9B02     		lsls	r3, r3, #10
 1238              	.LVL104:
 366:../../libDaisy//src/dev/oled_ssd130x.h ****         }
 1239              		.loc 4 366 24 view .LVU303
 1240              	.LBE451:
 1241              	.LBE450:
 1242              	.LBE449:
 162:Dubby.cpp     ****     display.Fill(false);
 1243              		.loc 2 162 1 view .LVU304
 1244 000a 2DE9F04F 		push	{r4, r5, r6, r7, r8, r9, r10, fp, lr}
 1245              		.cfi_def_cfa_offset 36
 1246              		.cfi_offset 4, -36
 1247              		.cfi_offset 5, -32
 1248              		.cfi_offset 6, -28
 1249              		.cfi_offset 7, -24
 1250              		.cfi_offset 8, -20
 1251              		.cfi_offset 9, -16
 1252              		.cfi_offset 10, -12
 1253              		.cfi_offset 11, -8
 1254              		.cfi_offset 14, -4
 1255 000e 8246     		mov	r10, r0
 163:Dubby.cpp     ****     display.SetCursor(30, 30);
 1256              		.loc 2 163 5 is_stmt 1 view .LVU305
 1257              	.LVL105:
 1258              	.LBB456:
 1259              	.LBI449:
  34:../../libDaisy//src/hid/disp/oled_display.h **** 
 1260              		.loc 1 34 10 view .LVU306
 1261              	.LBB454:
 1262              	.LBI450:
 362:../../libDaisy//src/dev/oled_ssd130x.h ****     {
 1263              		.loc 4 362 10 view .LVU307
 1264              	.LBB452:
 364:../../libDaisy//src/dev/oled_ssd130x.h ****         {
 1265              		.loc 4 364 29 view .LVU308
 1266              	.LBE452:
 1267              	.LBE454:
 1268              	.LBE456:
 162:Dubby.cpp     ****     display.Fill(false);
ARM GAS  /var/folders/1y/_321xjh9623c014x9_qw12rr0000gn/T//ccE17DNe.s 			page 66


 1269              		.loc 2 162 1 is_stmt 0 view .LVU309
 1270 0010 87B0     		sub	sp, sp, #28
 1271              		.cfi_def_cfa_offset 64
 1272 0012 00F2BC40 		addw	r0, r0, #1212
 1273              	.LVL106:
 1274              	.LBB457:
 166:Dubby.cpp     ****         for (int y = 0; y < OLED_HEIGHT; y++) {
 1275              		.loc 2 166 14 view .LVU310
 1276 0016 8B46     		mov	fp, r1
 1277 0018 0293     		str	r3, [sp, #8]
 1278 001a 0390     		str	r0, [sp, #12]
 1279              	.LBE457:
 1280              	.LBB527:
 1281              	.LBB455:
 1282              	.LBB453:
 366:../../libDaisy//src/dev/oled_ssd130x.h ****         }
 1283              		.loc 4 366 24 view .LVU311
 1284 001c FFF7FEFF 		bl	memset
 1285              	.LVL107:
 366:../../libDaisy//src/dev/oled_ssd130x.h ****         }
 1286              		.loc 4 366 24 view .LVU312
 1287              	.LBE453:
 1288              	.LBE455:
 1289              	.LBE527:
 164:Dubby.cpp     ****     
 1290              		.loc 2 164 5 is_stmt 1 view .LVU313
 1291              	.LBB528:
 1292              	.LBI528:
 171:../../libDaisy//src/hid/disp/display.h ****     {
 1293              		.loc 3 171 10 view .LVU314
 1294              	.LBB529:
 173:../../libDaisy//src/hid/disp/display.h ****         currentY_ = (y >= Height()) ? Height() - 1 : y;
 1295              		.loc 3 173 9 view .LVU315
 174:../../libDaisy//src/hid/disp/display.h ****     }
 1296              		.loc 3 174 9 view .LVU316
 173:../../libDaisy//src/hid/disp/display.h ****         currentY_ = (y >= Height()) ? Height() - 1 : y;
 1297              		.loc 3 173 19 is_stmt 0 view .LVU317
 1298 0020 4FF01E13 		mov	r3, #1966110
 1299 0024 CAF8AC34 		str	r3, [r10, #1196]
 1300              	.LVL108:
 173:../../libDaisy//src/hid/disp/display.h ****         currentY_ = (y >= Height()) ? Height() - 1 : y;
 1301              		.loc 3 173 19 view .LVU318
 1302              	.LBE529:
 1303              	.LBE528:
 1304              	.LBB530:
 166:Dubby.cpp     ****         for (int y = 0; y < OLED_HEIGHT; y++) {
 1305              		.loc 2 166 23 is_stmt 1 view .LVU319
 1306              	.L71:
 1307              	.LBB458:
 167:Dubby.cpp     ****             // Calculate the index in the array
 1308              		.loc 2 167 27 view .LVU320
 1309 0028 0BF2BC43 		addw	r3, fp, #1212
 167:Dubby.cpp     ****             // Calculate the index in the array
 1310              		.loc 2 167 18 is_stmt 0 view .LVU321
 1311 002c 4FF00009 		mov	r9, #0
 1312 0030 0193     		str	r3, [sp, #4]
 1313              	.LVL109:
ARM GAS  /var/folders/1y/_321xjh9623c014x9_qw12rr0000gn/T//ccE17DNe.s 			page 67


 1314              	.L68:
 1315              	.LBB459:
 169:Dubby.cpp     **** 
 1316              		.loc 2 169 13 is_stmt 1 view .LVU322
 172:Dubby.cpp     **** 
 1317              		.loc 2 172 13 view .LVU323
 175:Dubby.cpp     **** 
 1318              		.loc 2 175 13 view .LVU324
 1319              	.LBB460:
 175:Dubby.cpp     **** 
 1320              		.loc 2 175 45 view .LVU325
 1321              	.LBB461:
 1322              	.LBB462:
 1323              	.LBB463:
 1324              	.LBB464:
 1325              	.LBB465:
 1326              	.LBB466:
 359:../../libDaisy//src/dev/oled_ssd130x.h ****     }
 1327              		.loc 4 359 55 is_stmt 0 view .LVU326
 1328 0032 09F00702 		and	r2, r9, #7
 1329              	.LBE466:
 1330              	.LBE465:
 1331              	.LBE464:
 1332              	.LBE463:
 1333              	.LBE462:
 1334              	.LBE461:
 1335              	.LBE460:
 172:Dubby.cpp     **** 
 1336              		.loc 2 172 18 view .LVU327
 1337 0036 3B48     		ldr	r0, .L78
 1338              	.LBB500:
 1339              	.LBB496:
 1340              	.LBB490:
 1341              	.LBB484:
 1342              	.LBB478:
 1343              	.LBB472:
 1344              	.LBB467:
 359:../../libDaisy//src/dev/oled_ssd130x.h ****     }
 1345              		.loc 4 359 49 view .LVU328
 1346 0038 0124     		movs	r4, #1
 1347              	.LBE467:
 1348              	.LBE472:
 1349              	.LBE478:
 1350              	.LBE484:
 1351              	.LBE490:
 1352              	.LBE496:
 1353              	.LBE500:
 169:Dubby.cpp     **** 
 1354              		.loc 2 169 17 view .LVU329
 1355 003a 0BEBC911 		add	r1, fp, r9, lsl #7
 1356              	.LBB501:
 1357              	.LBB497:
 1358              	.LBB491:
 1359              	.LBB485:
 1360              	.LBB479:
 1361              	.LBB473:
 1362              	.LBB468:
ARM GAS  /var/folders/1y/_321xjh9623c014x9_qw12rr0000gn/T//ccE17DNe.s 			page 68


 359:../../libDaisy//src/dev/oled_ssd130x.h ****     }
 1363              		.loc 4 359 28 view .LVU330
 1364 003e 4FEAD903 		lsr	r3, r9, #3
 359:../../libDaisy//src/dev/oled_ssd130x.h ****     }
 1365              		.loc 4 359 49 view .LVU331
 1366 0042 9440     		lsls	r4, r4, r2
 1367              	.LBE468:
 1368              	.LBE473:
 1369              	.LBE479:
 1370              	.LBE485:
 1371              	.LBE491:
 1372              	.LBE497:
 1373              	.LBE501:
 172:Dubby.cpp     **** 
 1374              		.loc 2 172 18 view .LVU332
 1375 0044 00EBE101 		add	r1, r0, r1, asr #3
 1376 0048 0198     		ldr	r0, [sp, #4]
 1377              	.LBB502:
 1378              	.LBB498:
 178:Dubby.cpp     **** 
 1379              		.loc 2 178 31 view .LVU333
 1380 004a 0722     		movs	r2, #7
 1381              	.LBB492:
 1382              	.LBB486:
 1383              	.LBB480:
 1384              	.LBB474:
 1385              	.LBB469:
 359:../../libDaisy//src/dev/oled_ssd130x.h ****     }
 1386              		.loc 4 359 42 view .LVU334
 1387 004c 64B2     		sxtb	r4, r4
 1388 004e 00EBC313 		add	r3, r0, r3, lsl #7
 1389              	.LBE469:
 1390              	.LBE474:
 1391              	.LBE480:
 1392              	.LBE486:
 1393              	.LBE492:
 178:Dubby.cpp     **** 
 1394              		.loc 2 178 31 view .LVU335
 1395 0052 0298     		ldr	r0, [sp, #8]
 1396              	.LBB493:
 1397              	.LBB487:
 1398              	.LBB481:
 1399              	.LBB475:
 1400              	.LBB470:
 359:../../libDaisy//src/dev/oled_ssd130x.h ****     }
 1401              		.loc 4 359 42 view .LVU336
 1402 0054 E543     		mvns	r5, r4
 1403              	.LBE470:
 1404              	.LBE475:
 1405              	.LBE481:
 1406              	.LBE487:
 1407              	.LBE493:
 178:Dubby.cpp     **** 
 1408              		.loc 2 178 31 view .LVU337
 1409 0056 085C     		ldrb	r0, [r1, r0]	@ zero_extendqisi2
 1410 0058 5344     		add	r3, r3, r10
 1411              	.LVL110:
ARM GAS  /var/folders/1y/_321xjh9623c014x9_qw12rr0000gn/T//ccE17DNe.s 			page 69


 1412              	.L65:
 178:Dubby.cpp     **** 
 1413              		.loc 2 178 17 is_stmt 1 discriminator 2 view .LVU338
 180:Dubby.cpp     **** 
 1414              		.loc 2 180 17 discriminator 2 view .LVU339
 182:Dubby.cpp     ****             }
 1415              		.loc 2 182 17 discriminator 2 view .LVU340
 1416              	.LBB494:
 1417              	.LBI462:
 1418              		.loc 1 42 10 discriminator 2 view .LVU341
 1419              	.LBB488:
 1420              	.LBI463:
 352:../../libDaisy//src/dev/oled_ssd130x.h ****     {
 1421              		.loc 4 352 10 discriminator 2 view .LVU342
 1422              	.LBB482:
 1423              	.LBB476:
 1424              	.LBI465:
 352:../../libDaisy//src/dev/oled_ssd130x.h ****     {
 1425              		.loc 4 352 10 discriminator 2 view .LVU343
 352:../../libDaisy//src/dev/oled_ssd130x.h ****     {
 1426              		.loc 4 352 10 is_stmt 0 discriminator 2 view .LVU344
 1427              	.LBE476:
 1428              	.LBE482:
 1429              	.LBE488:
 1430              	.LBE494:
 178:Dubby.cpp     **** 
 1431              		.loc 2 178 36 discriminator 2 view .LVU345
 1432 005a 40FA02F1 		asr	r1, r0, r2
 1433              	.LBE498:
 175:Dubby.cpp     **** 
 1434              		.loc 2 175 45 discriminator 2 view .LVU346
 1435 005e 013A     		subs	r2, r2, #1
 1436 0060 0133     		adds	r3, r3, #1
 1437              	.LBB499:
 1438              	.LBB495:
 1439              	.LBB489:
 1440              	.LBB483:
 356:../../libDaisy//src/dev/oled_ssd130x.h ****             buffer_[x + (y / 8) * width] |= (1 << (y % 8));
 1441              		.loc 4 356 9 discriminator 2 view .LVU347
 1442 0062 11F0010F 		tst	r1, #1
 357:../../libDaisy//src/dev/oled_ssd130x.h ****         else
 1443              		.loc 4 357 42 discriminator 2 view .LVU348
 1444 0066 13F8011C 		ldrb	r1, [r3, #-1]	@ zero_extendqisi2
 1445 006a 14BF     		ite	ne
 1446 006c 2143     		orrne	r1, r1, r4
 1447              	.LBB477:
 1448              	.LBB471:
 359:../../libDaisy//src/dev/oled_ssd130x.h ****     }
 1449              		.loc 4 359 42 discriminator 2 view .LVU349
 1450 006e 2940     		andeq	r1, r1, r5
 1451 0070 03F8011C 		strb	r1, [r3, #-1]
 1452              	.LVL111:
 359:../../libDaisy//src/dev/oled_ssd130x.h ****     }
 1453              		.loc 4 359 42 discriminator 2 view .LVU350
 1454              	.LBE471:
 1455              	.LBE477:
 1456              	.LBE483:
ARM GAS  /var/folders/1y/_321xjh9623c014x9_qw12rr0000gn/T//ccE17DNe.s 			page 70


 1457              	.LBE489:
 1458              	.LBE495:
 1459              	.LBE499:
 175:Dubby.cpp     **** 
 1460              		.loc 2 175 13 is_stmt 1 discriminator 2 view .LVU351
 175:Dubby.cpp     **** 
 1461              		.loc 2 175 45 discriminator 2 view .LVU352
 1462 0074 511C     		adds	r1, r2, #1
 1463 0076 F0D1     		bne	.L65
 1464              	.LBE502:
 185:Dubby.cpp     ****         }
 1465              		.loc 2 185 13 view .LVU353
 1466              	.LBB503:
 1467 0078 2B4B     		ldr	r3, .L78+4
 1468              	.LBE503:
 1469 007a 2C4A     		ldr	r2, .L78+8
 1470              	.LBB504:
 1471 007c 03FB09F3 		mul	r3, r3, r9
 1472              	.LBE504:
 1473 0080 B2EB730F 		cmp	r2, r3, ror #1
 1474 0084 0CD2     		bcs	.L66
 1475              	.L69:
 185:Dubby.cpp     ****         }
 1476              		.loc 2 185 13 is_stmt 0 view .LVU354
 1477              	.LBE459:
 167:Dubby.cpp     ****             // Calculate the index in the array
 1478              		.loc 2 167 9 is_stmt 1 view .LVU355
 1479 0086 09F10109 		add	r9, r9, #1
 1480              	.LVL112:
 167:Dubby.cpp     ****             // Calculate the index in the array
 1481              		.loc 2 167 27 view .LVU356
 1482 008a B9F1400F 		cmp	r9, #64
 1483 008e D0D1     		bne	.L68
 1484              	.LBE458:
 166:Dubby.cpp     ****         for (int y = 0; y < OLED_HEIGHT; y++) {
 1485              		.loc 2 166 5 discriminator 2 view .LVU357
 166:Dubby.cpp     ****         for (int y = 0; y < OLED_HEIGHT; y++) {
 1486              		.loc 2 166 39 is_stmt 0 discriminator 2 view .LVU358
 1487 0090 0BF1080B 		add	fp, fp, #8
 1488              	.LVL113:
 166:Dubby.cpp     ****         for (int y = 0; y < OLED_HEIGHT; y++) {
 1489              		.loc 2 166 23 is_stmt 1 discriminator 2 view .LVU359
 1490 0094 BBF1800F 		cmp	fp, #128
 1491 0098 C6D1     		bne	.L71
 1492              	.LBE530:
 188:Dubby.cpp     **** 
 1493              		.loc 2 188 1 is_stmt 0 view .LVU360
 1494 009a 07B0     		add	sp, sp, #28
 1495              		.cfi_remember_state
 1496              		.cfi_def_cfa_offset 36
 1497              		@ sp needed
 1498 009c BDE8F08F 		pop	{r4, r5, r6, r7, r8, r9, r10, fp, pc}
 1499              	.LVL114:
 1500              	.L66:
 1501              		.cfi_restore_state
 1502              	.LBB531:
 1503              	.LBB526:
ARM GAS  /var/folders/1y/_321xjh9623c014x9_qw12rr0000gn/T//ccE17DNe.s 			page 71


 1504              	.LBB525:
 1505              	.LBB505:
 1506              	.LBB506:
 1507              	.LBB507:
 1508              	.LBB508:
 1509              	.LBB509:
 124:../../libDaisy//src/dev/oled_ssd130x.h ****         spi_.BlockingTransmit(&cmd, 1);
 1510              		.loc 4 124 24 view .LVU361
 1511 00a0 0AF59666 		add	r6, r10, #1200
 1512 00a4 0AF59765 		add	r5, r10, #1208
 1513 00a8 DDF80C80 		ldr	r8, [sp, #12]
 125:../../libDaisy//src/dev/oled_ssd130x.h ****     };
 1514              		.loc 4 125 30 view .LVU362
 1515 00ac B024     		movs	r4, #176
 1516              	.L70:
 1517              	.LVL115:
 124:../../libDaisy//src/dev/oled_ssd130x.h ****         spi_.BlockingTransmit(&cmd, 1);
 1518              		.loc 4 124 23 view .LVU363
 1519 00ae 0021     		movs	r1, #0
 1520 00b0 2846     		mov	r0, r5
 1521 00b2 8DF81740 		strb	r4, [sp, #23]
 1522              	.LVL116:
 124:../../libDaisy//src/dev/oled_ssd130x.h ****         spi_.BlockingTransmit(&cmd, 1);
 1523              		.loc 4 124 23 view .LVU364
 1524              	.LBE509:
 1525              	.LBI508:
 122:../../libDaisy//src/dev/oled_ssd130x.h ****     {
 1526              		.loc 4 122 10 is_stmt 1 view .LVU365
 1527              	.LBB510:
 124:../../libDaisy//src/dev/oled_ssd130x.h ****         spi_.BlockingTransmit(&cmd, 1);
 1528              		.loc 4 124 9 view .LVU366
 1529              	.LBE510:
 1530              	.LBE508:
 1531              		.loc 4 383 22 is_stmt 0 view .LVU367
 1532 00b6 0134     		adds	r4, r4, #1
 1533              	.LVL117:
 1534              		.loc 4 383 22 view .LVU368
 1535 00b8 0F46     		mov	r7, r1
 1536              	.LBB512:
 1537              	.LBB511:
 124:../../libDaisy//src/dev/oled_ssd130x.h ****         spi_.BlockingTransmit(&cmd, 1);
 1538              		.loc 4 124 23 view .LVU369
 1539 00ba FFF7FEFF 		bl	dsy_gpio_write
 1540              	.LVL118:
 125:../../libDaisy//src/dev/oled_ssd130x.h ****     };
 1541              		.loc 4 125 9 is_stmt 1 view .LVU370
 125:../../libDaisy//src/dev/oled_ssd130x.h ****     };
 1542              		.loc 4 125 30 is_stmt 0 view .LVU371
 1543 00be 6423     		movs	r3, #100
 1544 00c0 0122     		movs	r2, #1
 1545 00c2 0DF11701 		add	r1, sp, #23
 1546 00c6 3046     		mov	r0, r6
 1547 00c8 FFF7FEFF 		bl	_ZN5daisy9SpiHandle16BlockingTransmitEPhjm
 1548              	.LVL119:
 125:../../libDaisy//src/dev/oled_ssd130x.h ****     };
 1549              		.loc 4 125 30 view .LVU372
 1550              	.LBE511:
ARM GAS  /var/folders/1y/_321xjh9623c014x9_qw12rr0000gn/T//ccE17DNe.s 			page 72


 1551              	.LBE512:
 1552              	.LBB513:
 1553              	.LBB514:
 124:../../libDaisy//src/dev/oled_ssd130x.h ****         spi_.BlockingTransmit(&cmd, 1);
 1554              		.loc 4 124 23 view .LVU373
 1555 00cc 3946     		mov	r1, r7
 1556 00ce 2846     		mov	r0, r5
 1557 00d0 8DF81770 		strb	r7, [sp, #23]
 1558              	.LVL120:
 124:../../libDaisy//src/dev/oled_ssd130x.h ****         spi_.BlockingTransmit(&cmd, 1);
 1559              		.loc 4 124 23 view .LVU374
 1560              	.LBE514:
 1561              	.LBI513:
 122:../../libDaisy//src/dev/oled_ssd130x.h ****     {
 1562              		.loc 4 122 10 is_stmt 1 view .LVU375
 1563              	.LBB515:
 124:../../libDaisy//src/dev/oled_ssd130x.h ****         spi_.BlockingTransmit(&cmd, 1);
 1564              		.loc 4 124 9 view .LVU376
 124:../../libDaisy//src/dev/oled_ssd130x.h ****         spi_.BlockingTransmit(&cmd, 1);
 1565              		.loc 4 124 23 is_stmt 0 view .LVU377
 1566 00d4 FFF7FEFF 		bl	dsy_gpio_write
 1567              	.LVL121:
 125:../../libDaisy//src/dev/oled_ssd130x.h ****     };
 1568              		.loc 4 125 9 is_stmt 1 view .LVU378
 125:../../libDaisy//src/dev/oled_ssd130x.h ****     };
 1569              		.loc 4 125 30 is_stmt 0 view .LVU379
 1570 00d8 0122     		movs	r2, #1
 1571 00da 6423     		movs	r3, #100
 1572 00dc 0DF11701 		add	r1, sp, #23
 1573 00e0 3046     		mov	r0, r6
 1574              	.LBE515:
 1575              	.LBE513:
 1576              		.loc 4 383 22 view .LVU380
 1577 00e2 E4B2     		uxtb	r4, r4
 1578              	.LBB517:
 1579              	.LBB516:
 125:../../libDaisy//src/dev/oled_ssd130x.h ****     };
 1580              		.loc 4 125 30 view .LVU381
 1581 00e4 FFF7FEFF 		bl	_ZN5daisy9SpiHandle16BlockingTransmitEPhjm
 1582              	.LVL122:
 125:../../libDaisy//src/dev/oled_ssd130x.h ****     };
 1583              		.loc 4 125 30 view .LVU382
 1584 00e8 1023     		movs	r3, #16
 1585              	.LBE516:
 1586              	.LBE517:
 1587              	.LBB518:
 1588              	.LBB519:
 124:../../libDaisy//src/dev/oled_ssd130x.h ****         spi_.BlockingTransmit(&cmd, 1);
 1589              		.loc 4 124 23 view .LVU383
 1590 00ea 3946     		mov	r1, r7
 1591 00ec 2846     		mov	r0, r5
 1592 00ee 8DF81730 		strb	r3, [sp, #23]
 1593              	.LVL123:
 124:../../libDaisy//src/dev/oled_ssd130x.h ****         spi_.BlockingTransmit(&cmd, 1);
 1594              		.loc 4 124 23 view .LVU384
 1595              	.LBE519:
 1596              	.LBI518:
ARM GAS  /var/folders/1y/_321xjh9623c014x9_qw12rr0000gn/T//ccE17DNe.s 			page 73


 122:../../libDaisy//src/dev/oled_ssd130x.h ****     {
 1597              		.loc 4 122 10 is_stmt 1 view .LVU385
 1598              	.LBB520:
 124:../../libDaisy//src/dev/oled_ssd130x.h ****         spi_.BlockingTransmit(&cmd, 1);
 1599              		.loc 4 124 9 view .LVU386
 124:../../libDaisy//src/dev/oled_ssd130x.h ****         spi_.BlockingTransmit(&cmd, 1);
 1600              		.loc 4 124 23 is_stmt 0 view .LVU387
 1601 00f2 FFF7FEFF 		bl	dsy_gpio_write
 1602              	.LVL124:
 125:../../libDaisy//src/dev/oled_ssd130x.h ****     };
 1603              		.loc 4 125 9 is_stmt 1 view .LVU388
 125:../../libDaisy//src/dev/oled_ssd130x.h ****     };
 1604              		.loc 4 125 30 is_stmt 0 view .LVU389
 1605 00f6 6423     		movs	r3, #100
 1606 00f8 0122     		movs	r2, #1
 1607 00fa 0DF11701 		add	r1, sp, #23
 1608 00fe 3046     		mov	r0, r6
 1609 0100 FFF7FEFF 		bl	_ZN5daisy9SpiHandle16BlockingTransmitEPhjm
 1610              	.LVL125:
 125:../../libDaisy//src/dev/oled_ssd130x.h ****     };
 1611              		.loc 4 125 30 view .LVU390
 1612              	.LBE520:
 1613              	.LBE518:
 1614              	.LBB521:
 1615              	.LBI521:
 128:../../libDaisy//src/dev/oled_ssd130x.h ****     {
 1616              		.loc 4 128 10 is_stmt 1 view .LVU391
 1617              	.LBB522:
 130:../../libDaisy//src/dev/oled_ssd130x.h ****         spi_.BlockingTransmit(buff, size);
 1618              		.loc 4 130 9 view .LVU392
 130:../../libDaisy//src/dev/oled_ssd130x.h ****         spi_.BlockingTransmit(buff, size);
 1619              		.loc 4 130 23 is_stmt 0 view .LVU393
 1620 0104 0121     		movs	r1, #1
 1621 0106 2846     		mov	r0, r5
 1622 0108 FFF7FEFF 		bl	dsy_gpio_write
 1623              	.LVL126:
 131:../../libDaisy//src/dev/oled_ssd130x.h ****     };
 1624              		.loc 4 131 9 is_stmt 1 view .LVU394
 131:../../libDaisy//src/dev/oled_ssd130x.h ****     };
 1625              		.loc 4 131 30 is_stmt 0 view .LVU395
 1626 010c 4146     		mov	r1, r8
 1627 010e 6423     		movs	r3, #100
 1628 0110 8022     		movs	r2, #128
 1629 0112 3046     		mov	r0, r6
 1630              	.LBE522:
 1631              	.LBE521:
 1632              		.loc 4 383 22 view .LVU396
 1633 0114 08F18008 		add	r8, r8, #128
 1634              	.LVL127:
 1635              	.LBB524:
 1636              	.LBB523:
 131:../../libDaisy//src/dev/oled_ssd130x.h ****     };
 1637              		.loc 4 131 30 view .LVU397
 1638 0118 FFF7FEFF 		bl	_ZN5daisy9SpiHandle16BlockingTransmitEPhjm
 1639              	.LVL128:
 131:../../libDaisy//src/dev/oled_ssd130x.h ****     };
 1640              		.loc 4 131 30 view .LVU398
ARM GAS  /var/folders/1y/_321xjh9623c014x9_qw12rr0000gn/T//ccE17DNe.s 			page 74


 1641              	.LBE523:
 1642              	.LBE524:
 1643              		.loc 4 383 9 is_stmt 1 view .LVU399
 1644              		.loc 4 383 22 view .LVU400
 1645 011c B82C     		cmp	r4, #184
 1646 011e C6D1     		bne	.L70
 1647 0120 B1E7     		b	.L69
 1648              	.L79:
 1649 0122 00BF     		.align	2
 1650              	.L78:
 1651 0124 00000000 		.word	.LANCHOR0
 1652 0128 ABAAAAAA 		.word	-1431655765
 1653 012c AAAAAA2A 		.word	715827882
 1654              	.LBE507:
 1655              	.LBE506:
 1656              	.LBE505:
 1657              	.LBE525:
 1658              	.LBE526:
 1659              	.LBE531:
 1660              		.cfi_endproc
 1661              	.LFE3736:
 1663              		.section	.text._ZN5daisy5Dubby8DrawLogoEv,"ax",%progbits
 1664              		.align	1
 1665              		.p2align 2,,3
 1666              		.global	_ZN5daisy5Dubby8DrawLogoEv
 1667              		.syntax unified
 1668              		.thumb
 1669              		.thumb_func
 1671              	_ZN5daisy5Dubby8DrawLogoEv:
 1672              	.LVL129:
 1673              	.LFB3735:
 157:Dubby.cpp     ****     DrawBitmap(0);   
 1674              		.loc 2 157 1 view -0
 1675              		.cfi_startproc
 1676              		@ args = 0, pretend = 0, frame = 0
 1677              		@ frame_needed = 0, uses_anonymous_args = 0
 1678              		@ link register save eliminated.
 158:Dubby.cpp     **** }
 1679              		.loc 2 158 5 view .LVU402
 158:Dubby.cpp     **** }
 1680              		.loc 2 158 15 is_stmt 0 view .LVU403
 1681 0000 0021     		movs	r1, #0
 1682 0002 FFF7FEBF 		b	_ZN5daisy5Dubby10DrawBitmapEi
 1683              	.LVL130:
 158:Dubby.cpp     **** }
 1684              		.loc 2 158 15 view .LVU404
 1685              		.cfi_endproc
 1686              	.LFE3735:
 1688 0006 00BF     		.section	.text._ZN5daisy5Dubby9UpdateBarEi,"ax",%progbits
 1689              		.align	1
 1690              		.p2align 2,,3
 1691              		.global	_ZN5daisy5Dubby9UpdateBarEi
 1692              		.syntax unified
 1693              		.thumb
 1694              		.thumb_func
 1696              	_ZN5daisy5Dubby9UpdateBarEi:
 1697              	.LVL131:
ARM GAS  /var/folders/1y/_321xjh9623c014x9_qw12rr0000gn/T//ccE17DNe.s 			page 75


 1698              	.LFB3742:
 274:Dubby.cpp     ****     display.DrawRect((i * 32)  + margin, 1, ((i + 1) * 31) - margin, 51, false, true);
 1699              		.loc 2 274 1 is_stmt 1 view -0
 1700              		.cfi_startproc
 1701              		@ args = 0, pretend = 0, frame = 48
 1702              		@ frame_needed = 0, uses_anonymous_args = 0
 275:Dubby.cpp     ****     display.DrawRect((i * 32)  + margin, int(abs(1.0f - GetKnobValue(static_cast<Dubby::Ctrl>(i))) 
 1703              		.loc 2 275 5 view .LVU406
 274:Dubby.cpp     ****     display.DrawRect((i * 32)  + margin, 1, ((i + 1) * 31) - margin, 51, false, true);
 1704              		.loc 2 274 1 is_stmt 0 view .LVU407
 1705 0000 2DE9F04F 		push	{r4, r5, r6, r7, r8, r9, r10, fp, lr}
 1706              		.cfi_def_cfa_offset 36
 1707              		.cfi_offset 4, -36
 1708              		.cfi_offset 5, -32
 1709              		.cfi_offset 6, -28
 1710              		.cfi_offset 7, -24
 1711              		.cfi_offset 8, -20
 1712              		.cfi_offset 9, -16
 1713              		.cfi_offset 10, -12
 1714              		.cfi_offset 11, -8
 1715              		.cfi_offset 14, -4
 275:Dubby.cpp     ****     display.DrawRect((i * 32)  + margin, int(abs(1.0f - GetKnobValue(static_cast<Dubby::Ctrl>(i))) 
 1716              		.loc 2 275 34 view .LVU408
 1717 0004 00F51043 		add	r3, r0, #36864
 274:Dubby.cpp     ****     display.DrawRect((i * 32)  + margin, 1, ((i + 1) * 31) - margin, 51, false, true);
 1718              		.loc 2 274 1 view .LVU409
 1719 0008 8DB0     		sub	sp, sp, #52
 1720              		.cfi_def_cfa_offset 88
 275:Dubby.cpp     ****     display.DrawRect((i * 32)  + margin, int(abs(1.0f - GetKnobValue(static_cast<Dubby::Ctrl>(i))) 
 1721              		.loc 2 275 25 view .LVU410
 1722 000a 4A01     		lsls	r2, r1, #5
 275:Dubby.cpp     ****     display.DrawRect((i * 32)  + margin, int(abs(1.0f - GetKnobValue(static_cast<Dubby::Ctrl>(i))) 
 1723              		.loc 2 275 34 view .LVU411
 1724 000c 0993     		str	r3, [sp, #36]
 275:Dubby.cpp     ****     display.DrawRect((i * 32)  + margin, int(abs(1.0f - GetKnobValue(static_cast<Dubby::Ctrl>(i))) 
 1725              		.loc 2 275 25 view .LVU412
 1726 000e 0692     		str	r2, [sp, #24]
 275:Dubby.cpp     ****     display.DrawRect((i * 32)  + margin, int(abs(1.0f - GetKnobValue(static_cast<Dubby::Ctrl>(i))) 
 1727              		.loc 2 275 34 view .LVU413
 1728 0010 D3F8202A 		ldr	r2, [r3, #2592]
 275:Dubby.cpp     ****     display.DrawRect((i * 32)  + margin, int(abs(1.0f - GetKnobValue(static_cast<Dubby::Ctrl>(i))) 
 1729              		.loc 2 275 49 view .LVU414
 1730 0014 4B1C     		adds	r3, r1, #1
 274:Dubby.cpp     ****     display.DrawRect((i * 32)  + margin, 1, ((i + 1) * 31) - margin, 51, false, true);
 1731              		.loc 2 274 1 view .LVU415
 1732 0016 0391     		str	r1, [sp, #12]
 275:Dubby.cpp     ****     display.DrawRect((i * 32)  + margin, int(abs(1.0f - GetKnobValue(static_cast<Dubby::Ctrl>(i))) 
 1733              		.loc 2 275 54 view .LVU416
 1734 0018 C3EB4313 		rsb	r3, r3, r3, lsl #5
 275:Dubby.cpp     ****     display.DrawRect((i * 32)  + margin, int(abs(1.0f - GetKnobValue(static_cast<Dubby::Ctrl>(i))) 
 1735              		.loc 2 275 32 view .LVU417
 1736 001c 02EB4115 		add	r5, r2, r1, lsl #5
 275:Dubby.cpp     ****     display.DrawRect((i * 32)  + margin, int(abs(1.0f - GetKnobValue(static_cast<Dubby::Ctrl>(i))) 
 1737              		.loc 2 275 60 view .LVU418
 1738 0020 9A1A     		subs	r2, r3, r2
 275:Dubby.cpp     ****     display.DrawRect((i * 32)  + margin, int(abs(1.0f - GetKnobValue(static_cast<Dubby::Ctrl>(i))) 
 1739              		.loc 2 275 54 view .LVU419
ARM GAS  /var/folders/1y/_321xjh9623c014x9_qw12rr0000gn/T//ccE17DNe.s 			page 76


 1740 0022 0793     		str	r3, [sp, #28]
 1741              	.LBB646:
 1742              	.LBB647:
 1743              	.LBB648:
 266:../../libDaisy//src/hid/disp/display.h ****             {
 1744              		.loc 3 266 40 view .LVU420
 1745 0024 9542     		cmp	r5, r2
 1746              	.LBE648:
 1747              	.LBE647:
 1748              	.LBE646:
 275:Dubby.cpp     ****     display.DrawRect((i * 32)  + margin, int(abs(1.0f - GetKnobValue(static_cast<Dubby::Ctrl>(i))) 
 1749              		.loc 2 275 21 view .LVU421
 1750 0026 9446     		mov	ip, r2
 1751              	.LVL132:
 1752              	.LBB665:
 1753              	.LBI646:
 257:../../libDaisy//src/hid/disp/display.h ****                   uint_fast8_t y1,
 1754              		.loc 3 257 10 is_stmt 1 view .LVU422
 1755              	.LBB664:
 1756              	.LBI647:
 257:../../libDaisy//src/hid/disp/display.h ****                   uint_fast8_t y1,
 1757              		.loc 3 257 10 view .LVU423
 1758              	.LBB663:
 266:../../libDaisy//src/hid/disp/display.h ****             {
 1759              		.loc 3 266 40 view .LVU424
 1760 0028 18D8     		bhi	.L87
 1761 002a 2E46     		mov	r6, r5
 1762              	.LVL133:
 1763              	.L82:
 1764              	.LBB649:
 1765              		.loc 3 268 34 is_stmt 0 view .LVU425
 1766 002c 0121     		movs	r1, #1
 1767              	.L86:
 1768              	.LVL134:
 1769              	.LBB650:
 1770              	.LBI650:
 1771              		.loc 1 42 10 is_stmt 1 view .LVU426
 1772              	.LBB651:
 1773              	.LBI651:
 352:../../libDaisy//src/dev/oled_ssd130x.h ****     {
 1774              		.loc 4 352 10 view .LVU427
 1775              	.LBB652:
 1776              	.LBB653:
 1777              	.LBI653:
 352:../../libDaisy//src/dev/oled_ssd130x.h ****     {
 1778              		.loc 4 352 10 view .LVU428
 352:../../libDaisy//src/dev/oled_ssd130x.h ****     {
 1779              		.loc 4 352 10 is_stmt 0 view .LVU429
 1780              	.LBE653:
 1781              	.LBE652:
 1782              	.LBE651:
 1783              	.LBE650:
 1784              		.loc 3 268 17 is_stmt 1 view .LVU430
 1785              		.loc 3 268 44 view .LVU431
 1786              	.LBB662:
 1787              	.LBB661:
 1788              	.LBB660:
ARM GAS  /var/folders/1y/_321xjh9623c014x9_qw12rr0000gn/T//ccE17DNe.s 			page 77


 1789              	.LBB657:
 1790              	.LBB654:
 359:../../libDaisy//src/dev/oled_ssd130x.h ****     }
 1791              		.loc 4 359 28 is_stmt 0 view .LVU432
 1792 002e CB08     		lsrs	r3, r1, #3
 359:../../libDaisy//src/dev/oled_ssd130x.h ****     }
 1793              		.loc 4 359 55 view .LVU433
 1794 0030 01F00707 		and	r7, r1, #7
 359:../../libDaisy//src/dev/oled_ssd130x.h ****     }
 1795              		.loc 4 359 49 view .LVU434
 1796 0034 0124     		movs	r4, #1
 1797              	.LBE654:
 1798              	.LBE657:
 354:../../libDaisy//src/dev/oled_ssd130x.h ****             return;
 1799              		.loc 4 354 9 view .LVU435
 1800 0036 7F2E     		cmp	r6, #127
 1801              	.LBB658:
 1802              	.LBB655:
 359:../../libDaisy//src/dev/oled_ssd130x.h ****     }
 1803              		.loc 4 359 42 view .LVU436
 1804 0038 06EBC313 		add	r3, r6, r3, lsl #7
 1805 003c 2144     		add	r1, r1, r4
 1806              	.LVL135:
 359:../../libDaisy//src/dev/oled_ssd130x.h ****     }
 1807              		.loc 4 359 49 view .LVU437
 1808 003e 04FA07F4 		lsl	r4, r4, r7
 359:../../libDaisy//src/dev/oled_ssd130x.h ****     }
 1809              		.loc 4 359 42 view .LVU438
 1810 0042 0344     		add	r3, r3, r0
 1811              	.LBE655:
 1812              	.LBE658:
 354:../../libDaisy//src/dev/oled_ssd130x.h ****             return;
 1813              		.loc 4 354 9 view .LVU439
 1814 0044 05D8     		bhi	.L85
 1815              	.LBB659:
 1816              	.LBB656:
 359:../../libDaisy//src/dev/oled_ssd130x.h ****     }
 1817              		.loc 4 359 42 view .LVU440
 1818 0046 93F8BC74 		ldrb	r7, [r3, #1212]	@ zero_extendqisi2
 1819 004a 27EA0404 		bic	r4, r7, r4
 1820 004e 83F8BC44 		strb	r4, [r3, #1212]
 1821              	.L85:
 1822              	.LBE656:
 1823              	.LBE659:
 1824              	.LBE660:
 1825              	.LBE661:
 1826              	.LBE662:
 1827              		.loc 3 268 44 view .LVU441
 1828 0052 3429     		cmp	r1, #52
 1829 0054 EBD1     		bne	.L86
 1830              	.LBE649:
 266:../../libDaisy//src/hid/disp/display.h ****             {
 1831              		.loc 3 266 13 is_stmt 1 view .LVU442
 1832 0056 0136     		adds	r6, r6, #1
 1833              	.LVL136:
 266:../../libDaisy//src/hid/disp/display.h ****             {
 1834              		.loc 3 266 40 view .LVU443
ARM GAS  /var/folders/1y/_321xjh9623c014x9_qw12rr0000gn/T//ccE17DNe.s 			page 78


 1835 0058 B242     		cmp	r2, r6
 1836 005a E7D2     		bcs	.L82
 1837              	.LVL137:
 1838              	.L87:
 266:../../libDaisy//src/hid/disp/display.h ****             {
 1839              		.loc 3 266 40 is_stmt 0 view .LVU444
 1840              	.LBE663:
 1841              	.LBE664:
 1842              	.LBE665:
 276:Dubby.cpp     ****     display.DrawRect((i * 32)  + margin, int(abs((currentLevels[i] * 5.0f) - 1.0f) * 51.0f) + 1, ((
 1843              		.loc 2 276 5 is_stmt 1 view .LVU445
 1844              	.LBB666:
 1845              	.LBI666:
 308:Dubby.cpp     **** 
 309:Dubby.cpp     **** void Dubby::DisplayPreferencesMenu()
 310:Dubby.cpp     **** {
 311:Dubby.cpp     ****     display.DrawRect(PANE_X_START, PANE_Y_START, PANE_X_END, PANE_Y_END, false, true);
 312:Dubby.cpp     **** 
 313:Dubby.cpp     ****     for (int i = 0; i < PREFERENCESMENU_LAST; i++)
 314:Dubby.cpp     ****     {
 315:Dubby.cpp     ****         display.SetCursor(5, 3 + (i * 10));
 316:Dubby.cpp     ****         display.WriteString(GetTextForEnum(PREFERENCESMENU, i), Font_6x8, true);
 317:Dubby.cpp     **** 
 318:Dubby.cpp     ****         if (preferencesMenuItemSelected == i)
 319:Dubby.cpp     ****             display.DrawRect(submenuBoxBounding[i][0], submenuBoxBounding[i][1], submenuBoxBounding
 320:Dubby.cpp     ****     }
 321:Dubby.cpp     **** 
 322:Dubby.cpp     ****     display.Update();
 323:Dubby.cpp     **** }
 324:Dubby.cpp     **** 
 325:Dubby.cpp     **** void Dubby::UpdatePreferencesMenu(int increment) 
 326:Dubby.cpp     **** {
 327:Dubby.cpp     ****     if (((preferencesMenuItemSelected >= 0 && increment == 1 && preferencesMenuItemSelected < PREFE
 328:Dubby.cpp     ****     {
 329:Dubby.cpp     ****         preferencesMenuItemSelected = (PreferenesMenuItems)(preferencesMenuItemSelected + increment
 330:Dubby.cpp     ****         
 331:Dubby.cpp     ****         DisplayPreferencesMenu();
 332:Dubby.cpp     ****     }
 333:Dubby.cpp     **** }
 334:Dubby.cpp     **** 
 335:Dubby.cpp     **** void Dubby::ResetToBootloader() 
 336:Dubby.cpp     **** {
 337:Dubby.cpp     ****     DrawBitmap(1);
 338:Dubby.cpp     **** 
 339:Dubby.cpp     ****     display.SetCursor(20, 55);
 340:Dubby.cpp     ****     display.WriteString("FIRMWARE UPDATE", Font_6x8, true);
 341:Dubby.cpp     **** 
 342:Dubby.cpp     ****     display.Update();
 343:Dubby.cpp     **** 
 344:Dubby.cpp     ****     System::ResetToBootloader(System::DAISY_INFINITE_TIMEOUT);
 345:Dubby.cpp     **** }
 346:Dubby.cpp     **** 
 347:Dubby.cpp     **** void Dubby::SwitchMIDIOutThru(bool state) 
 348:Dubby.cpp     **** {
 349:Dubby.cpp     ****     // state == true => PIN IS HIGH => MIDI THRU
 350:Dubby.cpp     ****     // state == false => PIN IS LOW => MIDI OUT
 351:Dubby.cpp     ****     dsy_gpio_write(&midi_sw_output, state); 
ARM GAS  /var/folders/1y/_321xjh9623c014x9_qw12rr0000gn/T//ccE17DNe.s 			page 79


 352:Dubby.cpp     **** }
 353:Dubby.cpp     **** 
 354:Dubby.cpp     **** void Dubby::InitEncoder()
 355:Dubby.cpp     **** {
 356:Dubby.cpp     ****     encoder.Init(seed.GetPin(PIN_ENC_A),
 357:Dubby.cpp     ****                 seed.GetPin(PIN_ENC_B),
 358:Dubby.cpp     ****                 seed.GetPin(PIN_ENC_CLICK));
 359:Dubby.cpp     **** }
 360:Dubby.cpp     **** 
 361:Dubby.cpp     **** void Dubby::ProcessAllControls()
 362:Dubby.cpp     **** {
 363:Dubby.cpp     ****     ProcessAnalogControls();
 364:Dubby.cpp     ****     ProcessDigitalControls();
 365:Dubby.cpp     **** }
 366:Dubby.cpp     **** 
 367:Dubby.cpp     **** void Dubby::ProcessAnalogControls()
 368:Dubby.cpp     **** {
 369:Dubby.cpp     ****     for(size_t i = 0; i < CTRL_LAST; i++)
 370:Dubby.cpp     ****         analogInputs[i].Process();
 371:Dubby.cpp     **** }
 372:Dubby.cpp     **** 
 373:Dubby.cpp     **** void Dubby::ProcessDigitalControls()
 374:Dubby.cpp     **** {
 375:Dubby.cpp     ****     encoder.Debounce();
 376:Dubby.cpp     **** 
 377:Dubby.cpp     ****     for (int i = 0; i < 4; i++) buttons[i].Debounce();
 378:Dubby.cpp     **** }
 379:Dubby.cpp     **** 
 380:Dubby.cpp     **** float Dubby::GetKnobValue(Ctrl k)
 1846              		.loc 2 380 7 view .LVU446
 1847              	.LBE666:
 381:Dubby.cpp     **** {
 382:Dubby.cpp     ****     return (analogInputs[k].Value());
 1848              		.loc 2 382 5 view .LVU447
 1849              	.LBB673:
 1850              	.LBB667:
 1851              	.LBI667:
 1852              		.file 9 "../../libDaisy//src/hid/ctrl.h"
   1:../../libDaisy//src/hid/ctrl.h **** #pragma once
   2:../../libDaisy//src/hid/ctrl.h **** #ifndef DSY_KNOB_H
   3:../../libDaisy//src/hid/ctrl.h **** #define DSY_KNOB_H /**< & */
   4:../../libDaisy//src/hid/ctrl.h **** #include <stdint.h>
   5:../../libDaisy//src/hid/ctrl.h **** 
   6:../../libDaisy//src/hid/ctrl.h **** #ifdef __cplusplus
   7:../../libDaisy//src/hid/ctrl.h **** namespace daisy
   8:../../libDaisy//src/hid/ctrl.h **** {
   9:../../libDaisy//src/hid/ctrl.h **** /**
  10:../../libDaisy//src/hid/ctrl.h ****     @brief Hardware Interface for control inputs \n 
  11:../../libDaisy//src/hid/ctrl.h ****     Primarily designed for ADC input controls such as \n 
  12:../../libDaisy//src/hid/ctrl.h ****     potentiometers, and control voltage. \n 
  13:../../libDaisy//src/hid/ctrl.h ****     @author Stephen Hensley
  14:../../libDaisy//src/hid/ctrl.h ****     @date November 2019
  15:../../libDaisy//src/hid/ctrl.h ****     @ingroup controls
  16:../../libDaisy//src/hid/ctrl.h **** */
  17:../../libDaisy//src/hid/ctrl.h **** class AnalogControl
  18:../../libDaisy//src/hid/ctrl.h **** {
  19:../../libDaisy//src/hid/ctrl.h ****   public:
ARM GAS  /var/folders/1y/_321xjh9623c014x9_qw12rr0000gn/T//ccE17DNe.s 			page 80


  20:../../libDaisy//src/hid/ctrl.h ****     /** Constructor */
  21:../../libDaisy//src/hid/ctrl.h ****     AnalogControl() {}
  22:../../libDaisy//src/hid/ctrl.h ****     /** destructor */
  23:../../libDaisy//src/hid/ctrl.h ****     ~AnalogControl() {}
  24:../../libDaisy//src/hid/ctrl.h **** 
  25:../../libDaisy//src/hid/ctrl.h ****     /** 
  26:../../libDaisy//src/hid/ctrl.h ****     Initializes the control
  27:../../libDaisy//src/hid/ctrl.h ****     \param *adcptr is a pointer to the raw adc read value -- This can be acquired with dsy_adc_get_
  28:../../libDaisy//src/hid/ctrl.h ****     \param sr is the samplerate in Hz that the Process function will be called at.
  29:../../libDaisy//src/hid/ctrl.h ****     \param flip determines whether the input is flipped (i.e. 1.f - input) or not before being proc
  30:../../libDaisy//src/hid/ctrl.h ****     \param invert determines whether the input is inverted (i.e. -1.f * input) or note before being
  31:../../libDaisy//src/hid/ctrl.h ****     \param slew_seconds is the slew time in seconds that it takes for the control to change to a ne
  32:../../libDaisy//src/hid/ctrl.h ****     */
  33:../../libDaisy//src/hid/ctrl.h ****     void Init(uint16_t *adcptr,
  34:../../libDaisy//src/hid/ctrl.h ****               float     sr,
  35:../../libDaisy//src/hid/ctrl.h ****               bool      flip         = false,
  36:../../libDaisy//src/hid/ctrl.h ****               bool      invert       = false,
  37:../../libDaisy//src/hid/ctrl.h ****               float     slew_seconds = 0.002f);
  38:../../libDaisy//src/hid/ctrl.h **** 
  39:../../libDaisy//src/hid/ctrl.h ****     /** 
  40:../../libDaisy//src/hid/ctrl.h ****     This Initializes the AnalogControl for a -5V to 5V inverted input
  41:../../libDaisy//src/hid/ctrl.h ****     All of the Init details are the same otherwise
  42:../../libDaisy//src/hid/ctrl.h ****     \param *adcptr Pointer to analog digital converter
  43:../../libDaisy//src/hid/ctrl.h ****     \param sr Audio engine sample rate
  44:../../libDaisy//src/hid/ctrl.h ****     */
  45:../../libDaisy//src/hid/ctrl.h ****     void InitBipolarCv(uint16_t *adcptr, float sr);
  46:../../libDaisy//src/hid/ctrl.h **** 
  47:../../libDaisy//src/hid/ctrl.h ****     /** 
  48:../../libDaisy//src/hid/ctrl.h ****     Filters, and transforms a raw ADC read into a normalized range.
  49:../../libDaisy//src/hid/ctrl.h ****     this should be called at the rate of specified by samplerate at Init time.   
  50:../../libDaisy//src/hid/ctrl.h ****     Default Initializations will return 0.0 -> 1.0
  51:../../libDaisy//src/hid/ctrl.h ****     Bi-polar CV inputs will return -1.0 -> 1.0
  52:../../libDaisy//src/hid/ctrl.h ****     */
  53:../../libDaisy//src/hid/ctrl.h ****     float Process();
  54:../../libDaisy//src/hid/ctrl.h **** 
  55:../../libDaisy//src/hid/ctrl.h ****     /** Returns the current stored value, without reprocessing */
  56:../../libDaisy//src/hid/ctrl.h ****     inline float Value() const { return val_; }
 1853              		.loc 9 56 18 view .LVU448
 1854              	.LBB668:
 1855              		.loc 9 56 34 view .LVU449
 1856              		.loc 9 56 34 is_stmt 0 view .LVU450
 1857              	.LBE668:
 1858              	.LBE667:
 1859              	.LBE673:
 1860              	.LBB674:
 1861              	.LBI674:
 1862              		.file 10 "/Library/DaisyToolchain/0.2.0/arm/arm-none-eabi/include/c++/10.3.1/bits/std_abs.h"
   1:/Library/DaisyToolchain/0.2.0/arm/arm-none-eabi/include/c++/10.3.1/bits/std_abs.h **** // -*- C++ -*- C library enhancements header.
   2:/Library/DaisyToolchain/0.2.0/arm/arm-none-eabi/include/c++/10.3.1/bits/std_abs.h **** 
   3:/Library/DaisyToolchain/0.2.0/arm/arm-none-eabi/include/c++/10.3.1/bits/std_abs.h **** // Copyright (C) 2016-2020 Free Software Foundation, Inc.
   4:/Library/DaisyToolchain/0.2.0/arm/arm-none-eabi/include/c++/10.3.1/bits/std_abs.h **** //
   5:/Library/DaisyToolchain/0.2.0/arm/arm-none-eabi/include/c++/10.3.1/bits/std_abs.h **** // This file is part of the GNU ISO C++ Library.  This library is free
   6:/Library/DaisyToolchain/0.2.0/arm/arm-none-eabi/include/c++/10.3.1/bits/std_abs.h **** // software; you can redistribute it and/or modify it under the
   7:/Library/DaisyToolchain/0.2.0/arm/arm-none-eabi/include/c++/10.3.1/bits/std_abs.h **** // terms of the GNU General Public License as published by the
   8:/Library/DaisyToolchain/0.2.0/arm/arm-none-eabi/include/c++/10.3.1/bits/std_abs.h **** // Free Software Foundation; either version 3, or (at your option)
   9:/Library/DaisyToolchain/0.2.0/arm/arm-none-eabi/include/c++/10.3.1/bits/std_abs.h **** // any later version.
  10:/Library/DaisyToolchain/0.2.0/arm/arm-none-eabi/include/c++/10.3.1/bits/std_abs.h **** 
ARM GAS  /var/folders/1y/_321xjh9623c014x9_qw12rr0000gn/T//ccE17DNe.s 			page 81


  11:/Library/DaisyToolchain/0.2.0/arm/arm-none-eabi/include/c++/10.3.1/bits/std_abs.h **** // This library is distributed in the hope that it will be useful,
  12:/Library/DaisyToolchain/0.2.0/arm/arm-none-eabi/include/c++/10.3.1/bits/std_abs.h **** // but WITHOUT ANY WARRANTY; without even the implied warranty of
  13:/Library/DaisyToolchain/0.2.0/arm/arm-none-eabi/include/c++/10.3.1/bits/std_abs.h **** // MERCHANTABILITY or FITNESS FOR A PARTICULAR PURPOSE.  See the
  14:/Library/DaisyToolchain/0.2.0/arm/arm-none-eabi/include/c++/10.3.1/bits/std_abs.h **** // GNU General Public License for more details.
  15:/Library/DaisyToolchain/0.2.0/arm/arm-none-eabi/include/c++/10.3.1/bits/std_abs.h **** 
  16:/Library/DaisyToolchain/0.2.0/arm/arm-none-eabi/include/c++/10.3.1/bits/std_abs.h **** // Under Section 7 of GPL version 3, you are granted additional
  17:/Library/DaisyToolchain/0.2.0/arm/arm-none-eabi/include/c++/10.3.1/bits/std_abs.h **** // permissions described in the GCC Runtime Library Exception, version
  18:/Library/DaisyToolchain/0.2.0/arm/arm-none-eabi/include/c++/10.3.1/bits/std_abs.h **** // 3.1, as published by the Free Software Foundation.
  19:/Library/DaisyToolchain/0.2.0/arm/arm-none-eabi/include/c++/10.3.1/bits/std_abs.h **** 
  20:/Library/DaisyToolchain/0.2.0/arm/arm-none-eabi/include/c++/10.3.1/bits/std_abs.h **** // You should have received a copy of the GNU General Public License and
  21:/Library/DaisyToolchain/0.2.0/arm/arm-none-eabi/include/c++/10.3.1/bits/std_abs.h **** // a copy of the GCC Runtime Library Exception along with this program;
  22:/Library/DaisyToolchain/0.2.0/arm/arm-none-eabi/include/c++/10.3.1/bits/std_abs.h **** // see the files COPYING3 and COPYING.RUNTIME respectively.  If not, see
  23:/Library/DaisyToolchain/0.2.0/arm/arm-none-eabi/include/c++/10.3.1/bits/std_abs.h **** // <http://www.gnu.org/licenses/>.
  24:/Library/DaisyToolchain/0.2.0/arm/arm-none-eabi/include/c++/10.3.1/bits/std_abs.h **** 
  25:/Library/DaisyToolchain/0.2.0/arm/arm-none-eabi/include/c++/10.3.1/bits/std_abs.h **** /** @file include/bits/std_abs.h
  26:/Library/DaisyToolchain/0.2.0/arm/arm-none-eabi/include/c++/10.3.1/bits/std_abs.h ****  *  This is an internal header file, included by other library headers.
  27:/Library/DaisyToolchain/0.2.0/arm/arm-none-eabi/include/c++/10.3.1/bits/std_abs.h ****  *  Do not attempt to use it directly. @headername{cmath, cstdlib}
  28:/Library/DaisyToolchain/0.2.0/arm/arm-none-eabi/include/c++/10.3.1/bits/std_abs.h ****  */
  29:/Library/DaisyToolchain/0.2.0/arm/arm-none-eabi/include/c++/10.3.1/bits/std_abs.h **** 
  30:/Library/DaisyToolchain/0.2.0/arm/arm-none-eabi/include/c++/10.3.1/bits/std_abs.h **** #ifndef _GLIBCXX_BITS_STD_ABS_H
  31:/Library/DaisyToolchain/0.2.0/arm/arm-none-eabi/include/c++/10.3.1/bits/std_abs.h **** #define _GLIBCXX_BITS_STD_ABS_H
  32:/Library/DaisyToolchain/0.2.0/arm/arm-none-eabi/include/c++/10.3.1/bits/std_abs.h **** 
  33:/Library/DaisyToolchain/0.2.0/arm/arm-none-eabi/include/c++/10.3.1/bits/std_abs.h **** #pragma GCC system_header
  34:/Library/DaisyToolchain/0.2.0/arm/arm-none-eabi/include/c++/10.3.1/bits/std_abs.h **** 
  35:/Library/DaisyToolchain/0.2.0/arm/arm-none-eabi/include/c++/10.3.1/bits/std_abs.h **** #include <bits/c++config.h>
  36:/Library/DaisyToolchain/0.2.0/arm/arm-none-eabi/include/c++/10.3.1/bits/std_abs.h **** 
  37:/Library/DaisyToolchain/0.2.0/arm/arm-none-eabi/include/c++/10.3.1/bits/std_abs.h **** #define _GLIBCXX_INCLUDE_NEXT_C_HEADERS
  38:/Library/DaisyToolchain/0.2.0/arm/arm-none-eabi/include/c++/10.3.1/bits/std_abs.h **** #include_next <stdlib.h>
  39:/Library/DaisyToolchain/0.2.0/arm/arm-none-eabi/include/c++/10.3.1/bits/std_abs.h **** #ifdef __CORRECT_ISO_CPP_MATH_H_PROTO
  40:/Library/DaisyToolchain/0.2.0/arm/arm-none-eabi/include/c++/10.3.1/bits/std_abs.h **** # include_next <math.h>
  41:/Library/DaisyToolchain/0.2.0/arm/arm-none-eabi/include/c++/10.3.1/bits/std_abs.h **** #endif
  42:/Library/DaisyToolchain/0.2.0/arm/arm-none-eabi/include/c++/10.3.1/bits/std_abs.h **** #undef _GLIBCXX_INCLUDE_NEXT_C_HEADERS
  43:/Library/DaisyToolchain/0.2.0/arm/arm-none-eabi/include/c++/10.3.1/bits/std_abs.h **** 
  44:/Library/DaisyToolchain/0.2.0/arm/arm-none-eabi/include/c++/10.3.1/bits/std_abs.h **** #undef abs
  45:/Library/DaisyToolchain/0.2.0/arm/arm-none-eabi/include/c++/10.3.1/bits/std_abs.h **** 
  46:/Library/DaisyToolchain/0.2.0/arm/arm-none-eabi/include/c++/10.3.1/bits/std_abs.h **** extern "C++"
  47:/Library/DaisyToolchain/0.2.0/arm/arm-none-eabi/include/c++/10.3.1/bits/std_abs.h **** {
  48:/Library/DaisyToolchain/0.2.0/arm/arm-none-eabi/include/c++/10.3.1/bits/std_abs.h **** namespace std _GLIBCXX_VISIBILITY(default)
  49:/Library/DaisyToolchain/0.2.0/arm/arm-none-eabi/include/c++/10.3.1/bits/std_abs.h **** {
  50:/Library/DaisyToolchain/0.2.0/arm/arm-none-eabi/include/c++/10.3.1/bits/std_abs.h **** _GLIBCXX_BEGIN_NAMESPACE_VERSION
  51:/Library/DaisyToolchain/0.2.0/arm/arm-none-eabi/include/c++/10.3.1/bits/std_abs.h **** 
  52:/Library/DaisyToolchain/0.2.0/arm/arm-none-eabi/include/c++/10.3.1/bits/std_abs.h ****   using ::abs;
  53:/Library/DaisyToolchain/0.2.0/arm/arm-none-eabi/include/c++/10.3.1/bits/std_abs.h **** 
  54:/Library/DaisyToolchain/0.2.0/arm/arm-none-eabi/include/c++/10.3.1/bits/std_abs.h **** #ifndef __CORRECT_ISO_CPP_STDLIB_H_PROTO
  55:/Library/DaisyToolchain/0.2.0/arm/arm-none-eabi/include/c++/10.3.1/bits/std_abs.h ****   inline long
  56:/Library/DaisyToolchain/0.2.0/arm/arm-none-eabi/include/c++/10.3.1/bits/std_abs.h ****   abs(long __i) { return __builtin_labs(__i); }
  57:/Library/DaisyToolchain/0.2.0/arm/arm-none-eabi/include/c++/10.3.1/bits/std_abs.h **** #endif
  58:/Library/DaisyToolchain/0.2.0/arm/arm-none-eabi/include/c++/10.3.1/bits/std_abs.h **** 
  59:/Library/DaisyToolchain/0.2.0/arm/arm-none-eabi/include/c++/10.3.1/bits/std_abs.h **** #ifdef _GLIBCXX_USE_LONG_LONG
  60:/Library/DaisyToolchain/0.2.0/arm/arm-none-eabi/include/c++/10.3.1/bits/std_abs.h ****   inline long long
  61:/Library/DaisyToolchain/0.2.0/arm/arm-none-eabi/include/c++/10.3.1/bits/std_abs.h ****   abs(long long __x) { return __builtin_llabs (__x); }
  62:/Library/DaisyToolchain/0.2.0/arm/arm-none-eabi/include/c++/10.3.1/bits/std_abs.h **** #endif
  63:/Library/DaisyToolchain/0.2.0/arm/arm-none-eabi/include/c++/10.3.1/bits/std_abs.h **** 
  64:/Library/DaisyToolchain/0.2.0/arm/arm-none-eabi/include/c++/10.3.1/bits/std_abs.h **** // _GLIBCXX_RESOLVE_LIB_DEFECTS
  65:/Library/DaisyToolchain/0.2.0/arm/arm-none-eabi/include/c++/10.3.1/bits/std_abs.h **** // 2192. Validity and return type of std::abs(0u) is unclear
  66:/Library/DaisyToolchain/0.2.0/arm/arm-none-eabi/include/c++/10.3.1/bits/std_abs.h **** // 2294. <cstdlib> should declare abs(double)
  67:/Library/DaisyToolchain/0.2.0/arm/arm-none-eabi/include/c++/10.3.1/bits/std_abs.h **** // 2735. std::abs(short), std::abs(signed char) and others should return int
ARM GAS  /var/folders/1y/_321xjh9623c014x9_qw12rr0000gn/T//ccE17DNe.s 			page 82


  68:/Library/DaisyToolchain/0.2.0/arm/arm-none-eabi/include/c++/10.3.1/bits/std_abs.h **** 
  69:/Library/DaisyToolchain/0.2.0/arm/arm-none-eabi/include/c++/10.3.1/bits/std_abs.h **** #ifndef __CORRECT_ISO_CPP_MATH_H_PROTO
  70:/Library/DaisyToolchain/0.2.0/arm/arm-none-eabi/include/c++/10.3.1/bits/std_abs.h ****   inline _GLIBCXX_CONSTEXPR double
  71:/Library/DaisyToolchain/0.2.0/arm/arm-none-eabi/include/c++/10.3.1/bits/std_abs.h ****   abs(double __x)
  72:/Library/DaisyToolchain/0.2.0/arm/arm-none-eabi/include/c++/10.3.1/bits/std_abs.h ****   { return __builtin_fabs(__x); }
  73:/Library/DaisyToolchain/0.2.0/arm/arm-none-eabi/include/c++/10.3.1/bits/std_abs.h **** 
  74:/Library/DaisyToolchain/0.2.0/arm/arm-none-eabi/include/c++/10.3.1/bits/std_abs.h ****   inline _GLIBCXX_CONSTEXPR float
  75:/Library/DaisyToolchain/0.2.0/arm/arm-none-eabi/include/c++/10.3.1/bits/std_abs.h ****   abs(float __x)
 1863              		.loc 10 75 3 is_stmt 1 view .LVU451
 1864              	.LBB675:
  76:/Library/DaisyToolchain/0.2.0/arm/arm-none-eabi/include/c++/10.3.1/bits/std_abs.h ****   { return __builtin_fabsf(__x); }
 1865              		.loc 10 76 5 view .LVU452
 1866              		.loc 10 76 5 is_stmt 0 view .LVU453
 1867              	.LBE675:
 1868              	.LBE674:
 1869              	.LBB677:
 1870              	.LBB671:
 1871              	.LBB669:
 1872              		.loc 9 56 41 view .LVU454
 1873 005c 9DF80C30 		ldrb	r3, [sp, #12]	@ zero_extendqisi2
 1874              	.LBE669:
 1875              	.LBE671:
 1876              	.LBE677:
 276:Dubby.cpp     ****     display.DrawRect((i * 32)  + margin, int(abs((currentLevels[i] * 5.0f) - 1.0f) * 51.0f) + 1, ((
 1877              		.loc 2 276 49 view .LVU455
 1878 0060 F7EE007A 		vmov.f32	s15, #1.0e+0
 276:Dubby.cpp     ****     display.DrawRect((i * 32)  + margin, int(abs((currentLevels[i] * 5.0f) - 1.0f) * 51.0f) + 1, ((
 1879              		.loc 2 276 100 view .LVU456
 1880 0064 9FEDC97A 		vldr.32	s14, .L185
 1881              	.LBB678:
 1882              	.LBB679:
 1883              	.LBB680:
 227:../../libDaisy//src/hid/disp/display.h ****         int_fast16_t deltaY = abs((int_fast16_t)y2 - (int_fast16_t)y1);
 1884              		.loc 3 227 52 view .LVU457
 1885 0068 A2EB050A 		sub	r10, r2, r5
 1886              	.LBE680:
 1887              	.LBE679:
 1888              	.LBE678:
 1889              	.LBB757:
 1890              	.LBB672:
 1891              	.LBB670:
 1892              		.loc 9 56 41 view .LVU458
 1893 006c 00EB4313 		add	r3, r0, r3, lsl #5
 1894              	.LBE670:
 1895              	.LBE672:
 1896              	.LBE757:
 1897              	.LBB758:
 1898              	.LBB707:
 1899              	.LBB702:
 227:../../libDaisy//src/hid/disp/display.h ****         int_fast16_t deltaY = abs((int_fast16_t)y2 - (int_fast16_t)y1);
 1900              		.loc 3 227 22 view .LVU459
 1901 0070 BAF1000F 		cmp	r10, #0
 1902              	.LBE702:
 1903              	.LBE707:
 1904              	.LBE758:
 276:Dubby.cpp     ****     display.DrawRect((i * 32)  + margin, int(abs((currentLevels[i] * 5.0f) - 1.0f) * 51.0f) + 1, ((
 1905              		.loc 2 276 49 view .LVU460
ARM GAS  /var/folders/1y/_321xjh9623c014x9_qw12rr0000gn/T//ccE17DNe.s 			page 83


 1906 0074 D3ED4B6A 		vldr.32	s13, [r3, #300]
 1907              	.LBB759:
 1908              	.LBB708:
 1909              	.LBB703:
 227:../../libDaisy//src/hid/disp/display.h ****         int_fast16_t deltaY = abs((int_fast16_t)y2 - (int_fast16_t)y1);
 1910              		.loc 3 227 22 view .LVU461
 1911 0078 B8BF     		it	lt
 1912 007a CAF1000A 		rsblt	r10, r10, #0
 229:../../libDaisy//src/hid/disp/display.h ****         int_fast16_t signY  = ((y1 < y2) ? 1 : -1);
 1913              		.loc 3 229 42 view .LVU462
 1914 007e 9542     		cmp	r5, r2
 1915              	.LBE703:
 1916              	.LBE708:
 1917              	.LBE759:
 276:Dubby.cpp     ****     display.DrawRect((i * 32)  + margin, int(abs((currentLevels[i] * 5.0f) - 1.0f) * 51.0f) + 1, ((
 1918              		.loc 2 276 49 view .LVU463
 1919 0080 77EEE67A 		vsub.f32	s15, s15, s13
 1920              	.LBB760:
 1921              	.LBB676:
 1922              		.loc 10 76 31 view .LVU464
 1923 0084 F0EEE77A 		vabs.f32	s15, s15
 1924              	.LBE676:
 1925              	.LBE760:
 276:Dubby.cpp     ****     display.DrawRect((i * 32)  + margin, int(abs((currentLevels[i] * 5.0f) - 1.0f) * 51.0f) + 1, ((
 1926              		.loc 2 276 100 view .LVU465
 1927 0088 67EE877A 		vmul.f32	s15, s15, s14
 276:Dubby.cpp     ****     display.DrawRect((i * 32)  + margin, int(abs((currentLevels[i] * 5.0f) - 1.0f) * 51.0f) + 1, ((
 1928              		.loc 2 276 42 view .LVU466
 1929 008c FDEEE77A 		vcvt.s32.f32	s15, s15
 276:Dubby.cpp     ****     display.DrawRect((i * 32)  + margin, int(abs((currentLevels[i] * 5.0f) - 1.0f) * 51.0f) + 1, ((
 1930              		.loc 2 276 109 view .LVU467
 1931 0090 17EE903A 		vmov	r3, s15	@ int
 1932 0094 03F10107 		add	r7, r3, #1
 1933              	.LVL138:
 1934              	.LBB761:
 1935              	.LBI678:
 257:../../libDaisy//src/hid/disp/display.h ****                   uint_fast8_t y1,
 1936              		.loc 3 257 10 is_stmt 1 view .LVU468
 1937              	.LBB709:
 1938              	.LBI679:
 221:../../libDaisy//src/hid/disp/display.h ****                   uint_fast8_t y1,
 1939              		.loc 3 221 10 view .LVU469
 1940              	.LBB704:
 229:../../libDaisy//src/hid/disp/display.h ****         int_fast16_t signY  = ((y1 < y2) ? 1 : -1);
 1941              		.loc 3 229 42 is_stmt 0 view .LVU470
 1942 0098 80F08E81 		bcs	.L184
 1943              	.LVL139:
 1944              	.LBB681:
 1945              	.LBI681:
 1946              		.loc 1 42 10 is_stmt 1 view .LVU471
 1947              	.LBB682:
 1948              	.LBB683:
 1949              	.LBB684:
 354:../../libDaisy//src/dev/oled_ssd130x.h ****             return;
 1950              		.loc 4 354 14 is_stmt 0 view .LVU472
 1951 009c 7F2A     		cmp	r2, #127
 1952              	.LBE684:
ARM GAS  /var/folders/1y/_321xjh9623c014x9_qw12rr0000gn/T//ccE17DNe.s 			page 84


 1953              	.LBE683:
  43:../../libDaisy//src/hid/disp/oled_display.h ****     {
  44:../../libDaisy//src/hid/disp/oled_display.h ****         driver_.DrawPixel(x, y, on);
 1954              		.loc 1 44 26 view .LVU473
 1955 009e 00F59664 		add	r4, r0, #1200
 1956              	.LVL140:
 1957              	.LBB688:
 1958              	.LBI683:
 352:../../libDaisy//src/dev/oled_ssd130x.h ****     {
 1959              		.loc 4 352 10 is_stmt 1 view .LVU474
 1960              	.LBE688:
 1961              	.LBE682:
 1962              	.LBE681:
 229:../../libDaisy//src/hid/disp/display.h ****         int_fast16_t signY  = ((y1 < y2) ? 1 : -1);
 1963              		.loc 3 229 42 is_stmt 0 view .LVU475
 1964 00a2 4FF0010B 		mov	fp, #1
 1965              	.LBB696:
 1966              	.LBB693:
 1967              	.LBB689:
 1968              	.LBB685:
 354:../../libDaisy//src/dev/oled_ssd130x.h ****             return;
 1969              		.loc 4 354 14 view .LVU476
 1970 00a6 94BF     		ite	ls
 1971 00a8 0023     		movls	r3, #0
 1972 00aa 0123     		movhi	r3, #1
 354:../../libDaisy//src/dev/oled_ssd130x.h ****             return;
 1973              		.loc 4 354 28 view .LVU477
 1974 00ac 3F2F     		cmp	r7, #63
 354:../../libDaisy//src/dev/oled_ssd130x.h ****             return;
 1975              		.loc 4 354 14 view .LVU478
 1976 00ae 0493     		str	r3, [sp, #16]
 354:../../libDaisy//src/dev/oled_ssd130x.h ****             return;
 1977              		.loc 4 354 28 view .LVU479
 1978 00b0 94BF     		ite	ls
 1979 00b2 0021     		movls	r1, #0
 1980 00b4 0121     		movhi	r1, #1
 1981 00b6 0591     		str	r1, [sp, #20]
 354:../../libDaisy//src/dev/oled_ssd130x.h ****             return;
 1982              		.loc 4 354 9 view .LVU480
 1983 00b8 13B9     		cbnz	r3, .L90
 1984 00ba 0029     		cmp	r1, #0
 1985 00bc 00F08C81 		beq	.L127
 1986              	.LVL141:
 1987              	.L90:
 354:../../libDaisy//src/dev/oled_ssd130x.h ****             return;
 1988              		.loc 4 354 9 view .LVU481
 1989              	.LBE685:
 1990              	.LBE689:
 1991              	.LBE693:
 1992              	.LBE696:
 227:../../libDaisy//src/hid/disp/display.h ****         int_fast16_t deltaY = abs((int_fast16_t)y2 - (int_fast16_t)y1);
 1993              		.loc 3 227 22 view .LVU482
 1994 00c0 D046     		mov	r8, r10
 1995              	.LBE704:
 1996              	.LBE709:
 1997              	.LBE761:
 276:Dubby.cpp     ****     display.DrawRect((i * 32)  + margin, int(abs((currentLevels[i] * 5.0f) - 1.0f) * 51.0f) + 1, ((
ARM GAS  /var/folders/1y/_321xjh9623c014x9_qw12rr0000gn/T//ccE17DNe.s 			page 85


 1998              		.loc 2 276 21 view .LVU483
 1999 00c2 3E46     		mov	r6, r7
 275:Dubby.cpp     ****     display.DrawRect((i * 32)  + margin, int(abs(1.0f - GetKnobValue(static_cast<Dubby::Ctrl>(i))) 
 2000              		.loc 2 275 21 view .LVU484
 2001 00c4 AE46     		mov	lr, r5
 2002              	.L92:
 2003              	.LVL142:
 2004              	.LBB762:
 2005              	.LBB710:
 2006              	.LBB705:
 2007              	.LBB697:
 2008              	.LBI697:
  42:../../libDaisy//src/hid/disp/oled_display.h ****     {
 2009              		.loc 1 42 10 is_stmt 1 view .LVU485
 2010              	.LBB698:
 2011              	.LBI698:
 352:../../libDaisy//src/dev/oled_ssd130x.h ****     {
 2012              		.loc 4 352 10 view .LVU486
 2013              	.LBB699:
 357:../../libDaisy//src/dev/oled_ssd130x.h ****         else
 2014              		.loc 4 357 28 is_stmt 0 view .LVU487
 2015 00c6 F108     		lsrs	r1, r6, #3
 357:../../libDaisy//src/dev/oled_ssd130x.h ****         else
 2016              		.loc 4 357 54 view .LVU488
 2017 00c8 06F00703 		and	r3, r6, #7
 357:../../libDaisy//src/dev/oled_ssd130x.h ****         else
 2018              		.loc 4 357 48 view .LVU489
 2019 00cc 4FF00109 		mov	r9, #1
 354:../../libDaisy//src/dev/oled_ssd130x.h ****             return;
 2020              		.loc 4 354 9 view .LVU490
 2021 00d0 BEF17F0F 		cmp	lr, #127
 357:../../libDaisy//src/dev/oled_ssd130x.h ****         else
 2022              		.loc 4 357 42 view .LVU491
 2023 00d4 0EEBC111 		add	r1, lr, r1, lsl #7
 357:../../libDaisy//src/dev/oled_ssd130x.h ****         else
 2024              		.loc 4 357 48 view .LVU492
 2025 00d8 09FA03F3 		lsl	r3, r9, r3
 354:../../libDaisy//src/dev/oled_ssd130x.h ****             return;
 2026              		.loc 4 354 9 view .LVU493
 2027 00dc 08D8     		bhi	.L93
 2028 00de 3F2E     		cmp	r6, #63
 357:../../libDaisy//src/dev/oled_ssd130x.h ****         else
 2029              		.loc 4 357 42 view .LVU494
 2030 00e0 0144     		add	r1, r1, r0
 354:../../libDaisy//src/dev/oled_ssd130x.h ****             return;
 2031              		.loc 4 354 9 view .LVU495
 2032 00e2 05D8     		bhi	.L93
 357:../../libDaisy//src/dev/oled_ssd130x.h ****         else
 2033              		.loc 4 357 42 view .LVU496
 2034 00e4 91F8BC94 		ldrb	r9, [r1, #1212]	@ zero_extendqisi2
 2035 00e8 43EA0903 		orr	r3, r3, r9
 2036 00ec 81F8BC34 		strb	r3, [r1, #1212]
 2037              	.L93:
 357:../../libDaisy//src/dev/oled_ssd130x.h ****         else
 2038              		.loc 4 357 42 view .LVU497
 2039              	.LBE699:
 2040              	.LBE698:
ARM GAS  /var/folders/1y/_321xjh9623c014x9_qw12rr0000gn/T//ccE17DNe.s 			page 86


 2041              	.LBE697:
 243:../../libDaisy//src/hid/disp/display.h ****             {
 2042              		.loc 3 243 13 view .LVU498
 2043 00f0 5FEA4803 		lsls	r3, r8, #1
 246:../../libDaisy//src/hid/disp/display.h ****             }
 2044              		.loc 3 246 20 view .LVU499
 2045 00f4 18BF     		it	ne
 2046 00f6 DE44     		addne	lr, lr, fp
 2047              	.LVL143:
 249:../../libDaisy//src/hid/disp/display.h ****             {
 2048              		.loc 3 249 13 view .LVU500
 2049 00f8 9A45     		cmp	r10, r3
 2050 00fa 01DD     		ble	.L95
 251:../../libDaisy//src/hid/disp/display.h ****                 y1 += signY;
 2051              		.loc 3 251 23 view .LVU501
 2052 00fc D044     		add	r8, r8, r10
 2053              	.LVL144:
 252:../../libDaisy//src/hid/disp/display.h ****             }
 2054              		.loc 3 252 20 view .LVU502
 2055 00fe 013E     		subs	r6, r6, #1
 2056              	.LVL145:
 2057              	.L95:
 239:../../libDaisy//src/hid/disp/display.h ****         {
 2058              		.loc 3 239 26 is_stmt 1 view .LVU503
 2059 0100 7245     		cmp	r2, lr
 2060 0102 E0D1     		bne	.L92
 239:../../libDaisy//src/hid/disp/display.h ****         {
 2061              		.loc 3 239 26 is_stmt 0 view .LVU504
 2062 0104 B742     		cmp	r7, r6
 2063 0106 DED1     		bne	.L92
 2064 0108 0023     		movs	r3, #0
 2065 010a 0893     		str	r3, [sp, #32]
 2066              	.LVL146:
 2067              	.L89:
 239:../../libDaisy//src/hid/disp/display.h ****         {
 2068              		.loc 3 239 26 view .LVU505
 2069              	.LBE705:
 2070              	.LBE710:
 2071              	.LBB711:
 2072              	.LBI711:
 221:../../libDaisy//src/hid/disp/display.h ****                   uint_fast8_t y1,
 2073              		.loc 3 221 10 is_stmt 1 view .LVU506
 2074              	.LBB712:
 228:../../libDaisy//src/hid/disp/display.h ****         int_fast16_t signX  = ((x1 < x2) ? 1 : -1);
 2075              		.loc 3 228 52 is_stmt 0 view .LVU507
 2076 010c C7F13303 		rsb	r3, r7, #51
 230:../../libDaisy//src/hid/disp/display.h ****         int_fast16_t error  = deltaX - deltaY;
 2077              		.loc 3 230 42 view .LVU508
 2078 0110 332F     		cmp	r7, #51
 228:../../libDaisy//src/hid/disp/display.h ****         int_fast16_t signX  = ((x1 < x2) ? 1 : -1);
 2079              		.loc 3 228 22 view .LVU509
 2080 0112 83EAE371 		eor	r1, r3, r3, asr #31
 2081 0116 A1EBE371 		sub	r1, r1, r3, asr #31
 2082 011a 0B46     		mov	r3, r1
 230:../../libDaisy//src/hid/disp/display.h ****         int_fast16_t error  = deltaX - deltaY;
 2083              		.loc 3 230 42 view .LVU510
 2084 011c B4BF     		ite	lt
ARM GAS  /var/folders/1y/_321xjh9623c014x9_qw12rr0000gn/T//ccE17DNe.s 			page 87


 2085 011e 0123     		movlt	r3, #1
 2086 0120 4FF0FF33 		movge	r3, #-1
 231:../../libDaisy//src/hid/disp/display.h ****         int_fast16_t error2;
 2087              		.loc 3 231 22 view .LVU511
 2088 0124 C1F1000A 		rsb	r10, r1, #0
 228:../../libDaisy//src/hid/disp/display.h ****         int_fast16_t signX  = ((x1 < x2) ? 1 : -1);
 2089              		.loc 3 228 22 view .LVU512
 2090 0128 0191     		str	r1, [sp, #4]
 2091              	.LVL147:
 230:../../libDaisy//src/hid/disp/display.h ****         int_fast16_t error  = deltaX - deltaY;
 2092              		.loc 3 230 42 view .LVU513
 2093 012a 0293     		str	r3, [sp, #8]
 2094              	.LVL148:
 2095              	.LBB713:
 2096              	.LBI713:
  42:../../libDaisy//src/hid/disp/oled_display.h ****     {
 2097              		.loc 1 42 10 is_stmt 1 view .LVU514
 2098              	.LBB714:
 2099              	.LBI714:
 352:../../libDaisy//src/dev/oled_ssd130x.h ****     {
 2100              		.loc 4 352 10 view .LVU515
 2101              	.LBB715:
 354:../../libDaisy//src/dev/oled_ssd130x.h ****             return;
 2102              		.loc 4 354 9 is_stmt 0 view .LVU516
 2103 012c 049B     		ldr	r3, [sp, #16]
 2104              	.LVL149:
 354:../../libDaisy//src/dev/oled_ssd130x.h ****             return;
 2105              		.loc 4 354 9 view .LVU517
 2106 012e 43B9     		cbnz	r3, .L97
 357:../../libDaisy//src/dev/oled_ssd130x.h ****         else
 2107              		.loc 4 357 42 view .LVU518
 2108 0130 02F54073 		add	r3, r2, #768
 2109 0134 0344     		add	r3, r3, r0
 2110 0136 93F8BC14 		ldrb	r1, [r3, #1212]	@ zero_extendqisi2
 2111              	.LVL150:
 357:../../libDaisy//src/dev/oled_ssd130x.h ****         else
 2112              		.loc 4 357 42 view .LVU519
 2113 013a 41F00801 		orr	r1, r1, #8
 2114 013e 83F8BC14 		strb	r1, [r3, #1212]
 2115              	.L97:
 2116              	.LVL151:
 357:../../libDaisy//src/dev/oled_ssd130x.h ****         else
 2117              		.loc 4 357 42 view .LVU520
 2118              	.LBE715:
 2119              	.LBE714:
 2120              	.LBE713:
 239:../../libDaisy//src/hid/disp/display.h ****         {
 2121              		.loc 3 239 26 is_stmt 1 view .LVU521
 2122 0142 332F     		cmp	r7, #51
 2123 0144 29D0     		beq	.L98
 2124 0146 5646     		mov	r6, r10
 2125 0148 3946     		mov	r1, r7
 2126              	.LBE712:
 2127              	.LBE711:
 2128              	.LBE762:
 275:Dubby.cpp     ****     display.DrawRect((i * 32)  + margin, int(abs(1.0f - GetKnobValue(static_cast<Dubby::Ctrl>(i))) 
 2129              		.loc 2 275 21 is_stmt 0 view .LVU522
ARM GAS  /var/folders/1y/_321xjh9623c014x9_qw12rr0000gn/T//ccE17DNe.s 			page 88


 2130 014a 9646     		mov	lr, r2
 2131              	.LVL152:
 2132              	.L99:
 2133              	.LBB763:
 2134              	.LBB723:
 2135              	.LBB722:
 2136              	.LBB716:
 2137              	.LBI716:
  42:../../libDaisy//src/hid/disp/oled_display.h ****     {
 2138              		.loc 1 42 10 is_stmt 1 view .LVU523
 2139              	.LBB717:
 2140              	.LBI717:
 352:../../libDaisy//src/dev/oled_ssd130x.h ****     {
 2141              		.loc 4 352 10 view .LVU524
 2142              	.LBB718:
 357:../../libDaisy//src/dev/oled_ssd130x.h ****         else
 2143              		.loc 4 357 48 is_stmt 0 view .LVU525
 2144 014c 4FF0010B 		mov	fp, #1
 357:../../libDaisy//src/dev/oled_ssd130x.h ****         else
 2145              		.loc 4 357 28 view .LVU526
 2146 0150 CB08     		lsrs	r3, r1, #3
 357:../../libDaisy//src/dev/oled_ssd130x.h ****         else
 2147              		.loc 4 357 54 view .LVU527
 2148 0152 01F00708 		and	r8, r1, #7
 354:../../libDaisy//src/dev/oled_ssd130x.h ****             return;
 2149              		.loc 4 354 9 view .LVU528
 2150 0156 BEF17F0F 		cmp	lr, #127
 357:../../libDaisy//src/dev/oled_ssd130x.h ****         else
 2151              		.loc 4 357 42 view .LVU529
 2152 015a 0EEBC313 		add	r3, lr, r3, lsl #7
 2153              	.LBE718:
 2154              	.LBE717:
 2155              	.LBE716:
 242:../../libDaisy//src/hid/disp/display.h ****             if(error2 > -deltaY)
 2156              		.loc 3 242 20 view .LVU530
 2157 015e 06FA0BF9 		lsl	r9, r6, fp
 2158              	.LVL153:
 2159              	.LBB721:
 2160              	.LBB720:
 2161              	.LBB719:
 357:../../libDaisy//src/dev/oled_ssd130x.h ****         else
 2162              		.loc 4 357 48 view .LVU531
 2163 0162 0BFA08F8 		lsl	r8, fp, r8
 354:../../libDaisy//src/dev/oled_ssd130x.h ****             return;
 2164              		.loc 4 354 9 view .LVU532
 2165 0166 08D8     		bhi	.L101
 354:../../libDaisy//src/dev/oled_ssd130x.h ****             return;
 2166              		.loc 4 354 9 view .LVU533
 2167 0168 3F29     		cmp	r1, #63
 357:../../libDaisy//src/dev/oled_ssd130x.h ****         else
 2168              		.loc 4 357 42 view .LVU534
 2169 016a 0344     		add	r3, r3, r0
 354:../../libDaisy//src/dev/oled_ssd130x.h ****             return;
 2170              		.loc 4 354 9 view .LVU535
 2171 016c 05D8     		bhi	.L101
 357:../../libDaisy//src/dev/oled_ssd130x.h ****         else
 2172              		.loc 4 357 42 view .LVU536
ARM GAS  /var/folders/1y/_321xjh9623c014x9_qw12rr0000gn/T//ccE17DNe.s 			page 89


 2173 016e 93F8BCB4 		ldrb	fp, [r3, #1212]	@ zero_extendqisi2
 2174 0172 48EA0B08 		orr	r8, r8, fp
 2175 0176 83F8BC84 		strb	r8, [r3, #1212]
 2176              	.L101:
 357:../../libDaisy//src/dev/oled_ssd130x.h ****         else
 2177              		.loc 4 357 42 view .LVU537
 2178              	.LBE719:
 2179              	.LBE720:
 2180              	.LBE721:
 243:../../libDaisy//src/hid/disp/display.h ****             {
 2181              		.loc 3 243 13 view .LVU538
 2182 017a BAEB460F 		cmp	r10, r6, lsl #1
 2183 017e 03DA     		bge	.L102
 245:../../libDaisy//src/hid/disp/display.h ****                 x1 += signX;
 2184              		.loc 3 245 23 view .LVU539
 2185 0180 019B     		ldr	r3, [sp, #4]
 246:../../libDaisy//src/hid/disp/display.h ****             }
 2186              		.loc 3 246 20 view .LVU540
 2187 0182 0EF1FF3E 		add	lr, lr, #-1
 2188              	.LVL154:
 245:../../libDaisy//src/hid/disp/display.h ****                 x1 += signX;
 2189              		.loc 3 245 23 view .LVU541
 2190 0186 F61A     		subs	r6, r6, r3
 2191              	.LVL155:
 2192              	.L102:
 249:../../libDaisy//src/hid/disp/display.h ****             {
 2193              		.loc 3 249 13 view .LVU542
 2194 0188 B9F1000F 		cmp	r9, #0
 2195 018c 01D0     		beq	.L103
 252:../../libDaisy//src/hid/disp/display.h ****             }
 2196              		.loc 3 252 20 view .LVU543
 2197 018e 029B     		ldr	r3, [sp, #8]
 2198 0190 1944     		add	r1, r1, r3
 2199              	.LVL156:
 2200              	.L103:
 239:../../libDaisy//src/hid/disp/display.h ****         {
 2201              		.loc 3 239 26 is_stmt 1 view .LVU544
 2202 0192 7245     		cmp	r2, lr
 2203 0194 DAD1     		bne	.L99
 239:../../libDaisy//src/hid/disp/display.h ****         {
 2204              		.loc 3 239 26 is_stmt 0 view .LVU545
 2205 0196 3329     		cmp	r1, #51
 2206 0198 D8D1     		bne	.L99
 2207              	.LVL157:
 2208              	.L98:
 239:../../libDaisy//src/hid/disp/display.h ****         {
 2209              		.loc 3 239 26 view .LVU546
 2210              	.LBE722:
 2211              	.LBE723:
 2212              	.LBB724:
 2213              	.LBI724:
 221:../../libDaisy//src/hid/disp/display.h ****                   uint_fast8_t y1,
 2214              		.loc 3 221 10 is_stmt 1 view .LVU547
 2215              	.LBB725:
 227:../../libDaisy//src/hid/disp/display.h ****         int_fast16_t deltaY = abs((int_fast16_t)y2 - (int_fast16_t)y1);
 2216              		.loc 3 227 52 is_stmt 0 view .LVU548
 2217 019a A5EB0208 		sub	r8, r5, r2
ARM GAS  /var/folders/1y/_321xjh9623c014x9_qw12rr0000gn/T//ccE17DNe.s 			page 90


 229:../../libDaisy//src/hid/disp/display.h ****         int_fast16_t signY  = ((y1 < y2) ? 1 : -1);
 2218              		.loc 3 229 42 view .LVU549
 2219 019e 9542     		cmp	r5, r2
 2220 01a0 8CBF     		ite	hi
 2221 01a2 0122     		movhi	r2, #1
 2222 01a4 4FF0FF32 		movls	r2, #-1
 227:../../libDaisy//src/hid/disp/display.h ****         int_fast16_t deltaY = abs((int_fast16_t)y2 - (int_fast16_t)y1);
 2223              		.loc 3 227 22 view .LVU550
 2224 01a8 B8F1000F 		cmp	r8, #0
 2225 01ac B8BF     		it	lt
 2226 01ae C8F10008 		rsblt	r8, r8, #0
 2227              	.LVL158:
 2228              	.LBB726:
 2229              	.LBI726:
  42:../../libDaisy//src/hid/disp/oled_display.h ****     {
 2230              		.loc 1 42 10 is_stmt 1 view .LVU551
 2231              	.LBB727:
 2232              	.LBI727:
 352:../../libDaisy//src/dev/oled_ssd130x.h ****     {
 2233              		.loc 4 352 10 view .LVU552
 2234              	.LBB728:
 354:../../libDaisy//src/dev/oled_ssd130x.h ****             return;
 2235              		.loc 4 354 9 is_stmt 0 view .LVU553
 2236 01b2 7F2D     		cmp	r5, #127
 2237 01b4 08D8     		bhi	.L105
 357:../../libDaisy//src/dev/oled_ssd130x.h ****         else
 2238              		.loc 4 357 42 view .LVU554
 2239 01b6 05F54073 		add	r3, r5, #768
 2240 01ba 0344     		add	r3, r3, r0
 2241 01bc 93F8BC14 		ldrb	r1, [r3, #1212]	@ zero_extendqisi2
 2242 01c0 41F00801 		orr	r1, r1, #8
 2243 01c4 83F8BC14 		strb	r1, [r3, #1212]
 2244              	.L105:
 2245              	.LVL159:
 357:../../libDaisy//src/dev/oled_ssd130x.h ****         else
 2246              		.loc 4 357 42 view .LVU555
 2247              	.LBE728:
 2248              	.LBE727:
 2249              	.LBE726:
 239:../../libDaisy//src/hid/disp/display.h ****         {
 2250              		.loc 3 239 26 is_stmt 1 view .LVU556
 2251 01c8 089B     		ldr	r3, [sp, #32]
 2252 01ca 0BBB     		cbnz	r3, .L106
 227:../../libDaisy//src/hid/disp/display.h ****         int_fast16_t deltaY = abs((int_fast16_t)y2 - (int_fast16_t)y1);
 2253              		.loc 3 227 22 is_stmt 0 view .LVU557
 2254 01cc C646     		mov	lr, r8
 239:../../libDaisy//src/hid/disp/display.h ****         {
 2255              		.loc 3 239 26 view .LVU558
 2256 01ce 3326     		movs	r6, #51
 2257              	.LVL160:
 2258              	.L107:
 2259              	.LBB729:
 2260              	.LBI729:
  42:../../libDaisy//src/hid/disp/oled_display.h ****     {
 2261              		.loc 1 42 10 is_stmt 1 view .LVU559
 2262              	.LBB730:
 2263              	.LBI730:
ARM GAS  /var/folders/1y/_321xjh9623c014x9_qw12rr0000gn/T//ccE17DNe.s 			page 91


 352:../../libDaisy//src/dev/oled_ssd130x.h ****     {
 2264              		.loc 4 352 10 view .LVU560
 2265              	.LBB731:
 357:../../libDaisy//src/dev/oled_ssd130x.h ****         else
 2266              		.loc 4 357 28 is_stmt 0 view .LVU561
 2267 01d0 F308     		lsrs	r3, r6, #3
 357:../../libDaisy//src/dev/oled_ssd130x.h ****         else
 2268              		.loc 4 357 54 view .LVU562
 2269 01d2 06F00709 		and	r9, r6, #7
 357:../../libDaisy//src/dev/oled_ssd130x.h ****         else
 2270              		.loc 4 357 48 view .LVU563
 2271 01d6 0121     		movs	r1, #1
 354:../../libDaisy//src/dev/oled_ssd130x.h ****             return;
 2272              		.loc 4 354 9 view .LVU564
 2273 01d8 BCF17F0F 		cmp	ip, #127
 357:../../libDaisy//src/dev/oled_ssd130x.h ****         else
 2274              		.loc 4 357 42 view .LVU565
 2275 01dc 0CEBC313 		add	r3, ip, r3, lsl #7
 357:../../libDaisy//src/dev/oled_ssd130x.h ****         else
 2276              		.loc 4 357 48 view .LVU566
 2277 01e0 01FA09F1 		lsl	r1, r1, r9
 354:../../libDaisy//src/dev/oled_ssd130x.h ****             return;
 2278              		.loc 4 354 9 view .LVU567
 2279 01e4 08D8     		bhi	.L109
 354:../../libDaisy//src/dev/oled_ssd130x.h ****             return;
 2280              		.loc 4 354 9 view .LVU568
 2281 01e6 3F2E     		cmp	r6, #63
 357:../../libDaisy//src/dev/oled_ssd130x.h ****         else
 2282              		.loc 4 357 42 view .LVU569
 2283 01e8 0344     		add	r3, r3, r0
 354:../../libDaisy//src/dev/oled_ssd130x.h ****             return;
 2284              		.loc 4 354 9 view .LVU570
 2285 01ea 05D8     		bhi	.L109
 357:../../libDaisy//src/dev/oled_ssd130x.h ****         else
 2286              		.loc 4 357 42 view .LVU571
 2287 01ec 93F8BC94 		ldrb	r9, [r3, #1212]	@ zero_extendqisi2
 2288 01f0 41EA0901 		orr	r1, r1, r9
 2289 01f4 83F8BC14 		strb	r1, [r3, #1212]
 2290              	.L109:
 357:../../libDaisy//src/dev/oled_ssd130x.h ****         else
 2291              		.loc 4 357 42 view .LVU572
 2292              	.LBE731:
 2293              	.LBE730:
 2294              	.LBE729:
 243:../../libDaisy//src/hid/disp/display.h ****             {
 2295              		.loc 3 243 13 view .LVU573
 2296 01f8 5FEA4E03 		lsls	r3, lr, #1
 246:../../libDaisy//src/hid/disp/display.h ****             }
 2297              		.loc 3 246 20 view .LVU574
 2298 01fc 18BF     		it	ne
 2299 01fe 9444     		addne	ip, ip, r2
 2300              	.LVL161:
 249:../../libDaisy//src/hid/disp/display.h ****             {
 2301              		.loc 3 249 13 view .LVU575
 2302 0200 9845     		cmp	r8, r3
 2303 0202 01DD     		ble	.L111
 251:../../libDaisy//src/hid/disp/display.h ****                 y1 += signY;
ARM GAS  /var/folders/1y/_321xjh9623c014x9_qw12rr0000gn/T//ccE17DNe.s 			page 92


 2304              		.loc 3 251 23 view .LVU576
 2305 0204 C644     		add	lr, lr, r8
 2306              	.LVL162:
 252:../../libDaisy//src/hid/disp/display.h ****             }
 2307              		.loc 3 252 20 view .LVU577
 2308 0206 013E     		subs	r6, r6, #1
 2309              	.LVL163:
 2310              	.L111:
 239:../../libDaisy//src/hid/disp/display.h ****         {
 2311              		.loc 3 239 26 is_stmt 1 view .LVU578
 2312 0208 6545     		cmp	r5, ip
 2313 020a E1D1     		bne	.L107
 239:../../libDaisy//src/hid/disp/display.h ****         {
 2314              		.loc 3 239 26 is_stmt 0 view .LVU579
 2315 020c 332E     		cmp	r6, #51
 2316 020e DFD1     		bne	.L107
 2317              	.LVL164:
 2318              	.L106:
 239:../../libDaisy//src/hid/disp/display.h ****         {
 2319              		.loc 3 239 26 view .LVU580
 2320              	.LBE725:
 2321              	.LBE724:
 2322              	.LBB732:
 2323              	.LBI732:
 221:../../libDaisy//src/hid/disp/display.h ****                   uint_fast8_t y1,
 2324              		.loc 3 221 10 is_stmt 1 view .LVU581
 2325              	.LBB733:
 228:../../libDaisy//src/hid/disp/display.h ****         int_fast16_t signX  = ((x1 < x2) ? 1 : -1);
 2326              		.loc 3 228 52 is_stmt 0 view .LVU582
 2327 0210 17EE903A 		vmov	r3, s15	@ int
 2328 0214 A3F1320C 		sub	ip, r3, #50
 228:../../libDaisy//src/hid/disp/display.h ****         int_fast16_t signX  = ((x1 < x2) ? 1 : -1);
 2329              		.loc 3 228 22 view .LVU583
 2330 0218 BCF1000F 		cmp	ip, #0
 2331 021c B8BF     		it	lt
 2332 021e CCF1000C 		rsblt	ip, ip, #0
 2333              	.LVL165:
 230:../../libDaisy//src/hid/disp/display.h ****         int_fast16_t error  = deltaX - deltaY;
 2334              		.loc 3 230 42 view .LVU584
 2335 0222 332F     		cmp	r7, #51
 231:../../libDaisy//src/hid/disp/display.h ****         int_fast16_t error2;
 2336              		.loc 3 231 22 view .LVU585
 2337 0224 CCF10006 		rsb	r6, ip, #0
 230:../../libDaisy//src/hid/disp/display.h ****         int_fast16_t error  = deltaX - deltaY;
 2338              		.loc 3 230 42 view .LVU586
 2339 0228 00F3B280 		bgt	.L112
 2340              	.LVL166:
 2341              	.LBB734:
 2342              	.LBI734:
  42:../../libDaisy//src/hid/disp/oled_display.h ****     {
 2343              		.loc 1 42 10 is_stmt 1 view .LVU587
 2344              	.LBB735:
 2345              	.LBI735:
 352:../../libDaisy//src/dev/oled_ssd130x.h ****     {
 2346              		.loc 4 352 10 view .LVU588
 2347              	.LBB736:
 354:../../libDaisy//src/dev/oled_ssd130x.h ****             return;
ARM GAS  /var/folders/1y/_321xjh9623c014x9_qw12rr0000gn/T//ccE17DNe.s 			page 93


 2348              		.loc 4 354 9 is_stmt 0 view .LVU589
 2349 022c 7F2D     		cmp	r5, #127
 2350              	.LBE736:
 2351              	.LBE735:
 2352              	.LBE734:
 230:../../libDaisy//src/hid/disp/display.h ****         int_fast16_t error  = deltaX - deltaY;
 2353              		.loc 3 230 42 view .LVU590
 2354 022e 4FF0FF3A 		mov	r10, #-1
 2355              	.LBB743:
 2356              	.LBB740:
 2357              	.LBB737:
 354:../../libDaisy//src/dev/oled_ssd130x.h ****             return;
 2358              		.loc 4 354 9 view .LVU591
 2359 0232 03D8     		bhi	.L113
 2360 0234 059B     		ldr	r3, [sp, #20]
 2361 0236 002B     		cmp	r3, #0
 2362 0238 00F0B080 		beq	.L128
 2363              	.LVL167:
 2364              	.L113:
 354:../../libDaisy//src/dev/oled_ssd130x.h ****             return;
 2365              		.loc 4 354 9 view .LVU592
 2366              	.LBE737:
 2367              	.LBE740:
 2368              	.LBE743:
 239:../../libDaisy//src/hid/disp/display.h ****         {
 2369              		.loc 3 239 26 is_stmt 1 view .LVU593
 2370 023c 332F     		cmp	r7, #51
 2371 023e 26D0     		beq	.L114
 2372 0240 B146     		mov	r9, r6
 2373              	.L115:
 2374              	.LVL168:
 230:../../libDaisy//src/hid/disp/display.h ****         int_fast16_t error  = deltaX - deltaY;
 2375              		.loc 3 230 42 is_stmt 0 view .LVU594
 2376 0242 2946     		mov	r1, r5
 2377 0244 3322     		movs	r2, #51
 2378              	.L117:
 2379              	.LVL169:
 2380              	.LBB744:
 2381              	.LBI744:
  42:../../libDaisy//src/hid/disp/oled_display.h ****     {
 2382              		.loc 1 42 10 is_stmt 1 view .LVU595
 2383              	.LBB745:
 2384              	.LBI745:
 352:../../libDaisy//src/dev/oled_ssd130x.h ****     {
 2385              		.loc 4 352 10 view .LVU596
 2386              	.LBB746:
 357:../../libDaisy//src/dev/oled_ssd130x.h ****         else
 2387              		.loc 4 357 48 is_stmt 0 view .LVU597
 2388 0246 4FF0010B 		mov	fp, #1
 357:../../libDaisy//src/dev/oled_ssd130x.h ****         else
 2389              		.loc 4 357 28 view .LVU598
 2390 024a D308     		lsrs	r3, r2, #3
 357:../../libDaisy//src/dev/oled_ssd130x.h ****         else
 2391              		.loc 4 357 54 view .LVU599
 2392 024c 02F0070E 		and	lr, r2, #7
 354:../../libDaisy//src/dev/oled_ssd130x.h ****             return;
 2393              		.loc 4 354 9 view .LVU600
ARM GAS  /var/folders/1y/_321xjh9623c014x9_qw12rr0000gn/T//ccE17DNe.s 			page 94


 2394 0250 7F29     		cmp	r1, #127
 357:../../libDaisy//src/dev/oled_ssd130x.h ****         else
 2395              		.loc 4 357 42 view .LVU601
 2396 0252 01EBC313 		add	r3, r1, r3, lsl #7
 2397              	.LBE746:
 2398              	.LBE745:
 2399              	.LBE744:
 242:../../libDaisy//src/hid/disp/display.h ****             if(error2 > -deltaY)
 2400              		.loc 3 242 20 view .LVU602
 2401 0256 06FA0BF8 		lsl	r8, r6, fp
 2402              	.LVL170:
 2403              	.LBB749:
 2404              	.LBB748:
 2405              	.LBB747:
 357:../../libDaisy//src/dev/oled_ssd130x.h ****         else
 2406              		.loc 4 357 48 view .LVU603
 2407 025a 0BFA0EFE 		lsl	lr, fp, lr
 354:../../libDaisy//src/dev/oled_ssd130x.h ****             return;
 2408              		.loc 4 354 9 view .LVU604
 2409 025e 08D8     		bhi	.L118
 2410 0260 3F2A     		cmp	r2, #63
 357:../../libDaisy//src/dev/oled_ssd130x.h ****         else
 2411              		.loc 4 357 42 view .LVU605
 2412 0262 0344     		add	r3, r3, r0
 354:../../libDaisy//src/dev/oled_ssd130x.h ****             return;
 2413              		.loc 4 354 9 view .LVU606
 2414 0264 05D8     		bhi	.L118
 357:../../libDaisy//src/dev/oled_ssd130x.h ****         else
 2415              		.loc 4 357 42 view .LVU607
 2416 0266 93F8BCB4 		ldrb	fp, [r3, #1212]	@ zero_extendqisi2
 2417 026a 4EEA0B0E 		orr	lr, lr, fp
 2418 026e 83F8BCE4 		strb	lr, [r3, #1212]
 2419              	.L118:
 357:../../libDaisy//src/dev/oled_ssd130x.h ****         else
 2420              		.loc 4 357 42 view .LVU608
 2421              	.LBE747:
 2422              	.LBE748:
 2423              	.LBE749:
 243:../../libDaisy//src/hid/disp/display.h ****             {
 2424              		.loc 3 243 13 view .LVU609
 2425 0272 B9EB460F 		cmp	r9, r6, lsl #1
 2426 0276 02DA     		bge	.L119
 246:../../libDaisy//src/hid/disp/display.h ****             }
 2427              		.loc 3 246 20 view .LVU610
 2428 0278 0139     		subs	r1, r1, #1
 2429              	.LVL171:
 245:../../libDaisy//src/hid/disp/display.h ****                 x1 += signX;
 2430              		.loc 3 245 23 view .LVU611
 2431 027a A6EB0C06 		sub	r6, r6, ip
 2432              	.LVL172:
 2433              	.L119:
 249:../../libDaisy//src/hid/disp/display.h ****             {
 2434              		.loc 3 249 13 view .LVU612
 2435 027e B8F1000F 		cmp	r8, #0
 2436 0282 00D0     		beq	.L120
 252:../../libDaisy//src/hid/disp/display.h ****             }
 2437              		.loc 3 252 20 view .LVU613
ARM GAS  /var/folders/1y/_321xjh9623c014x9_qw12rr0000gn/T//ccE17DNe.s 			page 95


 2438 0284 5244     		add	r2, r2, r10
 2439              	.LVL173:
 2440              	.L120:
 239:../../libDaisy//src/hid/disp/display.h ****         {
 2441              		.loc 3 239 26 is_stmt 1 view .LVU614
 2442 0286 8D42     		cmp	r5, r1
 2443 0288 DDD1     		bne	.L117
 239:../../libDaisy//src/hid/disp/display.h ****         {
 2444              		.loc 3 239 26 is_stmt 0 view .LVU615
 2445 028a 9742     		cmp	r7, r2
 2446 028c DBD1     		bne	.L117
 2447              	.LVL174:
 2448              	.L114:
 239:../../libDaisy//src/hid/disp/display.h ****         {
 2449              		.loc 3 239 26 view .LVU616
 2450              	.LBE733:
 2451              	.LBE732:
 2452              	.LBE763:
 277:Dubby.cpp     ****     
 2453              		.loc 2 277 5 is_stmt 1 view .LVU617
 277:Dubby.cpp     ****     
 2454              		.loc 2 277 66 is_stmt 0 view .LVU618
 2455 028e 039B     		ldr	r3, [sp, #12]
 277:Dubby.cpp     ****     
 2456              		.loc 2 277 49 view .LVU619
 2457 0290 F1EE046A 		vmov.f32	s13, #5.0e+0
 2458 0294 FFEE007A 		vmov.f32	s15, #-1.0e+0
 277:Dubby.cpp     ****     
 2459              		.loc 2 277 84 view .LVU620
 2460 0298 9FED3C7A 		vldr.32	s14, .L185
 277:Dubby.cpp     ****     
 2461              		.loc 2 277 66 view .LVU621
 2462 029c 03F59373 		add	r3, r3, #294
 277:Dubby.cpp     ****     
 2463              		.loc 2 277 32 view .LVU622
 2464 02a0 069D     		ldr	r5, [sp, #24]
 277:Dubby.cpp     ****     
 2465              		.loc 2 277 113 view .LVU623
 2466 02a2 079A     		ldr	r2, [sp, #28]
 277:Dubby.cpp     ****     
 2467              		.loc 2 277 66 view .LVU624
 2468 02a4 00EB8303 		add	r3, r0, r3, lsl #2
 277:Dubby.cpp     ****     
 2469              		.loc 2 277 49 view .LVU625
 2470 02a8 93ED006A 		vldr.32	s12, [r3]
 277:Dubby.cpp     ****     
 2471              		.loc 2 277 34 view .LVU626
 2472 02ac 099B     		ldr	r3, [sp, #36]
 277:Dubby.cpp     ****     
 2473              		.loc 2 277 49 view .LVU627
 2474 02ae E6EE267A 		vfma.f32	s15, s12, s13
 2475              	.LVL175:
 2476              	.LBB764:
 2477              	.LBI764:
  75:/Library/DaisyToolchain/0.2.0/arm/arm-none-eabi/include/c++/10.3.1/bits/std_abs.h ****   { return __builtin_fabsf(__x); }
 2478              		.loc 10 75 3 is_stmt 1 view .LVU628
 2479              	.LBB765:
ARM GAS  /var/folders/1y/_321xjh9623c014x9_qw12rr0000gn/T//ccE17DNe.s 			page 96


 2480              		.loc 10 76 5 view .LVU629
 2481              		.loc 10 76 5 is_stmt 0 view .LVU630
 2482              	.LBE765:
 2483              	.LBE764:
 277:Dubby.cpp     ****     
 2484              		.loc 2 277 34 view .LVU631
 2485 02b2 D3F8203A 		ldr	r3, [r3, #2592]
 277:Dubby.cpp     ****     
 2486              		.loc 2 277 32 view .LVU632
 2487 02b6 1D44     		add	r5, r5, r3
 277:Dubby.cpp     ****     
 2488              		.loc 2 277 113 view .LVU633
 2489 02b8 A2EB030C 		sub	ip, r2, r3
 2490              	.LVL176:
 2491              	.LBB767:
 2492              	.LBB768:
 2493              	.LBB769:
 266:../../libDaisy//src/hid/disp/display.h ****             {
 2494              		.loc 3 266 40 view .LVU634
 2495 02bc 6545     		cmp	r5, ip
 2496              	.LBE769:
 2497              	.LBE768:
 2498              	.LBE767:
 2499              	.LBB778:
 2500              	.LBB766:
 2501              		.loc 10 76 31 view .LVU635
 2502 02be F0EEE77A 		vabs.f32	s15, s15
 2503              	.LBE766:
 2504              	.LBE778:
 277:Dubby.cpp     ****     
 2505              		.loc 2 277 84 view .LVU636
 2506 02c2 67EE877A 		vmul.f32	s15, s15, s14
 277:Dubby.cpp     ****     
 2507              		.loc 2 277 42 view .LVU637
 2508 02c6 FDEEE77A 		vcvt.s32.f32	s15, s15
 2509 02ca 17EE907A 		vmov	r7, s15	@ int
 277:Dubby.cpp     ****     
 2510              		.loc 2 277 93 view .LVU638
 2511 02ce 07F10107 		add	r7, r7, #1
 2512              	.LVL177:
 2513              	.LBB779:
 2514              	.LBI767:
 257:../../libDaisy//src/hid/disp/display.h ****                   uint_fast8_t y1,
 2515              		.loc 3 257 10 is_stmt 1 view .LVU639
 2516              	.LBB777:
 2517              	.LBI768:
 257:../../libDaisy//src/hid/disp/display.h ****                   uint_fast8_t y1,
 2518              		.loc 3 257 10 view .LVU640
 2519              	.LBB776:
 266:../../libDaisy//src/hid/disp/display.h ****             {
 2520              		.loc 3 266 40 view .LVU641
 2521 02d2 18D8     		bhi	.L124
 2522              	.LVL178:
 2523              	.L121:
 2524              	.LBB770:
 2525              		.loc 3 268 44 view .LVU642
 2526 02d4 332F     		cmp	r7, #51
ARM GAS  /var/folders/1y/_321xjh9623c014x9_qw12rr0000gn/T//ccE17DNe.s 			page 97


 2527 02d6 13DC     		bgt	.L126
 2528              		.loc 3 268 44 is_stmt 0 view .LVU643
 2529 02d8 3A46     		mov	r2, r7
 2530              	.LVL179:
 2531              	.L123:
 2532              	.LBB771:
 2533              	.LBI771:
  42:../../libDaisy//src/hid/disp/oled_display.h ****     {
 2534              		.loc 1 42 10 is_stmt 1 view .LVU644
 2535              	.LBB772:
 2536              	.LBI772:
 352:../../libDaisy//src/dev/oled_ssd130x.h ****     {
 2537              		.loc 4 352 10 view .LVU645
 352:../../libDaisy//src/dev/oled_ssd130x.h ****     {
 2538              		.loc 4 352 10 is_stmt 0 view .LVU646
 2539              	.LBE772:
 2540              	.LBE771:
 2541              		.loc 3 268 17 is_stmt 1 view .LVU647
 2542              		.loc 3 268 44 view .LVU648
 2543              	.LBB775:
 2544              	.LBB774:
 2545              	.LBB773:
 357:../../libDaisy//src/dev/oled_ssd130x.h ****         else
 2546              		.loc 4 357 28 is_stmt 0 view .LVU649
 2547 02da D308     		lsrs	r3, r2, #3
 357:../../libDaisy//src/dev/oled_ssd130x.h ****         else
 2548              		.loc 4 357 54 view .LVU650
 2549 02dc 02F00706 		and	r6, r2, #7
 357:../../libDaisy//src/dev/oled_ssd130x.h ****         else
 2550              		.loc 4 357 48 view .LVU651
 2551 02e0 0121     		movs	r1, #1
 354:../../libDaisy//src/dev/oled_ssd130x.h ****             return;
 2552              		.loc 4 354 9 view .LVU652
 2553 02e2 7F2D     		cmp	r5, #127
 357:../../libDaisy//src/dev/oled_ssd130x.h ****         else
 2554              		.loc 4 357 42 view .LVU653
 2555 02e4 05EBC313 		add	r3, r5, r3, lsl #7
 2556 02e8 0A44     		add	r2, r2, r1
 2557              	.LVL180:
 357:../../libDaisy//src/dev/oled_ssd130x.h ****         else
 2558              		.loc 4 357 48 view .LVU654
 2559 02ea 01FA06F1 		lsl	r1, r1, r6
 357:../../libDaisy//src/dev/oled_ssd130x.h ****         else
 2560              		.loc 4 357 42 view .LVU655
 2561 02ee 0344     		add	r3, r3, r0
 354:../../libDaisy//src/dev/oled_ssd130x.h ****             return;
 2562              		.loc 4 354 9 view .LVU656
 2563 02f0 04D8     		bhi	.L125
 357:../../libDaisy//src/dev/oled_ssd130x.h ****         else
 2564              		.loc 4 357 42 view .LVU657
 2565 02f2 93F8BC64 		ldrb	r6, [r3, #1212]	@ zero_extendqisi2
 2566 02f6 3143     		orrs	r1, r1, r6
 2567 02f8 83F8BC14 		strb	r1, [r3, #1212]
 2568              	.L125:
 2569              	.LBE773:
 2570              	.LBE774:
 2571              	.LBE775:
ARM GAS  /var/folders/1y/_321xjh9623c014x9_qw12rr0000gn/T//ccE17DNe.s 			page 98


 2572              		.loc 3 268 44 view .LVU658
 2573 02fc 342A     		cmp	r2, #52
 2574 02fe ECD1     		bne	.L123
 2575              	.LVL181:
 2576              	.L126:
 2577              		.loc 3 268 44 view .LVU659
 2578              	.LBE770:
 266:../../libDaisy//src/hid/disp/display.h ****             {
 2579              		.loc 3 266 13 is_stmt 1 view .LVU660
 2580 0300 0135     		adds	r5, r5, #1
 2581              	.LVL182:
 266:../../libDaisy//src/hid/disp/display.h ****             {
 2582              		.loc 3 266 40 view .LVU661
 2583 0302 AC45     		cmp	ip, r5
 2584 0304 E6D2     		bcs	.L121
 2585              	.L124:
 266:../../libDaisy//src/hid/disp/display.h ****             {
 2586              		.loc 3 266 40 is_stmt 0 view .LVU662
 2587              	.LBE776:
 2588              	.LBE777:
 2589              	.LBE779:
 2590              	.LBB780:
 2591              	.LBB781:
 2592              	.LBB782:
 2593              	.LBB783:
 2594              	.LBB784:
 124:../../libDaisy//src/dev/oled_ssd130x.h ****         spi_.BlockingTransmit(&cmd, 1);
 2595              		.loc 4 124 24 view .LVU663
 2596 0306 00F59767 		add	r7, r0, #1208
 2597              	.LVL183:
 124:../../libDaisy//src/dev/oled_ssd130x.h ****         spi_.BlockingTransmit(&cmd, 1);
 2598              		.loc 4 124 24 view .LVU664
 2599 030a 04F10C06 		add	r6, r4, #12
 2600 030e 04F20C49 		addw	r9, r4, #1036
 2601 0312 B025     		movs	r5, #176
 2602              	.LVL184:
 2603              	.L122:
 124:../../libDaisy//src/dev/oled_ssd130x.h ****         spi_.BlockingTransmit(&cmd, 1);
 2604              		.loc 4 124 24 view .LVU665
 2605 0314 4FF00008 		mov	r8, #0
 124:../../libDaisy//src/dev/oled_ssd130x.h ****         spi_.BlockingTransmit(&cmd, 1);
 2606              		.loc 4 124 23 view .LVU666
 2607 0318 3846     		mov	r0, r7
 2608 031a 8DF82F50 		strb	r5, [sp, #47]
 2609              	.LVL185:
 124:../../libDaisy//src/dev/oled_ssd130x.h ****         spi_.BlockingTransmit(&cmd, 1);
 2610              		.loc 4 124 23 view .LVU667
 2611              	.LBE784:
 2612              	.LBI783:
 122:../../libDaisy//src/dev/oled_ssd130x.h ****     {
 2613              		.loc 4 122 10 is_stmt 1 view .LVU668
 2614              	.LBB785:
 124:../../libDaisy//src/dev/oled_ssd130x.h ****         spi_.BlockingTransmit(&cmd, 1);
 2615              		.loc 4 124 9 view .LVU669
 2616              	.LBE785:
 2617              	.LBE783:
 2618              		.loc 4 383 22 is_stmt 0 view .LVU670
ARM GAS  /var/folders/1y/_321xjh9623c014x9_qw12rr0000gn/T//ccE17DNe.s 			page 99


 2619 031e 0135     		adds	r5, r5, #1
 2620              	.LVL186:
 2621              	.LBB788:
 2622              	.LBB786:
 124:../../libDaisy//src/dev/oled_ssd130x.h ****         spi_.BlockingTransmit(&cmd, 1);
 2623              		.loc 4 124 23 view .LVU671
 2624 0320 4146     		mov	r1, r8
 2625 0322 FFF7FEFF 		bl	dsy_gpio_write
 2626              	.LVL187:
 125:../../libDaisy//src/dev/oled_ssd130x.h ****     };
 2627              		.loc 4 125 9 is_stmt 1 view .LVU672
 125:../../libDaisy//src/dev/oled_ssd130x.h ****     };
 2628              		.loc 4 125 30 is_stmt 0 view .LVU673
 2629 0326 6423     		movs	r3, #100
 2630 0328 0122     		movs	r2, #1
 2631 032a 0DF12F01 		add	r1, sp, #47
 2632 032e 2046     		mov	r0, r4
 2633              	.LBE786:
 2634              	.LBE788:
 2635              		.loc 4 383 22 view .LVU674
 2636 0330 EDB2     		uxtb	r5, r5
 2637              	.LBB789:
 2638              	.LBB787:
 125:../../libDaisy//src/dev/oled_ssd130x.h ****     };
 2639              		.loc 4 125 30 view .LVU675
 2640 0332 FFF7FEFF 		bl	_ZN5daisy9SpiHandle16BlockingTransmitEPhjm
 2641              	.LVL188:
 125:../../libDaisy//src/dev/oled_ssd130x.h ****     };
 2642              		.loc 4 125 30 view .LVU676
 2643              	.LBE787:
 2644              	.LBE789:
 2645              	.LBB790:
 2646              	.LBB791:
 124:../../libDaisy//src/dev/oled_ssd130x.h ****         spi_.BlockingTransmit(&cmd, 1);
 2647              		.loc 4 124 23 view .LVU677
 2648 0336 4146     		mov	r1, r8
 2649 0338 3846     		mov	r0, r7
 2650 033a 8DF82F80 		strb	r8, [sp, #47]
 2651              	.LVL189:
 124:../../libDaisy//src/dev/oled_ssd130x.h ****         spi_.BlockingTransmit(&cmd, 1);
 2652              		.loc 4 124 23 view .LVU678
 2653              	.LBE791:
 2654              	.LBI790:
 122:../../libDaisy//src/dev/oled_ssd130x.h ****     {
 2655              		.loc 4 122 10 is_stmt 1 view .LVU679
 2656              	.LBB792:
 124:../../libDaisy//src/dev/oled_ssd130x.h ****         spi_.BlockingTransmit(&cmd, 1);
 2657              		.loc 4 124 9 view .LVU680
 124:../../libDaisy//src/dev/oled_ssd130x.h ****         spi_.BlockingTransmit(&cmd, 1);
 2658              		.loc 4 124 23 is_stmt 0 view .LVU681
 2659 033e FFF7FEFF 		bl	dsy_gpio_write
 2660              	.LVL190:
 125:../../libDaisy//src/dev/oled_ssd130x.h ****     };
 2661              		.loc 4 125 9 is_stmt 1 view .LVU682
 125:../../libDaisy//src/dev/oled_ssd130x.h ****     };
 2662              		.loc 4 125 30 is_stmt 0 view .LVU683
 2663 0342 0122     		movs	r2, #1
ARM GAS  /var/folders/1y/_321xjh9623c014x9_qw12rr0000gn/T//ccE17DNe.s 			page 100


 2664 0344 6423     		movs	r3, #100
 2665 0346 0DF12F01 		add	r1, sp, #47
 2666 034a 2046     		mov	r0, r4
 2667 034c FFF7FEFF 		bl	_ZN5daisy9SpiHandle16BlockingTransmitEPhjm
 2668              	.LVL191:
 125:../../libDaisy//src/dev/oled_ssd130x.h ****     };
 2669              		.loc 4 125 30 view .LVU684
 2670 0350 1023     		movs	r3, #16
 2671              	.LBE792:
 2672              	.LBE790:
 2673              	.LBB793:
 2674              	.LBB794:
 124:../../libDaisy//src/dev/oled_ssd130x.h ****         spi_.BlockingTransmit(&cmd, 1);
 2675              		.loc 4 124 23 view .LVU685
 2676 0352 4146     		mov	r1, r8
 2677 0354 3846     		mov	r0, r7
 2678 0356 8DF82F30 		strb	r3, [sp, #47]
 2679              	.LVL192:
 124:../../libDaisy//src/dev/oled_ssd130x.h ****         spi_.BlockingTransmit(&cmd, 1);
 2680              		.loc 4 124 23 view .LVU686
 2681              	.LBE794:
 2682              	.LBI793:
 122:../../libDaisy//src/dev/oled_ssd130x.h ****     {
 2683              		.loc 4 122 10 is_stmt 1 view .LVU687
 2684              	.LBB795:
 124:../../libDaisy//src/dev/oled_ssd130x.h ****         spi_.BlockingTransmit(&cmd, 1);
 2685              		.loc 4 124 9 view .LVU688
 124:../../libDaisy//src/dev/oled_ssd130x.h ****         spi_.BlockingTransmit(&cmd, 1);
 2686              		.loc 4 124 23 is_stmt 0 view .LVU689
 2687 035a FFF7FEFF 		bl	dsy_gpio_write
 2688              	.LVL193:
 125:../../libDaisy//src/dev/oled_ssd130x.h ****     };
 2689              		.loc 4 125 9 is_stmt 1 view .LVU690
 125:../../libDaisy//src/dev/oled_ssd130x.h ****     };
 2690              		.loc 4 125 30 is_stmt 0 view .LVU691
 2691 035e 6423     		movs	r3, #100
 2692 0360 0122     		movs	r2, #1
 2693 0362 0DF12F01 		add	r1, sp, #47
 2694 0366 2046     		mov	r0, r4
 2695 0368 FFF7FEFF 		bl	_ZN5daisy9SpiHandle16BlockingTransmitEPhjm
 2696              	.LVL194:
 125:../../libDaisy//src/dev/oled_ssd130x.h ****     };
 2697              		.loc 4 125 30 view .LVU692
 2698              	.LBE795:
 2699              	.LBE793:
 2700              	.LBB796:
 2701              	.LBI796:
 128:../../libDaisy//src/dev/oled_ssd130x.h ****     {
 2702              		.loc 4 128 10 is_stmt 1 view .LVU693
 2703              	.LBB797:
 130:../../libDaisy//src/dev/oled_ssd130x.h ****         spi_.BlockingTransmit(buff, size);
 2704              		.loc 4 130 9 view .LVU694
 130:../../libDaisy//src/dev/oled_ssd130x.h ****         spi_.BlockingTransmit(buff, size);
 2705              		.loc 4 130 23 is_stmt 0 view .LVU695
 2706 036c 0121     		movs	r1, #1
 2707 036e 3846     		mov	r0, r7
 2708 0370 FFF7FEFF 		bl	dsy_gpio_write
ARM GAS  /var/folders/1y/_321xjh9623c014x9_qw12rr0000gn/T//ccE17DNe.s 			page 101


 2709              	.LVL195:
 131:../../libDaisy//src/dev/oled_ssd130x.h ****     };
 2710              		.loc 4 131 9 is_stmt 1 view .LVU696
 131:../../libDaisy//src/dev/oled_ssd130x.h ****     };
 2711              		.loc 4 131 30 is_stmt 0 view .LVU697
 2712 0374 8022     		movs	r2, #128
 2713 0376 3146     		mov	r1, r6
 2714 0378 6423     		movs	r3, #100
 2715              	.LBE797:
 2716              	.LBE796:
 2717              		.loc 4 383 22 view .LVU698
 2718 037a 1644     		add	r6, r6, r2
 2719              	.LVL196:
 2720              	.LBB799:
 2721              	.LBB798:
 131:../../libDaisy//src/dev/oled_ssd130x.h ****     };
 2722              		.loc 4 131 30 view .LVU699
 2723 037c 2046     		mov	r0, r4
 2724 037e FFF7FEFF 		bl	_ZN5daisy9SpiHandle16BlockingTransmitEPhjm
 2725              	.LVL197:
 131:../../libDaisy//src/dev/oled_ssd130x.h ****     };
 2726              		.loc 4 131 30 view .LVU700
 2727              	.LBE798:
 2728              	.LBE799:
 2729              		.loc 4 383 9 is_stmt 1 view .LVU701
 2730              		.loc 4 383 22 view .LVU702
 2731 0382 B145     		cmp	r9, r6
 2732 0384 C6D1     		bne	.L122
 2733              	.LBE782:
 2734              	.LBE781:
 2735              	.LBE780:
 280:Dubby.cpp     **** 
 2736              		.loc 2 280 1 is_stmt 0 view .LVU703
 2737 0386 0DB0     		add	sp, sp, #52
 2738              		.cfi_remember_state
 2739              		.cfi_def_cfa_offset 36
 2740              		@ sp needed
 2741 0388 BDE8F08F 		pop	{r4, r5, r6, r7, r8, r9, r10, fp, pc}
 2742              	.LVL198:
 2743              	.L186:
 280:Dubby.cpp     **** 
 2744              		.loc 2 280 1 view .LVU704
 2745              		.align	2
 2746              	.L185:
 2747 038c 00004C42 		.word	1112276992
 2748              	.LVL199:
 2749              	.L112:
 2750              		.cfi_restore_state
 2751              	.LBB800:
 2752              	.LBB754:
 2753              	.LBB752:
 2754              	.LBB750:
  42:../../libDaisy//src/hid/disp/oled_display.h ****     {
 2755              		.loc 1 42 10 is_stmt 1 view .LVU705
 2756              	.LBB741:
 352:../../libDaisy//src/dev/oled_ssd130x.h ****     {
 2757              		.loc 4 352 10 view .LVU706
ARM GAS  /var/folders/1y/_321xjh9623c014x9_qw12rr0000gn/T//ccE17DNe.s 			page 102


 2758              	.LBB738:
 354:../../libDaisy//src/dev/oled_ssd130x.h ****             return;
 2759              		.loc 4 354 9 is_stmt 0 view .LVU707
 2760 0390 7F2D     		cmp	r5, #127
 2761 0392 38D8     		bhi	.L138
 2762 0394 059B     		ldr	r3, [sp, #20]
 2763 0396 B3BB     		cbnz	r3, .L138
 2764              	.LBE738:
 2765              	.LBE741:
 2766              	.LBE750:
 230:../../libDaisy//src/hid/disp/display.h ****         int_fast16_t error  = deltaX - deltaY;
 2767              		.loc 3 230 42 view .LVU708
 2768 0398 4FF0010A 		mov	r10, #1
 2769              	.LVL200:
 2770              	.L128:
 2771              	.LBB751:
 2772              	.LBB742:
 2773              	.LBB739:
 357:../../libDaisy//src/dev/oled_ssd130x.h ****         else
 2774              		.loc 4 357 28 view .LVU709
 2775 039c FB08     		lsrs	r3, r7, #3
 357:../../libDaisy//src/dev/oled_ssd130x.h ****         else
 2776              		.loc 4 357 54 view .LVU710
 2777 039e 07F00701 		and	r1, r7, #7
 357:../../libDaisy//src/dev/oled_ssd130x.h ****         else
 2778              		.loc 4 357 48 view .LVU711
 2779 03a2 0122     		movs	r2, #1
 2780              	.LVL201:
 357:../../libDaisy//src/dev/oled_ssd130x.h ****         else
 2781              		.loc 4 357 42 view .LVU712
 2782 03a4 05EBC313 		add	r3, r5, r3, lsl #7
 357:../../libDaisy//src/dev/oled_ssd130x.h ****         else
 2783              		.loc 4 357 48 view .LVU713
 2784 03a8 8A40     		lsls	r2, r2, r1
 357:../../libDaisy//src/dev/oled_ssd130x.h ****         else
 2785              		.loc 4 357 42 view .LVU714
 2786 03aa 0344     		add	r3, r3, r0
 2787 03ac 93F8BC14 		ldrb	r1, [r3, #1212]	@ zero_extendqisi2
 2788 03b0 0A43     		orrs	r2, r2, r1
 2789 03b2 83F8BC24 		strb	r2, [r3, #1212]
 2790 03b6 41E7     		b	.L113
 2791              	.LVL202:
 2792              	.L184:
 357:../../libDaisy//src/dev/oled_ssd130x.h ****         else
 2793              		.loc 4 357 42 view .LVU715
 2794              	.LBE739:
 2795              	.LBE742:
 2796              	.LBE751:
 2797              	.LBE752:
 2798              	.LBE754:
 2799              	.LBB755:
 2800              	.LBB706:
 2801              	.LBB700:
  42:../../libDaisy//src/hid/disp/oled_display.h ****     {
 2802              		.loc 1 42 10 is_stmt 1 view .LVU716
 2803              	.LBB694:
 2804              	.LBB690:
ARM GAS  /var/folders/1y/_321xjh9623c014x9_qw12rr0000gn/T//ccE17DNe.s 			page 103


 2805              	.LBB686:
 354:../../libDaisy//src/dev/oled_ssd130x.h ****             return;
 2806              		.loc 4 354 14 is_stmt 0 view .LVU717
 2807 03b8 7F2A     		cmp	r2, #127
 2808              	.LBE686:
 2809              	.LBE690:
 2810              		.loc 1 44 26 view .LVU718
 2811 03ba 00F59664 		add	r4, r0, #1200
 2812              	.LVL203:
 2813              	.LBB691:
 352:../../libDaisy//src/dev/oled_ssd130x.h ****     {
 2814              		.loc 4 352 10 is_stmt 1 view .LVU719
 2815              	.LBE691:
 2816              	.LBE694:
 2817              	.LBE700:
 229:../../libDaisy//src/hid/disp/display.h ****         int_fast16_t signY  = ((y1 < y2) ? 1 : -1);
 2818              		.loc 3 229 42 is_stmt 0 view .LVU720
 2819 03be 4FF0FF3B 		mov	fp, #-1
 2820              	.LBB701:
 2821              	.LBB695:
 2822              	.LBB692:
 2823              	.LBB687:
 354:../../libDaisy//src/dev/oled_ssd130x.h ****             return;
 2824              		.loc 4 354 14 view .LVU721
 2825 03c2 94BF     		ite	ls
 2826 03c4 0023     		movls	r3, #0
 2827 03c6 0123     		movhi	r3, #1
 354:../../libDaisy//src/dev/oled_ssd130x.h ****             return;
 2828              		.loc 4 354 28 view .LVU722
 2829 03c8 3F2F     		cmp	r7, #63
 354:../../libDaisy//src/dev/oled_ssd130x.h ****             return;
 2830              		.loc 4 354 14 view .LVU723
 2831 03ca 0493     		str	r3, [sp, #16]
 354:../../libDaisy//src/dev/oled_ssd130x.h ****             return;
 2832              		.loc 4 354 28 view .LVU724
 2833 03cc 94BF     		ite	ls
 2834 03ce 0021     		movls	r1, #0
 2835 03d0 0121     		movhi	r1, #1
 2836 03d2 0591     		str	r1, [sp, #20]
 354:../../libDaisy//src/dev/oled_ssd130x.h ****             return;
 2837              		.loc 4 354 9 view .LVU725
 2838 03d4 8BB9     		cbnz	r3, .L88
 2839 03d6 81B9     		cbnz	r1, .L88
 2840              	.LVL204:
 2841              	.L127:
 357:../../libDaisy//src/dev/oled_ssd130x.h ****         else
 2842              		.loc 4 357 28 view .LVU726
 2843 03d8 FB08     		lsrs	r3, r7, #3
 357:../../libDaisy//src/dev/oled_ssd130x.h ****         else
 2844              		.loc 4 357 48 view .LVU727
 2845 03da 0121     		movs	r1, #1
 357:../../libDaisy//src/dev/oled_ssd130x.h ****         else
 2846              		.loc 4 357 54 view .LVU728
 2847 03dc 07F00706 		and	r6, r7, #7
 357:../../libDaisy//src/dev/oled_ssd130x.h ****         else
 2848              		.loc 4 357 42 view .LVU729
 2849 03e0 02EBC313 		add	r3, r2, r3, lsl #7
ARM GAS  /var/folders/1y/_321xjh9623c014x9_qw12rr0000gn/T//ccE17DNe.s 			page 104


 357:../../libDaisy//src/dev/oled_ssd130x.h ****         else
 2850              		.loc 4 357 48 view .LVU730
 2851 03e4 01FA06F6 		lsl	r6, r1, r6
 357:../../libDaisy//src/dev/oled_ssd130x.h ****         else
 2852              		.loc 4 357 42 view .LVU731
 2853 03e8 0344     		add	r3, r3, r0
 2854 03ea 93F8BC14 		ldrb	r1, [r3, #1212]	@ zero_extendqisi2
 2855 03ee 3143     		orrs	r1, r1, r6
 2856 03f0 83F8BC14 		strb	r1, [r3, #1212]
 2857 03f4 0023     		movs	r3, #0
 2858 03f6 CDE90433 		strd	r3, r3, [sp, #16]
 2859              	.L88:
 2860              	.LVL205:
 357:../../libDaisy//src/dev/oled_ssd130x.h ****         else
 2861              		.loc 4 357 42 view .LVU732
 2862              	.LBE687:
 2863              	.LBE692:
 2864              	.LBE695:
 2865              	.LBE701:
 239:../../libDaisy//src/hid/disp/display.h ****         {
 2866              		.loc 3 239 26 is_stmt 1 view .LVU733
 2867 03fa 9542     		cmp	r5, r2
 2868 03fc 7FF460AE 		bne	.L90
 239:../../libDaisy//src/hid/disp/display.h ****         {
 2869              		.loc 3 239 19 is_stmt 0 view .LVU734
 2870 0400 0123     		movs	r3, #1
 2871 0402 0893     		str	r3, [sp, #32]
 2872 0404 82E6     		b	.L89
 2873              	.LVL206:
 2874              	.L138:
 239:../../libDaisy//src/hid/disp/display.h ****         {
 2875              		.loc 3 239 19 view .LVU735
 2876              	.LBE706:
 2877              	.LBE755:
 2878              	.LBB756:
 2879              	.LBB753:
 231:../../libDaisy//src/hid/disp/display.h ****         int_fast16_t error2;
 2880              		.loc 3 231 22 view .LVU736
 2881 0406 B146     		mov	r9, r6
 230:../../libDaisy//src/hid/disp/display.h ****         int_fast16_t error  = deltaX - deltaY;
 2882              		.loc 3 230 42 view .LVU737
 2883 0408 4FF0010A 		mov	r10, #1
 2884 040c 19E7     		b	.L115
 2885              	.LBE753:
 2886              	.LBE756:
 2887              	.LBE800:
 2888              		.cfi_endproc
 2889              	.LFE3742:
 2891 040e 00BF     		.section	.text._ZN5daisy5Dubby15UpdateMixerPaneEv,"ax",%progbits
 2892              		.align	1
 2893              		.p2align 2,,3
 2894              		.global	_ZN5daisy5Dubby15UpdateMixerPaneEv
 2895              		.syntax unified
 2896              		.thumb
 2897              		.thumb_func
 2899              	_ZN5daisy5Dubby15UpdateMixerPaneEv:
 2900              	.LVL207:
ARM GAS  /var/folders/1y/_321xjh9623c014x9_qw12rr0000gn/T//ccE17DNe.s 			page 105


 2901              	.LFB3740:
 245:Dubby.cpp     ****     if(seed.system.GetNow() - screen_update_last_ > screen_update_period_)
 2902              		.loc 2 245 1 is_stmt 1 view -0
 2903              		.cfi_startproc
 2904              		@ args = 0, pretend = 0, frame = 0
 2905              		@ frame_needed = 0, uses_anonymous_args = 0
 246:Dubby.cpp     ****     {
 2906              		.loc 2 246 5 view .LVU739
 245:Dubby.cpp     ****     if(seed.system.GetNow() - screen_update_last_ > screen_update_period_)
 2907              		.loc 2 245 1 is_stmt 0 view .LVU740
 2908 0000 70B5     		push	{r4, r5, r6, lr}
 2909              		.cfi_def_cfa_offset 16
 2910              		.cfi_offset 4, -16
 2911              		.cfi_offset 5, -12
 2912              		.cfi_offset 6, -8
 2913              		.cfi_offset 14, -4
 245:Dubby.cpp     ****     if(seed.system.GetNow() - screen_update_last_ > screen_update_period_)
 2914              		.loc 2 245 1 view .LVU741
 2915 0002 0546     		mov	r5, r0
 2916              	.LBB808:
 246:Dubby.cpp     ****     {
 2917              		.loc 2 246 26 view .LVU742
 2918 0004 FFF7FEFF 		bl	_ZN5daisy6System6GetNowEv
 2919              	.LVL208:
 246:Dubby.cpp     ****     {
 2920              		.loc 2 246 31 view .LVU743
 2921 0008 05F51046 		add	r6, r5, #36864
 246:Dubby.cpp     ****     {
 2922              		.loc 2 246 29 view .LVU744
 2923 000c D6F8282A 		ldr	r2, [r6, #2600]
 246:Dubby.cpp     ****     {
 2924              		.loc 2 246 5 view .LVU745
 2925 0010 D6F82C3A 		ldr	r3, [r6, #2604]
 246:Dubby.cpp     ****     {
 2926              		.loc 2 246 29 view .LVU746
 2927 0014 801A     		subs	r0, r0, r2
 246:Dubby.cpp     ****     {
 2928              		.loc 2 246 5 view .LVU747
 2929 0016 9842     		cmp	r0, r3
 2930 0018 00D8     		bhi	.L192
 2931              	.LBE808:
 251:Dubby.cpp     **** 
 2932              		.loc 2 251 1 view .LVU748
 2933 001a 70BD     		pop	{r4, r5, r6, pc}
 2934              	.LVL209:
 2935              	.L192:
 2936              	.LBB809:
 2937              	.LBI809:
 244:Dubby.cpp     **** {
 2938              		.loc 2 244 6 is_stmt 1 view .LVU749
 2939              	.LBB810:
 248:Dubby.cpp     ****         for (int i = 0; i < 4; i++) UpdateBar(i);
 2940              		.loc 2 248 9 view .LVU750
 2941              	.LBB811:
 249:Dubby.cpp     ****     }
 2942              		.loc 2 249 18 is_stmt 0 view .LVU751
 2943 001c 0024     		movs	r4, #0
ARM GAS  /var/folders/1y/_321xjh9623c014x9_qw12rr0000gn/T//ccE17DNe.s 			page 106


 2944              	.LBE811:
 248:Dubby.cpp     ****         for (int i = 0; i < 4; i++) UpdateBar(i);
 2945              		.loc 2 248 49 view .LVU752
 2946 001e FFF7FEFF 		bl	_ZN5daisy6System6GetNowEv
 2947              	.LVL210:
 248:Dubby.cpp     ****         for (int i = 0; i < 4; i++) UpdateBar(i);
 2948              		.loc 2 248 29 view .LVU753
 2949 0022 C6F8280A 		str	r0, [r6, #2600]
 249:Dubby.cpp     ****     }
 2950              		.loc 2 249 9 is_stmt 1 view .LVU754
 2951              	.LVL211:
 2952              	.LBB812:
 249:Dubby.cpp     ****     }
 2953              		.loc 2 249 27 view .LVU755
 2954              	.L189:
 249:Dubby.cpp     ****     }
 2955              		.loc 2 249 37 view .LVU756
 249:Dubby.cpp     ****     }
 2956              		.loc 2 249 46 is_stmt 0 view .LVU757
 2957 0026 2146     		mov	r1, r4
 249:Dubby.cpp     ****     }
 2958              		.loc 2 249 9 view .LVU758
 2959 0028 0134     		adds	r4, r4, #1
 2960              	.LVL212:
 249:Dubby.cpp     ****     }
 2961              		.loc 2 249 46 view .LVU759
 2962 002a 2846     		mov	r0, r5
 2963 002c FFF7FEFF 		bl	_ZN5daisy5Dubby9UpdateBarEi
 2964              	.LVL213:
 249:Dubby.cpp     ****     }
 2965              		.loc 2 249 9 is_stmt 1 view .LVU760
 249:Dubby.cpp     ****     }
 2966              		.loc 2 249 27 view .LVU761
 2967 0030 042C     		cmp	r4, #4
 2968 0032 F8D1     		bne	.L189
 2969              	.LBE812:
 2970              	.LBE810:
 2971              	.LBE809:
 251:Dubby.cpp     **** 
 2972              		.loc 2 251 1 is_stmt 0 view .LVU762
 2973 0034 70BD     		pop	{r4, r5, r6, pc}
 251:Dubby.cpp     **** 
 2974              		.loc 2 251 1 view .LVU763
 2975              		.cfi_endproc
 2976              	.LFE3740:
 2978 0036 00BF     		.section	.text._ZN5daisy5Dubby11RenderScopeEv,"ax",%progbits
 2979              		.align	1
 2980              		.p2align 2,,3
 2981              		.global	_ZN5daisy5Dubby11RenderScopeEv
 2982              		.syntax unified
 2983              		.thumb
 2984              		.thumb_func
 2986              	_ZN5daisy5Dubby11RenderScopeEv:
 2987              	.LVL214:
 2988              	.LFB3743:
 283:Dubby.cpp     ****     if(seed.system.GetNow() - screen_update_last_ > screen_update_period_)
 2989              		.loc 2 283 1 is_stmt 1 view -0
ARM GAS  /var/folders/1y/_321xjh9623c014x9_qw12rr0000gn/T//ccE17DNe.s 			page 107


 2990              		.cfi_startproc
 2991              		@ args = 0, pretend = 0, frame = 0
 2992              		@ frame_needed = 0, uses_anonymous_args = 0
 284:Dubby.cpp     ****     {
 2993              		.loc 2 284 5 view .LVU765
 283:Dubby.cpp     ****     if(seed.system.GetNow() - screen_update_last_ > screen_update_period_)
 2994              		.loc 2 283 1 is_stmt 0 view .LVU766
 2995 0000 10B5     		push	{r4, lr}
 2996              		.cfi_def_cfa_offset 8
 2997              		.cfi_offset 4, -8
 2998              		.cfi_offset 14, -4
 283:Dubby.cpp     ****     if(seed.system.GetNow() - screen_update_last_ > screen_update_period_)
 2999              		.loc 2 283 1 view .LVU767
 3000 0002 0446     		mov	r4, r0
 3001              	.LBB814:
 284:Dubby.cpp     ****     {
 3002              		.loc 2 284 26 view .LVU768
 3003 0004 FFF7FEFF 		bl	_ZN5daisy6System6GetNowEv
 3004              	.LVL215:
 284:Dubby.cpp     ****     {
 3005              		.loc 2 284 31 view .LVU769
 3006 0008 04F51043 		add	r3, r4, #36864
 284:Dubby.cpp     ****     {
 3007              		.loc 2 284 29 view .LVU770
 3008 000c D3F8282A 		ldr	r2, [r3, #2600]
 284:Dubby.cpp     ****     {
 3009              		.loc 2 284 5 view .LVU771
 3010 0010 D3F82C3A 		ldr	r3, [r3, #2604]
 284:Dubby.cpp     ****     {
 3011              		.loc 2 284 29 view .LVU772
 3012 0014 801A     		subs	r0, r0, r2
 284:Dubby.cpp     ****     {
 3013              		.loc 2 284 5 view .LVU773
 3014 0016 9842     		cmp	r0, r3
 3015 0018 00D8     		bhi	.L196
 3016              	.LBE814:
 307:Dubby.cpp     **** 
 3017              		.loc 2 307 1 view .LVU774
 3018 001a 10BD     		pop	{r4, pc}
 3019              	.LVL216:
 3020              	.L196:
 307:Dubby.cpp     **** 
 3021              		.loc 2 307 1 view .LVU775
 3022 001c 2046     		mov	r0, r4
 3023 001e BDE81040 		pop	{r4, lr}
 3024              		.cfi_restore 14
 3025              		.cfi_restore 4
 3026              		.cfi_def_cfa_offset 0
 3027              	.LVL217:
 307:Dubby.cpp     **** 
 3028              		.loc 2 307 1 view .LVU776
 3029 0022 FFF7FEBF 		b	_ZN5daisy5Dubby11RenderScopeEv.part.0
 3030              	.LVL218:
 307:Dubby.cpp     **** 
 3031              		.loc 2 307 1 view .LVU777
 3032              		.cfi_endproc
 3033              	.LFE3743:
ARM GAS  /var/folders/1y/_321xjh9623c014x9_qw12rr0000gn/T//ccE17DNe.s 			page 108


 3035 0026 00BF     		.section	.text._ZN5daisy5Dubby17SwitchMIDIOutThruEb,"ax",%progbits
 3036              		.align	1
 3037              		.p2align 2,,3
 3038              		.global	_ZN5daisy5Dubby17SwitchMIDIOutThruEb
 3039              		.syntax unified
 3040              		.thumb
 3041              		.thumb_func
 3043              	_ZN5daisy5Dubby17SwitchMIDIOutThruEb:
 3044              	.LVL219:
 3045              	.LFB3747:
 348:Dubby.cpp     ****     // state == true => PIN IS HIGH => MIDI THRU
 3046              		.loc 2 348 1 is_stmt 1 view -0
 3047              		.cfi_startproc
 3048              		@ args = 0, pretend = 0, frame = 0
 3049              		@ frame_needed = 0, uses_anonymous_args = 0
 3050              		@ link register save eliminated.
 351:Dubby.cpp     **** }
 3051              		.loc 2 351 5 view .LVU779
 348:Dubby.cpp     ****     // state == true => PIN IS HIGH => MIDI THRU
 3052              		.loc 2 348 1 is_stmt 0 view .LVU780
 3053 0000 0346     		mov	r3, r0
 351:Dubby.cpp     **** }
 3054              		.loc 2 351 19 view .LVU781
 3055 0002 49F61C20 		movw	r0, #39452
 3056              	.LVL220:
 351:Dubby.cpp     **** }
 3057              		.loc 2 351 19 view .LVU782
 3058 0006 1844     		add	r0, r0, r3
 3059 0008 FFF7FEBF 		b	dsy_gpio_write
 3060              	.LVL221:
 351:Dubby.cpp     **** }
 3061              		.loc 2 351 19 view .LVU783
 3062              		.cfi_endproc
 3063              	.LFE3747:
 3065              		.section	.text._ZN5daisy5Dubby11InitEncoderEv,"ax",%progbits
 3066              		.align	1
 3067              		.p2align 2,,3
 3068              		.global	_ZN5daisy5Dubby11InitEncoderEv
 3069              		.syntax unified
 3070              		.thumb
 3071              		.thumb_func
 3073              	_ZN5daisy5Dubby11InitEncoderEv:
 3074              	.LVL222:
 3075              	.LFB3748:
 355:Dubby.cpp     ****     encoder.Init(seed.GetPin(PIN_ENC_A),
 3076              		.loc 2 355 1 is_stmt 1 view -0
 3077              		.cfi_startproc
 3078              		@ args = 0, pretend = 0, frame = 16
 3079              		@ frame_needed = 0, uses_anonymous_args = 0
 356:Dubby.cpp     ****                 seed.GetPin(PIN_ENC_B),
 3080              		.loc 2 356 5 view .LVU785
 355:Dubby.cpp     ****     encoder.Init(seed.GetPin(PIN_ENC_A),
 3081              		.loc 2 355 1 is_stmt 0 view .LVU786
 3082 0000 10B5     		push	{r4, lr}
 3083              		.cfi_def_cfa_offset 8
 3084              		.cfi_offset 4, -8
 3085              		.cfi_offset 14, -4
ARM GAS  /var/folders/1y/_321xjh9623c014x9_qw12rr0000gn/T//ccE17DNe.s 			page 109


 3086 0002 0446     		mov	r4, r0
 3087 0004 84B0     		sub	sp, sp, #16
 3088              		.cfi_def_cfa_offset 24
 356:Dubby.cpp     ****                 seed.GetPin(PIN_ENC_B),
 3089              		.loc 2 356 17 view .LVU787
 3090 0006 0620     		movs	r0, #6
 3091              	.LVL223:
 356:Dubby.cpp     ****                 seed.GetPin(PIN_ENC_B),
 3092              		.loc 2 356 17 view .LVU788
 3093 0008 FFF7FEFF 		bl	_ZN5daisy9DaisySeed6GetPinEh
 3094              	.LVL224:
 3095 000c 0346     		mov	r3, r0	@ movhi
 3096 000e 0520     		movs	r0, #5
 3097 0010 ADF80430 		strh	r3, [sp, #4]	@ movhi
 3098 0014 FFF7FEFF 		bl	_ZN5daisy9DaisySeed6GetPinEh
 3099              	.LVL225:
 3100 0018 0346     		mov	r3, r0	@ movhi
 3101 001a 0420     		movs	r0, #4
 3102 001c ADF80830 		strh	r3, [sp, #8]	@ movhi
 3103 0020 FFF7FEFF 		bl	_ZN5daisy9DaisySeed6GetPinEh
 3104              	.LVL226:
 3105 0024 ADF80C00 		strh	r0, [sp, #12]	@ movhi
 3106 0028 04F1F800 		add	r0, r4, #248
 3107 002c 9FED040A 		vldr.32	s0, .L200
 3108 0030 039B     		ldr	r3, [sp, #12]
 3109 0032 DDE90112 		ldrd	r1, r2, [sp, #4]
 359:Dubby.cpp     **** 
 3110              		.loc 2 359 1 view .LVU789
 3111 0036 04B0     		add	sp, sp, #16
 3112              		.cfi_def_cfa_offset 8
 3113              		@ sp needed
 3114 0038 BDE81040 		pop	{r4, lr}
 3115              		.cfi_restore 14
 3116              		.cfi_restore 4
 3117              		.cfi_def_cfa_offset 0
 3118              	.LVL227:
 356:Dubby.cpp     ****                 seed.GetPin(PIN_ENC_B),
 3119              		.loc 2 356 17 view .LVU790
 3120 003c FFF7FEBF 		b	_ZN5daisy7Encoder4InitE12dsy_gpio_pinS1_S1_f
 3121              	.LVL228:
 3122              	.L201:
 356:Dubby.cpp     ****                 seed.GetPin(PIN_ENC_B),
 3123              		.loc 2 356 17 view .LVU791
 3124              		.align	2
 3125              	.L200:
 3126 0040 00000000 		.word	0
 3127              		.cfi_endproc
 3128              	.LFE3748:
 3130              		.section	.text._ZN5daisy5Dubby18ProcessAllControlsEv,"ax",%progbits
 3131              		.align	1
 3132              		.p2align 2,,3
 3133              		.global	_ZN5daisy5Dubby18ProcessAllControlsEv
 3134              		.syntax unified
 3135              		.thumb
 3136              		.thumb_func
 3138              	_ZN5daisy5Dubby18ProcessAllControlsEv:
 3139              	.LVL229:
ARM GAS  /var/folders/1y/_321xjh9623c014x9_qw12rr0000gn/T//ccE17DNe.s 			page 110


 3140              	.LFB3749:
 362:Dubby.cpp     ****     ProcessAnalogControls();
 3141              		.loc 2 362 1 is_stmt 1 view -0
 3142              		.cfi_startproc
 3143              		@ args = 0, pretend = 0, frame = 0
 3144              		@ frame_needed = 0, uses_anonymous_args = 0
 363:Dubby.cpp     ****     ProcessDigitalControls();
 3145              		.loc 2 363 5 view .LVU793
 362:Dubby.cpp     ****     ProcessAnalogControls();
 3146              		.loc 2 362 1 is_stmt 0 view .LVU794
 3147 0000 70B5     		push	{r4, r5, r6, lr}
 3148              		.cfi_def_cfa_offset 16
 3149              		.cfi_offset 4, -16
 3150              		.cfi_offset 5, -12
 3151              		.cfi_offset 6, -8
 3152              		.cfi_offset 14, -4
 362:Dubby.cpp     ****     ProcessAnalogControls();
 3153              		.loc 2 362 1 view .LVU795
 3154 0002 0546     		mov	r5, r0
 3155              	.LVL230:
 3156              	.LBB820:
 3157              	.LBI820:
 367:Dubby.cpp     **** {
 3158              		.loc 2 367 6 is_stmt 1 view .LVU796
 3159              	.LBE820:
 369:Dubby.cpp     ****         analogInputs[i].Process();
 3160              		.loc 2 369 5 view .LVU797
 3161              	.LBB822:
 3162              	.LBB821:
 369:Dubby.cpp     ****         analogInputs[i].Process();
 3163              		.loc 2 369 25 view .LVU798
 3164 0004 00F59074 		add	r4, r0, #288
 3165 0008 00F5F076 		add	r6, r0, #480
 3166              	.LVL231:
 3167              	.L203:
 370:Dubby.cpp     **** }
 3168              		.loc 2 370 9 view .LVU799
 370:Dubby.cpp     **** }
 3169              		.loc 2 370 32 is_stmt 0 view .LVU800
 3170 000c 2046     		mov	r0, r4
 369:Dubby.cpp     ****         analogInputs[i].Process();
 3171              		.loc 2 369 25 view .LVU801
 3172 000e 2034     		adds	r4, r4, #32
 370:Dubby.cpp     **** }
 3173              		.loc 2 370 32 view .LVU802
 3174 0010 FFF7FEFF 		bl	_ZN5daisy13AnalogControl7ProcessEv
 3175              	.LVL232:
 369:Dubby.cpp     ****         analogInputs[i].Process();
 3176              		.loc 2 369 5 is_stmt 1 view .LVU803
 369:Dubby.cpp     ****         analogInputs[i].Process();
 3177              		.loc 2 369 25 view .LVU804
 3178 0014 B442     		cmp	r4, r6
 3179 0016 F9D1     		bne	.L203
 3180              	.LVL233:
 369:Dubby.cpp     ****         analogInputs[i].Process();
 3181              		.loc 2 369 25 is_stmt 0 view .LVU805
 3182              	.LBE821:
ARM GAS  /var/folders/1y/_321xjh9623c014x9_qw12rr0000gn/T//ccE17DNe.s 			page 111


 3183              	.LBE822:
 364:Dubby.cpp     **** }
 3184              		.loc 2 364 5 is_stmt 1 view .LVU806
 3185              	.LBB823:
 3186              	.LBI823:
 373:Dubby.cpp     **** {
 3187              		.loc 2 373 6 view .LVU807
 3188              	.LBB824:
 375:Dubby.cpp     **** 
 3189              		.loc 2 375 5 view .LVU808
 375:Dubby.cpp     **** 
 3190              		.loc 2 375 21 is_stmt 0 view .LVU809
 3191 0018 05F1F800 		add	r0, r5, #248
 3192 001c FFF7FEFF 		bl	_ZN5daisy7Encoder8DebounceEv
 3193              	.LVL234:
 377:Dubby.cpp     **** }
 3194              		.loc 2 377 5 is_stmt 1 view .LVU810
 3195              	.LBB825:
 377:Dubby.cpp     **** }
 3196              		.loc 2 377 23 view .LVU811
 377:Dubby.cpp     **** }
 3197              		.loc 2 377 33 view .LVU812
 377:Dubby.cpp     **** }
 3198              		.loc 2 377 52 is_stmt 0 view .LVU813
 3199 0020 05F51670 		add	r0, r5, #600
 3200 0024 FFF7FEFF 		bl	_ZN5daisy6Switch8DebounceEv
 3201              	.LVL235:
 377:Dubby.cpp     **** }
 3202              		.loc 2 377 5 is_stmt 1 view .LVU814
 377:Dubby.cpp     **** }
 3203              		.loc 2 377 23 view .LVU815
 377:Dubby.cpp     **** }
 3204              		.loc 2 377 33 view .LVU816
 377:Dubby.cpp     **** }
 3205              		.loc 2 377 52 is_stmt 0 view .LVU817
 3206 0028 05F51A70 		add	r0, r5, #616
 3207 002c FFF7FEFF 		bl	_ZN5daisy6Switch8DebounceEv
 3208              	.LVL236:
 377:Dubby.cpp     **** }
 3209              		.loc 2 377 5 is_stmt 1 view .LVU818
 377:Dubby.cpp     **** }
 3210              		.loc 2 377 23 view .LVU819
 377:Dubby.cpp     **** }
 3211              		.loc 2 377 33 view .LVU820
 377:Dubby.cpp     **** }
 3212              		.loc 2 377 52 is_stmt 0 view .LVU821
 3213 0030 05F51E70 		add	r0, r5, #632
 3214 0034 FFF7FEFF 		bl	_ZN5daisy6Switch8DebounceEv
 3215              	.LVL237:
 377:Dubby.cpp     **** }
 3216              		.loc 2 377 5 is_stmt 1 view .LVU822
 377:Dubby.cpp     **** }
 3217              		.loc 2 377 23 view .LVU823
 377:Dubby.cpp     **** }
 3218              		.loc 2 377 33 view .LVU824
 377:Dubby.cpp     **** }
 3219              		.loc 2 377 52 is_stmt 0 view .LVU825
ARM GAS  /var/folders/1y/_321xjh9623c014x9_qw12rr0000gn/T//ccE17DNe.s 			page 112


 3220 0038 05F52270 		add	r0, r5, #648
 3221              	.LBE825:
 3222              	.LBE824:
 3223              	.LBE823:
 365:Dubby.cpp     **** 
 3224              		.loc 2 365 1 view .LVU826
 3225 003c BDE87040 		pop	{r4, r5, r6, lr}
 3226              		.cfi_restore 14
 3227              		.cfi_restore 6
 3228              		.cfi_restore 5
 3229              		.cfi_restore 4
 3230              		.cfi_def_cfa_offset 0
 3231              	.LVL238:
 3232              	.LBB828:
 3233              	.LBB827:
 3234              	.LBB826:
 377:Dubby.cpp     **** }
 3235              		.loc 2 377 52 view .LVU827
 3236 0040 FFF7FEBF 		b	_ZN5daisy6Switch8DebounceEv
 3237              	.LVL239:
 377:Dubby.cpp     **** }
 3238              		.loc 2 377 52 view .LVU828
 3239              	.LBE826:
 3240              	.LBE827:
 3241              	.LBE828:
 3242              		.cfi_endproc
 3243              	.LFE3749:
 3245              		.section	.text._ZN5daisy5Dubby21ProcessAnalogControlsEv,"ax",%progbits
 3246              		.align	1
 3247              		.p2align 2,,3
 3248              		.global	_ZN5daisy5Dubby21ProcessAnalogControlsEv
 3249              		.syntax unified
 3250              		.thumb
 3251              		.thumb_func
 3253              	_ZN5daisy5Dubby21ProcessAnalogControlsEv:
 3254              	.LVL240:
 3255              	.LFB3750:
 368:Dubby.cpp     ****     for(size_t i = 0; i < CTRL_LAST; i++)
 3256              		.loc 2 368 1 is_stmt 1 view -0
 3257              		.cfi_startproc
 3258              		@ args = 0, pretend = 0, frame = 0
 3259              		@ frame_needed = 0, uses_anonymous_args = 0
 369:Dubby.cpp     ****         analogInputs[i].Process();
 3260              		.loc 2 369 5 view .LVU830
 3261              	.LBB829:
 369:Dubby.cpp     ****         analogInputs[i].Process();
 3262              		.loc 2 369 25 view .LVU831
 3263              	.LBE829:
 368:Dubby.cpp     ****     for(size_t i = 0; i < CTRL_LAST; i++)
 3264              		.loc 2 368 1 is_stmt 0 view .LVU832
 3265 0000 38B5     		push	{r3, r4, r5, lr}
 3266              		.cfi_def_cfa_offset 16
 3267              		.cfi_offset 3, -16
 3268              		.cfi_offset 4, -12
 3269              		.cfi_offset 5, -8
 3270              		.cfi_offset 14, -4
 3271 0002 00F59074 		add	r4, r0, #288
ARM GAS  /var/folders/1y/_321xjh9623c014x9_qw12rr0000gn/T//ccE17DNe.s 			page 113


 3272 0006 00F5F075 		add	r5, r0, #480
 3273              	.LVL241:
 3274              	.L207:
 3275              	.LBB830:
 370:Dubby.cpp     **** }
 3276              		.loc 2 370 9 is_stmt 1 discriminator 2 view .LVU833
 370:Dubby.cpp     **** }
 3277              		.loc 2 370 32 is_stmt 0 discriminator 2 view .LVU834
 3278 000a 2046     		mov	r0, r4
 369:Dubby.cpp     ****         analogInputs[i].Process();
 3279              		.loc 2 369 25 discriminator 2 view .LVU835
 3280 000c 2034     		adds	r4, r4, #32
 370:Dubby.cpp     **** }
 3281              		.loc 2 370 32 discriminator 2 view .LVU836
 3282 000e FFF7FEFF 		bl	_ZN5daisy13AnalogControl7ProcessEv
 3283              	.LVL242:
 369:Dubby.cpp     ****         analogInputs[i].Process();
 3284              		.loc 2 369 5 is_stmt 1 discriminator 2 view .LVU837
 369:Dubby.cpp     ****         analogInputs[i].Process();
 3285              		.loc 2 369 25 discriminator 2 view .LVU838
 3286 0012 AC42     		cmp	r4, r5
 3287 0014 F9D1     		bne	.L207
 3288              	.LBE830:
 371:Dubby.cpp     **** 
 3289              		.loc 2 371 1 is_stmt 0 view .LVU839
 3290 0016 38BD     		pop	{r3, r4, r5, pc}
 371:Dubby.cpp     **** 
 3291              		.loc 2 371 1 view .LVU840
 3292              		.cfi_endproc
 3293              	.LFE3750:
 3295              		.section	.text._ZN5daisy5Dubby22ProcessDigitalControlsEv,"ax",%progbits
 3296              		.align	1
 3297              		.p2align 2,,3
 3298              		.global	_ZN5daisy5Dubby22ProcessDigitalControlsEv
 3299              		.syntax unified
 3300              		.thumb
 3301              		.thumb_func
 3303              	_ZN5daisy5Dubby22ProcessDigitalControlsEv:
 3304              	.LVL243:
 3305              	.LFB3751:
 374:Dubby.cpp     ****     encoder.Debounce();
 3306              		.loc 2 374 1 is_stmt 1 view -0
 3307              		.cfi_startproc
 3308              		@ args = 0, pretend = 0, frame = 0
 3309              		@ frame_needed = 0, uses_anonymous_args = 0
 375:Dubby.cpp     **** 
 3310              		.loc 2 375 5 view .LVU842
 374:Dubby.cpp     ****     encoder.Debounce();
 3311              		.loc 2 374 1 is_stmt 0 view .LVU843
 3312 0000 10B5     		push	{r4, lr}
 3313              		.cfi_def_cfa_offset 8
 3314              		.cfi_offset 4, -8
 3315              		.cfi_offset 14, -4
 374:Dubby.cpp     ****     encoder.Debounce();
 3316              		.loc 2 374 1 view .LVU844
 3317 0002 0446     		mov	r4, r0
 375:Dubby.cpp     **** 
ARM GAS  /var/folders/1y/_321xjh9623c014x9_qw12rr0000gn/T//ccE17DNe.s 			page 114


 3318              		.loc 2 375 21 view .LVU845
 3319 0004 F830     		adds	r0, r0, #248
 3320              	.LVL244:
 375:Dubby.cpp     **** 
 3321              		.loc 2 375 21 view .LVU846
 3322 0006 FFF7FEFF 		bl	_ZN5daisy7Encoder8DebounceEv
 3323              	.LVL245:
 377:Dubby.cpp     **** }
 3324              		.loc 2 377 5 is_stmt 1 view .LVU847
 3325              	.LBB831:
 377:Dubby.cpp     **** }
 3326              		.loc 2 377 23 view .LVU848
 377:Dubby.cpp     **** }
 3327              		.loc 2 377 33 view .LVU849
 377:Dubby.cpp     **** }
 3328              		.loc 2 377 52 is_stmt 0 view .LVU850
 3329 000a 04F51670 		add	r0, r4, #600
 3330 000e FFF7FEFF 		bl	_ZN5daisy6Switch8DebounceEv
 3331              	.LVL246:
 377:Dubby.cpp     **** }
 3332              		.loc 2 377 5 is_stmt 1 view .LVU851
 377:Dubby.cpp     **** }
 3333              		.loc 2 377 23 view .LVU852
 377:Dubby.cpp     **** }
 3334              		.loc 2 377 33 view .LVU853
 377:Dubby.cpp     **** }
 3335              		.loc 2 377 52 is_stmt 0 view .LVU854
 3336 0012 04F51A70 		add	r0, r4, #616
 3337 0016 FFF7FEFF 		bl	_ZN5daisy6Switch8DebounceEv
 3338              	.LVL247:
 377:Dubby.cpp     **** }
 3339              		.loc 2 377 5 is_stmt 1 view .LVU855
 377:Dubby.cpp     **** }
 3340              		.loc 2 377 23 view .LVU856
 377:Dubby.cpp     **** }
 3341              		.loc 2 377 33 view .LVU857
 377:Dubby.cpp     **** }
 3342              		.loc 2 377 52 is_stmt 0 view .LVU858
 3343 001a 04F51E70 		add	r0, r4, #632
 3344 001e FFF7FEFF 		bl	_ZN5daisy6Switch8DebounceEv
 3345              	.LVL248:
 377:Dubby.cpp     **** }
 3346              		.loc 2 377 5 is_stmt 1 view .LVU859
 377:Dubby.cpp     **** }
 3347              		.loc 2 377 23 view .LVU860
 377:Dubby.cpp     **** }
 3348              		.loc 2 377 33 view .LVU861
 377:Dubby.cpp     **** }
 3349              		.loc 2 377 52 is_stmt 0 view .LVU862
 3350 0022 04F52270 		add	r0, r4, #648
 3351              	.LBE831:
 378:Dubby.cpp     **** 
 3352              		.loc 2 378 1 view .LVU863
 3353 0026 BDE81040 		pop	{r4, lr}
 3354              		.cfi_restore 14
 3355              		.cfi_restore 4
 3356              		.cfi_def_cfa_offset 0
ARM GAS  /var/folders/1y/_321xjh9623c014x9_qw12rr0000gn/T//ccE17DNe.s 			page 115


 3357              	.LVL249:
 3358              	.LBB832:
 377:Dubby.cpp     **** }
 3359              		.loc 2 377 52 view .LVU864
 3360 002a FFF7FEBF 		b	_ZN5daisy6Switch8DebounceEv
 3361              	.LVL250:
 377:Dubby.cpp     **** }
 3362              		.loc 2 377 52 view .LVU865
 3363              	.LBE832:
 3364              		.cfi_endproc
 3365              	.LFE3751:
 3367 002e 00BF     		.section	.text._ZN5daisy5Dubby12GetKnobValueENS0_4CtrlE,"ax",%progbits
 3368              		.align	1
 3369              		.p2align 2,,3
 3370              		.global	_ZN5daisy5Dubby12GetKnobValueENS0_4CtrlE
 3371              		.syntax unified
 3372              		.thumb
 3373              		.thumb_func
 3375              	_ZN5daisy5Dubby12GetKnobValueENS0_4CtrlE:
 3376              	.LVL251:
 3377              	.LFB3752:
 381:Dubby.cpp     ****     return (analogInputs[k].Value());
 3378              		.loc 2 381 1 is_stmt 1 view -0
 3379              		.cfi_startproc
 3380              		@ args = 0, pretend = 0, frame = 0
 3381              		@ frame_needed = 0, uses_anonymous_args = 0
 3382              		@ link register save eliminated.
 3383              		.loc 2 382 5 view .LVU867
 3384              	.LBB833:
 3385              	.LBI833:
 3386              		.loc 9 56 18 view .LVU868
 3387              	.LBB834:
 3388              		.loc 9 56 34 view .LVU869
 3389              		.loc 9 56 41 is_stmt 0 view .LVU870
 3390 0000 00EB4111 		add	r1, r0, r1, lsl #5
 3391              	.LVL252:
 3392              		.loc 9 56 41 view .LVU871
 3393              	.LBE834:
 3394              	.LBE833:
 383:Dubby.cpp     **** }
 3395              		.loc 2 383 1 view .LVU872
 3396 0004 91ED4B0A 		vldr.32	s0, [r1, #300]
 3397 0008 7047     		bx	lr
 3398              		.cfi_endproc
 3399              	.LFE3752:
 3401 000a 00BF     		.section	.text._ZN5daisy5Dubby9InitAudioEv,"ax",%progbits
 3402              		.align	1
 3403              		.p2align 2,,3
 3404              		.global	_ZN5daisy5Dubby9InitAudioEv
 3405              		.syntax unified
 3406              		.thumb
 3407              		.thumb_func
 3409              	_ZN5daisy5Dubby9InitAudioEv:
 3410              	.LVL253:
 3411              	.LFB3753:
 384:Dubby.cpp     **** 
 385:Dubby.cpp     **** void Dubby::InitAudio() 
ARM GAS  /var/folders/1y/_321xjh9623c014x9_qw12rr0000gn/T//ccE17DNe.s 			page 116


 386:Dubby.cpp     **** {
 3412              		.loc 2 386 1 is_stmt 1 view -0
 3413              		.cfi_startproc
 3414              		@ args = 0, pretend = 0, frame = 136
 3415              		@ frame_needed = 0, uses_anonymous_args = 0
 387:Dubby.cpp     ****     // Handle Seed Audio as-is and then
 388:Dubby.cpp     ****     SaiHandle::Config sai_config[2];
 3416              		.loc 2 388 5 view .LVU874
 389:Dubby.cpp     ****     // Internal Codec
 390:Dubby.cpp     ****     if(seed.CheckBoardVersion() == DaisySeed::BoardVersion::DAISY_SEED_1_1)
 3417              		.loc 2 390 5 view .LVU875
 386:Dubby.cpp     ****     // Handle Seed Audio as-is and then
 3418              		.loc 2 386 1 is_stmt 0 view .LVU876
 3419 0000 2DE9F041 		push	{r4, r5, r6, r7, r8, lr}
 3420              		.cfi_def_cfa_offset 24
 3421              		.cfi_offset 4, -24
 3422              		.cfi_offset 5, -20
 3423              		.cfi_offset 6, -16
 3424              		.cfi_offset 7, -12
 3425              		.cfi_offset 8, -8
 3426              		.cfi_offset 14, -4
 3427 0004 0746     		mov	r7, r0
 3428 0006 A2B0     		sub	sp, sp, #136
 3429              		.cfi_def_cfa_offset 160
 3430              		.loc 2 390 30 view .LVU877
 3431 0008 1C30     		adds	r0, r0, #28
 3432              	.LVL254:
 391:Dubby.cpp     ****     {
 392:Dubby.cpp     ****         sai_config[0].pin_config.sa = {DSY_GPIOE, 6};
 3433              		.loc 2 392 37 view .LVU878
 3434 000a 3F4D     		ldr	r5, .L218
 390:Dubby.cpp     ****     {
 3435              		.loc 2 390 30 view .LVU879
 3436 000c FFF7FEFF 		bl	_ZN5daisy9DaisySeed17CheckBoardVersionEv
 3437              	.LVL255:
 390:Dubby.cpp     ****     {
 3438              		.loc 2 390 5 view .LVU880
 3439 0010 0128     		cmp	r0, #1
 393:Dubby.cpp     ****         sai_config[0].pin_config.sb = {DSY_GPIOE, 3};
 394:Dubby.cpp     ****         sai_config[0].a_dir         = SaiHandle::Config::Direction::RECEIVE;
 395:Dubby.cpp     ****         sai_config[0].b_dir         = SaiHandle::Config::Direction::TRANSMIT;
 3440              		.loc 2 395 37 view .LVU881
 3441 0012 4FF00001 		mov	r1, #0
 390:Dubby.cpp     ****     {
 3442              		.loc 2 390 5 view .LVU882
 3443 0016 6DD0     		beq	.L217
 396:Dubby.cpp     ****     }
 397:Dubby.cpp     ****     else
 398:Dubby.cpp     ****     {
 399:Dubby.cpp     ****         sai_config[0].pin_config.sa = {DSY_GPIOE, 6};
 3444              		.loc 2 399 9 is_stmt 1 view .LVU883
 3445              		.loc 2 399 37 is_stmt 0 view .LVU884
 3446 0018 2B88     		ldrh	r3, [r5]
 400:Dubby.cpp     ****         sai_config[0].pin_config.sb = {DSY_GPIOE, 3};
 401:Dubby.cpp     ****         sai_config[0].a_dir         = SaiHandle::Config::Direction::TRANSMIT;
 402:Dubby.cpp     ****         sai_config[0].b_dir         = SaiHandle::Config::Direction::RECEIVE;
 3447              		.loc 2 402 37 view .LVU885
ARM GAS  /var/folders/1y/_321xjh9623c014x9_qw12rr0000gn/T//ccE17DNe.s 			page 117


 3448 001a 0122     		movs	r2, #1
 399:Dubby.cpp     ****         sai_config[0].pin_config.sb = {DSY_GPIOE, 3};
 3449              		.loc 2 399 37 view .LVU886
 3450 001c ADF84230 		strh	r3, [sp, #66]	@ movhi
 400:Dubby.cpp     ****         sai_config[0].pin_config.sb = {DSY_GPIOE, 3};
 3451              		.loc 2 400 9 is_stmt 1 view .LVU887
 400:Dubby.cpp     ****         sai_config[0].pin_config.sb = {DSY_GPIOE, 3};
 3452              		.loc 2 400 37 is_stmt 0 view .LVU888
 3453 0020 AB88     		ldrh	r3, [r5, #4]
 3454              		.loc 2 402 37 view .LVU889
 3455 0022 CDE91612 		strd	r1, r2, [sp, #88]
 400:Dubby.cpp     ****         sai_config[0].pin_config.sb = {DSY_GPIOE, 3};
 3456              		.loc 2 400 37 view .LVU890
 3457 0026 ADF84430 		strh	r3, [sp, #68]	@ movhi
 401:Dubby.cpp     ****         sai_config[0].b_dir         = SaiHandle::Config::Direction::RECEIVE;
 3458              		.loc 2 401 9 is_stmt 1 view .LVU891
 3459              		.loc 2 402 9 view .LVU892
 3460              	.L215:
 403:Dubby.cpp     ****     }
 404:Dubby.cpp     ****     sai_config[0].periph          = SaiHandle::Config::Peripheral::SAI_1;
 3461              		.loc 2 404 5 view .LVU893
 405:Dubby.cpp     ****     sai_config[0].sr              = SaiHandle::Config::SampleRate::SAI_48KHZ;
 406:Dubby.cpp     ****     sai_config[0].bit_depth       = SaiHandle::Config::BitDepth::SAI_24BIT;
 407:Dubby.cpp     ****     sai_config[0].a_sync          = SaiHandle::Config::Sync::MASTER;
 408:Dubby.cpp     ****     sai_config[0].b_sync          = SaiHandle::Config::Sync::SLAVE;
 409:Dubby.cpp     ****     sai_config[0].pin_config.fs   = {DSY_GPIOE, 4};
 3462              		.loc 2 409 35 is_stmt 0 view .LVU894
 3463 002a 2B89     		ldrh	r3, [r5, #8]
 404:Dubby.cpp     ****     sai_config[0].sr              = SaiHandle::Config::SampleRate::SAI_48KHZ;
 3464              		.loc 2 404 35 view .LVU895
 3465 002c 0024     		movs	r4, #0
 406:Dubby.cpp     ****     sai_config[0].a_sync          = SaiHandle::Config::Sync::MASTER;
 3466              		.loc 2 406 35 view .LVU896
 3467 002e 0126     		movs	r6, #1
 405:Dubby.cpp     ****     sai_config[0].sr              = SaiHandle::Config::SampleRate::SAI_48KHZ;
 3468              		.loc 2 405 35 view .LVU897
 3469 0030 4FF00308 		mov	r8, #3
 3470              		.loc 2 409 35 view .LVU898
 3471 0034 ADF83E30 		strh	r3, [sp, #62]	@ movhi
 410:Dubby.cpp     ****     sai_config[0].pin_config.mclk = {DSY_GPIOE, 2};
 411:Dubby.cpp     ****     sai_config[0].pin_config.sck  = {DSY_GPIOE, 5};
 412:Dubby.cpp     **** 
 413:Dubby.cpp     ****     // External Codec
 414:Dubby.cpp     **** 
 415:Dubby.cpp     ****     I2CHandle::Config i2c_cfg;
 416:Dubby.cpp     ****     i2c_cfg.periph         = I2CHandle::Config::Peripheral::I2C_1;
 417:Dubby.cpp     ****     i2c_cfg.mode           = I2CHandle::Config::Mode::I2C_MASTER;
 418:Dubby.cpp     ****     i2c_cfg.speed          = I2CHandle::Config::Speed::I2C_400KHZ;
 419:Dubby.cpp     ****     i2c_cfg.pin_config.scl = {DSY_GPIOB, 8};
 420:Dubby.cpp     ****     i2c_cfg.pin_config.sda = {DSY_GPIOB, 9};
 421:Dubby.cpp     **** 
 422:Dubby.cpp     ****     I2CHandle i2c2;
 423:Dubby.cpp     ****     i2c2.Init(i2c_cfg);
 3472              		.loc 2 423 14 view .LVU899
 3473 0038 09A9     		add	r1, sp, #36
 410:Dubby.cpp     ****     sai_config[0].pin_config.mclk = {DSY_GPIOE, 2};
 3474              		.loc 2 410 35 view .LVU900
ARM GAS  /var/folders/1y/_321xjh9623c014x9_qw12rr0000gn/T//ccE17DNe.s 			page 118


 3475 003a AB89     		ldrh	r3, [r5, #12]
 3476              		.loc 2 423 14 view .LVU901
 3477 003c 6846     		mov	r0, sp
 404:Dubby.cpp     ****     sai_config[0].sr              = SaiHandle::Config::SampleRate::SAI_48KHZ;
 3478              		.loc 2 404 35 view .LVU902
 3479 003e 0E94     		str	r4, [sp, #56]
 405:Dubby.cpp     ****     sai_config[0].bit_depth       = SaiHandle::Config::BitDepth::SAI_24BIT;
 3480              		.loc 2 405 5 is_stmt 1 view .LVU903
 410:Dubby.cpp     ****     sai_config[0].pin_config.mclk = {DSY_GPIOE, 2};
 3481              		.loc 2 410 35 is_stmt 0 view .LVU904
 3482 0040 ADF83C30 		strh	r3, [sp, #60]	@ movhi
 411:Dubby.cpp     **** 
 3483              		.loc 2 411 35 view .LVU905
 3484 0044 2B8A     		ldrh	r3, [r5, #16]
 416:Dubby.cpp     ****     i2c_cfg.mode           = I2CHandle::Config::Mode::I2C_MASTER;
 3485              		.loc 2 416 28 view .LVU906
 3486 0046 0994     		str	r4, [sp, #36]
 411:Dubby.cpp     **** 
 3487              		.loc 2 411 35 view .LVU907
 3488 0048 ADF84030 		strh	r3, [sp, #64]	@ movhi
 419:Dubby.cpp     ****     i2c_cfg.pin_config.sda = {DSY_GPIOB, 9};
 3489              		.loc 2 419 28 view .LVU908
 3490 004c AB8A     		ldrh	r3, [r5, #20]
 3491              	.LBB835:
 3492              	.LBB836:
 3493              	.LBB837:
 3494              		.file 11 "../../libDaisy//src/per/i2c.h"
   1:../../libDaisy//src/per/i2c.h **** #pragma once
   2:../../libDaisy//src/per/i2c.h **** #include "daisy_core.h"
   3:../../libDaisy//src/per/i2c.h **** 
   4:../../libDaisy//src/per/i2c.h **** namespace daisy
   5:../../libDaisy//src/per/i2c.h **** {
   6:../../libDaisy//src/per/i2c.h **** /** A handle for interacting with an I2C peripheral. This is a dumb
   7:../../libDaisy//src/per/i2c.h ****  *  gateway that internally points to one of the four I2C peripherals
   8:../../libDaisy//src/per/i2c.h ****  *  after it was initialised. It can then be copied and passed around.
   9:../../libDaisy//src/per/i2c.h ****  *  Use an I2CHandle like this:
  10:../../libDaisy//src/per/i2c.h ****  *  
  11:../../libDaisy//src/per/i2c.h ****  *      // setup the configuration
  12:../../libDaisy//src/per/i2c.h ****  *      I2CHandle::Config i2c_conf;
  13:../../libDaisy//src/per/i2c.h ****  *      i2c_conf.periph = I2CHandle::Config::Peripheral::I2C_1;
  14:../../libDaisy//src/per/i2c.h ****  *      i2c_conf.speed  = I2CHandle::Config::Speed::I2C_400KHZ;
  15:../../libDaisy//src/per/i2c.h ****  *      i2c_conf.mode   = I2CHandle::Config::Mode::Master;
  16:../../libDaisy//src/per/i2c.h ****  *      i2c_conf.pin_config.scl  = {DSY_GPIOB, 8};
  17:../../libDaisy//src/per/i2c.h ****  *      i2c_conf.pin_config.sda  = {DSY_GPIOB, 9};
  18:../../libDaisy//src/per/i2c.h ****  *      // initialise the peripheral
  19:../../libDaisy//src/per/i2c.h ****  *      I2CHandle i2c;
  20:../../libDaisy//src/per/i2c.h ****  *      i2c.Init(i2c_conf);
  21:../../libDaisy//src/per/i2c.h ****  *      // now i2c points to the corresponding peripheral and can be used.
  22:../../libDaisy//src/per/i2c.h ****  *      i2c.TransmitBlocking( ... );
  23:../../libDaisy//src/per/i2c.h ****  */
  24:../../libDaisy//src/per/i2c.h **** class I2CHandle
  25:../../libDaisy//src/per/i2c.h **** {
  26:../../libDaisy//src/per/i2c.h ****   public:
  27:../../libDaisy//src/per/i2c.h ****     /** Contains settings for initialising an I2C interface. */
  28:../../libDaisy//src/per/i2c.h ****     struct Config
  29:../../libDaisy//src/per/i2c.h ****     {
  30:../../libDaisy//src/per/i2c.h ****         /** Specifies whether the interface will operate in master or slave mode. */
ARM GAS  /var/folders/1y/_321xjh9623c014x9_qw12rr0000gn/T//ccE17DNe.s 			page 119


  31:../../libDaisy//src/per/i2c.h ****         enum class Mode
  32:../../libDaisy//src/per/i2c.h ****         {
  33:../../libDaisy//src/per/i2c.h ****             I2C_MASTER,
  34:../../libDaisy//src/per/i2c.h ****             I2C_SLAVE,
  35:../../libDaisy//src/per/i2c.h ****         };
  36:../../libDaisy//src/per/i2c.h **** 
  37:../../libDaisy//src/per/i2c.h ****         /** Specifices the internal peripheral to use (these are mapped to different pins on the ha
  38:../../libDaisy//src/per/i2c.h ****         enum class Peripheral
  39:../../libDaisy//src/per/i2c.h ****         {
  40:../../libDaisy//src/per/i2c.h ****             I2C_1 = 0, /**< & */
  41:../../libDaisy//src/per/i2c.h ****             I2C_2,     /**< & */
  42:../../libDaisy//src/per/i2c.h ****             I2C_3,     /**< & */
  43:../../libDaisy//src/per/i2c.h ****             I2C_4,     /**< & */
  44:../../libDaisy//src/per/i2c.h ****         };
  45:../../libDaisy//src/per/i2c.h **** 
  46:../../libDaisy//src/per/i2c.h ****         /** Rate at which the clock/data will be sent/received. The device being used will have max
  47:../../libDaisy//src/per/i2c.h ****          *  1MHZ Mode is currently 886kHz
  48:../../libDaisy//src/per/i2c.h ****          */
  49:../../libDaisy//src/per/i2c.h ****         enum class Speed
  50:../../libDaisy//src/per/i2c.h ****         {
  51:../../libDaisy//src/per/i2c.h ****             I2C_100KHZ, /**< & */
  52:../../libDaisy//src/per/i2c.h ****             I2C_400KHZ, /**< & */
  53:../../libDaisy//src/per/i2c.h ****             I2C_1MHZ,   /**< & */
  54:../../libDaisy//src/per/i2c.h ****         };
  55:../../libDaisy//src/per/i2c.h **** 
  56:../../libDaisy//src/per/i2c.h ****         Peripheral periph; /**< & */
  57:../../libDaisy//src/per/i2c.h ****         struct
  58:../../libDaisy//src/per/i2c.h ****         {
  59:../../libDaisy//src/per/i2c.h ****             dsy_gpio_pin scl; /**< & */
  60:../../libDaisy//src/per/i2c.h ****             dsy_gpio_pin sda; /**< & */
  61:../../libDaisy//src/per/i2c.h ****         } pin_config;         /**< & */
  62:../../libDaisy//src/per/i2c.h **** 
  63:../../libDaisy//src/per/i2c.h ****         Speed speed; /**< & */
  64:../../libDaisy//src/per/i2c.h ****         Mode  mode;  /**< & */
  65:../../libDaisy//src/per/i2c.h ****         // 0x10 is chosen as a default to avoid conflicts with reserved addresses
  66:../../libDaisy//src/per/i2c.h ****         uint8_t address = 0x10; /**< & */
  67:../../libDaisy//src/per/i2c.h ****     };
  68:../../libDaisy//src/per/i2c.h **** 
  69:../../libDaisy//src/per/i2c.h ****     /** Return values for I2C functions. */
  70:../../libDaisy//src/per/i2c.h ****     enum class Result
  71:../../libDaisy//src/per/i2c.h ****     {
  72:../../libDaisy//src/per/i2c.h ****         OK, /**< & */
  73:../../libDaisy//src/per/i2c.h ****         ERR /**< & */
  74:../../libDaisy//src/per/i2c.h ****     };
  75:../../libDaisy//src/per/i2c.h **** 
  76:../../libDaisy//src/per/i2c.h ****     enum class Direction
  77:../../libDaisy//src/per/i2c.h ****     {
  78:../../libDaisy//src/per/i2c.h ****         TRANSMIT, /**< & */
  79:../../libDaisy//src/per/i2c.h ****         RECEIVE,  /**< & */
  80:../../libDaisy//src/per/i2c.h ****     };
  81:../../libDaisy//src/per/i2c.h **** 
  82:../../libDaisy//src/per/i2c.h ****     I2CHandle() : pimpl_(nullptr) {}
 3495              		.loc 11 82 33 view .LVU909
 3496 004e 0094     		str	r4, [sp]
 3497              	.LBE837:
 3498              	.LBE836:
 3499              	.LBE835:
ARM GAS  /var/folders/1y/_321xjh9623c014x9_qw12rr0000gn/T//ccE17DNe.s 			page 120


 419:Dubby.cpp     ****     i2c_cfg.pin_config.sda = {DSY_GPIOB, 9};
 3500              		.loc 2 419 28 view .LVU910
 3501 0050 ADF82830 		strh	r3, [sp, #40]	@ movhi
 420:Dubby.cpp     **** 
 3502              		.loc 2 420 28 view .LVU911
 3503 0054 2B8B     		ldrh	r3, [r5, #24]
 3504 0056 ADF82A30 		strh	r3, [sp, #42]	@ movhi
 3505              	.LBB838:
 3506              	.LBB839:
  28:../../libDaisy//src/per/i2c.h ****     {
 3507              		.loc 11 28 12 view .LVU912
 3508 005a 1023     		movs	r3, #16
 3509              	.LBE839:
 3510              	.LBE838:
 408:Dubby.cpp     ****     sai_config[0].pin_config.fs   = {DSY_GPIOE, 4};
 3511              		.loc 2 408 35 view .LVU913
 3512 005c CDE91446 		strd	r4, r6, [sp, #80]
 418:Dubby.cpp     ****     i2c_cfg.pin_config.scl = {DSY_GPIOB, 8};
 3513              		.loc 2 418 28 view .LVU914
 3514 0060 CDE90B64 		strd	r6, r4, [sp, #44]
 3515              	.LBB841:
 3516              	.LBB840:
  28:../../libDaisy//src/per/i2c.h ****     {
 3517              		.loc 11 28 12 view .LVU915
 3518 0064 8DF83430 		strb	r3, [sp, #52]
 3519              	.LBE840:
 3520              	.LBE841:
 405:Dubby.cpp     ****     sai_config[0].bit_depth       = SaiHandle::Config::BitDepth::SAI_24BIT;
 3521              		.loc 2 405 35 view .LVU916
 3522 0068 CDE91286 		strd	r8, r6, [sp, #72]
 406:Dubby.cpp     ****     sai_config[0].a_sync          = SaiHandle::Config::Sync::MASTER;
 3523              		.loc 2 406 5 is_stmt 1 view .LVU917
 407:Dubby.cpp     ****     sai_config[0].b_sync          = SaiHandle::Config::Sync::SLAVE;
 3524              		.loc 2 407 5 view .LVU918
 409:Dubby.cpp     ****     sai_config[0].pin_config.mclk = {DSY_GPIOE, 2};
 3525              		.loc 2 409 5 view .LVU919
 410:Dubby.cpp     ****     sai_config[0].pin_config.sck  = {DSY_GPIOE, 5};
 3526              		.loc 2 410 5 view .LVU920
 411:Dubby.cpp     **** 
 3527              		.loc 2 411 5 view .LVU921
 415:Dubby.cpp     ****     i2c_cfg.periph         = I2CHandle::Config::Peripheral::I2C_1;
 3528              		.loc 2 415 5 view .LVU922
 3529              	.LVL256:
 3530              	.LBB842:
 3531              	.LBI838:
  28:../../libDaisy//src/per/i2c.h ****     {
 3532              		.loc 11 28 12 view .LVU923
  28:../../libDaisy//src/per/i2c.h ****     {
 3533              		.loc 11 28 12 is_stmt 0 view .LVU924
 3534              	.LBE842:
 416:Dubby.cpp     ****     i2c_cfg.mode           = I2CHandle::Config::Mode::I2C_MASTER;
 3535              		.loc 2 416 5 is_stmt 1 view .LVU925
 417:Dubby.cpp     ****     i2c_cfg.speed          = I2CHandle::Config::Speed::I2C_400KHZ;
 3536              		.loc 2 417 5 view .LVU926
 418:Dubby.cpp     ****     i2c_cfg.pin_config.scl = {DSY_GPIOB, 8};
 3537              		.loc 2 418 5 view .LVU927
 419:Dubby.cpp     ****     i2c_cfg.pin_config.sda = {DSY_GPIOB, 9};
ARM GAS  /var/folders/1y/_321xjh9623c014x9_qw12rr0000gn/T//ccE17DNe.s 			page 121


 3538              		.loc 2 419 5 view .LVU928
 420:Dubby.cpp     **** 
 3539              		.loc 2 420 5 view .LVU929
 422:Dubby.cpp     ****     i2c2.Init(i2c_cfg);
 3540              		.loc 2 422 5 view .LVU930
 3541              	.LBB843:
 3542              	.LBI835:
 3543              		.loc 11 82 5 view .LVU931
 3544              		.loc 11 82 5 is_stmt 0 view .LVU932
 3545              	.LBE843:
 3546              		.loc 2 423 5 is_stmt 1 view .LVU933
 3547              		.loc 2 423 14 is_stmt 0 view .LVU934
 3548 006c FFF7FEFF 		bl	_ZN5daisy9I2CHandle4InitERKNS0_6ConfigE
 3549              	.LVL257:
 424:Dubby.cpp     **** 
 425:Dubby.cpp     ****     // pullups must be enabled
 426:Dubby.cpp     ****     GPIOB->PUPDR &= ~((GPIO_PUPDR_PUPD8)|(GPIO_PUPDR_PUPD9)); 
 3550              		.loc 2 426 5 is_stmt 1 view .LVU935
 3551              		.loc 2 426 18 is_stmt 0 view .LVU936
 3552 0070 264B     		ldr	r3, .L218+4
 427:Dubby.cpp     ****     GPIOB->PUPDR |= ((GPIO_PUPDR_PUPD8_0)|(GPIO_PUPDR_PUPD9_0)); 
 428:Dubby.cpp     **** 
 429:Dubby.cpp     ****     Pcm3060 codec;
 430:Dubby.cpp     **** 
 431:Dubby.cpp     ****     codec.Init(i2c2);        
 3553              		.loc 2 431 15 view .LVU937
 3554 0072 0099     		ldr	r1, [sp]
 3555 0074 01A8     		add	r0, sp, #4
 426:Dubby.cpp     ****     GPIOB->PUPDR |= ((GPIO_PUPDR_PUPD8_0)|(GPIO_PUPDR_PUPD9_0)); 
 3556              		.loc 2 426 18 view .LVU938
 3557 0076 DA68     		ldr	r2, [r3, #12]
 3558 0078 22F47022 		bic	r2, r2, #983040
 3559 007c DA60     		str	r2, [r3, #12]
 427:Dubby.cpp     ****     GPIOB->PUPDR |= ((GPIO_PUPDR_PUPD8_0)|(GPIO_PUPDR_PUPD9_0)); 
 3560              		.loc 2 427 5 is_stmt 1 view .LVU939
 427:Dubby.cpp     ****     GPIOB->PUPDR |= ((GPIO_PUPDR_PUPD8_0)|(GPIO_PUPDR_PUPD9_0)); 
 3561              		.loc 2 427 18 is_stmt 0 view .LVU940
 3562 007e DA68     		ldr	r2, [r3, #12]
 3563 0080 42F4A022 		orr	r2, r2, #327680
 3564 0084 DA60     		str	r2, [r3, #12]
 429:Dubby.cpp     **** 
 3565              		.loc 2 429 5 is_stmt 1 view .LVU941
 3566              	.LVL258:
 3567              	.LBB844:
 3568              	.LBI844:
 3569              		.file 12 "../../libDaisy//src/dev/codec_pcm3060.h"
   1:../../libDaisy//src/dev/codec_pcm3060.h **** #pragma once
   2:../../libDaisy//src/dev/codec_pcm3060.h **** #ifndef DSY_CODEC_PCM3060_H
   3:../../libDaisy//src/dev/codec_pcm3060.h **** #define DSY_CODEC_PCM3060_H
   4:../../libDaisy//src/dev/codec_pcm3060.h **** #include "per/i2c.h"
   5:../../libDaisy//src/dev/codec_pcm3060.h **** namespace daisy
   6:../../libDaisy//src/dev/codec_pcm3060.h **** {
   7:../../libDaisy//src/dev/codec_pcm3060.h **** /**
   8:../../libDaisy//src/dev/codec_pcm3060.h ****  * @brief Driver for the TI PCM3060 Audio Codec.
   9:../../libDaisy//src/dev/codec_pcm3060.h ****  * @addtogroup codec
  10:../../libDaisy//src/dev/codec_pcm3060.h ****  * 
  11:../../libDaisy//src/dev/codec_pcm3060.h ****  * For now this is a limited interface that uses I2C to communicate with the PCM3060
ARM GAS  /var/folders/1y/_321xjh9623c014x9_qw12rr0000gn/T//ccE17DNe.s 			page 122


  12:../../libDaisy//src/dev/codec_pcm3060.h ****  * The device can also be accessed with SPI, which is not yet supported.
  13:../../libDaisy//src/dev/codec_pcm3060.h ****  * 
  14:../../libDaisy//src/dev/codec_pcm3060.h ****  * For now all registers are set to their defaults, and the Init function will 
  15:../../libDaisy//src/dev/codec_pcm3060.h ****  * perform a MRST and SRST before setting the format to 24bit LJ, and disabling 
  16:../../libDaisy//src/dev/codec_pcm3060.h ****  * power save for both the ADC and DAC.
  17:../../libDaisy//src/dev/codec_pcm3060.h ****  *
  18:../../libDaisy//src/dev/codec_pcm3060.h ****  */
  19:../../libDaisy//src/dev/codec_pcm3060.h **** class Pcm3060
  20:../../libDaisy//src/dev/codec_pcm3060.h **** {
  21:../../libDaisy//src/dev/codec_pcm3060.h ****   public:
  22:../../libDaisy//src/dev/codec_pcm3060.h ****     enum class Result
  23:../../libDaisy//src/dev/codec_pcm3060.h ****     {
  24:../../libDaisy//src/dev/codec_pcm3060.h ****         OK,
  25:../../libDaisy//src/dev/codec_pcm3060.h ****         ERR,
  26:../../libDaisy//src/dev/codec_pcm3060.h ****     };
  27:../../libDaisy//src/dev/codec_pcm3060.h **** 
  28:../../libDaisy//src/dev/codec_pcm3060.h ****     Pcm3060() {}
 3570              		.loc 12 28 5 view .LVU942
 3571              	.LBB845:
 3572              	.LBB846:
 3573              	.LBI846:
 3574              		.loc 11 82 5 view .LVU943
 3575              	.LBB847:
 3576              	.LBB848:
 3577              		.loc 11 82 33 is_stmt 0 view .LVU944
 3578 0086 0194     		str	r4, [sp, #4]
 3579              	.LVL259:
 3580              		.loc 11 82 33 view .LVU945
 3581              	.LBE848:
 3582              	.LBE847:
 3583              	.LBE846:
 3584              	.LBE845:
 3585              	.LBE844:
 3586              		.loc 2 431 5 is_stmt 1 view .LVU946
 3587              		.loc 2 431 15 is_stmt 0 view .LVU947
 3588 0088 FFF7FEFF 		bl	_ZN5daisy7Pcm30604InitENS_9I2CHandleE
 3589              	.LVL260:
 432:Dubby.cpp     **** 
 433:Dubby.cpp     ****     sai_config[1].periph          = SaiHandle::Config::Peripheral::SAI_2;
 3590              		.loc 2 433 5 is_stmt 1 view .LVU948
 434:Dubby.cpp     ****     sai_config[1].sr              = SaiHandle::Config::SampleRate::SAI_48KHZ;
 3591              		.loc 2 434 5 view .LVU949
 435:Dubby.cpp     ****     sai_config[1].bit_depth       = SaiHandle::Config::BitDepth::SAI_24BIT;
 436:Dubby.cpp     ****     sai_config[1].a_sync          = SaiHandle::Config::Sync::SLAVE;
 437:Dubby.cpp     ****     sai_config[1].b_sync          = SaiHandle::Config::Sync::MASTER;
 438:Dubby.cpp     ****     sai_config[1].pin_config.fs   = {DSY_GPIOG, 9};
 3592              		.loc 2 438 35 is_stmt 0 view .LVU950
 3593 008c AB8B     		ldrh	r3, [r5, #28]
 439:Dubby.cpp     ****     sai_config[1].pin_config.mclk = {DSY_GPIOA, 1};
 440:Dubby.cpp     ****     sai_config[1].pin_config.sck  = {DSY_GPIOA, 2};
 441:Dubby.cpp     ****     sai_config[1].a_dir         = SaiHandle::Config::Direction::TRANSMIT;
 442:Dubby.cpp     ****     sai_config[1].pin_config.sa = {DSY_GPIOD, 11};
 443:Dubby.cpp     ****     sai_config[1].b_dir         = SaiHandle::Config::Direction::RECEIVE;
 444:Dubby.cpp     ****     sai_config[1].pin_config.sb = {DSY_GPIOA, 0};
 445:Dubby.cpp     **** 
 446:Dubby.cpp     ****     SaiHandle sai_handle[2];
 447:Dubby.cpp     ****     sai_handle[0].Init(sai_config[1]);
ARM GAS  /var/folders/1y/_321xjh9623c014x9_qw12rr0000gn/T//ccE17DNe.s 			page 123


 3594              		.loc 2 447 23 view .LVU951
 3595 008e 18A9     		add	r1, sp, #96
 442:Dubby.cpp     ****     sai_config[1].b_dir         = SaiHandle::Config::Direction::RECEIVE;
 3596              		.loc 2 442 33 view .LVU952
 3597 0090 2A8C     		ldrh	r2, [r5, #32]
 3598              		.loc 2 447 23 view .LVU953
 3599 0092 03A8     		add	r0, sp, #12
 438:Dubby.cpp     ****     sai_config[1].pin_config.mclk = {DSY_GPIOA, 1};
 3600              		.loc 2 438 35 view .LVU954
 3601 0094 ADF86630 		strh	r3, [sp, #102]	@ movhi
 439:Dubby.cpp     ****     sai_config[1].pin_config.mclk = {DSY_GPIOA, 1};
 3602              		.loc 2 439 35 view .LVU955
 3603 0098 4FF48073 		mov	r3, #256
 442:Dubby.cpp     ****     sai_config[1].b_dir         = SaiHandle::Config::Direction::RECEIVE;
 3604              		.loc 2 442 33 view .LVU956
 3605 009c ADF86A20 		strh	r2, [sp, #106]	@ movhi
 439:Dubby.cpp     ****     sai_config[1].pin_config.mclk = {DSY_GPIOA, 1};
 3606              		.loc 2 439 35 view .LVU957
 3607 00a0 ADF86430 		strh	r3, [sp, #100]	@ movhi
 440:Dubby.cpp     ****     sai_config[1].a_dir         = SaiHandle::Config::Direction::TRANSMIT;
 3608              		.loc 2 440 35 view .LVU958
 3609 00a4 4FF40073 		mov	r3, #512
 444:Dubby.cpp     **** 
 3610              		.loc 2 444 33 view .LVU959
 3611 00a8 ADF86C40 		strh	r4, [sp, #108]	@ movhi
 440:Dubby.cpp     ****     sai_config[1].a_dir         = SaiHandle::Config::Direction::TRANSMIT;
 3612              		.loc 2 440 35 view .LVU960
 3613 00ac ADF86830 		strh	r3, [sp, #104]	@ movhi
 433:Dubby.cpp     ****     sai_config[1].sr              = SaiHandle::Config::SampleRate::SAI_48KHZ;
 3614              		.loc 2 433 35 view .LVU961
 3615 00b0 1896     		str	r6, [sp, #96]
 437:Dubby.cpp     ****     sai_config[1].pin_config.fs   = {DSY_GPIOG, 9};
 3616              		.loc 2 437 35 view .LVU962
 3617 00b2 CDE91E64 		strd	r6, r4, [sp, #120]
 441:Dubby.cpp     ****     sai_config[1].pin_config.sa = {DSY_GPIOD, 11};
 3618              		.loc 2 441 33 view .LVU963
 3619 00b6 CDE92046 		strd	r4, r6, [sp, #128]
 3620              	.LBB849:
 3621              	.LBB850:
 3622              	.LBB851:
 3623              		.file 13 "../../libDaisy//src/per/sai.h"
   1:../../libDaisy//src/per/sai.h **** #pragma once
   2:../../libDaisy//src/per/sai.h **** #ifndef DSY_SAI_H
   3:../../libDaisy//src/per/sai.h **** #define DSY_SAI_H
   4:../../libDaisy//src/per/sai.h **** 
   5:../../libDaisy//src/per/sai.h **** #include "daisy_core.h"
   6:../../libDaisy//src/per/sai.h **** 
   7:../../libDaisy//src/per/sai.h **** namespace daisy
   8:../../libDaisy//src/per/sai.h **** {
   9:../../libDaisy//src/per/sai.h **** /** 
  10:../../libDaisy//src/per/sai.h ****  * Support for I2S Audio Protocol with different bit-depth, samplerate options
  11:../../libDaisy//src/per/sai.h ****  * Allows for master or slave, as well as freedom of selecting direction, 
  12:../../libDaisy//src/per/sai.h ****  * and other behavior for each peripheral, and block.
  13:../../libDaisy//src/per/sai.h ****  * 
  14:../../libDaisy//src/per/sai.h ****  * DMA Transfer commands must use buffers located within non-cached memory or use cache maintenance
  15:../../libDaisy//src/per/sai.h ****  * To declare an unitialized global element in the DMA memory section:
  16:../../libDaisy//src/per/sai.h ****  *    int32_t DSY_DMA_BUFFER_SECTOR my_buffer[96];
ARM GAS  /var/folders/1y/_321xjh9623c014x9_qw12rr0000gn/T//ccE17DNe.s 			page 124


  17:../../libDaisy//src/per/sai.h ****  *
  18:../../libDaisy//src/per/sai.h ****  * Callback functions will be called once per half of the buffer. In the above example, 
  19:../../libDaisy//src/per/sai.h ****  * the callback function would be called once for every 48 samples.
  20:../../libDaisy//src/per/sai.h ****  * 
  21:../../libDaisy//src/per/sai.h ****  * Use SAI Handle like this:
  22:../../libDaisy//src/per/sai.h ****  * 
  23:../../libDaisy//src/per/sai.h ****  *  SaiHandle::Config sai_config;
  24:../../libDaisy//src/per/sai.h ****  *  sai_config.periph          = SaiHandle::Config::Peripheral::SAI_1;
  25:../../libDaisy//src/per/sai.h ****  *  sai_config.sr              = SaiHandle::Config::SampleRate::SAI_48KHZ;
  26:../../libDaisy//src/per/sai.h ****  *  sai_config.bit_depth       = SaiHandle::Config::BitDepth::SAI_24BIT;
  27:../../libDaisy//src/per/sai.h ****  *  sai_config.a_sync          = SaiHandle::Config::Sync::MASTER;
  28:../../libDaisy//src/per/sai.h ****  *  sai_config.b_sync          = SaiHandle::Config::Sync::SLAVE;
  29:../../libDaisy//src/per/sai.h ****  *  sai_config.a_dir           = SaiHandle::Config::Direction::RECEIVE;
  30:../../libDaisy//src/per/sai.h ****  *  sai_config.b_dir           = SaiHandle::Config::Direction::TRANSMIT;
  31:../../libDaisy//src/per/sai.h ****  *  sai_config.pin_config.fs   = {DSY_GPIOE, 4};
  32:../../libDaisy//src/per/sai.h ****  *  sai_config.pin_config.mclk = {DSY_GPIOE, 2};
  33:../../libDaisy//src/per/sai.h ****  *  sai_config.pin_config.sck  = {DSY_GPIOE, 5};
  34:../../libDaisy//src/per/sai.h ****  *  sai_config.pin_config.sa   = {DSY_GPIOE, 6};
  35:../../libDaisy//src/per/sai.h ****  *  sai_config.pin_config.sb   = {DSY_GPIOE, 3};
  36:../../libDaisy//src/per/sai.h ****  *  // Then Initialize
  37:../../libDaisy//src/per/sai.h ****  *  SaiHandle sai;
  38:../../libDaisy//src/per/sai.h ****  *  sai.Init(sai_config);
  39:../../libDaisy//src/per/sai.h ****  *  // Now you can use it:
  40:../../libDaisy//src/per/sai.h ****  *  sai.StartDma(. . .);
  41:../../libDaisy//src/per/sai.h ****  */
  42:../../libDaisy//src/per/sai.h **** class SaiHandle
  43:../../libDaisy//src/per/sai.h **** {
  44:../../libDaisy//src/per/sai.h ****   public:
  45:../../libDaisy//src/per/sai.h ****     /** Contains settings for initialising an SAI Interface */
  46:../../libDaisy//src/per/sai.h ****     struct Config
  47:../../libDaisy//src/per/sai.h ****     {
  48:../../libDaisy//src/per/sai.h ****         /** Specifies the internal peripheral to use (mapped to different hardware pins) */
  49:../../libDaisy//src/per/sai.h ****         enum class Peripheral
  50:../../libDaisy//src/per/sai.h ****         {
  51:../../libDaisy//src/per/sai.h ****             SAI_1,
  52:../../libDaisy//src/per/sai.h ****             SAI_2,
  53:../../libDaisy//src/per/sai.h ****         };
  54:../../libDaisy//src/per/sai.h **** 
  55:../../libDaisy//src/per/sai.h ****         /** Rate at which samples will be streaming to/from the device. */
  56:../../libDaisy//src/per/sai.h ****         enum class SampleRate
  57:../../libDaisy//src/per/sai.h ****         {
  58:../../libDaisy//src/per/sai.h ****             SAI_8KHZ,
  59:../../libDaisy//src/per/sai.h ****             SAI_16KHZ,
  60:../../libDaisy//src/per/sai.h ****             SAI_32KHZ,
  61:../../libDaisy//src/per/sai.h ****             SAI_48KHZ,
  62:../../libDaisy//src/per/sai.h ****             SAI_96KHZ,
  63:../../libDaisy//src/per/sai.h ****         };
  64:../../libDaisy//src/per/sai.h **** 
  65:../../libDaisy//src/per/sai.h ****         /** Bit Depth that the hardware expects to be transferred to/from the device. */
  66:../../libDaisy//src/per/sai.h ****         enum class BitDepth
  67:../../libDaisy//src/per/sai.h ****         {
  68:../../libDaisy//src/per/sai.h ****             SAI_16BIT,
  69:../../libDaisy//src/per/sai.h ****             SAI_24BIT,
  70:../../libDaisy//src/per/sai.h ****             SAI_32BIT,
  71:../../libDaisy//src/per/sai.h ****         };
  72:../../libDaisy//src/per/sai.h **** 
  73:../../libDaisy//src/per/sai.h ****         /** Specifies whether a particular block is the master or the slave 
ARM GAS  /var/folders/1y/_321xjh9623c014x9_qw12rr0000gn/T//ccE17DNe.s 			page 125


  74:../../libDaisy//src/per/sai.h ****          ** If both are set to slave, no MCLK signal will be used, and it is
  75:../../libDaisy//src/per/sai.h ****          ** expected that the codec will have its own xtal.
  76:../../libDaisy//src/per/sai.h ****          */
  77:../../libDaisy//src/per/sai.h ****         enum class Sync
  78:../../libDaisy//src/per/sai.h ****         {
  79:../../libDaisy//src/per/sai.h ****             MASTER,
  80:../../libDaisy//src/per/sai.h ****             SLAVE,
  81:../../libDaisy//src/per/sai.h ****         };
  82:../../libDaisy//src/per/sai.h **** 
  83:../../libDaisy//src/per/sai.h ****         /** Specifies the direction for each peripheral block. */
  84:../../libDaisy//src/per/sai.h ****         enum class Direction
  85:../../libDaisy//src/per/sai.h ****         {
  86:../../libDaisy//src/per/sai.h ****             TRANSMIT,
  87:../../libDaisy//src/per/sai.h ****             RECEIVE,
  88:../../libDaisy//src/per/sai.h ****         };
  89:../../libDaisy//src/per/sai.h **** 
  90:../../libDaisy//src/per/sai.h ****         Peripheral periph;
  91:../../libDaisy//src/per/sai.h ****         struct
  92:../../libDaisy//src/per/sai.h ****         {
  93:../../libDaisy//src/per/sai.h ****             dsy_gpio_pin mclk, fs, sck, sa, sb;
  94:../../libDaisy//src/per/sai.h ****         } pin_config;
  95:../../libDaisy//src/per/sai.h ****         SampleRate sr;
  96:../../libDaisy//src/per/sai.h ****         BitDepth   bit_depth;
  97:../../libDaisy//src/per/sai.h ****         Sync       a_sync, b_sync;
  98:../../libDaisy//src/per/sai.h ****         Direction  a_dir, b_dir;
  99:../../libDaisy//src/per/sai.h ****     };
 100:../../libDaisy//src/per/sai.h **** 
 101:../../libDaisy//src/per/sai.h ****     /** Return values for SAI functions */
 102:../../libDaisy//src/per/sai.h ****     enum class Result
 103:../../libDaisy//src/per/sai.h ****     {
 104:../../libDaisy//src/per/sai.h ****         OK,
 105:../../libDaisy//src/per/sai.h ****         ERR,
 106:../../libDaisy//src/per/sai.h ****     };
 107:../../libDaisy//src/per/sai.h **** 
 108:../../libDaisy//src/per/sai.h ****     SaiHandle() : pimpl_(nullptr) {}
 3624              		.loc 13 108 33 view .LVU964
 3625 00ba CDE90344 		strd	r4, r4, [sp, #12]
 3626              	.LBE851:
 3627              	.LBE850:
 3628              	.LBE849:
 435:Dubby.cpp     ****     sai_config[1].a_sync          = SaiHandle::Config::Sync::SLAVE;
 3629              		.loc 2 435 35 view .LVU965
 3630 00be CDE91C86 		strd	r8, r6, [sp, #112]
 436:Dubby.cpp     ****     sai_config[1].b_sync          = SaiHandle::Config::Sync::MASTER;
 3631              		.loc 2 436 5 is_stmt 1 view .LVU966
 438:Dubby.cpp     ****     sai_config[1].pin_config.mclk = {DSY_GPIOA, 1};
 3632              		.loc 2 438 5 view .LVU967
 439:Dubby.cpp     ****     sai_config[1].pin_config.sck  = {DSY_GPIOA, 2};
 3633              		.loc 2 439 5 view .LVU968
 440:Dubby.cpp     ****     sai_config[1].a_dir         = SaiHandle::Config::Direction::TRANSMIT;
 3634              		.loc 2 440 5 view .LVU969
 441:Dubby.cpp     ****     sai_config[1].pin_config.sa = {DSY_GPIOD, 11};
 3635              		.loc 2 441 5 view .LVU970
 442:Dubby.cpp     ****     sai_config[1].b_dir         = SaiHandle::Config::Direction::RECEIVE;
 3636              		.loc 2 442 5 view .LVU971
 443:Dubby.cpp     ****     sai_config[1].pin_config.sb = {DSY_GPIOA, 0};
 3637              		.loc 2 443 5 view .LVU972
ARM GAS  /var/folders/1y/_321xjh9623c014x9_qw12rr0000gn/T//ccE17DNe.s 			page 126


 444:Dubby.cpp     **** 
 3638              		.loc 2 444 5 view .LVU973
 446:Dubby.cpp     ****     sai_handle[0].Init(sai_config[1]);
 3639              		.loc 2 446 5 view .LVU974
 446:Dubby.cpp     ****     sai_handle[0].Init(sai_config[1]);
 3640              		.loc 2 446 27 view .LVU975
 3641              	.LVL261:
 3642              	.LBB852:
 3643              	.LBI849:
 3644              		.loc 13 108 5 view .LVU976
 3645              		.loc 13 108 5 is_stmt 0 view .LVU977
 3646              	.LBE852:
 446:Dubby.cpp     ****     sai_handle[0].Init(sai_config[1]);
 3647              		.loc 2 446 27 is_stmt 1 view .LVU978
 446:Dubby.cpp     ****     sai_handle[0].Init(sai_config[1]);
 3648              		.loc 2 446 27 view .LVU979
 3649              	.LBB853:
 3650              		.loc 13 108 5 view .LVU980
 3651              		.loc 13 108 5 is_stmt 0 view .LVU981
 3652              	.LBE853:
 446:Dubby.cpp     ****     sai_handle[0].Init(sai_config[1]);
 3653              		.loc 2 446 27 is_stmt 1 view .LVU982
 446:Dubby.cpp     ****     sai_handle[0].Init(sai_config[1]);
 3654              		.loc 2 446 27 view .LVU983
 3655              		.loc 2 447 5 view .LVU984
 3656              		.loc 2 447 23 is_stmt 0 view .LVU985
 3657 00c2 FFF7FEFF 		bl	_ZN5daisy9SaiHandle4InitERKNS0_6ConfigE
 3658              	.LVL262:
 448:Dubby.cpp     ****     sai_handle[1].Init(sai_config[0]);
 3659              		.loc 2 448 5 is_stmt 1 view .LVU986
 3660              		.loc 2 448 23 is_stmt 0 view .LVU987
 3661 00c6 0EA9     		add	r1, sp, #56
 3662 00c8 04A8     		add	r0, sp, #16
 449:Dubby.cpp     **** 
 450:Dubby.cpp     ****     // Reinit Audio for _both_ codecs...
 451:Dubby.cpp     ****     AudioHandle::Config cfg;
 452:Dubby.cpp     ****     cfg.blocksize  = 48;
 453:Dubby.cpp     ****     cfg.samplerate = SaiHandle::Config::SampleRate::SAI_48KHZ;
 454:Dubby.cpp     ****     cfg.postgain   = 0.5f;
 3663              		.loc 2 454 20 view .LVU988
 3664 00ca 4FF07C54 		mov	r4, #1056964608
 448:Dubby.cpp     ****     sai_handle[1].Init(sai_config[0]);
 3665              		.loc 2 448 23 view .LVU989
 3666 00ce FFF7FEFF 		bl	_ZN5daisy9SaiHandle4InitERKNS0_6ConfigE
 3667              	.LVL263:
 451:Dubby.cpp     ****     cfg.blocksize  = 48;
 3668              		.loc 2 451 5 is_stmt 1 view .LVU990
 3669              	.LBB854:
 3670              	.LBI854:
 3671              		.file 14 "../../libDaisy//src/hid/audio.h"
   1:../../libDaisy//src/hid/audio.h **** #ifndef DSY_AUDIO_H
   2:../../libDaisy//src/hid/audio.h **** #define DSY_AUDIO_H /**< & */
   3:../../libDaisy//src/hid/audio.h **** 
   4:../../libDaisy//src/hid/audio.h **** #include "per/sai.h"
   5:../../libDaisy//src/hid/audio.h **** 
   6:../../libDaisy//src/hid/audio.h **** namespace daisy
   7:../../libDaisy//src/hid/audio.h **** {
ARM GAS  /var/folders/1y/_321xjh9623c014x9_qw12rr0000gn/T//ccE17DNe.s 			page 127


   8:../../libDaisy//src/hid/audio.h **** /** @brief Audio Engine Handle
   9:../../libDaisy//src/hid/audio.h ****  *  @ingroup audio 
  10:../../libDaisy//src/hid/audio.h ****  *  @details This class allows for higher level access to an audio engine.
  11:../../libDaisy//src/hid/audio.h ****  *           If you're using a SOM like the DaisySeed or DaisyPatchSM (or any 
  12:../../libDaisy//src/hid/audio.h ****  *            board that includes one of those objects) then the intialization
  13:../../libDaisy//src/hid/audio.h ****  *            is already taken  care of.
  14:../../libDaisy//src/hid/audio.h ****  *           If you're setting up your own custom hardware, or need to make changes
  15:../../libDaisy//src/hid/audio.h ****  *           you will have to take the following steps:
  16:../../libDaisy//src/hid/audio.h ****  *             1. Create and Initialize an SaiHandle or two depending on your requirements
  17:../../libDaisy//src/hid/audio.h ****  *             2. Initialize the Audio Handle with the desired settings and the Initialized SaiHand
  18:../../libDaisy//src/hid/audio.h ****  *             3. If the connected codec requires special configuration or initialization, do so
  19:../../libDaisy//src/hid/audio.h ****  *             4. Write a callback method using either the AudioCallback or the InterleavingAudioCa
  20:../../libDaisy//src/hid/audio.h ****  *             5. Start the Audio using one of the StartAudio function
  21:../../libDaisy//src/hid/audio.h ****  */
  22:../../libDaisy//src/hid/audio.h **** class AudioHandle
  23:../../libDaisy//src/hid/audio.h **** {
  24:../../libDaisy//src/hid/audio.h ****   public:
  25:../../libDaisy//src/hid/audio.h ****     /** Manually configurable details about the Audio Engine */
  26:../../libDaisy//src/hid/audio.h ****     /** TODO: Figure out how to get samplerate in here. */
  27:../../libDaisy//src/hid/audio.h ****     struct Config
  28:../../libDaisy//src/hid/audio.h ****     {
  29:../../libDaisy//src/hid/audio.h ****         /** number of samples to process per callback */
  30:../../libDaisy//src/hid/audio.h ****         size_t blocksize;
  31:../../libDaisy//src/hid/audio.h **** 
  32:../../libDaisy//src/hid/audio.h ****         /**< Sample rate of audio */
  33:../../libDaisy//src/hid/audio.h ****         SaiHandle::Config::SampleRate samplerate;
  34:../../libDaisy//src/hid/audio.h **** 
  35:../../libDaisy//src/hid/audio.h ****         /** factor for adjustment before and after callback for hardware that may have extra headro
  36:../../libDaisy//src/hid/audio.h ****         float postgain;
  37:../../libDaisy//src/hid/audio.h **** 
  38:../../libDaisy//src/hid/audio.h ****         /** factor for additional one-sided compensation to audio path for hardware that may
  39:../../libDaisy//src/hid/audio.h ****          *  have unequal input/output ranges
  40:../../libDaisy//src/hid/audio.h ****          */
  41:../../libDaisy//src/hid/audio.h ****         float output_compensation;
  42:../../libDaisy//src/hid/audio.h **** 
  43:../../libDaisy//src/hid/audio.h ****         /** Sets default values for config struct */
  44:../../libDaisy//src/hid/audio.h ****         Config()
 3672              		.loc 14 44 9 view .LVU991
 3673              	.LBB855:
 3674              	.LBB856:
  45:../../libDaisy//src/hid/audio.h ****         : blocksize(48),
  46:../../libDaisy//src/hid/audio.h ****           samplerate(SaiHandle::Config::SampleRate::SAI_48KHZ),
  47:../../libDaisy//src/hid/audio.h ****           postgain(1.f),
  48:../../libDaisy//src/hid/audio.h ****           output_compensation(1.f)
 3675              		.loc 14 48 34 is_stmt 0 view .LVU992
 3676 00d2 3021     		movs	r1, #48
 3677 00d4 4FF07E52 		mov	r2, #1065353216
 3678              	.LBE856:
 3679              	.LBE855:
 3680              	.LBE854:
 455:Dubby.cpp     ****     seed.audio_handle.Init(cfg, sai_handle[0], sai_handle[1]);
 3681              		.loc 2 455 27 view .LVU993
 3682 00d8 049B     		ldr	r3, [sp, #16]
 3683 00da 7818     		adds	r0, r7, r1
 3684              	.LBB861:
 3685              	.LBB859:
 3686              	.LBB857:
ARM GAS  /var/folders/1y/_321xjh9623c014x9_qw12rr0000gn/T//ccE17DNe.s 			page 128


 3687              		.loc 14 48 34 view .LVU994
 3688 00dc 0591     		str	r1, [sp, #20]
 3689 00de 0892     		str	r2, [sp, #32]	@ float
 3690              	.LVL264:
 3691              		.loc 14 48 34 view .LVU995
 3692              	.LBE857:
 3693              	.LBE859:
 3694              	.LBE861:
 452:Dubby.cpp     ****     cfg.samplerate = SaiHandle::Config::SampleRate::SAI_48KHZ;
 3695              		.loc 2 452 5 is_stmt 1 view .LVU996
 453:Dubby.cpp     ****     cfg.postgain   = 0.5f;
 3696              		.loc 2 453 5 view .LVU997
 454:Dubby.cpp     ****     seed.audio_handle.Init(cfg, sai_handle[0], sai_handle[1]);
 3697              		.loc 2 454 5 view .LVU998
 3698              		.loc 2 455 27 is_stmt 0 view .LVU999
 3699 00e0 05A9     		add	r1, sp, #20
 3700 00e2 039A     		ldr	r2, [sp, #12]
 3701              	.LBB862:
 3702              	.LBB860:
 3703              	.LBB858:
 3704              		.loc 14 48 34 view .LVU1000
 3705 00e4 CDF81880 		str	r8, [sp, #24]
 3706              	.LBE858:
 3707              	.LBE860:
 3708              	.LBE862:
 454:Dubby.cpp     ****     seed.audio_handle.Init(cfg, sai_handle[0], sai_handle[1]);
 3709              		.loc 2 454 20 view .LVU1001
 3710 00e8 0794     		str	r4, [sp, #28]	@ float
 3711              		.loc 2 455 5 is_stmt 1 view .LVU1002
 3712              		.loc 2 455 27 is_stmt 0 view .LVU1003
 3713 00ea FFF7FEFF 		bl	_ZN5daisy11AudioHandle4InitERKNS0_6ConfigENS_9SaiHandleES4_
 3714              	.LVL265:
 3715              	.LBB863:
 3716              	.LBI863:
  29:../../libDaisy//src/dev/codec_pcm3060.h ****     ~Pcm3060() {}
 3717              		.loc 12 29 5 is_stmt 1 view .LVU1004
 3718              		.loc 12 29 5 is_stmt 0 view .LVU1005
 3719              	.LBE863:
 456:Dubby.cpp     **** }
 3720              		.loc 2 456 1 view .LVU1006
 3721 00ee 22B0     		add	sp, sp, #136
 3722              		.cfi_remember_state
 3723              		.cfi_def_cfa_offset 24
 3724              		@ sp needed
 3725 00f0 BDE8F081 		pop	{r4, r5, r6, r7, r8, pc}
 3726              	.LVL266:
 3727              	.L217:
 3728              		.cfi_restore_state
 392:Dubby.cpp     ****         sai_config[0].pin_config.sb = {DSY_GPIOE, 3};
 3729              		.loc 2 392 9 is_stmt 1 view .LVU1007
 392:Dubby.cpp     ****         sai_config[0].pin_config.sb = {DSY_GPIOE, 3};
 3730              		.loc 2 392 37 is_stmt 0 view .LVU1008
 3731 00f4 2A88     		ldrh	r2, [r5]
 393:Dubby.cpp     ****         sai_config[0].a_dir         = SaiHandle::Config::Direction::RECEIVE;
 3732              		.loc 2 393 37 view .LVU1009
 3733 00f6 AB88     		ldrh	r3, [r5, #4]
 394:Dubby.cpp     ****         sai_config[0].b_dir         = SaiHandle::Config::Direction::TRANSMIT;
ARM GAS  /var/folders/1y/_321xjh9623c014x9_qw12rr0000gn/T//ccE17DNe.s 			page 129


 3734              		.loc 2 394 37 view .LVU1010
 3735 00f8 1690     		str	r0, [sp, #88]
 395:Dubby.cpp     ****     }
 3736              		.loc 2 395 37 view .LVU1011
 3737 00fa 1791     		str	r1, [sp, #92]
 392:Dubby.cpp     ****         sai_config[0].pin_config.sb = {DSY_GPIOE, 3};
 3738              		.loc 2 392 37 view .LVU1012
 3739 00fc ADF84220 		strh	r2, [sp, #66]	@ movhi
 393:Dubby.cpp     ****         sai_config[0].a_dir         = SaiHandle::Config::Direction::RECEIVE;
 3740              		.loc 2 393 9 is_stmt 1 view .LVU1013
 393:Dubby.cpp     ****         sai_config[0].a_dir         = SaiHandle::Config::Direction::RECEIVE;
 3741              		.loc 2 393 37 is_stmt 0 view .LVU1014
 3742 0100 ADF84430 		strh	r3, [sp, #68]	@ movhi
 394:Dubby.cpp     ****         sai_config[0].b_dir         = SaiHandle::Config::Direction::TRANSMIT;
 3743              		.loc 2 394 9 is_stmt 1 view .LVU1015
 395:Dubby.cpp     ****     }
 3744              		.loc 2 395 9 view .LVU1016
 3745 0104 91E7     		b	.L215
 3746              	.L219:
 3747 0106 00BF     		.align	2
 3748              	.L218:
 3749 0108 00000000 		.word	.LANCHOR1
 3750 010c 00040258 		.word	1476527104
 3751              		.cfi_endproc
 3752              	.LFE3753:
 3754              		.section	.rodata._ZN5daisy5Dubby14GetTextForEnumENS0_9MenuTypesEi.str1.4,"aMS",%progbits,1
 3755              		.align	2
 3756              	.LC14:
 3757 0000 00       		.ascii	"\000"
 3758              		.section	.text._ZN5daisy5Dubby14GetTextForEnumENS0_9MenuTypesEi,"ax",%progbits
 3759              		.align	1
 3760              		.p2align 2,,3
 3761              		.global	_ZN5daisy5Dubby14GetTextForEnumENS0_9MenuTypesEi
 3762              		.syntax unified
 3763              		.thumb
 3764              		.thumb_func
 3766              	_ZN5daisy5Dubby14GetTextForEnumENS0_9MenuTypesEi:
 3767              	.LVL267:
 3768              	.LFB3754:
 457:Dubby.cpp     **** 
 458:Dubby.cpp     **** const char * Dubby::GetTextForEnum(MenuTypes m, int enumVal)
 459:Dubby.cpp     **** {
 3769              		.loc 2 459 1 view -0
 3770              		.cfi_startproc
 3771              		@ args = 0, pretend = 0, frame = 0
 3772              		@ frame_needed = 0, uses_anonymous_args = 0
 3773              		@ link register save eliminated.
 460:Dubby.cpp     ****     switch (m)
 3774              		.loc 2 460 5 view .LVU1018
 3775 0000 39B1     		cbz	r1, .L221
 3776 0002 0129     		cmp	r1, #1
 3777 0004 03D1     		bne	.L224
 461:Dubby.cpp     ****     {
 462:Dubby.cpp     ****         case MAINMENU:
 463:Dubby.cpp     ****             return MenuItemsStrings[enumVal];
 464:Dubby.cpp     ****             break;
 3778              		.loc 2 464 13 view .LVU1019
ARM GAS  /var/folders/1y/_321xjh9623c014x9_qw12rr0000gn/T//ccE17DNe.s 			page 130


 465:Dubby.cpp     ****         case PREFERENCESMENU:
 3779              		.loc 2 465 9 view .LVU1020
 466:Dubby.cpp     ****             return PreferencesMenuItemsStrings[enumVal];
 3780              		.loc 2 466 13 view .LVU1021
 3781              		.loc 2 466 55 is_stmt 0 view .LVU1022
 3782 0006 00EB8200 		add	r0, r0, r2, lsl #2
 3783              	.LVL268:
 3784              		.loc 2 466 55 view .LVU1023
 3785 000a C068     		ldr	r0, [r0, #12]
 467:Dubby.cpp     ****             break;
 468:Dubby.cpp     ****         default:
 469:Dubby.cpp     ****             return "";
 470:Dubby.cpp     ****             break;
 471:Dubby.cpp     ****     }
 472:Dubby.cpp     **** }...
 3786              		.loc 2 472 1 view .LVU1024
 3787 000c 7047     		bx	lr
 3788              	.LVL269:
 3789              	.L224:
 460:Dubby.cpp     ****     switch (m)
 3790              		.loc 2 460 5 view .LVU1025
 3791 000e 0248     		ldr	r0, .L225
 3792              	.LVL270:
 460:Dubby.cpp     ****     switch (m)
 3793              		.loc 2 460 5 view .LVU1026
 3794 0010 7047     		bx	lr
 3795              	.LVL271:
 3796              	.L221:
 462:Dubby.cpp     ****         case MAINMENU:
 3797              		.loc 2 462 9 is_stmt 1 view .LVU1027
 463:Dubby.cpp     ****             return MenuItemsStrings[enumVal];
 3798              		.loc 2 463 13 view .LVU1028
 463:Dubby.cpp     ****             return MenuItemsStrings[enumVal];
 3799              		.loc 2 463 44 is_stmt 0 view .LVU1029
 3800 0012 50F82200 		ldr	r0, [r0, r2, lsl #2]
 3801              	.LVL272:
 463:Dubby.cpp     ****             return MenuItemsStrings[enumVal];
 3802              		.loc 2 463 44 view .LVU1030
 3803 0016 7047     		bx	lr
 3804              	.L226:
 3805              		.align	2
 3806              	.L225:
 3807 0018 00000000 		.word	.LC14
 3808              		.cfi_endproc
 3809              	.LFE3754:
 3811              		.section	.text._ZN5daisy25OneBitGraphicsDisplayImplINS_11OledDisplayINS_13SSD130xDriverILj128ELj64
 3812              		.align	1
 3813              		.p2align 2,,3
 3814              		.weak	_ZN5daisy25OneBitGraphicsDisplayImplINS_11OledDisplayINS_13SSD130xDriverILj128ELj64ENS_24SSD
 3815              		.syntax unified
 3816              		.thumb
 3817              		.thumb_func
 3819              	_ZN5daisy25OneBitGraphicsDisplayImplINS_11OledDisplayINS_13SSD130xDriverILj128ELj64ENS_24SSD130x4Wi
 3820              	.LVL273:
 3821              	.LFB4036:
 269:../../libDaisy//src/hid/disp/display.h ****                 {
 270:../../libDaisy//src/hid/disp/display.h ****                     ((ChildType*)(this))->ChildType::DrawPixel(x, y, on);
ARM GAS  /var/folders/1y/_321xjh9623c014x9_qw12rr0000gn/T//ccE17DNe.s 			page 131


 271:../../libDaisy//src/hid/disp/display.h ****                 }
 272:../../libDaisy//src/hid/disp/display.h ****             }
 273:../../libDaisy//src/hid/disp/display.h ****         }
 274:../../libDaisy//src/hid/disp/display.h ****         else
 275:../../libDaisy//src/hid/disp/display.h ****         {
 276:../../libDaisy//src/hid/disp/display.h ****             ((ChildType*)(this))->ChildType::DrawLine(x1, y1, x2, y1, on);
 277:../../libDaisy//src/hid/disp/display.h ****             ((ChildType*)(this))->ChildType::DrawLine(x2, y1, x2, y2, on);
 278:../../libDaisy//src/hid/disp/display.h ****             ((ChildType*)(this))->ChildType::DrawLine(x2, y2, x1, y2, on);
 279:../../libDaisy//src/hid/disp/display.h ****             ((ChildType*)(this))->ChildType::DrawLine(x1, y2, x1, y1, on);
 280:../../libDaisy//src/hid/disp/display.h ****         }
 281:../../libDaisy//src/hid/disp/display.h ****     }
 282:../../libDaisy//src/hid/disp/display.h **** 
 283:../../libDaisy//src/hid/disp/display.h ****     void DrawArc(uint_fast8_t x,
 284:../../libDaisy//src/hid/disp/display.h ****                  uint_fast8_t y,
 285:../../libDaisy//src/hid/disp/display.h ****                  uint_fast8_t radius,
 286:../../libDaisy//src/hid/disp/display.h ****                  int_fast16_t start_angle,
 287:../../libDaisy//src/hid/disp/display.h ****                  int_fast16_t sweep,
 288:../../libDaisy//src/hid/disp/display.h ****                  bool         on) override
 289:../../libDaisy//src/hid/disp/display.h ****     {
 290:../../libDaisy//src/hid/disp/display.h ****         // Values to calculate the circle
 291:../../libDaisy//src/hid/disp/display.h ****         int_fast16_t t_x, t_y, err, e2;
 292:../../libDaisy//src/hid/disp/display.h **** 
 293:../../libDaisy//src/hid/disp/display.h ****         // Temporary values to speed up comparisons
 294:../../libDaisy//src/hid/disp/display.h ****         float t_sxy, t_syx, t_sxny, t_synx;
 295:../../libDaisy//src/hid/disp/display.h ****         float t_exy, t_eyx, t_exny, t_eynx;
 296:../../libDaisy//src/hid/disp/display.h **** 
 297:../../libDaisy//src/hid/disp/display.h ****         float start_angle_rad, end_angle_rad;
 298:../../libDaisy//src/hid/disp/display.h ****         float start_x, start_y, end_x, end_y;
 299:../../libDaisy//src/hid/disp/display.h **** 
 300:../../libDaisy//src/hid/disp/display.h ****         bool d1, d2, d3, d4;
 301:../../libDaisy//src/hid/disp/display.h **** 
 302:../../libDaisy//src/hid/disp/display.h ****         d1 = d2 = d3 = d4 = true;
 303:../../libDaisy//src/hid/disp/display.h **** 
 304:../../libDaisy//src/hid/disp/display.h ****         bool circle = false;
 305:../../libDaisy//src/hid/disp/display.h **** 
 306:../../libDaisy//src/hid/disp/display.h ****         if(sweep < 0)
 307:../../libDaisy//src/hid/disp/display.h ****         {
 308:../../libDaisy//src/hid/disp/display.h ****             start_angle += sweep;
 309:../../libDaisy//src/hid/disp/display.h ****             sweep = -sweep;
 310:../../libDaisy//src/hid/disp/display.h ****         }
 311:../../libDaisy//src/hid/disp/display.h **** 
 312:../../libDaisy//src/hid/disp/display.h ****         start_angle_rad = deg2rad(start_angle);
 313:../../libDaisy//src/hid/disp/display.h ****         end_angle_rad   = deg2rad(start_angle + sweep);
 314:../../libDaisy//src/hid/disp/display.h **** 
 315:../../libDaisy//src/hid/disp/display.h ****         start_x = cos(start_angle_rad) * radius;
 316:../../libDaisy//src/hid/disp/display.h ****         start_y = -sin(start_angle_rad) * radius;
 317:../../libDaisy//src/hid/disp/display.h ****         end_x   = cos(end_angle_rad) * radius;
 318:../../libDaisy//src/hid/disp/display.h ****         end_y   = -sin(end_angle_rad) * radius;
 319:../../libDaisy//src/hid/disp/display.h **** 
 320:../../libDaisy//src/hid/disp/display.h ****         // Check if start and endpoint are very near
 321:../../libDaisy//src/hid/disp/display.h ****         if((end_x - start_x) * (end_x - start_x)
 322:../../libDaisy//src/hid/disp/display.h ****                + (end_y - start_y) * (end_y - start_y)
 323:../../libDaisy//src/hid/disp/display.h ****            < 2.0f)
 324:../../libDaisy//src/hid/disp/display.h ****         {
 325:../../libDaisy//src/hid/disp/display.h ****             if(sweep > 180)
 326:../../libDaisy//src/hid/disp/display.h ****                 circle = true;
 327:../../libDaisy//src/hid/disp/display.h ****             else
ARM GAS  /var/folders/1y/_321xjh9623c014x9_qw12rr0000gn/T//ccE17DNe.s 			page 132


 328:../../libDaisy//src/hid/disp/display.h ****                 // Nothing to draw
 329:../../libDaisy//src/hid/disp/display.h ****                 return;
 330:../../libDaisy//src/hid/disp/display.h ****         }
 331:../../libDaisy//src/hid/disp/display.h **** 
 332:../../libDaisy//src/hid/disp/display.h ****         t_x = -radius;
 333:../../libDaisy//src/hid/disp/display.h ****         t_y = 0;
 334:../../libDaisy//src/hid/disp/display.h ****         err = 2 - 2 * radius;
 335:../../libDaisy//src/hid/disp/display.h **** 
 336:../../libDaisy//src/hid/disp/display.h ****         do
 337:../../libDaisy//src/hid/disp/display.h ****         {
 338:../../libDaisy//src/hid/disp/display.h ****             if(!circle)
 339:../../libDaisy//src/hid/disp/display.h ****             {
 340:../../libDaisy//src/hid/disp/display.h ****                 t_sxy  = start_x * t_y;
 341:../../libDaisy//src/hid/disp/display.h ****                 t_syx  = start_y * t_x;
 342:../../libDaisy//src/hid/disp/display.h ****                 t_sxny = start_x * -t_y;
 343:../../libDaisy//src/hid/disp/display.h ****                 t_synx = start_y * -t_x;
 344:../../libDaisy//src/hid/disp/display.h ****                 t_exy  = end_x * t_y;
 345:../../libDaisy//src/hid/disp/display.h ****                 t_eyx  = end_y * t_x;
 346:../../libDaisy//src/hid/disp/display.h ****                 t_exny = end_x * -t_y;
 347:../../libDaisy//src/hid/disp/display.h ****                 t_eynx = end_y * -t_x;
 348:../../libDaisy//src/hid/disp/display.h **** 
 349:../../libDaisy//src/hid/disp/display.h ****                 if(sweep > 180)
 350:../../libDaisy//src/hid/disp/display.h ****                 {
 351:../../libDaisy//src/hid/disp/display.h ****                     d1 = (t_sxy - t_synx < 0 || t_exy - t_eynx > 0);
 352:../../libDaisy//src/hid/disp/display.h ****                     d2 = (t_sxy - t_syx < 0 || t_exy - t_eyx > 0);
 353:../../libDaisy//src/hid/disp/display.h ****                     d3 = (t_sxny - t_syx < 0 || t_exny - t_eyx > 0);
 354:../../libDaisy//src/hid/disp/display.h ****                     d4 = (t_sxny - t_synx < 0 || t_exny - t_eynx > 0);
 355:../../libDaisy//src/hid/disp/display.h ****                 }
 356:../../libDaisy//src/hid/disp/display.h ****                 else
 357:../../libDaisy//src/hid/disp/display.h ****                 {
 358:../../libDaisy//src/hid/disp/display.h ****                     d1 = (t_sxy - t_synx < 0 && t_exy - t_eynx > 0);
 359:../../libDaisy//src/hid/disp/display.h ****                     d2 = (t_sxy - t_syx < 0 && t_exy - t_eyx > 0);
 360:../../libDaisy//src/hid/disp/display.h ****                     d3 = (t_sxny - t_syx < 0 && t_exny - t_eyx > 0);
 361:../../libDaisy//src/hid/disp/display.h ****                     d4 = (t_sxny - t_synx < 0 && t_exny - t_eynx > 0);
 362:../../libDaisy//src/hid/disp/display.h ****                 }
 363:../../libDaisy//src/hid/disp/display.h ****             }
 364:../../libDaisy//src/hid/disp/display.h **** 
 365:../../libDaisy//src/hid/disp/display.h ****             if(d1)
 366:../../libDaisy//src/hid/disp/display.h ****                 ((ChildType*)(this))
 367:../../libDaisy//src/hid/disp/display.h ****                     ->ChildType::DrawPixel(x - t_x, y + t_y, on);
 368:../../libDaisy//src/hid/disp/display.h ****             if(d2)
 369:../../libDaisy//src/hid/disp/display.h ****                 ((ChildType*)(this))
 370:../../libDaisy//src/hid/disp/display.h ****                     ->ChildType::DrawPixel(x + t_x, y + t_y, on);
 371:../../libDaisy//src/hid/disp/display.h ****             if(d3)
 372:../../libDaisy//src/hid/disp/display.h ****                 ((ChildType*)(this))
 373:../../libDaisy//src/hid/disp/display.h ****                     ->ChildType::DrawPixel(x + t_x, y - t_y, on);
 374:../../libDaisy//src/hid/disp/display.h ****             if(d4)
 375:../../libDaisy//src/hid/disp/display.h ****                 ((ChildType*)(this))
 376:../../libDaisy//src/hid/disp/display.h ****                     ->ChildType::DrawPixel(x - t_x, y - t_y, on);
 377:../../libDaisy//src/hid/disp/display.h **** 
 378:../../libDaisy//src/hid/disp/display.h ****             e2 = err;
 379:../../libDaisy//src/hid/disp/display.h ****             if(e2 <= t_y)
 380:../../libDaisy//src/hid/disp/display.h ****             {
 381:../../libDaisy//src/hid/disp/display.h ****                 t_y++;
 382:../../libDaisy//src/hid/disp/display.h ****                 err = err + (t_y * 2 + 1);
 383:../../libDaisy//src/hid/disp/display.h ****                 if(-t_x == t_y && e2 <= t_x)
 384:../../libDaisy//src/hid/disp/display.h ****                 {
ARM GAS  /var/folders/1y/_321xjh9623c014x9_qw12rr0000gn/T//ccE17DNe.s 			page 133


 385:../../libDaisy//src/hid/disp/display.h ****                     e2 = 0;
 386:../../libDaisy//src/hid/disp/display.h ****                 }
 387:../../libDaisy//src/hid/disp/display.h ****             }
 388:../../libDaisy//src/hid/disp/display.h ****             if(e2 > t_x)
 389:../../libDaisy//src/hid/disp/display.h ****             {
 390:../../libDaisy//src/hid/disp/display.h ****                 t_x++;
 391:../../libDaisy//src/hid/disp/display.h ****                 err = err + (t_x * 2 + 1);
 392:../../libDaisy//src/hid/disp/display.h ****             }
 393:../../libDaisy//src/hid/disp/display.h ****         } while(t_x <= 0);
 394:../../libDaisy//src/hid/disp/display.h ****     }
 395:../../libDaisy//src/hid/disp/display.h **** 
 396:../../libDaisy//src/hid/disp/display.h ****     char WriteChar(char ch, FontDef font, bool on) override
 397:../../libDaisy//src/hid/disp/display.h ****     {
 398:../../libDaisy//src/hid/disp/display.h ****         uint32_t i, b, j;
 399:../../libDaisy//src/hid/disp/display.h **** 
 400:../../libDaisy//src/hid/disp/display.h ****         // Check if character is valid
 401:../../libDaisy//src/hid/disp/display.h ****         if(ch < 32 || ch > 126)
 402:../../libDaisy//src/hid/disp/display.h ****             return 0;
 403:../../libDaisy//src/hid/disp/display.h **** 
 404:../../libDaisy//src/hid/disp/display.h ****         // Check remaining space on current line
 405:../../libDaisy//src/hid/disp/display.h ****         if(Width() < (currentX_ + font.FontWidth)
 406:../../libDaisy//src/hid/disp/display.h ****            || Height() < (currentY_ + font.FontHeight))
 407:../../libDaisy//src/hid/disp/display.h ****         {
 408:../../libDaisy//src/hid/disp/display.h ****             // Not enough space on current line
 409:../../libDaisy//src/hid/disp/display.h ****             return 0;
 410:../../libDaisy//src/hid/disp/display.h ****         }
 411:../../libDaisy//src/hid/disp/display.h **** 
 412:../../libDaisy//src/hid/disp/display.h ****         // Use the font to write
 413:../../libDaisy//src/hid/disp/display.h ****         for(i = 0; i < font.FontHeight; i++)
 414:../../libDaisy//src/hid/disp/display.h ****         {
 415:../../libDaisy//src/hid/disp/display.h ****             b = font.data[(ch - 32) * font.FontHeight + i];
 416:../../libDaisy//src/hid/disp/display.h ****             for(j = 0; j < font.FontWidth; j++)
 417:../../libDaisy//src/hid/disp/display.h ****             {
 418:../../libDaisy//src/hid/disp/display.h ****                 if((b << j) & 0x8000)
 419:../../libDaisy//src/hid/disp/display.h ****                 {
 420:../../libDaisy//src/hid/disp/display.h ****                     ((ChildType*)(this))
 421:../../libDaisy//src/hid/disp/display.h ****                         ->ChildType::DrawPixel(
 422:../../libDaisy//src/hid/disp/display.h ****                             currentX_ + j, (currentY_ + i), on);
 423:../../libDaisy//src/hid/disp/display.h ****                 }
 424:../../libDaisy//src/hid/disp/display.h ****                 else
 425:../../libDaisy//src/hid/disp/display.h ****                 {
 426:../../libDaisy//src/hid/disp/display.h ****                     ((ChildType*)(this))
 427:../../libDaisy//src/hid/disp/display.h ****                         ->ChildType::DrawPixel(
 428:../../libDaisy//src/hid/disp/display.h ****                             currentX_ + j, (currentY_ + i), !on);
 429:../../libDaisy//src/hid/disp/display.h ****                 }
 430:../../libDaisy//src/hid/disp/display.h ****             }
 431:../../libDaisy//src/hid/disp/display.h ****         }
 432:../../libDaisy//src/hid/disp/display.h **** 
 433:../../libDaisy//src/hid/disp/display.h ****         // The current space is now taken
 434:../../libDaisy//src/hid/disp/display.h ****         SetCursor(currentX_ + font.FontWidth, currentY_);
 435:../../libDaisy//src/hid/disp/display.h **** 
 436:../../libDaisy//src/hid/disp/display.h ****         // Return written char for validation
 437:../../libDaisy//src/hid/disp/display.h ****         return ch;
 438:../../libDaisy//src/hid/disp/display.h ****     }
 439:../../libDaisy//src/hid/disp/display.h **** 
 440:../../libDaisy//src/hid/disp/display.h ****     char WriteString(const char* str, FontDef font, bool on) override
 3822              		.loc 3 440 10 is_stmt 1 view -0
ARM GAS  /var/folders/1y/_321xjh9623c014x9_qw12rr0000gn/T//ccE17DNe.s 			page 134


 3823              		.cfi_startproc
 3824              		@ args = 4, pretend = 0, frame = 32
 3825              		@ frame_needed = 0, uses_anonymous_args = 0
 3826              		.loc 3 440 10 is_stmt 0 view .LVU1032
 3827 0000 2DE9F04F 		push	{r4, r5, r6, r7, r8, r9, r10, fp, lr}
 3828              		.cfi_def_cfa_offset 36
 3829              		.cfi_offset 4, -36
 3830              		.cfi_offset 5, -32
 3831              		.cfi_offset 6, -28
 3832              		.cfi_offset 7, -24
 3833              		.cfi_offset 8, -20
 3834              		.cfi_offset 9, -16
 3835              		.cfi_offset 10, -12
 3836              		.cfi_offset 11, -8
 3837              		.cfi_offset 14, -4
 3838 0004 89B0     		sub	sp, sp, #36
 3839              		.cfi_def_cfa_offset 72
 3840              		.loc 3 440 10 view .LVU1033
 3841 0006 08AC     		add	r4, sp, #32
 3842 0008 9DF84870 		ldrb	r7, [sp, #72]	@ zero_extendqisi2
 3843 000c 0191     		str	r1, [sp, #4]
 3844 000e 04E90C00 		stmdb	r4, {r2, r3}
 441:../../libDaisy//src/hid/disp/display.h ****     {
 442:../../libDaisy//src/hid/disp/display.h ****         // Write until null-byte
 443:../../libDaisy//src/hid/disp/display.h ****         while(*str)
 3845              		.loc 3 443 9 is_stmt 1 view .LVU1034
 3846 0012 0B78     		ldrb	r3, [r1]	@ zero_extendqisi2
 3847 0014 002B     		cmp	r3, #0
 3848 0016 00F0AB80 		beq	.L251
 3849 001a 1A46     		mov	r2, r3
 3850 001c 9DF81880 		ldrb	r8, [sp, #24]	@ zero_extendqisi2
 3851 0020 9DF81930 		ldrb	r3, [sp, #25]	@ zero_extendqisi2
 3852 0024 0646     		mov	r6, r0
 3853 0026 4546     		mov	r5, r8
 3854 0028 9046     		mov	r8, r2
 3855 002a 0393     		str	r3, [sp, #12]
 3856 002c 079B     		ldr	r3, [sp, #28]
 3857 002e 0593     		str	r3, [sp, #20]
 3858              	.LVL274:
 3859              	.L252:
 3860              	.LBB892:
 3861              	.LBI892:
 396:../../libDaisy//src/hid/disp/display.h ****     {
 3862              		.loc 3 396 10 view .LVU1035
 3863              	.LBB893:
 401:../../libDaisy//src/hid/disp/display.h ****             return 0;
 3864              		.loc 3 401 20 is_stmt 0 view .LVU1036
 3865 0030 A8F12004 		sub	r4, r8, #32
 401:../../libDaisy//src/hid/disp/display.h ****             return 0;
 3866              		.loc 3 401 9 view .LVU1037
 3867 0034 E3B2     		uxtb	r3, r4
 3868 0036 5E2B     		cmp	r3, #94
 3869 0038 00F29E80 		bhi	.L233
 405:../../libDaisy//src/hid/disp/display.h ****            || Height() < (currentY_ + font.FontHeight))
 3870              		.loc 3 405 17 view .LVU1038
 3871 003c 3368     		ldr	r3, [r6]
 3872 003e 5E4A     		ldr	r2, .L273
ARM GAS  /var/folders/1y/_321xjh9623c014x9_qw12rr0000gn/T//ccE17DNe.s 			page 135


 3873 0040 DB68     		ldr	r3, [r3, #12]
 3874 0042 9342     		cmp	r3, r2
 3875 0044 40F09B80 		bne	.L266
 3876 0048 8020     		movs	r0, #128
 3877              	.L232:
 405:../../libDaisy//src/hid/disp/display.h ****            || Height() < (currentY_ + font.FontHeight))
 3878              		.loc 3 405 23 view .LVU1039
 3879 004a B388     		ldrh	r3, [r6, #4]
 405:../../libDaisy//src/hid/disp/display.h ****            || Height() < (currentY_ + font.FontHeight))
 3880              		.loc 3 405 33 view .LVU1040
 3881 004c 2B44     		add	r3, r3, r5
 406:../../libDaisy//src/hid/disp/display.h ****         {
 3882              		.loc 3 406 12 view .LVU1041
 3883 004e 8342     		cmp	r3, r0
 3884 0050 00F39280 		bgt	.L233
 406:../../libDaisy//src/hid/disp/display.h ****         {
 3885              		.loc 3 406 21 view .LVU1042
 3886 0054 3368     		ldr	r3, [r6]
 3887 0056 594A     		ldr	r2, .L273+4
 3888 0058 9B68     		ldr	r3, [r3, #8]
 3889 005a 9342     		cmp	r3, r2
 3890 005c 40F09280 		bne	.L267
 3891 0060 4020     		movs	r0, #64
 3892              	.L234:
 406:../../libDaisy//src/hid/disp/display.h ****         {
 3893              		.loc 3 406 27 view .LVU1043
 3894 0062 F188     		ldrh	r1, [r6, #6]
 406:../../libDaisy//src/hid/disp/display.h ****         {
 3895              		.loc 3 406 37 view .LVU1044
 3896 0064 039A     		ldr	r2, [sp, #12]
 406:../../libDaisy//src/hid/disp/display.h ****         {
 3897              		.loc 3 406 27 view .LVU1045
 3898 0066 0291     		str	r1, [sp, #8]
 406:../../libDaisy//src/hid/disp/display.h ****         {
 3899              		.loc 3 406 37 view .LVU1046
 3900 0068 8B18     		adds	r3, r1, r2
 406:../../libDaisy//src/hid/disp/display.h ****         {
 3901              		.loc 3 406 12 view .LVU1047
 3902 006a 8342     		cmp	r3, r0
 3903 006c 00F38480 		bgt	.L233
 3904              	.LVL275:
 413:../../libDaisy//src/hid/disp/display.h ****         {
 3905              		.loc 3 413 22 is_stmt 1 view .LVU1048
 3906 0070 002A     		cmp	r2, #0
 3907 0072 00F09180 		beq	.L235
 415:../../libDaisy//src/hid/disp/display.h ****             for(j = 0; j < font.FontWidth; j++)
 3908              		.loc 3 415 37 is_stmt 0 view .LVU1049
 3909 0076 02FB04F4 		mul	r4, r2, r4
 3910 007a 6FF00049 		mvn	r9, #-2147483648
 3911 007e 059B     		ldr	r3, [sp, #20]
 3912 0080 A144     		add	r9, r9, r4
 3913 0082 1444     		add	r4, r4, r2
 434:../../libDaisy//src/hid/disp/display.h **** 
 3914              		.loc 3 434 19 view .LVU1050
 3915 0084 B6F804B0 		ldrh	fp, [r6, #4]
 3916 0088 03EB4909 		add	r9, r3, r9, lsl #1
 3917 008c 023B     		subs	r3, r3, #2
ARM GAS  /var/folders/1y/_321xjh9623c014x9_qw12rr0000gn/T//ccE17DNe.s 			page 136


 3918 008e CDF81080 		str	r8, [sp, #16]
 3919 0092 03EB4403 		add	r3, r3, r4, lsl #1
 3920 0096 0C46     		mov	r4, r1
 3921 0098 9A46     		mov	r10, r3
 3922              	.LVL276:
 3923              	.L238:
 415:../../libDaisy//src/hid/disp/display.h ****             for(j = 0; j < font.FontWidth; j++)
 3924              		.loc 3 415 15 view .LVU1051
 3925 009a 39F802CF 		ldrh	ip, [r9, #2]!
 3926              	.LVL277:
 416:../../libDaisy//src/hid/disp/display.h ****             {
 3927              		.loc 3 416 26 is_stmt 1 view .LVU1052
 3928 009e A5B3     		cbz	r5, .L243
 3929              	.LBB894:
 3930              	.LBB895:
 3931              	.LBB896:
 3932              	.LBB897:
 3933              	.LBB898:
 359:../../libDaisy//src/dev/oled_ssd130x.h ****     }
 3934              		.loc 4 359 55 is_stmt 0 view .LVU1053
 3935 00a0 04F00703 		and	r3, r4, #7
 359:../../libDaisy//src/dev/oled_ssd130x.h ****     }
 3936              		.loc 4 359 49 view .LVU1054
 3937 00a4 4FF0010E 		mov	lr, #1
 359:../../libDaisy//src/dev/oled_ssd130x.h ****     }
 3938              		.loc 4 359 28 view .LVU1055
 3939 00a8 E208     		lsrs	r2, r4, #3
 3940 00aa 5946     		mov	r1, fp
 359:../../libDaisy//src/dev/oled_ssd130x.h ****     }
 3941              		.loc 4 359 49 view .LVU1056
 3942 00ac 0EFA03FE 		lsl	lr, lr, r3
 3943 00b0 0BF11403 		add	r3, fp, #20
 359:../../libDaisy//src/dev/oled_ssd130x.h ****     }
 3944              		.loc 4 359 42 view .LVU1057
 3945 00b4 4FFA8EFE 		sxtb	lr, lr
 3946 00b8 03EBC212 		add	r2, r3, r2, lsl #7
 3947              	.LBE898:
 3948              	.LBE897:
 3949              	.LBE896:
 3950              	.LBE895:
 3951              	.LBE894:
 416:../../libDaisy//src/hid/disp/display.h ****             {
 3952              		.loc 3 416 19 view .LVU1058
 3953 00bc 0023     		movs	r3, #0
 3954              	.LBB916:
 3955              	.LBB911:
 3956              	.LBB906:
 3957              	.LBB902:
 3958              	.LBB899:
 359:../../libDaisy//src/dev/oled_ssd130x.h ****     }
 3959              		.loc 4 359 42 view .LVU1059
 3960 00be 6FEA0E08 		mvn	r8, lr
 3961 00c2 3244     		add	r2, r2, r6
 3962 00c4 0DE0     		b	.L244
 3963              	.LVL278:
 3964              	.L268:
 359:../../libDaisy//src/dev/oled_ssd130x.h ****     }
ARM GAS  /var/folders/1y/_321xjh9623c014x9_qw12rr0000gn/T//ccE17DNe.s 			page 137


 3965              		.loc 4 359 42 view .LVU1060
 3966              	.LBE899:
 3967              	.LBE902:
 3968              	.LBE906:
 3969              	.LBE911:
 3970              	.LBE916:
 3971              	.LBB917:
 3972              	.LBI917:
  42:../../libDaisy//src/hid/disp/oled_display.h ****     {
 3973              		.loc 1 42 10 is_stmt 1 view .LVU1061
 3974              	.LBB918:
 3975              	.LBI918:
 352:../../libDaisy//src/dev/oled_ssd130x.h ****     {
 3976              		.loc 4 352 10 view .LVU1062
 3977              	.LBB919:
 354:../../libDaisy//src/dev/oled_ssd130x.h ****             return;
 3978              		.loc 4 354 9 is_stmt 0 view .LVU1063
 3979 00c6 7F29     		cmp	r1, #127
 3980 00c8 06D8     		bhi	.L240
 3981 00ca 3F2C     		cmp	r4, #63
 3982 00cc 04D8     		bhi	.L240
 357:../../libDaisy//src/dev/oled_ssd130x.h ****         else
 3983              		.loc 4 357 42 view .LVU1064
 3984 00ce 1078     		ldrb	r0, [r2]	@ zero_extendqisi2
 356:../../libDaisy//src/dev/oled_ssd130x.h ****             buffer_[x + (y / 8) * width] |= (1 << (y % 8));
 3985              		.loc 4 356 9 view .LVU1065
 3986 00d0 97B1     		cbz	r7, .L242
 3987              	.L265:
 356:../../libDaisy//src/dev/oled_ssd130x.h ****             buffer_[x + (y / 8) * width] |= (1 << (y % 8));
 3988              		.loc 4 356 9 view .LVU1066
 3989              	.LBE919:
 3990              	.LBE918:
 3991              	.LBE917:
 3992              	.LBB920:
 3993              	.LBB912:
 3994              	.LBB907:
 357:../../libDaisy//src/dev/oled_ssd130x.h ****         else
 3995              		.loc 4 357 42 view .LVU1067
 3996 00d2 4EEA0000 		orr	r0, lr, r0
 3997 00d6 1070     		strb	r0, [r2]
 3998              	.L240:
 3999              	.LBE907:
 4000              	.LBE912:
 4001              	.LBE920:
 416:../../libDaisy//src/hid/disp/display.h ****             {
 4002              		.loc 3 416 13 is_stmt 1 view .LVU1068
 4003 00d8 0133     		adds	r3, r3, #1
 4004              	.LVL279:
 416:../../libDaisy//src/hid/disp/display.h ****             {
 4005              		.loc 3 416 26 view .LVU1069
 4006 00da 0132     		adds	r2, r2, #1
 4007 00dc 0131     		adds	r1, r1, #1
 4008 00de AB42     		cmp	r3, r5
 4009 00e0 13D0     		beq	.L243
 4010              	.LVL280:
 4011              	.L244:
 418:../../libDaisy//src/hid/disp/display.h ****                 {
ARM GAS  /var/folders/1y/_321xjh9623c014x9_qw12rr0000gn/T//ccE17DNe.s 			page 138


 4012              		.loc 3 418 23 is_stmt 0 view .LVU1070
 4013 00e2 0CFA03F0 		lsl	r0, ip, r3
 418:../../libDaisy//src/hid/disp/display.h ****                 {
 4014              		.loc 3 418 17 view .LVU1071
 4015 00e6 0004     		lsls	r0, r0, #16
 4016 00e8 EDD4     		bmi	.L268
 4017              	.LVL281:
 4018              	.LBB921:
 4019              	.LBI894:
  42:../../libDaisy//src/hid/disp/oled_display.h ****     {
 4020              		.loc 1 42 10 is_stmt 1 view .LVU1072
 4021              	.LBB913:
 4022              	.LBI895:
 352:../../libDaisy//src/dev/oled_ssd130x.h ****     {
 4023              		.loc 4 352 10 view .LVU1073
 4024              	.LBB908:
 354:../../libDaisy//src/dev/oled_ssd130x.h ****             return;
 4025              		.loc 4 354 9 is_stmt 0 view .LVU1074
 4026 00ea 7F29     		cmp	r1, #127
 4027 00ec F4D8     		bhi	.L240
 4028 00ee 3F2C     		cmp	r4, #63
 4029 00f0 F2D8     		bhi	.L240
 357:../../libDaisy//src/dev/oled_ssd130x.h ****         else
 4030              		.loc 4 357 42 view .LVU1075
 4031 00f2 1078     		ldrb	r0, [r2]	@ zero_extendqisi2
 356:../../libDaisy//src/dev/oled_ssd130x.h ****             buffer_[x + (y / 8) * width] |= (1 << (y % 8));
 4032              		.loc 4 356 9 view .LVU1076
 4033 00f4 002F     		cmp	r7, #0
 4034 00f6 ECD0     		beq	.L265
 4035              	.L242:
 4036              	.LVL282:
 4037              	.LBB903:
 4038              	.LBI897:
 352:../../libDaisy//src/dev/oled_ssd130x.h ****     {
 4039              		.loc 4 352 10 is_stmt 1 view .LVU1077
 352:../../libDaisy//src/dev/oled_ssd130x.h ****     {
 4040              		.loc 4 352 10 is_stmt 0 view .LVU1078
 4041              	.LBE903:
 4042              	.LBE908:
 4043              	.LBE913:
 4044              	.LBE921:
 416:../../libDaisy//src/hid/disp/display.h ****             {
 4045              		.loc 3 416 13 view .LVU1079
 4046 00f8 0133     		adds	r3, r3, #1
 4047              	.LVL283:
 4048              	.LBB922:
 4049              	.LBB914:
 4050              	.LBB909:
 4051              	.LBB904:
 4052              	.LBB900:
 359:../../libDaisy//src/dev/oled_ssd130x.h ****     }
 4053              		.loc 4 359 42 view .LVU1080
 4054 00fa 08EA0000 		and	r0, r8, r0
 4055              	.LBE900:
 4056              	.LBE904:
 4057              	.LBE909:
 4058              	.LBE914:
ARM GAS  /var/folders/1y/_321xjh9623c014x9_qw12rr0000gn/T//ccE17DNe.s 			page 139


 4059              	.LBE922:
 416:../../libDaisy//src/hid/disp/display.h ****             {
 4060              		.loc 3 416 26 view .LVU1081
 4061 00fe 0132     		adds	r2, r2, #1
 4062 0100 0131     		adds	r1, r1, #1
 4063 0102 AB42     		cmp	r3, r5
 4064              	.LBB923:
 4065              	.LBB915:
 4066              	.LBB910:
 4067              	.LBB905:
 4068              	.LBB901:
 359:../../libDaisy//src/dev/oled_ssd130x.h ****     }
 4069              		.loc 4 359 42 view .LVU1082
 4070 0104 02F8010C 		strb	r0, [r2, #-1]
 359:../../libDaisy//src/dev/oled_ssd130x.h ****     }
 4071              		.loc 4 359 42 view .LVU1083
 4072              	.LBE901:
 4073              	.LBE905:
 4074              	.LBE910:
 4075              	.LBE915:
 4076              	.LBE923:
 416:../../libDaisy//src/hid/disp/display.h ****             {
 4077              		.loc 3 416 13 is_stmt 1 view .LVU1084
 4078              	.LVL284:
 416:../../libDaisy//src/hid/disp/display.h ****             {
 4079              		.loc 3 416 26 view .LVU1085
 4080 0108 EBD1     		bne	.L244
 4081              	.LVL285:
 4082              	.L243:
 413:../../libDaisy//src/hid/disp/display.h ****         {
 4083              		.loc 3 413 9 view .LVU1086
 413:../../libDaisy//src/hid/disp/display.h ****         {
 4084              		.loc 3 413 22 view .LVU1087
 4085 010a D145     		cmp	r9, r10
 4086 010c 04F10104 		add	r4, r4, #1
 4087 0110 C3D1     		bne	.L238
 4088 0112 DDF81080 		ldr	r8, [sp, #16]
 4089              	.LVL286:
 4090              	.L237:
 4091              	.LBB924:
 4092              	.LBB925:
 173:../../libDaisy//src/hid/disp/display.h ****         currentY_ = (y >= Height()) ? Height() - 1 : y;
 4093              		.loc 3 173 33 is_stmt 0 view .LVU1088
 4094 0116 3268     		ldr	r2, [r6]
 4095              	.LBE925:
 4096              	.LBE924:
 434:../../libDaisy//src/hid/disp/display.h **** 
 4097              		.loc 3 434 18 view .LVU1089
 4098 0118 0BEB0504 		add	r4, fp, r5
 4099 011c 2649     		ldr	r1, .L273
 4100              	.LBB930:
 4101              	.LBB926:
 173:../../libDaisy//src/hid/disp/display.h ****         currentY_ = (y >= Height()) ? Height() - 1 : y;
 4102              		.loc 3 173 33 view .LVU1090
 4103 011e D368     		ldr	r3, [r2, #12]
 4104              	.LBE926:
 4105              	.LBE930:
ARM GAS  /var/folders/1y/_321xjh9623c014x9_qw12rr0000gn/T//ccE17DNe.s 			page 140


 434:../../libDaisy//src/hid/disp/display.h **** 
 4106              		.loc 3 434 18 view .LVU1091
 4107 0120 A4B2     		uxth	r4, r4
 4108              	.LVL287:
 4109              	.LBB931:
 4110              	.LBI924:
 171:../../libDaisy//src/hid/disp/display.h ****     {
 4111              		.loc 3 171 10 is_stmt 1 view .LVU1092
 4112              	.LBB927:
 173:../../libDaisy//src/hid/disp/display.h ****         currentY_ = (y >= Height()) ? Height() - 1 : y;
 4113              		.loc 3 173 9 view .LVU1093
 4114 0122 8B42     		cmp	r3, r1
 4115 0124 34D1     		bne	.L269
 173:../../libDaisy//src/hid/disp/display.h ****         currentY_ = (y >= Height()) ? Height() - 1 : y;
 4116              		.loc 3 173 33 is_stmt 0 view .LVU1094
 4117 0126 8020     		movs	r0, #128
 4118              	.L245:
 173:../../libDaisy//src/hid/disp/display.h ****         currentY_ = (y >= Height()) ? Height() - 1 : y;
 4119              		.loc 3 173 19 view .LVU1095
 4120 0128 8442     		cmp	r4, r0
 4121 012a 04D3     		bcc	.L246
 173:../../libDaisy//src/hid/disp/display.h ****         currentY_ = (y >= Height()) ? Height() - 1 : y;
 4122              		.loc 3 173 44 view .LVU1096
 4123 012c D368     		ldr	r3, [r2, #12]
 4124 012e 2249     		ldr	r1, .L273
 4125 0130 8B42     		cmp	r3, r1
 4126 0132 3AD1     		bne	.L270
 4127 0134 7F24     		movs	r4, #127
 4128              	.LVL288:
 4129              	.L246:
 174:../../libDaisy//src/hid/disp/display.h ****     }
 4130              		.loc 3 174 34 view .LVU1097
 4131 0136 9368     		ldr	r3, [r2, #8]
 4132 0138 204A     		ldr	r2, .L273+4
 173:../../libDaisy//src/hid/disp/display.h ****         currentY_ = (y >= Height()) ? Height() - 1 : y;
 4133              		.loc 3 173 19 view .LVU1098
 4134 013a B480     		strh	r4, [r6, #4]	@ movhi
 174:../../libDaisy//src/hid/disp/display.h ****     }
 4135              		.loc 3 174 9 is_stmt 1 view .LVU1099
 4136 013c 9342     		cmp	r3, r2
 4137 013e 24D1     		bne	.L271
 174:../../libDaisy//src/hid/disp/display.h ****     }
 4138              		.loc 3 174 34 is_stmt 0 view .LVU1100
 4139 0140 4020     		movs	r0, #64
 4140              	.L248:
 174:../../libDaisy//src/hid/disp/display.h ****     }
 4141              		.loc 3 174 19 view .LVU1101
 4142 0142 029B     		ldr	r3, [sp, #8]
 4143 0144 8342     		cmp	r3, r0
 4144 0146 06D3     		bcc	.L249
 174:../../libDaisy//src/hid/disp/display.h ****     }
 4145              		.loc 3 174 46 view .LVU1102
 4146 0148 3368     		ldr	r3, [r6]
 4147 014a 1C4A     		ldr	r2, .L273+4
 4148 014c 9B68     		ldr	r3, [r3, #8]
 4149 014e 9342     		cmp	r3, r2
 4150 0150 25D1     		bne	.L272
ARM GAS  /var/folders/1y/_321xjh9623c014x9_qw12rr0000gn/T//ccE17DNe.s 			page 141


 4151 0152 3F23     		movs	r3, #63
 4152 0154 0293     		str	r3, [sp, #8]
 4153              	.LVL289:
 4154              	.L249:
 174:../../libDaisy//src/hid/disp/display.h ****     }
 4155              		.loc 3 174 19 view .LVU1103
 4156 0156 029B     		ldr	r3, [sp, #8]
 4157 0158 F380     		strh	r3, [r6, #6]	@ movhi
 4158              	.LVL290:
 4159              	.L231:
 174:../../libDaisy//src/hid/disp/display.h ****     }
 4160              		.loc 3 174 19 view .LVU1104
 4161              	.LBE927:
 4162              	.LBE931:
 4163              	.LBE893:
 4164              	.LBE892:
 444:../../libDaisy//src/hid/disp/display.h ****         {
 445:../../libDaisy//src/hid/disp/display.h ****             if(((ChildType*)(this))->ChildType::WriteChar(*str, font, on)
 446:../../libDaisy//src/hid/disp/display.h ****                != *str)
 4165              		.loc 3 446 16 view .LVU1105
 4166 015a 019B     		ldr	r3, [sp, #4]
 4167 015c 1878     		ldrb	r0, [r3]	@ zero_extendqisi2
 445:../../libDaisy//src/hid/disp/display.h ****                != *str)
 4168              		.loc 3 445 13 view .LVU1106
 4169 015e 4045     		cmp	r0, r8
 4170 0160 07D1     		bne	.L229
 4171              	.LVL291:
 443:../../libDaisy//src/hid/disp/display.h ****         {
 4172              		.loc 3 443 9 is_stmt 1 view .LVU1107
 4173 0162 13F8018F 		ldrb	r8, [r3, #1]!	@ zero_extendqisi2
 4174              	.LVL292:
 443:../../libDaisy//src/hid/disp/display.h ****         {
 4175              		.loc 3 443 9 is_stmt 0 view .LVU1108
 4176 0166 0193     		str	r3, [sp, #4]
 4177 0168 B8F1000F 		cmp	r8, #0
 4178 016c 7FF460AF 		bne	.L252
 4179              	.LVL293:
 4180              	.L251:
 4181              	.LBB936:
 4182              	.LBB934:
 402:../../libDaisy//src/hid/disp/display.h **** 
 4183              		.loc 3 402 20 view .LVU1109
 4184 0170 0020     		movs	r0, #0
 4185              	.L229:
 4186              	.LBE934:
 4187              	.LBE936:
 447:../../libDaisy//src/hid/disp/display.h ****             {
 448:../../libDaisy//src/hid/disp/display.h ****                 // Char could not be written
 449:../../libDaisy//src/hid/disp/display.h ****                 return *str;
 450:../../libDaisy//src/hid/disp/display.h ****             }
 451:../../libDaisy//src/hid/disp/display.h **** 
 452:../../libDaisy//src/hid/disp/display.h ****             // Next char
 453:../../libDaisy//src/hid/disp/display.h ****             str++;
 454:../../libDaisy//src/hid/disp/display.h ****         }
 455:../../libDaisy//src/hid/disp/display.h **** 
 456:../../libDaisy//src/hid/disp/display.h ****         // Everything ok
 457:../../libDaisy//src/hid/disp/display.h ****         return *str;
ARM GAS  /var/folders/1y/_321xjh9623c014x9_qw12rr0000gn/T//ccE17DNe.s 			page 142


 458:../../libDaisy//src/hid/disp/display.h ****     }
 4188              		.loc 3 458 5 view .LVU1110
 4189 0172 09B0     		add	sp, sp, #36
 4190              		.cfi_remember_state
 4191              		.cfi_def_cfa_offset 36
 4192              		@ sp needed
 4193 0174 BDE8F08F 		pop	{r4, r5, r6, r7, r8, r9, r10, fp, pc}
 4194              	.LVL294:
 4195              	.L233:
 4196              		.cfi_restore_state
 4197              	.LBB937:
 4198              	.LBB935:
 402:../../libDaisy//src/hid/disp/display.h **** 
 4199              		.loc 3 402 20 view .LVU1111
 4200 0178 4FF00008 		mov	r8, #0
 4201              	.LVL295:
 402:../../libDaisy//src/hid/disp/display.h **** 
 4202              		.loc 3 402 20 view .LVU1112
 4203 017c EDE7     		b	.L231
 4204              	.LVL296:
 4205              	.L266:
 405:../../libDaisy//src/hid/disp/display.h ****            || Height() < (currentY_ + font.FontHeight))
 4206              		.loc 3 405 17 view .LVU1113
 4207 017e 3046     		mov	r0, r6
 4208 0180 9847     		blx	r3
 4209              	.LVL297:
 4210 0182 62E7     		b	.L232
 4211              	.L267:
 406:../../libDaisy//src/hid/disp/display.h ****         {
 4212              		.loc 3 406 21 view .LVU1114
 4213 0184 3046     		mov	r0, r6
 4214 0186 9847     		blx	r3
 4215              	.LVL298:
 4216 0188 6BE7     		b	.L234
 4217              	.LVL299:
 4218              	.L271:
 4219              	.LBB932:
 4220              	.LBB928:
 174:../../libDaisy//src/hid/disp/display.h ****     }
 4221              		.loc 3 174 33 view .LVU1115
 4222 018a 3046     		mov	r0, r6
 4223 018c 9847     		blx	r3
 4224              	.LVL300:
 4225 018e D8E7     		b	.L248
 4226              	.LVL301:
 4227              	.L269:
 173:../../libDaisy//src/hid/disp/display.h ****         currentY_ = (y >= Height()) ? Height() - 1 : y;
 4228              		.loc 3 173 32 view .LVU1116
 4229 0190 3046     		mov	r0, r6
 4230 0192 9847     		blx	r3
 4231              	.LVL302:
 173:../../libDaisy//src/hid/disp/display.h ****         currentY_ = (y >= Height()) ? Height() - 1 : y;
 4232              		.loc 3 173 44 view .LVU1117
 4233 0194 3268     		ldr	r2, [r6]
 4234 0196 C7E7     		b	.L245
 4235              	.LVL303:
 4236              	.L235:
ARM GAS  /var/folders/1y/_321xjh9623c014x9_qw12rr0000gn/T//ccE17DNe.s 			page 143


 173:../../libDaisy//src/hid/disp/display.h ****         currentY_ = (y >= Height()) ? Height() - 1 : y;
 4237              		.loc 3 173 44 view .LVU1118
 4238              	.LBE928:
 4239              	.LBE932:
 434:../../libDaisy//src/hid/disp/display.h **** 
 4240              		.loc 3 434 19 view .LVU1119
 4241 0198 B6F804B0 		ldrh	fp, [r6, #4]
 4242 019c BBE7     		b	.L237
 4243              	.LVL304:
 4244              	.L272:
 4245              	.LBB933:
 4246              	.LBB929:
 174:../../libDaisy//src/hid/disp/display.h ****     }
 4247              		.loc 3 174 45 view .LVU1120
 4248 019e 3046     		mov	r0, r6
 4249 01a0 9847     		blx	r3
 4250              	.LVL305:
 174:../../libDaisy//src/hid/disp/display.h ****     }
 4251              		.loc 3 174 19 view .LVU1121
 4252 01a2 0138     		subs	r0, r0, #1
 4253 01a4 83B2     		uxth	r3, r0
 4254 01a6 0293     		str	r3, [sp, #8]
 4255              	.LVL306:
 174:../../libDaisy//src/hid/disp/display.h ****     }
 4256              		.loc 3 174 19 view .LVU1122
 4257 01a8 D5E7     		b	.L249
 4258              	.LVL307:
 4259              	.L270:
 173:../../libDaisy//src/hid/disp/display.h ****         currentY_ = (y >= Height()) ? Height() - 1 : y;
 4260              		.loc 3 173 43 view .LVU1123
 4261 01aa 3046     		mov	r0, r6
 4262 01ac 9847     		blx	r3
 4263              	.LVL308:
 173:../../libDaisy//src/hid/disp/display.h ****         currentY_ = (y >= Height()) ? Height() - 1 : y;
 4264              		.loc 3 173 19 view .LVU1124
 4265 01ae 0138     		subs	r0, r0, #1
 174:../../libDaisy//src/hid/disp/display.h ****     }
 4266              		.loc 3 174 34 view .LVU1125
 4267 01b0 3268     		ldr	r2, [r6]
 173:../../libDaisy//src/hid/disp/display.h ****         currentY_ = (y >= Height()) ? Height() - 1 : y;
 4268              		.loc 3 173 19 view .LVU1126
 4269 01b2 84B2     		uxth	r4, r0
 4270              	.LVL309:
 173:../../libDaisy//src/hid/disp/display.h ****         currentY_ = (y >= Height()) ? Height() - 1 : y;
 4271              		.loc 3 173 19 view .LVU1127
 4272 01b4 BFE7     		b	.L246
 4273              	.L274:
 4274 01b6 00BF     		.align	2
 4275              	.L273:
 4276 01b8 00000000 		.word	_ZNK5daisy11OledDisplayINS_13SSD130xDriverILj128ELj64ENS_24SSD130x4WireSpiTransportEEEE5Widt
 4277 01bc 00000000 		.word	_ZNK5daisy11OledDisplayINS_13SSD130xDriverILj128ELj64ENS_24SSD130x4WireSpiTransportEEEE6Heig
 4278              	.LBE929:
 4279              	.LBE933:
 4280              	.LBE935:
 4281              	.LBE937:
 4282              		.cfi_endproc
 4283              	.LFE4036:
ARM GAS  /var/folders/1y/_321xjh9623c014x9_qw12rr0000gn/T//ccE17DNe.s 			page 144


 4285              		.section	.text._ZN5daisy5Dubby18HightlightMenuItemEv,"ax",%progbits
 4286              		.align	1
 4287              		.p2align 2,,3
 4288              		.global	_ZN5daisy5Dubby18HightlightMenuItemEv
 4289              		.syntax unified
 4290              		.thumb
 4291              		.thumb_func
 4293              	_ZN5daisy5Dubby18HightlightMenuItemEv:
 4294              	.LVL310:
 4295              	.LFB3738:
 213:Dubby.cpp     **** {
 4296              		.loc 2 213 1 is_stmt 1 view -0
 4297              		.cfi_startproc
 4298              		@ args = 0, pretend = 0, frame = 40
 4299              		@ frame_needed = 0, uses_anonymous_args = 0
 215:Dubby.cpp     ****     display.DrawRect(menuBoxBounding[0][0], menuBoxBounding[0][1], menuBoxBounding[0][2], menuBoxBo
 4300              		.loc 2 215 5 view .LVU1129
 213:Dubby.cpp     **** {
 4301              		.loc 2 213 1 is_stmt 0 view .LVU1130
 4302 0000 2DE9F04F 		push	{r4, r5, r6, r7, r8, r9, r10, fp, lr}
 4303              		.cfi_def_cfa_offset 36
 4304              		.cfi_offset 4, -36
 4305              		.cfi_offset 5, -32
 4306              		.cfi_offset 6, -28
 4307              		.cfi_offset 7, -24
 4308              		.cfi_offset 8, -20
 4309              		.cfi_offset 9, -16
 4310              		.cfi_offset 10, -12
 4311              		.cfi_offset 11, -8
 4312              		.cfi_offset 14, -4
 215:Dubby.cpp     ****     display.DrawRect(menuBoxBounding[0][0], menuBoxBounding[0][1], menuBoxBounding[0][2], menuBoxBo
 4313              		.loc 2 215 88 view .LVU1131
 4314 0004 D0F88060 		ldr	r6, [r0, #128]
 215:Dubby.cpp     ****     display.DrawRect(menuBoxBounding[0][0], menuBoxBounding[0][1], menuBoxBounding[0][2], menuBoxBo
 4315              		.loc 2 215 21 view .LVU1132
 4316 0008 00F59563 		add	r3, r0, #1192
 215:Dubby.cpp     ****     display.DrawRect(menuBoxBounding[0][0], menuBoxBounding[0][1], menuBoxBounding[0][2], menuBoxBo
 4317              		.loc 2 215 42 view .LVU1133
 4318 000c 876F     		ldr	r7, [r0, #120]
 213:Dubby.cpp     **** {
 4319              		.loc 2 213 1 view .LVU1134
 4320 000e 8DB0     		sub	sp, sp, #52
 4321              		.cfi_def_cfa_offset 88
 215:Dubby.cpp     ****     display.DrawRect(menuBoxBounding[0][0], menuBoxBounding[0][1], menuBoxBounding[0][2], menuBoxBo
 4322              		.loc 2 215 111 view .LVU1135
 4323 0010 D0F88420 		ldr	r2, [r0, #132]
 215:Dubby.cpp     ****     display.DrawRect(menuBoxBounding[0][0], menuBoxBounding[0][1], menuBoxBounding[0][2], menuBoxBo
 4324              		.loc 2 215 21 view .LVU1136
 4325 0014 07EE903A 		vmov	s15, r3	@ int
 4326              	.LBB1106:
 4327              	.LBB1107:
 4328              	.LBB1108:
 227:../../libDaisy//src/hid/disp/display.h ****         int_fast16_t deltaY = abs((int_fast16_t)y2 - (int_fast16_t)y1);
 4329              		.loc 3 227 52 view .LVU1137
 4330 0018 A6EB070A 		sub	r10, r6, r7
 4331              	.LBE1108:
 4332              	.LBE1107:
ARM GAS  /var/folders/1y/_321xjh9623c014x9_qw12rr0000gn/T//ccE17DNe.s 			page 145


 4333              	.LBE1106:
 215:Dubby.cpp     ****     display.DrawRect(menuBoxBounding[0][0], menuBoxBounding[0][1], menuBoxBounding[0][2], menuBoxBo
 4334              		.loc 2 215 65 view .LVU1138
 4335 001c C36F     		ldr	r3, [r0, #124]
 213:Dubby.cpp     **** {
 4336              		.loc 2 213 1 view .LVU1139
 4337 001e 0446     		mov	r4, r0
 215:Dubby.cpp     ****     display.DrawRect(menuBoxBounding[0][0], menuBoxBounding[0][1], menuBoxBounding[0][2], menuBoxBo
 4338              		.loc 2 215 111 view .LVU1140
 4339 0020 0492     		str	r2, [sp, #16]
 4340              	.LBB1200:
 4341              	.LBB1138:
 4342              	.LBB1134:
 227:../../libDaisy//src/hid/disp/display.h ****         int_fast16_t deltaY = abs((int_fast16_t)y2 - (int_fast16_t)y1);
 4343              		.loc 3 227 22 view .LVU1141
 4344 0022 BAF1000F 		cmp	r10, #0
 4345              	.LBE1134:
 4346              	.LBE1138:
 4347              	.LBE1200:
 215:Dubby.cpp     ****     display.DrawRect(menuBoxBounding[0][0], menuBoxBounding[0][1], menuBoxBounding[0][2], menuBoxBo
 4348              		.loc 2 215 21 view .LVU1142
 4349 0026 3046     		mov	r0, r6
 4350              	.LVL311:
 215:Dubby.cpp     ****     display.DrawRect(menuBoxBounding[0][0], menuBoxBounding[0][1], menuBoxBounding[0][2], menuBoxBo
 4351              		.loc 2 215 65 view .LVU1143
 4352 0028 0393     		str	r3, [sp, #12]
 4353              	.LVL312:
 4354              	.LBB1201:
 4355              	.LBI1106:
 257:../../libDaisy//src/hid/disp/display.h ****                   uint_fast8_t y1,
 4356              		.loc 3 257 10 is_stmt 1 view .LVU1144
 4357              	.LBB1139:
 4358              	.LBI1107:
 221:../../libDaisy//src/hid/disp/display.h ****                   uint_fast8_t y1,
 4359              		.loc 3 221 10 view .LVU1145
 4360              	.LBB1135:
 227:../../libDaisy//src/hid/disp/display.h ****         int_fast16_t deltaY = abs((int_fast16_t)y2 - (int_fast16_t)y1);
 4361              		.loc 3 227 22 is_stmt 0 view .LVU1146
 4362 002a B8BF     		it	lt
 4363 002c CAF1000A 		rsblt	r10, r10, #0
 4364              	.LVL313:
 229:../../libDaisy//src/hid/disp/display.h ****         int_fast16_t signY  = ((y1 < y2) ? 1 : -1);
 4365              		.loc 3 229 42 view .LVU1147
 4366 0030 B742     		cmp	r7, r6
 4367 0032 5CD3     		bcc	.L276
 4368              	.LVL314:
 4369              	.LBB1109:
 4370              	.LBI1109:
  42:../../libDaisy//src/hid/disp/oled_display.h ****     {
 4371              		.loc 1 42 10 is_stmt 1 view .LVU1148
 4372              	.LBB1110:
 4373              	.LBB1111:
 4374              	.LBB1112:
 354:../../libDaisy//src/dev/oled_ssd130x.h ****             return;
 4375              		.loc 4 354 14 is_stmt 0 view .LVU1149
 4376 0034 7F2E     		cmp	r6, #127
 4377              	.LBE1112:
ARM GAS  /var/folders/1y/_321xjh9623c014x9_qw12rr0000gn/T//ccE17DNe.s 			page 146


 4378              	.LBE1111:
 4379              		.loc 1 44 26 view .LVU1150
 4380 0036 04F59665 		add	r5, r4, #1200
 4381              	.LVL315:
 4382              	.LBB1117:
 4383              	.LBI1111:
 352:../../libDaisy//src/dev/oled_ssd130x.h ****     {
 4384              		.loc 4 352 10 is_stmt 1 view .LVU1151
 4385              	.LBE1117:
 4386              	.LBE1110:
 4387              	.LBE1109:
 229:../../libDaisy//src/hid/disp/display.h ****         int_fast16_t signY  = ((y1 < y2) ? 1 : -1);
 4388              		.loc 3 229 42 is_stmt 0 view .LVU1152
 4389 003a 4FF0FF3B 		mov	fp, #-1
 4390              	.LBB1127:
 4391              	.LBB1123:
 4392              	.LBB1118:
 4393              	.LBB1113:
 354:../../libDaisy//src/dev/oled_ssd130x.h ****             return;
 4394              		.loc 4 354 14 view .LVU1153
 4395 003e 94BF     		ite	ls
 4396 0040 0021     		movls	r1, #0
 4397 0042 0121     		movhi	r1, #1
 354:../../libDaisy//src/dev/oled_ssd130x.h ****             return;
 4398              		.loc 4 354 28 view .LVU1154
 4399 0044 3F2B     		cmp	r3, #63
 354:../../libDaisy//src/dev/oled_ssd130x.h ****             return;
 4400              		.loc 4 354 14 view .LVU1155
 4401 0046 0691     		str	r1, [sp, #24]
 354:../../libDaisy//src/dev/oled_ssd130x.h ****             return;
 4402              		.loc 4 354 28 view .LVU1156
 4403 0048 94BF     		ite	ls
 4404 004a 0023     		movls	r3, #0
 4405              	.LVL316:
 354:../../libDaisy//src/dev/oled_ssd130x.h ****             return;
 4406              		.loc 4 354 28 view .LVU1157
 4407 004c 0123     		movhi	r3, #1
 4408 004e 0893     		str	r3, [sp, #32]
 354:../../libDaisy//src/dev/oled_ssd130x.h ****             return;
 4409              		.loc 4 354 9 view .LVU1158
 4410 0050 09B9     		cbnz	r1, .L277
 4411 0052 002B     		cmp	r3, #0
 4412 0054 5ED0     		beq	.L319
 4413              	.L277:
 4414              	.LVL317:
 354:../../libDaisy//src/dev/oled_ssd130x.h ****             return;
 4415              		.loc 4 354 9 view .LVU1159
 4416              	.LBE1113:
 4417              	.LBE1118:
 4418              	.LBE1123:
 4419              	.LBE1127:
 239:../../libDaisy//src/hid/disp/display.h ****         {
 4420              		.loc 3 239 26 is_stmt 1 view .LVU1160
 4421 0056 B742     		cmp	r7, r6
 4422 0058 74D0     		beq	.L366
 4423              	.LVL318:
 4424              	.L279:
ARM GAS  /var/folders/1y/_321xjh9623c014x9_qw12rr0000gn/T//ccE17DNe.s 			page 147


 227:../../libDaisy//src/hid/disp/display.h ****         int_fast16_t deltaY = abs((int_fast16_t)y2 - (int_fast16_t)y1);
 4425              		.loc 3 227 22 is_stmt 0 view .LVU1161
 4426 005a D046     		mov	r8, r10
 4427              	.LBE1135:
 4428              	.LBE1139:
 4429              	.LBE1201:
 215:Dubby.cpp     ****     display.DrawRect(menuBoxBounding[0][0], menuBoxBounding[0][1], menuBoxBounding[0][2], menuBoxBo
 4430              		.loc 2 215 21 view .LVU1162
 4431 005c DDF80CC0 		ldr	ip, [sp, #12]
 4432 0060 BE46     		mov	lr, r7
 4433              	.L281:
 4434              	.LVL319:
 4435              	.LBB1202:
 4436              	.LBB1140:
 4437              	.LBB1136:
 4438              	.LBB1128:
 4439              	.LBI1128:
  42:../../libDaisy//src/hid/disp/oled_display.h ****     {
 4440              		.loc 1 42 10 is_stmt 1 view .LVU1163
 4441              	.LBB1129:
 4442              	.LBI1129:
 352:../../libDaisy//src/dev/oled_ssd130x.h ****     {
 4443              		.loc 4 352 10 view .LVU1164
 4444              	.LBB1130:
 357:../../libDaisy//src/dev/oled_ssd130x.h ****         else
 4445              		.loc 4 357 28 is_stmt 0 view .LVU1165
 4446 0062 4FEADC03 		lsr	r3, ip, #3
 357:../../libDaisy//src/dev/oled_ssd130x.h ****         else
 4447              		.loc 4 357 54 view .LVU1166
 4448 0066 0CF00701 		and	r1, ip, #7
 357:../../libDaisy//src/dev/oled_ssd130x.h ****         else
 4449              		.loc 4 357 48 view .LVU1167
 4450 006a 4FF00109 		mov	r9, #1
 354:../../libDaisy//src/dev/oled_ssd130x.h ****             return;
 4451              		.loc 4 354 9 view .LVU1168
 4452 006e BEF17F0F 		cmp	lr, #127
 357:../../libDaisy//src/dev/oled_ssd130x.h ****         else
 4453              		.loc 4 357 42 view .LVU1169
 4454 0072 0EEBC313 		add	r3, lr, r3, lsl #7
 357:../../libDaisy//src/dev/oled_ssd130x.h ****         else
 4455              		.loc 4 357 48 view .LVU1170
 4456 0076 09FA01F1 		lsl	r1, r9, r1
 354:../../libDaisy//src/dev/oled_ssd130x.h ****             return;
 4457              		.loc 4 354 9 view .LVU1171
 4458 007a 09D8     		bhi	.L282
 4459 007c BCF13F0F 		cmp	ip, #63
 357:../../libDaisy//src/dev/oled_ssd130x.h ****         else
 4460              		.loc 4 357 42 view .LVU1172
 4461 0080 2344     		add	r3, r3, r4
 354:../../libDaisy//src/dev/oled_ssd130x.h ****             return;
 4462              		.loc 4 354 9 view .LVU1173
 4463 0082 05D8     		bhi	.L282
 357:../../libDaisy//src/dev/oled_ssd130x.h ****         else
 4464              		.loc 4 357 42 view .LVU1174
 4465 0084 93F8BC94 		ldrb	r9, [r3, #1212]	@ zero_extendqisi2
 4466 0088 41EA0901 		orr	r1, r1, r9
 4467 008c 83F8BC14 		strb	r1, [r3, #1212]
ARM GAS  /var/folders/1y/_321xjh9623c014x9_qw12rr0000gn/T//ccE17DNe.s 			page 148


 4468              	.L282:
 357:../../libDaisy//src/dev/oled_ssd130x.h ****         else
 4469              		.loc 4 357 42 view .LVU1175
 4470              	.LBE1130:
 4471              	.LBE1129:
 4472              	.LBE1128:
 243:../../libDaisy//src/hid/disp/display.h ****             {
 4473              		.loc 3 243 13 view .LVU1176
 4474 0090 5FEA4803 		lsls	r3, r8, #1
 246:../../libDaisy//src/hid/disp/display.h ****             }
 4475              		.loc 3 246 20 view .LVU1177
 4476 0094 18BF     		it	ne
 4477 0096 DE44     		addne	lr, lr, fp
 4478              	.LVL320:
 249:../../libDaisy//src/hid/disp/display.h ****             {
 4479              		.loc 3 249 13 view .LVU1178
 4480 0098 9A45     		cmp	r10, r3
 4481 009a 02DD     		ble	.L284
 251:../../libDaisy//src/hid/disp/display.h ****                 y1 += signY;
 4482              		.loc 3 251 23 view .LVU1179
 4483 009c D044     		add	r8, r8, r10
 4484              	.LVL321:
 252:../../libDaisy//src/hid/disp/display.h ****             }
 4485              		.loc 3 252 20 view .LVU1180
 4486 009e 0CF1FF3C 		add	ip, ip, #-1
 4487              	.LVL322:
 4488              	.L284:
 239:../../libDaisy//src/hid/disp/display.h ****         {
 4489              		.loc 3 239 26 is_stmt 1 view .LVU1181
 4490 00a2 7645     		cmp	r6, lr
 4491 00a4 DDD1     		bne	.L281
 239:../../libDaisy//src/hid/disp/display.h ****         {
 4492              		.loc 3 239 26 is_stmt 0 view .LVU1182
 4493 00a6 039B     		ldr	r3, [sp, #12]
 4494 00a8 6345     		cmp	r3, ip
 4495 00aa DAD1     		bne	.L281
 4496 00ac 0023     		movs	r3, #0
 4497 00ae 0993     		str	r3, [sp, #36]
 4498              	.LVL323:
 4499              	.L278:
 239:../../libDaisy//src/hid/disp/display.h ****         {
 4500              		.loc 3 239 26 view .LVU1183
 4501              	.LBE1136:
 4502              	.LBE1140:
 4503              	.LBB1141:
 4504              	.LBI1141:
 221:../../libDaisy//src/hid/disp/display.h ****                   uint_fast8_t y1,
 4505              		.loc 3 221 10 is_stmt 1 view .LVU1184
 4506              	.LBB1142:
 228:../../libDaisy//src/hid/disp/display.h ****         int_fast16_t signX  = ((x1 < x2) ? 1 : -1);
 4507              		.loc 3 228 52 is_stmt 0 view .LVU1185
 4508 00b0 DDE90331 		ldrd	r3, r1, [sp, #12]
 4509 00b4 CB1A     		subs	r3, r1, r3
 228:../../libDaisy//src/hid/disp/display.h ****         int_fast16_t signX  = ((x1 < x2) ? 1 : -1);
 4510              		.loc 3 228 22 view .LVU1186
 4511 00b6 83EAE37C 		eor	ip, r3, r3, asr #31
 4512 00ba ACEBE37C 		sub	ip, ip, r3, asr #31
ARM GAS  /var/folders/1y/_321xjh9623c014x9_qw12rr0000gn/T//ccE17DNe.s 			page 149


 230:../../libDaisy//src/hid/disp/display.h ****         int_fast16_t error  = deltaX - deltaY;
 4513              		.loc 3 230 42 view .LVU1187
 4514 00be 039B     		ldr	r3, [sp, #12]
 4515 00c0 8B42     		cmp	r3, r1
 228:../../libDaisy//src/hid/disp/display.h ****         int_fast16_t signX  = ((x1 < x2) ? 1 : -1);
 4516              		.loc 3 228 22 view .LVU1188
 4517 00c2 CDF814C0 		str	ip, [sp, #20]
 4518              	.LVL324:
 230:../../libDaisy//src/hid/disp/display.h ****         int_fast16_t error  = deltaX - deltaY;
 4519              		.loc 3 230 42 view .LVU1189
 4520 00c6 40D3     		bcc	.L285
 4521              	.LVL325:
 4522              	.LBB1143:
 4523              	.LBB1144:
 4524              	.LBB1145:
 354:../../libDaisy//src/dev/oled_ssd130x.h ****             return;
 4525              		.loc 4 354 28 view .LVU1190
 4526 00c8 3F29     		cmp	r1, #63
 4527              	.LBE1145:
 4528              	.LBE1144:
 4529              	.LBE1143:
 231:../../libDaisy//src/hid/disp/display.h ****         int_fast16_t error2;
 4530              		.loc 3 231 22 view .LVU1191
 4531 00ca 6346     		mov	r3, ip
 4532              	.LBB1156:
 4533              	.LBB1151:
 4534              	.LBB1146:
 354:../../libDaisy//src/dev/oled_ssd130x.h ****             return;
 4535              		.loc 4 354 9 view .LVU1192
 4536 00cc 0699     		ldr	r1, [sp, #24]
 4537              	.LBE1146:
 4538              	.LBE1151:
 4539              	.LBE1156:
 231:../../libDaisy//src/hid/disp/display.h ****         int_fast16_t error2;
 4540              		.loc 3 231 22 view .LVU1193
 4541 00ce CCF1000A 		rsb	r10, ip, #0
 4542              	.LVL326:
 4543              	.LBB1157:
 4544              	.LBI1143:
  42:../../libDaisy//src/hid/disp/oled_display.h ****     {
 4545              		.loc 1 42 10 is_stmt 1 view .LVU1194
 4546              	.LBB1152:
 4547              	.LBI1144:
 352:../../libDaisy//src/dev/oled_ssd130x.h ****     {
 4548              		.loc 4 352 10 view .LVU1195
 4549              	.LBB1147:
 354:../../libDaisy//src/dev/oled_ssd130x.h ****             return;
 4550              		.loc 4 354 28 is_stmt 0 view .LVU1196
 4551 00d2 94BF     		ite	ls
 4552 00d4 0023     		movls	r3, #0
 4553 00d6 0123     		movhi	r3, #1
 4554 00d8 0793     		str	r3, [sp, #28]
 354:../../libDaisy//src/dev/oled_ssd130x.h ****             return;
 4555              		.loc 4 354 9 view .LVU1197
 4556 00da 0029     		cmp	r1, #0
 4557 00dc 40F0F781 		bne	.L323
 4558 00e0 002B     		cmp	r3, #0
ARM GAS  /var/folders/1y/_321xjh9623c014x9_qw12rr0000gn/T//ccE17DNe.s 			page 150


 4559 00e2 40F0F481 		bne	.L323
 4560              	.LBE1147:
 4561              	.LBE1152:
 4562              	.LBE1157:
 230:../../libDaisy//src/hid/disp/display.h ****         int_fast16_t error  = deltaX - deltaY;
 4563              		.loc 3 230 42 view .LVU1198
 4564 00e6 4FF0FF33 		mov	r3, #-1
 4565 00ea 0693     		str	r3, [sp, #24]
 4566 00ec 3FE0     		b	.L318
 4567              	.LVL327:
 4568              	.L276:
 230:../../libDaisy//src/hid/disp/display.h ****         int_fast16_t error  = deltaX - deltaY;
 4569              		.loc 3 230 42 view .LVU1199
 4570              	.LBE1142:
 4571              	.LBE1141:
 4572              	.LBB1170:
 4573              	.LBB1137:
 4574              	.LBB1131:
  42:../../libDaisy//src/hid/disp/oled_display.h ****     {
 4575              		.loc 1 42 10 is_stmt 1 view .LVU1200
 4576              	.LBB1124:
 4577              	.LBB1119:
 4578              	.LBB1114:
 354:../../libDaisy//src/dev/oled_ssd130x.h ****             return;
 4579              		.loc 4 354 28 is_stmt 0 view .LVU1201
 4580 00ee 039B     		ldr	r3, [sp, #12]
 4581              	.LVL328:
 354:../../libDaisy//src/dev/oled_ssd130x.h ****             return;
 4582              		.loc 4 354 28 view .LVU1202
 4583              	.LBE1114:
 4584              	.LBE1119:
 4585              		.loc 1 44 26 view .LVU1203
 4586 00f0 04F59665 		add	r5, r4, #1200
 4587              	.LVL329:
 4588              	.LBB1120:
 352:../../libDaisy//src/dev/oled_ssd130x.h ****     {
 4589              		.loc 4 352 10 is_stmt 1 view .LVU1204
 4590              	.LBE1120:
 4591              	.LBE1124:
 4592              	.LBE1131:
 229:../../libDaisy//src/hid/disp/display.h ****         int_fast16_t signY  = ((y1 < y2) ? 1 : -1);
 4593              		.loc 3 229 42 is_stmt 0 view .LVU1205
 4594 00f4 4FF0010B 		mov	fp, #1
 4595              	.LBB1132:
 4596              	.LBB1125:
 4597              	.LBB1121:
 4598              	.LBB1115:
 354:../../libDaisy//src/dev/oled_ssd130x.h ****             return;
 4599              		.loc 4 354 28 view .LVU1206
 4600 00f8 3F2B     		cmp	r3, #63
 4601 00fa 94BF     		ite	ls
 4602 00fc 0023     		movls	r3, #0
 4603 00fe 0123     		movhi	r3, #1
 354:../../libDaisy//src/dev/oled_ssd130x.h ****             return;
 4604              		.loc 4 354 14 view .LVU1207
 4605 0100 7F2E     		cmp	r6, #127
 354:../../libDaisy//src/dev/oled_ssd130x.h ****             return;
ARM GAS  /var/folders/1y/_321xjh9623c014x9_qw12rr0000gn/T//ccE17DNe.s 			page 151


 4606              		.loc 4 354 28 view .LVU1208
 4607 0102 0893     		str	r3, [sp, #32]
 354:../../libDaisy//src/dev/oled_ssd130x.h ****             return;
 4608              		.loc 4 354 14 view .LVU1209
 4609 0104 94BF     		ite	ls
 4610 0106 0021     		movls	r1, #0
 4611 0108 0121     		movhi	r1, #1
 4612 010a 0691     		str	r1, [sp, #24]
 354:../../libDaisy//src/dev/oled_ssd130x.h ****             return;
 4613              		.loc 4 354 9 view .LVU1210
 4614 010c 002B     		cmp	r3, #0
 4615 010e A4D1     		bne	.L279
 4616 0110 0029     		cmp	r1, #0
 4617 0112 A2D1     		bne	.L279
 4618              	.LVL330:
 4619              	.L319:
 357:../../libDaisy//src/dev/oled_ssd130x.h ****         else
 4620              		.loc 4 357 28 view .LVU1211
 4621 0114 0399     		ldr	r1, [sp, #12]
 4622              	.LBE1115:
 4623              	.LBE1121:
 4624              	.LBE1125:
 4625              	.LBE1132:
 239:../../libDaisy//src/hid/disp/display.h ****         {
 4626              		.loc 3 239 26 view .LVU1212
 4627 0116 B742     		cmp	r7, r6
 4628              	.LBB1133:
 4629              	.LBB1126:
 4630              	.LBB1122:
 4631              	.LBB1116:
 357:../../libDaisy//src/dev/oled_ssd130x.h ****         else
 4632              		.loc 4 357 28 view .LVU1213
 4633 0118 4FEAD103 		lsr	r3, r1, #3
 357:../../libDaisy//src/dev/oled_ssd130x.h ****         else
 4634              		.loc 4 357 54 view .LVU1214
 4635 011c 01F0070C 		and	ip, r1, #7
 357:../../libDaisy//src/dev/oled_ssd130x.h ****         else
 4636              		.loc 4 357 48 view .LVU1215
 4637 0120 4FF00101 		mov	r1, #1
 357:../../libDaisy//src/dev/oled_ssd130x.h ****         else
 4638              		.loc 4 357 42 view .LVU1216
 4639 0124 06EBC313 		add	r3, r6, r3, lsl #7
 357:../../libDaisy//src/dev/oled_ssd130x.h ****         else
 4640              		.loc 4 357 48 view .LVU1217
 4641 0128 01FA0CF1 		lsl	r1, r1, ip
 357:../../libDaisy//src/dev/oled_ssd130x.h ****         else
 4642              		.loc 4 357 42 view .LVU1218
 4643 012c 2344     		add	r3, r3, r4
 4644 012e 93F8BCC4 		ldrb	ip, [r3, #1212]	@ zero_extendqisi2
 4645 0132 41EA0C01 		orr	r1, r1, ip
 4646 0136 83F8BC14 		strb	r1, [r3, #1212]
 4647              	.LVL331:
 357:../../libDaisy//src/dev/oled_ssd130x.h ****         else
 4648              		.loc 4 357 42 view .LVU1219
 4649 013a 4FF00003 		mov	r3, #0
 4650 013e 0893     		str	r3, [sp, #32]
 4651 0140 0693     		str	r3, [sp, #24]
ARM GAS  /var/folders/1y/_321xjh9623c014x9_qw12rr0000gn/T//ccE17DNe.s 			page 152


 4652              	.LVL332:
 357:../../libDaisy//src/dev/oled_ssd130x.h ****         else
 4653              		.loc 4 357 42 view .LVU1220
 4654              	.LBE1116:
 4655              	.LBE1122:
 4656              	.LBE1126:
 4657              	.LBE1133:
 239:../../libDaisy//src/hid/disp/display.h ****         {
 4658              		.loc 3 239 26 is_stmt 1 view .LVU1221
 4659 0142 8AD1     		bne	.L279
 4660              	.L366:
 239:../../libDaisy//src/hid/disp/display.h ****         {
 4661              		.loc 3 239 19 is_stmt 0 view .LVU1222
 4662 0144 0123     		movs	r3, #1
 4663 0146 0993     		str	r3, [sp, #36]
 4664 0148 B2E7     		b	.L278
 4665              	.LVL333:
 4666              	.L285:
 239:../../libDaisy//src/hid/disp/display.h ****         {
 4667              		.loc 3 239 19 view .LVU1223
 4668              	.LBE1137:
 4669              	.LBE1170:
 4670              	.LBB1171:
 4671              	.LBB1167:
 231:../../libDaisy//src/hid/disp/display.h ****         int_fast16_t error2;
 4672              		.loc 3 231 22 view .LVU1224
 4673 014a 059B     		ldr	r3, [sp, #20]
 4674              	.LVL334:
 4675              	.LBB1158:
 4676              	.LBB1153:
 4677              	.LBB1148:
 354:../../libDaisy//src/dev/oled_ssd130x.h ****             return;
 4678              		.loc 4 354 9 view .LVU1225
 4679 014c 0699     		ldr	r1, [sp, #24]
 4680              	.LBE1148:
 4681              	.LBE1153:
 4682              	.LBE1158:
 231:../../libDaisy//src/hid/disp/display.h ****         int_fast16_t error2;
 4683              		.loc 3 231 22 view .LVU1226
 4684 014e C3F1000A 		rsb	r10, r3, #0
 4685              	.LVL335:
 4686              	.LBB1159:
  42:../../libDaisy//src/hid/disp/oled_display.h ****     {
 4687              		.loc 1 42 10 is_stmt 1 view .LVU1227
 4688              	.LBB1154:
 352:../../libDaisy//src/dev/oled_ssd130x.h ****     {
 4689              		.loc 4 352 10 view .LVU1228
 4690              	.LBB1149:
 354:../../libDaisy//src/dev/oled_ssd130x.h ****             return;
 4691              		.loc 4 354 28 is_stmt 0 view .LVU1229
 4692 0152 049B     		ldr	r3, [sp, #16]
 4693 0154 3F2B     		cmp	r3, #63
 4694 0156 94BF     		ite	ls
 4695 0158 0023     		movls	r3, #0
 4696 015a 0123     		movhi	r3, #1
 4697 015c 0793     		str	r3, [sp, #28]
 354:../../libDaisy//src/dev/oled_ssd130x.h ****             return;
ARM GAS  /var/folders/1y/_321xjh9623c014x9_qw12rr0000gn/T//ccE17DNe.s 			page 153


 4698              		.loc 4 354 9 view .LVU1230
 4699 015e 0029     		cmp	r1, #0
 4700 0160 40F0B281 		bne	.L328
 4701 0164 002B     		cmp	r3, #0
 4702 0166 40F0AF81 		bne	.L328
 4703              	.LBE1149:
 4704              	.LBE1154:
 4705              	.LBE1159:
 230:../../libDaisy//src/hid/disp/display.h ****         int_fast16_t error  = deltaX - deltaY;
 4706              		.loc 3 230 42 view .LVU1231
 4707 016a 0123     		movs	r3, #1
 4708 016c 0693     		str	r3, [sp, #24]
 4709              	.LVL336:
 4710              	.L318:
 4711              	.LBB1160:
 4712              	.LBB1155:
 4713              	.LBB1150:
 357:../../libDaisy//src/dev/oled_ssd130x.h ****         else
 4714              		.loc 4 357 28 view .LVU1232
 4715 016e 0499     		ldr	r1, [sp, #16]
 357:../../libDaisy//src/dev/oled_ssd130x.h ****         else
 4716              		.loc 4 357 48 view .LVU1233
 4717 0170 4FF0010C 		mov	ip, #1
 357:../../libDaisy//src/dev/oled_ssd130x.h ****         else
 4718              		.loc 4 357 28 view .LVU1234
 4719 0174 CB08     		lsrs	r3, r1, #3
 357:../../libDaisy//src/dev/oled_ssd130x.h ****         else
 4720              		.loc 4 357 54 view .LVU1235
 4721 0176 01F00701 		and	r1, r1, #7
 357:../../libDaisy//src/dev/oled_ssd130x.h ****         else
 4722              		.loc 4 357 42 view .LVU1236
 4723 017a 06EBC313 		add	r3, r6, r3, lsl #7
 357:../../libDaisy//src/dev/oled_ssd130x.h ****         else
 4724              		.loc 4 357 48 view .LVU1237
 4725 017e 0CFA01F1 		lsl	r1, ip, r1
 357:../../libDaisy//src/dev/oled_ssd130x.h ****         else
 4726              		.loc 4 357 42 view .LVU1238
 4727 0182 2344     		add	r3, r3, r4
 4728 0184 93F8BCC4 		ldrb	ip, [r3, #1212]	@ zero_extendqisi2
 4729 0188 41EA0C01 		orr	r1, r1, ip
 4730 018c 83F8BC14 		strb	r1, [r3, #1212]
 4731 0190 0023     		movs	r3, #0
 4732 0192 0793     		str	r3, [sp, #28]
 4733              	.LVL337:
 357:../../libDaisy//src/dev/oled_ssd130x.h ****         else
 4734              		.loc 4 357 42 view .LVU1239
 4735              	.LBE1150:
 4736              	.LBE1155:
 4737              	.LBE1160:
 239:../../libDaisy//src/hid/disp/display.h ****         {
 4738              		.loc 3 239 26 is_stmt 1 view .LVU1240
 4739 0194 DDE90331 		ldrd	r3, r1, [sp, #12]
 4740 0198 8B42     		cmp	r3, r1
 4741 019a 00F0A081 		beq	.L367
 4742              	.L288:
 4743              	.LVL338:
 230:../../libDaisy//src/hid/disp/display.h ****         int_fast16_t error  = deltaX - deltaY;
ARM GAS  /var/folders/1y/_321xjh9623c014x9_qw12rr0000gn/T//ccE17DNe.s 			page 154


 4744              		.loc 3 230 42 is_stmt 0 view .LVU1241
 4745 019e D646     		mov	lr, r10
 4746              	.LBE1167:
 4747              	.LBE1171:
 4748              	.LBE1202:
 215:Dubby.cpp     ****     display.DrawRect(menuBoxBounding[0][0], menuBoxBounding[0][1], menuBoxBounding[0][2], menuBoxBo
 4749              		.loc 2 215 21 view .LVU1242
 4750 01a0 0399     		ldr	r1, [sp, #12]
 4751 01a2 B446     		mov	ip, r6
 4752              	.L290:
 4753              	.LVL339:
 4754              	.LBB1203:
 4755              	.LBB1172:
 4756              	.LBB1168:
 4757              	.LBB1161:
 4758              	.LBI1161:
  42:../../libDaisy//src/hid/disp/oled_display.h ****     {
 4759              		.loc 1 42 10 is_stmt 1 view .LVU1243
 4760              	.LBB1162:
 4761              	.LBI1162:
 352:../../libDaisy//src/dev/oled_ssd130x.h ****     {
 4762              		.loc 4 352 10 view .LVU1244
 4763              	.LBB1163:
 357:../../libDaisy//src/dev/oled_ssd130x.h ****         else
 4764              		.loc 4 357 48 is_stmt 0 view .LVU1245
 4765 01a4 4FF0010B 		mov	fp, #1
 357:../../libDaisy//src/dev/oled_ssd130x.h ****         else
 4766              		.loc 4 357 28 view .LVU1246
 4767 01a8 CB08     		lsrs	r3, r1, #3
 357:../../libDaisy//src/dev/oled_ssd130x.h ****         else
 4768              		.loc 4 357 54 view .LVU1247
 4769 01aa 01F00708 		and	r8, r1, #7
 354:../../libDaisy//src/dev/oled_ssd130x.h ****             return;
 4770              		.loc 4 354 9 view .LVU1248
 4771 01ae BCF17F0F 		cmp	ip, #127
 357:../../libDaisy//src/dev/oled_ssd130x.h ****         else
 4772              		.loc 4 357 42 view .LVU1249
 4773 01b2 0CEBC313 		add	r3, ip, r3, lsl #7
 4774              	.LBE1163:
 4775              	.LBE1162:
 4776              	.LBE1161:
 242:../../libDaisy//src/hid/disp/display.h ****             if(error2 > -deltaY)
 4777              		.loc 3 242 20 view .LVU1250
 4778 01b6 0EFA0BF9 		lsl	r9, lr, fp
 4779              	.LVL340:
 4780              	.LBB1166:
 4781              	.LBB1165:
 4782              	.LBB1164:
 357:../../libDaisy//src/dev/oled_ssd130x.h ****         else
 4783              		.loc 4 357 48 view .LVU1251
 4784 01ba 0BFA08F8 		lsl	r8, fp, r8
 354:../../libDaisy//src/dev/oled_ssd130x.h ****             return;
 4785              		.loc 4 354 9 view .LVU1252
 4786 01be 08D8     		bhi	.L291
 4787 01c0 3F29     		cmp	r1, #63
 357:../../libDaisy//src/dev/oled_ssd130x.h ****         else
 4788              		.loc 4 357 42 view .LVU1253
ARM GAS  /var/folders/1y/_321xjh9623c014x9_qw12rr0000gn/T//ccE17DNe.s 			page 155


 4789 01c2 2344     		add	r3, r3, r4
 354:../../libDaisy//src/dev/oled_ssd130x.h ****             return;
 4790              		.loc 4 354 9 view .LVU1254
 4791 01c4 05D8     		bhi	.L291
 357:../../libDaisy//src/dev/oled_ssd130x.h ****         else
 4792              		.loc 4 357 42 view .LVU1255
 4793 01c6 93F8BCB4 		ldrb	fp, [r3, #1212]	@ zero_extendqisi2
 4794 01ca 48EA0B08 		orr	r8, r8, fp
 4795 01ce 83F8BC84 		strb	r8, [r3, #1212]
 4796              	.L291:
 357:../../libDaisy//src/dev/oled_ssd130x.h ****         else
 4797              		.loc 4 357 42 view .LVU1256
 4798              	.LBE1164:
 4799              	.LBE1165:
 4800              	.LBE1166:
 243:../../libDaisy//src/hid/disp/display.h ****             {
 4801              		.loc 3 243 13 view .LVU1257
 4802 01d2 BAEB4E0F 		cmp	r10, lr, lsl #1
 4803 01d6 04DA     		bge	.L292
 245:../../libDaisy//src/hid/disp/display.h ****                 x1 += signX;
 4804              		.loc 3 245 23 view .LVU1258
 4805 01d8 059B     		ldr	r3, [sp, #20]
 246:../../libDaisy//src/hid/disp/display.h ****             }
 4806              		.loc 3 246 20 view .LVU1259
 4807 01da 0CF1FF3C 		add	ip, ip, #-1
 4808              	.LVL341:
 245:../../libDaisy//src/hid/disp/display.h ****                 x1 += signX;
 4809              		.loc 3 245 23 view .LVU1260
 4810 01de AEEB030E 		sub	lr, lr, r3
 4811              	.LVL342:
 4812              	.L292:
 249:../../libDaisy//src/hid/disp/display.h ****             {
 4813              		.loc 3 249 13 view .LVU1261
 4814 01e2 B9F1000F 		cmp	r9, #0
 4815 01e6 01D0     		beq	.L293
 252:../../libDaisy//src/hid/disp/display.h ****             }
 4816              		.loc 3 252 20 view .LVU1262
 4817 01e8 069B     		ldr	r3, [sp, #24]
 4818 01ea 1944     		add	r1, r1, r3
 4819              	.LVL343:
 4820              	.L293:
 239:../../libDaisy//src/hid/disp/display.h ****         {
 4821              		.loc 3 239 26 is_stmt 1 view .LVU1263
 4822 01ec 6645     		cmp	r6, ip
 4823 01ee D9D1     		bne	.L290
 239:../../libDaisy//src/hid/disp/display.h ****         {
 4824              		.loc 3 239 26 is_stmt 0 view .LVU1264
 4825 01f0 049B     		ldr	r3, [sp, #16]
 4826 01f2 8B42     		cmp	r3, r1
 4827 01f4 D6D1     		bne	.L290
 4828 01f6 4FF0000B 		mov	fp, #0
 4829              	.LVL344:
 4830              	.L287:
 239:../../libDaisy//src/hid/disp/display.h ****         {
 4831              		.loc 3 239 26 view .LVU1265
 4832              	.LBE1168:
 4833              	.LBE1172:
ARM GAS  /var/folders/1y/_321xjh9623c014x9_qw12rr0000gn/T//ccE17DNe.s 			page 156


 4834              	.LBB1173:
 4835              	.LBI1173:
 221:../../libDaisy//src/hid/disp/display.h ****                   uint_fast8_t y1,
 4836              		.loc 3 221 10 is_stmt 1 view .LVU1266
 4837              	.LBB1174:
 227:../../libDaisy//src/hid/disp/display.h ****         int_fast16_t deltaY = abs((int_fast16_t)y2 - (int_fast16_t)y1);
 4838              		.loc 3 227 52 is_stmt 0 view .LVU1267
 4839 01fa A7EB0608 		sub	r8, r7, r6
 229:../../libDaisy//src/hid/disp/display.h ****         int_fast16_t signY  = ((y1 < y2) ? 1 : -1);
 4840              		.loc 3 229 42 view .LVU1268
 4841 01fe B742     		cmp	r7, r6
 4842 0200 8CBF     		ite	hi
 4843 0202 0126     		movhi	r6, #1
 4844 0204 4FF0FF36 		movls	r6, #-1
 4845              	.LBB1175:
 4846              	.LBB1176:
 4847              	.LBB1177:
 354:../../libDaisy//src/dev/oled_ssd130x.h ****             return;
 4848              		.loc 4 354 9 view .LVU1269
 4849 0208 079B     		ldr	r3, [sp, #28]
 4850              	.LBE1177:
 4851              	.LBE1176:
 4852              	.LBE1175:
 227:../../libDaisy//src/hid/disp/display.h ****         int_fast16_t deltaY = abs((int_fast16_t)y2 - (int_fast16_t)y1);
 4853              		.loc 3 227 22 view .LVU1270
 4854 020a B8F1000F 		cmp	r8, #0
 4855 020e B8BF     		it	lt
 4856 0210 C8F10008 		rsblt	r8, r8, #0
 4857              	.LVL345:
 4858              	.LBB1180:
 4859              	.LBI1175:
  42:../../libDaisy//src/hid/disp/oled_display.h ****     {
 4860              		.loc 1 42 10 is_stmt 1 view .LVU1271
 4861              	.LBB1179:
 4862              	.LBI1176:
 352:../../libDaisy//src/dev/oled_ssd130x.h ****     {
 4863              		.loc 4 352 10 view .LVU1272
 4864              	.LBB1178:
 354:../../libDaisy//src/dev/oled_ssd130x.h ****             return;
 4865              		.loc 4 354 14 is_stmt 0 view .LVU1273
 4866 0214 7F2F     		cmp	r7, #127
 4867 0216 94BF     		ite	ls
 4868 0218 4FF0000A 		movls	r10, #0
 4869 021c 4FF0010A 		movhi	r10, #1
 354:../../libDaisy//src/dev/oled_ssd130x.h ****             return;
 4870              		.loc 4 354 9 view .LVU1274
 4871 0220 9BB9     		cbnz	r3, .L295
 4872 0222 BAF1000F 		cmp	r10, #0
 4873 0226 10D1     		bne	.L295
 357:../../libDaisy//src/dev/oled_ssd130x.h ****         else
 4874              		.loc 4 357 28 view .LVU1275
 4875 0228 0499     		ldr	r1, [sp, #16]
 357:../../libDaisy//src/dev/oled_ssd130x.h ****         else
 4876              		.loc 4 357 48 view .LVU1276
 4877 022a 4FF0010C 		mov	ip, #1
 357:../../libDaisy//src/dev/oled_ssd130x.h ****         else
 4878              		.loc 4 357 28 view .LVU1277
ARM GAS  /var/folders/1y/_321xjh9623c014x9_qw12rr0000gn/T//ccE17DNe.s 			page 157


 4879 022e CB08     		lsrs	r3, r1, #3
 357:../../libDaisy//src/dev/oled_ssd130x.h ****         else
 4880              		.loc 4 357 54 view .LVU1278
 4881 0230 01F00701 		and	r1, r1, #7
 357:../../libDaisy//src/dev/oled_ssd130x.h ****         else
 4882              		.loc 4 357 42 view .LVU1279
 4883 0234 07EBC313 		add	r3, r7, r3, lsl #7
 357:../../libDaisy//src/dev/oled_ssd130x.h ****         else
 4884              		.loc 4 357 48 view .LVU1280
 4885 0238 0CFA01F1 		lsl	r1, ip, r1
 357:../../libDaisy//src/dev/oled_ssd130x.h ****         else
 4886              		.loc 4 357 42 view .LVU1281
 4887 023c 2344     		add	r3, r3, r4
 4888 023e 93F8BCC4 		ldrb	ip, [r3, #1212]	@ zero_extendqisi2
 4889 0242 41EA0C01 		orr	r1, r1, ip
 4890 0246 83F8BC14 		strb	r1, [r3, #1212]
 4891              	.L295:
 4892              	.LVL346:
 357:../../libDaisy//src/dev/oled_ssd130x.h ****         else
 4893              		.loc 4 357 42 view .LVU1282
 4894              	.LBE1178:
 4895              	.LBE1179:
 4896              	.LBE1180:
 239:../../libDaisy//src/hid/disp/display.h ****         {
 4897              		.loc 3 239 26 is_stmt 1 view .LVU1283
 4898 024a 099B     		ldr	r3, [sp, #36]
 4899 024c 33BB     		cbnz	r3, .L296
 227:../../libDaisy//src/hid/disp/display.h ****         int_fast16_t deltaY = abs((int_fast16_t)y2 - (int_fast16_t)y1);
 4900              		.loc 3 227 22 is_stmt 0 view .LVU1284
 4901 024e C646     		mov	lr, r8
 4902              	.LBE1174:
 4903              	.LBE1173:
 4904              	.LBE1203:
 215:Dubby.cpp     ****     display.DrawRect(menuBoxBounding[0][0], menuBoxBounding[0][1], menuBoxBounding[0][2], menuBoxBo
 4905              		.loc 2 215 21 view .LVU1285
 4906 0250 DDF810C0 		ldr	ip, [sp, #16]
 4907              	.LVL347:
 4908              	.L297:
 4909              	.LBB1204:
 4910              	.LBB1185:
 4911              	.LBB1184:
 4912              	.LBB1181:
 4913              	.LBI1181:
  42:../../libDaisy//src/hid/disp/oled_display.h ****     {
 4914              		.loc 1 42 10 is_stmt 1 view .LVU1286
 4915              	.LBB1182:
 4916              	.LBI1182:
 352:../../libDaisy//src/dev/oled_ssd130x.h ****     {
 4917              		.loc 4 352 10 view .LVU1287
 4918              	.LBB1183:
 357:../../libDaisy//src/dev/oled_ssd130x.h ****         else
 4919              		.loc 4 357 28 is_stmt 0 view .LVU1288
 4920 0254 4FEADC03 		lsr	r3, ip, #3
 357:../../libDaisy//src/dev/oled_ssd130x.h ****         else
 4921              		.loc 4 357 54 view .LVU1289
 4922 0258 0CF00701 		and	r1, ip, #7
 357:../../libDaisy//src/dev/oled_ssd130x.h ****         else
ARM GAS  /var/folders/1y/_321xjh9623c014x9_qw12rr0000gn/T//ccE17DNe.s 			page 158


 4923              		.loc 4 357 48 view .LVU1290
 4924 025c 4FF00109 		mov	r9, #1
 354:../../libDaisy//src/dev/oled_ssd130x.h ****             return;
 4925              		.loc 4 354 9 view .LVU1291
 4926 0260 7F28     		cmp	r0, #127
 357:../../libDaisy//src/dev/oled_ssd130x.h ****         else
 4927              		.loc 4 357 42 view .LVU1292
 4928 0262 00EBC313 		add	r3, r0, r3, lsl #7
 357:../../libDaisy//src/dev/oled_ssd130x.h ****         else
 4929              		.loc 4 357 48 view .LVU1293
 4930 0266 09FA01F1 		lsl	r1, r9, r1
 354:../../libDaisy//src/dev/oled_ssd130x.h ****             return;
 4931              		.loc 4 354 9 view .LVU1294
 4932 026a 09D8     		bhi	.L299
 354:../../libDaisy//src/dev/oled_ssd130x.h ****             return;
 4933              		.loc 4 354 9 view .LVU1295
 4934 026c BCF13F0F 		cmp	ip, #63
 357:../../libDaisy//src/dev/oled_ssd130x.h ****         else
 4935              		.loc 4 357 42 view .LVU1296
 4936 0270 2344     		add	r3, r3, r4
 354:../../libDaisy//src/dev/oled_ssd130x.h ****             return;
 4937              		.loc 4 354 9 view .LVU1297
 4938 0272 05D8     		bhi	.L299
 357:../../libDaisy//src/dev/oled_ssd130x.h ****         else
 4939              		.loc 4 357 42 view .LVU1298
 4940 0274 93F8BC94 		ldrb	r9, [r3, #1212]	@ zero_extendqisi2
 4941 0278 41EA0901 		orr	r1, r1, r9
 4942 027c 83F8BC14 		strb	r1, [r3, #1212]
 4943              	.L299:
 357:../../libDaisy//src/dev/oled_ssd130x.h ****         else
 4944              		.loc 4 357 42 view .LVU1299
 4945              	.LBE1183:
 4946              	.LBE1182:
 4947              	.LBE1181:
 243:../../libDaisy//src/hid/disp/display.h ****             {
 4948              		.loc 3 243 13 view .LVU1300
 4949 0280 5FEA4E03 		lsls	r3, lr, #1
 246:../../libDaisy//src/hid/disp/display.h ****             }
 4950              		.loc 3 246 20 view .LVU1301
 4951 0284 18BF     		it	ne
 4952 0286 8019     		addne	r0, r0, r6
 4953              	.LVL348:
 249:../../libDaisy//src/hid/disp/display.h ****             {
 4954              		.loc 3 249 13 view .LVU1302
 4955 0288 9845     		cmp	r8, r3
 4956 028a 02DD     		ble	.L301
 251:../../libDaisy//src/hid/disp/display.h ****                 y1 += signY;
 4957              		.loc 3 251 23 view .LVU1303
 4958 028c C644     		add	lr, lr, r8
 4959              	.LVL349:
 252:../../libDaisy//src/hid/disp/display.h ****             }
 4960              		.loc 3 252 20 view .LVU1304
 4961 028e 0CF1FF3C 		add	ip, ip, #-1
 4962              	.LVL350:
 4963              	.L301:
 239:../../libDaisy//src/hid/disp/display.h ****         {
 4964              		.loc 3 239 26 is_stmt 1 view .LVU1305
ARM GAS  /var/folders/1y/_321xjh9623c014x9_qw12rr0000gn/T//ccE17DNe.s 			page 159


 4965 0292 8742     		cmp	r7, r0
 4966 0294 DED1     		bne	.L297
 239:../../libDaisy//src/hid/disp/display.h ****         {
 4967              		.loc 3 239 26 is_stmt 0 view .LVU1306
 4968 0296 049B     		ldr	r3, [sp, #16]
 4969 0298 6345     		cmp	r3, ip
 4970 029a DBD1     		bne	.L297
 4971              	.LVL351:
 4972              	.L296:
 239:../../libDaisy//src/hid/disp/display.h ****         {
 4973              		.loc 3 239 26 view .LVU1307
 4974              	.LBE1184:
 4975              	.LBE1185:
 4976              	.LBB1186:
 4977              	.LBI1186:
 221:../../libDaisy//src/hid/disp/display.h ****                   uint_fast8_t y1,
 4978              		.loc 3 221 10 is_stmt 1 view .LVU1308
 4979              	.LBB1187:
 228:../../libDaisy//src/hid/disp/display.h ****         int_fast16_t signX  = ((x1 < x2) ? 1 : -1);
 4980              		.loc 3 228 52 is_stmt 0 view .LVU1309
 4981 029c DDE90331 		ldrd	r3, r1, [sp, #12]
 4982 02a0 A3EB010E 		sub	lr, r3, r1
 230:../../libDaisy//src/hid/disp/display.h ****         int_fast16_t error  = deltaX - deltaY;
 4983              		.loc 3 230 42 view .LVU1310
 4984 02a4 8B42     		cmp	r3, r1
 4985 02a6 8CBF     		ite	hi
 4986 02a8 4FF00108 		movhi	r8, #1
 4987 02ac 4FF0FF38 		movls	r8, #-1
 228:../../libDaisy//src/hid/disp/display.h ****         int_fast16_t signX  = ((x1 < x2) ? 1 : -1);
 4988              		.loc 3 228 22 view .LVU1311
 4989 02b0 BEF1000F 		cmp	lr, #0
 4990 02b4 B8BF     		it	lt
 4991 02b6 CEF1000E 		rsblt	lr, lr, #0
 4992              	.LVL352:
 231:../../libDaisy//src/hid/disp/display.h ****         int_fast16_t error2;
 4993              		.loc 3 231 22 view .LVU1312
 4994 02ba CEF1000C 		rsb	ip, lr, #0
 4995              	.LVL353:
 4996              	.LBB1188:
 4997              	.LBI1188:
  42:../../libDaisy//src/hid/disp/oled_display.h ****     {
 4998              		.loc 1 42 10 is_stmt 1 view .LVU1313
 4999              	.LBB1189:
 5000              	.LBI1189:
 352:../../libDaisy//src/dev/oled_ssd130x.h ****     {
 5001              		.loc 4 352 10 view .LVU1314
 5002              	.LBB1190:
 354:../../libDaisy//src/dev/oled_ssd130x.h ****             return;
 5003              		.loc 4 354 9 is_stmt 0 view .LVU1315
 5004 02be BAF1000F 		cmp	r10, #0
 5005 02c2 0FD1     		bne	.L303
 5006 02c4 0899     		ldr	r1, [sp, #32]
 5007 02c6 69B9     		cbnz	r1, .L303
 357:../../libDaisy//src/dev/oled_ssd130x.h ****         else
 5008              		.loc 4 357 28 view .LVU1316
 5009 02c8 1946     		mov	r1, r3
 5010 02ca DB08     		lsrs	r3, r3, #3
ARM GAS  /var/folders/1y/_321xjh9623c014x9_qw12rr0000gn/T//ccE17DNe.s 			page 160


 357:../../libDaisy//src/dev/oled_ssd130x.h ****         else
 5011              		.loc 4 357 42 view .LVU1317
 5012 02cc 07EBC313 		add	r3, r7, r3, lsl #7
 357:../../libDaisy//src/dev/oled_ssd130x.h ****         else
 5013              		.loc 4 357 54 view .LVU1318
 5014 02d0 01F00700 		and	r0, r1, #7
 357:../../libDaisy//src/dev/oled_ssd130x.h ****         else
 5015              		.loc 4 357 48 view .LVU1319
 5016 02d4 0121     		movs	r1, #1
 357:../../libDaisy//src/dev/oled_ssd130x.h ****         else
 5017              		.loc 4 357 42 view .LVU1320
 5018 02d6 2344     		add	r3, r3, r4
 357:../../libDaisy//src/dev/oled_ssd130x.h ****         else
 5019              		.loc 4 357 48 view .LVU1321
 5020 02d8 8140     		lsls	r1, r1, r0
 357:../../libDaisy//src/dev/oled_ssd130x.h ****         else
 5021              		.loc 4 357 42 view .LVU1322
 5022 02da 93F8BC04 		ldrb	r0, [r3, #1212]	@ zero_extendqisi2
 5023 02de 0143     		orrs	r1, r1, r0
 5024 02e0 83F8BC14 		strb	r1, [r3, #1212]
 5025              	.L303:
 5026              	.LVL354:
 357:../../libDaisy//src/dev/oled_ssd130x.h ****         else
 5027              		.loc 4 357 42 view .LVU1323
 5028              	.LBE1190:
 5029              	.LBE1189:
 5030              	.LBE1188:
 239:../../libDaisy//src/hid/disp/display.h ****         {
 5031              		.loc 3 239 26 is_stmt 1 view .LVU1324
 5032 02e4 BBF1000F 		cmp	fp, #0
 5033 02e8 25D1     		bne	.L304
 5034 02ea 6046     		mov	r0, ip
 5035              	.LBE1187:
 5036              	.LBE1186:
 5037              	.LBE1204:
 215:Dubby.cpp     ****     display.DrawRect(menuBoxBounding[0][0], menuBoxBounding[0][1], menuBoxBounding[0][2], menuBoxBo
 5038              		.loc 2 215 21 is_stmt 0 view .LVU1325
 5039 02ec 3946     		mov	r1, r7
 5040              	.LVL355:
 5041              	.L305:
 5042              	.LBB1205:
 5043              	.LBB1198:
 5044              	.LBB1197:
 5045              	.LBB1191:
 5046              	.LBI1191:
  42:../../libDaisy//src/hid/disp/oled_display.h ****     {
 5047              		.loc 1 42 10 is_stmt 1 view .LVU1326
 5048              	.LBB1192:
 5049              	.LBI1192:
 352:../../libDaisy//src/dev/oled_ssd130x.h ****     {
 5050              		.loc 4 352 10 view .LVU1327
 5051              	.LBB1193:
 357:../../libDaisy//src/dev/oled_ssd130x.h ****         else
 5052              		.loc 4 357 48 is_stmt 0 view .LVU1328
 5053 02ee 0126     		movs	r6, #1
 357:../../libDaisy//src/dev/oled_ssd130x.h ****         else
 5054              		.loc 4 357 28 view .LVU1329
ARM GAS  /var/folders/1y/_321xjh9623c014x9_qw12rr0000gn/T//ccE17DNe.s 			page 161


 5055 02f0 D308     		lsrs	r3, r2, #3
 357:../../libDaisy//src/dev/oled_ssd130x.h ****         else
 5056              		.loc 4 357 54 view .LVU1330
 5057 02f2 02F0070A 		and	r10, r2, #7
 354:../../libDaisy//src/dev/oled_ssd130x.h ****             return;
 5058              		.loc 4 354 9 view .LVU1331
 5059 02f6 7F29     		cmp	r1, #127
 5060              	.LBE1193:
 5061              	.LBE1192:
 5062              	.LBE1191:
 242:../../libDaisy//src/hid/disp/display.h ****             if(error2 > -deltaY)
 5063              		.loc 3 242 20 view .LVU1332
 5064 02f8 00FA06F9 		lsl	r9, r0, r6
 5065              	.LVL356:
 5066              	.LBB1196:
 5067              	.LBB1195:
 5068              	.LBB1194:
 357:../../libDaisy//src/dev/oled_ssd130x.h ****         else
 5069              		.loc 4 357 42 view .LVU1333
 5070 02fc 01EBC313 		add	r3, r1, r3, lsl #7
 357:../../libDaisy//src/dev/oled_ssd130x.h ****         else
 5071              		.loc 4 357 48 view .LVU1334
 5072 0300 06FA0AF6 		lsl	r6, r6, r10
 354:../../libDaisy//src/dev/oled_ssd130x.h ****             return;
 5073              		.loc 4 354 9 view .LVU1335
 5074 0304 08D8     		bhi	.L307
 354:../../libDaisy//src/dev/oled_ssd130x.h ****             return;
 5075              		.loc 4 354 9 view .LVU1336
 5076 0306 3F2A     		cmp	r2, #63
 357:../../libDaisy//src/dev/oled_ssd130x.h ****         else
 5077              		.loc 4 357 42 view .LVU1337
 5078 0308 2344     		add	r3, r3, r4
 354:../../libDaisy//src/dev/oled_ssd130x.h ****             return;
 5079              		.loc 4 354 9 view .LVU1338
 5080 030a 05D8     		bhi	.L307
 357:../../libDaisy//src/dev/oled_ssd130x.h ****         else
 5081              		.loc 4 357 42 view .LVU1339
 5082 030c 93F8BCA4 		ldrb	r10, [r3, #1212]	@ zero_extendqisi2
 5083 0310 46EA0A06 		orr	r6, r6, r10
 5084 0314 83F8BC64 		strb	r6, [r3, #1212]
 5085              	.L307:
 357:../../libDaisy//src/dev/oled_ssd130x.h ****         else
 5086              		.loc 4 357 42 view .LVU1340
 5087              	.LBE1194:
 5088              	.LBE1195:
 5089              	.LBE1196:
 243:../../libDaisy//src/hid/disp/display.h ****             {
 5090              		.loc 3 243 13 view .LVU1341
 5091 0318 BCEB400F 		cmp	ip, r0, lsl #1
 5092 031c 02DA     		bge	.L308
 246:../../libDaisy//src/hid/disp/display.h ****             }
 5093              		.loc 3 246 20 view .LVU1342
 5094 031e 0139     		subs	r1, r1, #1
 5095              	.LVL357:
 245:../../libDaisy//src/hid/disp/display.h ****                 x1 += signX;
 5096              		.loc 3 245 23 view .LVU1343
 5097 0320 A0EB0E00 		sub	r0, r0, lr
ARM GAS  /var/folders/1y/_321xjh9623c014x9_qw12rr0000gn/T//ccE17DNe.s 			page 162


 5098              	.LVL358:
 5099              	.L308:
 249:../../libDaisy//src/hid/disp/display.h ****             {
 5100              		.loc 3 249 13 view .LVU1344
 5101 0324 B9F1000F 		cmp	r9, #0
 5102 0328 00D0     		beq	.L309
 252:../../libDaisy//src/hid/disp/display.h ****             }
 5103              		.loc 3 252 20 view .LVU1345
 5104 032a 4244     		add	r2, r2, r8
 5105              	.LVL359:
 5106              	.L309:
 239:../../libDaisy//src/hid/disp/display.h ****         {
 5107              		.loc 3 239 26 is_stmt 1 view .LVU1346
 5108 032c 8F42     		cmp	r7, r1
 5109 032e DED1     		bne	.L305
 239:../../libDaisy//src/hid/disp/display.h ****         {
 5110              		.loc 3 239 26 is_stmt 0 view .LVU1347
 5111 0330 039B     		ldr	r3, [sp, #12]
 5112 0332 9342     		cmp	r3, r2
 5113 0334 DBD1     		bne	.L305
 5114              	.LVL360:
 5115              	.L304:
 239:../../libDaisy//src/hid/disp/display.h ****         {
 5116              		.loc 3 239 26 view .LVU1348
 5117              	.LBE1197:
 5118              	.LBE1198:
 5119              	.LBE1205:
 215:Dubby.cpp     ****     display.DrawRect(menuBoxBounding[0][0], menuBoxBounding[0][1], menuBoxBounding[0][2], menuBoxBo
 5120              		.loc 2 215 21 view .LVU1349
 5121 0336 2746     		mov	r7, r4
 5122              	.LVL361:
 5123              	.LBB1206:
 217:Dubby.cpp     ****     for (int i = 0; i < 3; i++) 
 5124              		.loc 2 217 14 view .LVU1350
 5125 0338 0026     		movs	r6, #0
 5126 033a DFF8AC81 		ldr	r8, .L369+4
 5127              	.LVL362:
 217:Dubby.cpp     ****     for (int i = 0; i < 3; i++) 
 5128              		.loc 2 217 14 view .LVU1351
 5129 033e 17EE909A 		vmov	r9, s15	@ int
 5130              	.LVL363:
 5131              	.L311:
 5132              	.LBB1207:
 219:Dubby.cpp     ****         display.SetCursor(menuTextCursors[i][0], menuTextCursors[i][1]);
 5133              		.loc 2 219 9 is_stmt 1 view .LVU1352
 219:Dubby.cpp     ****         display.SetCursor(menuTextCursors[i][0], menuTextCursors[i][1]);
 5134              		.loc 2 219 26 is_stmt 0 view .LVU1353
 5135 0342 B7F86400 		ldrh	r0, [r7, #100]
 5136              	.LVL364:
 5137              	.LBB1208:
 5138              	.LBI1208:
 171:../../libDaisy//src/hid/disp/display.h ****     {
 5139              		.loc 3 171 10 is_stmt 1 view .LVU1354
 5140              	.LBB1209:
 173:../../libDaisy//src/hid/disp/display.h ****         currentY_ = (y >= Height()) ? Height() - 1 : y;
 5141              		.loc 3 173 9 view .LVU1355
 5142              	.LBE1209:
ARM GAS  /var/folders/1y/_321xjh9623c014x9_qw12rr0000gn/T//ccE17DNe.s 			page 163


 5143              	.LBE1208:
 222:Dubby.cpp     ****          display.WriteString(GetTextForEnum(MAINMENU, currentText), Font_6x8, f_truncate/*, i == me
 5144              		.loc 2 222 29 is_stmt 0 view .LVU1356
 5145 0346 4FF0010C 		mov	ip, #1
 5146              	.LBB1216:
 5147              	.LBB1210:
 173:../../libDaisy//src/hid/disp/display.h ****         currentY_ = (y >= Height()) ? Height() - 1 : y;
 5148              		.loc 3 173 19 view .LVU1357
 5149 034a B7F86020 		ldrh	r2, [r7, #96]
 5150              	.LBE1210:
 5151              	.LBE1216:
 5152              	.LBE1207:
 217:Dubby.cpp     ****     for (int i = 0; i < 3; i++) 
 5153              		.loc 2 217 23 view .LVU1358
 5154 034e 0837     		adds	r7, r7, #8
 5155              	.LVL365:
 5156              	.LBB1224:
 5157              	.LBB1217:
 5158              	.LBB1211:
 174:../../libDaisy//src/hid/disp/display.h ****     }
 5159              		.loc 3 174 19 view .LVU1359
 5160 0350 3F28     		cmp	r0, #63
 5161              	.LBE1211:
 5162              	.LBE1217:
 220:Dubby.cpp     ****         int currentText = menuItemSelected + i < 3 ? menuItemSelected + i : (menuItemSelected + i) 
 5163              		.loc 2 220 27 view .LVU1360
 5164 0352 94F85C10 		ldrb	r1, [r4, #92]	@ zero_extendqisi2
 220:Dubby.cpp     ****         int currentText = menuItemSelected + i < 3 ? menuItemSelected + i : (menuItemSelected + i) 
 5165              		.loc 2 220 52 view .LVU1361
 5166 0356 634B     		ldr	r3, .L369
 5167              	.LBB1218:
 5168              	.LBB1212:
 174:../../libDaisy//src/hid/disp/display.h ****     }
 5169              		.loc 3 174 19 view .LVU1362
 5170 0358 28BF     		it	cs
 5171 035a 3F20     		movcs	r0, #63
 5172              	.LVL366:
 174:../../libDaisy//src/hid/disp/display.h ****     }
 5173              		.loc 3 174 19 view .LVU1363
 5174              	.LBE1212:
 5175              	.LBE1218:
 220:Dubby.cpp     ****         int currentText = menuItemSelected + i < 3 ? menuItemSelected + i : (menuItemSelected + i) 
 5176              		.loc 2 220 44 view .LVU1364
 5177 035c 3144     		add	r1, r1, r6
 5178              	.LBB1219:
 5179              	.LBB1213:
 173:../../libDaisy//src/hid/disp/display.h ****         currentY_ = (y >= Height()) ? Height() - 1 : y;
 5180              		.loc 3 173 19 view .LVU1365
 5181 035e 7F2A     		cmp	r2, #127
 5182              	.LBE1213:
 5183              	.LBE1219:
 5184              	.LBE1224:
 217:Dubby.cpp     ****     for (int i = 0; i < 3; i++) 
 5185              		.loc 2 217 5 view .LVU1366
 5186 0360 6644     		add	r6, r6, ip
 5187              	.LVL367:
 5188              	.LBB1225:
ARM GAS  /var/folders/1y/_321xjh9623c014x9_qw12rr0000gn/T//ccE17DNe.s 			page 164


 5189              	.LBB1220:
 5190              	.LBB1214:
 174:../../libDaisy//src/hid/disp/display.h ****     }
 5191              		.loc 3 174 19 view .LVU1367
 5192 0362 A4F8AE04 		strh	r0, [r4, #1198]	@ movhi
 5193              	.LVL368:
 173:../../libDaisy//src/hid/disp/display.h ****         currentY_ = (y >= Height()) ? Height() - 1 : y;
 5194              		.loc 3 173 19 view .LVU1368
 5195 0366 28BF     		it	cs
 5196 0368 7F22     		movcs	r2, #127
 5197              	.LVL369:
 173:../../libDaisy//src/hid/disp/display.h ****         currentY_ = (y >= Height()) ? Height() - 1 : y;
 5198              		.loc 3 173 19 view .LVU1369
 5199              	.LBE1214:
 5200              	.LBE1220:
 220:Dubby.cpp     ****         int currentText = menuItemSelected + i < 3 ? menuItemSelected + i : (menuItemSelected + i) 
 5201              		.loc 2 220 52 view .LVU1370
 5202 036a A3FB0103 		umull	r0, r3, r3, r1
 5203 036e 0229     		cmp	r1, #2
 5204              	.LBB1221:
 5205              	.LBB1215:
 173:../../libDaisy//src/hid/disp/display.h ****         currentY_ = (y >= Height()) ? Height() - 1 : y;
 5206              		.loc 3 173 19 view .LVU1371
 5207 0370 A4F8AC24 		strh	r2, [r4, #1196]	@ movhi
 174:../../libDaisy//src/hid/disp/display.h ****     }
 5208              		.loc 3 174 9 is_stmt 1 view .LVU1372
 5209              	.LVL370:
 174:../../libDaisy//src/hid/disp/display.h ****     }
 5210              		.loc 3 174 9 is_stmt 0 view .LVU1373
 5211              	.LBE1215:
 5212              	.LBE1221:
 220:Dubby.cpp     ****         int currentText = menuItemSelected + i < 3 ? menuItemSelected + i : (menuItemSelected + i) 
 5213              		.loc 2 220 9 is_stmt 1 view .LVU1374
 220:Dubby.cpp     ****         int currentText = menuItemSelected + i < 3 ? menuItemSelected + i : (menuItemSelected + i) 
 5214              		.loc 2 220 52 is_stmt 0 view .LVU1375
 5215 0374 23F00102 		bic	r2, r3, #1
 5216 0378 02DD     		ble	.L310
 220:Dubby.cpp     ****         int currentText = menuItemSelected + i < 3 ? menuItemSelected + i : (menuItemSelected + i) 
 5217              		.loc 2 220 52 discriminator 2 view .LVU1376
 5218 037a 02EB5303 		add	r3, r2, r3, lsr #1
 5219 037e C91A     		subs	r1, r1, r3
 5220              	.L310:
 5221              	.LVL371:
 222:Dubby.cpp     ****          display.WriteString(GetTextForEnum(MAINMENU, currentText), Font_6x8, f_truncate/*, i == me
 5222              		.loc 2 222 10 is_stmt 1 discriminator 4 view .LVU1377
 5223              	.LBB1222:
 5224              	.LBI1222:
 458:Dubby.cpp     **** const char * Dubby::GetTextForEnum(MenuTypes m, int enumVal)
 5225              		.loc 2 458 14 discriminator 4 view .LVU1378
 5226              	.LBB1223:
 460:Dubby.cpp     ****     switch (m)
 5227              		.loc 2 460 5 discriminator 4 view .LVU1379
 462:Dubby.cpp     ****         case MAINMENU:
 5228              		.loc 2 462 9 discriminator 4 view .LVU1380
 463:Dubby.cpp     ****             return MenuItemsStrings[enumVal];
 5229              		.loc 2 463 13 discriminator 4 view .LVU1381
 463:Dubby.cpp     ****             return MenuItemsStrings[enumVal];
ARM GAS  /var/folders/1y/_321xjh9623c014x9_qw12rr0000gn/T//ccE17DNe.s 			page 165


 5230              		.loc 2 463 13 is_stmt 0 discriminator 4 view .LVU1382
 5231              	.LBE1223:
 5232              	.LBE1222:
 222:Dubby.cpp     ****          display.WriteString(GetTextForEnum(MAINMENU, currentText), Font_6x8, f_truncate/*, i == me
 5233              		.loc 2 222 29 discriminator 4 view .LVU1383
 5234 0380 CDF800C0 		str	ip, [sp]
 5235 0384 4846     		mov	r0, r9
 5236 0386 54F82110 		ldr	r1, [r4, r1, lsl #2]
 5237              	.LVL372:
 222:Dubby.cpp     ****          display.WriteString(GetTextForEnum(MAINMENU, currentText), Font_6x8, f_truncate/*, i == me
 5238              		.loc 2 222 29 discriminator 4 view .LVU1384
 5239 038a 98E80C00 		ldm	r8, {r2, r3}
 5240 038e FFF7FEFF 		bl	_ZN5daisy25OneBitGraphicsDisplayImplINS_11OledDisplayINS_13SSD130xDriverILj128ELj64ENS_24SSD130
 5241              	.LVL373:
 5242              	.LBE1225:
 217:Dubby.cpp     ****     for (int i = 0; i < 3; i++) 
 5243              		.loc 2 217 5 is_stmt 1 discriminator 4 view .LVU1385
 217:Dubby.cpp     ****     for (int i = 0; i < 3; i++) 
 5244              		.loc 2 217 23 discriminator 4 view .LVU1386
 5245 0392 032E     		cmp	r6, #3
 5246 0394 D5D1     		bne	.L311
 5247              	.LBE1206:
 225:Dubby.cpp     ****     display.DrawRect(PANE_X_START - 1, PANE_Y_START - 1, PANE_X_END + 1, PANE_Y_END + 1, true);
 5248              		.loc 2 225 5 view .LVU1387
 5249              	.LVL374:
 5250              	.LBB1226:
 5251              	.LBI1226:
 257:../../libDaisy//src/hid/disp/display.h ****                   uint_fast8_t y1,
 5252              		.loc 3 257 10 view .LVU1388
 5253              	.LBB1227:
 5254              	.LBI1227:
 221:../../libDaisy//src/hid/disp/display.h ****                   uint_fast8_t y1,
 5255              		.loc 3 221 10 view .LVU1389
 5256              	.LBB1228:
 5257              	.LBB1229:
 5258              	.LBI1229:
  42:../../libDaisy//src/hid/disp/oled_display.h ****     {
 5259              		.loc 1 42 10 view .LVU1390
 5260              	.LBB1230:
 5261              	.LBI1230:
 352:../../libDaisy//src/dev/oled_ssd130x.h ****     {
 5262              		.loc 4 352 10 view .LVU1391
 5263              	.LBB1231:
 357:../../libDaisy//src/dev/oled_ssd130x.h ****         else
 5264              		.loc 4 357 42 is_stmt 0 view .LVU1392
 5265 0396 94F83B25 		ldrb	r2, [r4, #1339]	@ zero_extendqisi2
 5266 039a 04F2BB43 		addw	r3, r4, #1211
 5267 039e 04F23A51 		addw	r1, r4, #1338
 5268 03a2 42F00102 		orr	r2, r2, #1
 5269 03a6 84F83B25 		strb	r2, [r4, #1339]
 5270              	.LVL375:
 357:../../libDaisy//src/dev/oled_ssd130x.h ****         else
 5271              		.loc 4 357 42 view .LVU1393
 5272              	.LBE1231:
 5273              	.LBE1230:
 5274              	.LBE1229:
 239:../../libDaisy//src/hid/disp/display.h ****         {
ARM GAS  /var/folders/1y/_321xjh9623c014x9_qw12rr0000gn/T//ccE17DNe.s 			page 166


 5275              		.loc 3 239 26 is_stmt 1 view .LVU1394
 5276              	.L312:
 5277              	.LBB1232:
 5278              	.LBI1232:
  42:../../libDaisy//src/hid/disp/oled_display.h ****     {
 5279              		.loc 1 42 10 view .LVU1395
 5280              	.LBB1233:
 5281              	.LBI1233:
 352:../../libDaisy//src/dev/oled_ssd130x.h ****     {
 5282              		.loc 4 352 10 view .LVU1396
 5283              	.LBB1234:
 357:../../libDaisy//src/dev/oled_ssd130x.h ****         else
 5284              		.loc 4 357 42 is_stmt 0 view .LVU1397
 5285 03aa 13F8012F 		ldrb	r2, [r3, #1]!	@ zero_extendqisi2
 5286              	.LVL376:
 357:../../libDaisy//src/dev/oled_ssd130x.h ****         else
 5287              		.loc 4 357 42 view .LVU1398
 5288 03ae 42F00102 		orr	r2, r2, #1
 5289              	.LBE1234:
 5290              	.LBE1233:
 5291              	.LBE1232:
 239:../../libDaisy//src/hid/disp/display.h ****         {
 5292              		.loc 3 239 26 view .LVU1399
 5293 03b2 9942     		cmp	r1, r3
 5294              	.LBB1237:
 5295              	.LBB1236:
 5296              	.LBB1235:
 357:../../libDaisy//src/dev/oled_ssd130x.h ****         else
 5297              		.loc 4 357 42 view .LVU1400
 5298 03b4 1A70     		strb	r2, [r3]
 5299              	.LVL377:
 357:../../libDaisy//src/dev/oled_ssd130x.h ****         else
 5300              		.loc 4 357 42 view .LVU1401
 5301              	.LBE1235:
 5302              	.LBE1236:
 5303              	.LBE1237:
 239:../../libDaisy//src/hid/disp/display.h ****         {
 5304              		.loc 3 239 26 is_stmt 1 view .LVU1402
 5305 03b6 F8D1     		bne	.L312
 5306              	.LVL378:
 239:../../libDaisy//src/hid/disp/display.h ****         {
 5307              		.loc 3 239 26 is_stmt 0 view .LVU1403
 5308              	.LBE1228:
 5309              	.LBE1227:
 5310              	.LBB1238:
 5311              	.LBI1238:
 221:../../libDaisy//src/hid/disp/display.h ****                   uint_fast8_t y1,
 5312              		.loc 3 221 10 is_stmt 1 view .LVU1404
 5313              	.LBB1239:
 5314              	.LBB1240:
 5315              	.LBI1240:
  42:../../libDaisy//src/hid/disp/oled_display.h ****     {
 5316              		.loc 1 42 10 view .LVU1405
 5317              	.LBB1241:
 5318              	.LBI1241:
 352:../../libDaisy//src/dev/oled_ssd130x.h ****     {
 5319              		.loc 4 352 10 view .LVU1406
ARM GAS  /var/folders/1y/_321xjh9623c014x9_qw12rr0000gn/T//ccE17DNe.s 			page 167


 5320              	.LBB1242:
 357:../../libDaisy//src/dev/oled_ssd130x.h ****         else
 5321              		.loc 4 357 42 is_stmt 0 view .LVU1407
 5322 03b8 94F83B28 		ldrb	r2, [r4, #2107]	@ zero_extendqisi2
 5323 03bc 0023     		movs	r3, #0
 5324 03be 42F01002 		orr	r2, r2, #16
 5325 03c2 84F83B28 		strb	r2, [r4, #2107]
 5326              	.LVL379:
 357:../../libDaisy//src/dev/oled_ssd130x.h ****         else
 5327              		.loc 4 357 42 view .LVU1408
 5328              	.LBE1242:
 5329              	.LBE1241:
 5330              	.LBE1240:
 239:../../libDaisy//src/hid/disp/display.h ****         {
 5331              		.loc 3 239 26 is_stmt 1 view .LVU1409
 5332              	.L313:
 5333              	.LBB1243:
 5334              	.LBI1243:
  42:../../libDaisy//src/hid/disp/oled_display.h ****     {
 5335              		.loc 1 42 10 view .LVU1410
 5336              	.LBB1244:
 5337              	.LBI1244:
 352:../../libDaisy//src/dev/oled_ssd130x.h ****     {
 5338              		.loc 4 352 10 view .LVU1411
 5339              	.LBB1245:
 357:../../libDaisy//src/dev/oled_ssd130x.h ****         else
 5340              		.loc 4 357 42 is_stmt 0 view .LVU1412
 5341 03c6 1A01     		lsls	r2, r3, #4
 357:../../libDaisy//src/dev/oled_ssd130x.h ****         else
 5342              		.loc 4 357 54 view .LVU1413
 5343 03c8 03F00700 		and	r0, r3, #7
 357:../../libDaisy//src/dev/oled_ssd130x.h ****         else
 5344              		.loc 4 357 48 view .LVU1414
 5345 03cc 0121     		movs	r1, #1
 357:../../libDaisy//src/dev/oled_ssd130x.h ****         else
 5346              		.loc 4 357 42 view .LVU1415
 5347 03ce 42F07F02 		orr	r2, r2, #127
 5348              	.LBE1245:
 5349              	.LBE1244:
 5350              	.LBE1243:
 252:../../libDaisy//src/hid/disp/display.h ****             }
 5351              		.loc 3 252 20 view .LVU1416
 5352 03d2 0B44     		add	r3, r3, r1
 5353              	.LVL380:
 5354              	.LBB1250:
 5355              	.LBB1248:
 5356              	.LBB1246:
 357:../../libDaisy//src/dev/oled_ssd130x.h ****         else
 5357              		.loc 4 357 48 view .LVU1417
 5358 03d4 8140     		lsls	r1, r1, r0
 357:../../libDaisy//src/dev/oled_ssd130x.h ****         else
 5359              		.loc 4 357 42 view .LVU1418
 5360 03d6 2244     		add	r2, r2, r4
 5361              	.LBE1246:
 5362              	.LBE1248:
 5363              	.LBE1250:
 239:../../libDaisy//src/hid/disp/display.h ****         {
ARM GAS  /var/folders/1y/_321xjh9623c014x9_qw12rr0000gn/T//ccE17DNe.s 			page 168


 5364              		.loc 3 239 26 view .LVU1419
 5365 03d8 342B     		cmp	r3, #52
 5366              	.LBB1251:
 5367              	.LBB1249:
 5368              	.LBB1247:
 357:../../libDaisy//src/dev/oled_ssd130x.h ****         else
 5369              		.loc 4 357 42 view .LVU1420
 5370 03da 92F8BC04 		ldrb	r0, [r2, #1212]	@ zero_extendqisi2
 5371 03de 41EA0001 		orr	r1, r1, r0
 5372 03e2 82F8BC14 		strb	r1, [r2, #1212]
 5373              	.LVL381:
 357:../../libDaisy//src/dev/oled_ssd130x.h ****         else
 5374              		.loc 4 357 42 view .LVU1421
 5375              	.LBE1247:
 5376              	.LBE1249:
 5377              	.LBE1251:
 239:../../libDaisy//src/hid/disp/display.h ****         {
 5378              		.loc 3 239 26 is_stmt 1 view .LVU1422
 5379 03e6 EED1     		bne	.L313
 5380              	.LVL382:
 239:../../libDaisy//src/hid/disp/display.h ****         {
 5381              		.loc 3 239 26 is_stmt 0 view .LVU1423
 5382              	.LBE1239:
 5383              	.LBE1238:
 5384              	.LBB1252:
 5385              	.LBI1252:
 221:../../libDaisy//src/hid/disp/display.h ****                   uint_fast8_t y1,
 5386              		.loc 3 221 10 is_stmt 1 view .LVU1424
 5387              	.LBB1253:
 5388              	.LBB1254:
 5389              	.LBI1254:
  42:../../libDaisy//src/hid/disp/oled_display.h ****     {
 5390              		.loc 1 42 10 view .LVU1425
 5391              	.LBB1255:
 5392              	.LBI1255:
 352:../../libDaisy//src/dev/oled_ssd130x.h ****     {
 5393              		.loc 4 352 10 view .LVU1426
 5394              	.LBB1256:
 357:../../libDaisy//src/dev/oled_ssd130x.h ****         else
 5395              		.loc 4 357 42 is_stmt 0 view .LVU1427
 5396 03e8 94F8BC27 		ldrb	r2, [r4, #1980]	@ zero_extendqisi2
 5397 03ec 04F63C01 		addw	r1, r4, #2108
 5398 03f0 04F2BD76 		addw	r6, r4, #1981
 5399              	.LVL383:
 357:../../libDaisy//src/dev/oled_ssd130x.h ****         else
 5400              		.loc 4 357 42 view .LVU1428
 5401 03f4 42F01002 		orr	r2, r2, #16
 5402 03f8 84F8BC27 		strb	r2, [r4, #1980]
 5403              	.LVL384:
 357:../../libDaisy//src/dev/oled_ssd130x.h ****         else
 5404              		.loc 4 357 42 view .LVU1429
 5405              	.LBE1256:
 5406              	.LBE1255:
 5407              	.LBE1254:
 239:../../libDaisy//src/hid/disp/display.h ****         {
 5408              		.loc 3 239 26 is_stmt 1 view .LVU1430
 5409              	.L314:
ARM GAS  /var/folders/1y/_321xjh9623c014x9_qw12rr0000gn/T//ccE17DNe.s 			page 169


 5410              	.LBB1257:
 5411              	.LBI1257:
  42:../../libDaisy//src/hid/disp/oled_display.h ****     {
 5412              		.loc 1 42 10 view .LVU1431
 5413              	.LBB1258:
 5414              	.LBI1258:
 352:../../libDaisy//src/dev/oled_ssd130x.h ****     {
 5415              		.loc 4 352 10 view .LVU1432
 5416              	.LBB1259:
 357:../../libDaisy//src/dev/oled_ssd130x.h ****         else
 5417              		.loc 4 357 42 is_stmt 0 view .LVU1433
 5418 03fc 11F8010D 		ldrb	r0, [r1, #-1]!	@ zero_extendqisi2
 5419              	.LVL385:
 357:../../libDaisy//src/dev/oled_ssd130x.h ****         else
 5420              		.loc 4 357 42 view .LVU1434
 5421 0400 40F01000 		orr	r0, r0, #16
 5422              	.LBE1259:
 5423              	.LBE1258:
 5424              	.LBE1257:
 239:../../libDaisy//src/hid/disp/display.h ****         {
 5425              		.loc 3 239 26 view .LVU1435
 5426 0404 8E42     		cmp	r6, r1
 5427              	.LBB1262:
 5428              	.LBB1261:
 5429              	.LBB1260:
 357:../../libDaisy//src/dev/oled_ssd130x.h ****         else
 5430              		.loc 4 357 42 view .LVU1436
 5431 0406 0870     		strb	r0, [r1]
 5432              	.LVL386:
 357:../../libDaisy//src/dev/oled_ssd130x.h ****         else
 5433              		.loc 4 357 42 view .LVU1437
 5434              	.LBE1260:
 5435              	.LBE1261:
 5436              	.LBE1262:
 239:../../libDaisy//src/hid/disp/display.h ****         {
 5437              		.loc 3 239 26 is_stmt 1 view .LVU1438
 5438 0408 F8D1     		bne	.L314
 5439              	.LVL387:
 239:../../libDaisy//src/hid/disp/display.h ****         {
 5440              		.loc 3 239 26 is_stmt 0 view .LVU1439
 5441              	.LBE1253:
 5442              	.LBE1252:
 5443              	.LBB1263:
 5444              	.LBI1263:
 221:../../libDaisy//src/hid/disp/display.h ****                   uint_fast8_t y1,
 5445              		.loc 3 221 10 is_stmt 1 view .LVU1440
 5446              	.LBB1264:
 5447              	.LBB1265:
 5448              	.LBI1265:
  42:../../libDaisy//src/hid/disp/oled_display.h ****     {
 5449              		.loc 1 42 10 view .LVU1441
 5450              	.LBB1266:
 5451              	.LBI1266:
 352:../../libDaisy//src/dev/oled_ssd130x.h ****     {
 5452              		.loc 4 352 10 view .LVU1442
 5453              	.LBB1267:
 357:../../libDaisy//src/dev/oled_ssd130x.h ****         else
ARM GAS  /var/folders/1y/_321xjh9623c014x9_qw12rr0000gn/T//ccE17DNe.s 			page 170


 5454              		.loc 4 357 42 is_stmt 0 view .LVU1443
 5455 040a 94F8BC14 		ldrb	r1, [r4, #1212]	@ zero_extendqisi2
 5456 040e 0620     		movs	r0, #6
 5457 0410 1646     		mov	r6, r2
 5458 0412 41F00101 		orr	r1, r1, #1
 5459 0416 84F8BC14 		strb	r1, [r4, #1212]
 5460              	.LVL388:
 357:../../libDaisy//src/dev/oled_ssd130x.h ****         else
 5461              		.loc 4 357 42 view .LVU1444
 5462              	.LBE1267:
 5463              	.LBE1266:
 5464              	.LBE1265:
 239:../../libDaisy//src/hid/disp/display.h ****         {
 5465              		.loc 3 239 26 is_stmt 1 view .LVU1445
 5466 041a 03E0     		b	.L316
 5467              	.LVL389:
 5468              	.L368:
 5469              	.LBB1268:
 5470              	.LBB1269:
 5471              	.LBB1270:
 357:../../libDaisy//src/dev/oled_ssd130x.h ****         else
 5472              		.loc 4 357 42 is_stmt 0 view .LVU1446
 5473 041c 04EBC012 		add	r2, r4, r0, lsl #7
 5474 0420 92F8BC64 		ldrb	r6, [r2, #1212]	@ zero_extendqisi2
 5475              	.LVL390:
 5476              	.L316:
 357:../../libDaisy//src/dev/oled_ssd130x.h ****         else
 5477              		.loc 4 357 42 view .LVU1447
 5478              	.LBE1270:
 5479              	.LBE1269:
 5480              	.LBI1268:
  42:../../libDaisy//src/hid/disp/oled_display.h ****     {
 5481              		.loc 1 42 10 is_stmt 1 view .LVU1448
 5482              	.LBB1274:
 5483              	.LBI1269:
 352:../../libDaisy//src/dev/oled_ssd130x.h ****     {
 5484              		.loc 4 352 10 view .LVU1449
 5485              	.LBB1271:
 357:../../libDaisy//src/dev/oled_ssd130x.h ****         else
 5486              		.loc 4 357 54 is_stmt 0 view .LVU1450
 5487 0424 03F00702 		and	r2, r3, #7
 357:../../libDaisy//src/dev/oled_ssd130x.h ****         else
 5488              		.loc 4 357 48 view .LVU1451
 5489 0428 0121     		movs	r1, #1
 357:../../libDaisy//src/dev/oled_ssd130x.h ****         else
 5490              		.loc 4 357 42 view .LVU1452
 5491 042a 04EBC010 		add	r0, r4, r0, lsl #7
 5492              	.LBE1271:
 5493              	.LBE1274:
 5494              	.LBE1268:
 239:../../libDaisy//src/hid/disp/display.h ****         {
 5495              		.loc 3 239 26 view .LVU1453
 5496 042e 013B     		subs	r3, r3, #1
 5497              	.LVL391:
 5498              	.LBB1277:
 5499              	.LBB1275:
 5500              	.LBB1272:
ARM GAS  /var/folders/1y/_321xjh9623c014x9_qw12rr0000gn/T//ccE17DNe.s 			page 171


 357:../../libDaisy//src/dev/oled_ssd130x.h ****         else
 5501              		.loc 4 357 48 view .LVU1454
 5502 0430 01FA02F1 		lsl	r1, r1, r2
 357:../../libDaisy//src/dev/oled_ssd130x.h ****         else
 5503              		.loc 4 357 42 view .LVU1455
 5504 0434 41EA0602 		orr	r2, r1, r6
 5505 0438 80F8BC24 		strb	r2, [r0, #1212]
 5506              	.LVL392:
 357:../../libDaisy//src/dev/oled_ssd130x.h ****         else
 5507              		.loc 4 357 42 view .LVU1456
 5508              	.LBE1272:
 5509              	.LBE1275:
 5510              	.LBE1277:
 239:../../libDaisy//src/hid/disp/display.h ****         {
 5511              		.loc 3 239 26 is_stmt 1 view .LVU1457
 5512              	.LBB1278:
 5513              	.LBB1276:
 5514              	.LBB1273:
 357:../../libDaisy//src/dev/oled_ssd130x.h ****         else
 5515              		.loc 4 357 28 is_stmt 0 view .LVU1458
 5516 043c 4FEAD300 		lsr	r0, r3, #3
 5517              	.LBE1273:
 5518              	.LBE1276:
 5519              	.LBE1278:
 239:../../libDaisy//src/hid/disp/display.h ****         {
 5520              		.loc 3 239 26 view .LVU1459
 5521 0440 ECD1     		bne	.L368
 5522              	.LBE1264:
 5523              	.LBE1263:
 5524              	.LBE1226:
 5525              	.LBB1279:
 5526              	.LBB1280:
 5527              	.LBB1281:
 5528              	.LBB1282:
 5529              	.LBB1283:
 124:../../libDaisy//src/dev/oled_ssd130x.h ****         spi_.BlockingTransmit(&cmd, 1);
 5530              		.loc 4 124 24 view .LVU1460
 5531 0442 04F59764 		add	r4, r4, #1208
 5532              	.LVL393:
 124:../../libDaisy//src/dev/oled_ssd130x.h ****         spi_.BlockingTransmit(&cmd, 1);
 5533              		.loc 4 124 24 view .LVU1461
 5534 0446 05F10C07 		add	r7, r5, #12
 5535 044a 05F20C49 		addw	r9, r5, #1036
 5536              	.LVL394:
 124:../../libDaisy//src/dev/oled_ssd130x.h ****         spi_.BlockingTransmit(&cmd, 1);
 5537              		.loc 4 124 24 view .LVU1462
 5538 044e B026     		movs	r6, #176
 5539              	.LVL395:
 5540              	.L317:
 124:../../libDaisy//src/dev/oled_ssd130x.h ****         spi_.BlockingTransmit(&cmd, 1);
 5541              		.loc 4 124 24 view .LVU1463
 5542 0450 4FF00008 		mov	r8, #0
 124:../../libDaisy//src/dev/oled_ssd130x.h ****         spi_.BlockingTransmit(&cmd, 1);
 5543              		.loc 4 124 23 view .LVU1464
 5544 0454 2046     		mov	r0, r4
 5545 0456 8DF82F60 		strb	r6, [sp, #47]
 5546              	.LVL396:
ARM GAS  /var/folders/1y/_321xjh9623c014x9_qw12rr0000gn/T//ccE17DNe.s 			page 172


 124:../../libDaisy//src/dev/oled_ssd130x.h ****         spi_.BlockingTransmit(&cmd, 1);
 5547              		.loc 4 124 23 view .LVU1465
 5548              	.LBE1283:
 5549              	.LBI1282:
 122:../../libDaisy//src/dev/oled_ssd130x.h ****     {
 5550              		.loc 4 122 10 is_stmt 1 view .LVU1466
 5551              	.LBB1284:
 124:../../libDaisy//src/dev/oled_ssd130x.h ****         spi_.BlockingTransmit(&cmd, 1);
 5552              		.loc 4 124 9 view .LVU1467
 5553              	.LBE1284:
 5554              	.LBE1282:
 5555              		.loc 4 383 22 is_stmt 0 view .LVU1468
 5556 045a 0136     		adds	r6, r6, #1
 5557              	.LVL397:
 5558              	.LBB1287:
 5559              	.LBB1285:
 124:../../libDaisy//src/dev/oled_ssd130x.h ****         spi_.BlockingTransmit(&cmd, 1);
 5560              		.loc 4 124 23 view .LVU1469
 5561 045c 4146     		mov	r1, r8
 5562 045e FFF7FEFF 		bl	dsy_gpio_write
 5563              	.LVL398:
 125:../../libDaisy//src/dev/oled_ssd130x.h ****     };
 5564              		.loc 4 125 9 is_stmt 1 view .LVU1470
 125:../../libDaisy//src/dev/oled_ssd130x.h ****     };
 5565              		.loc 4 125 30 is_stmt 0 view .LVU1471
 5566 0462 6423     		movs	r3, #100
 5567 0464 0122     		movs	r2, #1
 5568 0466 0DF12F01 		add	r1, sp, #47
 5569 046a 2846     		mov	r0, r5
 5570              	.LBE1285:
 5571              	.LBE1287:
 5572              		.loc 4 383 22 view .LVU1472
 5573 046c F6B2     		uxtb	r6, r6
 5574              	.LBB1288:
 5575              	.LBB1286:
 125:../../libDaisy//src/dev/oled_ssd130x.h ****     };
 5576              		.loc 4 125 30 view .LVU1473
 5577 046e FFF7FEFF 		bl	_ZN5daisy9SpiHandle16BlockingTransmitEPhjm
 5578              	.LVL399:
 125:../../libDaisy//src/dev/oled_ssd130x.h ****     };
 5579              		.loc 4 125 30 view .LVU1474
 5580              	.LBE1286:
 5581              	.LBE1288:
 5582              	.LBB1289:
 5583              	.LBB1290:
 124:../../libDaisy//src/dev/oled_ssd130x.h ****         spi_.BlockingTransmit(&cmd, 1);
 5584              		.loc 4 124 23 view .LVU1475
 5585 0472 4146     		mov	r1, r8
 5586 0474 2046     		mov	r0, r4
 5587 0476 8DF82F80 		strb	r8, [sp, #47]
 5588              	.LVL400:
 124:../../libDaisy//src/dev/oled_ssd130x.h ****         spi_.BlockingTransmit(&cmd, 1);
 5589              		.loc 4 124 23 view .LVU1476
 5590              	.LBE1290:
 5591              	.LBI1289:
 122:../../libDaisy//src/dev/oled_ssd130x.h ****     {
 5592              		.loc 4 122 10 is_stmt 1 view .LVU1477
ARM GAS  /var/folders/1y/_321xjh9623c014x9_qw12rr0000gn/T//ccE17DNe.s 			page 173


 5593              	.LBB1291:
 124:../../libDaisy//src/dev/oled_ssd130x.h ****         spi_.BlockingTransmit(&cmd, 1);
 5594              		.loc 4 124 9 view .LVU1478
 124:../../libDaisy//src/dev/oled_ssd130x.h ****         spi_.BlockingTransmit(&cmd, 1);
 5595              		.loc 4 124 23 is_stmt 0 view .LVU1479
 5596 047a FFF7FEFF 		bl	dsy_gpio_write
 5597              	.LVL401:
 125:../../libDaisy//src/dev/oled_ssd130x.h ****     };
 5598              		.loc 4 125 9 is_stmt 1 view .LVU1480
 125:../../libDaisy//src/dev/oled_ssd130x.h ****     };
 5599              		.loc 4 125 30 is_stmt 0 view .LVU1481
 5600 047e 0122     		movs	r2, #1
 5601 0480 6423     		movs	r3, #100
 5602 0482 0DF12F01 		add	r1, sp, #47
 5603 0486 2846     		mov	r0, r5
 5604 0488 FFF7FEFF 		bl	_ZN5daisy9SpiHandle16BlockingTransmitEPhjm
 5605              	.LVL402:
 125:../../libDaisy//src/dev/oled_ssd130x.h ****     };
 5606              		.loc 4 125 30 view .LVU1482
 5607 048c 1023     		movs	r3, #16
 5608              	.LBE1291:
 5609              	.LBE1289:
 5610              	.LBB1292:
 5611              	.LBB1293:
 124:../../libDaisy//src/dev/oled_ssd130x.h ****         spi_.BlockingTransmit(&cmd, 1);
 5612              		.loc 4 124 23 view .LVU1483
 5613 048e 4146     		mov	r1, r8
 5614 0490 2046     		mov	r0, r4
 5615 0492 8DF82F30 		strb	r3, [sp, #47]
 5616              	.LVL403:
 124:../../libDaisy//src/dev/oled_ssd130x.h ****         spi_.BlockingTransmit(&cmd, 1);
 5617              		.loc 4 124 23 view .LVU1484
 5618              	.LBE1293:
 5619              	.LBI1292:
 122:../../libDaisy//src/dev/oled_ssd130x.h ****     {
 5620              		.loc 4 122 10 is_stmt 1 view .LVU1485
 5621              	.LBB1294:
 124:../../libDaisy//src/dev/oled_ssd130x.h ****         spi_.BlockingTransmit(&cmd, 1);
 5622              		.loc 4 124 9 view .LVU1486
 124:../../libDaisy//src/dev/oled_ssd130x.h ****         spi_.BlockingTransmit(&cmd, 1);
 5623              		.loc 4 124 23 is_stmt 0 view .LVU1487
 5624 0496 FFF7FEFF 		bl	dsy_gpio_write
 5625              	.LVL404:
 125:../../libDaisy//src/dev/oled_ssd130x.h ****     };
 5626              		.loc 4 125 9 is_stmt 1 view .LVU1488
 125:../../libDaisy//src/dev/oled_ssd130x.h ****     };
 5627              		.loc 4 125 30 is_stmt 0 view .LVU1489
 5628 049a 6423     		movs	r3, #100
 5629 049c 0122     		movs	r2, #1
 5630 049e 0DF12F01 		add	r1, sp, #47
 5631 04a2 2846     		mov	r0, r5
 5632 04a4 FFF7FEFF 		bl	_ZN5daisy9SpiHandle16BlockingTransmitEPhjm
 5633              	.LVL405:
 125:../../libDaisy//src/dev/oled_ssd130x.h ****     };
 5634              		.loc 4 125 30 view .LVU1490
 5635              	.LBE1294:
 5636              	.LBE1292:
ARM GAS  /var/folders/1y/_321xjh9623c014x9_qw12rr0000gn/T//ccE17DNe.s 			page 174


 5637              	.LBB1295:
 5638              	.LBI1295:
 128:../../libDaisy//src/dev/oled_ssd130x.h ****     {
 5639              		.loc 4 128 10 is_stmt 1 view .LVU1491
 5640              	.LBB1296:
 130:../../libDaisy//src/dev/oled_ssd130x.h ****         spi_.BlockingTransmit(buff, size);
 5641              		.loc 4 130 9 view .LVU1492
 130:../../libDaisy//src/dev/oled_ssd130x.h ****         spi_.BlockingTransmit(buff, size);
 5642              		.loc 4 130 23 is_stmt 0 view .LVU1493
 5643 04a8 0121     		movs	r1, #1
 5644 04aa 2046     		mov	r0, r4
 5645 04ac FFF7FEFF 		bl	dsy_gpio_write
 5646              	.LVL406:
 131:../../libDaisy//src/dev/oled_ssd130x.h ****     };
 5647              		.loc 4 131 9 is_stmt 1 view .LVU1494
 131:../../libDaisy//src/dev/oled_ssd130x.h ****     };
 5648              		.loc 4 131 30 is_stmt 0 view .LVU1495
 5649 04b0 8022     		movs	r2, #128
 5650 04b2 3946     		mov	r1, r7
 5651 04b4 6423     		movs	r3, #100
 5652              	.LBE1296:
 5653              	.LBE1295:
 5654              		.loc 4 383 22 view .LVU1496
 5655 04b6 1744     		add	r7, r7, r2
 5656              	.LVL407:
 5657              	.LBB1298:
 5658              	.LBB1297:
 131:../../libDaisy//src/dev/oled_ssd130x.h ****     };
 5659              		.loc 4 131 30 view .LVU1497
 5660 04b8 2846     		mov	r0, r5
 5661 04ba FFF7FEFF 		bl	_ZN5daisy9SpiHandle16BlockingTransmitEPhjm
 5662              	.LVL408:
 131:../../libDaisy//src/dev/oled_ssd130x.h ****     };
 5663              		.loc 4 131 30 view .LVU1498
 5664              	.LBE1297:
 5665              	.LBE1298:
 5666              		.loc 4 383 9 is_stmt 1 view .LVU1499
 5667              		.loc 4 383 22 view .LVU1500
 5668 04be B945     		cmp	r9, r7
 5669 04c0 C6D1     		bne	.L317
 5670              	.LBE1281:
 5671              	.LBE1280:
 5672              	.LBE1279:
 228:Dubby.cpp     **** }
 5673              		.loc 2 228 1 is_stmt 0 view .LVU1501
 5674 04c2 0DB0     		add	sp, sp, #52
 5675              		.cfi_remember_state
 5676              		.cfi_def_cfa_offset 36
 5677              		@ sp needed
 5678 04c4 BDE8F08F 		pop	{r4, r5, r6, r7, r8, r9, r10, fp, pc}
 5679              	.LVL409:
 5680              	.L328:
 5681              		.cfi_restore_state
 5682              	.LBB1299:
 5683              	.LBB1199:
 5684              	.LBB1169:
 230:../../libDaisy//src/hid/disp/display.h ****         int_fast16_t error  = deltaX - deltaY;
ARM GAS  /var/folders/1y/_321xjh9623c014x9_qw12rr0000gn/T//ccE17DNe.s 			page 175


 5685              		.loc 3 230 42 view .LVU1502
 5686 04c8 0123     		movs	r3, #1
 5687 04ca 0693     		str	r3, [sp, #24]
 5688 04cc 67E6     		b	.L288
 5689              	.LVL410:
 5690              	.L323:
 230:../../libDaisy//src/hid/disp/display.h ****         int_fast16_t error  = deltaX - deltaY;
 5691              		.loc 3 230 42 view .LVU1503
 5692 04ce 4FF0FF33 		mov	r3, #-1
 5693 04d2 0693     		str	r3, [sp, #24]
 5694              	.LVL411:
 239:../../libDaisy//src/hid/disp/display.h ****         {
 5695              		.loc 3 239 26 is_stmt 1 view .LVU1504
 5696 04d4 DDE90331 		ldrd	r3, r1, [sp, #12]
 5697 04d8 8B42     		cmp	r3, r1
 5698 04da 7FF460AE 		bne	.L288
 5699              	.LVL412:
 5700              	.L367:
 239:../../libDaisy//src/hid/disp/display.h ****         {
 5701              		.loc 3 239 33 is_stmt 0 view .LVU1505
 5702 04de 4FF0010B 		mov	fp, #1
 5703 04e2 8AE6     		b	.L287
 5704              	.L370:
 5705              		.align	2
 5706              	.L369:
 5707 04e4 ABAAAAAA 		.word	-1431655765
 5708 04e8 00000000 		.word	Font_6x8
 5709              	.LBE1169:
 5710              	.LBE1199:
 5711              	.LBE1299:
 5712              		.cfi_endproc
 5713              	.LFE3738:
 5715              		.section	.text._ZN5daisy5Dubby11ReleaseMenuEv,"ax",%progbits
 5716              		.align	1
 5717              		.p2align 2,,3
 5718              		.global	_ZN5daisy5Dubby11ReleaseMenuEv
 5719              		.syntax unified
 5720              		.thumb
 5721              		.thumb_func
 5723              	_ZN5daisy5Dubby11ReleaseMenuEv:
 5724              	.LVL413:
 5725              	.LFB3739:
 231:Dubby.cpp     **** {        
 5726              		.loc 2 231 1 is_stmt 1 view -0
 5727              		.cfi_startproc
 5728              		@ args = 0, pretend = 0, frame = 8
 5729              		@ frame_needed = 0, uses_anonymous_args = 0
 232:Dubby.cpp     ****     display.Fill(false);
 5730              		.loc 2 232 5 view .LVU1507
 5731              	.LBB1327:
 5732              	.LBI1327:
  34:../../libDaisy//src/hid/disp/oled_display.h **** 
 5733              		.loc 1 34 10 view .LVU1508
 5734              	.LBB1328:
 5735              	.LBI1328:
 362:../../libDaisy//src/dev/oled_ssd130x.h ****     {
 5736              		.loc 4 362 10 view .LVU1509
ARM GAS  /var/folders/1y/_321xjh9623c014x9_qw12rr0000gn/T//ccE17DNe.s 			page 176


 5737              	.LBB1329:
 364:../../libDaisy//src/dev/oled_ssd130x.h ****         {
 5738              		.loc 4 364 29 view .LVU1510
 5739              	.LBE1329:
 5740              	.LBE1328:
 5741              	.LBE1327:
 231:Dubby.cpp     **** {        
 5742              		.loc 2 231 1 is_stmt 0 view .LVU1511
 5743 0000 2DE9F041 		push	{r4, r5, r6, r7, r8, lr}
 5744              		.cfi_def_cfa_offset 24
 5745              		.cfi_offset 4, -24
 5746              		.cfi_offset 5, -20
 5747              		.cfi_offset 6, -16
 5748              		.cfi_offset 7, -12
 5749              		.cfi_offset 8, -8
 5750              		.cfi_offset 14, -4
 5751 0004 0446     		mov	r4, r0
 5752 0006 00F2BC40 		addw	r0, r0, #1212
 5753              	.LVL414:
 231:Dubby.cpp     **** {        
 5754              		.loc 2 231 1 view .LVU1512
 5755 000a 84B0     		sub	sp, sp, #16
 5756              		.cfi_def_cfa_offset 40
 5757              	.LBB1332:
 5758              	.LBB1331:
 5759              	.LBB1330:
 366:../../libDaisy//src/dev/oled_ssd130x.h ****         }
 5760              		.loc 4 366 24 view .LVU1513
 5761 000c 4FF48062 		mov	r2, #1024
 5762 0010 0021     		movs	r1, #0
 5763 0012 8046     		mov	r8, r0
 5764 0014 FFF7FEFF 		bl	memset
 5765              	.LVL415:
 366:../../libDaisy//src/dev/oled_ssd130x.h ****         }
 5766              		.loc 4 366 24 view .LVU1514
 5767              	.LBE1330:
 5768              	.LBE1331:
 5769              	.LBE1332:
 237:Dubby.cpp     ****         display.SetCursor(menuTextCursors[0][0], menuTextCursors[0][1]);
 5770              		.loc 2 237 9 is_stmt 1 view .LVU1515
 237:Dubby.cpp     ****         display.SetCursor(menuTextCursors[0][0], menuTextCursors[0][1]);
 5771              		.loc 2 237 26 is_stmt 0 view .LVU1516
 5772 0018 B4F86420 		ldrh	r2, [r4, #100]
 5773              	.LVL416:
 5774              	.LBB1333:
 5775              	.LBI1333:
 171:../../libDaisy//src/hid/disp/display.h ****     {
 5776              		.loc 3 171 10 is_stmt 1 view .LVU1517
 5777              	.LBB1334:
 173:../../libDaisy//src/hid/disp/display.h ****         currentY_ = (y >= Height()) ? Height() - 1 : y;
 5778              		.loc 3 173 9 view .LVU1518
 173:../../libDaisy//src/hid/disp/display.h ****         currentY_ = (y >= Height()) ? Height() - 1 : y;
 5779              		.loc 3 173 19 is_stmt 0 view .LVU1519
 5780 001c B4F86030 		ldrh	r3, [r4, #96]
 5781              	.LBE1334:
 5782              	.LBE1333:
 5783              	.LBB1338:
ARM GAS  /var/folders/1y/_321xjh9623c014x9_qw12rr0000gn/T//ccE17DNe.s 			page 177


 5784              	.LBB1339:
 5785              	.LBB1340:
 5786              	.LBB1341:
 5787              	.LBB1342:
 124:../../libDaisy//src/dev/oled_ssd130x.h ****         spi_.BlockingTransmit(&cmd, 1);
 5788              		.loc 4 124 24 view .LVU1520
 5789 0020 04F59666 		add	r6, r4, #1200
 5790              	.LBE1342:
 5791              	.LBE1341:
 5792              	.LBE1340:
 5793              	.LBE1339:
 5794              	.LBE1338:
 5795              	.LBB1370:
 5796              	.LBB1335:
 174:../../libDaisy//src/hid/disp/display.h ****     }
 5797              		.loc 3 174 19 view .LVU1521
 5798 0024 3F2A     		cmp	r2, #63
 5799              	.LBE1335:
 5800              	.LBE1370:
 238:Dubby.cpp     ****         display.WriteString(GetTextForEnum(MAINMENU, menuItemSelected), Font_6x8, true);
 5801              		.loc 2 238 28 view .LVU1522
 5802 0026 94F85C10 		ldrb	r1, [r4, #92]	@ zero_extendqisi2
 5803 002a 2948     		ldr	r0, .L375
 5804              	.LBB1371:
 5805              	.LBB1367:
 5806              	.LBB1364:
 5807              	.LBB1349:
 5808              	.LBB1343:
 124:../../libDaisy//src/dev/oled_ssd130x.h ****         spi_.BlockingTransmit(&cmd, 1);
 5809              		.loc 4 124 24 view .LVU1523
 5810 002c 04F59765 		add	r5, r4, #1208
 5811              	.LBE1343:
 5812              	.LBE1349:
 5813              	.LBE1364:
 5814              	.LBE1367:
 5815              	.LBE1371:
 5816              	.LBB1372:
 5817              	.LBB1336:
 174:../../libDaisy//src/hid/disp/display.h ****     }
 5818              		.loc 3 174 19 view .LVU1524
 5819 0030 28BF     		it	cs
 5820 0032 3F22     		movcs	r2, #63
 5821              	.LVL417:
 173:../../libDaisy//src/hid/disp/display.h ****         currentY_ = (y >= Height()) ? Height() - 1 : y;
 5822              		.loc 3 173 19 view .LVU1525
 5823 0034 7F2B     		cmp	r3, #127
 5824              	.LBE1336:
 5825              	.LBE1372:
 238:Dubby.cpp     ****         display.WriteString(GetTextForEnum(MAINMENU, menuItemSelected), Font_6x8, true);
 5826              		.loc 2 238 28 view .LVU1526
 5827 0036 54F82110 		ldr	r1, [r4, r1, lsl #2]
 5828              	.LBB1373:
 5829              	.LBB1337:
 173:../../libDaisy//src/hid/disp/display.h ****         currentY_ = (y >= Height()) ? Height() - 1 : y;
 5830              		.loc 3 173 19 view .LVU1527
 5831 003a 28BF     		it	cs
 5832 003c 7F23     		movcs	r3, #127
ARM GAS  /var/folders/1y/_321xjh9623c014x9_qw12rr0000gn/T//ccE17DNe.s 			page 178


 174:../../libDaisy//src/hid/disp/display.h ****     }
 5833              		.loc 3 174 19 view .LVU1528
 5834 003e A4F8AE24 		strh	r2, [r4, #1198]	@ movhi
 173:../../libDaisy//src/hid/disp/display.h ****         currentY_ = (y >= Height()) ? Height() - 1 : y;
 5835              		.loc 3 173 19 view .LVU1529
 5836 0042 A4F8AC34 		strh	r3, [r4, #1196]	@ movhi
 174:../../libDaisy//src/hid/disp/display.h ****     }
 5837              		.loc 3 174 9 is_stmt 1 view .LVU1530
 5838              	.LVL418:
 174:../../libDaisy//src/hid/disp/display.h ****     }
 5839              		.loc 3 174 9 is_stmt 0 view .LVU1531
 5840              	.LBE1337:
 5841              	.LBE1373:
 238:Dubby.cpp     ****         display.WriteString(GetTextForEnum(MAINMENU, menuItemSelected), Font_6x8, true);
 5842              		.loc 2 238 9 is_stmt 1 view .LVU1532
 5843              	.LBB1374:
 5844              	.LBI1374:
 458:Dubby.cpp     **** const char * Dubby::GetTextForEnum(MenuTypes m, int enumVal)
 5845              		.loc 2 458 14 view .LVU1533
 5846              	.LBB1375:
 460:Dubby.cpp     ****     switch (m)
 5847              		.loc 2 460 5 view .LVU1534
 462:Dubby.cpp     ****         case MAINMENU:
 5848              		.loc 2 462 9 view .LVU1535
 463:Dubby.cpp     ****             return MenuItemsStrings[enumVal];
 5849              		.loc 2 463 13 view .LVU1536
 463:Dubby.cpp     ****             return MenuItemsStrings[enumVal];
 5850              		.loc 2 463 13 is_stmt 0 view .LVU1537
 5851              	.LBE1375:
 5852              	.LBE1374:
 238:Dubby.cpp     ****         display.WriteString(GetTextForEnum(MAINMENU, menuItemSelected), Font_6x8, true);
 5853              		.loc 2 238 28 view .LVU1538
 5854 0046 0123     		movs	r3, #1
 5855 0048 0093     		str	r3, [sp]
 5856 004a 90E80C00 		ldm	r0, {r2, r3}
 5857 004e 04F59560 		add	r0, r4, #1192
 5858              	.LBB1376:
 5859              	.LBB1368:
 5860              	.LBB1365:
 5861              	.LBB1350:
 5862              	.LBB1344:
 125:../../libDaisy//src/dev/oled_ssd130x.h ****     };
 5863              		.loc 4 125 30 view .LVU1539
 5864 0052 B024     		movs	r4, #176
 5865              	.LVL419:
 125:../../libDaisy//src/dev/oled_ssd130x.h ****     };
 5866              		.loc 4 125 30 view .LVU1540
 5867              	.LBE1344:
 5868              	.LBE1350:
 5869              	.LBE1365:
 5870              	.LBE1368:
 5871              	.LBE1376:
 238:Dubby.cpp     ****         display.WriteString(GetTextForEnum(MAINMENU, menuItemSelected), Font_6x8, true);
 5872              		.loc 2 238 28 view .LVU1541
 5873 0054 FFF7FEFF 		bl	_ZN5daisy25OneBitGraphicsDisplayImplINS_11OledDisplayINS_13SSD130xDriverILj128ELj64ENS_24SSD130
 5874              	.LVL420:
 241:Dubby.cpp     ****     display.Update();
ARM GAS  /var/folders/1y/_321xjh9623c014x9_qw12rr0000gn/T//ccE17DNe.s 			page 179


 5875              		.loc 2 241 5 is_stmt 1 view .LVU1542
 5876              	.LBB1377:
 5877              	.LBI1338:
  45:../../libDaisy//src/hid/disp/oled_display.h ****     }
  46:../../libDaisy//src/hid/disp/oled_display.h **** 
  47:../../libDaisy//src/hid/disp/oled_display.h ****     /** 
  48:../../libDaisy//src/hid/disp/oled_display.h ****     Writes the current display buffer to the OLED device using SPI or I2C depending on 
  49:../../libDaisy//src/hid/disp/oled_display.h ****     how the object was initialized.
  50:../../libDaisy//src/hid/disp/oled_display.h ****     */
  51:../../libDaisy//src/hid/disp/oled_display.h ****     void Update() override { driver_.Update(); }
 5878              		.loc 1 51 10 view .LVU1543
 5879              	.LBB1369:
 5880              	.LBI1339:
 373:../../libDaisy//src/dev/oled_ssd130x.h ****     {
 5881              		.loc 4 373 10 view .LVU1544
 5882              	.LBB1366:
 5883              		.loc 4 383 22 view .LVU1545
 5884              	.L372:
 5885              		.loc 4 383 22 is_stmt 0 view .LVU1546
 5886 0058 0027     		movs	r7, #0
 5887              	.LBB1351:
 5888              	.LBB1345:
 124:../../libDaisy//src/dev/oled_ssd130x.h ****         spi_.BlockingTransmit(&cmd, 1);
 5889              		.loc 4 124 23 view .LVU1547
 5890 005a 2846     		mov	r0, r5
 5891 005c 8DF80F40 		strb	r4, [sp, #15]
 5892              	.LVL421:
 124:../../libDaisy//src/dev/oled_ssd130x.h ****         spi_.BlockingTransmit(&cmd, 1);
 5893              		.loc 4 124 23 view .LVU1548
 5894              	.LBE1345:
 5895              	.LBI1341:
 122:../../libDaisy//src/dev/oled_ssd130x.h ****     {
 5896              		.loc 4 122 10 is_stmt 1 view .LVU1549
 5897              	.LBB1346:
 124:../../libDaisy//src/dev/oled_ssd130x.h ****         spi_.BlockingTransmit(&cmd, 1);
 5898              		.loc 4 124 9 view .LVU1550
 5899              	.LBE1346:
 5900              	.LBE1351:
 5901              		.loc 4 383 22 is_stmt 0 view .LVU1551
 5902 0060 0134     		adds	r4, r4, #1
 5903              	.LVL422:
 5904              	.LBB1352:
 5905              	.LBB1347:
 124:../../libDaisy//src/dev/oled_ssd130x.h ****         spi_.BlockingTransmit(&cmd, 1);
 5906              		.loc 4 124 23 view .LVU1552
 5907 0062 3946     		mov	r1, r7
 5908 0064 FFF7FEFF 		bl	dsy_gpio_write
 5909              	.LVL423:
 125:../../libDaisy//src/dev/oled_ssd130x.h ****     };
 5910              		.loc 4 125 9 is_stmt 1 view .LVU1553
 125:../../libDaisy//src/dev/oled_ssd130x.h ****     };
 5911              		.loc 4 125 30 is_stmt 0 view .LVU1554
 5912 0068 6423     		movs	r3, #100
 5913 006a 0122     		movs	r2, #1
 5914 006c 0DF10F01 		add	r1, sp, #15
 5915 0070 3046     		mov	r0, r6
 5916              	.LBE1347:
ARM GAS  /var/folders/1y/_321xjh9623c014x9_qw12rr0000gn/T//ccE17DNe.s 			page 180


 5917              	.LBE1352:
 5918              		.loc 4 383 22 view .LVU1555
 5919 0072 E4B2     		uxtb	r4, r4
 5920              	.LBB1353:
 5921              	.LBB1348:
 125:../../libDaisy//src/dev/oled_ssd130x.h ****     };
 5922              		.loc 4 125 30 view .LVU1556
 5923 0074 FFF7FEFF 		bl	_ZN5daisy9SpiHandle16BlockingTransmitEPhjm
 5924              	.LVL424:
 125:../../libDaisy//src/dev/oled_ssd130x.h ****     };
 5925              		.loc 4 125 30 view .LVU1557
 5926              	.LBE1348:
 5927              	.LBE1353:
 5928              	.LBB1354:
 5929              	.LBB1355:
 124:../../libDaisy//src/dev/oled_ssd130x.h ****         spi_.BlockingTransmit(&cmd, 1);
 5930              		.loc 4 124 23 view .LVU1558
 5931 0078 3946     		mov	r1, r7
 5932 007a 2846     		mov	r0, r5
 5933 007c 8DF80F70 		strb	r7, [sp, #15]
 5934              	.LVL425:
 124:../../libDaisy//src/dev/oled_ssd130x.h ****         spi_.BlockingTransmit(&cmd, 1);
 5935              		.loc 4 124 23 view .LVU1559
 5936              	.LBE1355:
 5937              	.LBI1354:
 122:../../libDaisy//src/dev/oled_ssd130x.h ****     {
 5938              		.loc 4 122 10 is_stmt 1 view .LVU1560
 5939              	.LBB1356:
 124:../../libDaisy//src/dev/oled_ssd130x.h ****         spi_.BlockingTransmit(&cmd, 1);
 5940              		.loc 4 124 9 view .LVU1561
 124:../../libDaisy//src/dev/oled_ssd130x.h ****         spi_.BlockingTransmit(&cmd, 1);
 5941              		.loc 4 124 23 is_stmt 0 view .LVU1562
 5942 0080 FFF7FEFF 		bl	dsy_gpio_write
 5943              	.LVL426:
 125:../../libDaisy//src/dev/oled_ssd130x.h ****     };
 5944              		.loc 4 125 9 is_stmt 1 view .LVU1563
 125:../../libDaisy//src/dev/oled_ssd130x.h ****     };
 5945              		.loc 4 125 30 is_stmt 0 view .LVU1564
 5946 0084 0122     		movs	r2, #1
 5947 0086 6423     		movs	r3, #100
 5948 0088 0DF10F01 		add	r1, sp, #15
 5949 008c 3046     		mov	r0, r6
 5950 008e FFF7FEFF 		bl	_ZN5daisy9SpiHandle16BlockingTransmitEPhjm
 5951              	.LVL427:
 125:../../libDaisy//src/dev/oled_ssd130x.h ****     };
 5952              		.loc 4 125 30 view .LVU1565
 5953 0092 1023     		movs	r3, #16
 5954              	.LBE1356:
 5955              	.LBE1354:
 5956              	.LBB1357:
 5957              	.LBB1358:
 124:../../libDaisy//src/dev/oled_ssd130x.h ****         spi_.BlockingTransmit(&cmd, 1);
 5958              		.loc 4 124 23 view .LVU1566
 5959 0094 3946     		mov	r1, r7
 5960 0096 2846     		mov	r0, r5
 5961 0098 8DF80F30 		strb	r3, [sp, #15]
 5962              	.LVL428:
ARM GAS  /var/folders/1y/_321xjh9623c014x9_qw12rr0000gn/T//ccE17DNe.s 			page 181


 124:../../libDaisy//src/dev/oled_ssd130x.h ****         spi_.BlockingTransmit(&cmd, 1);
 5963              		.loc 4 124 23 view .LVU1567
 5964              	.LBE1358:
 5965              	.LBI1357:
 122:../../libDaisy//src/dev/oled_ssd130x.h ****     {
 5966              		.loc 4 122 10 is_stmt 1 view .LVU1568
 5967              	.LBB1359:
 124:../../libDaisy//src/dev/oled_ssd130x.h ****         spi_.BlockingTransmit(&cmd, 1);
 5968              		.loc 4 124 9 view .LVU1569
 124:../../libDaisy//src/dev/oled_ssd130x.h ****         spi_.BlockingTransmit(&cmd, 1);
 5969              		.loc 4 124 23 is_stmt 0 view .LVU1570
 5970 009c FFF7FEFF 		bl	dsy_gpio_write
 5971              	.LVL429:
 125:../../libDaisy//src/dev/oled_ssd130x.h ****     };
 5972              		.loc 4 125 9 is_stmt 1 view .LVU1571
 125:../../libDaisy//src/dev/oled_ssd130x.h ****     };
 5973              		.loc 4 125 30 is_stmt 0 view .LVU1572
 5974 00a0 6423     		movs	r3, #100
 5975 00a2 0122     		movs	r2, #1
 5976 00a4 0DF10F01 		add	r1, sp, #15
 5977 00a8 3046     		mov	r0, r6
 5978 00aa FFF7FEFF 		bl	_ZN5daisy9SpiHandle16BlockingTransmitEPhjm
 5979              	.LVL430:
 125:../../libDaisy//src/dev/oled_ssd130x.h ****     };
 5980              		.loc 4 125 30 view .LVU1573
 5981              	.LBE1359:
 5982              	.LBE1357:
 5983              	.LBB1360:
 5984              	.LBI1360:
 128:../../libDaisy//src/dev/oled_ssd130x.h ****     {
 5985              		.loc 4 128 10 is_stmt 1 view .LVU1574
 5986              	.LBB1361:
 130:../../libDaisy//src/dev/oled_ssd130x.h ****         spi_.BlockingTransmit(buff, size);
 5987              		.loc 4 130 9 view .LVU1575
 130:../../libDaisy//src/dev/oled_ssd130x.h ****         spi_.BlockingTransmit(buff, size);
 5988              		.loc 4 130 23 is_stmt 0 view .LVU1576
 5989 00ae 0121     		movs	r1, #1
 5990 00b0 2846     		mov	r0, r5
 5991 00b2 FFF7FEFF 		bl	dsy_gpio_write
 5992              	.LVL431:
 131:../../libDaisy//src/dev/oled_ssd130x.h ****     };
 5993              		.loc 4 131 9 is_stmt 1 view .LVU1577
 131:../../libDaisy//src/dev/oled_ssd130x.h ****     };
 5994              		.loc 4 131 30 is_stmt 0 view .LVU1578
 5995 00b6 8022     		movs	r2, #128
 5996 00b8 4146     		mov	r1, r8
 5997 00ba 6423     		movs	r3, #100
 5998 00bc 3046     		mov	r0, r6
 5999              	.LBE1361:
 6000              	.LBE1360:
 6001              		.loc 4 383 22 view .LVU1579
 6002 00be 9044     		add	r8, r8, r2
 6003              	.LVL432:
 6004              	.LBB1363:
 6005              	.LBB1362:
 131:../../libDaisy//src/dev/oled_ssd130x.h ****     };
 6006              		.loc 4 131 30 view .LVU1580
ARM GAS  /var/folders/1y/_321xjh9623c014x9_qw12rr0000gn/T//ccE17DNe.s 			page 182


 6007 00c0 FFF7FEFF 		bl	_ZN5daisy9SpiHandle16BlockingTransmitEPhjm
 6008              	.LVL433:
 131:../../libDaisy//src/dev/oled_ssd130x.h ****     };
 6009              		.loc 4 131 30 view .LVU1581
 6010              	.LBE1362:
 6011              	.LBE1363:
 6012              		.loc 4 383 9 is_stmt 1 view .LVU1582
 6013              		.loc 4 383 22 view .LVU1583
 6014 00c4 B82C     		cmp	r4, #184
 6015 00c6 C7D1     		bne	.L372
 6016              	.LBE1366:
 6017              	.LBE1369:
 6018              	.LBE1377:
 242:Dubby.cpp     **** }
 6019              		.loc 2 242 1 is_stmt 0 view .LVU1584
 6020 00c8 04B0     		add	sp, sp, #16
 6021              		.cfi_def_cfa_offset 24
 6022              		@ sp needed
 6023 00ca BDE8F081 		pop	{r4, r5, r6, r7, r8, pc}
 6024              	.LVL434:
 6025              	.L376:
 242:Dubby.cpp     **** }
 6026              		.loc 2 242 1 view .LVU1585
 6027 00ce 00BF     		.align	2
 6028              	.L375:
 6029 00d0 00000000 		.word	Font_6x8
 6030              		.cfi_endproc
 6031              	.LFE3739:
 6033              		.section	.text._ZN5daisy5Dubby22DisplayPreferencesMenuEv,"ax",%progbits
 6034              		.align	1
 6035              		.p2align 2,,3
 6036              		.global	_ZN5daisy5Dubby22DisplayPreferencesMenuEv
 6037              		.syntax unified
 6038              		.thumb
 6039              		.thumb_func
 6041              	_ZN5daisy5Dubby22DisplayPreferencesMenuEv:
 6042              	.LVL435:
 6043              	.LFB3744:
 310:Dubby.cpp     **** {
 6044              		.loc 2 310 1 is_stmt 1 view -0
 6045              		.cfi_startproc
 6046              		@ args = 0, pretend = 0, frame = 48
 6047              		@ frame_needed = 0, uses_anonymous_args = 0
 311:Dubby.cpp     ****     display.DrawRect(PANE_X_START, PANE_Y_START, PANE_X_END, PANE_Y_END, false, true);
 6048              		.loc 2 311 5 view .LVU1587
 311:Dubby.cpp     ****     display.DrawRect(PANE_X_START, PANE_Y_START, PANE_X_END, PANE_Y_END, false, true);
 6049              		.loc 2 311 21 is_stmt 0 view .LVU1588
 6050 0000 00F59563 		add	r3, r0, #1192
 310:Dubby.cpp     **** {
 6051              		.loc 2 310 1 view .LVU1589
 6052 0004 2DE9F04F 		push	{r4, r5, r6, r7, r8, r9, r10, fp, lr}
 6053              		.cfi_def_cfa_offset 36
 6054              		.cfi_offset 4, -36
 6055              		.cfi_offset 5, -32
 6056              		.cfi_offset 6, -28
 6057              		.cfi_offset 7, -24
 6058              		.cfi_offset 8, -20
ARM GAS  /var/folders/1y/_321xjh9623c014x9_qw12rr0000gn/T//ccE17DNe.s 			page 183


 6059              		.cfi_offset 9, -16
 6060              		.cfi_offset 10, -12
 6061              		.cfi_offset 11, -8
 6062              		.cfi_offset 14, -4
 6063              	.LBB1487:
 6064              	.LBB1488:
 6065              	.LBB1489:
 266:../../libDaisy//src/hid/disp/display.h ****             {
 6066              		.loc 3 266 30 view .LVU1590
 6067 0008 0124     		movs	r4, #1
 6068              	.LBE1489:
 6069              	.LBE1488:
 6070              	.LBE1487:
 310:Dubby.cpp     **** {
 6071              		.loc 2 310 1 view .LVU1591
 6072 000a 0546     		mov	r5, r0
 6073 000c 2DED028B 		vpush.64	{d8}
 6074              		.cfi_def_cfa_offset 44
 6075              		.cfi_offset 80, -44
 6076              		.cfi_offset 81, -40
 311:Dubby.cpp     ****     display.DrawRect(PANE_X_START, PANE_Y_START, PANE_X_END, PANE_Y_END, false, true);
 6077              		.loc 2 311 21 view .LVU1592
 6078 0010 08EE103A 		vmov	s16, r3	@ int
 6079              	.LVL436:
 6080              	.LBB1507:
 6081              	.LBI1487:
 257:../../libDaisy//src/hid/disp/display.h ****                   uint_fast8_t y1,
 6082              		.loc 3 257 10 is_stmt 1 view .LVU1593
 6083              	.LBB1505:
 6084              	.LBI1488:
 257:../../libDaisy//src/hid/disp/display.h ****                   uint_fast8_t y1,
 6085              		.loc 3 257 10 view .LVU1594
 6086              	.LBB1503:
 266:../../libDaisy//src/hid/disp/display.h ****             {
 6087              		.loc 3 266 40 view .LVU1595
 6088              	.LBE1503:
 6089              	.LBE1505:
 6090              	.LBE1507:
 310:Dubby.cpp     **** {
 6091              		.loc 2 310 1 is_stmt 0 view .LVU1596
 6092 0014 8FB0     		sub	sp, sp, #60
 6093              		.cfi_def_cfa_offset 104
 6094              	.LVL437:
 6095              	.L379:
 6096              	.LBB1508:
 6097              	.LBB1506:
 6098              	.LBB1504:
 6099              	.LBB1490:
 268:../../libDaisy//src/hid/disp/display.h ****                 {
 6100              		.loc 3 268 44 is_stmt 1 view .LVU1597
 268:../../libDaisy//src/hid/disp/display.h ****                 {
 6101              		.loc 3 268 34 is_stmt 0 view .LVU1598
 6102 0016 0122     		movs	r2, #1
 6103              	.LVL438:
 6104              	.L378:
 6105              	.LBB1491:
 6106              	.LBI1491:
ARM GAS  /var/folders/1y/_321xjh9623c014x9_qw12rr0000gn/T//ccE17DNe.s 			page 184


  42:../../libDaisy//src/hid/disp/oled_display.h ****     {
 6107              		.loc 1 42 10 is_stmt 1 view .LVU1599
 6108              	.LBB1492:
 6109              	.LBI1492:
 352:../../libDaisy//src/dev/oled_ssd130x.h ****     {
 6110              		.loc 4 352 10 view .LVU1600
 6111              	.LBB1493:
 6112              	.LBI1493:
 352:../../libDaisy//src/dev/oled_ssd130x.h ****     {
 6113              		.loc 4 352 10 view .LVU1601
 6114              	.LBB1494:
 359:../../libDaisy//src/dev/oled_ssd130x.h ****     }
 6115              		.loc 4 359 28 is_stmt 0 view .LVU1602
 6116 0018 D308     		lsrs	r3, r2, #3
 359:../../libDaisy//src/dev/oled_ssd130x.h ****     }
 6117              		.loc 4 359 49 view .LVU1603
 6118 001a 0121     		movs	r1, #1
 359:../../libDaisy//src/dev/oled_ssd130x.h ****     }
 6119              		.loc 4 359 55 view .LVU1604
 6120 001c 02F00700 		and	r0, r2, #7
 359:../../libDaisy//src/dev/oled_ssd130x.h ****     }
 6121              		.loc 4 359 42 view .LVU1605
 6122 0020 04EBC313 		add	r3, r4, r3, lsl #7
 6123              	.LBE1494:
 6124              	.LBE1493:
 6125              	.LBE1492:
 6126              	.LBE1491:
 268:../../libDaisy//src/hid/disp/display.h ****                 {
 6127              		.loc 3 268 17 view .LVU1606
 6128 0024 0A44     		add	r2, r2, r1
 6129              	.LVL439:
 6130              	.LBB1501:
 6131              	.LBB1499:
 6132              	.LBB1497:
 6133              	.LBB1495:
 359:../../libDaisy//src/dev/oled_ssd130x.h ****     }
 6134              		.loc 4 359 49 view .LVU1607
 6135 0026 01FA00F0 		lsl	r0, r1, r0
 359:../../libDaisy//src/dev/oled_ssd130x.h ****     }
 6136              		.loc 4 359 42 view .LVU1608
 6137 002a 2B44     		add	r3, r3, r5
 6138              	.LBE1495:
 6139              	.LBE1497:
 6140              	.LBE1499:
 6141              	.LBE1501:
 268:../../libDaisy//src/hid/disp/display.h ****                 {
 6142              		.loc 3 268 44 view .LVU1609
 6143 002c 342A     		cmp	r2, #52
 6144              	.LBB1502:
 6145              	.LBB1500:
 6146              	.LBB1498:
 6147              	.LBB1496:
 359:../../libDaisy//src/dev/oled_ssd130x.h ****     }
 6148              		.loc 4 359 42 view .LVU1610
 6149 002e 93F8BC14 		ldrb	r1, [r3, #1212]	@ zero_extendqisi2
 6150 0032 21EA0001 		bic	r1, r1, r0
 6151 0036 83F8BC14 		strb	r1, [r3, #1212]
ARM GAS  /var/folders/1y/_321xjh9623c014x9_qw12rr0000gn/T//ccE17DNe.s 			page 185


 6152              	.LVL440:
 359:../../libDaisy//src/dev/oled_ssd130x.h ****     }
 6153              		.loc 4 359 42 view .LVU1611
 6154              	.LBE1496:
 6155              	.LBE1498:
 6156              	.LBE1500:
 6157              	.LBE1502:
 268:../../libDaisy//src/hid/disp/display.h ****                 {
 6158              		.loc 3 268 17 is_stmt 1 view .LVU1612
 268:../../libDaisy//src/hid/disp/display.h ****                 {
 6159              		.loc 3 268 44 view .LVU1613
 6160 003a EDD1     		bne	.L378
 6161              	.LBE1490:
 266:../../libDaisy//src/hid/disp/display.h ****             {
 6162              		.loc 3 266 13 view .LVU1614
 6163 003c 0134     		adds	r4, r4, #1
 6164              	.LVL441:
 266:../../libDaisy//src/hid/disp/display.h ****             {
 6165              		.loc 3 266 40 view .LVU1615
 6166 003e 7F2C     		cmp	r4, #127
 6167 0040 E9D1     		bne	.L379
 6168 0042 05F10C03 		add	r3, r5, #12
 6169              	.LBE1504:
 6170              	.LBE1506:
 6171              	.LBE1508:
 6172              	.LBB1509:
 313:Dubby.cpp     ****     for (int i = 0; i < PREFERENCESMENU_LAST; i++)
 6173              		.loc 2 313 14 is_stmt 0 view .LVU1616
 6174 0046 0322     		movs	r2, #3
 6175              	.LVL442:
 313:Dubby.cpp     ****     for (int i = 0; i < PREFERENCESMENU_LAST; i++)
 6176              		.loc 2 313 14 view .LVU1617
 6177 0048 CDE90553 		strd	r5, r3, [sp, #20]
 6178 004c 0023     		movs	r3, #0
 6179 004e CDE90232 		strd	r3, r2, [sp, #8]
 6180              	.LVL443:
 6181              	.L414:
 315:Dubby.cpp     ****         display.SetCursor(5, 3 + (i * 10));
 6182              		.loc 2 315 9 is_stmt 1 view .LVU1618
 6183              	.LBB1510:
 6184              	.LBI1510:
 171:../../libDaisy//src/hid/disp/display.h ****     {
 6185              		.loc 3 171 10 view .LVU1619
 6186              	.LBB1511:
 173:../../libDaisy//src/hid/disp/display.h ****         currentY_ = (y >= Height()) ? Height() - 1 : y;
 6187              		.loc 3 173 9 view .LVU1620
 174:../../libDaisy//src/hid/disp/display.h ****     }
 6188              		.loc 3 174 19 is_stmt 0 view .LVU1621
 6189 0052 0398     		ldr	r0, [sp, #12]
 173:../../libDaisy//src/hid/disp/display.h ****         currentY_ = (y >= Height()) ? Height() - 1 : y;
 6190              		.loc 3 173 19 view .LVU1622
 6191 0054 0521     		movs	r1, #5
 6192              	.LBE1511:
 6193              	.LBE1510:
 316:Dubby.cpp     ****         display.WriteString(GetTextForEnum(PREFERENCESMENU, i), Font_6x8, true);
 6194              		.loc 2 316 28 view .LVU1623
 6195 0056 0124     		movs	r4, #1
ARM GAS  /var/folders/1y/_321xjh9623c014x9_qw12rr0000gn/T//ccE17DNe.s 			page 186


 6196 0058 324B     		ldr	r3, .L465
 6197              	.LBB1514:
 6198              	.LBB1512:
 174:../../libDaisy//src/hid/disp/display.h ****     }
 6199              		.loc 3 174 19 view .LVU1624
 6200 005a A5F8AE04 		strh	r0, [r5, #1198]	@ movhi
 6201              	.LBE1512:
 6202              	.LBE1514:
 316:Dubby.cpp     ****         display.WriteString(GetTextForEnum(PREFERENCESMENU, i), Font_6x8, true);
 6203              		.loc 2 316 28 view .LVU1625
 6204 005e 0698     		ldr	r0, [sp, #24]
 6205              	.LBB1515:
 6206              	.LBB1513:
 173:../../libDaisy//src/hid/disp/display.h ****         currentY_ = (y >= Height()) ? Height() - 1 : y;
 6207              		.loc 3 173 19 view .LVU1626
 6208 0060 A5F8AC14 		strh	r1, [r5, #1196]	@ movhi
 174:../../libDaisy//src/hid/disp/display.h ****     }
 6209              		.loc 3 174 9 is_stmt 1 view .LVU1627
 6210              	.LVL444:
 174:../../libDaisy//src/hid/disp/display.h ****     }
 6211              		.loc 3 174 9 is_stmt 0 view .LVU1628
 6212              	.LBE1513:
 6213              	.LBE1515:
 316:Dubby.cpp     ****         display.WriteString(GetTextForEnum(PREFERENCESMENU, i), Font_6x8, true);
 6214              		.loc 2 316 9 is_stmt 1 view .LVU1629
 6215              	.LBB1516:
 6216              	.LBI1516:
 458:Dubby.cpp     **** const char * Dubby::GetTextForEnum(MenuTypes m, int enumVal)
 6217              		.loc 2 458 14 view .LVU1630
 6218              	.LBB1517:
 460:Dubby.cpp     ****     switch (m)
 6219              		.loc 2 460 5 view .LVU1631
 464:Dubby.cpp     ****             break;
 6220              		.loc 2 464 13 view .LVU1632
 465:Dubby.cpp     ****         case PREFERENCESMENU:
 6221              		.loc 2 465 9 view .LVU1633
 466:Dubby.cpp     ****             return PreferencesMenuItemsStrings[enumVal];
 6222              		.loc 2 466 13 view .LVU1634
 466:Dubby.cpp     ****             return PreferencesMenuItemsStrings[enumVal];
 6223              		.loc 2 466 13 is_stmt 0 view .LVU1635
 6224              	.LBE1517:
 6225              	.LBE1516:
 316:Dubby.cpp     ****         display.WriteString(GetTextForEnum(PREFERENCESMENU, i), Font_6x8, true);
 6226              		.loc 2 316 28 view .LVU1636
 6227 0064 50F8041B 		ldr	r1, [r0], #4
 6228 0068 0CCB     		ldm	r3, {r2, r3}
 6229 006a 0690     		str	r0, [sp, #24]
 6230 006c 18EE100A 		vmov	r0, s16	@ int
 6231 0070 0094     		str	r4, [sp]
 6232 0072 FFF7FEFF 		bl	_ZN5daisy25OneBitGraphicsDisplayImplINS_11OledDisplayINS_13SSD130xDriverILj128ELj64ENS_24SSD130
 6233              	.LVL445:
 318:Dubby.cpp     ****         if (preferencesMenuItemSelected == i)
 6234              		.loc 2 318 9 is_stmt 1 view .LVU1637
 318:Dubby.cpp     ****         if (preferencesMenuItemSelected == i)
 6235              		.loc 2 318 13 is_stmt 0 view .LVU1638
 6236 0076 95F85D30 		ldrb	r3, [r5, #93]	@ zero_extendqisi2
 318:Dubby.cpp     ****         if (preferencesMenuItemSelected == i)
ARM GAS  /var/folders/1y/_321xjh9623c014x9_qw12rr0000gn/T//ccE17DNe.s 			page 187


 6237              		.loc 2 318 9 view .LVU1639
 6238 007a 029A     		ldr	r2, [sp, #8]
 6239 007c 9342     		cmp	r3, r2
 6240 007e 53D0     		beq	.L462
 6241              	.L380:
 313:Dubby.cpp     ****     for (int i = 0; i < PREFERENCESMENU_LAST; i++)
 6242              		.loc 2 313 5 is_stmt 1 view .LVU1640
 313:Dubby.cpp     ****     for (int i = 0; i < PREFERENCESMENU_LAST; i++)
 6243              		.loc 2 313 23 is_stmt 0 view .LVU1641
 6244 0080 039B     		ldr	r3, [sp, #12]
 313:Dubby.cpp     ****     for (int i = 0; i < PREFERENCESMENU_LAST; i++)
 6245              		.loc 2 313 5 view .LVU1642
 6246 0082 029A     		ldr	r2, [sp, #8]
 313:Dubby.cpp     ****     for (int i = 0; i < PREFERENCESMENU_LAST; i++)
 6247              		.loc 2 313 23 view .LVU1643
 6248 0084 0599     		ldr	r1, [sp, #20]
 6249 0086 0A33     		adds	r3, r3, #10
 313:Dubby.cpp     ****     for (int i = 0; i < PREFERENCESMENU_LAST; i++)
 6250              		.loc 2 313 5 view .LVU1644
 6251 0088 0132     		adds	r2, r2, #1
 313:Dubby.cpp     ****     for (int i = 0; i < PREFERENCESMENU_LAST; i++)
 6252              		.loc 2 313 23 view .LVU1645
 6253 008a 1031     		adds	r1, r1, #16
 6254 008c 9BB2     		uxth	r3, r3
 6255 008e 042A     		cmp	r2, #4
 313:Dubby.cpp     ****     for (int i = 0; i < PREFERENCESMENU_LAST; i++)
 6256              		.loc 2 313 5 view .LVU1646
 6257 0090 0292     		str	r2, [sp, #8]
 6258              	.LVL446:
 313:Dubby.cpp     ****     for (int i = 0; i < PREFERENCESMENU_LAST; i++)
 6259              		.loc 2 313 23 is_stmt 1 view .LVU1647
 6260 0092 0591     		str	r1, [sp, #20]
 6261 0094 0393     		str	r3, [sp, #12]
 6262 0096 DCD1     		bne	.L414
 6263              	.LBE1509:
 6264              	.LBB1607:
 6265              	.LBB1608:
 6266              	.LBB1609:
 6267              	.LBB1610:
 6268              	.LBB1611:
 124:../../libDaisy//src/dev/oled_ssd130x.h ****         spi_.BlockingTransmit(&cmd, 1);
 6269              		.loc 4 124 24 is_stmt 0 view .LVU1648
 6270 0098 05F59667 		add	r7, r5, #1200
 6271 009c 05F59766 		add	r6, r5, #1208
 6272 00a0 05F2BC44 		addw	r4, r5, #1212
 125:../../libDaisy//src/dev/oled_ssd130x.h ****     };
 6273              		.loc 4 125 30 view .LVU1649
 6274 00a4 B025     		movs	r5, #176
 6275              	.LVL447:
 6276              	.L415:
 125:../../libDaisy//src/dev/oled_ssd130x.h ****     };
 6277              		.loc 4 125 30 view .LVU1650
 6278 00a6 4FF00008 		mov	r8, #0
 124:../../libDaisy//src/dev/oled_ssd130x.h ****         spi_.BlockingTransmit(&cmd, 1);
 6279              		.loc 4 124 23 view .LVU1651
 6280 00aa 3046     		mov	r0, r6
 6281 00ac 8DF83750 		strb	r5, [sp, #55]
ARM GAS  /var/folders/1y/_321xjh9623c014x9_qw12rr0000gn/T//ccE17DNe.s 			page 188


 6282              	.LVL448:
 124:../../libDaisy//src/dev/oled_ssd130x.h ****         spi_.BlockingTransmit(&cmd, 1);
 6283              		.loc 4 124 23 view .LVU1652
 6284              	.LBE1611:
 6285              	.LBI1610:
 122:../../libDaisy//src/dev/oled_ssd130x.h ****     {
 6286              		.loc 4 122 10 is_stmt 1 view .LVU1653
 6287              	.LBB1612:
 124:../../libDaisy//src/dev/oled_ssd130x.h ****         spi_.BlockingTransmit(&cmd, 1);
 6288              		.loc 4 124 9 view .LVU1654
 6289              	.LBE1612:
 6290              	.LBE1610:
 6291              		.loc 4 383 22 is_stmt 0 view .LVU1655
 6292 00b0 0135     		adds	r5, r5, #1
 6293              	.LVL449:
 6294              	.LBB1615:
 6295              	.LBB1613:
 124:../../libDaisy//src/dev/oled_ssd130x.h ****         spi_.BlockingTransmit(&cmd, 1);
 6296              		.loc 4 124 23 view .LVU1656
 6297 00b2 4146     		mov	r1, r8
 6298 00b4 FFF7FEFF 		bl	dsy_gpio_write
 6299              	.LVL450:
 125:../../libDaisy//src/dev/oled_ssd130x.h ****     };
 6300              		.loc 4 125 9 is_stmt 1 view .LVU1657
 125:../../libDaisy//src/dev/oled_ssd130x.h ****     };
 6301              		.loc 4 125 30 is_stmt 0 view .LVU1658
 6302 00b8 6423     		movs	r3, #100
 6303 00ba 0122     		movs	r2, #1
 6304 00bc 0DF13701 		add	r1, sp, #55
 6305 00c0 3846     		mov	r0, r7
 6306              	.LBE1613:
 6307              	.LBE1615:
 6308              		.loc 4 383 22 view .LVU1659
 6309 00c2 EDB2     		uxtb	r5, r5
 6310              	.LBB1616:
 6311              	.LBB1614:
 125:../../libDaisy//src/dev/oled_ssd130x.h ****     };
 6312              		.loc 4 125 30 view .LVU1660
 6313 00c4 FFF7FEFF 		bl	_ZN5daisy9SpiHandle16BlockingTransmitEPhjm
 6314              	.LVL451:
 125:../../libDaisy//src/dev/oled_ssd130x.h ****     };
 6315              		.loc 4 125 30 view .LVU1661
 6316              	.LBE1614:
 6317              	.LBE1616:
 6318              	.LBB1617:
 6319              	.LBB1618:
 124:../../libDaisy//src/dev/oled_ssd130x.h ****         spi_.BlockingTransmit(&cmd, 1);
 6320              		.loc 4 124 23 view .LVU1662
 6321 00c8 4146     		mov	r1, r8
 6322 00ca 3046     		mov	r0, r6
 6323 00cc 8DF83780 		strb	r8, [sp, #55]
 6324              	.LVL452:
 124:../../libDaisy//src/dev/oled_ssd130x.h ****         spi_.BlockingTransmit(&cmd, 1);
 6325              		.loc 4 124 23 view .LVU1663
 6326              	.LBE1618:
 6327              	.LBI1617:
 122:../../libDaisy//src/dev/oled_ssd130x.h ****     {
ARM GAS  /var/folders/1y/_321xjh9623c014x9_qw12rr0000gn/T//ccE17DNe.s 			page 189


 6328              		.loc 4 122 10 is_stmt 1 view .LVU1664
 6329              	.LBB1619:
 124:../../libDaisy//src/dev/oled_ssd130x.h ****         spi_.BlockingTransmit(&cmd, 1);
 6330              		.loc 4 124 9 view .LVU1665
 124:../../libDaisy//src/dev/oled_ssd130x.h ****         spi_.BlockingTransmit(&cmd, 1);
 6331              		.loc 4 124 23 is_stmt 0 view .LVU1666
 6332 00d0 FFF7FEFF 		bl	dsy_gpio_write
 6333              	.LVL453:
 125:../../libDaisy//src/dev/oled_ssd130x.h ****     };
 6334              		.loc 4 125 9 is_stmt 1 view .LVU1667
 125:../../libDaisy//src/dev/oled_ssd130x.h ****     };
 6335              		.loc 4 125 30 is_stmt 0 view .LVU1668
 6336 00d4 0122     		movs	r2, #1
 6337 00d6 6423     		movs	r3, #100
 6338 00d8 0DF13701 		add	r1, sp, #55
 6339 00dc 3846     		mov	r0, r7
 6340 00de FFF7FEFF 		bl	_ZN5daisy9SpiHandle16BlockingTransmitEPhjm
 6341              	.LVL454:
 125:../../libDaisy//src/dev/oled_ssd130x.h ****     };
 6342              		.loc 4 125 30 view .LVU1669
 6343 00e2 1023     		movs	r3, #16
 6344              	.LBE1619:
 6345              	.LBE1617:
 6346              	.LBB1620:
 6347              	.LBB1621:
 124:../../libDaisy//src/dev/oled_ssd130x.h ****         spi_.BlockingTransmit(&cmd, 1);
 6348              		.loc 4 124 23 view .LVU1670
 6349 00e4 4146     		mov	r1, r8
 6350 00e6 3046     		mov	r0, r6
 6351 00e8 8DF83730 		strb	r3, [sp, #55]
 6352              	.LVL455:
 124:../../libDaisy//src/dev/oled_ssd130x.h ****         spi_.BlockingTransmit(&cmd, 1);
 6353              		.loc 4 124 23 view .LVU1671
 6354              	.LBE1621:
 6355              	.LBI1620:
 122:../../libDaisy//src/dev/oled_ssd130x.h ****     {
 6356              		.loc 4 122 10 is_stmt 1 view .LVU1672
 6357              	.LBB1622:
 124:../../libDaisy//src/dev/oled_ssd130x.h ****         spi_.BlockingTransmit(&cmd, 1);
 6358              		.loc 4 124 9 view .LVU1673
 124:../../libDaisy//src/dev/oled_ssd130x.h ****         spi_.BlockingTransmit(&cmd, 1);
 6359              		.loc 4 124 23 is_stmt 0 view .LVU1674
 6360 00ec FFF7FEFF 		bl	dsy_gpio_write
 6361              	.LVL456:
 125:../../libDaisy//src/dev/oled_ssd130x.h ****     };
 6362              		.loc 4 125 9 is_stmt 1 view .LVU1675
 125:../../libDaisy//src/dev/oled_ssd130x.h ****     };
 6363              		.loc 4 125 30 is_stmt 0 view .LVU1676
 6364 00f0 6423     		movs	r3, #100
 6365 00f2 0122     		movs	r2, #1
 6366 00f4 0DF13701 		add	r1, sp, #55
 6367 00f8 3846     		mov	r0, r7
 6368 00fa FFF7FEFF 		bl	_ZN5daisy9SpiHandle16BlockingTransmitEPhjm
 6369              	.LVL457:
 125:../../libDaisy//src/dev/oled_ssd130x.h ****     };
 6370              		.loc 4 125 30 view .LVU1677
 6371              	.LBE1622:
ARM GAS  /var/folders/1y/_321xjh9623c014x9_qw12rr0000gn/T//ccE17DNe.s 			page 190


 6372              	.LBE1620:
 6373              	.LBB1623:
 6374              	.LBI1623:
 128:../../libDaisy//src/dev/oled_ssd130x.h ****     {
 6375              		.loc 4 128 10 is_stmt 1 view .LVU1678
 6376              	.LBB1624:
 130:../../libDaisy//src/dev/oled_ssd130x.h ****         spi_.BlockingTransmit(buff, size);
 6377              		.loc 4 130 9 view .LVU1679
 130:../../libDaisy//src/dev/oled_ssd130x.h ****         spi_.BlockingTransmit(buff, size);
 6378              		.loc 4 130 23 is_stmt 0 view .LVU1680
 6379 00fe 0121     		movs	r1, #1
 6380 0100 3046     		mov	r0, r6
 6381 0102 FFF7FEFF 		bl	dsy_gpio_write
 6382              	.LVL458:
 131:../../libDaisy//src/dev/oled_ssd130x.h ****     };
 6383              		.loc 4 131 9 is_stmt 1 view .LVU1681
 131:../../libDaisy//src/dev/oled_ssd130x.h ****     };
 6384              		.loc 4 131 30 is_stmt 0 view .LVU1682
 6385 0106 8022     		movs	r2, #128
 6386 0108 2146     		mov	r1, r4
 6387 010a 6423     		movs	r3, #100
 6388 010c 3846     		mov	r0, r7
 6389              	.LBE1624:
 6390              	.LBE1623:
 6391              		.loc 4 383 22 view .LVU1683
 6392 010e 1444     		add	r4, r4, r2
 6393              	.LVL459:
 6394              	.LBB1626:
 6395              	.LBB1625:
 131:../../libDaisy//src/dev/oled_ssd130x.h ****     };
 6396              		.loc 4 131 30 view .LVU1684
 6397 0110 FFF7FEFF 		bl	_ZN5daisy9SpiHandle16BlockingTransmitEPhjm
 6398              	.LVL460:
 131:../../libDaisy//src/dev/oled_ssd130x.h ****     };
 6399              		.loc 4 131 30 view .LVU1685
 6400              	.LBE1625:
 6401              	.LBE1626:
 6402              		.loc 4 383 9 is_stmt 1 view .LVU1686
 6403              		.loc 4 383 22 view .LVU1687
 6404 0114 B82D     		cmp	r5, #184
 6405 0116 C6D1     		bne	.L415
 6406              	.LBE1609:
 6407              	.LBE1608:
 6408              	.LBE1607:
 323:Dubby.cpp     **** }
 6409              		.loc 2 323 1 is_stmt 0 view .LVU1688
 6410 0118 0FB0     		add	sp, sp, #60
 6411              		.cfi_remember_state
 6412              		.cfi_def_cfa_offset 44
 6413              		@ sp needed
 6414 011a BDEC028B 		vldm	sp!, {d8}
 6415              		.cfi_restore 80
 6416              		.cfi_restore 81
 6417              		.cfi_def_cfa_offset 36
 6418 011e BDE8F08F 		pop	{r4, r5, r6, r7, r8, r9, r10, fp, pc}
 6419              	.LVL461:
 6420              	.L466:
ARM GAS  /var/folders/1y/_321xjh9623c014x9_qw12rr0000gn/T//ccE17DNe.s 			page 191


 323:Dubby.cpp     **** }
 6421              		.loc 2 323 1 view .LVU1689
 6422 0122 00BF     		.align	2
 6423              	.L465:
 6424 0124 00000000 		.word	Font_6x8
 6425              	.LVL462:
 6426              	.L462:
 6427              		.cfi_restore_state
 6428              	.LBB1627:
 319:Dubby.cpp     ****             display.DrawRect(submenuBoxBounding[i][0], submenuBoxBounding[i][1], submenuBoxBounding
 6429              		.loc 2 319 13 is_stmt 1 view .LVU1690
 319:Dubby.cpp     ****             display.DrawRect(submenuBoxBounding[i][0], submenuBoxBounding[i][1], submenuBoxBounding
 6430              		.loc 2 319 105 is_stmt 0 view .LVU1691
 6431 0128 059B     		ldr	r3, [sp, #20]
 6432 012a D3F8B060 		ldr	r6, [r3, #176]
 319:Dubby.cpp     ****             display.DrawRect(submenuBoxBounding[i][0], submenuBoxBounding[i][1], submenuBoxBounding
 6433              		.loc 2 319 53 view .LVU1692
 6434 012e D3F8A870 		ldr	r7, [r3, #168]
 319:Dubby.cpp     ****             display.DrawRect(submenuBoxBounding[i][0], submenuBoxBounding[i][1], submenuBoxBounding
 6435              		.loc 2 319 131 view .LVU1693
 6436 0132 D3F8B4C0 		ldr	ip, [r3, #180]
 319:Dubby.cpp     ****             display.DrawRect(submenuBoxBounding[i][0], submenuBoxBounding[i][1], submenuBoxBounding
 6437              		.loc 2 319 29 view .LVU1694
 6438 0136 3046     		mov	r0, r6
 6439              	.LBB1518:
 6440              	.LBB1519:
 6441              	.LBB1520:
 227:../../libDaisy//src/hid/disp/display.h ****         int_fast16_t deltaY = abs((int_fast16_t)y2 - (int_fast16_t)y1);
 6442              		.loc 3 227 52 view .LVU1695
 6443 0138 A6EB0709 		sub	r9, r6, r7
 6444              	.LBE1520:
 6445              	.LBE1519:
 6446              	.LBE1518:
 319:Dubby.cpp     ****             display.DrawRect(submenuBoxBounding[i][0], submenuBoxBounding[i][1], submenuBoxBounding
 6447              		.loc 2 319 79 view .LVU1696
 6448 013c D3F8AC30 		ldr	r3, [r3, #172]
 319:Dubby.cpp     ****             display.DrawRect(submenuBoxBounding[i][0], submenuBoxBounding[i][1], submenuBoxBounding
 6449              		.loc 2 319 29 view .LVU1697
 6450 0140 6246     		mov	r2, ip
 6451              	.LBB1601:
 6452              	.LBB1538:
 6453              	.LBB1533:
 227:../../libDaisy//src/hid/disp/display.h ****         int_fast16_t deltaY = abs((int_fast16_t)y2 - (int_fast16_t)y1);
 6454              		.loc 3 227 22 view .LVU1698
 6455 0142 B9F1000F 		cmp	r9, #0
 6456              	.LBE1533:
 6457              	.LBE1538:
 6458              	.LBE1601:
 319:Dubby.cpp     ****             display.DrawRect(submenuBoxBounding[i][0], submenuBoxBounding[i][1], submenuBoxBounding
 6459              		.loc 2 319 79 view .LVU1699
 6460 0146 0493     		str	r3, [sp, #16]
 6461              	.LVL463:
 6462              	.LBB1602:
 6463              	.LBI1518:
 257:../../libDaisy//src/hid/disp/display.h ****                   uint_fast8_t y1,
 6464              		.loc 3 257 10 is_stmt 1 view .LVU1700
 6465              	.LBB1539:
ARM GAS  /var/folders/1y/_321xjh9623c014x9_qw12rr0000gn/T//ccE17DNe.s 			page 192


 6466              	.LBI1519:
 221:../../libDaisy//src/hid/disp/display.h ****                   uint_fast8_t y1,
 6467              		.loc 3 221 10 view .LVU1701
 6468              	.LBB1534:
 227:../../libDaisy//src/hid/disp/display.h ****         int_fast16_t deltaY = abs((int_fast16_t)y2 - (int_fast16_t)y1);
 6469              		.loc 3 227 22 is_stmt 0 view .LVU1702
 6470 0148 B8BF     		it	lt
 6471 014a C9F10009 		rsblt	r9, r9, #0
 6472              	.LVL464:
 229:../../libDaisy//src/hid/disp/display.h ****         int_fast16_t signY  = ((y1 < y2) ? 1 : -1);
 6473              		.loc 3 229 42 view .LVU1703
 6474 014e B742     		cmp	r7, r6
 6475 0150 C0F03E81 		bcc	.L381
 6476              	.LVL465:
 6477              	.LBB1521:
 6478              	.LBI1521:
  42:../../libDaisy//src/hid/disp/oled_display.h ****     {
 6479              		.loc 1 42 10 is_stmt 1 view .LVU1704
 6480              	.LBB1522:
 6481              	.LBI1522:
 352:../../libDaisy//src/dev/oled_ssd130x.h ****     {
 6482              		.loc 4 352 10 view .LVU1705
 6483              	.LBB1523:
 354:../../libDaisy//src/dev/oled_ssd130x.h ****             return;
 6484              		.loc 4 354 14 is_stmt 0 view .LVU1706
 6485 0154 7F2E     		cmp	r6, #127
 6486              	.LBE1523:
 6487              	.LBE1522:
 6488              	.LBE1521:
 229:../../libDaisy//src/hid/disp/display.h ****         int_fast16_t signY  = ((y1 < y2) ? 1 : -1);
 6489              		.loc 3 229 42 view .LVU1707
 6490 0156 4FF0FF3B 		mov	fp, #-1
 6491              	.LBB1528:
 6492              	.LBB1526:
 6493              	.LBB1524:
 354:../../libDaisy//src/dev/oled_ssd130x.h ****             return;
 6494              		.loc 4 354 14 view .LVU1708
 6495 015a 94BF     		ite	ls
 6496 015c 0021     		movls	r1, #0
 6497 015e 0121     		movhi	r1, #1
 354:../../libDaisy//src/dev/oled_ssd130x.h ****             return;
 6498              		.loc 4 354 28 view .LVU1709
 6499 0160 3F2B     		cmp	r3, #63
 354:../../libDaisy//src/dev/oled_ssd130x.h ****             return;
 6500              		.loc 4 354 14 view .LVU1710
 6501 0162 0891     		str	r1, [sp, #32]
 354:../../libDaisy//src/dev/oled_ssd130x.h ****             return;
 6502              		.loc 4 354 28 view .LVU1711
 6503 0164 94BF     		ite	ls
 6504 0166 0023     		movls	r3, #0
 6505              	.LVL466:
 354:../../libDaisy//src/dev/oled_ssd130x.h ****             return;
 6506              		.loc 4 354 28 view .LVU1712
 6507 0168 0123     		movhi	r3, #1
 6508 016a 0993     		str	r3, [sp, #36]
 354:../../libDaisy//src/dev/oled_ssd130x.h ****             return;
 6509              		.loc 4 354 9 view .LVU1713
ARM GAS  /var/folders/1y/_321xjh9623c014x9_qw12rr0000gn/T//ccE17DNe.s 			page 193


 6510 016c 91B9     		cbnz	r1, .L382
 6511 016e 8BB9     		cbnz	r3, .L382
 6512              	.LVL467:
 6513              	.L417:
 357:../../libDaisy//src/dev/oled_ssd130x.h ****         else
 6514              		.loc 4 357 28 view .LVU1714
 6515 0170 0499     		ldr	r1, [sp, #16]
 357:../../libDaisy//src/dev/oled_ssd130x.h ****         else
 6516              		.loc 4 357 48 view .LVU1715
 6517 0172 0124     		movs	r4, #1
 357:../../libDaisy//src/dev/oled_ssd130x.h ****         else
 6518              		.loc 4 357 28 view .LVU1716
 6519 0174 CB08     		lsrs	r3, r1, #3
 357:../../libDaisy//src/dev/oled_ssd130x.h ****         else
 6520              		.loc 4 357 54 view .LVU1717
 6521 0176 01F00701 		and	r1, r1, #7
 357:../../libDaisy//src/dev/oled_ssd130x.h ****         else
 6522              		.loc 4 357 42 view .LVU1718
 6523 017a 06EBC313 		add	r3, r6, r3, lsl #7
 357:../../libDaisy//src/dev/oled_ssd130x.h ****         else
 6524              		.loc 4 357 48 view .LVU1719
 6525 017e 04FA01F1 		lsl	r1, r4, r1
 357:../../libDaisy//src/dev/oled_ssd130x.h ****         else
 6526              		.loc 4 357 42 view .LVU1720
 6527 0182 2B44     		add	r3, r3, r5
 6528 0184 93F8BC44 		ldrb	r4, [r3, #1212]	@ zero_extendqisi2
 6529 0188 2143     		orrs	r1, r1, r4
 6530 018a 83F8BC14 		strb	r1, [r3, #1212]
 6531              	.LVL468:
 357:../../libDaisy//src/dev/oled_ssd130x.h ****         else
 6532              		.loc 4 357 42 view .LVU1721
 6533 018e 0023     		movs	r3, #0
 6534 0190 CDE90833 		strd	r3, r3, [sp, #32]
 6535              	.L382:
 6536              	.LVL469:
 357:../../libDaisy//src/dev/oled_ssd130x.h ****         else
 6537              		.loc 4 357 42 view .LVU1722
 6538              	.LBE1524:
 6539              	.LBE1526:
 6540              	.LBE1528:
 239:../../libDaisy//src/hid/disp/display.h ****         {
 6541              		.loc 3 239 26 is_stmt 1 view .LVU1723
 6542 0194 B742     		cmp	r7, r6
 6543 0196 00F04381 		beq	.L463
 6544              	.L384:
 6545              	.LVL470:
 227:../../libDaisy//src/hid/disp/display.h ****         int_fast16_t deltaY = abs((int_fast16_t)y2 - (int_fast16_t)y1);
 6546              		.loc 3 227 22 is_stmt 0 view .LVU1724
 6547 019a C846     		mov	r8, r9
 6548              	.LBE1534:
 6549              	.LBE1539:
 6550              	.LBE1602:
 319:Dubby.cpp     ****             display.DrawRect(submenuBoxBounding[i][0], submenuBoxBounding[i][1], submenuBoxBounding
 6551              		.loc 2 319 29 view .LVU1725
 6552 019c 049C     		ldr	r4, [sp, #16]
 6553 019e BE46     		mov	lr, r7
 6554              	.L386:
ARM GAS  /var/folders/1y/_321xjh9623c014x9_qw12rr0000gn/T//ccE17DNe.s 			page 194


 6555              	.LVL471:
 6556              	.LBB1603:
 6557              	.LBB1540:
 6558              	.LBB1535:
 6559              	.LBB1529:
 6560              	.LBI1529:
  42:../../libDaisy//src/hid/disp/oled_display.h ****     {
 6561              		.loc 1 42 10 is_stmt 1 view .LVU1726
 6562              	.LBB1530:
 6563              	.LBI1530:
 352:../../libDaisy//src/dev/oled_ssd130x.h ****     {
 6564              		.loc 4 352 10 view .LVU1727
 6565              	.LBB1531:
 357:../../libDaisy//src/dev/oled_ssd130x.h ****         else
 6566              		.loc 4 357 28 is_stmt 0 view .LVU1728
 6567 01a0 E308     		lsrs	r3, r4, #3
 357:../../libDaisy//src/dev/oled_ssd130x.h ****         else
 6568              		.loc 4 357 54 view .LVU1729
 6569 01a2 04F00701 		and	r1, r4, #7
 357:../../libDaisy//src/dev/oled_ssd130x.h ****         else
 6570              		.loc 4 357 48 view .LVU1730
 6571 01a6 4FF0010A 		mov	r10, #1
 354:../../libDaisy//src/dev/oled_ssd130x.h ****             return;
 6572              		.loc 4 354 9 view .LVU1731
 6573 01aa BEF17F0F 		cmp	lr, #127
 357:../../libDaisy//src/dev/oled_ssd130x.h ****         else
 6574              		.loc 4 357 42 view .LVU1732
 6575 01ae 0EEBC313 		add	r3, lr, r3, lsl #7
 357:../../libDaisy//src/dev/oled_ssd130x.h ****         else
 6576              		.loc 4 357 48 view .LVU1733
 6577 01b2 0AFA01F1 		lsl	r1, r10, r1
 354:../../libDaisy//src/dev/oled_ssd130x.h ****             return;
 6578              		.loc 4 354 9 view .LVU1734
 6579 01b6 08D8     		bhi	.L387
 6580 01b8 3F2C     		cmp	r4, #63
 357:../../libDaisy//src/dev/oled_ssd130x.h ****         else
 6581              		.loc 4 357 42 view .LVU1735
 6582 01ba 2B44     		add	r3, r3, r5
 354:../../libDaisy//src/dev/oled_ssd130x.h ****             return;
 6583              		.loc 4 354 9 view .LVU1736
 6584 01bc 05D8     		bhi	.L387
 357:../../libDaisy//src/dev/oled_ssd130x.h ****         else
 6585              		.loc 4 357 42 view .LVU1737
 6586 01be 93F8BCA4 		ldrb	r10, [r3, #1212]	@ zero_extendqisi2
 6587 01c2 41EA0A01 		orr	r1, r1, r10
 6588 01c6 83F8BC14 		strb	r1, [r3, #1212]
 6589              	.L387:
 357:../../libDaisy//src/dev/oled_ssd130x.h ****         else
 6590              		.loc 4 357 42 view .LVU1738
 6591              	.LBE1531:
 6592              	.LBE1530:
 6593              	.LBE1529:
 243:../../libDaisy//src/hid/disp/display.h ****             {
 6594              		.loc 3 243 13 view .LVU1739
 6595 01ca 5FEA4803 		lsls	r3, r8, #1
 246:../../libDaisy//src/hid/disp/display.h ****             }
 6596              		.loc 3 246 20 view .LVU1740
ARM GAS  /var/folders/1y/_321xjh9623c014x9_qw12rr0000gn/T//ccE17DNe.s 			page 195


 6597 01ce 18BF     		it	ne
 6598 01d0 DE44     		addne	lr, lr, fp
 6599              	.LVL472:
 249:../../libDaisy//src/hid/disp/display.h ****             {
 6600              		.loc 3 249 13 view .LVU1741
 6601 01d2 9945     		cmp	r9, r3
 6602 01d4 01DD     		ble	.L389
 251:../../libDaisy//src/hid/disp/display.h ****                 y1 += signY;
 6603              		.loc 3 251 23 view .LVU1742
 6604 01d6 C844     		add	r8, r8, r9
 6605              	.LVL473:
 252:../../libDaisy//src/hid/disp/display.h ****             }
 6606              		.loc 3 252 20 view .LVU1743
 6607 01d8 013C     		subs	r4, r4, #1
 6608              	.LVL474:
 6609              	.L389:
 239:../../libDaisy//src/hid/disp/display.h ****         {
 6610              		.loc 3 239 26 is_stmt 1 view .LVU1744
 6611 01da 7645     		cmp	r6, lr
 6612 01dc E0D1     		bne	.L386
 239:../../libDaisy//src/hid/disp/display.h ****         {
 6613              		.loc 3 239 26 is_stmt 0 view .LVU1745
 6614 01de 049B     		ldr	r3, [sp, #16]
 6615 01e0 A342     		cmp	r3, r4
 6616 01e2 DDD1     		bne	.L386
 6617 01e4 0023     		movs	r3, #0
 6618 01e6 0B93     		str	r3, [sp, #44]
 6619              	.LVL475:
 6620              	.L383:
 239:../../libDaisy//src/hid/disp/display.h ****         {
 6621              		.loc 3 239 26 view .LVU1746
 6622              	.LBE1535:
 6623              	.LBE1540:
 6624              	.LBB1541:
 6625              	.LBI1541:
 221:../../libDaisy//src/hid/disp/display.h ****                   uint_fast8_t y1,
 6626              		.loc 3 221 10 is_stmt 1 view .LVU1747
 6627              	.LBB1542:
 228:../../libDaisy//src/hid/disp/display.h ****         int_fast16_t signX  = ((x1 < x2) ? 1 : -1);
 6628              		.loc 3 228 52 is_stmt 0 view .LVU1748
 6629 01e8 0499     		ldr	r1, [sp, #16]
 6630 01ea ACEB0103 		sub	r3, ip, r1
 230:../../libDaisy//src/hid/disp/display.h ****         int_fast16_t error  = deltaX - deltaY;
 6631              		.loc 3 230 42 view .LVU1749
 6632 01ee 6145     		cmp	r1, ip
 228:../../libDaisy//src/hid/disp/display.h ****         int_fast16_t signX  = ((x1 < x2) ? 1 : -1);
 6633              		.loc 3 228 22 view .LVU1750
 6634 01f0 83EAE374 		eor	r4, r3, r3, asr #31
 6635 01f4 A4EBE374 		sub	r4, r4, r3, asr #31
 6636 01f8 2346     		mov	r3, r4
 6637 01fa 0794     		str	r4, [sp, #28]
 6638              	.LVL476:
 230:../../libDaisy//src/hid/disp/display.h ****         int_fast16_t error  = deltaX - deltaY;
 6639              		.loc 3 230 42 view .LVU1751
 6640 01fc C0F0F780 		bcc	.L390
 6641              	.LVL477:
 6642              	.LBB1543:
ARM GAS  /var/folders/1y/_321xjh9623c014x9_qw12rr0000gn/T//ccE17DNe.s 			page 196


 6643              	.LBB1544:
 6644              	.LBB1545:
 354:../../libDaisy//src/dev/oled_ssd130x.h ****             return;
 6645              		.loc 4 354 28 view .LVU1752
 6646 0200 BCF13F0F 		cmp	ip, #63
 354:../../libDaisy//src/dev/oled_ssd130x.h ****             return;
 6647              		.loc 4 354 9 view .LVU1753
 6648 0204 0899     		ldr	r1, [sp, #32]
 6649              	.LBE1545:
 6650              	.LBE1544:
 6651              	.LBE1543:
 231:../../libDaisy//src/hid/disp/display.h ****         int_fast16_t error2;
 6652              		.loc 3 231 22 view .LVU1754
 6653 0206 C4F1000A 		rsb	r10, r4, #0
 6654              	.LVL478:
 6655              	.LBB1554:
 6656              	.LBI1543:
  42:../../libDaisy//src/hid/disp/oled_display.h ****     {
 6657              		.loc 1 42 10 is_stmt 1 view .LVU1755
 6658              	.LBB1550:
 6659              	.LBI1544:
 352:../../libDaisy//src/dev/oled_ssd130x.h ****     {
 6660              		.loc 4 352 10 view .LVU1756
 6661              	.LBB1546:
 354:../../libDaisy//src/dev/oled_ssd130x.h ****             return;
 6662              		.loc 4 354 28 is_stmt 0 view .LVU1757
 6663 020a 94BF     		ite	ls
 6664 020c 0023     		movls	r3, #0
 6665              	.LVL479:
 354:../../libDaisy//src/dev/oled_ssd130x.h ****             return;
 6666              		.loc 4 354 28 view .LVU1758
 6667 020e 0123     		movhi	r3, #1
 6668 0210 0A93     		str	r3, [sp, #40]
 354:../../libDaisy//src/dev/oled_ssd130x.h ****             return;
 6669              		.loc 4 354 9 view .LVU1759
 6670 0212 0029     		cmp	r1, #0
 6671 0214 40F0FA80 		bne	.L421
 6672 0218 002B     		cmp	r3, #0
 6673 021a 40F0F780 		bne	.L421
 6674              	.LBE1546:
 6675              	.LBE1550:
 6676              	.LBE1554:
 230:../../libDaisy//src/hid/disp/display.h ****         int_fast16_t error  = deltaX - deltaY;
 6677              		.loc 3 230 42 view .LVU1760
 6678 021e 4FF0FF33 		mov	r3, #-1
 6679 0222 0893     		str	r3, [sp, #32]
 6680              	.LVL480:
 6681              	.L416:
 6682              	.LBB1555:
 6683              	.LBB1551:
 6684              	.LBB1547:
 357:../../libDaisy//src/dev/oled_ssd130x.h ****         else
 6685              		.loc 4 357 28 view .LVU1761
 6686 0224 4FEADC03 		lsr	r3, ip, #3
 357:../../libDaisy//src/dev/oled_ssd130x.h ****         else
 6687              		.loc 4 357 48 view .LVU1762
 6688 0228 0124     		movs	r4, #1
ARM GAS  /var/folders/1y/_321xjh9623c014x9_qw12rr0000gn/T//ccE17DNe.s 			page 197


 6689              	.LVL481:
 357:../../libDaisy//src/dev/oled_ssd130x.h ****         else
 6690              		.loc 4 357 54 view .LVU1763
 6691 022a 0CF00701 		and	r1, ip, #7
 357:../../libDaisy//src/dev/oled_ssd130x.h ****         else
 6692              		.loc 4 357 42 view .LVU1764
 6693 022e 06EBC313 		add	r3, r6, r3, lsl #7
 357:../../libDaisy//src/dev/oled_ssd130x.h ****         else
 6694              		.loc 4 357 48 view .LVU1765
 6695 0232 04FA01F1 		lsl	r1, r4, r1
 357:../../libDaisy//src/dev/oled_ssd130x.h ****         else
 6696              		.loc 4 357 42 view .LVU1766
 6697 0236 2B44     		add	r3, r3, r5
 6698 0238 93F8BC44 		ldrb	r4, [r3, #1212]	@ zero_extendqisi2
 6699 023c 2143     		orrs	r1, r1, r4
 6700 023e 83F8BC14 		strb	r1, [r3, #1212]
 6701 0242 0023     		movs	r3, #0
 6702 0244 0A93     		str	r3, [sp, #40]
 6703              	.L391:
 6704              	.LVL482:
 357:../../libDaisy//src/dev/oled_ssd130x.h ****         else
 6705              		.loc 4 357 42 view .LVU1767
 6706              	.LBE1547:
 6707              	.LBE1551:
 6708              	.LBE1555:
 239:../../libDaisy//src/hid/disp/display.h ****         {
 6709              		.loc 3 239 26 is_stmt 1 view .LVU1768
 6710 0246 049B     		ldr	r3, [sp, #16]
 6711 0248 6345     		cmp	r3, ip
 6712 024a 00F0EC80 		beq	.L464
 6713              	.L393:
 6714              	.LVL483:
 230:../../libDaisy//src/hid/disp/display.h ****         int_fast16_t error  = deltaX - deltaY;
 6715              		.loc 3 230 42 is_stmt 0 view .LVU1769
 6716 024e D646     		mov	lr, r10
 6717              	.LBE1542:
 6718              	.LBE1541:
 6719              	.LBE1603:
 319:Dubby.cpp     ****             display.DrawRect(submenuBoxBounding[i][0], submenuBoxBounding[i][1], submenuBoxBounding
 6720              		.loc 2 319 29 view .LVU1770
 6721 0250 0499     		ldr	r1, [sp, #16]
 6722 0252 3446     		mov	r4, r6
 6723              	.L395:
 6724              	.LVL484:
 6725              	.LBB1604:
 6726              	.LBB1567:
 6727              	.LBB1564:
 6728              	.LBB1556:
 6729              	.LBI1556:
  42:../../libDaisy//src/hid/disp/oled_display.h ****     {
 6730              		.loc 1 42 10 is_stmt 1 view .LVU1771
 6731              	.LBB1557:
 6732              	.LBI1557:
 352:../../libDaisy//src/dev/oled_ssd130x.h ****     {
 6733              		.loc 4 352 10 view .LVU1772
 6734              	.LBB1558:
 357:../../libDaisy//src/dev/oled_ssd130x.h ****         else
ARM GAS  /var/folders/1y/_321xjh9623c014x9_qw12rr0000gn/T//ccE17DNe.s 			page 198


 6735              		.loc 4 357 48 is_stmt 0 view .LVU1773
 6736 0254 4FF00109 		mov	r9, #1
 357:../../libDaisy//src/dev/oled_ssd130x.h ****         else
 6737              		.loc 4 357 28 view .LVU1774
 6738 0258 CB08     		lsrs	r3, r1, #3
 357:../../libDaisy//src/dev/oled_ssd130x.h ****         else
 6739              		.loc 4 357 54 view .LVU1775
 6740 025a 01F00708 		and	r8, r1, #7
 354:../../libDaisy//src/dev/oled_ssd130x.h ****             return;
 6741              		.loc 4 354 9 view .LVU1776
 6742 025e 7F2C     		cmp	r4, #127
 357:../../libDaisy//src/dev/oled_ssd130x.h ****         else
 6743              		.loc 4 357 42 view .LVU1777
 6744 0260 04EBC313 		add	r3, r4, r3, lsl #7
 6745              	.LBE1558:
 6746              	.LBE1557:
 6747              	.LBE1556:
 242:../../libDaisy//src/hid/disp/display.h ****             if(error2 > -deltaY)
 6748              		.loc 3 242 20 view .LVU1778
 6749 0264 0EFA09FB 		lsl	fp, lr, r9
 6750              	.LVL485:
 6751              	.LBB1561:
 6752              	.LBB1560:
 6753              	.LBB1559:
 357:../../libDaisy//src/dev/oled_ssd130x.h ****         else
 6754              		.loc 4 357 48 view .LVU1779
 6755 0268 09FA08F8 		lsl	r8, r9, r8
 354:../../libDaisy//src/dev/oled_ssd130x.h ****             return;
 6756              		.loc 4 354 9 view .LVU1780
 6757 026c 08D8     		bhi	.L396
 6758 026e 3F29     		cmp	r1, #63
 357:../../libDaisy//src/dev/oled_ssd130x.h ****         else
 6759              		.loc 4 357 42 view .LVU1781
 6760 0270 2B44     		add	r3, r3, r5
 354:../../libDaisy//src/dev/oled_ssd130x.h ****             return;
 6761              		.loc 4 354 9 view .LVU1782
 6762 0272 05D8     		bhi	.L396
 357:../../libDaisy//src/dev/oled_ssd130x.h ****         else
 6763              		.loc 4 357 42 view .LVU1783
 6764 0274 93F8BC94 		ldrb	r9, [r3, #1212]	@ zero_extendqisi2
 6765 0278 48EA0908 		orr	r8, r8, r9
 6766 027c 83F8BC84 		strb	r8, [r3, #1212]
 6767              	.L396:
 357:../../libDaisy//src/dev/oled_ssd130x.h ****         else
 6768              		.loc 4 357 42 view .LVU1784
 6769              	.LBE1559:
 6770              	.LBE1560:
 6771              	.LBE1561:
 243:../../libDaisy//src/hid/disp/display.h ****             {
 6772              		.loc 3 243 13 view .LVU1785
 6773 0280 BAEB4E0F 		cmp	r10, lr, lsl #1
 6774 0284 03DA     		bge	.L397
 245:../../libDaisy//src/hid/disp/display.h ****                 x1 += signX;
 6775              		.loc 3 245 23 view .LVU1786
 6776 0286 079B     		ldr	r3, [sp, #28]
 246:../../libDaisy//src/hid/disp/display.h ****             }
 6777              		.loc 3 246 20 view .LVU1787
ARM GAS  /var/folders/1y/_321xjh9623c014x9_qw12rr0000gn/T//ccE17DNe.s 			page 199


 6778 0288 013C     		subs	r4, r4, #1
 6779              	.LVL486:
 245:../../libDaisy//src/hid/disp/display.h ****                 x1 += signX;
 6780              		.loc 3 245 23 view .LVU1788
 6781 028a AEEB030E 		sub	lr, lr, r3
 6782              	.LVL487:
 6783              	.L397:
 249:../../libDaisy//src/hid/disp/display.h ****             {
 6784              		.loc 3 249 13 view .LVU1789
 6785 028e BBF1000F 		cmp	fp, #0
 6786 0292 01D0     		beq	.L398
 252:../../libDaisy//src/hid/disp/display.h ****             }
 6787              		.loc 3 252 20 view .LVU1790
 6788 0294 089B     		ldr	r3, [sp, #32]
 6789 0296 1944     		add	r1, r1, r3
 6790              	.LVL488:
 6791              	.L398:
 239:../../libDaisy//src/hid/disp/display.h ****         {
 6792              		.loc 3 239 26 is_stmt 1 view .LVU1791
 6793 0298 A642     		cmp	r6, r4
 6794 029a DBD1     		bne	.L395
 239:../../libDaisy//src/hid/disp/display.h ****         {
 6795              		.loc 3 239 26 is_stmt 0 view .LVU1792
 6796 029c 8C45     		cmp	ip, r1
 6797 029e D9D1     		bne	.L395
 6798 02a0 4FF0000B 		mov	fp, #0
 6799              	.LVL489:
 6800              	.L392:
 239:../../libDaisy//src/hid/disp/display.h ****         {
 6801              		.loc 3 239 26 view .LVU1793
 6802              	.LBE1564:
 6803              	.LBE1567:
 6804              	.LBB1568:
 6805              	.LBI1568:
 221:../../libDaisy//src/hid/disp/display.h ****                   uint_fast8_t y1,
 6806              		.loc 3 221 10 is_stmt 1 view .LVU1794
 6807              	.LBB1569:
 227:../../libDaisy//src/hid/disp/display.h ****         int_fast16_t deltaY = abs((int_fast16_t)y2 - (int_fast16_t)y1);
 6808              		.loc 3 227 52 is_stmt 0 view .LVU1795
 6809 02a4 A7EB0608 		sub	r8, r7, r6
 229:../../libDaisy//src/hid/disp/display.h ****         int_fast16_t signY  = ((y1 < y2) ? 1 : -1);
 6810              		.loc 3 229 42 view .LVU1796
 6811 02a8 B742     		cmp	r7, r6
 6812 02aa 8CBF     		ite	hi
 6813 02ac 0126     		movhi	r6, #1
 6814 02ae 4FF0FF36 		movls	r6, #-1
 6815              	.LBB1570:
 6816              	.LBB1571:
 6817              	.LBB1572:
 354:../../libDaisy//src/dev/oled_ssd130x.h ****             return;
 6818              		.loc 4 354 9 view .LVU1797
 6819 02b2 0A9B     		ldr	r3, [sp, #40]
 6820              	.LBE1572:
 6821              	.LBE1571:
 6822              	.LBE1570:
 227:../../libDaisy//src/hid/disp/display.h ****         int_fast16_t deltaY = abs((int_fast16_t)y2 - (int_fast16_t)y1);
 6823              		.loc 3 227 22 view .LVU1798
ARM GAS  /var/folders/1y/_321xjh9623c014x9_qw12rr0000gn/T//ccE17DNe.s 			page 200


 6824 02b4 B8F1000F 		cmp	r8, #0
 6825 02b8 B8BF     		it	lt
 6826 02ba C8F10008 		rsblt	r8, r8, #0
 6827              	.LVL490:
 6828              	.LBB1575:
 6829              	.LBI1570:
  42:../../libDaisy//src/hid/disp/oled_display.h ****     {
 6830              		.loc 1 42 10 is_stmt 1 view .LVU1799
 6831              	.LBB1574:
 6832              	.LBI1571:
 352:../../libDaisy//src/dev/oled_ssd130x.h ****     {
 6833              		.loc 4 352 10 view .LVU1800
 6834              	.LBB1573:
 354:../../libDaisy//src/dev/oled_ssd130x.h ****             return;
 6835              		.loc 4 354 14 is_stmt 0 view .LVU1801
 6836 02be 7F2F     		cmp	r7, #127
 6837 02c0 94BF     		ite	ls
 6838 02c2 4FF0000A 		movls	r10, #0
 6839 02c6 4FF0010A 		movhi	r10, #1
 354:../../libDaisy//src/dev/oled_ssd130x.h ****             return;
 6840              		.loc 4 354 9 view .LVU1802
 6841 02ca 8BB9     		cbnz	r3, .L400
 6842 02cc BAF1000F 		cmp	r10, #0
 6843 02d0 0ED1     		bne	.L400
 357:../../libDaisy//src/dev/oled_ssd130x.h ****         else
 6844              		.loc 4 357 28 view .LVU1803
 6845 02d2 4FEADC03 		lsr	r3, ip, #3
 357:../../libDaisy//src/dev/oled_ssd130x.h ****         else
 6846              		.loc 4 357 48 view .LVU1804
 6847 02d6 0124     		movs	r4, #1
 357:../../libDaisy//src/dev/oled_ssd130x.h ****         else
 6848              		.loc 4 357 54 view .LVU1805
 6849 02d8 0CF00701 		and	r1, ip, #7
 357:../../libDaisy//src/dev/oled_ssd130x.h ****         else
 6850              		.loc 4 357 42 view .LVU1806
 6851 02dc 07EBC313 		add	r3, r7, r3, lsl #7
 357:../../libDaisy//src/dev/oled_ssd130x.h ****         else
 6852              		.loc 4 357 48 view .LVU1807
 6853 02e0 04FA01F1 		lsl	r1, r4, r1
 357:../../libDaisy//src/dev/oled_ssd130x.h ****         else
 6854              		.loc 4 357 42 view .LVU1808
 6855 02e4 2B44     		add	r3, r3, r5
 6856 02e6 93F8BC44 		ldrb	r4, [r3, #1212]	@ zero_extendqisi2
 6857 02ea 2143     		orrs	r1, r1, r4
 6858 02ec 83F8BC14 		strb	r1, [r3, #1212]
 6859              	.L400:
 6860              	.LVL491:
 357:../../libDaisy//src/dev/oled_ssd130x.h ****         else
 6861              		.loc 4 357 42 view .LVU1809
 6862              	.LBE1573:
 6863              	.LBE1574:
 6864              	.LBE1575:
 239:../../libDaisy//src/hid/disp/display.h ****         {
 6865              		.loc 3 239 26 is_stmt 1 view .LVU1810
 6866 02f0 0B9B     		ldr	r3, [sp, #44]
 6867 02f2 0BBB     		cbnz	r3, .L401
 227:../../libDaisy//src/hid/disp/display.h ****         int_fast16_t deltaY = abs((int_fast16_t)y2 - (int_fast16_t)y1);
ARM GAS  /var/folders/1y/_321xjh9623c014x9_qw12rr0000gn/T//ccE17DNe.s 			page 201


 6868              		.loc 3 227 22 is_stmt 0 view .LVU1811
 6869 02f4 C646     		mov	lr, r8
 6870              	.LBE1569:
 6871              	.LBE1568:
 6872              	.LBE1604:
 319:Dubby.cpp     ****             display.DrawRect(submenuBoxBounding[i][0], submenuBoxBounding[i][1], submenuBoxBounding
 6873              		.loc 2 319 29 view .LVU1812
 6874 02f6 6446     		mov	r4, ip
 6875              	.LVL492:
 6876              	.L402:
 6877              	.LBB1605:
 6878              	.LBB1580:
 6879              	.LBB1579:
 6880              	.LBB1576:
 6881              	.LBI1576:
  42:../../libDaisy//src/hid/disp/oled_display.h ****     {
 6882              		.loc 1 42 10 is_stmt 1 view .LVU1813
 6883              	.LBB1577:
 6884              	.LBI1577:
 352:../../libDaisy//src/dev/oled_ssd130x.h ****     {
 6885              		.loc 4 352 10 view .LVU1814
 6886              	.LBB1578:
 357:../../libDaisy//src/dev/oled_ssd130x.h ****         else
 6887              		.loc 4 357 28 is_stmt 0 view .LVU1815
 6888 02f8 E308     		lsrs	r3, r4, #3
 357:../../libDaisy//src/dev/oled_ssd130x.h ****         else
 6889              		.loc 4 357 54 view .LVU1816
 6890 02fa 04F00701 		and	r1, r4, #7
 357:../../libDaisy//src/dev/oled_ssd130x.h ****         else
 6891              		.loc 4 357 48 view .LVU1817
 6892 02fe 4FF00109 		mov	r9, #1
 354:../../libDaisy//src/dev/oled_ssd130x.h ****             return;
 6893              		.loc 4 354 9 view .LVU1818
 6894 0302 7F28     		cmp	r0, #127
 357:../../libDaisy//src/dev/oled_ssd130x.h ****         else
 6895              		.loc 4 357 42 view .LVU1819
 6896 0304 00EBC313 		add	r3, r0, r3, lsl #7
 357:../../libDaisy//src/dev/oled_ssd130x.h ****         else
 6897              		.loc 4 357 48 view .LVU1820
 6898 0308 09FA01F1 		lsl	r1, r9, r1
 354:../../libDaisy//src/dev/oled_ssd130x.h ****             return;
 6899              		.loc 4 354 9 view .LVU1821
 6900 030c 08D8     		bhi	.L404
 354:../../libDaisy//src/dev/oled_ssd130x.h ****             return;
 6901              		.loc 4 354 9 view .LVU1822
 6902 030e 3F2C     		cmp	r4, #63
 357:../../libDaisy//src/dev/oled_ssd130x.h ****         else
 6903              		.loc 4 357 42 view .LVU1823
 6904 0310 2B44     		add	r3, r3, r5
 354:../../libDaisy//src/dev/oled_ssd130x.h ****             return;
 6905              		.loc 4 354 9 view .LVU1824
 6906 0312 05D8     		bhi	.L404
 357:../../libDaisy//src/dev/oled_ssd130x.h ****         else
 6907              		.loc 4 357 42 view .LVU1825
 6908 0314 93F8BC94 		ldrb	r9, [r3, #1212]	@ zero_extendqisi2
 6909 0318 41EA0901 		orr	r1, r1, r9
 6910 031c 83F8BC14 		strb	r1, [r3, #1212]
ARM GAS  /var/folders/1y/_321xjh9623c014x9_qw12rr0000gn/T//ccE17DNe.s 			page 202


 6911              	.L404:
 357:../../libDaisy//src/dev/oled_ssd130x.h ****         else
 6912              		.loc 4 357 42 view .LVU1826
 6913              	.LBE1578:
 6914              	.LBE1577:
 6915              	.LBE1576:
 243:../../libDaisy//src/hid/disp/display.h ****             {
 6916              		.loc 3 243 13 view .LVU1827
 6917 0320 5FEA4E03 		lsls	r3, lr, #1
 246:../../libDaisy//src/hid/disp/display.h ****             }
 6918              		.loc 3 246 20 view .LVU1828
 6919 0324 18BF     		it	ne
 6920 0326 8019     		addne	r0, r0, r6
 6921              	.LVL493:
 249:../../libDaisy//src/hid/disp/display.h ****             {
 6922              		.loc 3 249 13 view .LVU1829
 6923 0328 9845     		cmp	r8, r3
 6924 032a 01DD     		ble	.L406
 251:../../libDaisy//src/hid/disp/display.h ****                 y1 += signY;
 6925              		.loc 3 251 23 view .LVU1830
 6926 032c C644     		add	lr, lr, r8
 6927              	.LVL494:
 252:../../libDaisy//src/hid/disp/display.h ****             }
 6928              		.loc 3 252 20 view .LVU1831
 6929 032e 013C     		subs	r4, r4, #1
 6930              	.LVL495:
 6931              	.L406:
 239:../../libDaisy//src/hid/disp/display.h ****         {
 6932              		.loc 3 239 26 is_stmt 1 view .LVU1832
 6933 0330 8742     		cmp	r7, r0
 6934 0332 E1D1     		bne	.L402
 239:../../libDaisy//src/hid/disp/display.h ****         {
 6935              		.loc 3 239 26 is_stmt 0 view .LVU1833
 6936 0334 A445     		cmp	ip, r4
 6937 0336 DFD1     		bne	.L402
 6938              	.LVL496:
 6939              	.L401:
 239:../../libDaisy//src/hid/disp/display.h ****         {
 6940              		.loc 3 239 26 view .LVU1834
 6941              	.LBE1579:
 6942              	.LBE1580:
 6943              	.LBB1581:
 6944              	.LBI1581:
 221:../../libDaisy//src/hid/disp/display.h ****                   uint_fast8_t y1,
 6945              		.loc 3 221 10 is_stmt 1 view .LVU1835
 6946              	.LBB1582:
 228:../../libDaisy//src/hid/disp/display.h ****         int_fast16_t signX  = ((x1 < x2) ? 1 : -1);
 6947              		.loc 3 228 52 is_stmt 0 view .LVU1836
 6948 0338 0499     		ldr	r1, [sp, #16]
 6949              	.LBB1583:
 6950              	.LBB1584:
 6951              	.LBB1585:
 354:../../libDaisy//src/dev/oled_ssd130x.h ****             return;
 6952              		.loc 4 354 9 view .LVU1837
 6953 033a 099B     		ldr	r3, [sp, #36]
 6954              	.LBE1585:
 6955              	.LBE1584:
ARM GAS  /var/folders/1y/_321xjh9623c014x9_qw12rr0000gn/T//ccE17DNe.s 			page 203


 6956              	.LBE1583:
 228:../../libDaisy//src/hid/disp/display.h ****         int_fast16_t signX  = ((x1 < x2) ? 1 : -1);
 6957              		.loc 3 228 52 view .LVU1838
 6958 033c A1EB0C08 		sub	r8, r1, ip
 230:../../libDaisy//src/hid/disp/display.h ****         int_fast16_t error  = deltaX - deltaY;
 6959              		.loc 3 230 42 view .LVU1839
 6960 0340 6145     		cmp	r1, ip
 6961 0342 8CBF     		ite	hi
 6962 0344 4FF0010C 		movhi	ip, #1
 6963 0348 4FF0FF3C 		movls	ip, #-1
 228:../../libDaisy//src/hid/disp/display.h ****         int_fast16_t signX  = ((x1 < x2) ? 1 : -1);
 6964              		.loc 3 228 22 view .LVU1840
 6965 034c B8F1000F 		cmp	r8, #0
 6966 0350 B8BF     		it	lt
 6967 0352 C8F10008 		rsblt	r8, r8, #0
 6968              	.LVL497:
 231:../../libDaisy//src/hid/disp/display.h ****         int_fast16_t error2;
 6969              		.loc 3 231 22 view .LVU1841
 6970 0356 C8F1000E 		rsb	lr, r8, #0
 6971              	.LVL498:
 6972              	.LBB1588:
 6973              	.LBI1583:
  42:../../libDaisy//src/hid/disp/oled_display.h ****     {
 6974              		.loc 1 42 10 is_stmt 1 view .LVU1842
 6975              	.LBB1587:
 6976              	.LBI1584:
 352:../../libDaisy//src/dev/oled_ssd130x.h ****     {
 6977              		.loc 4 352 10 view .LVU1843
 6978              	.LBB1586:
 354:../../libDaisy//src/dev/oled_ssd130x.h ****             return;
 6979              		.loc 4 354 9 is_stmt 0 view .LVU1844
 6980 035a 83B9     		cbnz	r3, .L408
 6981 035c BAF1000F 		cmp	r10, #0
 6982 0360 0DD1     		bne	.L408
 357:../../libDaisy//src/dev/oled_ssd130x.h ****         else
 6983              		.loc 4 357 28 view .LVU1845
 6984 0362 CB08     		lsrs	r3, r1, #3
 357:../../libDaisy//src/dev/oled_ssd130x.h ****         else
 6985              		.loc 4 357 48 view .LVU1846
 6986 0364 0120     		movs	r0, #1
 357:../../libDaisy//src/dev/oled_ssd130x.h ****         else
 6987              		.loc 4 357 54 view .LVU1847
 6988 0366 01F00701 		and	r1, r1, #7
 357:../../libDaisy//src/dev/oled_ssd130x.h ****         else
 6989              		.loc 4 357 42 view .LVU1848
 6990 036a 07EBC313 		add	r3, r7, r3, lsl #7
 357:../../libDaisy//src/dev/oled_ssd130x.h ****         else
 6991              		.loc 4 357 48 view .LVU1849
 6992 036e 00FA01F1 		lsl	r1, r0, r1
 357:../../libDaisy//src/dev/oled_ssd130x.h ****         else
 6993              		.loc 4 357 42 view .LVU1850
 6994 0372 2B44     		add	r3, r3, r5
 6995 0374 93F8BC04 		ldrb	r0, [r3, #1212]	@ zero_extendqisi2
 6996 0378 0143     		orrs	r1, r1, r0
 6997 037a 83F8BC14 		strb	r1, [r3, #1212]
 6998              	.L408:
 6999              	.LVL499:
ARM GAS  /var/folders/1y/_321xjh9623c014x9_qw12rr0000gn/T//ccE17DNe.s 			page 204


 357:../../libDaisy//src/dev/oled_ssd130x.h ****         else
 7000              		.loc 4 357 42 view .LVU1851
 7001              	.LBE1586:
 7002              	.LBE1587:
 7003              	.LBE1588:
 239:../../libDaisy//src/hid/disp/display.h ****         {
 7004              		.loc 3 239 26 is_stmt 1 view .LVU1852
 7005 037e BBF1000F 		cmp	fp, #0
 7006 0382 7FF47DAE 		bne	.L380
 7007 0386 7046     		mov	r0, lr
 7008              	.LBE1582:
 7009              	.LBE1581:
 7010              	.LBE1605:
 319:Dubby.cpp     ****             display.DrawRect(submenuBoxBounding[i][0], submenuBoxBounding[i][1], submenuBoxBounding
 7011              		.loc 2 319 29 is_stmt 0 view .LVU1853
 7012 0388 3946     		mov	r1, r7
 7013              	.LVL500:
 7014              	.L409:
 7015              	.LBB1606:
 7016              	.LBB1596:
 7017              	.LBB1595:
 7018              	.LBB1589:
 7019              	.LBI1589:
  42:../../libDaisy//src/hid/disp/oled_display.h ****     {
 7020              		.loc 1 42 10 is_stmt 1 view .LVU1854
 7021              	.LBB1590:
 7022              	.LBI1590:
 352:../../libDaisy//src/dev/oled_ssd130x.h ****     {
 7023              		.loc 4 352 10 view .LVU1855
 7024              	.LBB1591:
 357:../../libDaisy//src/dev/oled_ssd130x.h ****         else
 7025              		.loc 4 357 48 is_stmt 0 view .LVU1856
 7026 038a 0124     		movs	r4, #1
 357:../../libDaisy//src/dev/oled_ssd130x.h ****         else
 7027              		.loc 4 357 28 view .LVU1857
 7028 038c D308     		lsrs	r3, r2, #3
 357:../../libDaisy//src/dev/oled_ssd130x.h ****         else
 7029              		.loc 4 357 54 view .LVU1858
 7030 038e 02F00709 		and	r9, r2, #7
 354:../../libDaisy//src/dev/oled_ssd130x.h ****             return;
 7031              		.loc 4 354 9 view .LVU1859
 7032 0392 7F29     		cmp	r1, #127
 7033              	.LBE1591:
 7034              	.LBE1590:
 7035              	.LBE1589:
 242:../../libDaisy//src/hid/disp/display.h ****             if(error2 > -deltaY)
 7036              		.loc 3 242 20 view .LVU1860
 7037 0394 00FA04F6 		lsl	r6, r0, r4
 7038              	.LVL501:
 7039              	.LBB1594:
 7040              	.LBB1593:
 7041              	.LBB1592:
 357:../../libDaisy//src/dev/oled_ssd130x.h ****         else
 7042              		.loc 4 357 42 view .LVU1861
 7043 0398 01EBC313 		add	r3, r1, r3, lsl #7
 357:../../libDaisy//src/dev/oled_ssd130x.h ****         else
 7044              		.loc 4 357 48 view .LVU1862
ARM GAS  /var/folders/1y/_321xjh9623c014x9_qw12rr0000gn/T//ccE17DNe.s 			page 205


 7045 039c 04FA09F4 		lsl	r4, r4, r9
 354:../../libDaisy//src/dev/oled_ssd130x.h ****             return;
 7046              		.loc 4 354 9 view .LVU1863
 7047 03a0 08D8     		bhi	.L411
 354:../../libDaisy//src/dev/oled_ssd130x.h ****             return;
 7048              		.loc 4 354 9 view .LVU1864
 7049 03a2 3F2A     		cmp	r2, #63
 357:../../libDaisy//src/dev/oled_ssd130x.h ****         else
 7050              		.loc 4 357 42 view .LVU1865
 7051 03a4 2B44     		add	r3, r3, r5
 354:../../libDaisy//src/dev/oled_ssd130x.h ****             return;
 7052              		.loc 4 354 9 view .LVU1866
 7053 03a6 05D8     		bhi	.L411
 357:../../libDaisy//src/dev/oled_ssd130x.h ****         else
 7054              		.loc 4 357 42 view .LVU1867
 7055 03a8 93F8BC94 		ldrb	r9, [r3, #1212]	@ zero_extendqisi2
 7056 03ac 44EA0904 		orr	r4, r4, r9
 7057 03b0 83F8BC44 		strb	r4, [r3, #1212]
 7058              	.L411:
 357:../../libDaisy//src/dev/oled_ssd130x.h ****         else
 7059              		.loc 4 357 42 view .LVU1868
 7060              	.LBE1592:
 7061              	.LBE1593:
 7062              	.LBE1594:
 243:../../libDaisy//src/hid/disp/display.h ****             {
 7063              		.loc 3 243 13 view .LVU1869
 7064 03b4 BEEB400F 		cmp	lr, r0, lsl #1
 7065 03b8 02DA     		bge	.L412
 246:../../libDaisy//src/hid/disp/display.h ****             }
 7066              		.loc 3 246 20 view .LVU1870
 7067 03ba 0139     		subs	r1, r1, #1
 7068              	.LVL502:
 245:../../libDaisy//src/hid/disp/display.h ****                 x1 += signX;
 7069              		.loc 3 245 23 view .LVU1871
 7070 03bc A0EB0800 		sub	r0, r0, r8
 7071              	.LVL503:
 7072              	.L412:
 249:../../libDaisy//src/hid/disp/display.h ****             {
 7073              		.loc 3 249 13 view .LVU1872
 7074 03c0 06B1     		cbz	r6, .L413
 252:../../libDaisy//src/hid/disp/display.h ****             }
 7075              		.loc 3 252 20 view .LVU1873
 7076 03c2 6244     		add	r2, r2, ip
 7077              	.LVL504:
 7078              	.L413:
 239:../../libDaisy//src/hid/disp/display.h ****         {
 7079              		.loc 3 239 26 is_stmt 1 view .LVU1874
 7080 03c4 8F42     		cmp	r7, r1
 7081 03c6 E0D1     		bne	.L409
 239:../../libDaisy//src/hid/disp/display.h ****         {
 7082              		.loc 3 239 26 is_stmt 0 view .LVU1875
 7083 03c8 049B     		ldr	r3, [sp, #16]
 7084 03ca 9342     		cmp	r3, r2
 7085 03cc DDD1     		bne	.L409
 7086 03ce 57E6     		b	.L380
 7087              	.LVL505:
 7088              	.L381:
ARM GAS  /var/folders/1y/_321xjh9623c014x9_qw12rr0000gn/T//ccE17DNe.s 			page 206


 239:../../libDaisy//src/hid/disp/display.h ****         {
 7089              		.loc 3 239 26 view .LVU1876
 7090              	.LBE1595:
 7091              	.LBE1596:
 7092              	.LBB1597:
 7093              	.LBB1536:
 7094              	.LBB1532:
  42:../../libDaisy//src/hid/disp/oled_display.h ****     {
 7095              		.loc 1 42 10 is_stmt 1 view .LVU1877
 7096              	.LBB1527:
 352:../../libDaisy//src/dev/oled_ssd130x.h ****     {
 7097              		.loc 4 352 10 view .LVU1878
 7098              	.LBB1525:
 354:../../libDaisy//src/dev/oled_ssd130x.h ****             return;
 7099              		.loc 4 354 28 is_stmt 0 view .LVU1879
 7100 03d0 0499     		ldr	r1, [sp, #16]
 354:../../libDaisy//src/dev/oled_ssd130x.h ****             return;
 7101              		.loc 4 354 14 view .LVU1880
 7102 03d2 7F2E     		cmp	r6, #127
 7103 03d4 94BF     		ite	ls
 7104 03d6 0023     		movls	r3, #0
 7105              	.LVL506:
 354:../../libDaisy//src/dev/oled_ssd130x.h ****             return;
 7106              		.loc 4 354 14 view .LVU1881
 7107 03d8 0123     		movhi	r3, #1
 354:../../libDaisy//src/dev/oled_ssd130x.h ****             return;
 7108              		.loc 4 354 28 view .LVU1882
 7109 03da 3F29     		cmp	r1, #63
 354:../../libDaisy//src/dev/oled_ssd130x.h ****             return;
 7110              		.loc 4 354 14 view .LVU1883
 7111 03dc 0893     		str	r3, [sp, #32]
 354:../../libDaisy//src/dev/oled_ssd130x.h ****             return;
 7112              		.loc 4 354 28 view .LVU1884
 7113 03de 94BF     		ite	ls
 7114 03e0 0021     		movls	r1, #0
 7115 03e2 0121     		movhi	r1, #1
 7116 03e4 0991     		str	r1, [sp, #36]
 354:../../libDaisy//src/dev/oled_ssd130x.h ****             return;
 7117              		.loc 4 354 9 view .LVU1885
 7118 03e6 C3B9     		cbnz	r3, .L427
 7119 03e8 B9B9     		cbnz	r1, .L427
 7120              	.LBE1525:
 7121              	.LBE1527:
 7122              	.LBE1532:
 229:../../libDaisy//src/hid/disp/display.h ****         int_fast16_t signY  = ((y1 < y2) ? 1 : -1);
 7123              		.loc 3 229 42 view .LVU1886
 7124 03ea A346     		mov	fp, r4
 7125 03ec C0E6     		b	.L417
 7126              	.LVL507:
 7127              	.L390:
 229:../../libDaisy//src/hid/disp/display.h ****         int_fast16_t signY  = ((y1 < y2) ? 1 : -1);
 7128              		.loc 3 229 42 view .LVU1887
 7129              	.LBE1536:
 7130              	.LBE1597:
 7131              	.LBB1598:
 7132              	.LBB1565:
 231:../../libDaisy//src/hid/disp/display.h ****         int_fast16_t error2;
ARM GAS  /var/folders/1y/_321xjh9623c014x9_qw12rr0000gn/T//ccE17DNe.s 			page 207


 7133              		.loc 3 231 22 view .LVU1888
 7134 03ee 079B     		ldr	r3, [sp, #28]
 7135              	.LVL508:
 7136              	.LBB1562:
 7137              	.LBB1552:
 7138              	.LBB1548:
 354:../../libDaisy//src/dev/oled_ssd130x.h ****             return;
 7139              		.loc 4 354 28 view .LVU1889
 7140 03f0 BCF13F0F 		cmp	ip, #63
 354:../../libDaisy//src/dev/oled_ssd130x.h ****             return;
 7141              		.loc 4 354 9 view .LVU1890
 7142 03f4 0899     		ldr	r1, [sp, #32]
 7143              	.LVL509:
 354:../../libDaisy//src/dev/oled_ssd130x.h ****             return;
 7144              		.loc 4 354 9 view .LVU1891
 7145              	.LBE1548:
 7146              	.LBE1552:
 7147              	.LBE1562:
 231:../../libDaisy//src/hid/disp/display.h ****         int_fast16_t error2;
 7148              		.loc 3 231 22 view .LVU1892
 7149 03f6 C3F1000A 		rsb	r10, r3, #0
 7150              	.LVL510:
 7151              	.LBB1563:
  42:../../libDaisy//src/hid/disp/oled_display.h ****     {
 7152              		.loc 1 42 10 is_stmt 1 view .LVU1893
 7153              	.LBB1553:
 352:../../libDaisy//src/dev/oled_ssd130x.h ****     {
 7154              		.loc 4 352 10 view .LVU1894
 7155              	.LBB1549:
 354:../../libDaisy//src/dev/oled_ssd130x.h ****             return;
 7156              		.loc 4 354 28 is_stmt 0 view .LVU1895
 7157 03fa 94BF     		ite	ls
 7158 03fc 0023     		movls	r3, #0
 7159 03fe 0123     		movhi	r3, #1
 7160 0400 0A93     		str	r3, [sp, #40]
 354:../../libDaisy//src/dev/oled_ssd130x.h ****             return;
 7161              		.loc 4 354 9 view .LVU1896
 7162 0402 39B9     		cbnz	r1, .L426
 7163 0404 33B9     		cbnz	r3, .L426
 7164              	.LBE1549:
 7165              	.LBE1553:
 7166              	.LBE1563:
 230:../../libDaisy//src/hid/disp/display.h ****         int_fast16_t error  = deltaX - deltaY;
 7167              		.loc 3 230 42 view .LVU1897
 7168 0406 0123     		movs	r3, #1
 7169 0408 0893     		str	r3, [sp, #32]
 7170 040a 0BE7     		b	.L416
 7171              	.LVL511:
 7172              	.L421:
 230:../../libDaisy//src/hid/disp/display.h ****         int_fast16_t error  = deltaX - deltaY;
 7173              		.loc 3 230 42 view .LVU1898
 7174 040c 4FF0FF33 		mov	r3, #-1
 7175 0410 0893     		str	r3, [sp, #32]
 7176 0412 18E7     		b	.L391
 7177              	.LVL512:
 7178              	.L426:
 230:../../libDaisy//src/hid/disp/display.h ****         int_fast16_t error  = deltaX - deltaY;
ARM GAS  /var/folders/1y/_321xjh9623c014x9_qw12rr0000gn/T//ccE17DNe.s 			page 208


 7179              		.loc 3 230 42 view .LVU1899
 7180 0414 0123     		movs	r3, #1
 7181 0416 0893     		str	r3, [sp, #32]
 7182 0418 19E7     		b	.L393
 7183              	.LVL513:
 7184              	.L427:
 230:../../libDaisy//src/hid/disp/display.h ****         int_fast16_t error  = deltaX - deltaY;
 7185              		.loc 3 230 42 view .LVU1900
 7186              	.LBE1565:
 7187              	.LBE1598:
 7188              	.LBB1599:
 7189              	.LBB1537:
 229:../../libDaisy//src/hid/disp/display.h ****         int_fast16_t signY  = ((y1 < y2) ? 1 : -1);
 7190              		.loc 3 229 42 view .LVU1901
 7191 041a 4FF0010B 		mov	fp, #1
 7192 041e BCE6     		b	.L384
 7193              	.LVL514:
 7194              	.L463:
 239:../../libDaisy//src/hid/disp/display.h ****         {
 7195              		.loc 3 239 19 view .LVU1902
 7196 0420 0123     		movs	r3, #1
 7197 0422 0B93     		str	r3, [sp, #44]
 7198 0424 E0E6     		b	.L383
 7199              	.LVL515:
 7200              	.L464:
 239:../../libDaisy//src/hid/disp/display.h ****         {
 7201              		.loc 3 239 19 view .LVU1903
 7202              	.LBE1537:
 7203              	.LBE1599:
 7204              	.LBB1600:
 7205              	.LBB1566:
 239:../../libDaisy//src/hid/disp/display.h ****         {
 7206              		.loc 3 239 33 view .LVU1904
 7207 0426 4FF0010B 		mov	fp, #1
 7208 042a 3BE7     		b	.L392
 7209              	.LBE1566:
 7210              	.LBE1600:
 7211              	.LBE1606:
 7212              	.LBE1627:
 7213              		.cfi_endproc
 7214              	.LFE3744:
 7216              		.section	.text._ZN5daisy5Dubby13UpdateSubmenuEv,"ax",%progbits
 7217              		.align	1
 7218              		.p2align 2,,3
 7219              		.global	_ZN5daisy5Dubby13UpdateSubmenuEv
 7220              		.syntax unified
 7221              		.thumb
 7222              		.thumb_func
 7224              	_ZN5daisy5Dubby13UpdateSubmenuEv:
 7225              	.LVL516:
 7226              	.LFB3741:
 254:Dubby.cpp     **** {
 7227              		.loc 2 254 1 is_stmt 1 view -0
 7228              		.cfi_startproc
 7229              		@ args = 0, pretend = 0, frame = 8
 7230              		@ frame_needed = 0, uses_anonymous_args = 0
 255:Dubby.cpp     ****     switch(menuItemSelected) 
ARM GAS  /var/folders/1y/_321xjh9623c014x9_qw12rr0000gn/T//ccE17DNe.s 			page 209


 7231              		.loc 2 255 5 view .LVU1906
 255:Dubby.cpp     ****     switch(menuItemSelected) 
 7232              		.loc 2 255 12 is_stmt 0 view .LVU1907
 7233 0000 90F85C30 		ldrb	r3, [r0, #92]	@ zero_extendqisi2
 254:Dubby.cpp     **** {
 7234              		.loc 2 254 1 view .LVU1908
 7235 0004 2DE9F041 		push	{r4, r5, r6, r7, r8, lr}
 7236              		.cfi_def_cfa_offset 24
 7237              		.cfi_offset 4, -24
 7238              		.cfi_offset 5, -20
 7239              		.cfi_offset 6, -16
 7240              		.cfi_offset 7, -12
 7241              		.cfi_offset 8, -8
 7242              		.cfi_offset 14, -4
 7243 0008 0746     		mov	r7, r0
 7244 000a 82B0     		sub	sp, sp, #8
 7245              		.cfi_def_cfa_offset 32
 255:Dubby.cpp     ****     switch(menuItemSelected) 
 7246              		.loc 2 255 5 view .LVU1909
 7247 000c 002B     		cmp	r3, #0
 7248 000e 46D0     		beq	.L468
 7249 0010 022B     		cmp	r3, #2
 7250 0012 01D1     		bne	.L470
 263:Dubby.cpp     ****         case MENU3:
 7251              		.loc 2 263 9 is_stmt 1 view .LVU1910
 264:Dubby.cpp     ****             DisplayPreferencesMenu();
 7252              		.loc 2 264 13 view .LVU1911
 264:Dubby.cpp     ****             DisplayPreferencesMenu();
 7253              		.loc 2 264 35 is_stmt 0 view .LVU1912
 7254 0014 FFF7FEFF 		bl	_ZN5daisy5Dubby22DisplayPreferencesMenuEv
 7255              	.LVL517:
 265:Dubby.cpp     ****             break;
 7256              		.loc 2 265 13 is_stmt 1 view .LVU1913
 7257              	.L470:
 7258              	.LBB1643:
 7259              	.LBB1644:
 7260              	.LBB1645:
 7261              	.LBB1646:
 7262              	.LBB1647:
 124:../../libDaisy//src/dev/oled_ssd130x.h ****         spi_.BlockingTransmit(&cmd, 1);
 7263              		.loc 4 124 24 is_stmt 0 view .LVU1914
 7264 0018 07F59666 		add	r6, r7, #1200
 7265 001c 07F59765 		add	r5, r7, #1208
 125:../../libDaisy//src/dev/oled_ssd130x.h ****     };
 7266              		.loc 4 125 30 view .LVU1915
 7267 0020 B024     		movs	r4, #176
 7268 0022 07F2BC47 		addw	r7, r7, #1212
 7269              	.LVL518:
 7270              	.L471:
 125:../../libDaisy//src/dev/oled_ssd130x.h ****     };
 7271              		.loc 4 125 30 view .LVU1916
 7272 0026 4FF00008 		mov	r8, #0
 124:../../libDaisy//src/dev/oled_ssd130x.h ****         spi_.BlockingTransmit(&cmd, 1);
 7273              		.loc 4 124 23 view .LVU1917
 7274 002a 2846     		mov	r0, r5
 7275 002c 8DF80740 		strb	r4, [sp, #7]
 7276              	.LVL519:
ARM GAS  /var/folders/1y/_321xjh9623c014x9_qw12rr0000gn/T//ccE17DNe.s 			page 210


 124:../../libDaisy//src/dev/oled_ssd130x.h ****         spi_.BlockingTransmit(&cmd, 1);
 7277              		.loc 4 124 23 view .LVU1918
 7278              	.LBE1647:
 7279              	.LBI1646:
 122:../../libDaisy//src/dev/oled_ssd130x.h ****     {
 7280              		.loc 4 122 10 is_stmt 1 view .LVU1919
 7281              	.LBB1648:
 124:../../libDaisy//src/dev/oled_ssd130x.h ****         spi_.BlockingTransmit(&cmd, 1);
 7282              		.loc 4 124 9 view .LVU1920
 7283              	.LBE1648:
 7284              	.LBE1646:
 7285              		.loc 4 383 22 is_stmt 0 view .LVU1921
 7286 0030 0134     		adds	r4, r4, #1
 7287              	.LVL520:
 7288              	.LBB1651:
 7289              	.LBB1649:
 124:../../libDaisy//src/dev/oled_ssd130x.h ****         spi_.BlockingTransmit(&cmd, 1);
 7290              		.loc 4 124 23 view .LVU1922
 7291 0032 4146     		mov	r1, r8
 7292 0034 FFF7FEFF 		bl	dsy_gpio_write
 7293              	.LVL521:
 125:../../libDaisy//src/dev/oled_ssd130x.h ****     };
 7294              		.loc 4 125 9 is_stmt 1 view .LVU1923
 125:../../libDaisy//src/dev/oled_ssd130x.h ****     };
 7295              		.loc 4 125 30 is_stmt 0 view .LVU1924
 7296 0038 6423     		movs	r3, #100
 7297 003a 0122     		movs	r2, #1
 7298 003c 0DF10701 		add	r1, sp, #7
 7299 0040 3046     		mov	r0, r6
 7300              	.LBE1649:
 7301              	.LBE1651:
 7302              		.loc 4 383 22 view .LVU1925
 7303 0042 E4B2     		uxtb	r4, r4
 7304              	.LBB1652:
 7305              	.LBB1650:
 125:../../libDaisy//src/dev/oled_ssd130x.h ****     };
 7306              		.loc 4 125 30 view .LVU1926
 7307 0044 FFF7FEFF 		bl	_ZN5daisy9SpiHandle16BlockingTransmitEPhjm
 7308              	.LVL522:
 125:../../libDaisy//src/dev/oled_ssd130x.h ****     };
 7309              		.loc 4 125 30 view .LVU1927
 7310              	.LBE1650:
 7311              	.LBE1652:
 7312              	.LBB1653:
 7313              	.LBB1654:
 124:../../libDaisy//src/dev/oled_ssd130x.h ****         spi_.BlockingTransmit(&cmd, 1);
 7314              		.loc 4 124 23 view .LVU1928
 7315 0048 4146     		mov	r1, r8
 7316 004a 2846     		mov	r0, r5
 7317 004c 8DF80780 		strb	r8, [sp, #7]
 7318              	.LVL523:
 124:../../libDaisy//src/dev/oled_ssd130x.h ****         spi_.BlockingTransmit(&cmd, 1);
 7319              		.loc 4 124 23 view .LVU1929
 7320              	.LBE1654:
 7321              	.LBI1653:
 122:../../libDaisy//src/dev/oled_ssd130x.h ****     {
 7322              		.loc 4 122 10 is_stmt 1 view .LVU1930
ARM GAS  /var/folders/1y/_321xjh9623c014x9_qw12rr0000gn/T//ccE17DNe.s 			page 211


 7323              	.LBB1655:
 124:../../libDaisy//src/dev/oled_ssd130x.h ****         spi_.BlockingTransmit(&cmd, 1);
 7324              		.loc 4 124 9 view .LVU1931
 124:../../libDaisy//src/dev/oled_ssd130x.h ****         spi_.BlockingTransmit(&cmd, 1);
 7325              		.loc 4 124 23 is_stmt 0 view .LVU1932
 7326 0050 FFF7FEFF 		bl	dsy_gpio_write
 7327              	.LVL524:
 125:../../libDaisy//src/dev/oled_ssd130x.h ****     };
 7328              		.loc 4 125 9 is_stmt 1 view .LVU1933
 125:../../libDaisy//src/dev/oled_ssd130x.h ****     };
 7329              		.loc 4 125 30 is_stmt 0 view .LVU1934
 7330 0054 0122     		movs	r2, #1
 7331 0056 6423     		movs	r3, #100
 7332 0058 0DF10701 		add	r1, sp, #7
 7333 005c 3046     		mov	r0, r6
 7334 005e FFF7FEFF 		bl	_ZN5daisy9SpiHandle16BlockingTransmitEPhjm
 7335              	.LVL525:
 125:../../libDaisy//src/dev/oled_ssd130x.h ****     };
 7336              		.loc 4 125 30 view .LVU1935
 7337 0062 1023     		movs	r3, #16
 7338              	.LBE1655:
 7339              	.LBE1653:
 7340              	.LBB1656:
 7341              	.LBB1657:
 124:../../libDaisy//src/dev/oled_ssd130x.h ****         spi_.BlockingTransmit(&cmd, 1);
 7342              		.loc 4 124 23 view .LVU1936
 7343 0064 4146     		mov	r1, r8
 7344 0066 2846     		mov	r0, r5
 7345 0068 8DF80730 		strb	r3, [sp, #7]
 7346              	.LVL526:
 124:../../libDaisy//src/dev/oled_ssd130x.h ****         spi_.BlockingTransmit(&cmd, 1);
 7347              		.loc 4 124 23 view .LVU1937
 7348              	.LBE1657:
 7349              	.LBI1656:
 122:../../libDaisy//src/dev/oled_ssd130x.h ****     {
 7350              		.loc 4 122 10 is_stmt 1 view .LVU1938
 7351              	.LBB1658:
 124:../../libDaisy//src/dev/oled_ssd130x.h ****         spi_.BlockingTransmit(&cmd, 1);
 7352              		.loc 4 124 9 view .LVU1939
 124:../../libDaisy//src/dev/oled_ssd130x.h ****         spi_.BlockingTransmit(&cmd, 1);
 7353              		.loc 4 124 23 is_stmt 0 view .LVU1940
 7354 006c FFF7FEFF 		bl	dsy_gpio_write
 7355              	.LVL527:
 125:../../libDaisy//src/dev/oled_ssd130x.h ****     };
 7356              		.loc 4 125 9 is_stmt 1 view .LVU1941
 125:../../libDaisy//src/dev/oled_ssd130x.h ****     };
 7357              		.loc 4 125 30 is_stmt 0 view .LVU1942
 7358 0070 6423     		movs	r3, #100
 7359 0072 0122     		movs	r2, #1
 7360 0074 0DF10701 		add	r1, sp, #7
 7361 0078 3046     		mov	r0, r6
 7362 007a FFF7FEFF 		bl	_ZN5daisy9SpiHandle16BlockingTransmitEPhjm
 7363              	.LVL528:
 125:../../libDaisy//src/dev/oled_ssd130x.h ****     };
 7364              		.loc 4 125 30 view .LVU1943
 7365              	.LBE1658:
 7366              	.LBE1656:
ARM GAS  /var/folders/1y/_321xjh9623c014x9_qw12rr0000gn/T//ccE17DNe.s 			page 212


 7367              	.LBB1659:
 7368              	.LBI1659:
 128:../../libDaisy//src/dev/oled_ssd130x.h ****     {
 7369              		.loc 4 128 10 is_stmt 1 view .LVU1944
 7370              	.LBB1660:
 130:../../libDaisy//src/dev/oled_ssd130x.h ****         spi_.BlockingTransmit(buff, size);
 7371              		.loc 4 130 9 view .LVU1945
 130:../../libDaisy//src/dev/oled_ssd130x.h ****         spi_.BlockingTransmit(buff, size);
 7372              		.loc 4 130 23 is_stmt 0 view .LVU1946
 7373 007e 0121     		movs	r1, #1
 7374 0080 2846     		mov	r0, r5
 7375 0082 FFF7FEFF 		bl	dsy_gpio_write
 7376              	.LVL529:
 131:../../libDaisy//src/dev/oled_ssd130x.h ****     };
 7377              		.loc 4 131 9 is_stmt 1 view .LVU1947
 131:../../libDaisy//src/dev/oled_ssd130x.h ****     };
 7378              		.loc 4 131 30 is_stmt 0 view .LVU1948
 7379 0086 8022     		movs	r2, #128
 7380 0088 3946     		mov	r1, r7
 7381 008a 6423     		movs	r3, #100
 7382 008c 3046     		mov	r0, r6
 7383              	.LBE1660:
 7384              	.LBE1659:
 7385              		.loc 4 383 22 view .LVU1949
 7386 008e 1744     		add	r7, r7, r2
 7387              	.LVL530:
 7388              	.LBB1662:
 7389              	.LBB1661:
 131:../../libDaisy//src/dev/oled_ssd130x.h ****     };
 7390              		.loc 4 131 30 view .LVU1950
 7391 0090 FFF7FEFF 		bl	_ZN5daisy9SpiHandle16BlockingTransmitEPhjm
 7392              	.LVL531:
 131:../../libDaisy//src/dev/oled_ssd130x.h ****     };
 7393              		.loc 4 131 30 view .LVU1951
 7394              	.LBE1661:
 7395              	.LBE1662:
 7396              		.loc 4 383 9 is_stmt 1 view .LVU1952
 7397              		.loc 4 383 22 view .LVU1953
 7398 0094 B82C     		cmp	r4, #184
 7399 0096 C6D1     		bne	.L471
 7400              	.LBE1645:
 7401              	.LBE1644:
 7402              	.LBE1643:
 271:Dubby.cpp     **** }
 7403              		.loc 2 271 1 is_stmt 0 view .LVU1954
 7404 0098 02B0     		add	sp, sp, #8
 7405              		.cfi_remember_state
 7406              		.cfi_def_cfa_offset 24
 7407              		@ sp needed
 7408 009a BDE8F081 		pop	{r4, r5, r6, r7, r8, pc}
 7409              	.LVL532:
 7410              	.L468:
 7411              		.cfi_restore_state
 257:Dubby.cpp     ****         case MENU1:
 7412              		.loc 2 257 9 is_stmt 1 view .LVU1955
 258:Dubby.cpp     ****             RenderScope();
 7413              		.loc 2 258 13 view .LVU1956
ARM GAS  /var/folders/1y/_321xjh9623c014x9_qw12rr0000gn/T//ccE17DNe.s 			page 213


 7414              	.LBB1663:
 7415              	.LBI1663:
 282:Dubby.cpp     **** void Dubby::RenderScope()
 7416              		.loc 2 282 6 view .LVU1957
 7417              	.LBB1664:
 284:Dubby.cpp     ****     if(seed.system.GetNow() - screen_update_last_ > screen_update_period_)
 7418              		.loc 2 284 5 view .LVU1958
 7419              	.LBB1665:
 284:Dubby.cpp     ****     if(seed.system.GetNow() - screen_update_last_ > screen_update_period_)
 7420              		.loc 2 284 26 is_stmt 0 view .LVU1959
 7421 009e FFF7FEFF 		bl	_ZN5daisy6System6GetNowEv
 7422              	.LVL533:
 284:Dubby.cpp     ****     if(seed.system.GetNow() - screen_update_last_ > screen_update_period_)
 7423              		.loc 2 284 31 view .LVU1960
 7424 00a2 07F51043 		add	r3, r7, #36864
 284:Dubby.cpp     ****     if(seed.system.GetNow() - screen_update_last_ > screen_update_period_)
 7425              		.loc 2 284 29 view .LVU1961
 7426 00a6 D3F8282A 		ldr	r2, [r3, #2600]
 284:Dubby.cpp     ****     if(seed.system.GetNow() - screen_update_last_ > screen_update_period_)
 7427              		.loc 2 284 5 view .LVU1962
 7428 00aa D3F82C3A 		ldr	r3, [r3, #2604]
 284:Dubby.cpp     ****     if(seed.system.GetNow() - screen_update_last_ > screen_update_period_)
 7429              		.loc 2 284 29 view .LVU1963
 7430 00ae 801A     		subs	r0, r0, r2
 284:Dubby.cpp     ****     if(seed.system.GetNow() - screen_update_last_ > screen_update_period_)
 7431              		.loc 2 284 5 view .LVU1964
 7432 00b0 9842     		cmp	r0, r3
 7433 00b2 B1D9     		bls	.L470
 7434              	.LBE1665:
 7435 00b4 3846     		mov	r0, r7
 7436 00b6 FFF7FEFF 		bl	_ZN5daisy5Dubby11RenderScopeEv.part.0
 7437              	.LVL534:
 7438 00ba ADE7     		b	.L470
 7439              	.LBE1664:
 7440              	.LBE1663:
 7441              		.cfi_endproc
 7442              	.LFE3741:
 7444              		.section	.text._ZN5daisy5Dubby10UpdateMenuEib,"ax",%progbits
 7445              		.align	1
 7446              		.p2align 2,,3
 7447              		.global	_ZN5daisy5Dubby10UpdateMenuEib
 7448              		.syntax unified
 7449              		.thumb
 7450              		.thumb_func
 7452              	_ZN5daisy5Dubby10UpdateMenuEib:
 7453              	.LVL535:
 7454              	.LFB3737:
 191:Dubby.cpp     **** {
 7455              		.loc 2 191 1 is_stmt 1 view -0
 7456              		.cfi_startproc
 7457              		@ args = 0, pretend = 0, frame = 8
 7458              		@ frame_needed = 0, uses_anonymous_args = 0
 194:Dubby.cpp     ****         int mItemSelected = menuItemSelected;
 7459              		.loc 2 194 9 view .LVU1966
 195:Dubby.cpp     ****         if ((int)menuItemSelected + increment >= 3) mItemSelected = 0;
 7460              		.loc 2 195 9 view .LVU1967
 194:Dubby.cpp     ****         int mItemSelected = menuItemSelected;
ARM GAS  /var/folders/1y/_321xjh9623c014x9_qw12rr0000gn/T//ccE17DNe.s 			page 214


 7461              		.loc 2 194 13 is_stmt 0 view .LVU1968
 7462 0000 90F85C30 		ldrb	r3, [r0, #92]	@ zero_extendqisi2
 195:Dubby.cpp     ****         if ((int)menuItemSelected + increment >= 3) mItemSelected = 0;
 7463              		.loc 2 195 35 view .LVU1969
 7464 0004 1944     		add	r1, r1, r3
 7465              	.LVL536:
 195:Dubby.cpp     ****         if ((int)menuItemSelected + increment >= 3) mItemSelected = 0;
 7466              		.loc 2 195 9 view .LVU1970
 7467 0006 0229     		cmp	r1, #2
 191:Dubby.cpp     **** {
 7468              		.loc 2 191 1 view .LVU1971
 7469 0008 2DE9F041 		push	{r4, r5, r6, r7, r8, lr}
 7470              		.cfi_def_cfa_offset 24
 7471              		.cfi_offset 4, -24
 7472              		.cfi_offset 5, -20
 7473              		.cfi_offset 6, -16
 7474              		.cfi_offset 7, -12
 7475              		.cfi_offset 8, -8
 7476              		.cfi_offset 14, -4
 7477 000c 0746     		mov	r7, r0
 7478 000e 82B0     		sub	sp, sp, #8
 7479              		.cfi_def_cfa_offset 32
 191:Dubby.cpp     **** {
 7480              		.loc 2 191 1 view .LVU1972
 7481 0010 1446     		mov	r4, r2
 195:Dubby.cpp     ****         if ((int)menuItemSelected + increment >= 3) mItemSelected = 0;
 7482              		.loc 2 195 9 view .LVU1973
 7483 0012 03DC     		bgt	.L479
 196:Dubby.cpp     ****         else if ((int)menuItemSelected + increment < 0) mItemSelected = 3;
 7484              		.loc 2 196 14 is_stmt 1 view .LVU1974
 7485 0014 0029     		cmp	r1, #0
 7486 0016 57DB     		blt	.L480
 199:Dubby.cpp     ****         menuItemSelected = (MenuItems)(mItemSelected);
 7487              		.loc 2 199 28 is_stmt 0 view .LVU1975
 7488 0018 C9B2     		uxtb	r1, r1
 7489 001a 00E0     		b	.L475
 7490              	.L479:
 7491 001c 0021     		movs	r1, #0
 7492              	.L475:
 7493              	.LVL537:
 199:Dubby.cpp     ****         menuItemSelected = (MenuItems)(mItemSelected);
 7494              		.loc 2 199 9 is_stmt 1 view .LVU1976
 7495 001e 07F2BC48 		addw	r8, r7, #1212
 199:Dubby.cpp     ****         menuItemSelected = (MenuItems)(mItemSelected);
 7496              		.loc 2 199 26 is_stmt 0 view .LVU1977
 7497 0022 87F85C10 		strb	r1, [r7, #92]
 202:Dubby.cpp     ****     display.Fill(false);
 7498              		.loc 2 202 5 is_stmt 1 view .LVU1978
 7499              	.LVL538:
 7500              	.LBB1686:
 7501              	.LBI1686:
  34:../../libDaisy//src/hid/disp/oled_display.h **** 
 7502              		.loc 1 34 10 view .LVU1979
 7503              	.LBB1687:
 7504              	.LBI1687:
 362:../../libDaisy//src/dev/oled_ssd130x.h ****     {
 7505              		.loc 4 362 10 view .LVU1980
ARM GAS  /var/folders/1y/_321xjh9623c014x9_qw12rr0000gn/T//ccE17DNe.s 			page 215


 7506              	.LBB1688:
 364:../../libDaisy//src/dev/oled_ssd130x.h ****         {
 7507              		.loc 4 364 29 view .LVU1981
 366:../../libDaisy//src/dev/oled_ssd130x.h ****         }
 7508              		.loc 4 366 24 is_stmt 0 view .LVU1982
 7509 0026 4FF48062 		mov	r2, #1024
 7510              	.LVL539:
 366:../../libDaisy//src/dev/oled_ssd130x.h ****         }
 7511              		.loc 4 366 24 view .LVU1983
 7512 002a 0021     		movs	r1, #0
 7513 002c 4046     		mov	r0, r8
 7514              	.LVL540:
 366:../../libDaisy//src/dev/oled_ssd130x.h ****         }
 7515              		.loc 4 366 24 view .LVU1984
 7516 002e FFF7FEFF 		bl	memset
 7517              	.LVL541:
 366:../../libDaisy//src/dev/oled_ssd130x.h ****         }
 7518              		.loc 4 366 24 view .LVU1985
 7519              	.LBE1688:
 7520              	.LBE1687:
 7521              	.LBE1686:
 204:Dubby.cpp     ****     if (higlight) HightlightMenuItem();
 7522              		.loc 2 204 5 is_stmt 1 view .LVU1986
 204:Dubby.cpp     ****     if (higlight) HightlightMenuItem();
 7523              		.loc 2 204 37 is_stmt 0 view .LVU1987
 7524 0032 3846     		mov	r0, r7
 204:Dubby.cpp     ****     if (higlight) HightlightMenuItem();
 7525              		.loc 2 204 5 view .LVU1988
 7526 0034 002C     		cmp	r4, #0
 7527 0036 44D0     		beq	.L476
 7528              	.LVL542:
 204:Dubby.cpp     ****     if (higlight) HightlightMenuItem();
 7529              		.loc 2 204 19 is_stmt 1 discriminator 1 view .LVU1989
 204:Dubby.cpp     ****     if (higlight) HightlightMenuItem();
 7530              		.loc 2 204 37 is_stmt 0 discriminator 1 view .LVU1990
 7531 0038 FFF7FEFF 		bl	_ZN5daisy5Dubby18HightlightMenuItemEv
 7532              	.LVL543:
 7533              	.L477:
 207:Dubby.cpp     ****     UpdateSubmenu();
 7534              		.loc 2 207 5 is_stmt 1 view .LVU1991
 207:Dubby.cpp     ****     UpdateSubmenu();
 7535              		.loc 2 207 18 is_stmt 0 view .LVU1992
 7536 003c 3846     		mov	r0, r7
 7537              	.LBB1689:
 7538              	.LBB1690:
 7539              	.LBB1691:
 7540              	.LBB1692:
 7541              	.LBB1693:
 124:../../libDaisy//src/dev/oled_ssd130x.h ****         spi_.BlockingTransmit(&cmd, 1);
 7542              		.loc 4 124 24 view .LVU1993
 7543 003e 07F59666 		add	r6, r7, #1200
 7544 0042 07F59765 		add	r5, r7, #1208
 125:../../libDaisy//src/dev/oled_ssd130x.h ****     };
 7545              		.loc 4 125 30 view .LVU1994
 7546 0046 B024     		movs	r4, #176
 7547              	.LBE1693:
 7548              	.LBE1692:
ARM GAS  /var/folders/1y/_321xjh9623c014x9_qw12rr0000gn/T//ccE17DNe.s 			page 216


 7549              	.LBE1691:
 7550              	.LBE1690:
 7551              	.LBE1689:
 207:Dubby.cpp     ****     UpdateSubmenu();
 7552              		.loc 2 207 18 view .LVU1995
 7553 0048 FFF7FEFF 		bl	_ZN5daisy5Dubby13UpdateSubmenuEv
 7554              	.LVL544:
 209:Dubby.cpp     ****     display.Update();
 7555              		.loc 2 209 5 is_stmt 1 view .LVU1996
 7556              	.LBB1713:
 7557              	.LBI1689:
 7558              		.loc 1 51 10 view .LVU1997
 7559              	.LBB1712:
 7560              	.LBI1690:
 373:../../libDaisy//src/dev/oled_ssd130x.h ****     {
 7561              		.loc 4 373 10 view .LVU1998
 7562              	.LBB1711:
 7563              		.loc 4 383 22 view .LVU1999
 7564              	.L478:
 7565              		.loc 4 383 22 is_stmt 0 view .LVU2000
 7566 004c 0027     		movs	r7, #0
 7567              	.LBB1698:
 7568              	.LBB1694:
 124:../../libDaisy//src/dev/oled_ssd130x.h ****         spi_.BlockingTransmit(&cmd, 1);
 7569              		.loc 4 124 23 view .LVU2001
 7570 004e 2846     		mov	r0, r5
 7571 0050 8DF80740 		strb	r4, [sp, #7]
 7572              	.LVL545:
 124:../../libDaisy//src/dev/oled_ssd130x.h ****         spi_.BlockingTransmit(&cmd, 1);
 7573              		.loc 4 124 23 view .LVU2002
 7574              	.LBE1694:
 7575              	.LBI1692:
 122:../../libDaisy//src/dev/oled_ssd130x.h ****     {
 7576              		.loc 4 122 10 is_stmt 1 view .LVU2003
 7577              	.LBB1695:
 124:../../libDaisy//src/dev/oled_ssd130x.h ****         spi_.BlockingTransmit(&cmd, 1);
 7578              		.loc 4 124 9 view .LVU2004
 7579              	.LBE1695:
 7580              	.LBE1698:
 7581              		.loc 4 383 22 is_stmt 0 view .LVU2005
 7582 0054 0134     		adds	r4, r4, #1
 7583              	.LVL546:
 7584              	.LBB1699:
 7585              	.LBB1696:
 124:../../libDaisy//src/dev/oled_ssd130x.h ****         spi_.BlockingTransmit(&cmd, 1);
 7586              		.loc 4 124 23 view .LVU2006
 7587 0056 3946     		mov	r1, r7
 7588 0058 FFF7FEFF 		bl	dsy_gpio_write
 7589              	.LVL547:
 125:../../libDaisy//src/dev/oled_ssd130x.h ****     };
 7590              		.loc 4 125 9 is_stmt 1 view .LVU2007
 125:../../libDaisy//src/dev/oled_ssd130x.h ****     };
 7591              		.loc 4 125 30 is_stmt 0 view .LVU2008
 7592 005c 6423     		movs	r3, #100
 7593 005e 0122     		movs	r2, #1
 7594 0060 0DF10701 		add	r1, sp, #7
 7595 0064 3046     		mov	r0, r6
ARM GAS  /var/folders/1y/_321xjh9623c014x9_qw12rr0000gn/T//ccE17DNe.s 			page 217


 7596              	.LBE1696:
 7597              	.LBE1699:
 7598              		.loc 4 383 22 view .LVU2009
 7599 0066 E4B2     		uxtb	r4, r4
 7600              	.LBB1700:
 7601              	.LBB1697:
 125:../../libDaisy//src/dev/oled_ssd130x.h ****     };
 7602              		.loc 4 125 30 view .LVU2010
 7603 0068 FFF7FEFF 		bl	_ZN5daisy9SpiHandle16BlockingTransmitEPhjm
 7604              	.LVL548:
 125:../../libDaisy//src/dev/oled_ssd130x.h ****     };
 7605              		.loc 4 125 30 view .LVU2011
 7606              	.LBE1697:
 7607              	.LBE1700:
 7608              	.LBB1701:
 7609              	.LBB1702:
 124:../../libDaisy//src/dev/oled_ssd130x.h ****         spi_.BlockingTransmit(&cmd, 1);
 7610              		.loc 4 124 23 view .LVU2012
 7611 006c 3946     		mov	r1, r7
 7612 006e 2846     		mov	r0, r5
 7613 0070 8DF80770 		strb	r7, [sp, #7]
 7614              	.LVL549:
 124:../../libDaisy//src/dev/oled_ssd130x.h ****         spi_.BlockingTransmit(&cmd, 1);
 7615              		.loc 4 124 23 view .LVU2013
 7616              	.LBE1702:
 7617              	.LBI1701:
 122:../../libDaisy//src/dev/oled_ssd130x.h ****     {
 7618              		.loc 4 122 10 is_stmt 1 view .LVU2014
 7619              	.LBB1703:
 124:../../libDaisy//src/dev/oled_ssd130x.h ****         spi_.BlockingTransmit(&cmd, 1);
 7620              		.loc 4 124 9 view .LVU2015
 124:../../libDaisy//src/dev/oled_ssd130x.h ****         spi_.BlockingTransmit(&cmd, 1);
 7621              		.loc 4 124 23 is_stmt 0 view .LVU2016
 7622 0074 FFF7FEFF 		bl	dsy_gpio_write
 7623              	.LVL550:
 125:../../libDaisy//src/dev/oled_ssd130x.h ****     };
 7624              		.loc 4 125 9 is_stmt 1 view .LVU2017
 125:../../libDaisy//src/dev/oled_ssd130x.h ****     };
 7625              		.loc 4 125 30 is_stmt 0 view .LVU2018
 7626 0078 0122     		movs	r2, #1
 7627 007a 6423     		movs	r3, #100
 7628 007c 0DF10701 		add	r1, sp, #7
 7629 0080 3046     		mov	r0, r6
 7630 0082 FFF7FEFF 		bl	_ZN5daisy9SpiHandle16BlockingTransmitEPhjm
 7631              	.LVL551:
 125:../../libDaisy//src/dev/oled_ssd130x.h ****     };
 7632              		.loc 4 125 30 view .LVU2019
 7633 0086 1023     		movs	r3, #16
 7634              	.LBE1703:
 7635              	.LBE1701:
 7636              	.LBB1704:
 7637              	.LBB1705:
 124:../../libDaisy//src/dev/oled_ssd130x.h ****         spi_.BlockingTransmit(&cmd, 1);
 7638              		.loc 4 124 23 view .LVU2020
 7639 0088 3946     		mov	r1, r7
 7640 008a 2846     		mov	r0, r5
 7641 008c 8DF80730 		strb	r3, [sp, #7]
ARM GAS  /var/folders/1y/_321xjh9623c014x9_qw12rr0000gn/T//ccE17DNe.s 			page 218


 7642              	.LVL552:
 124:../../libDaisy//src/dev/oled_ssd130x.h ****         spi_.BlockingTransmit(&cmd, 1);
 7643              		.loc 4 124 23 view .LVU2021
 7644              	.LBE1705:
 7645              	.LBI1704:
 122:../../libDaisy//src/dev/oled_ssd130x.h ****     {
 7646              		.loc 4 122 10 is_stmt 1 view .LVU2022
 7647              	.LBB1706:
 124:../../libDaisy//src/dev/oled_ssd130x.h ****         spi_.BlockingTransmit(&cmd, 1);
 7648              		.loc 4 124 9 view .LVU2023
 124:../../libDaisy//src/dev/oled_ssd130x.h ****         spi_.BlockingTransmit(&cmd, 1);
 7649              		.loc 4 124 23 is_stmt 0 view .LVU2024
 7650 0090 FFF7FEFF 		bl	dsy_gpio_write
 7651              	.LVL553:
 125:../../libDaisy//src/dev/oled_ssd130x.h ****     };
 7652              		.loc 4 125 9 is_stmt 1 view .LVU2025
 125:../../libDaisy//src/dev/oled_ssd130x.h ****     };
 7653              		.loc 4 125 30 is_stmt 0 view .LVU2026
 7654 0094 6423     		movs	r3, #100
 7655 0096 0122     		movs	r2, #1
 7656 0098 0DF10701 		add	r1, sp, #7
 7657 009c 3046     		mov	r0, r6
 7658 009e FFF7FEFF 		bl	_ZN5daisy9SpiHandle16BlockingTransmitEPhjm
 7659              	.LVL554:
 125:../../libDaisy//src/dev/oled_ssd130x.h ****     };
 7660              		.loc 4 125 30 view .LVU2027
 7661              	.LBE1706:
 7662              	.LBE1704:
 7663              	.LBB1707:
 7664              	.LBI1707:
 128:../../libDaisy//src/dev/oled_ssd130x.h ****     {
 7665              		.loc 4 128 10 is_stmt 1 view .LVU2028
 7666              	.LBB1708:
 130:../../libDaisy//src/dev/oled_ssd130x.h ****         spi_.BlockingTransmit(buff, size);
 7667              		.loc 4 130 9 view .LVU2029
 130:../../libDaisy//src/dev/oled_ssd130x.h ****         spi_.BlockingTransmit(buff, size);
 7668              		.loc 4 130 23 is_stmt 0 view .LVU2030
 7669 00a2 0121     		movs	r1, #1
 7670 00a4 2846     		mov	r0, r5
 7671 00a6 FFF7FEFF 		bl	dsy_gpio_write
 7672              	.LVL555:
 131:../../libDaisy//src/dev/oled_ssd130x.h ****     };
 7673              		.loc 4 131 9 is_stmt 1 view .LVU2031
 131:../../libDaisy//src/dev/oled_ssd130x.h ****     };
 7674              		.loc 4 131 30 is_stmt 0 view .LVU2032
 7675 00aa 8022     		movs	r2, #128
 7676 00ac 4146     		mov	r1, r8
 7677 00ae 6423     		movs	r3, #100
 7678 00b0 3046     		mov	r0, r6
 7679              	.LBE1708:
 7680              	.LBE1707:
 7681              		.loc 4 383 22 view .LVU2033
 7682 00b2 9044     		add	r8, r8, r2
 7683              	.LVL556:
 7684              	.LBB1710:
 7685              	.LBB1709:
 131:../../libDaisy//src/dev/oled_ssd130x.h ****     };
ARM GAS  /var/folders/1y/_321xjh9623c014x9_qw12rr0000gn/T//ccE17DNe.s 			page 219


 7686              		.loc 4 131 30 view .LVU2034
 7687 00b4 FFF7FEFF 		bl	_ZN5daisy9SpiHandle16BlockingTransmitEPhjm
 7688              	.LVL557:
 131:../../libDaisy//src/dev/oled_ssd130x.h ****     };
 7689              		.loc 4 131 30 view .LVU2035
 7690              	.LBE1709:
 7691              	.LBE1710:
 7692              		.loc 4 383 9 is_stmt 1 view .LVU2036
 7693              		.loc 4 383 22 view .LVU2037
 7694 00b8 B82C     		cmp	r4, #184
 7695 00ba C7D1     		bne	.L478
 7696              	.LBE1711:
 7697              	.LBE1712:
 7698              	.LBE1713:
 210:Dubby.cpp     **** }
 7699              		.loc 2 210 1 is_stmt 0 view .LVU2038
 7700 00bc 02B0     		add	sp, sp, #8
 7701              		.cfi_remember_state
 7702              		.cfi_def_cfa_offset 24
 7703              		@ sp needed
 7704 00be BDE8F081 		pop	{r4, r5, r6, r7, r8, pc}
 7705              	.LVL558:
 7706              	.L476:
 7707              		.cfi_restore_state
 205:Dubby.cpp     ****     else ReleaseMenu();
 7708              		.loc 2 205 10 is_stmt 1 view .LVU2039
 205:Dubby.cpp     ****     else ReleaseMenu();
 7709              		.loc 2 205 21 is_stmt 0 view .LVU2040
 7710 00c2 FFF7FEFF 		bl	_ZN5daisy5Dubby11ReleaseMenuEv
 7711              	.LVL559:
 205:Dubby.cpp     ****     else ReleaseMenu();
 7712              		.loc 2 205 21 view .LVU2041
 7713 00c6 B9E7     		b	.L477
 7714              	.LVL560:
 7715              	.L480:
 205:Dubby.cpp     ****     else ReleaseMenu();
 7716              		.loc 2 205 21 view .LVU2042
 7717 00c8 0321     		movs	r1, #3
 7718 00ca A8E7     		b	.L475
 7719              		.cfi_endproc
 7720              	.LFE3737:
 7722              		.section	.text._ZN5daisy5Dubby21UpdatePreferencesMenuEi,"ax",%progbits
 7723              		.align	1
 7724              		.p2align 2,,3
 7725              		.global	_ZN5daisy5Dubby21UpdatePreferencesMenuEi
 7726              		.syntax unified
 7727              		.thumb
 7728              		.thumb_func
 7730              	_ZN5daisy5Dubby21UpdatePreferencesMenuEi:
 7731              	.LVL561:
 7732              	.LFB3745:
 326:Dubby.cpp     **** {
 7733              		.loc 2 326 1 is_stmt 1 view -0
 7734              		.cfi_startproc
 7735              		@ args = 0, pretend = 0, frame = 0
 7736              		@ frame_needed = 0, uses_anonymous_args = 0
 7737              		@ link register save eliminated.
ARM GAS  /var/folders/1y/_321xjh9623c014x9_qw12rr0000gn/T//ccE17DNe.s 			page 220


 327:Dubby.cpp     ****     if (((preferencesMenuItemSelected >= 0 && increment == 1 && preferencesMenuItemSelected < PREFE
 7738              		.loc 2 327 5 view .LVU2044
 7739 0000 0129     		cmp	r1, #1
 327:Dubby.cpp     ****     if (((preferencesMenuItemSelected >= 0 && increment == 1 && preferencesMenuItemSelected < PREFE
 7740              		.loc 2 327 65 is_stmt 0 view .LVU2045
 7741 0002 90F85D30 		ldrb	r3, [r0, #93]	@ zero_extendqisi2
 327:Dubby.cpp     ****     if (((preferencesMenuItemSelected >= 0 && increment == 1 && preferencesMenuItemSelected < PREFE
 7742              		.loc 2 327 5 view .LVU2046
 7743 0006 06D0     		beq	.L490
 327:Dubby.cpp     ****     if (((preferencesMenuItemSelected >= 0 && increment == 1 && preferencesMenuItemSelected < PREFE
 7744              		.loc 2 327 140 discriminator 4 view .LVU2047
 7745 0008 23B1     		cbz	r3, .L483
 7746              	.L485:
 7747              	.LVL562:
 7748              	.LBB1716:
 7749              	.LBI1716:
 325:Dubby.cpp     **** void Dubby::UpdatePreferencesMenu(int increment) 
 7750              		.loc 2 325 6 is_stmt 1 view .LVU2048
 7751              	.LBB1717:
 329:Dubby.cpp     ****         preferencesMenuItemSelected = (PreferenesMenuItems)(preferencesMenuItemSelected + increment
 7752              		.loc 2 329 9 view .LVU2049
 329:Dubby.cpp     ****         preferencesMenuItemSelected = (PreferenesMenuItems)(preferencesMenuItemSelected + increment
 7753              		.loc 2 329 89 is_stmt 0 view .LVU2050
 7754 000a 1944     		add	r1, r1, r3
 7755              	.LVL563:
 329:Dubby.cpp     ****         preferencesMenuItemSelected = (PreferenesMenuItems)(preferencesMenuItemSelected + increment
 7756              		.loc 2 329 37 view .LVU2051
 7757 000c 80F85D10 		strb	r1, [r0, #93]
 331:Dubby.cpp     ****         DisplayPreferencesMenu();
 7758              		.loc 2 331 9 is_stmt 1 view .LVU2052
 331:Dubby.cpp     ****         DisplayPreferencesMenu();
 7759              		.loc 2 331 31 is_stmt 0 view .LVU2053
 7760 0010 FFF7FEBF 		b	_ZN5daisy5Dubby22DisplayPreferencesMenuEv
 7761              	.LVL564:
 7762              	.L483:
 331:Dubby.cpp     ****         DisplayPreferencesMenu();
 7763              		.loc 2 331 31 view .LVU2054
 7764              	.LBE1717:
 7765              	.LBE1716:
 333:Dubby.cpp     **** }
 7766              		.loc 2 333 1 view .LVU2055
 7767 0014 7047     		bx	lr
 7768              	.L490:
 327:Dubby.cpp     ****     if (((preferencesMenuItemSelected >= 0 && increment == 1 && preferencesMenuItemSelected < PREFE
 7769              		.loc 2 327 62 discriminator 1 view .LVU2056
 7770 0016 022B     		cmp	r3, #2
 7771 0018 F7D9     		bls	.L485
 7772 001a 7047     		bx	lr
 7773              		.cfi_endproc
 7774              	.LFE3745:
 7776              		.section	.rodata._ZN5daisy5Dubby17ResetToBootloaderEv.str1.4,"aMS",%progbits,1
 7777              		.align	2
 7778              	.LC15:
 7779 0000 4649524D 		.ascii	"FIRMWARE UPDATE\000"
 7779      57415245 
 7779      20555044 
 7779      41544500 
ARM GAS  /var/folders/1y/_321xjh9623c014x9_qw12rr0000gn/T//ccE17DNe.s 			page 221


 7780              		.section	.text._ZN5daisy5Dubby17ResetToBootloaderEv,"ax",%progbits
 7781              		.align	1
 7782              		.p2align 2,,3
 7783              		.global	_ZN5daisy5Dubby17ResetToBootloaderEv
 7784              		.syntax unified
 7785              		.thumb
 7786              		.thumb_func
 7788              	_ZN5daisy5Dubby17ResetToBootloaderEv:
 7789              	.LVL565:
 7790              	.LFB3746:
 336:Dubby.cpp     **** {
 7791              		.loc 2 336 1 is_stmt 1 view -0
 7792              		.cfi_startproc
 7793              		@ args = 0, pretend = 0, frame = 8
 7794              		@ frame_needed = 0, uses_anonymous_args = 0
 337:Dubby.cpp     ****     DrawBitmap(1);
 7795              		.loc 2 337 5 view .LVU2058
 336:Dubby.cpp     **** {
 7796              		.loc 2 336 1 is_stmt 0 view .LVU2059
 7797 0000 2DE9F041 		push	{r4, r5, r6, r7, r8, lr}
 7798              		.cfi_def_cfa_offset 24
 7799              		.cfi_offset 4, -24
 7800              		.cfi_offset 5, -20
 7801              		.cfi_offset 6, -16
 7802              		.cfi_offset 7, -12
 7803              		.cfi_offset 8, -8
 7804              		.cfi_offset 14, -4
 337:Dubby.cpp     ****     DrawBitmap(1);
 7805              		.loc 2 337 15 view .LVU2060
 7806 0004 0121     		movs	r1, #1
 336:Dubby.cpp     **** {
 7807              		.loc 2 336 1 view .LVU2061
 7808 0006 84B0     		sub	sp, sp, #16
 7809              		.cfi_def_cfa_offset 40
 336:Dubby.cpp     **** {
 7810              		.loc 2 336 1 view .LVU2062
 7811 0008 0546     		mov	r5, r0
 7812              	.LBB1740:
 7813              	.LBB1741:
 173:../../libDaisy//src/hid/disp/display.h ****         currentY_ = (y >= Height()) ? Height() - 1 : y;
 7814              		.loc 3 173 19 view .LVU2063
 7815 000a 2A4C     		ldr	r4, .L495
 7816              	.LBE1741:
 7817              	.LBE1740:
 337:Dubby.cpp     ****     DrawBitmap(1);
 7818              		.loc 2 337 15 view .LVU2064
 7819 000c FFF7FEFF 		bl	_ZN5daisy5Dubby10DrawBitmapEi
 7820              	.LVL566:
 339:Dubby.cpp     ****     display.SetCursor(20, 55);
 7821              		.loc 2 339 5 is_stmt 1 view .LVU2065
 7822              	.LBB1744:
 7823              	.LBI1740:
 171:../../libDaisy//src/hid/disp/display.h ****     {
 7824              		.loc 3 171 10 view .LVU2066
 7825              	.LBB1742:
 173:../../libDaisy//src/hid/disp/display.h ****         currentY_ = (y >= Height()) ? Height() - 1 : y;
 7826              		.loc 3 173 9 view .LVU2067
ARM GAS  /var/folders/1y/_321xjh9623c014x9_qw12rr0000gn/T//ccE17DNe.s 			page 222


 174:../../libDaisy//src/hid/disp/display.h ****     }
 7827              		.loc 3 174 9 view .LVU2068
 7828              	.LBE1742:
 7829              	.LBE1744:
 340:Dubby.cpp     ****     display.WriteString("FIRMWARE UPDATE", Font_6x8, true);
 7830              		.loc 2 340 24 is_stmt 0 view .LVU2069
 7831 0010 0120     		movs	r0, #1
 7832 0012 294B     		ldr	r3, .L495+4
 7833              	.LBB1745:
 7834              	.LBB1746:
 7835              	.LBB1747:
 7836              	.LBB1748:
 7837              	.LBB1749:
 124:../../libDaisy//src/dev/oled_ssd130x.h ****         spi_.BlockingTransmit(&cmd, 1);
 7838              		.loc 4 124 24 view .LVU2070
 7839 0014 05F59667 		add	r7, r5, #1200
 7840              	.LBE1749:
 7841              	.LBE1748:
 7842              	.LBE1747:
 7843              	.LBE1746:
 7844              	.LBE1745:
 7845              	.LBB1773:
 7846              	.LBB1743:
 173:../../libDaisy//src/hid/disp/display.h ****         currentY_ = (y >= Height()) ? Height() - 1 : y;
 7847              		.loc 3 173 19 view .LVU2071
 7848 0018 C5F8AC44 		str	r4, [r5, #1196]
 7849              	.LVL567:
 173:../../libDaisy//src/hid/disp/display.h ****         currentY_ = (y >= Height()) ? Height() - 1 : y;
 7850              		.loc 3 173 19 view .LVU2072
 7851              	.LBE1743:
 7852              	.LBE1773:
 340:Dubby.cpp     ****     display.WriteString("FIRMWARE UPDATE", Font_6x8, true);
 7853              		.loc 2 340 5 is_stmt 1 view .LVU2073
 7854              	.LBB1774:
 7855              	.LBB1771:
 7856              	.LBB1769:
 7857              	.LBB1755:
 7858              	.LBB1750:
 124:../../libDaisy//src/dev/oled_ssd130x.h ****         spi_.BlockingTransmit(&cmd, 1);
 7859              		.loc 4 124 24 is_stmt 0 view .LVU2074
 7860 001c 05F59766 		add	r6, r5, #1208
 125:../../libDaisy//src/dev/oled_ssd130x.h ****     };
 7861              		.loc 4 125 30 view .LVU2075
 7862 0020 B024     		movs	r4, #176
 7863              	.LBE1750:
 7864              	.LBE1755:
 7865              	.LBE1769:
 7866              	.LBE1771:
 7867              	.LBE1774:
 340:Dubby.cpp     ****     display.WriteString("FIRMWARE UPDATE", Font_6x8, true);
 7868              		.loc 2 340 24 view .LVU2076
 7869 0022 2649     		ldr	r1, .L495+8
 7870 0024 0CCB     		ldm	r3, {r2, r3}
 7871 0026 0090     		str	r0, [sp]
 7872 0028 05F59560 		add	r0, r5, #1192
 7873 002c 05F2BC45 		addw	r5, r5, #1212
 7874              	.LVL568:
ARM GAS  /var/folders/1y/_321xjh9623c014x9_qw12rr0000gn/T//ccE17DNe.s 			page 223


 340:Dubby.cpp     ****     display.WriteString("FIRMWARE UPDATE", Font_6x8, true);
 7875              		.loc 2 340 24 view .LVU2077
 7876 0030 FFF7FEFF 		bl	_ZN5daisy25OneBitGraphicsDisplayImplINS_11OledDisplayINS_13SSD130xDriverILj128ELj64ENS_24SSD130
 7877              	.LVL569:
 342:Dubby.cpp     ****     display.Update();
 7878              		.loc 2 342 5 is_stmt 1 view .LVU2078
 7879              	.LBB1775:
 7880              	.LBI1745:
 7881              		.loc 1 51 10 view .LVU2079
 7882              	.LBB1772:
 7883              	.LBI1746:
 373:../../libDaisy//src/dev/oled_ssd130x.h ****     {
 7884              		.loc 4 373 10 view .LVU2080
 7885              	.LBB1770:
 7886              		.loc 4 383 22 view .LVU2081
 7887              	.L492:
 7888              		.loc 4 383 22 is_stmt 0 view .LVU2082
 7889 0034 4FF00008 		mov	r8, #0
 7890              	.LBB1756:
 7891              	.LBB1751:
 124:../../libDaisy//src/dev/oled_ssd130x.h ****         spi_.BlockingTransmit(&cmd, 1);
 7892              		.loc 4 124 23 view .LVU2083
 7893 0038 3046     		mov	r0, r6
 7894 003a 8DF80F40 		strb	r4, [sp, #15]
 7895              	.LVL570:
 124:../../libDaisy//src/dev/oled_ssd130x.h ****         spi_.BlockingTransmit(&cmd, 1);
 7896              		.loc 4 124 23 view .LVU2084
 7897              	.LBE1751:
 7898              	.LBI1748:
 122:../../libDaisy//src/dev/oled_ssd130x.h ****     {
 7899              		.loc 4 122 10 is_stmt 1 view .LVU2085
 7900              	.LBB1752:
 124:../../libDaisy//src/dev/oled_ssd130x.h ****         spi_.BlockingTransmit(&cmd, 1);
 7901              		.loc 4 124 9 view .LVU2086
 7902              	.LBE1752:
 7903              	.LBE1756:
 7904              		.loc 4 383 22 is_stmt 0 view .LVU2087
 7905 003e 0134     		adds	r4, r4, #1
 7906              	.LVL571:
 7907              	.LBB1757:
 7908              	.LBB1753:
 124:../../libDaisy//src/dev/oled_ssd130x.h ****         spi_.BlockingTransmit(&cmd, 1);
 7909              		.loc 4 124 23 view .LVU2088
 7910 0040 4146     		mov	r1, r8
 7911 0042 FFF7FEFF 		bl	dsy_gpio_write
 7912              	.LVL572:
 125:../../libDaisy//src/dev/oled_ssd130x.h ****     };
 7913              		.loc 4 125 9 is_stmt 1 view .LVU2089
 125:../../libDaisy//src/dev/oled_ssd130x.h ****     };
 7914              		.loc 4 125 30 is_stmt 0 view .LVU2090
 7915 0046 6423     		movs	r3, #100
 7916 0048 0122     		movs	r2, #1
 7917 004a 0DF10F01 		add	r1, sp, #15
 7918 004e 3846     		mov	r0, r7
 7919              	.LBE1753:
 7920              	.LBE1757:
 7921              		.loc 4 383 22 view .LVU2091
ARM GAS  /var/folders/1y/_321xjh9623c014x9_qw12rr0000gn/T//ccE17DNe.s 			page 224


 7922 0050 E4B2     		uxtb	r4, r4
 7923              	.LBB1758:
 7924              	.LBB1754:
 125:../../libDaisy//src/dev/oled_ssd130x.h ****     };
 7925              		.loc 4 125 30 view .LVU2092
 7926 0052 FFF7FEFF 		bl	_ZN5daisy9SpiHandle16BlockingTransmitEPhjm
 7927              	.LVL573:
 125:../../libDaisy//src/dev/oled_ssd130x.h ****     };
 7928              		.loc 4 125 30 view .LVU2093
 7929              	.LBE1754:
 7930              	.LBE1758:
 7931              	.LBB1759:
 7932              	.LBB1760:
 124:../../libDaisy//src/dev/oled_ssd130x.h ****         spi_.BlockingTransmit(&cmd, 1);
 7933              		.loc 4 124 23 view .LVU2094
 7934 0056 4146     		mov	r1, r8
 7935 0058 3046     		mov	r0, r6
 7936 005a 8DF80F80 		strb	r8, [sp, #15]
 7937              	.LVL574:
 124:../../libDaisy//src/dev/oled_ssd130x.h ****         spi_.BlockingTransmit(&cmd, 1);
 7938              		.loc 4 124 23 view .LVU2095
 7939              	.LBE1760:
 7940              	.LBI1759:
 122:../../libDaisy//src/dev/oled_ssd130x.h ****     {
 7941              		.loc 4 122 10 is_stmt 1 view .LVU2096
 7942              	.LBB1761:
 124:../../libDaisy//src/dev/oled_ssd130x.h ****         spi_.BlockingTransmit(&cmd, 1);
 7943              		.loc 4 124 9 view .LVU2097
 124:../../libDaisy//src/dev/oled_ssd130x.h ****         spi_.BlockingTransmit(&cmd, 1);
 7944              		.loc 4 124 23 is_stmt 0 view .LVU2098
 7945 005e FFF7FEFF 		bl	dsy_gpio_write
 7946              	.LVL575:
 125:../../libDaisy//src/dev/oled_ssd130x.h ****     };
 7947              		.loc 4 125 9 is_stmt 1 view .LVU2099
 125:../../libDaisy//src/dev/oled_ssd130x.h ****     };
 7948              		.loc 4 125 30 is_stmt 0 view .LVU2100
 7949 0062 0122     		movs	r2, #1
 7950 0064 6423     		movs	r3, #100
 7951 0066 0DF10F01 		add	r1, sp, #15
 7952 006a 3846     		mov	r0, r7
 7953 006c FFF7FEFF 		bl	_ZN5daisy9SpiHandle16BlockingTransmitEPhjm
 7954              	.LVL576:
 125:../../libDaisy//src/dev/oled_ssd130x.h ****     };
 7955              		.loc 4 125 30 view .LVU2101
 7956 0070 1023     		movs	r3, #16
 7957              	.LBE1761:
 7958              	.LBE1759:
 7959              	.LBB1762:
 7960              	.LBB1763:
 124:../../libDaisy//src/dev/oled_ssd130x.h ****         spi_.BlockingTransmit(&cmd, 1);
 7961              		.loc 4 124 23 view .LVU2102
 7962 0072 4146     		mov	r1, r8
 7963 0074 3046     		mov	r0, r6
 7964 0076 8DF80F30 		strb	r3, [sp, #15]
 7965              	.LVL577:
 124:../../libDaisy//src/dev/oled_ssd130x.h ****         spi_.BlockingTransmit(&cmd, 1);
 7966              		.loc 4 124 23 view .LVU2103
ARM GAS  /var/folders/1y/_321xjh9623c014x9_qw12rr0000gn/T//ccE17DNe.s 			page 225


 7967              	.LBE1763:
 7968              	.LBI1762:
 122:../../libDaisy//src/dev/oled_ssd130x.h ****     {
 7969              		.loc 4 122 10 is_stmt 1 view .LVU2104
 7970              	.LBB1764:
 124:../../libDaisy//src/dev/oled_ssd130x.h ****         spi_.BlockingTransmit(&cmd, 1);
 7971              		.loc 4 124 9 view .LVU2105
 124:../../libDaisy//src/dev/oled_ssd130x.h ****         spi_.BlockingTransmit(&cmd, 1);
 7972              		.loc 4 124 23 is_stmt 0 view .LVU2106
 7973 007a FFF7FEFF 		bl	dsy_gpio_write
 7974              	.LVL578:
 125:../../libDaisy//src/dev/oled_ssd130x.h ****     };
 7975              		.loc 4 125 9 is_stmt 1 view .LVU2107
 125:../../libDaisy//src/dev/oled_ssd130x.h ****     };
 7976              		.loc 4 125 30 is_stmt 0 view .LVU2108
 7977 007e 6423     		movs	r3, #100
 7978 0080 0122     		movs	r2, #1
 7979 0082 0DF10F01 		add	r1, sp, #15
 7980 0086 3846     		mov	r0, r7
 7981 0088 FFF7FEFF 		bl	_ZN5daisy9SpiHandle16BlockingTransmitEPhjm
 7982              	.LVL579:
 125:../../libDaisy//src/dev/oled_ssd130x.h ****     };
 7983              		.loc 4 125 30 view .LVU2109
 7984              	.LBE1764:
 7985              	.LBE1762:
 7986              	.LBB1765:
 7987              	.LBI1765:
 128:../../libDaisy//src/dev/oled_ssd130x.h ****     {
 7988              		.loc 4 128 10 is_stmt 1 view .LVU2110
 7989              	.LBB1766:
 130:../../libDaisy//src/dev/oled_ssd130x.h ****         spi_.BlockingTransmit(buff, size);
 7990              		.loc 4 130 9 view .LVU2111
 130:../../libDaisy//src/dev/oled_ssd130x.h ****         spi_.BlockingTransmit(buff, size);
 7991              		.loc 4 130 23 is_stmt 0 view .LVU2112
 7992 008c 0121     		movs	r1, #1
 7993 008e 3046     		mov	r0, r6
 7994 0090 FFF7FEFF 		bl	dsy_gpio_write
 7995              	.LVL580:
 131:../../libDaisy//src/dev/oled_ssd130x.h ****     };
 7996              		.loc 4 131 9 is_stmt 1 view .LVU2113
 131:../../libDaisy//src/dev/oled_ssd130x.h ****     };
 7997              		.loc 4 131 30 is_stmt 0 view .LVU2114
 7998 0094 8022     		movs	r2, #128
 7999 0096 2946     		mov	r1, r5
 8000 0098 6423     		movs	r3, #100
 8001 009a 3846     		mov	r0, r7
 8002              	.LBE1766:
 8003              	.LBE1765:
 8004              		.loc 4 383 22 view .LVU2115
 8005 009c 1544     		add	r5, r5, r2
 8006              	.LVL581:
 8007              	.LBB1768:
 8008              	.LBB1767:
 131:../../libDaisy//src/dev/oled_ssd130x.h ****     };
 8009              		.loc 4 131 30 view .LVU2116
 8010 009e FFF7FEFF 		bl	_ZN5daisy9SpiHandle16BlockingTransmitEPhjm
 8011              	.LVL582:
ARM GAS  /var/folders/1y/_321xjh9623c014x9_qw12rr0000gn/T//ccE17DNe.s 			page 226


 131:../../libDaisy//src/dev/oled_ssd130x.h ****     };
 8012              		.loc 4 131 30 view .LVU2117
 8013              	.LBE1767:
 8014              	.LBE1768:
 8015              		.loc 4 383 9 is_stmt 1 view .LVU2118
 8016              		.loc 4 383 22 view .LVU2119
 8017 00a2 B82C     		cmp	r4, #184
 8018 00a4 C6D1     		bne	.L492
 8019              	.LVL583:
 8020              		.loc 4 383 22 is_stmt 0 view .LVU2120
 8021              	.LBE1770:
 8022              	.LBE1772:
 8023              	.LBE1775:
 344:Dubby.cpp     ****     System::ResetToBootloader(System::DAISY_INFINITE_TIMEOUT);
 8024              		.loc 2 344 5 is_stmt 1 view .LVU2121
 344:Dubby.cpp     ****     System::ResetToBootloader(System::DAISY_INFINITE_TIMEOUT);
 8025              		.loc 2 344 30 is_stmt 0 view .LVU2122
 8026 00a6 0320     		movs	r0, #3
 345:Dubby.cpp     **** }
 8027              		.loc 2 345 1 view .LVU2123
 8028 00a8 04B0     		add	sp, sp, #16
 8029              		.cfi_def_cfa_offset 24
 8030              		@ sp needed
 8031 00aa BDE8F041 		pop	{r4, r5, r6, r7, r8, lr}
 8032              		.cfi_restore 14
 8033              		.cfi_restore 8
 8034              		.cfi_restore 7
 8035              		.cfi_restore 6
 8036              		.cfi_restore 5
 8037              		.cfi_restore 4
 8038              		.cfi_def_cfa_offset 0
 8039              	.LVL584:
 344:Dubby.cpp     ****     System::ResetToBootloader(System::DAISY_INFINITE_TIMEOUT);
 8040              		.loc 2 344 30 view .LVU2124
 8041 00ae FFF7FEBF 		b	_ZN5daisy6System17ResetToBootloaderENS0_14BootloaderModeE
 8042              	.LVL585:
 8043              	.L496:
 8044 00b2 00BF     		.align	2
 8045              	.L495:
 8046 00b4 14003700 		.word	3604500
 8047 00b8 00000000 		.word	Font_6x8
 8048 00bc 00000000 		.word	.LC15
 8049              		.cfi_endproc
 8050              	.LFE3746:
 8052              		.section	.text._ZN5daisy5Dubby13UpdateDisplayEv,"ax",%progbits
 8053              		.align	1
 8054              		.p2align 2,,3
 8055              		.global	_ZN5daisy5Dubby13UpdateDisplayEv
 8056              		.syntax unified
 8057              		.thumb
 8058              		.thumb_func
 8060              	_ZN5daisy5Dubby13UpdateDisplayEv:
 8061              	.LVL586:
 8062              	.LFB3734:
 119:Dubby.cpp     **** {
 8063              		.loc 2 119 1 is_stmt 1 view -0
 8064              		.cfi_startproc
ARM GAS  /var/folders/1y/_321xjh9623c014x9_qw12rr0000gn/T//ccE17DNe.s 			page 227


 8065              		@ args = 0, pretend = 0, frame = 8
 8066              		@ frame_needed = 0, uses_anonymous_args = 0
 120:Dubby.cpp     ****     if (encoder.TimeHeldMs() > 300) 
 8067              		.loc 2 120 5 view .LVU2126
 119:Dubby.cpp     **** {
 8068              		.loc 2 119 1 is_stmt 0 view .LVU2127
 8069 0000 2DE9F043 		push	{r4, r5, r6, r7, r8, r9, lr}
 8070              		.cfi_def_cfa_offset 28
 8071              		.cfi_offset 4, -28
 8072              		.cfi_offset 5, -24
 8073              		.cfi_offset 6, -20
 8074              		.cfi_offset 7, -16
 8075              		.cfi_offset 8, -12
 8076              		.cfi_offset 9, -8
 8077              		.cfi_offset 14, -4
 8078              	.LBB1834:
 8079              	.LBB1835:
 8080              	.LBB1836:
 8081              		.file 15 "../../libDaisy//src/hid/switch.h"
   1:../../libDaisy//src/hid/switch.h **** #pragma once
   2:../../libDaisy//src/hid/switch.h **** #ifndef DSY_SWITCH_H
   3:../../libDaisy//src/hid/switch.h **** #define DSY_SWITCH_H
   4:../../libDaisy//src/hid/switch.h **** #include "daisy_core.h"
   5:../../libDaisy//src/hid/switch.h **** #include "per/gpio.h"
   6:../../libDaisy//src/hid/switch.h **** #include "sys/system.h"
   7:../../libDaisy//src/hid/switch.h **** 
   8:../../libDaisy//src/hid/switch.h **** namespace daisy
   9:../../libDaisy//src/hid/switch.h **** {
  10:../../libDaisy//src/hid/switch.h **** /** 
  11:../../libDaisy//src/hid/switch.h ****     Generic Class for handling momentary/latching switches \n 
  12:../../libDaisy//src/hid/switch.h ****     Inspired/influenced by Mutable Instruments (pichenettes) Switch classes
  13:../../libDaisy//src/hid/switch.h ****     @author Stephen Hensley
  14:../../libDaisy//src/hid/switch.h ****     @date December 2019
  15:../../libDaisy//src/hid/switch.h ****     @ingroup controls
  16:../../libDaisy//src/hid/switch.h **** */
  17:../../libDaisy//src/hid/switch.h **** class Switch
  18:../../libDaisy//src/hid/switch.h **** {
  19:../../libDaisy//src/hid/switch.h ****   public:
  20:../../libDaisy//src/hid/switch.h ****     /** Specifies the expected behavior of the switch */
  21:../../libDaisy//src/hid/switch.h ****     enum Type
  22:../../libDaisy//src/hid/switch.h ****     {
  23:../../libDaisy//src/hid/switch.h ****         TYPE_TOGGLE,    /**< & */
  24:../../libDaisy//src/hid/switch.h ****         TYPE_MOMENTARY, /**< & */
  25:../../libDaisy//src/hid/switch.h ****     };
  26:../../libDaisy//src/hid/switch.h ****     /** Specifies whether the pressed is HIGH or LOW. */
  27:../../libDaisy//src/hid/switch.h ****     enum Polarity
  28:../../libDaisy//src/hid/switch.h ****     {
  29:../../libDaisy//src/hid/switch.h ****         POLARITY_NORMAL,   /**< & */
  30:../../libDaisy//src/hid/switch.h ****         POLARITY_INVERTED, /**< & */
  31:../../libDaisy//src/hid/switch.h ****     };
  32:../../libDaisy//src/hid/switch.h **** 
  33:../../libDaisy//src/hid/switch.h ****     /** Specifies whether to use built-in Pull Up/Down resistors to hold button at a given state wh
  34:../../libDaisy//src/hid/switch.h ****     enum Pull
  35:../../libDaisy//src/hid/switch.h ****     {
  36:../../libDaisy//src/hid/switch.h ****         PULL_UP,   /**< & */
  37:../../libDaisy//src/hid/switch.h ****         PULL_DOWN, /**< & */
  38:../../libDaisy//src/hid/switch.h ****         PULL_NONE, /**< & */
ARM GAS  /var/folders/1y/_321xjh9623c014x9_qw12rr0000gn/T//ccE17DNe.s 			page 228


  39:../../libDaisy//src/hid/switch.h ****     };
  40:../../libDaisy//src/hid/switch.h **** 
  41:../../libDaisy//src/hid/switch.h ****     Switch() {}
  42:../../libDaisy//src/hid/switch.h ****     ~Switch() {}
  43:../../libDaisy//src/hid/switch.h **** 
  44:../../libDaisy//src/hid/switch.h ****     /** 
  45:../../libDaisy//src/hid/switch.h ****     Initializes the switch object with a given port/pin combo.
  46:../../libDaisy//src/hid/switch.h ****     \param pin port/pin object to tell the switch which hardware pin to use.
  47:../../libDaisy//src/hid/switch.h ****     \param update_rate Does nothing. Backwards compatibility until next breaking update.
  48:../../libDaisy//src/hid/switch.h ****     \param t switch type -- Default: TYPE_MOMENTARY
  49:../../libDaisy//src/hid/switch.h ****     \param pol switch polarity -- Default: POLARITY_INVERTED
  50:../../libDaisy//src/hid/switch.h ****     \param pu switch pull up/down -- Default: PULL_UP
  51:../../libDaisy//src/hid/switch.h ****     */
  52:../../libDaisy//src/hid/switch.h ****     void
  53:../../libDaisy//src/hid/switch.h ****     Init(dsy_gpio_pin pin, float update_rate, Type t, Polarity pol, Pull pu);
  54:../../libDaisy//src/hid/switch.h **** 
  55:../../libDaisy//src/hid/switch.h ****     /**
  56:../../libDaisy//src/hid/switch.h ****        Simplified Init.
  57:../../libDaisy//src/hid/switch.h ****        \param pin port/pin object to tell the switch which hardware pin to use.
  58:../../libDaisy//src/hid/switch.h ****        \param update_rate Left for backwards compatibility until next breaking change.
  59:../../libDaisy//src/hid/switch.h ****     */
  60:../../libDaisy//src/hid/switch.h ****     void Init(dsy_gpio_pin pin, float update_rate = 0.f);
  61:../../libDaisy//src/hid/switch.h **** 
  62:../../libDaisy//src/hid/switch.h ****     /** 
  63:../../libDaisy//src/hid/switch.h ****     Called at update_rate to debounce and handle timing for the switch.
  64:../../libDaisy//src/hid/switch.h ****     In order for events not to be missed, its important that the Edge/Pressed checks
  65:../../libDaisy//src/hid/switch.h ****     be made at the same rate as the debounce function is being called.
  66:../../libDaisy//src/hid/switch.h ****     */
  67:../../libDaisy//src/hid/switch.h ****     void Debounce();
  68:../../libDaisy//src/hid/switch.h **** 
  69:../../libDaisy//src/hid/switch.h ****     /** \return true if a button was just pressed. */
  70:../../libDaisy//src/hid/switch.h ****     inline bool RisingEdge() const { return updated_ ? state_ == 0x7f : false; }
  71:../../libDaisy//src/hid/switch.h **** 
  72:../../libDaisy//src/hid/switch.h ****     /** \return true if the button was just released */
  73:../../libDaisy//src/hid/switch.h ****     inline bool FallingEdge() const
  74:../../libDaisy//src/hid/switch.h ****     {
  75:../../libDaisy//src/hid/switch.h ****         return updated_ ? state_ == 0x80 : false;
  76:../../libDaisy//src/hid/switch.h ****     }
  77:../../libDaisy//src/hid/switch.h **** 
  78:../../libDaisy//src/hid/switch.h ****     /** \return true if the button is held down (or if the toggle is on) */
  79:../../libDaisy//src/hid/switch.h ****     inline bool Pressed() const { return state_ == 0xff; }
  80:../../libDaisy//src/hid/switch.h **** 
  81:../../libDaisy//src/hid/switch.h ****     /** \return true if the button is held down, without debouncing */
  82:../../libDaisy//src/hid/switch.h ****     inline bool RawState()
  83:../../libDaisy//src/hid/switch.h ****     {
  84:../../libDaisy//src/hid/switch.h ****         return flip_ ? !dsy_gpio_read(&hw_gpio_) : dsy_gpio_read(&hw_gpio_);
  85:../../libDaisy//src/hid/switch.h ****     }
  86:../../libDaisy//src/hid/switch.h **** 
  87:../../libDaisy//src/hid/switch.h ****     /** \return the time in milliseconds that the button has been held (or toggle has been on) */
  88:../../libDaisy//src/hid/switch.h ****     inline float TimeHeldMs() const
  89:../../libDaisy//src/hid/switch.h ****     {
  90:../../libDaisy//src/hid/switch.h ****         return Pressed() ? System::GetNow() - rising_edge_time_ : 0;
 8082              		.loc 15 90 26 view .LVU2128
 8083 0004 90F80A31 		ldrb	r3, [r0, #266]	@ zero_extendqisi2
 8084              	.LBE1836:
 8085              	.LBE1835:
 8086              	.LBE1834:
ARM GAS  /var/folders/1y/_321xjh9623c014x9_qw12rr0000gn/T//ccE17DNe.s 			page 229


 119:Dubby.cpp     **** {
 8087              		.loc 2 119 1 view .LVU2129
 8088 0008 83B0     		sub	sp, sp, #12
 8089              		.cfi_def_cfa_offset 40
 119:Dubby.cpp     **** {
 8090              		.loc 2 119 1 view .LVU2130
 8091 000a 0446     		mov	r4, r0
 8092              	.LVL587:
 8093              	.LBB1849:
 8094              	.LBI1834:
 8095              		.file 16 "../../libDaisy//src/hid/encoder.h"
   1:../../libDaisy//src/hid/encoder.h **** #pragma once
   2:../../libDaisy//src/hid/encoder.h **** #ifndef DSY_ENCODER_H
   3:../../libDaisy//src/hid/encoder.h **** #define DSY_ENCODER_H
   4:../../libDaisy//src/hid/encoder.h **** #include "daisy_core.h"
   5:../../libDaisy//src/hid/encoder.h **** #include "per/gpio.h"
   6:../../libDaisy//src/hid/encoder.h **** #include "hid/switch.h"
   7:../../libDaisy//src/hid/encoder.h **** 
   8:../../libDaisy//src/hid/encoder.h **** namespace daisy
   9:../../libDaisy//src/hid/encoder.h **** {
  10:../../libDaisy//src/hid/encoder.h **** /** 
  11:../../libDaisy//src/hid/encoder.h ****     @brief Generic Class for handling Quadrature Encoders \n 
  12:../../libDaisy//src/hid/encoder.h ****     Inspired/influenced by Mutable Instruments (pichenettes) Encoder classes
  13:../../libDaisy//src/hid/encoder.h ****     @author Stephen Hensley
  14:../../libDaisy//src/hid/encoder.h ****     @date December 2019
  15:../../libDaisy//src/hid/encoder.h ****     @ingroup controls
  16:../../libDaisy//src/hid/encoder.h **** */
  17:../../libDaisy//src/hid/encoder.h **** class Encoder
  18:../../libDaisy//src/hid/encoder.h **** {
  19:../../libDaisy//src/hid/encoder.h ****   public:
  20:../../libDaisy//src/hid/encoder.h ****     Encoder() {}
  21:../../libDaisy//src/hid/encoder.h ****     ~Encoder() {}
  22:../../libDaisy//src/hid/encoder.h **** 
  23:../../libDaisy//src/hid/encoder.h ****     /** Initializes the encoder with the specified hardware pins.
  24:../../libDaisy//src/hid/encoder.h ****      * Update rate is to be deprecated in a future release
  25:../../libDaisy//src/hid/encoder.h ****      */
  26:../../libDaisy//src/hid/encoder.h ****     void Init(dsy_gpio_pin a,
  27:../../libDaisy//src/hid/encoder.h ****               dsy_gpio_pin b,
  28:../../libDaisy//src/hid/encoder.h ****               dsy_gpio_pin click,
  29:../../libDaisy//src/hid/encoder.h ****               float        update_rate = 0.f);
  30:../../libDaisy//src/hid/encoder.h ****     /** Called at update_rate to debounce and handle timing for the switch.
  31:../../libDaisy//src/hid/encoder.h ****      * In order for events not to be missed, its important that the Edge/Pressed checks be made at 
  32:../../libDaisy//src/hid/encoder.h ****      */
  33:../../libDaisy//src/hid/encoder.h ****     void Debounce();
  34:../../libDaisy//src/hid/encoder.h **** 
  35:../../libDaisy//src/hid/encoder.h ****     /** Returns +1 if the encoder was turned clockwise, -1 if it was turned counter-clockwise, or 0
  36:../../libDaisy//src/hid/encoder.h ****     inline int32_t Increment() const { return updated_ ? inc_ : 0; }
  37:../../libDaisy//src/hid/encoder.h **** 
  38:../../libDaisy//src/hid/encoder.h ****     /** Returns true if the encoder was just pressed. */
  39:../../libDaisy//src/hid/encoder.h ****     inline bool RisingEdge() const { return sw_.RisingEdge(); }
  40:../../libDaisy//src/hid/encoder.h **** 
  41:../../libDaisy//src/hid/encoder.h ****     /** Returns true if the encoder was just released. */
  42:../../libDaisy//src/hid/encoder.h ****     inline bool FallingEdge() const { return sw_.FallingEdge(); }
  43:../../libDaisy//src/hid/encoder.h **** 
  44:../../libDaisy//src/hid/encoder.h ****     /** Returns true while the encoder is held down.*/
  45:../../libDaisy//src/hid/encoder.h ****     inline bool Pressed() const { return sw_.Pressed(); }
  46:../../libDaisy//src/hid/encoder.h **** 
ARM GAS  /var/folders/1y/_321xjh9623c014x9_qw12rr0000gn/T//ccE17DNe.s 			page 230


  47:../../libDaisy//src/hid/encoder.h ****     /** Returns the time in milliseconds that the encoder has been held down. */
  48:../../libDaisy//src/hid/encoder.h ****     inline float TimeHeldMs() const { return sw_.TimeHeldMs(); }
 8096              		.loc 16 48 18 is_stmt 1 view .LVU2131
 8097              	.LBE1849:
 8098              		.loc 16 48 39 view .LVU2132
 8099              	.LBB1850:
 8100              	.LBB1846:
 8101              	.LBI1835:
  88:../../libDaisy//src/hid/switch.h ****     {
 8102              		.loc 15 88 18 view .LVU2133
 8103              	.LBB1843:
 8104              		.loc 15 90 9 view .LVU2134
 8105              	.LBB1837:
 8106              	.LBI1837:
  79:../../libDaisy//src/hid/switch.h **** 
 8107              		.loc 15 79 17 view .LVU2135
 8108              	.LBB1838:
  79:../../libDaisy//src/hid/switch.h **** 
 8109              		.loc 15 79 35 view .LVU2136
  79:../../libDaisy//src/hid/switch.h **** 
 8110              		.loc 15 79 35 is_stmt 0 view .LVU2137
 8111              	.LBE1838:
 8112              	.LBE1837:
 8113              		.loc 15 90 26 view .LVU2138
 8114 000c FF2B     		cmp	r3, #255
 8115 000e 13D0     		beq	.L576
 8116              	.LVL588:
 8117              		.loc 15 90 26 view .LVU2139
 8118              	.LBE1843:
 8119              	.LBE1846:
 8120              	.LBE1850:
 131:Dubby.cpp     ****     switch(menuItemSelected) 
 8121              		.loc 2 131 5 is_stmt 1 view .LVU2140
 131:Dubby.cpp     ****     switch(menuItemSelected) 
 8122              		.loc 2 131 12 is_stmt 0 view .LVU2141
 8123 0010 90F85C30 		ldrb	r3, [r0, #92]	@ zero_extendqisi2
 131:Dubby.cpp     ****     switch(menuItemSelected) 
 8124              		.loc 2 131 5 view .LVU2142
 8125 0014 012B     		cmp	r3, #1
 8126 0016 00F0C780 		beq	.L500
 8127 001a 022B     		cmp	r3, #2
 8128 001c 00F0E980 		beq	.L511
 8129 0020 002B     		cmp	r3, #0
 8130 0022 00F0B180 		beq	.L502
 8131              	.LVL589:
 8132              	.L518:
 147:Dubby.cpp     ****     if (encoder.TimeHeldMs() < 300 && menuActive)
 8133              		.loc 2 147 39 discriminator 1 view .LVU2143
 8134 0026 04F51043 		add	r3, r4, #36864
 147:Dubby.cpp     ****     if (encoder.TimeHeldMs() < 300 && menuActive)
 8135              		.loc 2 147 36 discriminator 1 view .LVU2144
 8136 002a 93F8242A 		ldrb	r2, [r3, #2596]	@ zero_extendqisi2
 8137 002e 002A     		cmp	r2, #0
 8138 0030 40D1     		bne	.L522
 8139              	.L497:
 154:Dubby.cpp     **** }
 8140              		.loc 2 154 1 view .LVU2145
ARM GAS  /var/folders/1y/_321xjh9623c014x9_qw12rr0000gn/T//ccE17DNe.s 			page 231


 8141 0032 03B0     		add	sp, sp, #12
 8142              		.cfi_remember_state
 8143              		.cfi_def_cfa_offset 28
 8144              		@ sp needed
 8145 0034 BDE8F083 		pop	{r4, r5, r6, r7, r8, r9, pc}
 8146              	.LVL590:
 8147              	.L576:
 8148              		.cfi_restore_state
 8149              	.LBB1851:
 8150              	.LBB1847:
 8151              	.LBB1844:
 8152              	.LBB1839:
 8153              	.LBI1839:
  88:../../libDaisy//src/hid/switch.h ****     {
 8154              		.loc 15 88 18 is_stmt 1 view .LVU2146
 8155              	.LBB1840:
 8156              		.loc 15 90 42 is_stmt 0 view .LVU2147
 8157 0038 FFF7FEFF 		bl	_ZN5daisy6System6GetNowEv
 8158              	.LVL591:
 8159              		.loc 15 90 45 view .LVU2148
 8160 003c 07EE900A 		vmov	s15, r0	@ int
 8161              		.loc 15 90 26 view .LVU2149
 8162 0040 D4ED436A 		vldr.32	s13, [r4, #268]
 8163              		.loc 15 90 45 view .LVU2150
 8164 0044 F8EE677A 		vcvt.f32.u32	s15, s15
 8165              	.LBE1840:
 8166              	.LBE1839:
 8167              	.LBE1844:
 8168              	.LBE1847:
 8169              	.LBE1851:
 120:Dubby.cpp     ****     if (encoder.TimeHeldMs() > 300) 
 8170              		.loc 2 120 5 view .LVU2151
 8171 0048 9FED8B7A 		vldr.32	s14, .L582
 8172              	.LBB1852:
 8173              	.LBB1848:
 8174              	.LBB1845:
 8175              	.LBB1842:
 8176              	.LBB1841:
 8177              		.loc 15 90 26 view .LVU2152
 8178 004c 77EEE67A 		vsub.f32	s15, s15, s13
 8179              	.LBE1841:
 8180              	.LBE1842:
 8181              	.LBE1845:
 8182              	.LBE1848:
 8183              	.LBE1852:
 120:Dubby.cpp     ****     if (encoder.TimeHeldMs() > 300) 
 8184              		.loc 2 120 5 view .LVU2153
 8185 0050 F4EEC77A 		vcmpe.f32	s15, s14
 8186 0054 F1EE10FA 		vmrs	APSR_nzcv, FPSCR
 8187 0058 09DD     		ble	.L505
 122:Dubby.cpp     ****         if (!menuActive) 
 8188              		.loc 2 122 9 is_stmt 1 view .LVU2154
 122:Dubby.cpp     ****         if (!menuActive) 
 8189              		.loc 2 122 14 is_stmt 0 view .LVU2155
 8190 005a 04F51045 		add	r5, r4, #36864
 122:Dubby.cpp     ****         if (!menuActive) 
 8191              		.loc 2 122 9 view .LVU2156
ARM GAS  /var/folders/1y/_321xjh9623c014x9_qw12rr0000gn/T//ccE17DNe.s 			page 232


 8192 005e 95F8243A 		ldrb	r3, [r5, #2596]	@ zero_extendqisi2
 8193 0062 002B     		cmp	r3, #0
 8194 0064 00F0B980 		beq	.L577
 128:Dubby.cpp     ****         if (encoder.Increment()) UpdateMenu(encoder.Increment(), true);
 8195              		.loc 2 128 9 is_stmt 1 view .LVU2157
 8196              	.LVL592:
 8197              	.LBB1853:
 8198              	.LBI1853:
  36:../../libDaisy//src/hid/encoder.h **** 
 8199              		.loc 16 36 20 view .LVU2158
 8200              	.LBB1854:
  36:../../libDaisy//src/hid/encoder.h **** 
 8201              		.loc 16 36 40 view .LVU2159
  36:../../libDaisy//src/hid/encoder.h **** 
 8202              		.loc 16 36 56 is_stmt 0 view .LVU2160
 8203 0068 94F8FC30 		ldrb	r3, [r4, #252]	@ zero_extendqisi2
 8204 006c 73BB     		cbnz	r3, .L578
 8205              	.LVL593:
 8206              	.L505:
  36:../../libDaisy//src/hid/encoder.h **** 
 8207              		.loc 16 36 56 view .LVU2161
 8208              	.LBE1854:
 8209              	.LBE1853:
 131:Dubby.cpp     ****     switch(menuItemSelected) 
 8210              		.loc 2 131 5 is_stmt 1 view .LVU2162
 131:Dubby.cpp     ****     switch(menuItemSelected) 
 8211              		.loc 2 131 12 is_stmt 0 view .LVU2163
 8212 006e 94F85C30 		ldrb	r3, [r4, #92]	@ zero_extendqisi2
 131:Dubby.cpp     ****     switch(menuItemSelected) 
 8213              		.loc 2 131 5 view .LVU2164
 8214 0072 012B     		cmp	r3, #1
 8215 0074 00F09880 		beq	.L500
 8216 0078 022B     		cmp	r3, #2
 8217 007a 00F0CF80 		beq	.L501
 8218 007e 002B     		cmp	r3, #0
 8219 0080 00F08280 		beq	.L502
 8220              	.L503:
 147:Dubby.cpp     ****     if (encoder.TimeHeldMs() < 300 && menuActive)
 8221              		.loc 2 147 5 is_stmt 1 view .LVU2165
 8222              	.LVL594:
 8223              	.LBB1857:
 8224              	.LBI1857:
 8225              		.loc 16 48 18 view .LVU2166
 8226              	.LBE1857:
 8227              		.loc 16 48 39 view .LVU2167
 8228              	.LBB1876:
 8229              	.LBB1858:
 8230              	.LBI1858:
  88:../../libDaisy//src/hid/switch.h ****     {
 8231              		.loc 15 88 18 view .LVU2168
 8232              	.LBB1859:
 8233              		.loc 15 90 9 view .LVU2169
 8234              	.LBB1860:
 8235              	.LBI1860:
  79:../../libDaisy//src/hid/switch.h **** 
 8236              		.loc 15 79 17 view .LVU2170
 8237              	.LBB1861:
ARM GAS  /var/folders/1y/_321xjh9623c014x9_qw12rr0000gn/T//ccE17DNe.s 			page 233


  79:../../libDaisy//src/hid/switch.h **** 
 8238              		.loc 15 79 35 view .LVU2171
  79:../../libDaisy//src/hid/switch.h **** 
 8239              		.loc 15 79 35 is_stmt 0 view .LVU2172
 8240              	.LBE1861:
 8241              	.LBE1860:
 8242              		.loc 15 90 26 view .LVU2173
 8243 0084 94F80A31 		ldrb	r3, [r4, #266]	@ zero_extendqisi2
 8244 0088 FF2B     		cmp	r3, #255
 8245 008a CCD1     		bne	.L518
 8246              	.LVL595:
 8247              	.L517:
 8248              	.LBB1864:
 8249              	.LBI1864:
  88:../../libDaisy//src/hid/switch.h ****     {
 8250              		.loc 15 88 18 is_stmt 1 view .LVU2174
 8251              	.LBB1865:
 8252              		.loc 15 90 42 is_stmt 0 view .LVU2175
 8253 008c FFF7FEFF 		bl	_ZN5daisy6System6GetNowEv
 8254              	.LVL596:
 8255              		.loc 15 90 45 view .LVU2176
 8256 0090 07EE900A 		vmov	s15, r0	@ int
 8257              		.loc 15 90 26 view .LVU2177
 8258 0094 D4ED436A 		vldr.32	s13, [r4, #268]
 8259              		.loc 15 90 45 view .LVU2178
 8260 0098 F8EE677A 		vcvt.f32.u32	s15, s15
 8261              	.LBE1865:
 8262              	.LBE1864:
 8263              	.LBE1859:
 8264              	.LBE1858:
 8265              	.LBE1876:
 147:Dubby.cpp     ****     if (encoder.TimeHeldMs() < 300 && menuActive)
 8266              		.loc 2 147 36 view .LVU2179
 8267 009c 9FED767A 		vldr.32	s14, .L582
 8268              	.LBB1877:
 8269              	.LBB1873:
 8270              	.LBB1870:
 8271              	.LBB1867:
 8272              	.LBB1866:
 8273              		.loc 15 90 26 view .LVU2180
 8274 00a0 77EEE67A 		vsub.f32	s15, s15, s13
 8275              	.LBE1866:
 8276              	.LBE1867:
 8277              	.LBE1870:
 8278              	.LBE1873:
 8279              	.LBE1877:
 147:Dubby.cpp     ****     if (encoder.TimeHeldMs() < 300 && menuActive)
 8280              		.loc 2 147 36 view .LVU2181
 8281 00a4 F4EEC77A 		vcmpe.f32	s15, s14
 8282 00a8 F1EE10FA 		vmrs	APSR_nzcv, FPSCR
 8283 00ac BBD4     		bmi	.L518
 154:Dubby.cpp     **** }
 8284              		.loc 2 154 1 view .LVU2182
 8285 00ae 03B0     		add	sp, sp, #12
 8286              		.cfi_remember_state
 8287              		.cfi_def_cfa_offset 28
 8288              		@ sp needed
ARM GAS  /var/folders/1y/_321xjh9623c014x9_qw12rr0000gn/T//ccE17DNe.s 			page 234


 8289 00b0 BDE8F083 		pop	{r4, r5, r6, r7, r8, r9, pc}
 8290              	.LVL597:
 8291              	.L522:
 8292              		.cfi_restore_state
 149:Dubby.cpp     ****         menuActive = false;
 8293              		.loc 2 149 9 is_stmt 1 view .LVU2183
 149:Dubby.cpp     ****         menuActive = false;
 8294              		.loc 2 149 20 is_stmt 0 view .LVU2184
 8295 00b4 0022     		movs	r2, #0
 151:Dubby.cpp     ****         ReleaseMenu();
 8296              		.loc 2 151 20 view .LVU2185
 8297 00b6 2046     		mov	r0, r4
 149:Dubby.cpp     ****         menuActive = false;
 8298              		.loc 2 149 20 view .LVU2186
 8299 00b8 83F8242A 		strb	r2, [r3, #2596]
 151:Dubby.cpp     ****         ReleaseMenu();
 8300              		.loc 2 151 9 is_stmt 1 view .LVU2187
 151:Dubby.cpp     ****         ReleaseMenu();
 8301              		.loc 2 151 20 is_stmt 0 view .LVU2188
 8302 00bc FFF7FEFF 		bl	_ZN5daisy5Dubby11ReleaseMenuEv
 8303              	.LVL598:
 152:Dubby.cpp     ****         UpdateSubmenu();
 8304              		.loc 2 152 9 is_stmt 1 view .LVU2189
 152:Dubby.cpp     ****         UpdateSubmenu();
 8305              		.loc 2 152 22 is_stmt 0 view .LVU2190
 8306 00c0 2046     		mov	r0, r4
 154:Dubby.cpp     **** }
 8307              		.loc 2 154 1 view .LVU2191
 8308 00c2 03B0     		add	sp, sp, #12
 8309              		.cfi_remember_state
 8310              		.cfi_def_cfa_offset 28
 8311              		@ sp needed
 8312 00c4 BDE8F043 		pop	{r4, r5, r6, r7, r8, r9, lr}
 8313              		.cfi_restore 14
 8314              		.cfi_restore 9
 8315              		.cfi_restore 8
 8316              		.cfi_restore 7
 8317              		.cfi_restore 6
 8318              		.cfi_restore 5
 8319              		.cfi_restore 4
 8320              		.cfi_def_cfa_offset 0
 8321              	.LVL599:
 152:Dubby.cpp     ****         UpdateSubmenu();
 8322              		.loc 2 152 22 view .LVU2192
 8323 00c8 FFF7FEBF 		b	_ZN5daisy5Dubby13UpdateSubmenuEv
 8324              	.LVL600:
 8325              	.L578:
 8326              		.cfi_restore_state
 8327              	.LBB1878:
 8328              	.LBB1855:
  36:../../libDaisy//src/hid/encoder.h **** 
 8329              		.loc 16 36 56 view .LVU2193
 8330 00cc D4F81C31 		ldr	r3, [r4, #284]
  36:../../libDaisy//src/hid/encoder.h **** 
 8331              		.loc 16 36 56 view .LVU2194
 8332              	.LBE1855:
 8333              	.LBE1878:
ARM GAS  /var/folders/1y/_321xjh9623c014x9_qw12rr0000gn/T//ccE17DNe.s 			page 235


 128:Dubby.cpp     ****         if (encoder.Increment()) UpdateMenu(encoder.Increment(), true);
 8334              		.loc 2 128 9 view .LVU2195
 8335 00d0 002B     		cmp	r3, #0
 8336 00d2 CCD0     		beq	.L505
 128:Dubby.cpp     ****         if (encoder.Increment()) UpdateMenu(encoder.Increment(), true);
 8337              		.loc 2 128 34 is_stmt 1 view .LVU2196
 8338              	.LVL601:
  36:../../libDaisy//src/hid/encoder.h **** 
 8339              		.loc 16 36 40 view .LVU2197
 8340              	.LBB1879:
 8341              	.LBI1879:
 190:Dubby.cpp     **** void Dubby::UpdateMenu(int increment, bool higlight) 
 8342              		.loc 2 190 6 view .LVU2198
 8343              	.LBB1880:
 194:Dubby.cpp     ****         int mItemSelected = menuItemSelected;
 8344              		.loc 2 194 9 view .LVU2199
 195:Dubby.cpp     ****         if ((int)menuItemSelected + increment >= 3) mItemSelected = 0;
 8345              		.loc 2 195 9 view .LVU2200
 194:Dubby.cpp     ****         int mItemSelected = menuItemSelected;
 8346              		.loc 2 194 13 is_stmt 0 view .LVU2201
 8347 00d4 94F85C20 		ldrb	r2, [r4, #92]	@ zero_extendqisi2
 8348              	.LVL602:
 195:Dubby.cpp     ****         if ((int)menuItemSelected + increment >= 3) mItemSelected = 0;
 8349              		.loc 2 195 35 view .LVU2202
 8350 00d8 1344     		add	r3, r3, r2
 8351              	.LVL603:
 195:Dubby.cpp     ****         if ((int)menuItemSelected + increment >= 3) mItemSelected = 0;
 8352              		.loc 2 195 9 view .LVU2203
 8353 00da 022B     		cmp	r3, #2
 8354 00dc 00F3AB80 		bgt	.L524
 196:Dubby.cpp     ****         else if ((int)menuItemSelected + increment < 0) mItemSelected = 3;
 8355              		.loc 2 196 14 is_stmt 1 view .LVU2204
 8356 00e0 002B     		cmp	r3, #0
 8357 00e2 C0F2BE80 		blt	.L525
 199:Dubby.cpp     ****         menuItemSelected = (MenuItems)(mItemSelected);
 8358              		.loc 2 199 28 is_stmt 0 view .LVU2205
 8359 00e6 DBB2     		uxtb	r3, r3
 8360              	.L506:
 8361              	.LVL604:
 199:Dubby.cpp     ****         menuItemSelected = (MenuItems)(mItemSelected);
 8362              		.loc 2 199 9 is_stmt 1 view .LVU2206
 8363 00e8 04F2BC40 		addw	r0, r4, #1212
 8364              	.LBB1881:
 8365              	.LBB1882:
 8366              	.LBB1883:
 366:../../libDaisy//src/dev/oled_ssd130x.h ****         }
 8367              		.loc 4 366 24 is_stmt 0 view .LVU2207
 8368 00ec 4FF48062 		mov	r2, #1024
 8369 00f0 0021     		movs	r1, #0
 8370              	.LBE1883:
 8371              	.LBE1882:
 8372              	.LBE1881:
 199:Dubby.cpp     ****         menuItemSelected = (MenuItems)(mItemSelected);
 8373              		.loc 2 199 26 view .LVU2208
 8374 00f2 84F85C30 		strb	r3, [r4, #92]
 202:Dubby.cpp     ****     display.Fill(false);
 8375              		.loc 2 202 5 is_stmt 1 view .LVU2209
ARM GAS  /var/folders/1y/_321xjh9623c014x9_qw12rr0000gn/T//ccE17DNe.s 			page 236


 8376              	.LVL605:
 8377              	.LBB1888:
 8378              	.LBI1881:
  34:../../libDaisy//src/hid/disp/oled_display.h **** 
 8379              		.loc 1 34 10 view .LVU2210
 8380              	.LBB1886:
 8381              	.LBI1882:
 362:../../libDaisy//src/dev/oled_ssd130x.h ****     {
 8382              		.loc 4 362 10 view .LVU2211
 8383              	.LBB1884:
 364:../../libDaisy//src/dev/oled_ssd130x.h ****         {
 8384              		.loc 4 364 29 view .LVU2212
 8385 00f6 8146     		mov	r9, r0
 8386              	.LBE1884:
 8387              	.LBE1886:
 8388              	.LBE1888:
 8389              	.LBB1889:
 8390              	.LBB1890:
 8391              	.LBB1891:
 8392              	.LBB1892:
 8393              	.LBB1893:
 124:../../libDaisy//src/dev/oled_ssd130x.h ****         spi_.BlockingTransmit(&cmd, 1);
 8394              		.loc 4 124 24 is_stmt 0 view .LVU2213
 8395 00f8 04F59667 		add	r7, r4, #1200
 8396              	.LBE1893:
 8397              	.LBE1892:
 8398              	.LBE1891:
 8399              	.LBE1890:
 8400              	.LBE1889:
 8401              	.LBB1921:
 8402              	.LBB1887:
 8403              	.LBB1885:
 366:../../libDaisy//src/dev/oled_ssd130x.h ****         }
 8404              		.loc 4 366 24 view .LVU2214
 8405 00fc FFF7FEFF 		bl	memset
 8406              	.LVL606:
 366:../../libDaisy//src/dev/oled_ssd130x.h ****         }
 8407              		.loc 4 366 24 view .LVU2215
 8408              	.LBE1885:
 8409              	.LBE1887:
 8410              	.LBE1921:
 204:Dubby.cpp     ****     if (higlight) HightlightMenuItem();
 8411              		.loc 2 204 5 is_stmt 1 view .LVU2216
 204:Dubby.cpp     ****     if (higlight) HightlightMenuItem();
 8412              		.loc 2 204 19 view .LVU2217
 8413              	.LBB1922:
 8414              	.LBB1918:
 8415              	.LBB1915:
 8416              	.LBB1900:
 8417              	.LBB1894:
 124:../../libDaisy//src/dev/oled_ssd130x.h ****         spi_.BlockingTransmit(&cmd, 1);
 8418              		.loc 4 124 24 is_stmt 0 view .LVU2218
 8419 0100 04F59766 		add	r6, r4, #1208
 8420              	.LBE1894:
 8421              	.LBE1900:
 8422              	.LBE1915:
 8423              	.LBE1918:
ARM GAS  /var/folders/1y/_321xjh9623c014x9_qw12rr0000gn/T//ccE17DNe.s 			page 237


 8424              	.LBE1922:
 204:Dubby.cpp     ****     if (higlight) HightlightMenuItem();
 8425              		.loc 2 204 37 view .LVU2219
 8426 0104 2046     		mov	r0, r4
 8427              	.LBB1923:
 8428              	.LBB1919:
 8429              	.LBB1916:
 8430              	.LBB1901:
 8431              	.LBB1895:
 125:../../libDaisy//src/dev/oled_ssd130x.h ****     };
 8432              		.loc 4 125 30 view .LVU2220
 8433 0106 B025     		movs	r5, #176
 8434              	.LBE1895:
 8435              	.LBE1901:
 8436              	.LBE1916:
 8437              	.LBE1919:
 8438              	.LBE1923:
 204:Dubby.cpp     ****     if (higlight) HightlightMenuItem();
 8439              		.loc 2 204 37 view .LVU2221
 8440 0108 FFF7FEFF 		bl	_ZN5daisy5Dubby18HightlightMenuItemEv
 8441              	.LVL607:
 207:Dubby.cpp     ****     UpdateSubmenu();
 8442              		.loc 2 207 5 is_stmt 1 view .LVU2222
 207:Dubby.cpp     ****     UpdateSubmenu();
 8443              		.loc 2 207 18 is_stmt 0 view .LVU2223
 8444 010c 2046     		mov	r0, r4
 8445 010e FFF7FEFF 		bl	_ZN5daisy5Dubby13UpdateSubmenuEv
 8446              	.LVL608:
 209:Dubby.cpp     ****     display.Update();
 8447              		.loc 2 209 5 is_stmt 1 view .LVU2224
 8448              	.LBB1924:
 8449              	.LBI1889:
 8450              		.loc 1 51 10 view .LVU2225
 8451              	.LBB1920:
 8452              	.LBI1890:
 373:../../libDaisy//src/dev/oled_ssd130x.h ****     {
 8453              		.loc 4 373 10 view .LVU2226
 8454              	.LBB1917:
 8455              		.loc 4 383 22 view .LVU2227
 8456              	.L507:
 8457              		.loc 4 383 22 is_stmt 0 view .LVU2228
 8458 0112 4FF00008 		mov	r8, #0
 8459              	.LBB1902:
 8460              	.LBB1896:
 124:../../libDaisy//src/dev/oled_ssd130x.h ****         spi_.BlockingTransmit(&cmd, 1);
 8461              		.loc 4 124 23 view .LVU2229
 8462 0116 3046     		mov	r0, r6
 8463 0118 8DF80750 		strb	r5, [sp, #7]
 8464              	.LVL609:
 124:../../libDaisy//src/dev/oled_ssd130x.h ****         spi_.BlockingTransmit(&cmd, 1);
 8465              		.loc 4 124 23 view .LVU2230
 8466              	.LBE1896:
 8467              	.LBI1892:
 122:../../libDaisy//src/dev/oled_ssd130x.h ****     {
 8468              		.loc 4 122 10 is_stmt 1 view .LVU2231
 8469              	.LBB1897:
 124:../../libDaisy//src/dev/oled_ssd130x.h ****         spi_.BlockingTransmit(&cmd, 1);
ARM GAS  /var/folders/1y/_321xjh9623c014x9_qw12rr0000gn/T//ccE17DNe.s 			page 238


 8470              		.loc 4 124 9 view .LVU2232
 8471              	.LBE1897:
 8472              	.LBE1902:
 8473              		.loc 4 383 22 is_stmt 0 view .LVU2233
 8474 011c 0135     		adds	r5, r5, #1
 8475              	.LVL610:
 8476              	.LBB1903:
 8477              	.LBB1898:
 124:../../libDaisy//src/dev/oled_ssd130x.h ****         spi_.BlockingTransmit(&cmd, 1);
 8478              		.loc 4 124 23 view .LVU2234
 8479 011e 4146     		mov	r1, r8
 8480 0120 FFF7FEFF 		bl	dsy_gpio_write
 8481              	.LVL611:
 125:../../libDaisy//src/dev/oled_ssd130x.h ****     };
 8482              		.loc 4 125 9 is_stmt 1 view .LVU2235
 125:../../libDaisy//src/dev/oled_ssd130x.h ****     };
 8483              		.loc 4 125 30 is_stmt 0 view .LVU2236
 8484 0124 6423     		movs	r3, #100
 8485 0126 0122     		movs	r2, #1
 8486 0128 0DF10701 		add	r1, sp, #7
 8487 012c 3846     		mov	r0, r7
 8488              	.LBE1898:
 8489              	.LBE1903:
 8490              		.loc 4 383 22 view .LVU2237
 8491 012e EDB2     		uxtb	r5, r5
 8492              	.LBB1904:
 8493              	.LBB1899:
 125:../../libDaisy//src/dev/oled_ssd130x.h ****     };
 8494              		.loc 4 125 30 view .LVU2238
 8495 0130 FFF7FEFF 		bl	_ZN5daisy9SpiHandle16BlockingTransmitEPhjm
 8496              	.LVL612:
 125:../../libDaisy//src/dev/oled_ssd130x.h ****     };
 8497              		.loc 4 125 30 view .LVU2239
 8498              	.LBE1899:
 8499              	.LBE1904:
 8500              	.LBB1905:
 8501              	.LBB1906:
 124:../../libDaisy//src/dev/oled_ssd130x.h ****         spi_.BlockingTransmit(&cmd, 1);
 8502              		.loc 4 124 23 view .LVU2240
 8503 0134 4146     		mov	r1, r8
 8504 0136 3046     		mov	r0, r6
 8505 0138 8DF80780 		strb	r8, [sp, #7]
 8506              	.LVL613:
 124:../../libDaisy//src/dev/oled_ssd130x.h ****         spi_.BlockingTransmit(&cmd, 1);
 8507              		.loc 4 124 23 view .LVU2241
 8508              	.LBE1906:
 8509              	.LBI1905:
 122:../../libDaisy//src/dev/oled_ssd130x.h ****     {
 8510              		.loc 4 122 10 is_stmt 1 view .LVU2242
 8511              	.LBB1907:
 124:../../libDaisy//src/dev/oled_ssd130x.h ****         spi_.BlockingTransmit(&cmd, 1);
 8512              		.loc 4 124 9 view .LVU2243
 124:../../libDaisy//src/dev/oled_ssd130x.h ****         spi_.BlockingTransmit(&cmd, 1);
 8513              		.loc 4 124 23 is_stmt 0 view .LVU2244
 8514 013c FFF7FEFF 		bl	dsy_gpio_write
 8515              	.LVL614:
 125:../../libDaisy//src/dev/oled_ssd130x.h ****     };
ARM GAS  /var/folders/1y/_321xjh9623c014x9_qw12rr0000gn/T//ccE17DNe.s 			page 239


 8516              		.loc 4 125 9 is_stmt 1 view .LVU2245
 125:../../libDaisy//src/dev/oled_ssd130x.h ****     };
 8517              		.loc 4 125 30 is_stmt 0 view .LVU2246
 8518 0140 0122     		movs	r2, #1
 8519 0142 6423     		movs	r3, #100
 8520 0144 0DF10701 		add	r1, sp, #7
 8521 0148 3846     		mov	r0, r7
 8522 014a FFF7FEFF 		bl	_ZN5daisy9SpiHandle16BlockingTransmitEPhjm
 8523              	.LVL615:
 125:../../libDaisy//src/dev/oled_ssd130x.h ****     };
 8524              		.loc 4 125 30 view .LVU2247
 8525 014e 1023     		movs	r3, #16
 8526              	.LBE1907:
 8527              	.LBE1905:
 8528              	.LBB1908:
 8529              	.LBB1909:
 124:../../libDaisy//src/dev/oled_ssd130x.h ****         spi_.BlockingTransmit(&cmd, 1);
 8530              		.loc 4 124 23 view .LVU2248
 8531 0150 4146     		mov	r1, r8
 8532 0152 3046     		mov	r0, r6
 8533 0154 8DF80730 		strb	r3, [sp, #7]
 8534              	.LVL616:
 124:../../libDaisy//src/dev/oled_ssd130x.h ****         spi_.BlockingTransmit(&cmd, 1);
 8535              		.loc 4 124 23 view .LVU2249
 8536              	.LBE1909:
 8537              	.LBI1908:
 122:../../libDaisy//src/dev/oled_ssd130x.h ****     {
 8538              		.loc 4 122 10 is_stmt 1 view .LVU2250
 8539              	.LBB1910:
 124:../../libDaisy//src/dev/oled_ssd130x.h ****         spi_.BlockingTransmit(&cmd, 1);
 8540              		.loc 4 124 9 view .LVU2251
 124:../../libDaisy//src/dev/oled_ssd130x.h ****         spi_.BlockingTransmit(&cmd, 1);
 8541              		.loc 4 124 23 is_stmt 0 view .LVU2252
 8542 0158 FFF7FEFF 		bl	dsy_gpio_write
 8543              	.LVL617:
 125:../../libDaisy//src/dev/oled_ssd130x.h ****     };
 8544              		.loc 4 125 9 is_stmt 1 view .LVU2253
 125:../../libDaisy//src/dev/oled_ssd130x.h ****     };
 8545              		.loc 4 125 30 is_stmt 0 view .LVU2254
 8546 015c 6423     		movs	r3, #100
 8547 015e 0122     		movs	r2, #1
 8548 0160 0DF10701 		add	r1, sp, #7
 8549 0164 3846     		mov	r0, r7
 8550 0166 FFF7FEFF 		bl	_ZN5daisy9SpiHandle16BlockingTransmitEPhjm
 8551              	.LVL618:
 125:../../libDaisy//src/dev/oled_ssd130x.h ****     };
 8552              		.loc 4 125 30 view .LVU2255
 8553              	.LBE1910:
 8554              	.LBE1908:
 8555              	.LBB1911:
 8556              	.LBI1911:
 128:../../libDaisy//src/dev/oled_ssd130x.h ****     {
 8557              		.loc 4 128 10 is_stmt 1 view .LVU2256
 8558              	.LBB1912:
 130:../../libDaisy//src/dev/oled_ssd130x.h ****         spi_.BlockingTransmit(buff, size);
 8559              		.loc 4 130 9 view .LVU2257
 130:../../libDaisy//src/dev/oled_ssd130x.h ****         spi_.BlockingTransmit(buff, size);
ARM GAS  /var/folders/1y/_321xjh9623c014x9_qw12rr0000gn/T//ccE17DNe.s 			page 240


 8560              		.loc 4 130 23 is_stmt 0 view .LVU2258
 8561 016a 0121     		movs	r1, #1
 8562 016c 3046     		mov	r0, r6
 8563 016e FFF7FEFF 		bl	dsy_gpio_write
 8564              	.LVL619:
 131:../../libDaisy//src/dev/oled_ssd130x.h ****     };
 8565              		.loc 4 131 9 is_stmt 1 view .LVU2259
 131:../../libDaisy//src/dev/oled_ssd130x.h ****     };
 8566              		.loc 4 131 30 is_stmt 0 view .LVU2260
 8567 0172 4946     		mov	r1, r9
 8568 0174 6423     		movs	r3, #100
 8569 0176 8022     		movs	r2, #128
 8570 0178 3846     		mov	r0, r7
 8571              	.LBE1912:
 8572              	.LBE1911:
 8573              		.loc 4 383 22 view .LVU2261
 8574 017a 09F18009 		add	r9, r9, #128
 8575              	.LVL620:
 8576              	.LBB1914:
 8577              	.LBB1913:
 131:../../libDaisy//src/dev/oled_ssd130x.h ****     };
 8578              		.loc 4 131 30 view .LVU2262
 8579 017e FFF7FEFF 		bl	_ZN5daisy9SpiHandle16BlockingTransmitEPhjm
 8580              	.LVL621:
 131:../../libDaisy//src/dev/oled_ssd130x.h ****     };
 8581              		.loc 4 131 30 view .LVU2263
 8582              	.LBE1913:
 8583              	.LBE1914:
 8584              		.loc 4 383 9 is_stmt 1 view .LVU2264
 8585              		.loc 4 383 22 view .LVU2265
 8586 0182 B82D     		cmp	r5, #184
 8587 0184 C5D1     		bne	.L507
 8588 0186 72E7     		b	.L505
 8589              	.LVL622:
 8590              	.L502:
 8591              		.loc 4 383 22 is_stmt 0 view .LVU2266
 8592              	.LBE1917:
 8593              	.LBE1920:
 8594              	.LBE1924:
 8595              	.LBE1880:
 8596              	.LBE1879:
 133:Dubby.cpp     ****         case MENU1:
 8597              		.loc 2 133 9 is_stmt 1 view .LVU2267
 134:Dubby.cpp     ****             RenderScope();
 8598              		.loc 2 134 13 view .LVU2268
 8599              	.LBB1927:
 8600              	.LBI1927:
 282:Dubby.cpp     **** void Dubby::RenderScope()
 8601              		.loc 2 282 6 view .LVU2269
 8602              	.LBB1928:
 284:Dubby.cpp     ****     if(seed.system.GetNow() - screen_update_last_ > screen_update_period_)
 8603              		.loc 2 284 5 view .LVU2270
 8604              	.LBB1929:
 284:Dubby.cpp     ****     if(seed.system.GetNow() - screen_update_last_ > screen_update_period_)
 8605              		.loc 2 284 26 is_stmt 0 view .LVU2271
 8606 0188 FFF7FEFF 		bl	_ZN5daisy6System6GetNowEv
 8607              	.LVL623:
ARM GAS  /var/folders/1y/_321xjh9623c014x9_qw12rr0000gn/T//ccE17DNe.s 			page 241


 284:Dubby.cpp     ****     if(seed.system.GetNow() - screen_update_last_ > screen_update_period_)
 8608              		.loc 2 284 31 view .LVU2272
 8609 018c 04F51043 		add	r3, r4, #36864
 284:Dubby.cpp     ****     if(seed.system.GetNow() - screen_update_last_ > screen_update_period_)
 8610              		.loc 2 284 29 view .LVU2273
 8611 0190 D3F8282A 		ldr	r2, [r3, #2600]
 284:Dubby.cpp     ****     if(seed.system.GetNow() - screen_update_last_ > screen_update_period_)
 8612              		.loc 2 284 5 view .LVU2274
 8613 0194 D3F82C3A 		ldr	r3, [r3, #2604]
 284:Dubby.cpp     ****     if(seed.system.GetNow() - screen_update_last_ > screen_update_period_)
 8614              		.loc 2 284 29 view .LVU2275
 8615 0198 801A     		subs	r0, r0, r2
 284:Dubby.cpp     ****     if(seed.system.GetNow() - screen_update_last_ > screen_update_period_)
 8616              		.loc 2 284 5 view .LVU2276
 8617 019a 9842     		cmp	r0, r3
 8618 019c 7FF672AF 		bls	.L503
 8619              	.LBE1929:
 8620 01a0 2046     		mov	r0, r4
 8621 01a2 FFF7FEFF 		bl	_ZN5daisy5Dubby11RenderScopeEv.part.0
 8622              	.LVL624:
 8623 01a6 6DE7     		b	.L503
 8624              	.LVL625:
 8625              	.L500:
 284:Dubby.cpp     ****     if(seed.system.GetNow() - screen_update_last_ > screen_update_period_)
 8626              		.loc 2 284 5 view .LVU2277
 8627              	.LBE1928:
 8628              	.LBE1927:
 136:Dubby.cpp     ****         case MENU2:
 8629              		.loc 2 136 9 is_stmt 1 view .LVU2278
 137:Dubby.cpp     ****             UpdateMixerPane();
 8630              		.loc 2 137 13 view .LVU2279
 8631              	.LBB1930:
 8632              	.LBI1930:
 244:Dubby.cpp     **** void Dubby::UpdateMixerPane() 
 8633              		.loc 2 244 6 view .LVU2280
 8634              	.LBE1930:
 246:Dubby.cpp     ****     if(seed.system.GetNow() - screen_update_last_ > screen_update_period_)
 8635              		.loc 2 246 5 view .LVU2281
 8636              	.LBB1936:
 8637              	.LBB1931:
 246:Dubby.cpp     ****     if(seed.system.GetNow() - screen_update_last_ > screen_update_period_)
 8638              		.loc 2 246 31 is_stmt 0 view .LVU2282
 8639 01a8 04F51046 		add	r6, r4, #36864
 246:Dubby.cpp     ****     if(seed.system.GetNow() - screen_update_last_ > screen_update_period_)
 8640              		.loc 2 246 26 view .LVU2283
 8641 01ac FFF7FEFF 		bl	_ZN5daisy6System6GetNowEv
 8642              	.LVL626:
 246:Dubby.cpp     ****     if(seed.system.GetNow() - screen_update_last_ > screen_update_period_)
 8643              		.loc 2 246 29 view .LVU2284
 8644 01b0 D6F8282A 		ldr	r2, [r6, #2600]
 246:Dubby.cpp     ****     if(seed.system.GetNow() - screen_update_last_ > screen_update_period_)
 8645              		.loc 2 246 5 view .LVU2285
 8646 01b4 D6F82C3A 		ldr	r3, [r6, #2604]
 246:Dubby.cpp     ****     if(seed.system.GetNow() - screen_update_last_ > screen_update_period_)
 8647              		.loc 2 246 29 view .LVU2286
 8648 01b8 801A     		subs	r0, r0, r2
 246:Dubby.cpp     ****     if(seed.system.GetNow() - screen_update_last_ > screen_update_period_)
ARM GAS  /var/folders/1y/_321xjh9623c014x9_qw12rr0000gn/T//ccE17DNe.s 			page 242


 8649              		.loc 2 246 5 view .LVU2287
 8650 01ba 9842     		cmp	r0, r3
 8651 01bc 7FF662AF 		bls	.L503
 8652              	.LVL627:
 246:Dubby.cpp     ****     if(seed.system.GetNow() - screen_update_last_ > screen_update_period_)
 8653              		.loc 2 246 5 view .LVU2288
 8654              	.LBE1931:
 8655              	.LBB1932:
 8656              	.LBI1932:
 244:Dubby.cpp     **** void Dubby::UpdateMixerPane() 
 8657              		.loc 2 244 6 is_stmt 1 view .LVU2289
 8658              	.LBB1933:
 248:Dubby.cpp     ****         screen_update_last_ = seed.system.GetNow();
 8659              		.loc 2 248 9 view .LVU2290
 8660              	.LBB1934:
 249:Dubby.cpp     ****         for (int i = 0; i < 4; i++) UpdateBar(i);
 8661              		.loc 2 249 18 is_stmt 0 view .LVU2291
 8662 01c0 0025     		movs	r5, #0
 8663              	.LBE1934:
 248:Dubby.cpp     ****         screen_update_last_ = seed.system.GetNow();
 8664              		.loc 2 248 49 view .LVU2292
 8665 01c2 FFF7FEFF 		bl	_ZN5daisy6System6GetNowEv
 8666              	.LVL628:
 248:Dubby.cpp     ****         screen_update_last_ = seed.system.GetNow();
 8667              		.loc 2 248 29 view .LVU2293
 8668 01c6 C6F8280A 		str	r0, [r6, #2600]
 249:Dubby.cpp     ****         for (int i = 0; i < 4; i++) UpdateBar(i);
 8669              		.loc 2 249 9 is_stmt 1 view .LVU2294
 8670              	.LVL629:
 8671              	.LBB1935:
 249:Dubby.cpp     ****         for (int i = 0; i < 4; i++) UpdateBar(i);
 8672              		.loc 2 249 27 view .LVU2295
 8673              	.L510:
 249:Dubby.cpp     ****         for (int i = 0; i < 4; i++) UpdateBar(i);
 8674              		.loc 2 249 37 view .LVU2296
 249:Dubby.cpp     ****         for (int i = 0; i < 4; i++) UpdateBar(i);
 8675              		.loc 2 249 46 is_stmt 0 view .LVU2297
 8676 01ca 2946     		mov	r1, r5
 249:Dubby.cpp     ****         for (int i = 0; i < 4; i++) UpdateBar(i);
 8677              		.loc 2 249 9 view .LVU2298
 8678 01cc 0135     		adds	r5, r5, #1
 8679              	.LVL630:
 249:Dubby.cpp     ****         for (int i = 0; i < 4; i++) UpdateBar(i);
 8680              		.loc 2 249 46 view .LVU2299
 8681 01ce 2046     		mov	r0, r4
 8682 01d0 FFF7FEFF 		bl	_ZN5daisy5Dubby9UpdateBarEi
 8683              	.LVL631:
 249:Dubby.cpp     ****         for (int i = 0; i < 4; i++) UpdateBar(i);
 8684              		.loc 2 249 9 is_stmt 1 view .LVU2300
 249:Dubby.cpp     ****         for (int i = 0; i < 4; i++) UpdateBar(i);
 8685              		.loc 2 249 27 view .LVU2301
 8686 01d4 042D     		cmp	r5, #4
 8687 01d6 F8D1     		bne	.L510
 8688 01d8 54E7     		b	.L503
 8689              	.LVL632:
 8690              	.L577:
 249:Dubby.cpp     ****         for (int i = 0; i < 4; i++) UpdateBar(i);
ARM GAS  /var/folders/1y/_321xjh9623c014x9_qw12rr0000gn/T//ccE17DNe.s 			page 243


 8691              		.loc 2 249 27 is_stmt 0 view .LVU2302
 8692              	.LBE1935:
 8693              	.LBE1933:
 8694              	.LBE1932:
 8695              	.LBE1936:
 124:Dubby.cpp     ****             HightlightMenuItem();
 8696              		.loc 2 124 13 is_stmt 1 view .LVU2303
 124:Dubby.cpp     ****             HightlightMenuItem();
 8697              		.loc 2 124 31 is_stmt 0 view .LVU2304
 8698 01da 2046     		mov	r0, r4
 8699 01dc FFF7FEFF 		bl	_ZN5daisy5Dubby18HightlightMenuItemEv
 8700              	.LVL633:
 125:Dubby.cpp     ****             menuActive = true;
 8701              		.loc 2 125 13 is_stmt 1 view .LVU2305
 125:Dubby.cpp     ****             menuActive = true;
 8702              		.loc 2 125 24 is_stmt 0 view .LVU2306
 8703 01e0 0123     		movs	r3, #1
 8704 01e2 85F8243A 		strb	r3, [r5, #2596]
 128:Dubby.cpp     ****         if (encoder.Increment()) UpdateMenu(encoder.Increment(), true);
 8705              		.loc 2 128 9 is_stmt 1 view .LVU2307
 8706              	.LVL634:
 8707              	.LBB1937:
  36:../../libDaisy//src/hid/encoder.h **** 
 8708              		.loc 16 36 20 view .LVU2308
 8709              	.LBB1856:
  36:../../libDaisy//src/hid/encoder.h **** 
 8710              		.loc 16 36 40 view .LVU2309
  36:../../libDaisy//src/hid/encoder.h **** 
 8711              		.loc 16 36 56 is_stmt 0 view .LVU2310
 8712 01e6 94F8FC30 		ldrb	r3, [r4, #252]	@ zero_extendqisi2
 8713 01ea 002B     		cmp	r3, #0
 8714 01ec 3FF43FAF 		beq	.L505
 8715 01f0 6CE7     		b	.L578
 8716              	.LVL635:
 8717              	.L511:
  36:../../libDaisy//src/hid/encoder.h **** 
 8718              		.loc 16 36 56 view .LVU2311
 8719              	.LBE1856:
 8720              	.LBE1937:
 141:Dubby.cpp     ****             if (encoder.Increment() && !menuActive) UpdatePreferencesMenu(encoder.Increment());
 8721              		.loc 2 141 13 is_stmt 1 view .LVU2312
 8722              	.LBB1938:
 8723              	.LBI1938:
  36:../../libDaisy//src/hid/encoder.h **** 
 8724              		.loc 16 36 20 view .LVU2313
 8725              	.LBB1939:
  36:../../libDaisy//src/hid/encoder.h **** 
 8726              		.loc 16 36 40 view .LVU2314
  36:../../libDaisy//src/hid/encoder.h **** 
 8727              		.loc 16 36 56 is_stmt 0 view .LVU2315
 8728 01f2 94F8FC30 		ldrb	r3, [r4, #252]	@ zero_extendqisi2
 8729 01f6 002B     		cmp	r3, #0
 8730 01f8 3FF415AF 		beq	.L518
 8731              	.LVL636:
 8732              	.L523:
  36:../../libDaisy//src/hid/encoder.h **** 
 8733              		.loc 16 36 56 view .LVU2316
ARM GAS  /var/folders/1y/_321xjh9623c014x9_qw12rr0000gn/T//ccE17DNe.s 			page 244


 8734 01fc D4F81C21 		ldr	r2, [r4, #284]
  36:../../libDaisy//src/hid/encoder.h **** 
 8735              		.loc 16 36 56 view .LVU2317
 8736              	.LBE1939:
 8737              	.LBE1938:
 141:Dubby.cpp     ****             if (encoder.Increment() && !menuActive) UpdatePreferencesMenu(encoder.Increment());
 8738              		.loc 2 141 37 view .LVU2318
 8739 0200 002A     		cmp	r2, #0
 8740 0202 3FF43FAF 		beq	.L503
 141:Dubby.cpp     ****             if (encoder.Increment() && !menuActive) UpdatePreferencesMenu(encoder.Increment());
 8741              		.loc 2 141 41 discriminator 1 view .LVU2319
 8742 0206 04F51043 		add	r3, r4, #36864
 141:Dubby.cpp     ****             if (encoder.Increment() && !menuActive) UpdatePreferencesMenu(encoder.Increment());
 8743              		.loc 2 141 37 discriminator 1 view .LVU2320
 8744 020a 93F8241A 		ldrb	r1, [r3, #2596]	@ zero_extendqisi2
 8745 020e A1B1     		cbz	r1, .L579
 147:Dubby.cpp     ****     if (encoder.TimeHeldMs() < 300 && menuActive)
 8746              		.loc 2 147 5 is_stmt 1 view .LVU2321
 8747              	.LVL637:
 8748              	.LBB1942:
 8749              		.loc 16 48 18 view .LVU2322
 8750              	.LBE1942:
 8751              		.loc 16 48 39 view .LVU2323
 8752              	.LBB1943:
 8753              	.LBB1874:
  88:../../libDaisy//src/hid/switch.h ****     {
 8754              		.loc 15 88 18 view .LVU2324
 8755              	.LBB1871:
 8756              		.loc 15 90 9 view .LVU2325
 8757              	.LBB1868:
  79:../../libDaisy//src/hid/switch.h **** 
 8758              		.loc 15 79 17 view .LVU2326
 8759              	.LBB1862:
  79:../../libDaisy//src/hid/switch.h **** 
 8760              		.loc 15 79 35 view .LVU2327
  79:../../libDaisy//src/hid/switch.h **** 
 8761              		.loc 15 79 35 is_stmt 0 view .LVU2328
 8762              	.LBE1862:
 8763              	.LBE1868:
 8764              		.loc 15 90 26 view .LVU2329
 8765 0210 94F80A21 		ldrb	r2, [r4, #266]	@ zero_extendqisi2
 8766 0214 FF2A     		cmp	r2, #255
 8767 0216 7FF44DAF 		bne	.L522
 8768 021a 37E7     		b	.L517
 8769              	.LVL638:
 8770              	.L501:
 8771              		.loc 15 90 26 view .LVU2330
 8772              	.LBE1871:
 8773              	.LBE1874:
 8774              	.LBE1943:
 139:Dubby.cpp     ****         case MENU3:
 8775              		.loc 2 139 9 is_stmt 1 view .LVU2331
 140:Dubby.cpp     ****             if (encoder.Pressed() && preferencesMenuItemSelected == OPTION4) ResetToBootloader();
 8776              		.loc 2 140 13 view .LVU2332
 8777              	.LBB1944:
 8778              	.LBI1944:
  45:../../libDaisy//src/hid/encoder.h **** 
ARM GAS  /var/folders/1y/_321xjh9623c014x9_qw12rr0000gn/T//ccE17DNe.s 			page 245


 8779              		.loc 16 45 17 view .LVU2333
 8780              	.LBE1944:
  45:../../libDaisy//src/hid/encoder.h **** 
 8781              		.loc 16 45 35 view .LVU2334
 8782              	.LBB1947:
 8783              	.LBB1945:
 8784              	.LBI1945:
  79:../../libDaisy//src/hid/switch.h **** 
 8785              		.loc 15 79 17 view .LVU2335
 8786              	.LBB1946:
  79:../../libDaisy//src/hid/switch.h **** 
 8787              		.loc 15 79 35 view .LVU2336
  79:../../libDaisy//src/hid/switch.h **** 
 8788              		.loc 15 79 35 is_stmt 0 view .LVU2337
 8789              	.LBE1946:
 8790              	.LBE1945:
 8791              	.LBE1947:
 140:Dubby.cpp     ****             if (encoder.Pressed() && preferencesMenuItemSelected == OPTION4) ResetToBootloader();
 8792              		.loc 2 140 35 view .LVU2338
 8793 021c 94F80A31 		ldrb	r3, [r4, #266]	@ zero_extendqisi2
 8794 0220 FF2B     		cmp	r3, #255
 8795 0222 E6D1     		bne	.L511
 140:Dubby.cpp     ****             if (encoder.Pressed() && preferencesMenuItemSelected == OPTION4) ResetToBootloader();
 8796              		.loc 2 140 35 discriminator 1 view .LVU2339
 8797 0224 94F85D30 		ldrb	r3, [r4, #93]	@ zero_extendqisi2
 8798 0228 032B     		cmp	r3, #3
 8799 022a 12D0     		beq	.L580
 141:Dubby.cpp     ****             if (encoder.Increment() && !menuActive) UpdatePreferencesMenu(encoder.Increment());
 8800              		.loc 2 141 13 is_stmt 1 view .LVU2340
 8801              	.LVL639:
 8802              	.LBB1948:
  36:../../libDaisy//src/hid/encoder.h **** 
 8803              		.loc 16 36 20 view .LVU2341
 8804              	.LBB1940:
  36:../../libDaisy//src/hid/encoder.h **** 
 8805              		.loc 16 36 40 view .LVU2342
  36:../../libDaisy//src/hid/encoder.h **** 
 8806              		.loc 16 36 56 is_stmt 0 view .LVU2343
 8807 022c 94F8FC30 		ldrb	r3, [r4, #252]	@ zero_extendqisi2
 8808 0230 002B     		cmp	r3, #0
 8809 0232 E3D1     		bne	.L523
 8810 0234 2AE7     		b	.L517
 8811              	.LVL640:
 8812              	.L524:
  36:../../libDaisy//src/hid/encoder.h **** 
 8813              		.loc 16 36 56 view .LVU2344
 8814              	.LBE1940:
 8815              	.LBE1948:
 8816              	.LBB1949:
 8817              	.LBB1925:
 8818 0236 0023     		movs	r3, #0
 8819 0238 56E7     		b	.L506
 8820              	.LVL641:
 8821              	.L579:
  36:../../libDaisy//src/hid/encoder.h **** 
 8822              		.loc 16 36 56 view .LVU2345
 8823              	.LBE1925:
ARM GAS  /var/folders/1y/_321xjh9623c014x9_qw12rr0000gn/T//ccE17DNe.s 			page 246


 8824              	.LBE1949:
 141:Dubby.cpp     ****             if (encoder.Increment() && !menuActive) UpdatePreferencesMenu(encoder.Increment());
 8825              		.loc 2 141 53 is_stmt 1 view .LVU2346
  36:../../libDaisy//src/hid/encoder.h **** 
 8826              		.loc 16 36 40 view .LVU2347
 8827              	.LBB1950:
 8828              	.LBI1950:
 325:Dubby.cpp     **** void Dubby::UpdatePreferencesMenu(int increment) 
 8829              		.loc 2 325 6 view .LVU2348
 8830              	.LBB1951:
 327:Dubby.cpp     ****     if (((preferencesMenuItemSelected >= 0 && increment == 1 && preferencesMenuItemSelected < PREFE
 8831              		.loc 2 327 5 view .LVU2349
 8832 023a 012A     		cmp	r2, #1
 327:Dubby.cpp     ****     if (((preferencesMenuItemSelected >= 0 && increment == 1 && preferencesMenuItemSelected < PREFE
 8833              		.loc 2 327 65 is_stmt 0 view .LVU2350
 8834 023c 94F85D30 		ldrb	r3, [r4, #93]	@ zero_extendqisi2
 327:Dubby.cpp     ****     if (((preferencesMenuItemSelected >= 0 && increment == 1 && preferencesMenuItemSelected < PREFE
 8835              		.loc 2 327 5 view .LVU2351
 8836 0240 11D0     		beq	.L581
 327:Dubby.cpp     ****     if (((preferencesMenuItemSelected >= 0 && increment == 1 && preferencesMenuItemSelected < PREFE
 8837              		.loc 2 327 140 view .LVU2352
 8838 0242 93B1     		cbz	r3, .L516
 8839              	.L515:
 8840              	.LVL642:
 8841              	.LBB1952:
 8842              	.LBI1952:
 325:Dubby.cpp     **** void Dubby::UpdatePreferencesMenu(int increment) 
 8843              		.loc 2 325 6 is_stmt 1 view .LVU2353
 8844              	.LBB1953:
 329:Dubby.cpp     ****         preferencesMenuItemSelected = (PreferenesMenuItems)(preferencesMenuItemSelected + increment
 8845              		.loc 2 329 9 view .LVU2354
 329:Dubby.cpp     ****         preferencesMenuItemSelected = (PreferenesMenuItems)(preferencesMenuItemSelected + increment
 8846              		.loc 2 329 89 is_stmt 0 view .LVU2355
 8847 0244 1344     		add	r3, r3, r2
 331:Dubby.cpp     ****         DisplayPreferencesMenu();
 8848              		.loc 2 331 31 view .LVU2356
 8849 0246 2046     		mov	r0, r4
 329:Dubby.cpp     ****         preferencesMenuItemSelected = (PreferenesMenuItems)(preferencesMenuItemSelected + increment
 8850              		.loc 2 329 37 view .LVU2357
 8851 0248 84F85D30 		strb	r3, [r4, #93]
 331:Dubby.cpp     ****         DisplayPreferencesMenu();
 8852              		.loc 2 331 9 is_stmt 1 view .LVU2358
 331:Dubby.cpp     ****         DisplayPreferencesMenu();
 8853              		.loc 2 331 31 is_stmt 0 view .LVU2359
 8854 024c FFF7FEFF 		bl	_ZN5daisy5Dubby22DisplayPreferencesMenuEv
 8855              	.LVL643:
 333:Dubby.cpp     **** }
 8856              		.loc 2 333 1 view .LVU2360
 8857 0250 18E7     		b	.L503
 8858              	.LVL644:
 8859              	.L580:
 333:Dubby.cpp     **** }
 8860              		.loc 2 333 1 view .LVU2361
 8861              	.LBE1953:
 8862              	.LBE1952:
 8863              	.LBE1951:
 8864              	.LBE1950:
ARM GAS  /var/folders/1y/_321xjh9623c014x9_qw12rr0000gn/T//ccE17DNe.s 			page 247


 140:Dubby.cpp     ****             if (encoder.Pressed() && preferencesMenuItemSelected == OPTION4) ResetToBootloader();
 8865              		.loc 2 140 78 is_stmt 1 view .LVU2362
 140:Dubby.cpp     ****             if (encoder.Pressed() && preferencesMenuItemSelected == OPTION4) ResetToBootloader();
 8866              		.loc 2 140 95 is_stmt 0 view .LVU2363
 8867 0252 2046     		mov	r0, r4
 8868 0254 FFF7FEFF 		bl	_ZN5daisy5Dubby17ResetToBootloaderEv
 8869              	.LVL645:
 141:Dubby.cpp     ****             if (encoder.Increment() && !menuActive) UpdatePreferencesMenu(encoder.Increment());
 8870              		.loc 2 141 13 is_stmt 1 view .LVU2364
 8871              	.LBB1955:
  36:../../libDaisy//src/hid/encoder.h **** 
 8872              		.loc 16 36 20 view .LVU2365
 8873              	.LBB1941:
  36:../../libDaisy//src/hid/encoder.h **** 
 8874              		.loc 16 36 40 view .LVU2366
  36:../../libDaisy//src/hid/encoder.h **** 
 8875              		.loc 16 36 56 is_stmt 0 view .LVU2367
 8876 0258 94F8FC30 		ldrb	r3, [r4, #252]	@ zero_extendqisi2
 8877 025c 002B     		cmp	r3, #0
 8878 025e CDD1     		bne	.L523
 8879 0260 10E7     		b	.L503
 8880              	.LVL646:
 8881              	.L525:
  36:../../libDaisy//src/hid/encoder.h **** 
 8882              		.loc 16 36 56 view .LVU2368
 8883              	.LBE1941:
 8884              	.LBE1955:
 8885              	.LBB1956:
 8886              	.LBB1926:
 8887 0262 0323     		movs	r3, #3
 8888 0264 40E7     		b	.L506
 8889              	.LVL647:
 8890              	.L581:
  36:../../libDaisy//src/hid/encoder.h **** 
 8891              		.loc 16 36 56 view .LVU2369
 8892              	.LBE1926:
 8893              	.LBE1956:
 8894              	.LBB1957:
 8895              	.LBB1954:
 327:Dubby.cpp     ****     if (((preferencesMenuItemSelected >= 0 && increment == 1 && preferencesMenuItemSelected < PREFE
 8896              		.loc 2 327 62 view .LVU2370
 8897 0266 022B     		cmp	r3, #2
 8898 0268 ECD9     		bls	.L515
 8899              	.L516:
 8900              	.LVL648:
 327:Dubby.cpp     ****     if (((preferencesMenuItemSelected >= 0 && increment == 1 && preferencesMenuItemSelected < PREFE
 8901              		.loc 2 327 62 view .LVU2371
 8902              	.LBE1954:
 8903              	.LBE1957:
 147:Dubby.cpp     ****     if (encoder.TimeHeldMs() < 300 && menuActive)
 8904              		.loc 2 147 5 is_stmt 1 view .LVU2372
 8905              	.LBB1958:
 8906              		.loc 16 48 18 view .LVU2373
 8907              	.LBE1958:
 8908              		.loc 16 48 39 view .LVU2374
 8909              	.LBB1959:
 8910              	.LBB1875:
ARM GAS  /var/folders/1y/_321xjh9623c014x9_qw12rr0000gn/T//ccE17DNe.s 			page 248


  88:../../libDaisy//src/hid/switch.h ****     {
 8911              		.loc 15 88 18 view .LVU2375
 8912              	.LBB1872:
 8913              		.loc 15 90 9 view .LVU2376
 8914              	.LBB1869:
  79:../../libDaisy//src/hid/switch.h **** 
 8915              		.loc 15 79 17 view .LVU2377
 8916              	.LBB1863:
  79:../../libDaisy//src/hid/switch.h **** 
 8917              		.loc 15 79 35 view .LVU2378
  79:../../libDaisy//src/hid/switch.h **** 
 8918              		.loc 15 79 35 is_stmt 0 view .LVU2379
 8919              	.LBE1863:
 8920              	.LBE1869:
 8921              		.loc 15 90 26 view .LVU2380
 8922 026a 94F80A31 		ldrb	r3, [r4, #266]	@ zero_extendqisi2
 8923 026e FF2B     		cmp	r3, #255
 8924 0270 7FF4DFAE 		bne	.L497
 8925 0274 0AE7     		b	.L517
 8926              	.L583:
 8927 0276 00BF     		.align	2
 8928              	.L582:
 8929 0278 00009643 		.word	1133903872
 8930              	.LBE1872:
 8931              	.LBE1875:
 8932              	.LBE1959:
 8933              		.cfi_endproc
 8934              	.LFE3734:
 8936              		.section	.text._ZN5daisy13SSD130xDriverILj128ELj64ENS_24SSD130x4WireSpiTransportEE4InitENS2_6Confi
 8937              		.align	1
 8938              		.p2align 2,,3
 8939              		.weak	_ZN5daisy13SSD130xDriverILj128ELj64ENS_24SSD130x4WireSpiTransportEE4InitENS2_6ConfigE
 8940              		.syntax unified
 8941              		.thumb
 8942              		.thumb_func
 8944              	_ZN5daisy13SSD130xDriverILj128ELj64ENS_24SSD130x4WireSpiTransportEE4InitENS2_6ConfigE:
 8945              	.LVL649:
 8946              	.LFB4167:
 253:../../libDaisy//src/dev/oled_ssd130x.h ****     {
 8947              		.loc 4 253 10 is_stmt 1 view -0
 8948              		.cfi_startproc
 8949              		@ args = 48, pretend = 16, frame = 8
 8950              		@ frame_needed = 0, uses_anonymous_args = 0
 253:../../libDaisy//src/dev/oled_ssd130x.h ****     {
 8951              		.loc 4 253 10 is_stmt 0 view .LVU2382
 8952 0000 84B0     		sub	sp, sp, #16
 8953              		.cfi_def_cfa_offset 16
 8954 0002 2DE9F041 		push	{r4, r5, r6, r7, r8, lr}
 8955              		.cfi_def_cfa_offset 40
 8956              		.cfi_offset 4, -40
 8957              		.cfi_offset 5, -36
 8958              		.cfi_offset 6, -32
 8959              		.cfi_offset 7, -28
 8960              		.cfi_offset 8, -24
 8961              		.cfi_offset 14, -20
 8962 0006 82B0     		sub	sp, sp, #8
 8963              		.cfi_def_cfa_offset 48
ARM GAS  /var/folders/1y/_321xjh9623c014x9_qw12rr0000gn/T//ccE17DNe.s 			page 249


 8964              	.LBB2008:
 8965              	.LBB2009:
 106:../../libDaisy//src/dev/oled_ssd130x.h ****         pin_dc_.pin  = config.pin_config.dc;
 8966              		.loc 4 106 22 view .LVU2383
 8967 0008 0125     		movs	r5, #1
 107:../../libDaisy//src/dev/oled_ssd130x.h ****         dsy_gpio_init(&pin_dc_);
 8968              		.loc 4 107 22 view .LVU2384
 8969 000a 0646     		mov	r6, r0
 8970              	.LBE2009:
 8971              	.LBE2008:
 253:../../libDaisy//src/dev/oled_ssd130x.h ****     {
 8972              		.loc 4 253 10 view .LVU2385
 8973 000c 0446     		mov	r4, r0
 8974              	.LVL650:
 8975              	.LBB2013:
 8976              	.LBI2008:
 103:../../libDaisy//src/dev/oled_ssd130x.h ****     {
 8977              		.loc 4 103 10 is_stmt 1 view .LVU2386
 8978              	.LBB2010:
 106:../../libDaisy//src/dev/oled_ssd130x.h ****         pin_dc_.pin  = config.pin_config.dc;
 8979              		.loc 4 106 9 view .LVU2387
 8980              	.LBE2010:
 8981              	.LBE2013:
 253:../../libDaisy//src/dev/oled_ssd130x.h ****     {
 8982              		.loc 4 253 10 is_stmt 0 view .LVU2388
 8983 000e 0DF12408 		add	r8, sp, #36
 8984              	.LBB2014:
 8985              	.LBB2011:
 106:../../libDaisy//src/dev/oled_ssd130x.h ****         pin_dc_.pin  = config.pin_config.dc;
 8986              		.loc 4 106 22 view .LVU2389
 8987 0012 8572     		strb	r5, [r0, #10]
 107:../../libDaisy//src/dev/oled_ssd130x.h ****         dsy_gpio_init(&pin_dc_);
 8988              		.loc 4 107 9 is_stmt 1 view .LVU2390
 110:../../libDaisy//src/dev/oled_ssd130x.h ****         dsy_gpio_init(&pin_reset_);
 8989              		.loc 4 110 25 is_stmt 0 view .LVU2391
 8990 0014 2746     		mov	r7, r4
 8991              	.LBE2011:
 8992              	.LBE2014:
 253:../../libDaisy//src/dev/oled_ssd130x.h ****     {
 8993              		.loc 4 253 10 view .LVU2392
 8994 0016 88E80E00 		stm	r8, {r1, r2, r3}
 8995              	.LBB2015:
 8996              	.LBB2012:
 107:../../libDaisy//src/dev/oled_ssd130x.h ****         dsy_gpio_init(&pin_dc_);
 8997              		.loc 4 107 22 view .LVU2393
 8998 001a BDF84C30 		ldrh	r3, [sp, #76]
 8999 001e 26F8083F 		strh	r3, [r6, #8]!	@ movhi
 108:../../libDaisy//src/dev/oled_ssd130x.h ****         pin_reset_.mode = DSY_GPIO_MODE_OUTPUT_PP;
 9000              		.loc 4 108 9 is_stmt 1 view .LVU2394
 108:../../libDaisy//src/dev/oled_ssd130x.h ****         pin_reset_.mode = DSY_GPIO_MODE_OUTPUT_PP;
 9001              		.loc 4 108 22 is_stmt 0 view .LVU2395
 9002 0022 3046     		mov	r0, r6
 9003              	.LVL651:
 108:../../libDaisy//src/dev/oled_ssd130x.h ****         pin_reset_.mode = DSY_GPIO_MODE_OUTPUT_PP;
 9004              		.loc 4 108 22 view .LVU2396
 9005 0024 FFF7FEFF 		bl	dsy_gpio_init
 9006              	.LVL652:
ARM GAS  /var/folders/1y/_321xjh9623c014x9_qw12rr0000gn/T//ccE17DNe.s 			page 250


 109:../../libDaisy//src/dev/oled_ssd130x.h ****         pin_reset_.pin  = config.pin_config.reset;
 9007              		.loc 4 109 9 is_stmt 1 view .LVU2397
 110:../../libDaisy//src/dev/oled_ssd130x.h ****         dsy_gpio_init(&pin_reset_);
 9008              		.loc 4 110 25 is_stmt 0 view .LVU2398
 9009 0028 BDF84E30 		ldrh	r3, [sp, #78]
 109:../../libDaisy//src/dev/oled_ssd130x.h ****         pin_reset_.pin  = config.pin_config.reset;
 9010              		.loc 4 109 25 view .LVU2399
 9011 002c A571     		strb	r5, [r4, #6]
 110:../../libDaisy//src/dev/oled_ssd130x.h ****         dsy_gpio_init(&pin_reset_);
 9012              		.loc 4 110 9 is_stmt 1 view .LVU2400
 110:../../libDaisy//src/dev/oled_ssd130x.h ****         dsy_gpio_init(&pin_reset_);
 9013              		.loc 4 110 25 is_stmt 0 view .LVU2401
 9014 002e 27F8043F 		strh	r3, [r7, #4]!	@ movhi
 111:../../libDaisy//src/dev/oled_ssd130x.h **** 
 9015              		.loc 4 111 9 is_stmt 1 view .LVU2402
 111:../../libDaisy//src/dev/oled_ssd130x.h **** 
 9016              		.loc 4 111 22 is_stmt 0 view .LVU2403
 9017 0032 3846     		mov	r0, r7
 9018 0034 FFF7FEFF 		bl	dsy_gpio_init
 9019              	.LVL653:
 114:../../libDaisy//src/dev/oled_ssd130x.h **** 
 9020              		.loc 4 114 9 is_stmt 1 view .LVU2404
 114:../../libDaisy//src/dev/oled_ssd130x.h **** 
 9021              		.loc 4 114 18 is_stmt 0 view .LVU2405
 9022 0038 4146     		mov	r1, r8
 9023 003a 2046     		mov	r0, r4
 9024 003c FFF7FEFF 		bl	_ZN5daisy9SpiHandle4InitERKNS0_6ConfigE
 9025              	.LVL654:
 117:../../libDaisy//src/dev/oled_ssd130x.h ****         System::Delay(10);
 9026              		.loc 4 117 9 is_stmt 1 view .LVU2406
 117:../../libDaisy//src/dev/oled_ssd130x.h ****         System::Delay(10);
 9027              		.loc 4 117 23 is_stmt 0 view .LVU2407
 9028 0040 0021     		movs	r1, #0
 9029 0042 3846     		mov	r0, r7
 9030 0044 FFF7FEFF 		bl	dsy_gpio_write
 9031              	.LVL655:
 118:../../libDaisy//src/dev/oled_ssd130x.h ****         dsy_gpio_write(&pin_reset_, 1);
 9032              		.loc 4 118 9 is_stmt 1 view .LVU2408
 118:../../libDaisy//src/dev/oled_ssd130x.h ****         dsy_gpio_write(&pin_reset_, 1);
 9033              		.loc 4 118 22 is_stmt 0 view .LVU2409
 9034 0048 0A20     		movs	r0, #10
 9035 004a FFF7FEFF 		bl	_ZN5daisy6System5DelayEm
 9036              	.LVL656:
 119:../../libDaisy//src/dev/oled_ssd130x.h ****         System::Delay(10);
 9037              		.loc 4 119 9 is_stmt 1 view .LVU2410
 119:../../libDaisy//src/dev/oled_ssd130x.h ****         System::Delay(10);
 9038              		.loc 4 119 23 is_stmt 0 view .LVU2411
 9039 004e 2946     		mov	r1, r5
 9040 0050 3846     		mov	r0, r7
 9041 0052 FFF7FEFF 		bl	dsy_gpio_write
 9042              	.LVL657:
 120:../../libDaisy//src/dev/oled_ssd130x.h ****     };
 9043              		.loc 4 120 9 is_stmt 1 view .LVU2412
 120:../../libDaisy//src/dev/oled_ssd130x.h ****     };
 9044              		.loc 4 120 22 is_stmt 0 view .LVU2413
 9045 0056 0A20     		movs	r0, #10
 9046 0058 FFF7FEFF 		bl	_ZN5daisy6System5DelayEm
ARM GAS  /var/folders/1y/_321xjh9623c014x9_qw12rr0000gn/T//ccE17DNe.s 			page 251


 9047              	.LVL658:
 120:../../libDaisy//src/dev/oled_ssd130x.h ****     };
 9048              		.loc 4 120 22 view .LVU2414
 9049 005c AE23     		movs	r3, #174
 9050              	.LBE2012:
 9051              	.LBE2015:
 9052              	.LBB2016:
 9053              	.LBB2017:
 124:../../libDaisy//src/dev/oled_ssd130x.h ****         spi_.BlockingTransmit(&cmd, 1);
 9054              		.loc 4 124 23 view .LVU2415
 9055 005e 3046     		mov	r0, r6
 9056 0060 0021     		movs	r1, #0
 9057 0062 8DF80730 		strb	r3, [sp, #7]
 9058              	.LVL659:
 124:../../libDaisy//src/dev/oled_ssd130x.h ****         spi_.BlockingTransmit(&cmd, 1);
 9059              		.loc 4 124 23 view .LVU2416
 9060              	.LBE2017:
 9061              	.LBI2016:
 122:../../libDaisy//src/dev/oled_ssd130x.h ****     {
 9062              		.loc 4 122 10 is_stmt 1 view .LVU2417
 9063              	.LBB2018:
 124:../../libDaisy//src/dev/oled_ssd130x.h ****         spi_.BlockingTransmit(&cmd, 1);
 9064              		.loc 4 124 9 view .LVU2418
 124:../../libDaisy//src/dev/oled_ssd130x.h ****         spi_.BlockingTransmit(&cmd, 1);
 9065              		.loc 4 124 23 is_stmt 0 view .LVU2419
 9066 0066 FFF7FEFF 		bl	dsy_gpio_write
 9067              	.LVL660:
 125:../../libDaisy//src/dev/oled_ssd130x.h ****     };
 9068              		.loc 4 125 9 is_stmt 1 view .LVU2420
 125:../../libDaisy//src/dev/oled_ssd130x.h ****     };
 9069              		.loc 4 125 30 is_stmt 0 view .LVU2421
 9070 006a 2A46     		mov	r2, r5
 9071 006c 0DF10701 		add	r1, sp, #7
 9072 0070 6423     		movs	r3, #100
 9073 0072 2046     		mov	r0, r4
 9074 0074 FFF7FEFF 		bl	_ZN5daisy9SpiHandle16BlockingTransmitEPhjm
 9075              	.LVL661:
 125:../../libDaisy//src/dev/oled_ssd130x.h ****     };
 9076              		.loc 4 125 30 view .LVU2422
 9077 0078 D523     		movs	r3, #213
 9078              	.LBE2018:
 9079              	.LBE2016:
 9080              	.LBB2019:
 9081              	.LBB2020:
 124:../../libDaisy//src/dev/oled_ssd130x.h ****         spi_.BlockingTransmit(&cmd, 1);
 9082              		.loc 4 124 23 view .LVU2423
 9083 007a 3046     		mov	r0, r6
 9084 007c 0021     		movs	r1, #0
 9085 007e 8DF80730 		strb	r3, [sp, #7]
 9086              	.LVL662:
 124:../../libDaisy//src/dev/oled_ssd130x.h ****         spi_.BlockingTransmit(&cmd, 1);
 9087              		.loc 4 124 23 view .LVU2424
 9088              	.LBE2020:
 9089              	.LBI2019:
 122:../../libDaisy//src/dev/oled_ssd130x.h ****     {
 9090              		.loc 4 122 10 is_stmt 1 view .LVU2425
 9091              	.LBB2021:
ARM GAS  /var/folders/1y/_321xjh9623c014x9_qw12rr0000gn/T//ccE17DNe.s 			page 252


 124:../../libDaisy//src/dev/oled_ssd130x.h ****         spi_.BlockingTransmit(&cmd, 1);
 9092              		.loc 4 124 9 view .LVU2426
 124:../../libDaisy//src/dev/oled_ssd130x.h ****         spi_.BlockingTransmit(&cmd, 1);
 9093              		.loc 4 124 23 is_stmt 0 view .LVU2427
 9094 0082 FFF7FEFF 		bl	dsy_gpio_write
 9095              	.LVL663:
 125:../../libDaisy//src/dev/oled_ssd130x.h ****     };
 9096              		.loc 4 125 9 is_stmt 1 view .LVU2428
 125:../../libDaisy//src/dev/oled_ssd130x.h ****     };
 9097              		.loc 4 125 30 is_stmt 0 view .LVU2429
 9098 0086 2A46     		mov	r2, r5
 9099 0088 0DF10701 		add	r1, sp, #7
 9100 008c 6423     		movs	r3, #100
 9101 008e 2046     		mov	r0, r4
 9102 0090 FFF7FEFF 		bl	_ZN5daisy9SpiHandle16BlockingTransmitEPhjm
 9103              	.LVL664:
 125:../../libDaisy//src/dev/oled_ssd130x.h ****     };
 9104              		.loc 4 125 30 view .LVU2430
 9105 0094 8023     		movs	r3, #128
 9106              	.LBE2021:
 9107              	.LBE2019:
 9108              	.LBB2022:
 9109              	.LBB2023:
 124:../../libDaisy//src/dev/oled_ssd130x.h ****         spi_.BlockingTransmit(&cmd, 1);
 9110              		.loc 4 124 23 view .LVU2431
 9111 0096 3046     		mov	r0, r6
 9112 0098 0021     		movs	r1, #0
 9113 009a 8DF80730 		strb	r3, [sp, #7]
 9114              	.LVL665:
 124:../../libDaisy//src/dev/oled_ssd130x.h ****         spi_.BlockingTransmit(&cmd, 1);
 9115              		.loc 4 124 23 view .LVU2432
 9116              	.LBE2023:
 9117              	.LBI2022:
 122:../../libDaisy//src/dev/oled_ssd130x.h ****     {
 9118              		.loc 4 122 10 is_stmt 1 view .LVU2433
 9119              	.LBB2024:
 124:../../libDaisy//src/dev/oled_ssd130x.h ****         spi_.BlockingTransmit(&cmd, 1);
 9120              		.loc 4 124 9 view .LVU2434
 124:../../libDaisy//src/dev/oled_ssd130x.h ****         spi_.BlockingTransmit(&cmd, 1);
 9121              		.loc 4 124 23 is_stmt 0 view .LVU2435
 9122 009e FFF7FEFF 		bl	dsy_gpio_write
 9123              	.LVL666:
 125:../../libDaisy//src/dev/oled_ssd130x.h ****     };
 9124              		.loc 4 125 9 is_stmt 1 view .LVU2436
 125:../../libDaisy//src/dev/oled_ssd130x.h ****     };
 9125              		.loc 4 125 30 is_stmt 0 view .LVU2437
 9126 00a2 2A46     		mov	r2, r5
 9127 00a4 0DF10701 		add	r1, sp, #7
 9128 00a8 6423     		movs	r3, #100
 9129 00aa 2046     		mov	r0, r4
 9130 00ac FFF7FEFF 		bl	_ZN5daisy9SpiHandle16BlockingTransmitEPhjm
 9131              	.LVL667:
 125:../../libDaisy//src/dev/oled_ssd130x.h ****     };
 9132              		.loc 4 125 30 view .LVU2438
 9133 00b0 A823     		movs	r3, #168
 9134              	.LBE2024:
 9135              	.LBE2022:
ARM GAS  /var/folders/1y/_321xjh9623c014x9_qw12rr0000gn/T//ccE17DNe.s 			page 253


 9136              	.LBB2025:
 9137              	.LBB2026:
 124:../../libDaisy//src/dev/oled_ssd130x.h ****         spi_.BlockingTransmit(&cmd, 1);
 9138              		.loc 4 124 23 view .LVU2439
 9139 00b2 3046     		mov	r0, r6
 9140 00b4 0021     		movs	r1, #0
 9141 00b6 8DF80730 		strb	r3, [sp, #7]
 9142              	.LVL668:
 124:../../libDaisy//src/dev/oled_ssd130x.h ****         spi_.BlockingTransmit(&cmd, 1);
 9143              		.loc 4 124 23 view .LVU2440
 9144              	.LBE2026:
 9145              	.LBI2025:
 122:../../libDaisy//src/dev/oled_ssd130x.h ****     {
 9146              		.loc 4 122 10 is_stmt 1 view .LVU2441
 9147              	.LBB2027:
 124:../../libDaisy//src/dev/oled_ssd130x.h ****         spi_.BlockingTransmit(&cmd, 1);
 9148              		.loc 4 124 9 view .LVU2442
 124:../../libDaisy//src/dev/oled_ssd130x.h ****         spi_.BlockingTransmit(&cmd, 1);
 9149              		.loc 4 124 23 is_stmt 0 view .LVU2443
 9150 00ba FFF7FEFF 		bl	dsy_gpio_write
 9151              	.LVL669:
 125:../../libDaisy//src/dev/oled_ssd130x.h ****     };
 9152              		.loc 4 125 9 is_stmt 1 view .LVU2444
 125:../../libDaisy//src/dev/oled_ssd130x.h ****     };
 9153              		.loc 4 125 30 is_stmt 0 view .LVU2445
 9154 00be 2A46     		mov	r2, r5
 9155 00c0 0DF10701 		add	r1, sp, #7
 9156 00c4 6423     		movs	r3, #100
 9157 00c6 2046     		mov	r0, r4
 9158 00c8 FFF7FEFF 		bl	_ZN5daisy9SpiHandle16BlockingTransmitEPhjm
 9159              	.LVL670:
 125:../../libDaisy//src/dev/oled_ssd130x.h ****     };
 9160              		.loc 4 125 30 view .LVU2446
 9161 00cc 3F23     		movs	r3, #63
 9162              	.LBE2027:
 9163              	.LBE2025:
 9164              	.LBB2028:
 9165              	.LBB2029:
 124:../../libDaisy//src/dev/oled_ssd130x.h ****         spi_.BlockingTransmit(&cmd, 1);
 9166              		.loc 4 124 23 view .LVU2447
 9167 00ce 3046     		mov	r0, r6
 9168 00d0 0021     		movs	r1, #0
 9169 00d2 8DF80730 		strb	r3, [sp, #7]
 9170              	.LVL671:
 124:../../libDaisy//src/dev/oled_ssd130x.h ****         spi_.BlockingTransmit(&cmd, 1);
 9171              		.loc 4 124 23 view .LVU2448
 9172              	.LBE2029:
 9173              	.LBI2028:
 122:../../libDaisy//src/dev/oled_ssd130x.h ****     {
 9174              		.loc 4 122 10 is_stmt 1 view .LVU2449
 9175              	.LBB2030:
 124:../../libDaisy//src/dev/oled_ssd130x.h ****         spi_.BlockingTransmit(&cmd, 1);
 9176              		.loc 4 124 9 view .LVU2450
 124:../../libDaisy//src/dev/oled_ssd130x.h ****         spi_.BlockingTransmit(&cmd, 1);
 9177              		.loc 4 124 23 is_stmt 0 view .LVU2451
 9178 00d6 FFF7FEFF 		bl	dsy_gpio_write
 9179              	.LVL672:
ARM GAS  /var/folders/1y/_321xjh9623c014x9_qw12rr0000gn/T//ccE17DNe.s 			page 254


 125:../../libDaisy//src/dev/oled_ssd130x.h ****     };
 9180              		.loc 4 125 9 is_stmt 1 view .LVU2452
 125:../../libDaisy//src/dev/oled_ssd130x.h ****     };
 9181              		.loc 4 125 30 is_stmt 0 view .LVU2453
 9182 00da 2A46     		mov	r2, r5
 9183 00dc 0DF10701 		add	r1, sp, #7
 9184 00e0 6423     		movs	r3, #100
 9185 00e2 2046     		mov	r0, r4
 9186 00e4 FFF7FEFF 		bl	_ZN5daisy9SpiHandle16BlockingTransmitEPhjm
 9187              	.LVL673:
 125:../../libDaisy//src/dev/oled_ssd130x.h ****     };
 9188              		.loc 4 125 30 view .LVU2454
 9189 00e8 DA23     		movs	r3, #218
 9190              	.LBE2030:
 9191              	.LBE2028:
 9192              	.LBB2031:
 9193              	.LBB2032:
 124:../../libDaisy//src/dev/oled_ssd130x.h ****         spi_.BlockingTransmit(&cmd, 1);
 9194              		.loc 4 124 23 view .LVU2455
 9195 00ea 3046     		mov	r0, r6
 9196 00ec 0021     		movs	r1, #0
 9197 00ee 8DF80730 		strb	r3, [sp, #7]
 9198              	.LVL674:
 124:../../libDaisy//src/dev/oled_ssd130x.h ****         spi_.BlockingTransmit(&cmd, 1);
 9199              		.loc 4 124 23 view .LVU2456
 9200              	.LBE2032:
 9201              	.LBI2031:
 122:../../libDaisy//src/dev/oled_ssd130x.h ****     {
 9202              		.loc 4 122 10 is_stmt 1 view .LVU2457
 9203              	.LBB2033:
 124:../../libDaisy//src/dev/oled_ssd130x.h ****         spi_.BlockingTransmit(&cmd, 1);
 9204              		.loc 4 124 9 view .LVU2458
 124:../../libDaisy//src/dev/oled_ssd130x.h ****         spi_.BlockingTransmit(&cmd, 1);
 9205              		.loc 4 124 23 is_stmt 0 view .LVU2459
 9206 00f2 FFF7FEFF 		bl	dsy_gpio_write
 9207              	.LVL675:
 125:../../libDaisy//src/dev/oled_ssd130x.h ****     };
 9208              		.loc 4 125 9 is_stmt 1 view .LVU2460
 125:../../libDaisy//src/dev/oled_ssd130x.h ****     };
 9209              		.loc 4 125 30 is_stmt 0 view .LVU2461
 9210 00f6 2A46     		mov	r2, r5
 9211 00f8 0DF10701 		add	r1, sp, #7
 9212 00fc 6423     		movs	r3, #100
 9213 00fe 2046     		mov	r0, r4
 9214 0100 FFF7FEFF 		bl	_ZN5daisy9SpiHandle16BlockingTransmitEPhjm
 9215              	.LVL676:
 125:../../libDaisy//src/dev/oled_ssd130x.h ****     };
 9216              		.loc 4 125 30 view .LVU2462
 9217 0104 1223     		movs	r3, #18
 9218              	.LBE2033:
 9219              	.LBE2031:
 9220              	.LBB2034:
 9221              	.LBB2035:
 124:../../libDaisy//src/dev/oled_ssd130x.h ****         spi_.BlockingTransmit(&cmd, 1);
 9222              		.loc 4 124 23 view .LVU2463
 9223 0106 3046     		mov	r0, r6
 9224 0108 0021     		movs	r1, #0
ARM GAS  /var/folders/1y/_321xjh9623c014x9_qw12rr0000gn/T//ccE17DNe.s 			page 255


 9225 010a 8DF80730 		strb	r3, [sp, #7]
 9226              	.LVL677:
 124:../../libDaisy//src/dev/oled_ssd130x.h ****         spi_.BlockingTransmit(&cmd, 1);
 9227              		.loc 4 124 23 view .LVU2464
 9228              	.LBE2035:
 9229              	.LBI2034:
 122:../../libDaisy//src/dev/oled_ssd130x.h ****     {
 9230              		.loc 4 122 10 is_stmt 1 view .LVU2465
 9231              	.LBB2036:
 124:../../libDaisy//src/dev/oled_ssd130x.h ****         spi_.BlockingTransmit(&cmd, 1);
 9232              		.loc 4 124 9 view .LVU2466
 124:../../libDaisy//src/dev/oled_ssd130x.h ****         spi_.BlockingTransmit(&cmd, 1);
 9233              		.loc 4 124 23 is_stmt 0 view .LVU2467
 9234 010e FFF7FEFF 		bl	dsy_gpio_write
 9235              	.LVL678:
 125:../../libDaisy//src/dev/oled_ssd130x.h ****     };
 9236              		.loc 4 125 9 is_stmt 1 view .LVU2468
 125:../../libDaisy//src/dev/oled_ssd130x.h ****     };
 9237              		.loc 4 125 30 is_stmt 0 view .LVU2469
 9238 0112 2A46     		mov	r2, r5
 9239 0114 0DF10701 		add	r1, sp, #7
 9240 0118 6423     		movs	r3, #100
 9241 011a 2046     		mov	r0, r4
 9242 011c FFF7FEFF 		bl	_ZN5daisy9SpiHandle16BlockingTransmitEPhjm
 9243              	.LVL679:
 125:../../libDaisy//src/dev/oled_ssd130x.h ****     };
 9244              		.loc 4 125 30 view .LVU2470
 9245              	.LBE2036:
 9246              	.LBE2034:
 9247              	.LBB2037:
 9248              	.LBB2038:
 124:../../libDaisy//src/dev/oled_ssd130x.h ****         spi_.BlockingTransmit(&cmd, 1);
 9249              		.loc 4 124 23 view .LVU2471
 9250 0120 0021     		movs	r1, #0
 9251 0122 D323     		movs	r3, #211
 9252 0124 3046     		mov	r0, r6
 9253 0126 0F46     		mov	r7, r1
 9254 0128 8DF80730 		strb	r3, [sp, #7]
 9255              	.LVL680:
 124:../../libDaisy//src/dev/oled_ssd130x.h ****         spi_.BlockingTransmit(&cmd, 1);
 9256              		.loc 4 124 23 view .LVU2472
 9257              	.LBE2038:
 9258              	.LBI2037:
 122:../../libDaisy//src/dev/oled_ssd130x.h ****     {
 9259              		.loc 4 122 10 is_stmt 1 view .LVU2473
 9260              	.LBB2039:
 124:../../libDaisy//src/dev/oled_ssd130x.h ****         spi_.BlockingTransmit(&cmd, 1);
 9261              		.loc 4 124 9 view .LVU2474
 124:../../libDaisy//src/dev/oled_ssd130x.h ****         spi_.BlockingTransmit(&cmd, 1);
 9262              		.loc 4 124 23 is_stmt 0 view .LVU2475
 9263 012c FFF7FEFF 		bl	dsy_gpio_write
 9264              	.LVL681:
 125:../../libDaisy//src/dev/oled_ssd130x.h ****     };
 9265              		.loc 4 125 9 is_stmt 1 view .LVU2476
 125:../../libDaisy//src/dev/oled_ssd130x.h ****     };
 9266              		.loc 4 125 30 is_stmt 0 view .LVU2477
 9267 0130 2A46     		mov	r2, r5
ARM GAS  /var/folders/1y/_321xjh9623c014x9_qw12rr0000gn/T//ccE17DNe.s 			page 256


 9268 0132 6423     		movs	r3, #100
 9269 0134 0DF10701 		add	r1, sp, #7
 9270 0138 2046     		mov	r0, r4
 9271 013a FFF7FEFF 		bl	_ZN5daisy9SpiHandle16BlockingTransmitEPhjm
 9272              	.LVL682:
 125:../../libDaisy//src/dev/oled_ssd130x.h ****     };
 9273              		.loc 4 125 30 view .LVU2478
 9274              	.LBE2039:
 9275              	.LBE2037:
 9276              	.LBB2040:
 9277              	.LBB2041:
 124:../../libDaisy//src/dev/oled_ssd130x.h ****         spi_.BlockingTransmit(&cmd, 1);
 9278              		.loc 4 124 23 view .LVU2479
 9279 013e 3946     		mov	r1, r7
 9280 0140 3046     		mov	r0, r6
 9281 0142 8DF80770 		strb	r7, [sp, #7]
 9282              	.LVL683:
 124:../../libDaisy//src/dev/oled_ssd130x.h ****         spi_.BlockingTransmit(&cmd, 1);
 9283              		.loc 4 124 23 view .LVU2480
 9284              	.LBE2041:
 9285              	.LBI2040:
 122:../../libDaisy//src/dev/oled_ssd130x.h ****     {
 9286              		.loc 4 122 10 is_stmt 1 view .LVU2481
 9287              	.LBB2042:
 124:../../libDaisy//src/dev/oled_ssd130x.h ****         spi_.BlockingTransmit(&cmd, 1);
 9288              		.loc 4 124 9 view .LVU2482
 124:../../libDaisy//src/dev/oled_ssd130x.h ****         spi_.BlockingTransmit(&cmd, 1);
 9289              		.loc 4 124 23 is_stmt 0 view .LVU2483
 9290 0146 FFF7FEFF 		bl	dsy_gpio_write
 9291              	.LVL684:
 125:../../libDaisy//src/dev/oled_ssd130x.h ****     };
 9292              		.loc 4 125 9 is_stmt 1 view .LVU2484
 125:../../libDaisy//src/dev/oled_ssd130x.h ****     };
 9293              		.loc 4 125 30 is_stmt 0 view .LVU2485
 9294 014a 2A46     		mov	r2, r5
 9295 014c 0DF10701 		add	r1, sp, #7
 9296 0150 6423     		movs	r3, #100
 9297 0152 2046     		mov	r0, r4
 9298 0154 FFF7FEFF 		bl	_ZN5daisy9SpiHandle16BlockingTransmitEPhjm
 9299              	.LVL685:
 125:../../libDaisy//src/dev/oled_ssd130x.h ****     };
 9300              		.loc 4 125 30 view .LVU2486
 9301 0158 4023     		movs	r3, #64
 9302              	.LBE2042:
 9303              	.LBE2040:
 9304              	.LBB2043:
 9305              	.LBB2044:
 124:../../libDaisy//src/dev/oled_ssd130x.h ****         spi_.BlockingTransmit(&cmd, 1);
 9306              		.loc 4 124 23 view .LVU2487
 9307 015a 3946     		mov	r1, r7
 9308 015c 3046     		mov	r0, r6
 9309 015e 8DF80730 		strb	r3, [sp, #7]
 9310              	.LVL686:
 124:../../libDaisy//src/dev/oled_ssd130x.h ****         spi_.BlockingTransmit(&cmd, 1);
 9311              		.loc 4 124 23 view .LVU2488
 9312              	.LBE2044:
 9313              	.LBI2043:
ARM GAS  /var/folders/1y/_321xjh9623c014x9_qw12rr0000gn/T//ccE17DNe.s 			page 257


 122:../../libDaisy//src/dev/oled_ssd130x.h ****     {
 9314              		.loc 4 122 10 is_stmt 1 view .LVU2489
 9315              	.LBB2045:
 124:../../libDaisy//src/dev/oled_ssd130x.h ****         spi_.BlockingTransmit(&cmd, 1);
 9316              		.loc 4 124 9 view .LVU2490
 124:../../libDaisy//src/dev/oled_ssd130x.h ****         spi_.BlockingTransmit(&cmd, 1);
 9317              		.loc 4 124 23 is_stmt 0 view .LVU2491
 9318 0162 FFF7FEFF 		bl	dsy_gpio_write
 9319              	.LVL687:
 125:../../libDaisy//src/dev/oled_ssd130x.h ****     };
 9320              		.loc 4 125 9 is_stmt 1 view .LVU2492
 125:../../libDaisy//src/dev/oled_ssd130x.h ****     };
 9321              		.loc 4 125 30 is_stmt 0 view .LVU2493
 9322 0166 2A46     		mov	r2, r5
 9323 0168 0DF10701 		add	r1, sp, #7
 9324 016c 6423     		movs	r3, #100
 9325 016e 2046     		mov	r0, r4
 9326 0170 FFF7FEFF 		bl	_ZN5daisy9SpiHandle16BlockingTransmitEPhjm
 9327              	.LVL688:
 125:../../libDaisy//src/dev/oled_ssd130x.h ****     };
 9328              		.loc 4 125 30 view .LVU2494
 9329 0174 A623     		movs	r3, #166
 9330              	.LBE2045:
 9331              	.LBE2043:
 9332              	.LBB2046:
 9333              	.LBB2047:
 124:../../libDaisy//src/dev/oled_ssd130x.h ****         spi_.BlockingTransmit(&cmd, 1);
 9334              		.loc 4 124 23 view .LVU2495
 9335 0176 3946     		mov	r1, r7
 9336 0178 3046     		mov	r0, r6
 9337 017a 8DF80730 		strb	r3, [sp, #7]
 9338              	.LVL689:
 124:../../libDaisy//src/dev/oled_ssd130x.h ****         spi_.BlockingTransmit(&cmd, 1);
 9339              		.loc 4 124 23 view .LVU2496
 9340              	.LBE2047:
 9341              	.LBI2046:
 122:../../libDaisy//src/dev/oled_ssd130x.h ****     {
 9342              		.loc 4 122 10 is_stmt 1 view .LVU2497
 9343              	.LBB2048:
 124:../../libDaisy//src/dev/oled_ssd130x.h ****         spi_.BlockingTransmit(&cmd, 1);
 9344              		.loc 4 124 9 view .LVU2498
 124:../../libDaisy//src/dev/oled_ssd130x.h ****         spi_.BlockingTransmit(&cmd, 1);
 9345              		.loc 4 124 23 is_stmt 0 view .LVU2499
 9346 017e FFF7FEFF 		bl	dsy_gpio_write
 9347              	.LVL690:
 125:../../libDaisy//src/dev/oled_ssd130x.h ****     };
 9348              		.loc 4 125 9 is_stmt 1 view .LVU2500
 125:../../libDaisy//src/dev/oled_ssd130x.h ****     };
 9349              		.loc 4 125 30 is_stmt 0 view .LVU2501
 9350 0182 2A46     		mov	r2, r5
 9351 0184 0DF10701 		add	r1, sp, #7
 9352 0188 6423     		movs	r3, #100
 9353 018a 2046     		mov	r0, r4
 9354 018c FFF7FEFF 		bl	_ZN5daisy9SpiHandle16BlockingTransmitEPhjm
 9355              	.LVL691:
 125:../../libDaisy//src/dev/oled_ssd130x.h ****     };
 9356              		.loc 4 125 30 view .LVU2502
ARM GAS  /var/folders/1y/_321xjh9623c014x9_qw12rr0000gn/T//ccE17DNe.s 			page 258


 9357 0190 A423     		movs	r3, #164
 9358              	.LBE2048:
 9359              	.LBE2046:
 9360              	.LBB2049:
 9361              	.LBB2050:
 124:../../libDaisy//src/dev/oled_ssd130x.h ****         spi_.BlockingTransmit(&cmd, 1);
 9362              		.loc 4 124 23 view .LVU2503
 9363 0192 3946     		mov	r1, r7
 9364 0194 3046     		mov	r0, r6
 9365 0196 8DF80730 		strb	r3, [sp, #7]
 9366              	.LVL692:
 124:../../libDaisy//src/dev/oled_ssd130x.h ****         spi_.BlockingTransmit(&cmd, 1);
 9367              		.loc 4 124 23 view .LVU2504
 9368              	.LBE2050:
 9369              	.LBI2049:
 122:../../libDaisy//src/dev/oled_ssd130x.h ****     {
 9370              		.loc 4 122 10 is_stmt 1 view .LVU2505
 9371              	.LBB2051:
 124:../../libDaisy//src/dev/oled_ssd130x.h ****         spi_.BlockingTransmit(&cmd, 1);
 9372              		.loc 4 124 9 view .LVU2506
 124:../../libDaisy//src/dev/oled_ssd130x.h ****         spi_.BlockingTransmit(&cmd, 1);
 9373              		.loc 4 124 23 is_stmt 0 view .LVU2507
 9374 019a FFF7FEFF 		bl	dsy_gpio_write
 9375              	.LVL693:
 125:../../libDaisy//src/dev/oled_ssd130x.h ****     };
 9376              		.loc 4 125 9 is_stmt 1 view .LVU2508
 125:../../libDaisy//src/dev/oled_ssd130x.h ****     };
 9377              		.loc 4 125 30 is_stmt 0 view .LVU2509
 9378 019e 2A46     		mov	r2, r5
 9379 01a0 0DF10701 		add	r1, sp, #7
 9380 01a4 6423     		movs	r3, #100
 9381 01a6 2046     		mov	r0, r4
 9382 01a8 FFF7FEFF 		bl	_ZN5daisy9SpiHandle16BlockingTransmitEPhjm
 9383              	.LVL694:
 125:../../libDaisy//src/dev/oled_ssd130x.h ****     };
 9384              		.loc 4 125 30 view .LVU2510
 9385 01ac 8D23     		movs	r3, #141
 9386              	.LBE2051:
 9387              	.LBE2049:
 9388              	.LBB2052:
 9389              	.LBB2053:
 124:../../libDaisy//src/dev/oled_ssd130x.h ****         spi_.BlockingTransmit(&cmd, 1);
 9390              		.loc 4 124 23 view .LVU2511
 9391 01ae 3946     		mov	r1, r7
 9392 01b0 3046     		mov	r0, r6
 9393 01b2 8DF80730 		strb	r3, [sp, #7]
 9394              	.LVL695:
 124:../../libDaisy//src/dev/oled_ssd130x.h ****         spi_.BlockingTransmit(&cmd, 1);
 9395              		.loc 4 124 23 view .LVU2512
 9396              	.LBE2053:
 9397              	.LBI2052:
 122:../../libDaisy//src/dev/oled_ssd130x.h ****     {
 9398              		.loc 4 122 10 is_stmt 1 view .LVU2513
 9399              	.LBB2054:
 124:../../libDaisy//src/dev/oled_ssd130x.h ****         spi_.BlockingTransmit(&cmd, 1);
 9400              		.loc 4 124 9 view .LVU2514
 124:../../libDaisy//src/dev/oled_ssd130x.h ****         spi_.BlockingTransmit(&cmd, 1);
ARM GAS  /var/folders/1y/_321xjh9623c014x9_qw12rr0000gn/T//ccE17DNe.s 			page 259


 9401              		.loc 4 124 23 is_stmt 0 view .LVU2515
 9402 01b6 FFF7FEFF 		bl	dsy_gpio_write
 9403              	.LVL696:
 125:../../libDaisy//src/dev/oled_ssd130x.h ****     };
 9404              		.loc 4 125 9 is_stmt 1 view .LVU2516
 125:../../libDaisy//src/dev/oled_ssd130x.h ****     };
 9405              		.loc 4 125 30 is_stmt 0 view .LVU2517
 9406 01ba 2A46     		mov	r2, r5
 9407 01bc 0DF10701 		add	r1, sp, #7
 9408 01c0 6423     		movs	r3, #100
 9409 01c2 2046     		mov	r0, r4
 9410 01c4 FFF7FEFF 		bl	_ZN5daisy9SpiHandle16BlockingTransmitEPhjm
 9411              	.LVL697:
 125:../../libDaisy//src/dev/oled_ssd130x.h ****     };
 9412              		.loc 4 125 30 view .LVU2518
 9413 01c8 1423     		movs	r3, #20
 9414              	.LBE2054:
 9415              	.LBE2052:
 9416              	.LBB2055:
 9417              	.LBB2056:
 124:../../libDaisy//src/dev/oled_ssd130x.h ****         spi_.BlockingTransmit(&cmd, 1);
 9418              		.loc 4 124 23 view .LVU2519
 9419 01ca 3946     		mov	r1, r7
 9420 01cc 3046     		mov	r0, r6
 9421 01ce 8DF80730 		strb	r3, [sp, #7]
 9422              	.LVL698:
 124:../../libDaisy//src/dev/oled_ssd130x.h ****         spi_.BlockingTransmit(&cmd, 1);
 9423              		.loc 4 124 23 view .LVU2520
 9424              	.LBE2056:
 9425              	.LBI2055:
 122:../../libDaisy//src/dev/oled_ssd130x.h ****     {
 9426              		.loc 4 122 10 is_stmt 1 view .LVU2521
 9427              	.LBB2057:
 124:../../libDaisy//src/dev/oled_ssd130x.h ****         spi_.BlockingTransmit(&cmd, 1);
 9428              		.loc 4 124 9 view .LVU2522
 124:../../libDaisy//src/dev/oled_ssd130x.h ****         spi_.BlockingTransmit(&cmd, 1);
 9429              		.loc 4 124 23 is_stmt 0 view .LVU2523
 9430 01d2 FFF7FEFF 		bl	dsy_gpio_write
 9431              	.LVL699:
 125:../../libDaisy//src/dev/oled_ssd130x.h ****     };
 9432              		.loc 4 125 9 is_stmt 1 view .LVU2524
 125:../../libDaisy//src/dev/oled_ssd130x.h ****     };
 9433              		.loc 4 125 30 is_stmt 0 view .LVU2525
 9434 01d6 2A46     		mov	r2, r5
 9435 01d8 0DF10701 		add	r1, sp, #7
 9436 01dc 6423     		movs	r3, #100
 9437 01de 2046     		mov	r0, r4
 9438 01e0 FFF7FEFF 		bl	_ZN5daisy9SpiHandle16BlockingTransmitEPhjm
 9439              	.LVL700:
 125:../../libDaisy//src/dev/oled_ssd130x.h ****     };
 9440              		.loc 4 125 30 view .LVU2526
 9441 01e4 A123     		movs	r3, #161
 9442              	.LBE2057:
 9443              	.LBE2055:
 9444              	.LBB2058:
 9445              	.LBB2059:
 124:../../libDaisy//src/dev/oled_ssd130x.h ****         spi_.BlockingTransmit(&cmd, 1);
ARM GAS  /var/folders/1y/_321xjh9623c014x9_qw12rr0000gn/T//ccE17DNe.s 			page 260


 9446              		.loc 4 124 23 view .LVU2527
 9447 01e6 3946     		mov	r1, r7
 9448 01e8 3046     		mov	r0, r6
 9449 01ea 8DF80730 		strb	r3, [sp, #7]
 9450              	.LVL701:
 124:../../libDaisy//src/dev/oled_ssd130x.h ****         spi_.BlockingTransmit(&cmd, 1);
 9451              		.loc 4 124 23 view .LVU2528
 9452              	.LBE2059:
 9453              	.LBI2058:
 122:../../libDaisy//src/dev/oled_ssd130x.h ****     {
 9454              		.loc 4 122 10 is_stmt 1 view .LVU2529
 9455              	.LBB2060:
 124:../../libDaisy//src/dev/oled_ssd130x.h ****         spi_.BlockingTransmit(&cmd, 1);
 9456              		.loc 4 124 9 view .LVU2530
 124:../../libDaisy//src/dev/oled_ssd130x.h ****         spi_.BlockingTransmit(&cmd, 1);
 9457              		.loc 4 124 23 is_stmt 0 view .LVU2531
 9458 01ee FFF7FEFF 		bl	dsy_gpio_write
 9459              	.LVL702:
 125:../../libDaisy//src/dev/oled_ssd130x.h ****     };
 9460              		.loc 4 125 9 is_stmt 1 view .LVU2532
 125:../../libDaisy//src/dev/oled_ssd130x.h ****     };
 9461              		.loc 4 125 30 is_stmt 0 view .LVU2533
 9462 01f2 2A46     		mov	r2, r5
 9463 01f4 0DF10701 		add	r1, sp, #7
 9464 01f8 6423     		movs	r3, #100
 9465 01fa 2046     		mov	r0, r4
 9466 01fc FFF7FEFF 		bl	_ZN5daisy9SpiHandle16BlockingTransmitEPhjm
 9467              	.LVL703:
 125:../../libDaisy//src/dev/oled_ssd130x.h ****     };
 9468              		.loc 4 125 30 view .LVU2534
 9469 0200 C823     		movs	r3, #200
 9470              	.LBE2060:
 9471              	.LBE2058:
 9472              	.LBB2061:
 9473              	.LBB2062:
 124:../../libDaisy//src/dev/oled_ssd130x.h ****         spi_.BlockingTransmit(&cmd, 1);
 9474              		.loc 4 124 23 view .LVU2535
 9475 0202 3946     		mov	r1, r7
 9476 0204 3046     		mov	r0, r6
 9477 0206 8DF80730 		strb	r3, [sp, #7]
 9478              	.LVL704:
 124:../../libDaisy//src/dev/oled_ssd130x.h ****         spi_.BlockingTransmit(&cmd, 1);
 9479              		.loc 4 124 23 view .LVU2536
 9480              	.LBE2062:
 9481              	.LBI2061:
 122:../../libDaisy//src/dev/oled_ssd130x.h ****     {
 9482              		.loc 4 122 10 is_stmt 1 view .LVU2537
 9483              	.LBB2063:
 124:../../libDaisy//src/dev/oled_ssd130x.h ****         spi_.BlockingTransmit(&cmd, 1);
 9484              		.loc 4 124 9 view .LVU2538
 124:../../libDaisy//src/dev/oled_ssd130x.h ****         spi_.BlockingTransmit(&cmd, 1);
 9485              		.loc 4 124 23 is_stmt 0 view .LVU2539
 9486 020a FFF7FEFF 		bl	dsy_gpio_write
 9487              	.LVL705:
 125:../../libDaisy//src/dev/oled_ssd130x.h ****     };
 9488              		.loc 4 125 9 is_stmt 1 view .LVU2540
 125:../../libDaisy//src/dev/oled_ssd130x.h ****     };
ARM GAS  /var/folders/1y/_321xjh9623c014x9_qw12rr0000gn/T//ccE17DNe.s 			page 261


 9489              		.loc 4 125 30 is_stmt 0 view .LVU2541
 9490 020e 2A46     		mov	r2, r5
 9491 0210 0DF10701 		add	r1, sp, #7
 9492 0214 6423     		movs	r3, #100
 9493 0216 2046     		mov	r0, r4
 9494 0218 FFF7FEFF 		bl	_ZN5daisy9SpiHandle16BlockingTransmitEPhjm
 9495              	.LVL706:
 125:../../libDaisy//src/dev/oled_ssd130x.h ****     };
 9496              		.loc 4 125 30 view .LVU2542
 9497 021c 8123     		movs	r3, #129
 9498              	.LBE2063:
 9499              	.LBE2061:
 9500              	.LBB2064:
 9501              	.LBB2065:
 124:../../libDaisy//src/dev/oled_ssd130x.h ****         spi_.BlockingTransmit(&cmd, 1);
 9502              		.loc 4 124 23 view .LVU2543
 9503 021e 3946     		mov	r1, r7
 9504 0220 3046     		mov	r0, r6
 9505 0222 8DF80730 		strb	r3, [sp, #7]
 9506              	.LVL707:
 124:../../libDaisy//src/dev/oled_ssd130x.h ****         spi_.BlockingTransmit(&cmd, 1);
 9507              		.loc 4 124 23 view .LVU2544
 9508              	.LBE2065:
 9509              	.LBI2064:
 122:../../libDaisy//src/dev/oled_ssd130x.h ****     {
 9510              		.loc 4 122 10 is_stmt 1 view .LVU2545
 9511              	.LBB2066:
 124:../../libDaisy//src/dev/oled_ssd130x.h ****         spi_.BlockingTransmit(&cmd, 1);
 9512              		.loc 4 124 9 view .LVU2546
 124:../../libDaisy//src/dev/oled_ssd130x.h ****         spi_.BlockingTransmit(&cmd, 1);
 9513              		.loc 4 124 23 is_stmt 0 view .LVU2547
 9514 0226 FFF7FEFF 		bl	dsy_gpio_write
 9515              	.LVL708:
 125:../../libDaisy//src/dev/oled_ssd130x.h ****     };
 9516              		.loc 4 125 9 is_stmt 1 view .LVU2548
 125:../../libDaisy//src/dev/oled_ssd130x.h ****     };
 9517              		.loc 4 125 30 is_stmt 0 view .LVU2549
 9518 022a 2A46     		mov	r2, r5
 9519 022c 0DF10701 		add	r1, sp, #7
 9520 0230 6423     		movs	r3, #100
 9521 0232 2046     		mov	r0, r4
 9522 0234 FFF7FEFF 		bl	_ZN5daisy9SpiHandle16BlockingTransmitEPhjm
 9523              	.LVL709:
 125:../../libDaisy//src/dev/oled_ssd130x.h ****     };
 9524              		.loc 4 125 30 view .LVU2550
 9525 0238 8F23     		movs	r3, #143
 9526              	.LBE2066:
 9527              	.LBE2064:
 9528              	.LBB2067:
 9529              	.LBB2068:
 124:../../libDaisy//src/dev/oled_ssd130x.h ****         spi_.BlockingTransmit(&cmd, 1);
 9530              		.loc 4 124 23 view .LVU2551
 9531 023a 3946     		mov	r1, r7
 9532 023c 3046     		mov	r0, r6
 9533 023e 8DF80730 		strb	r3, [sp, #7]
 9534              	.LVL710:
 124:../../libDaisy//src/dev/oled_ssd130x.h ****         spi_.BlockingTransmit(&cmd, 1);
ARM GAS  /var/folders/1y/_321xjh9623c014x9_qw12rr0000gn/T//ccE17DNe.s 			page 262


 9535              		.loc 4 124 23 view .LVU2552
 9536              	.LBE2068:
 9537              	.LBI2067:
 122:../../libDaisy//src/dev/oled_ssd130x.h ****     {
 9538              		.loc 4 122 10 is_stmt 1 view .LVU2553
 9539              	.LBB2069:
 124:../../libDaisy//src/dev/oled_ssd130x.h ****         spi_.BlockingTransmit(&cmd, 1);
 9540              		.loc 4 124 9 view .LVU2554
 124:../../libDaisy//src/dev/oled_ssd130x.h ****         spi_.BlockingTransmit(&cmd, 1);
 9541              		.loc 4 124 23 is_stmt 0 view .LVU2555
 9542 0242 FFF7FEFF 		bl	dsy_gpio_write
 9543              	.LVL711:
 125:../../libDaisy//src/dev/oled_ssd130x.h ****     };
 9544              		.loc 4 125 9 is_stmt 1 view .LVU2556
 125:../../libDaisy//src/dev/oled_ssd130x.h ****     };
 9545              		.loc 4 125 30 is_stmt 0 view .LVU2557
 9546 0246 2A46     		mov	r2, r5
 9547 0248 0DF10701 		add	r1, sp, #7
 9548 024c 6423     		movs	r3, #100
 9549 024e 2046     		mov	r0, r4
 9550 0250 FFF7FEFF 		bl	_ZN5daisy9SpiHandle16BlockingTransmitEPhjm
 9551              	.LVL712:
 125:../../libDaisy//src/dev/oled_ssd130x.h ****     };
 9552              		.loc 4 125 30 view .LVU2558
 9553 0254 D923     		movs	r3, #217
 9554              	.LBE2069:
 9555              	.LBE2067:
 9556              	.LBB2070:
 9557              	.LBB2071:
 124:../../libDaisy//src/dev/oled_ssd130x.h ****         spi_.BlockingTransmit(&cmd, 1);
 9558              		.loc 4 124 23 view .LVU2559
 9559 0256 3946     		mov	r1, r7
 9560 0258 3046     		mov	r0, r6
 9561 025a 8DF80730 		strb	r3, [sp, #7]
 9562              	.LVL713:
 124:../../libDaisy//src/dev/oled_ssd130x.h ****         spi_.BlockingTransmit(&cmd, 1);
 9563              		.loc 4 124 23 view .LVU2560
 9564              	.LBE2071:
 9565              	.LBI2070:
 122:../../libDaisy//src/dev/oled_ssd130x.h ****     {
 9566              		.loc 4 122 10 is_stmt 1 view .LVU2561
 9567              	.LBB2072:
 124:../../libDaisy//src/dev/oled_ssd130x.h ****         spi_.BlockingTransmit(&cmd, 1);
 9568              		.loc 4 124 9 view .LVU2562
 124:../../libDaisy//src/dev/oled_ssd130x.h ****         spi_.BlockingTransmit(&cmd, 1);
 9569              		.loc 4 124 23 is_stmt 0 view .LVU2563
 9570 025e FFF7FEFF 		bl	dsy_gpio_write
 9571              	.LVL714:
 125:../../libDaisy//src/dev/oled_ssd130x.h ****     };
 9572              		.loc 4 125 9 is_stmt 1 view .LVU2564
 125:../../libDaisy//src/dev/oled_ssd130x.h ****     };
 9573              		.loc 4 125 30 is_stmt 0 view .LVU2565
 9574 0262 2A46     		mov	r2, r5
 9575 0264 0DF10701 		add	r1, sp, #7
 9576 0268 6423     		movs	r3, #100
 9577 026a 2046     		mov	r0, r4
 9578 026c FFF7FEFF 		bl	_ZN5daisy9SpiHandle16BlockingTransmitEPhjm
ARM GAS  /var/folders/1y/_321xjh9623c014x9_qw12rr0000gn/T//ccE17DNe.s 			page 263


 9579              	.LVL715:
 125:../../libDaisy//src/dev/oled_ssd130x.h ****     };
 9580              		.loc 4 125 30 view .LVU2566
 9581 0270 2523     		movs	r3, #37
 9582              	.LBE2072:
 9583              	.LBE2070:
 9584              	.LBB2073:
 9585              	.LBB2074:
 124:../../libDaisy//src/dev/oled_ssd130x.h ****         spi_.BlockingTransmit(&cmd, 1);
 9586              		.loc 4 124 23 view .LVU2567
 9587 0272 3946     		mov	r1, r7
 9588 0274 3046     		mov	r0, r6
 9589 0276 8DF80730 		strb	r3, [sp, #7]
 9590              	.LVL716:
 124:../../libDaisy//src/dev/oled_ssd130x.h ****         spi_.BlockingTransmit(&cmd, 1);
 9591              		.loc 4 124 23 view .LVU2568
 9592              	.LBE2074:
 9593              	.LBI2073:
 122:../../libDaisy//src/dev/oled_ssd130x.h ****     {
 9594              		.loc 4 122 10 is_stmt 1 view .LVU2569
 9595              	.LBB2075:
 124:../../libDaisy//src/dev/oled_ssd130x.h ****         spi_.BlockingTransmit(&cmd, 1);
 9596              		.loc 4 124 9 view .LVU2570
 124:../../libDaisy//src/dev/oled_ssd130x.h ****         spi_.BlockingTransmit(&cmd, 1);
 9597              		.loc 4 124 23 is_stmt 0 view .LVU2571
 9598 027a FFF7FEFF 		bl	dsy_gpio_write
 9599              	.LVL717:
 125:../../libDaisy//src/dev/oled_ssd130x.h ****     };
 9600              		.loc 4 125 9 is_stmt 1 view .LVU2572
 125:../../libDaisy//src/dev/oled_ssd130x.h ****     };
 9601              		.loc 4 125 30 is_stmt 0 view .LVU2573
 9602 027e 2A46     		mov	r2, r5
 9603 0280 0DF10701 		add	r1, sp, #7
 9604 0284 6423     		movs	r3, #100
 9605 0286 2046     		mov	r0, r4
 9606 0288 FFF7FEFF 		bl	_ZN5daisy9SpiHandle16BlockingTransmitEPhjm
 9607              	.LVL718:
 125:../../libDaisy//src/dev/oled_ssd130x.h ****     };
 9608              		.loc 4 125 30 view .LVU2574
 9609 028c DB23     		movs	r3, #219
 9610              	.LBE2075:
 9611              	.LBE2073:
 9612              	.LBB2076:
 9613              	.LBB2077:
 124:../../libDaisy//src/dev/oled_ssd130x.h ****         spi_.BlockingTransmit(&cmd, 1);
 9614              		.loc 4 124 23 view .LVU2575
 9615 028e 3946     		mov	r1, r7
 9616 0290 3046     		mov	r0, r6
 9617 0292 8DF80730 		strb	r3, [sp, #7]
 9618              	.LVL719:
 124:../../libDaisy//src/dev/oled_ssd130x.h ****         spi_.BlockingTransmit(&cmd, 1);
 9619              		.loc 4 124 23 view .LVU2576
 9620              	.LBE2077:
 9621              	.LBI2076:
 122:../../libDaisy//src/dev/oled_ssd130x.h ****     {
 9622              		.loc 4 122 10 is_stmt 1 view .LVU2577
 9623              	.LBB2078:
ARM GAS  /var/folders/1y/_321xjh9623c014x9_qw12rr0000gn/T//ccE17DNe.s 			page 264


 124:../../libDaisy//src/dev/oled_ssd130x.h ****         spi_.BlockingTransmit(&cmd, 1);
 9624              		.loc 4 124 9 view .LVU2578
 124:../../libDaisy//src/dev/oled_ssd130x.h ****         spi_.BlockingTransmit(&cmd, 1);
 9625              		.loc 4 124 23 is_stmt 0 view .LVU2579
 9626 0296 FFF7FEFF 		bl	dsy_gpio_write
 9627              	.LVL720:
 125:../../libDaisy//src/dev/oled_ssd130x.h ****     };
 9628              		.loc 4 125 9 is_stmt 1 view .LVU2580
 125:../../libDaisy//src/dev/oled_ssd130x.h ****     };
 9629              		.loc 4 125 30 is_stmt 0 view .LVU2581
 9630 029a 2A46     		mov	r2, r5
 9631 029c 0DF10701 		add	r1, sp, #7
 9632 02a0 6423     		movs	r3, #100
 9633 02a2 2046     		mov	r0, r4
 9634 02a4 FFF7FEFF 		bl	_ZN5daisy9SpiHandle16BlockingTransmitEPhjm
 9635              	.LVL721:
 125:../../libDaisy//src/dev/oled_ssd130x.h ****     };
 9636              		.loc 4 125 30 view .LVU2582
 9637 02a8 3423     		movs	r3, #52
 9638              	.LBE2078:
 9639              	.LBE2076:
 9640              	.LBB2079:
 9641              	.LBB2080:
 124:../../libDaisy//src/dev/oled_ssd130x.h ****         spi_.BlockingTransmit(&cmd, 1);
 9642              		.loc 4 124 23 view .LVU2583
 9643 02aa 3946     		mov	r1, r7
 9644 02ac 3046     		mov	r0, r6
 9645 02ae 8DF80730 		strb	r3, [sp, #7]
 9646              	.LVL722:
 124:../../libDaisy//src/dev/oled_ssd130x.h ****         spi_.BlockingTransmit(&cmd, 1);
 9647              		.loc 4 124 23 view .LVU2584
 9648              	.LBE2080:
 9649              	.LBI2079:
 122:../../libDaisy//src/dev/oled_ssd130x.h ****     {
 9650              		.loc 4 122 10 is_stmt 1 view .LVU2585
 9651              	.LBB2081:
 124:../../libDaisy//src/dev/oled_ssd130x.h ****         spi_.BlockingTransmit(&cmd, 1);
 9652              		.loc 4 124 9 view .LVU2586
 124:../../libDaisy//src/dev/oled_ssd130x.h ****         spi_.BlockingTransmit(&cmd, 1);
 9653              		.loc 4 124 23 is_stmt 0 view .LVU2587
 9654 02b2 FFF7FEFF 		bl	dsy_gpio_write
 9655              	.LVL723:
 125:../../libDaisy//src/dev/oled_ssd130x.h ****     };
 9656              		.loc 4 125 9 is_stmt 1 view .LVU2588
 125:../../libDaisy//src/dev/oled_ssd130x.h ****     };
 9657              		.loc 4 125 30 is_stmt 0 view .LVU2589
 9658 02b6 2A46     		mov	r2, r5
 9659 02b8 0DF10701 		add	r1, sp, #7
 9660 02bc 6423     		movs	r3, #100
 9661 02be 2046     		mov	r0, r4
 9662 02c0 FFF7FEFF 		bl	_ZN5daisy9SpiHandle16BlockingTransmitEPhjm
 9663              	.LVL724:
 125:../../libDaisy//src/dev/oled_ssd130x.h ****     };
 9664              		.loc 4 125 30 view .LVU2590
 9665 02c4 AF23     		movs	r3, #175
 9666              	.LBE2081:
 9667              	.LBE2079:
ARM GAS  /var/folders/1y/_321xjh9623c014x9_qw12rr0000gn/T//ccE17DNe.s 			page 265


 9668              	.LBB2082:
 9669              	.LBB2083:
 124:../../libDaisy//src/dev/oled_ssd130x.h ****         spi_.BlockingTransmit(&cmd, 1);
 9670              		.loc 4 124 23 view .LVU2591
 9671 02c6 3946     		mov	r1, r7
 9672 02c8 3046     		mov	r0, r6
 9673 02ca 8DF80730 		strb	r3, [sp, #7]
 9674              	.LVL725:
 124:../../libDaisy//src/dev/oled_ssd130x.h ****         spi_.BlockingTransmit(&cmd, 1);
 9675              		.loc 4 124 23 view .LVU2592
 9676              	.LBE2083:
 9677              	.LBI2082:
 122:../../libDaisy//src/dev/oled_ssd130x.h ****     {
 9678              		.loc 4 122 10 is_stmt 1 view .LVU2593
 9679              	.LBB2084:
 124:../../libDaisy//src/dev/oled_ssd130x.h ****         spi_.BlockingTransmit(&cmd, 1);
 9680              		.loc 4 124 9 view .LVU2594
 124:../../libDaisy//src/dev/oled_ssd130x.h ****         spi_.BlockingTransmit(&cmd, 1);
 9681              		.loc 4 124 23 is_stmt 0 view .LVU2595
 9682 02ce FFF7FEFF 		bl	dsy_gpio_write
 9683              	.LVL726:
 125:../../libDaisy//src/dev/oled_ssd130x.h ****     };
 9684              		.loc 4 125 9 is_stmt 1 view .LVU2596
 125:../../libDaisy//src/dev/oled_ssd130x.h ****     };
 9685              		.loc 4 125 30 is_stmt 0 view .LVU2597
 9686 02d2 6423     		movs	r3, #100
 9687 02d4 2A46     		mov	r2, r5
 9688 02d6 0DF10701 		add	r1, sp, #7
 9689 02da 2046     		mov	r0, r4
 9690 02dc FFF7FEFF 		bl	_ZN5daisy9SpiHandle16BlockingTransmitEPhjm
 9691              	.LVL727:
 125:../../libDaisy//src/dev/oled_ssd130x.h ****     };
 9692              		.loc 4 125 30 view .LVU2598
 9693              	.LBE2084:
 9694              	.LBE2082:
 347:../../libDaisy//src/dev/oled_ssd130x.h **** 
 9695              		.loc 4 347 5 view .LVU2599
 9696 02e0 02B0     		add	sp, sp, #8
 9697              		.cfi_def_cfa_offset 40
 9698              		@ sp needed
 9699 02e2 BDE8F041 		pop	{r4, r5, r6, r7, r8, lr}
 9700              		.cfi_restore 14
 9701              		.cfi_restore 8
 9702              		.cfi_restore 7
 9703              		.cfi_restore 6
 9704              		.cfi_restore 5
 9705              		.cfi_restore 4
 9706              		.cfi_def_cfa_offset 16
 9707              	.LVL728:
 347:../../libDaisy//src/dev/oled_ssd130x.h **** 
 9708              		.loc 4 347 5 view .LVU2600
 9709 02e6 04B0     		add	sp, sp, #16
 9710              		.cfi_def_cfa_offset 0
 9711 02e8 7047     		bx	lr
 9712              		.cfi_endproc
 9713              	.LFE4167:
 9715 02ea 00BF     		.section	.text._ZN5daisy5Dubby11InitDisplayEv,"ax",%progbits
ARM GAS  /var/folders/1y/_321xjh9623c014x9_qw12rr0000gn/T//ccE17DNe.s 			page 266


 9716              		.align	1
 9717              		.p2align 2,,3
 9718              		.global	_ZN5daisy5Dubby11InitDisplayEv
 9719              		.syntax unified
 9720              		.thumb
 9721              		.thumb_func
 9723              	_ZN5daisy5Dubby11InitDisplayEv:
 9724              	.LVL729:
 9725              	.LFB3727:
 109:Dubby.cpp     **** {
 9726              		.loc 2 109 1 is_stmt 1 view -0
 9727              		.cfi_startproc
 9728              		@ args = 0, pretend = 0, frame = 88
 9729              		@ frame_needed = 0, uses_anonymous_args = 0
 111:Dubby.cpp     ****     OledDisplay<SSD130x4WireSpi128x64Driver>::Config disp_cfg;
 9730              		.loc 2 111 5 view .LVU2602
 109:Dubby.cpp     **** {
 9731              		.loc 2 109 1 is_stmt 0 view .LVU2603
 9732 0000 F0B5     		push	{r4, r5, r6, r7, lr}
 9733              		.cfi_def_cfa_offset 20
 9734              		.cfi_offset 4, -20
 9735              		.cfi_offset 5, -16
 9736              		.cfi_offset 6, -12
 9737              		.cfi_offset 7, -8
 9738              		.cfi_offset 14, -4
 9739              	.LBB2097:
 9740              	.LBB2098:
 9741              	.LBB2099:
 9742              	.LBB2100:
  71:../../libDaisy//src/dev/oled_ssd130x.h ****             // Initialize using defaults
 9743              		.loc 4 71 9 view .LVU2604
 9744 0002 40F60632 		movw	r2, #2822
 9745              	.LBE2100:
 9746              	.LBE2099:
 9747              	.LBE2098:
 9748              	.LBE2097:
 109:Dubby.cpp     **** {
 9749              		.loc 2 109 1 view .LVU2605
 9750 0006 9FB0     		sub	sp, sp, #124
 9751              		.cfi_def_cfa_offset 144
 9752              	.LVL730:
 9753              	.LBB2115:
 9754              	.LBI2097:
  20:../../libDaisy//src/hid/disp/oled_display.h ****     {
 9755              		.loc 1 20 12 is_stmt 1 view .LVU2606
 9756              	.LBB2111:
 9757              	.LBI2098:
 248:../../libDaisy//src/dev/oled_ssd130x.h ****     {
 9758              		.loc 4 248 12 view .LVU2607
 9759              	.LBB2107:
 9760              	.LBI2099:
  70:../../libDaisy//src/dev/oled_ssd130x.h ****         {
 9761              		.loc 4 70 9 view .LVU2608
 9762              	.LBB2103:
 9763              	.LBB2101:
 9764              	.LBI2101:
 9765              		.file 17 "../../libDaisy//src/per/spi.h"
ARM GAS  /var/folders/1y/_321xjh9623c014x9_qw12rr0000gn/T//ccE17DNe.s 			page 267


   1:../../libDaisy//src/per/spi.h **** #pragma once
   2:../../libDaisy//src/per/spi.h **** #ifndef DSY_SPI_H
   3:../../libDaisy//src/per/spi.h **** #define DSY_SPI_H
   4:../../libDaisy//src/per/spi.h **** 
   5:../../libDaisy//src/per/spi.h **** #include "daisy_core.h"
   6:../../libDaisy//src/per/spi.h **** 
   7:../../libDaisy//src/per/spi.h **** /* TODO:
   8:../../libDaisy//src/per/spi.h **** - Add documentation
   9:../../libDaisy//src/per/spi.h **** - Add IT
  10:../../libDaisy//src/per/spi.h **** */
  11:../../libDaisy//src/per/spi.h **** 
  12:../../libDaisy//src/per/spi.h **** namespace daisy
  13:../../libDaisy//src/per/spi.h **** {
  14:../../libDaisy//src/per/spi.h **** /** @addtogroup serial
  15:../../libDaisy//src/per/spi.h **** @{
  16:../../libDaisy//src/per/spi.h **** */
  17:../../libDaisy//src/per/spi.h **** 
  18:../../libDaisy//src/per/spi.h **** /**  Handler for serial peripheral interface */
  19:../../libDaisy//src/per/spi.h **** class SpiHandle
  20:../../libDaisy//src/per/spi.h **** {
  21:../../libDaisy//src/per/spi.h ****   public:
  22:../../libDaisy//src/per/spi.h ****     struct Config
  23:../../libDaisy//src/per/spi.h ****     {
  24:../../libDaisy//src/per/spi.h ****         enum class Peripheral
  25:../../libDaisy//src/per/spi.h ****         {
  26:../../libDaisy//src/per/spi.h ****             SPI_1,
  27:../../libDaisy//src/per/spi.h ****             SPI_2,
  28:../../libDaisy//src/per/spi.h ****             SPI_3,
  29:../../libDaisy//src/per/spi.h ****             SPI_4,
  30:../../libDaisy//src/per/spi.h ****             SPI_5,
  31:../../libDaisy//src/per/spi.h ****             SPI_6,
  32:../../libDaisy//src/per/spi.h ****         };
  33:../../libDaisy//src/per/spi.h **** 
  34:../../libDaisy//src/per/spi.h ****         enum class Mode
  35:../../libDaisy//src/per/spi.h ****         {
  36:../../libDaisy//src/per/spi.h ****             MASTER,
  37:../../libDaisy//src/per/spi.h ****             SLAVE,
  38:../../libDaisy//src/per/spi.h ****         };
  39:../../libDaisy//src/per/spi.h **** 
  40:../../libDaisy//src/per/spi.h ****         enum class Direction
  41:../../libDaisy//src/per/spi.h ****         {
  42:../../libDaisy//src/per/spi.h ****             TWO_LINES,
  43:../../libDaisy//src/per/spi.h ****             TWO_LINES_TX_ONLY,
  44:../../libDaisy//src/per/spi.h ****             TWO_LINES_RX_ONLY,
  45:../../libDaisy//src/per/spi.h ****             ONE_LINE,
  46:../../libDaisy//src/per/spi.h ****         };
  47:../../libDaisy//src/per/spi.h **** 
  48:../../libDaisy//src/per/spi.h ****         enum class ClockPolarity
  49:../../libDaisy//src/per/spi.h ****         {
  50:../../libDaisy//src/per/spi.h ****             LOW,
  51:../../libDaisy//src/per/spi.h ****             HIGH,
  52:../../libDaisy//src/per/spi.h ****         };
  53:../../libDaisy//src/per/spi.h **** 
  54:../../libDaisy//src/per/spi.h ****         enum class ClockPhase
  55:../../libDaisy//src/per/spi.h ****         {
  56:../../libDaisy//src/per/spi.h ****             ONE_EDGE,
  57:../../libDaisy//src/per/spi.h ****             TWO_EDGE,
ARM GAS  /var/folders/1y/_321xjh9623c014x9_qw12rr0000gn/T//ccE17DNe.s 			page 268


  58:../../libDaisy//src/per/spi.h ****         };
  59:../../libDaisy//src/per/spi.h **** 
  60:../../libDaisy//src/per/spi.h ****         enum class NSS
  61:../../libDaisy//src/per/spi.h ****         {
  62:../../libDaisy//src/per/spi.h ****             SOFT,
  63:../../libDaisy//src/per/spi.h ****             HARD_INPUT,
  64:../../libDaisy//src/per/spi.h ****             HARD_OUTPUT,
  65:../../libDaisy//src/per/spi.h ****         };
  66:../../libDaisy//src/per/spi.h **** 
  67:../../libDaisy//src/per/spi.h ****         enum class BaudPrescaler
  68:../../libDaisy//src/per/spi.h ****         {
  69:../../libDaisy//src/per/spi.h ****             PS_2,
  70:../../libDaisy//src/per/spi.h ****             PS_4,
  71:../../libDaisy//src/per/spi.h ****             PS_8,
  72:../../libDaisy//src/per/spi.h ****             PS_16,
  73:../../libDaisy//src/per/spi.h ****             PS_32,
  74:../../libDaisy//src/per/spi.h ****             PS_64,
  75:../../libDaisy//src/per/spi.h ****             PS_128,
  76:../../libDaisy//src/per/spi.h ****             PS_256,
  77:../../libDaisy//src/per/spi.h ****         };
  78:../../libDaisy//src/per/spi.h **** 
  79:../../libDaisy//src/per/spi.h ****         struct
  80:../../libDaisy//src/per/spi.h ****         {
  81:../../libDaisy//src/per/spi.h ****             dsy_gpio_pin sclk; /**< & */
  82:../../libDaisy//src/per/spi.h ****             dsy_gpio_pin miso; /**< & */
  83:../../libDaisy//src/per/spi.h ****             dsy_gpio_pin mosi; /**< & */
  84:../../libDaisy//src/per/spi.h ****             dsy_gpio_pin nss;  /**< & */
  85:../../libDaisy//src/per/spi.h ****         } pin_config;
  86:../../libDaisy//src/per/spi.h **** 
  87:../../libDaisy//src/per/spi.h ****         Config()
 9766              		.loc 17 87 9 view .LVU2609
 9767              	.LBE2101:
 9768              	.LBE2103:
 9769              	.LBE2107:
 9770              	.LBE2111:
 9771              	.LBE2115:
  88:../../libDaisy//src/per/spi.h ****         {
  89:../../libDaisy//src/per/spi.h ****             // user must specify periph, mode, direction, nss, and pin_config
  90:../../libDaisy//src/per/spi.h ****             datasize       = 8;
 9772              		.loc 17 90 13 view .LVU2610
  91:../../libDaisy//src/per/spi.h ****             clock_polarity = ClockPolarity::LOW;
 9773              		.loc 17 91 13 view .LVU2611
  92:../../libDaisy//src/per/spi.h ****             clock_phase    = ClockPhase::ONE_EDGE;
 9774              		.loc 17 92 13 view .LVU2612
  93:../../libDaisy//src/per/spi.h ****             baud_prescaler = BaudPrescaler::PS_8;
 9775              		.loc 17 93 13 view .LVU2613
  73:../../libDaisy//src/dev/oled_ssd130x.h ****         }
 9776              		.loc 4 73 13 view .LVU2614
 9777              	.LBB2116:
 9778              	.LBB2112:
 9779              	.LBB2108:
 9780              	.LBB2104:
 9781              	.LBB2102:
 9782              	.LBI2102:
  81:../../libDaisy//src/dev/oled_ssd130x.h ****         {
 9783              		.loc 4 81 14 view .LVU2615
 9784              	.LBE2102:
ARM GAS  /var/folders/1y/_321xjh9623c014x9_qw12rr0000gn/T//ccE17DNe.s 			page 269


 9785              	.LBE2104:
 9786              	.LBE2108:
 9787              	.LBE2112:
 9788              	.LBE2116:
  84:../../libDaisy//src/dev/oled_ssd130x.h ****             spi_config.mode   = SpiHandle::Config::Mode::MASTER;
 9789              		.loc 4 84 13 view .LVU2616
  85:../../libDaisy//src/dev/oled_ssd130x.h ****             spi_config.direction
 9790              		.loc 4 85 13 view .LVU2617
  86:../../libDaisy//src/dev/oled_ssd130x.h ****                 = SpiHandle::Config::Direction::TWO_LINES_TX_ONLY;
 9791              		.loc 4 86 13 view .LVU2618
  88:../../libDaisy//src/dev/oled_ssd130x.h ****             spi_config.clock_polarity = SpiHandle::Config::ClockPolarity::LOW;
 9792              		.loc 4 88 13 view .LVU2619
  89:../../libDaisy//src/dev/oled_ssd130x.h ****             spi_config.clock_phase    = SpiHandle::Config::ClockPhase::ONE_EDGE;
 9793              		.loc 4 89 13 view .LVU2620
  90:../../libDaisy//src/dev/oled_ssd130x.h ****             spi_config.nss            = SpiHandle::Config::NSS::HARD_OUTPUT;
 9794              		.loc 4 90 13 view .LVU2621
  91:../../libDaisy//src/dev/oled_ssd130x.h ****             spi_config.baud_prescaler = SpiHandle::Config::BaudPrescaler::PS_8;
 9795              		.loc 4 91 13 view .LVU2622
  92:../../libDaisy//src/dev/oled_ssd130x.h ****             // SPI pin config
 9796              		.loc 4 92 13 view .LVU2623
  94:../../libDaisy//src/dev/oled_ssd130x.h ****             spi_config.pin_config.miso = {DSY_GPIOX, 0};
 9797              		.loc 4 94 13 view .LVU2624
  95:../../libDaisy//src/dev/oled_ssd130x.h ****             spi_config.pin_config.mosi = {DSY_GPIOB, 5};
 9798              		.loc 4 95 13 view .LVU2625
  96:../../libDaisy//src/dev/oled_ssd130x.h ****             spi_config.pin_config.nss  = {DSY_GPIOG, 10};
 9799              		.loc 4 96 13 view .LVU2626
  97:../../libDaisy//src/dev/oled_ssd130x.h ****             // SSD130x control pin config
 9800              		.loc 4 97 13 view .LVU2627
 9801              	.LBB2117:
 9802              	.LBB2113:
 9803              	.LBB2109:
 9804              	.LBB2105:
  71:../../libDaisy//src/dev/oled_ssd130x.h ****             // Initialize using defaults
 9805              		.loc 4 71 9 is_stmt 0 view .LVU2628
 9806 0008 1F4B     		ldr	r3, .L588
 9807              	.LBE2105:
 9808              	.LBE2109:
 9809              	.LBE2113:
 9810              	.LBE2117:
 109:Dubby.cpp     **** {
 9811              		.loc 2 109 1 view .LVU2629
 9812 000a 0646     		mov	r6, r0
 112:Dubby.cpp     ****     disp_cfg.driver_config.transport_config.pin_config.dc    = seed.GetPin(9);
 9813              		.loc 2 112 77 view .LVU2630
 9814 000c 0920     		movs	r0, #9
 9815              	.LVL731:
 9816              	.LBB2118:
 9817              	.LBB2119:
  25:../../libDaisy//src/hid/disp/oled_display.h **** 
 9818              		.loc 1 25 44 view .LVU2631
 9819 000e 16AD     		add	r5, sp, #88
 9820 0010 6C46     		mov	r4, sp
 9821              	.LBE2119:
 9822              	.LBE2118:
 9823              	.LBB2122:
 9824              	.LBB2114:
 9825              	.LBB2110:
ARM GAS  /var/folders/1y/_321xjh9623c014x9_qw12rr0000gn/T//ccE17DNe.s 			page 270


 9826              	.LBB2106:
  71:../../libDaisy//src/dev/oled_ssd130x.h ****             // Initialize using defaults
 9827              		.loc 4 71 9 view .LVU2632
 9828 0012 CDE90823 		strd	r2, r3, [sp, #32]
 9829              	.LBE2106:
 9830              	.LBE2110:
 9831              	.LBE2114:
 9832              	.LBE2122:
  99:../../libDaisy//src/dev/oled_ssd130x.h ****             pin_config.reset = {DSY_GPIOB, 15};
 9833              		.loc 4 99 13 is_stmt 1 view .LVU2633
 100:../../libDaisy//src/dev/oled_ssd130x.h ****         }
 9834              		.loc 4 100 13 view .LVU2634
 9835              	.LVL732:
 112:Dubby.cpp     ****     disp_cfg.driver_config.transport_config.pin_config.dc    = seed.GetPin(9);
 9836              		.loc 2 112 5 view .LVU2635
 112:Dubby.cpp     ****     disp_cfg.driver_config.transport_config.pin_config.dc    = seed.GetPin(9);
 9837              		.loc 2 112 77 is_stmt 0 view .LVU2636
 9838 0016 FFF7FEFF 		bl	_ZN5daisy9DaisySeed6GetPinEh
 9839              	.LVL733:
 9840 001a 0346     		mov	r3, r0	@ movhi
 113:Dubby.cpp     ****     disp_cfg.driver_config.transport_config.pin_config.reset = seed.GetPin(31);
 9841              		.loc 2 113 78 view .LVU2637
 9842 001c 1F20     		movs	r0, #31
 112:Dubby.cpp     ****     disp_cfg.driver_config.transport_config.pin_config.dc    = seed.GetPin(9);
 9843              		.loc 2 112 77 view .LVU2638
 9844 001e ADF84830 		strh	r3, [sp, #72]	@ movhi
 113:Dubby.cpp     ****     disp_cfg.driver_config.transport_config.pin_config.reset = seed.GetPin(31);
 9845              		.loc 2 113 5 is_stmt 1 view .LVU2639
 113:Dubby.cpp     ****     disp_cfg.driver_config.transport_config.pin_config.reset = seed.GetPin(31);
 9846              		.loc 2 113 78 is_stmt 0 view .LVU2640
 9847 0022 FFF7FEFF 		bl	_ZN5daisy9DaisySeed6GetPinEh
 9848              	.LVL734:
 9849 0026 0222     		movs	r2, #2
 9850 0028 0B21     		movs	r1, #11
 9851 002a 0023     		movs	r3, #0
 9852 002c 0DF1200E 		add	lr, sp, #32
 9853 0030 ADF82210 		strh	r1, [sp, #34]	@ movhi
 9854 0034 0121     		movs	r1, #1
 9855 0036 ADF84A00 		strh	r0, [sp, #74]	@ movhi
 115:Dubby.cpp     ****     display.Init(disp_cfg);
 9856              		.loc 2 115 5 is_stmt 1 view .LVU2641
 9857              	.LVL735:
 115:Dubby.cpp     ****     display.Init(disp_cfg);
 9858              		.loc 2 115 5 is_stmt 0 view .LVU2642
 9859 003a 0DF14C0C 		add	ip, sp, #76
 9860 003e 0A93     		str	r3, [sp, #40]
 9861              	.LBB2123:
 9862              	.LBB2120:
  25:../../libDaisy//src/hid/disp/oled_display.h **** 
 9863              		.loc 1 25 44 view .LVU2643
 9864 0040 6746     		mov	r7, ip
 9865 0042 CDE91022 		strd	r2, r2, [sp, #64]
 9866 0046 0822     		movs	r2, #8
 9867 0048 CDE90E33 		strd	r3, r3, [sp, #56]
 9868 004c CDE90B31 		strd	r3, r1, [sp, #44]
 9869 0050 0D92     		str	r2, [sp, #52]
 9870 0052 BEE80F00 		ldmia	lr!, {r0, r1, r2, r3}
ARM GAS  /var/folders/1y/_321xjh9623c014x9_qw12rr0000gn/T//ccE17DNe.s 			page 271


 9871 0056 ACE80F00 		stmia	ip!, {r0, r1, r2, r3}
 9872 005a BEE80F00 		ldmia	lr!, {r0, r1, r2, r3}
 9873 005e ACE80F00 		stmia	ip!, {r0, r1, r2, r3}
 9874 0062 9EE80700 		ldm	lr, {r0, r1, r2}
 9875 0066 8CE80700 		stm	ip, {r0, r1, r2}
 9876              	.LBE2120:
 9877              	.LBI2118:
  25:../../libDaisy//src/hid/disp/oled_display.h **** 
 9878              		.loc 1 25 10 is_stmt 1 view .LVU2644
 9879              	.LBB2121:
  25:../../libDaisy//src/hid/disp/oled_display.h **** 
 9880              		.loc 1 25 44 is_stmt 0 view .LVU2645
 9881 006a 0FCD     		ldmia	r5!, {r0, r1, r2, r3}
 9882 006c 0FC4     		stmia	r4!, {r0, r1, r2, r3}
 9883 006e 95E80F00 		ldm	r5, {r0, r1, r2, r3}
 9884 0072 84E80F00 		stm	r4, {r0, r1, r2, r3}
 9885 0076 06F59660 		add	r0, r6, #1200
 9886 007a 97E80E00 		ldm	r7, {r1, r2, r3}
 9887 007e FFF7FEFF 		bl	_ZN5daisy13SSD130xDriverILj128ELj64ENS_24SSD130x4WireSpiTransportEE4InitENS2_6ConfigE
 9888              	.LVL736:
  25:../../libDaisy//src/hid/disp/oled_display.h **** 
 9889              		.loc 1 25 44 view .LVU2646
 9890              	.LBE2121:
 9891              	.LBE2123:
 116:Dubby.cpp     **** }
 9892              		.loc 2 116 1 view .LVU2647
 9893 0082 1FB0     		add	sp, sp, #124
 9894              		.cfi_def_cfa_offset 20
 9895              		@ sp needed
 9896 0084 F0BD     		pop	{r4, r5, r6, r7, pc}
 9897              	.LVL737:
 9898              	.L589:
 116:Dubby.cpp     **** }
 9899              		.loc 2 116 1 view .LVU2648
 9900 0086 00BF     		.align	2
 9901              	.L588:
 9902 0088 0105060A 		.word	168166657
 9903              		.cfi_endproc
 9904              	.LFE3727:
 9906              		.section	.text._ZN5daisy5Dubby4InitEv,"ax",%progbits
 9907              		.align	1
 9908              		.p2align 2,,3
 9909              		.global	_ZN5daisy5Dubby4InitEv
 9910              		.syntax unified
 9911              		.thumb
 9912              		.thumb_func
 9914              	_ZN5daisy5Dubby4InitEv:
 9915              	.LVL738:
 9916              	.LFB3720:
  40:Dubby.cpp     **** {
 9917              		.loc 2 40 1 is_stmt 1 view -0
 9918              		.cfi_startproc
 9919              		@ args = 0, pretend = 0, frame = 16
 9920              		@ frame_needed = 0, uses_anonymous_args = 0
  41:Dubby.cpp     ****     InitControls();
 9921              		.loc 2 41 5 view .LVU2650
  40:Dubby.cpp     **** {
ARM GAS  /var/folders/1y/_321xjh9623c014x9_qw12rr0000gn/T//ccE17DNe.s 			page 272


 9922              		.loc 2 40 1 is_stmt 0 view .LVU2651
 9923 0000 30B5     		push	{r4, r5, lr}
 9924              		.cfi_def_cfa_offset 12
 9925              		.cfi_offset 4, -12
 9926              		.cfi_offset 5, -8
 9927              		.cfi_offset 14, -4
 9928 0002 0546     		mov	r5, r0
 9929 0004 85B0     		sub	sp, sp, #20
 9930              		.cfi_def_cfa_offset 32
  41:Dubby.cpp     ****     InitControls();
 9931              		.loc 2 41 17 view .LVU2652
 9932 0006 FFF7FEFF 		bl	_ZN5daisy5Dubby12InitControlsEv
 9933              	.LVL739:
  42:Dubby.cpp     ****     InitButtons();
 9934              		.loc 2 42 5 is_stmt 1 view .LVU2653
  42:Dubby.cpp     ****     InitButtons();
 9935              		.loc 2 42 16 is_stmt 0 view .LVU2654
 9936 000a 2846     		mov	r0, r5
  44:Dubby.cpp     ****     screen_update_period_ = 17; // roughly 60Hz
 9937              		.loc 2 44 27 view .LVU2655
 9938 000c 05F51044 		add	r4, r5, #36864
  42:Dubby.cpp     ****     InitButtons();
 9939              		.loc 2 42 16 view .LVU2656
 9940 0010 FFF7FEFF 		bl	_ZN5daisy5Dubby11InitButtonsEv
 9941              	.LVL740:
  44:Dubby.cpp     ****     screen_update_period_ = 17; // roughly 60Hz
 9942              		.loc 2 44 5 is_stmt 1 view .LVU2657
  44:Dubby.cpp     ****     screen_update_period_ = 17; // roughly 60Hz
 9943              		.loc 2 44 27 is_stmt 0 view .LVU2658
 9944 0014 1123     		movs	r3, #17
 9945 0016 C4F82C3A 		str	r3, [r4, #2604]
  45:Dubby.cpp     ****     screen_update_last_   = seed.system.GetNow();
 9946              		.loc 2 45 5 is_stmt 1 view .LVU2659
  45:Dubby.cpp     ****     screen_update_last_   = seed.system.GetNow();
 9947              		.loc 2 45 47 is_stmt 0 view .LVU2660
 9948 001a FFF7FEFF 		bl	_ZN5daisy6System6GetNowEv
 9949              	.LVL741:
 9950 001e 2B46     		mov	r3, r5
  45:Dubby.cpp     ****     screen_update_last_   = seed.system.GetNow();
 9951              		.loc 2 45 27 view .LVU2661
 9952 0020 0122     		movs	r2, #1
 9953 0022 C4F8280A 		str	r0, [r4, #2600]
  47:Dubby.cpp     ****     for (int i = 0; i < 5; i++) 
 9954              		.loc 2 47 5 is_stmt 1 view .LVU2662
 9955              	.LVL742:
 9956              	.LBB2127:
  47:Dubby.cpp     ****     for (int i = 0; i < 5; i++) 
 9957              		.loc 2 47 23 view .LVU2663
 9958              	.L591:
  49:Dubby.cpp     ****         submenuBoxBounding[i][0] = SUBMENU_X_START;
 9959              		.loc 2 49 9 discriminator 2 view .LVU2664
  50:Dubby.cpp     ****         submenuBoxBounding[i][1] = SUBMENU_Y_START + i * 10;
 9960              		.loc 2 50 34 is_stmt 0 discriminator 2 view .LVU2665
 9961 0026 C3F8AC20 		str	r2, [r3, #172]
  49:Dubby.cpp     ****         submenuBoxBounding[i][0] = SUBMENU_X_START;
 9962              		.loc 2 49 34 discriminator 2 view .LVU2666
 9963 002a 0124     		movs	r4, #1
ARM GAS  /var/folders/1y/_321xjh9623c014x9_qw12rr0000gn/T//ccE17DNe.s 			page 273


 9964 002c 0A32     		adds	r2, r2, #10
  51:Dubby.cpp     ****         submenuBoxBounding[i][2] = SUBMENU_X_END;
 9965              		.loc 2 51 34 discriminator 2 view .LVU2667
 9966 002e 3F21     		movs	r1, #63
  49:Dubby.cpp     ****         submenuBoxBounding[i][0] = SUBMENU_X_START;
 9967              		.loc 2 49 34 discriminator 2 view .LVU2668
 9968 0030 C3F8A840 		str	r4, [r3, #168]
  50:Dubby.cpp     ****         submenuBoxBounding[i][1] = SUBMENU_Y_START + i * 10;
 9969              		.loc 2 50 9 is_stmt 1 discriminator 2 view .LVU2669
  51:Dubby.cpp     ****         submenuBoxBounding[i][2] = SUBMENU_X_END;
 9970              		.loc 2 51 9 discriminator 2 view .LVU2670
  47:Dubby.cpp     ****     for (int i = 0; i < 5; i++) 
 9971              		.loc 2 47 23 is_stmt 0 discriminator 2 view .LVU2671
 9972 0034 1033     		adds	r3, r3, #16
 9973 0036 332A     		cmp	r2, #51
  52:Dubby.cpp     ****         submenuBoxBounding[i][3] = SUBMENU_Y_END + i * 10;
 9974              		.loc 2 52 34 discriminator 2 view .LVU2672
 9975 0038 C3E92812 		strd	r1, r2, [r3, #160]
  47:Dubby.cpp     ****     for (int i = 0; i < 5; i++) 
 9976              		.loc 2 47 5 is_stmt 1 discriminator 2 view .LVU2673
  47:Dubby.cpp     ****     for (int i = 0; i < 5; i++) 
 9977              		.loc 2 47 23 discriminator 2 view .LVU2674
 9978 003c F3D1     		bne	.L591
 9979              	.LBE2127:
  55:Dubby.cpp     ****     InitDisplay();
 9980              		.loc 2 55 5 view .LVU2675
  55:Dubby.cpp     ****     InitDisplay();
 9981              		.loc 2 55 16 is_stmt 0 view .LVU2676
 9982 003e 2846     		mov	r0, r5
 9983 0040 FFF7FEFF 		bl	_ZN5daisy5Dubby11InitDisplayEv
 9984              	.LVL743:
  56:Dubby.cpp     ****     InitEncoder();
 9985              		.loc 2 56 5 is_stmt 1 view .LVU2677
 9986              	.LBB2128:
 9987              	.LBI2128:
 354:Dubby.cpp     **** void Dubby::InitEncoder()
 9988              		.loc 2 354 6 view .LVU2678
 9989              	.LBB2129:
 356:Dubby.cpp     ****     encoder.Init(seed.GetPin(PIN_ENC_A),
 9990              		.loc 2 356 5 view .LVU2679
 356:Dubby.cpp     ****     encoder.Init(seed.GetPin(PIN_ENC_A),
 9991              		.loc 2 356 17 is_stmt 0 view .LVU2680
 9992 0044 0620     		movs	r0, #6
 9993 0046 FFF7FEFF 		bl	_ZN5daisy9DaisySeed6GetPinEh
 9994              	.LVL744:
 9995 004a 0346     		mov	r3, r0	@ movhi
 9996 004c 0520     		movs	r0, #5
 9997 004e ADF80430 		strh	r3, [sp, #4]	@ movhi
 9998 0052 FFF7FEFF 		bl	_ZN5daisy9DaisySeed6GetPinEh
 9999              	.LVL745:
 10000 0056 0346     		mov	r3, r0	@ movhi
 10001 0058 0420     		movs	r0, #4
 10002 005a ADF80830 		strh	r3, [sp, #8]	@ movhi
 10003 005e FFF7FEFF 		bl	_ZN5daisy9DaisySeed6GetPinEh
 10004              	.LVL746:
 10005 0062 ADF80C00 		strh	r0, [sp, #12]	@ movhi
 10006 0066 05F1F800 		add	r0, r5, #248
ARM GAS  /var/folders/1y/_321xjh9623c014x9_qw12rr0000gn/T//ccE17DNe.s 			page 274


 10007 006a 9FED080A 		vldr.32	s0, .L594
 10008 006e 039B     		ldr	r3, [sp, #12]
 10009 0070 DDE90112 		ldrd	r1, r2, [sp, #4]
 10010 0074 FFF7FEFF 		bl	_ZN5daisy7Encoder4InitE12dsy_gpio_pinS1_S1_f
 10011              	.LVL747:
 356:Dubby.cpp     ****     encoder.Init(seed.GetPin(PIN_ENC_A),
 10012              		.loc 2 356 17 view .LVU2681
 10013              	.LBE2129:
 10014              	.LBE2128:
  57:Dubby.cpp     ****     InitAudio();
 10015              		.loc 2 57 5 is_stmt 1 view .LVU2682
  57:Dubby.cpp     ****     InitAudio();
 10016              		.loc 2 57 14 is_stmt 0 view .LVU2683
 10017 0078 2846     		mov	r0, r5
 10018 007a FFF7FEFF 		bl	_ZN5daisy5Dubby9InitAudioEv
 10019              	.LVL748:
  58:Dubby.cpp     ****     InitMidi();
 10020              		.loc 2 58 5 is_stmt 1 view .LVU2684
  58:Dubby.cpp     ****     InitMidi();
 10021              		.loc 2 58 13 is_stmt 0 view .LVU2685
 10022 007e 2846     		mov	r0, r5
  59:Dubby.cpp     **** }
 10023              		.loc 2 59 1 view .LVU2686
 10024 0080 05B0     		add	sp, sp, #20
 10025              		.cfi_def_cfa_offset 12
 10026              		@ sp needed
 10027 0082 BDE83040 		pop	{r4, r5, lr}
 10028              		.cfi_restore 14
 10029              		.cfi_restore 5
 10030              		.cfi_restore 4
 10031              		.cfi_def_cfa_offset 0
 10032              	.LVL749:
  58:Dubby.cpp     ****     InitMidi();
 10033              		.loc 2 58 13 view .LVU2687
 10034 0086 FFF7FEBF 		b	_ZN5daisy5Dubby8InitMidiEv
 10035              	.LVL750:
 10036              	.L595:
  58:Dubby.cpp     ****     InitMidi();
 10037              		.loc 2 58 13 view .LVU2688
 10038 008a 00BF     		.align	2
 10039              	.L594:
 10040 008c 00000000 		.word	0
 10041              		.cfi_endproc
 10042              	.LFE3720:
 10044              		.section	.text.startup._GLOBAL__sub_I__ZN5daisy5Dubby4InitEv,"ax",%progbits
 10045              		.align	1
 10046              		.p2align 2,,3
 10047              		.syntax unified
 10048              		.thumb
 10049              		.thumb_func
 10051              	_GLOBAL__sub_I__ZN5daisy5Dubby4InitEv:
 10052              	.LFB4325:
 10053              		.loc 2 472 1 is_stmt 1 view -0
 10054              		.cfi_startproc
 10055              		@ args = 0, pretend = 0, frame = 0
 10056              		@ frame_needed = 0, uses_anonymous_args = 0
 10057              	.LBB2132:
ARM GAS  /var/folders/1y/_321xjh9623c014x9_qw12rr0000gn/T//ccE17DNe.s 			page 275


 10058              	.LBI2132:
 10059              		.loc 2 472 1 view .LVU2690
 10060              	.LVL751:
 10061              		.loc 2 472 1 is_stmt 0 view .LVU2691
 10062              	.LBE2132:
 10063 0000 10B5     		push	{r4, lr}
 10064              		.cfi_def_cfa_offset 8
 10065              		.cfi_offset 4, -8
 10066              		.cfi_offset 14, -4
 10067              	.LBB2135:
 10068              	.LBB2133:
 10069              		.file 18 "/Library/DaisyToolchain/0.2.0/arm/arm-none-eabi/include/c++/10.3.1/iostream"
   1:/Library/DaisyToolchain/0.2.0/arm/arm-none-eabi/include/c++/10.3.1/iostream **** // Standard iostream objects -*- C++ -*-
   2:/Library/DaisyToolchain/0.2.0/arm/arm-none-eabi/include/c++/10.3.1/iostream **** 
   3:/Library/DaisyToolchain/0.2.0/arm/arm-none-eabi/include/c++/10.3.1/iostream **** // Copyright (C) 1997-2020 Free Software Foundation, Inc.
   4:/Library/DaisyToolchain/0.2.0/arm/arm-none-eabi/include/c++/10.3.1/iostream **** //
   5:/Library/DaisyToolchain/0.2.0/arm/arm-none-eabi/include/c++/10.3.1/iostream **** // This file is part of the GNU ISO C++ Library.  This library is free
   6:/Library/DaisyToolchain/0.2.0/arm/arm-none-eabi/include/c++/10.3.1/iostream **** // software; you can redistribute it and/or modify it under the
   7:/Library/DaisyToolchain/0.2.0/arm/arm-none-eabi/include/c++/10.3.1/iostream **** // terms of the GNU General Public License as published by the
   8:/Library/DaisyToolchain/0.2.0/arm/arm-none-eabi/include/c++/10.3.1/iostream **** // Free Software Foundation; either version 3, or (at your option)
   9:/Library/DaisyToolchain/0.2.0/arm/arm-none-eabi/include/c++/10.3.1/iostream **** // any later version.
  10:/Library/DaisyToolchain/0.2.0/arm/arm-none-eabi/include/c++/10.3.1/iostream **** 
  11:/Library/DaisyToolchain/0.2.0/arm/arm-none-eabi/include/c++/10.3.1/iostream **** // This library is distributed in the hope that it will be useful,
  12:/Library/DaisyToolchain/0.2.0/arm/arm-none-eabi/include/c++/10.3.1/iostream **** // but WITHOUT ANY WARRANTY; without even the implied warranty of
  13:/Library/DaisyToolchain/0.2.0/arm/arm-none-eabi/include/c++/10.3.1/iostream **** // MERCHANTABILITY or FITNESS FOR A PARTICULAR PURPOSE.  See the
  14:/Library/DaisyToolchain/0.2.0/arm/arm-none-eabi/include/c++/10.3.1/iostream **** // GNU General Public License for more details.
  15:/Library/DaisyToolchain/0.2.0/arm/arm-none-eabi/include/c++/10.3.1/iostream **** 
  16:/Library/DaisyToolchain/0.2.0/arm/arm-none-eabi/include/c++/10.3.1/iostream **** // Under Section 7 of GPL version 3, you are granted additional
  17:/Library/DaisyToolchain/0.2.0/arm/arm-none-eabi/include/c++/10.3.1/iostream **** // permissions described in the GCC Runtime Library Exception, version
  18:/Library/DaisyToolchain/0.2.0/arm/arm-none-eabi/include/c++/10.3.1/iostream **** // 3.1, as published by the Free Software Foundation.
  19:/Library/DaisyToolchain/0.2.0/arm/arm-none-eabi/include/c++/10.3.1/iostream **** 
  20:/Library/DaisyToolchain/0.2.0/arm/arm-none-eabi/include/c++/10.3.1/iostream **** // You should have received a copy of the GNU General Public License and
  21:/Library/DaisyToolchain/0.2.0/arm/arm-none-eabi/include/c++/10.3.1/iostream **** // a copy of the GCC Runtime Library Exception along with this program;
  22:/Library/DaisyToolchain/0.2.0/arm/arm-none-eabi/include/c++/10.3.1/iostream **** // see the files COPYING3 and COPYING.RUNTIME respectively.  If not, see
  23:/Library/DaisyToolchain/0.2.0/arm/arm-none-eabi/include/c++/10.3.1/iostream **** // <http://www.gnu.org/licenses/>.
  24:/Library/DaisyToolchain/0.2.0/arm/arm-none-eabi/include/c++/10.3.1/iostream **** 
  25:/Library/DaisyToolchain/0.2.0/arm/arm-none-eabi/include/c++/10.3.1/iostream **** /** @file include/iostream
  26:/Library/DaisyToolchain/0.2.0/arm/arm-none-eabi/include/c++/10.3.1/iostream ****  *  This is a Standard C++ Library header.
  27:/Library/DaisyToolchain/0.2.0/arm/arm-none-eabi/include/c++/10.3.1/iostream ****  */
  28:/Library/DaisyToolchain/0.2.0/arm/arm-none-eabi/include/c++/10.3.1/iostream **** 
  29:/Library/DaisyToolchain/0.2.0/arm/arm-none-eabi/include/c++/10.3.1/iostream **** //
  30:/Library/DaisyToolchain/0.2.0/arm/arm-none-eabi/include/c++/10.3.1/iostream **** // ISO C++ 14882: 27.3  Standard iostream objects
  31:/Library/DaisyToolchain/0.2.0/arm/arm-none-eabi/include/c++/10.3.1/iostream **** //
  32:/Library/DaisyToolchain/0.2.0/arm/arm-none-eabi/include/c++/10.3.1/iostream **** 
  33:/Library/DaisyToolchain/0.2.0/arm/arm-none-eabi/include/c++/10.3.1/iostream **** #ifndef _GLIBCXX_IOSTREAM
  34:/Library/DaisyToolchain/0.2.0/arm/arm-none-eabi/include/c++/10.3.1/iostream **** #define _GLIBCXX_IOSTREAM 1
  35:/Library/DaisyToolchain/0.2.0/arm/arm-none-eabi/include/c++/10.3.1/iostream **** 
  36:/Library/DaisyToolchain/0.2.0/arm/arm-none-eabi/include/c++/10.3.1/iostream **** #pragma GCC system_header
  37:/Library/DaisyToolchain/0.2.0/arm/arm-none-eabi/include/c++/10.3.1/iostream **** 
  38:/Library/DaisyToolchain/0.2.0/arm/arm-none-eabi/include/c++/10.3.1/iostream **** #include <bits/c++config.h>
  39:/Library/DaisyToolchain/0.2.0/arm/arm-none-eabi/include/c++/10.3.1/iostream **** #include <ostream>
  40:/Library/DaisyToolchain/0.2.0/arm/arm-none-eabi/include/c++/10.3.1/iostream **** #include <istream>
  41:/Library/DaisyToolchain/0.2.0/arm/arm-none-eabi/include/c++/10.3.1/iostream **** 
  42:/Library/DaisyToolchain/0.2.0/arm/arm-none-eabi/include/c++/10.3.1/iostream **** namespace std _GLIBCXX_VISIBILITY(default)
  43:/Library/DaisyToolchain/0.2.0/arm/arm-none-eabi/include/c++/10.3.1/iostream **** {
  44:/Library/DaisyToolchain/0.2.0/arm/arm-none-eabi/include/c++/10.3.1/iostream **** _GLIBCXX_BEGIN_NAMESPACE_VERSION
  45:/Library/DaisyToolchain/0.2.0/arm/arm-none-eabi/include/c++/10.3.1/iostream **** 
ARM GAS  /var/folders/1y/_321xjh9623c014x9_qw12rr0000gn/T//ccE17DNe.s 			page 276


  46:/Library/DaisyToolchain/0.2.0/arm/arm-none-eabi/include/c++/10.3.1/iostream ****   /**
  47:/Library/DaisyToolchain/0.2.0/arm/arm-none-eabi/include/c++/10.3.1/iostream ****    *  @name Standard Stream Objects
  48:/Library/DaisyToolchain/0.2.0/arm/arm-none-eabi/include/c++/10.3.1/iostream ****    *
  49:/Library/DaisyToolchain/0.2.0/arm/arm-none-eabi/include/c++/10.3.1/iostream ****    *  The &lt;iostream&gt; header declares the eight <em>standard stream
  50:/Library/DaisyToolchain/0.2.0/arm/arm-none-eabi/include/c++/10.3.1/iostream ****    *  objects</em>.  For other declarations, see
  51:/Library/DaisyToolchain/0.2.0/arm/arm-none-eabi/include/c++/10.3.1/iostream ****    *  http://gcc.gnu.org/onlinedocs/libstdc++/manual/io.html
  52:/Library/DaisyToolchain/0.2.0/arm/arm-none-eabi/include/c++/10.3.1/iostream ****    *  and the @link iosfwd I/O forward declarations @endlink
  53:/Library/DaisyToolchain/0.2.0/arm/arm-none-eabi/include/c++/10.3.1/iostream ****    *
  54:/Library/DaisyToolchain/0.2.0/arm/arm-none-eabi/include/c++/10.3.1/iostream ****    *  They are required by default to cooperate with the global C
  55:/Library/DaisyToolchain/0.2.0/arm/arm-none-eabi/include/c++/10.3.1/iostream ****    *  library's @c FILE streams, and to be available during program
  56:/Library/DaisyToolchain/0.2.0/arm/arm-none-eabi/include/c++/10.3.1/iostream ****    *  startup and termination. For more information, see the section of the
  57:/Library/DaisyToolchain/0.2.0/arm/arm-none-eabi/include/c++/10.3.1/iostream ****    *  manual linked to above.
  58:/Library/DaisyToolchain/0.2.0/arm/arm-none-eabi/include/c++/10.3.1/iostream ****   */
  59:/Library/DaisyToolchain/0.2.0/arm/arm-none-eabi/include/c++/10.3.1/iostream ****   ///@{
  60:/Library/DaisyToolchain/0.2.0/arm/arm-none-eabi/include/c++/10.3.1/iostream ****   extern istream cin;		/// Linked to standard input
  61:/Library/DaisyToolchain/0.2.0/arm/arm-none-eabi/include/c++/10.3.1/iostream ****   extern ostream cout;		/// Linked to standard output
  62:/Library/DaisyToolchain/0.2.0/arm/arm-none-eabi/include/c++/10.3.1/iostream ****   extern ostream cerr;		/// Linked to standard error (unbuffered)
  63:/Library/DaisyToolchain/0.2.0/arm/arm-none-eabi/include/c++/10.3.1/iostream ****   extern ostream clog;		/// Linked to standard error (buffered)
  64:/Library/DaisyToolchain/0.2.0/arm/arm-none-eabi/include/c++/10.3.1/iostream **** 
  65:/Library/DaisyToolchain/0.2.0/arm/arm-none-eabi/include/c++/10.3.1/iostream **** #ifdef _GLIBCXX_USE_WCHAR_T
  66:/Library/DaisyToolchain/0.2.0/arm/arm-none-eabi/include/c++/10.3.1/iostream ****   extern wistream wcin;		/// Linked to standard input
  67:/Library/DaisyToolchain/0.2.0/arm/arm-none-eabi/include/c++/10.3.1/iostream ****   extern wostream wcout;	/// Linked to standard output
  68:/Library/DaisyToolchain/0.2.0/arm/arm-none-eabi/include/c++/10.3.1/iostream ****   extern wostream wcerr;	/// Linked to standard error (unbuffered)
  69:/Library/DaisyToolchain/0.2.0/arm/arm-none-eabi/include/c++/10.3.1/iostream ****   extern wostream wclog;	/// Linked to standard error (buffered)
  70:/Library/DaisyToolchain/0.2.0/arm/arm-none-eabi/include/c++/10.3.1/iostream **** #endif
  71:/Library/DaisyToolchain/0.2.0/arm/arm-none-eabi/include/c++/10.3.1/iostream ****   ///@}
  72:/Library/DaisyToolchain/0.2.0/arm/arm-none-eabi/include/c++/10.3.1/iostream **** 
  73:/Library/DaisyToolchain/0.2.0/arm/arm-none-eabi/include/c++/10.3.1/iostream ****   // For construction of filebuffers for cout, cin, cerr, clog et. al.
  74:/Library/DaisyToolchain/0.2.0/arm/arm-none-eabi/include/c++/10.3.1/iostream ****   static ios_base::Init __ioinit;
 10070              		.loc 18 74 25 view .LVU2692
 10071 0002 054C     		ldr	r4, .L598
 10072 0004 2046     		mov	r0, r4
 10073 0006 FFF7FEFF 		bl	_ZNSt8ios_base4InitC1Ev
 10074              	.LVL752:
 10075 000a 2046     		mov	r0, r4
 10076 000c 034A     		ldr	r2, .L598+4
 10077 000e 0449     		ldr	r1, .L598+8
 10078              	.LBE2133:
 10079              	.LBE2135:
 10080              		.loc 2 472 1 view .LVU2693
 10081 0010 BDE81040 		pop	{r4, lr}
 10082              		.cfi_restore 14
 10083              		.cfi_restore 4
 10084              		.cfi_def_cfa_offset 0
 10085              	.LBB2136:
 10086              	.LBB2134:
 10087              		.loc 18 74 25 view .LVU2694
 10088 0014 FFF7FEBF 		b	__aeabi_atexit
 10089              	.LVL753:
 10090              	.L599:
 10091              		.align	2
 10092              	.L598:
 10093 0018 00000000 		.word	.LANCHOR2
 10094 001c 00000000 		.word	__dso_handle
 10095 0020 00000000 		.word	_ZNSt8ios_base4InitD1Ev
 10096              	.LBE2134:
 10097              	.LBE2136:
ARM GAS  /var/folders/1y/_321xjh9623c014x9_qw12rr0000gn/T//ccE17DNe.s 			page 277


 10098              		.cfi_endproc
 10099              	.LFE4325:
 10101              		.section	.init_array,"aw",%init_array
 10102              		.align	2
 10103 0000 00000000 		.word	_GLOBAL__sub_I__ZN5daisy5Dubby4InitEv(target1)
 10104              		.section	.rodata
 10105              		.align	2
 10106              		.set	.LANCHOR1,. + 0
 10107              	.LC5:
 10108 0000 04       		.byte	4
 10109 0001 06       		.byte	6
 10110 0002 0000     		.space	2
 10111              	.LC6:
 10112 0004 04       		.byte	4
 10113 0005 03       		.byte	3
 10114 0006 0000     		.space	2
 10115              	.LC7:
 10116 0008 04       		.byte	4
 10117 0009 04       		.byte	4
 10118 000a 0000     		.space	2
 10119              	.LC8:
 10120 000c 04       		.byte	4
 10121 000d 02       		.byte	2
 10122 000e 0000     		.space	2
 10123              	.LC9:
 10124 0010 04       		.byte	4
 10125 0011 05       		.byte	5
 10126 0012 0000     		.space	2
 10127              	.LC10:
 10128 0014 01       		.byte	1
 10129 0015 08       		.byte	8
 10130 0016 0000     		.space	2
 10131              	.LC11:
 10132 0018 01       		.byte	1
 10133 0019 09       		.byte	9
 10134 001a 0000     		.space	2
 10135              	.LC12:
 10136 001c 06       		.byte	6
 10137 001d 09       		.byte	9
 10138 001e 0000     		.space	2
 10139              	.LC13:
 10140 0020 03       		.byte	3
 10141 0021 0B       		.byte	11
 10142              		.section	.bss._ZStL8__ioinit,"aw",%nobits
 10143              		.align	2
 10144              		.set	.LANCHOR2,. + 0
 10147              	_ZStL8__ioinit:
 10148 0000 00       		.space	1
 10149              		.section	.rodata._ZL7bitmaps,"a"
 10150              		.align	2
 10151              		.set	.LANCHOR0,. + 0
 10154              	_ZL7bitmaps:
 10155 0000 00000000 		.ascii	"\000\000\000\000\000\000\000\000\000\000\000\000\000"
 10155      00000000 
 10155      00000000 
 10155      00
 10156 000d 00000000 		.ascii	"\000\000\000\000\000\000\000\000\000\000\004\000\000"
ARM GAS  /var/folders/1y/_321xjh9623c014x9_qw12rr0000gn/T//ccE17DNe.s 			page 278


 10156      00000000 
 10156      00000400 
 10156      00
 10157 001a 00000000 		.ascii	"\000\000\000\000\000\000\000\000\000\000\000\000\000"
 10157      00000000 
 10157      00000000 
 10157      00
 10158 0027 FE000000 		.ascii	"\376\000\000\000\000\000\000\000\000\000\000\000\000"
 10158      00000000 
 10158      00000000 
 10158      00
 10159 0034 000007FF 		.ascii	"\000\000\007\377\000\000\000\000\000\000\000\000\000"
 10159      00000000 
 10159      00000000 
 10159      00
 10160 0041 00000000 		.ascii	"\000\000\000\000\000\037\377\200\000\000\000\000\000"
 10160      001FFF80 
 10160      00000000 
 10160      00
 10161 004e 00000000 		.ascii	"\000\000\000\000\000\000\000\000?\377\300\000\000\000"
 10161      00000000 
 10161      3FFFC000 
 10161      0000
 10162 005c 00000000 		.ascii	"\000\000\000\000\000\000\000\000\000\000?\377\340\000"
 10162      00000000 
 10162      00003FFF 
 10162      E000
 10163 006a 00000000 		.ascii	"\000\000\000\000\000\000\000\000\000\000\000\000?\377"
 10163      00000000 
 10163      00000000 
 10163      3FFF
 10164 0078 F0000000 		.ascii	"\360\000\000\000\000\000\000\000\000\000\000\000\000"
 10164      00000000 
 10164      00000000 
 10164      00
 10165 0085 003FFFF8 		.ascii	"\000?\377\370\000\000\000\000\000\000\000\000\000\000"
 10165      00000000 
 10165      00000000 
 10165      0000
 10166 0093 0000007F 		.ascii	"\000\000\000\177\377\370\000\000\000\000\000\000\000"
 10166      FFF80000 
 10166      00000000 
 10166      00
 10167 00a0 00000000 		.ascii	"\000\000\000\000\000\000\177\377\370\000\000\000\000"
 10167      00007FFF 
 10167      F8000000 
 10167      00
 10168 00ad 00000000 		.ascii	"\000\000\000\000\000\000\000\000\000\177\377\370\000"
 10168      00000000 
 10168      007FFFF8 
 10168      00
 10169 00ba 00000000 		.ascii	"\000\000\000\000\000\000\000\000\000\000\000\000\177"
 10169      00000000 
 10169      00000000 
 10169      7F
 10170 00c7 FFF80000 		.ascii	"\377\370\000\000\000\000\000\000\000\000\000\000\000"
 10170      00000000 
ARM GAS  /var/folders/1y/_321xjh9623c014x9_qw12rr0000gn/T//ccE17DNe.s 			page 279


 10170      00000000 
 10170      00
 10171 00d4 0000FFFF 		.ascii	"\000\000\377\377\360\000\000\000\000\000\000\000\000"
 10171      F0000000 
 10171      00000000 
 10171      00
 10172 00e1 00000000 		.ascii	"\000\000\000\000\000\377\377\360\000\000\000\000\000"
 10172      00FFFFF0 
 10172      00000000 
 10172      00
 10173 00ee 00000000 		.ascii	"\000\000\000\000\000\000\000\000\177\377\360\000\000"
 10173      00000000 
 10173      7FFFF000 
 10173      00
 10174 00fb 00000000 		.ascii	"\000\000\000\000\000\000\000\000\000\000\006?\377\360"
 10174      00000000 
 10174      0000063F 
 10174      FFF0
 10175 0109 00000000 		.ascii	"\000\000\000\000\000\000\000\000\000\000\000\000??\377"
 10175      00000000 
 10175      00000000 
 10175      3F3FFF
 10176 0118 E0000000 		.ascii	"\340\000\000\000\000\000\000\000\000\000\000\000\007"
 10176      00000000 
 10176      00000000 
 10176      07
 10177 0125 FFCFFFE0 		.ascii	"\377\317\377\340\000\000\000\000\000\000\000\000\000"
 10177      00000000 
 10177      00000000 
 10177      00
 10178 0132 00000FFF 		.ascii	"\000\000\017\377\307\377\340\000\000\000\000\000\000"
 10178      C7FFE000 
 10178      00000000 
 10178      00
 10179 013f 00000000 		.ascii	"\000\000\000\000\000\037\377\343\376\000\000\000\000"
 10179      001FFFE3 
 10179      FE000000 
 10179      00
 10180 014c 00000000 		.ascii	"\000\000\000\000\000\000\000\000\037\377\361\360\000"
 10180      00000000 
 10180      1FFFF1F0 
 10180      00
 10181 0159 00000000 		.ascii	"\000\000\000\000\000\000\000\000\000\000\000\037\377"
 10181      00000000 
 10181      0000001F 
 10181      FF
 10182 0166 F8000000 		.ascii	"\370\000\000\000\000\000\000\000\000\000\000\000\000"
 10182      00000000 
 10182      00000000 
 10182      00
 10183 0173 001FFFFC 		.ascii	"\000\037\377\374\000\000\000\000\000\000\000\000\000"
 10183      00000000 
 10183      00000000 
 10183      00
 10184 0180 00000000 		.ascii	"\000\000\000\000?\377\376\000\000\000\000\000\000\000"
 10184      3FFFFE00 
 10184      00000000 
ARM GAS  /var/folders/1y/_321xjh9623c014x9_qw12rr0000gn/T//ccE17DNe.s 			page 280


 10184      0000
 10185 018e 00000000 		.ascii	"\000\000\000\000\000\000?\377\376\000\000\000\000\000"
 10185      00003FFF 
 10185      FE000000 
 10185      0000
 10186 019c 00000000 		.ascii	"\000\000\000\000\000\000\000\000?\377\374\000\000\000"
 10186      00000000 
 10186      3FFFFC00 
 10186      0000
 10187 01aa 00000000 		.ascii	"\000\000\000\000\000\000\000\000\000\000?\377\374\000"
 10187      00000000 
 10187      00003FFF 
 10187      FC00
 10188 01b8 00000700 		.ascii	"\000\000\007\000\000\000\000\000\000\000\000\000?\377"
 10188      00000000 
 10188      00000000 
 10188      3FFF
 10189 01c6 FC000000 		.ascii	"\374\000\000\000\177\200\000\000\000\000\000\000\000"
 10189      7F800000 
 10189      00000000 
 10189      00
 10190 01d3 003FFFF8 		.ascii	"\000?\377\370\000\000\007\377\340\000\000\000\000\000"
 10190      000007FF 
 10190      E0000000 
 10190      0000
 10191 01e1 0000003F 		.ascii	"\000\000\000?\377\370\000\000\017\377\360\000\000\000"
 10191      FFF80000 
 10191      0FFFF000 
 10191      0000
 10192 01ef 00000000 		.ascii	"\000\000\000\000\000\037\377\370\000\000\017\377\370"
 10192      001FFFF8 
 10192      00000FFF 
 10192      F8
 10193 01fc 00000000 		.ascii	"\000\000\000\000\000\000\000\000\017\377\370\000\000"
 10193      00000000 
 10193      0FFFF800 
 10193      00
 10194 0209 0FFFFC00 		.ascii	"\017\377\374\000\000\000\000\000\000\000\000\007\377"
 10194      00000000 
 10194      00000007 
 10194      FF
 10195 0216 F000000F 		.ascii	"\360\000\000\017\377\374\000\000\000\000\000\000\000"
 10195      FFFC0000 
 10195      00000000 
 10195      00
 10196 0223 0003FFF0 		.ascii	"\000\003\377\360\000\000\037\377\376\000\000\000\000"
 10196      00001FFF 
 10196      FE000000 
 10196      00
 10197 0230 00000000 		.ascii	"\000\000\000\000\001\377\000\000\000\037\377\376\000"
 10197      01FF0000 
 10197      001FFFFE 
 10197      00
 10198 023d 00000000 		.ascii	"\000\000\000\000\000\000\000\000\370\030\000\000\037"
 10198      00000000 
 10198      F8180000 
 10198      1F
ARM GAS  /var/folders/1y/_321xjh9623c014x9_qw12rr0000gn/T//ccE17DNe.s 			page 281


 10199 024a FFFE0000 		.ascii	"\377\376\000\000\000\000\000\000\000\000\000\000\374"
 10199      00000000 
 10199      00000000 
 10199      FC
 10200 0257 00003FFF 		.ascii	"\000\000?\377\376\000\000\000\000\000\000\000\000\000"
 10200      FE000000 
 10200      00000000 
 10200      0000
 10201 0265 07FE0000 		.ascii	"\007\376\000\000?\377\374\000\000\000\000\000\000\000"
 10201      3FFFFC00 
 10201      00000000 
 10201      0000
 10202 0273 00003FFF 		.ascii	"\000\000?\377\000\000?\377\374\000\000\000\000\000\000"
 10202      00003FFF 
 10202      FC000000 
 10202      000000
 10203 0282 0000007F 		.ascii	"\000\000\000\177\377\200\000?\377\374\000\000\000\000"
 10203      FF80003F 
 10203      FFFC0000 
 10203      0000
 10204 0290 00000000 		.ascii	"\000\000\000\000\000\177\377\300\000\037\377\374\000"
 10204      007FFFC0 
 10204      001FFFFC 
 10204      00
 10205 029d 00000000 		.ascii	"\000\000\000\000\000\000\000\000\177\377\340\007\317"
 10205      00000000 
 10205      7FFFE007 
 10205      CF
 10206 02aa FFFC0000 		.ascii	"\377\374\000\000\000\000\000\000\000\000\000\377\377"
 10206      00000000 
 10206      000000FF 
 10206      FF
 10207 02b7 F03FE7FF 		.ascii	"\360?\347\377\370\000\000\000\000\000\000\000\000\000"
 10207      F8000000 
 10207      00000000 
 10207      0000
 10208 02c5 FFFFF3FF 		.ascii	"\377\377\363\377\363\377\370\000\000\000\000\000\000"
 10208      F3FFF800 
 10208      00000000 
 10208      00
 10209 02d2 000000FF 		.ascii	"\000\000\000\377\377\367\377\371\377\360\000\000\000"
 10209      FFF7FFF9 
 10209      FFF00000 
 10209      00
 10210 02df 00000000 		.ascii	"\000\000\000\000\000\000\377\377\367\377\374\376\000"
 10210      0000FFFF 
 10210      F7FFFCFE 
 10210      00
 10211 02ec 00000000 		.ascii	"\000\000\000\000\000\000\000\000\001\377\377\367\377"
 10211      00000000 
 10211      01FFFFF7 
 10211      FF
 10212 02f9 FE700000 		.ascii	"\376p\000\000\000\000\000\000\000\000\000\001\377\377"
 10212      00000000 
 10212      00000001 
 10212      FFFF
 10213 0307 E7FFFF00 		.ascii	"\347\377\377\000\000\000\000\000\000\000\000\000\000"
ARM GAS  /var/folders/1y/_321xjh9623c014x9_qw12rr0000gn/T//ccE17DNe.s 			page 282


 10213      00000000 
 10213      00000000 
 10213      00
 10214 0314 01FFFFE7 		.ascii	"\001\377\377\347\377\377\200\000\000\000\000\000\000"
 10214      FFFF8000 
 10214      00000000 
 10214      00
 10215 0321 00000001 		.ascii	"\000\000\000\001\377\377\357\377\377\000\000\000\000"
 10215      FFFFEFFF 
 10215      FF000000 
 10215      00
 10216 032e 00000000 		.ascii	"\000\000\000\000\000\000\000\377\377\317\377\377\000"
 10216      000000FF 
 10216      FFCFFFFF 
 10216      00
 10217 033b 00000000 		.ascii	"\000\000\000\000\000\000\000\000\000\000\177\377\317"
 10217      00000000 
 10217      00007FFF 
 10217      CF
 10218 0348 FFFF0000 		.ascii	"\377\377\000\000\000\000\000\000\000\000\000\000\000"
 10218      00000000 
 10218      00000000 
 10218      00
 10219 0355 3FFFDFFF 		.ascii	"?\377\337\377\377\000\000\000\000\000\000\000\000\000"
 10219      FF000000 
 10219      00000000 
 10219      0000
 10220 0363 00001FFF 		.ascii	"\000\000\037\377\237\377\376\000\000\000\000\000\000"
 10220      9FFFFE00 
 10220      00000000 
 10220      00
 10221 0370 00000000 		.ascii	"\000\000\000\000\000\017\376\037\377\376\000\000\000"
 10221      000FFE1F 
 10221      FFFE0000 
 10221      00
 10222 037d 00000000 		.ascii	"\000\000\000\000\000\000\000\000\007\300\007\377\376"
 10222      00000000 
 10222      07C007FF 
 10222      FE
 10223 038a 00000000 		.ascii	"\000\000\000\000\000\000\000\000\000\000\000\000\000"
 10223      00000000 
 10223      00000000 
 10223      00
 10224 0397 07FFFC00 		.ascii	"\007\377\374\000\000\000\000\000\000\000\000\000\000"
 10224      00000000 
 10224      00000000 
 10224      00
 10225 03a4 00000003 		.ascii	"\000\000\000\003\377\374\000\000\000\000\000\000\000"
 10225      FFFC0000 
 10225      00000000 
 10225      00
 10226 03b1 00000000 		.ascii	"\000\000\000\000\000\000\001\377\374\000\000\000\000"
 10226      000001FF 
 10226      FC000000 
 10226      00
 10227 03be 00000000 		.ascii	"\000\000\000\000\000\000\000\000\000\000\377\360\000"
 10227      00000000 
ARM GAS  /var/folders/1y/_321xjh9623c014x9_qw12rr0000gn/T//ccE17DNe.s 			page 283


 10227      0000FFF0 
 10227      00
 10228 03cb 00000000 		.ascii	"\000\000\000\000\000\000\000\000\000\000\000\000\000"
 10228      00000000 
 10228      00000000 
 10228      00
 10229 03d8 7F800000 		.ascii	"\177\200\000\000\000\000\000\000\000\000\000\000\000"
 10229      00000000 
 10229      00000000 
 10229      00
 10230 03e5 00000010 		.ascii	"\000\000\000\020\000\000\000\000\000\000\000\000\000"
 10230      00000000 
 10230      00000000 
 10230      00
 10231 03f2 00000000 		.ascii	"\000\000\000\000\000\000\000\000\000\000\000\000\000"
 10231      00000000 
 10231      00000000 
 10231      00
 10232 03ff 00       		.ascii	"\000"
 10233 0400 00000000 		.ascii	"\000\000\000\000\000\000\000\000\000\000\000\000\000"
 10233      00000000 
 10233      00000000 
 10233      00
 10234 040d 00000000 		.ascii	"\000\000\000\000\000\000\000\000\000\000\000\000\000"
 10234      00000000 
 10234      00000000 
 10234      00
 10235 041a 00000000 		.ascii	"\000\000\000\000\000\000\000\000\000\000\000\000\000"
 10235      00000000 
 10235      00000000 
 10235      00
 10236 0427 00000000 		.ascii	"\000\000\000\000\000\000\000\000\000\000\000\000\000"
 10236      00000000 
 10236      00000000 
 10236      00
 10237 0434 0001FC00 		.ascii	"\000\001\374\000\000?\200\000\000\000\000\000\000\000"
 10237      003F8000 
 10237      00000000 
 10237      0000
 10238 0442 00000007 		.ascii	"\000\000\000\007\377\000\000\377\300\000\000\000\000"
 10238      FF0000FF 
 10238      C0000000 
 10238      00
 10239 044f 00000000 		.ascii	"\000\000\000\000\000\000\017\377\000\000\377\300\000"
 10239      00000FFF 
 10239      0000FFC0 
 10239      00
 10240 045c 00000000 		.ascii	"\000\000\000\000\000\000\000\000\000\036\007\300\003"
 10240      00000000 
 10240      001E07C0 
 10240      03
 10241 0469 E3C00000 		.ascii	"\343\300\000\000\000\000\000\000\000\000\000\000<\001"
 10241      00000000 
 10241      00000000 
 10241      3C01
 10242 0477 E0078780 		.ascii	"\340\007\207\200\000\000\000\000\000\000\000\000\000"
 10242      00000000 
ARM GAS  /var/folders/1y/_321xjh9623c014x9_qw12rr0000gn/T//ccE17DNe.s 			page 284


 10242      00000000 
 10242      00
 10243 0484 003830E0 		.ascii	"\00080\340\007\016\034\000\000\000\000\000\000\000\000"
 10243      070E1C00 
 10243      00000000 
 10243      000000
 10244 0493 000071F8 		.ascii	"\000\000q\370\340\007\014>\000\000\000\000\000\000\000"
 10244      E0070C3E 
 10244      00000000 
 10244      000000
 10245 04a2 00000071 		.ascii	"\000\000\000q\374p\016\014>\000\000\000\000\000\000"
 10245      FC700E0C 
 10245      3E000000 
 10245      000000
 10246 04b1 00000000 		.ascii	"\000\000\000\000s\236p\016\014~\000\000\000\000\000"
 10246      739E700E 
 10246      0C7E0000 
 10246      000000
 10247 04c0 00000000 		.ascii	"\000\000\000\000\000s\216p\016\017\356\000\000\000\000"
 10247      00738E70 
 10247      0E0FEE00 
 10247      000000
 10248 04cf 00000000 		.ascii	"\000\000\000\000\000\000s\334p\016\007\316\000\000\000"
 10248      000073DC 
 10248      700E07CE 
 10248      000000
 10249 04de 00000000 		.ascii	"\000\000\000\000\000\000\000q\374p\016\000\016\000\000"
 10249      00000071 
 10249      FC700E00 
 10249      0E0000
 10250 04ed 00000000 		.ascii	"\000\000\000\000\000\000\000\000y\374x\036\000\036\000"
 10250      00000000 
 10250      79FC781E 
 10250      001E00
 10251 04fc 00000000 		.ascii	"\000\000\000\000\000\000\000\000\0008`<<\000\034\000"
 10251      00000000 
 10251      0038603C 
 10251      3C001C00 
 10252 050c 00000000 		.ascii	"\000\000\000\000\000\000\000\000\000<\000\036x\000<"
 10252      00000000 
 10252      003C001E 
 10252      78003C
 10253 051b 00000000 		.ascii	"\000\000\000\000\000\000\000\000\000\000\017\000\017"
 10253      00000000 
 10253      00000F00 
 10253      0F
 10254 0528 F000F000 		.ascii	"\360\000\360\000\000\000\000\000\000\000\000\000\000"
 10254      00000000 
 10254      00000000 
 10254      00
 10255 0535 0FFC07E0 		.ascii	"\017\374\007\340?\360\000\000\000\000\000\000\000\000"
 10255      3FF00000 
 10255      00000000 
 10255      0000
 10256 0543 000007FE 		.ascii	"\000\000\007\376\003\300\177\340\000\000\000\000\000"
 10256      03C07FE0 
 10256      00000000 
ARM GAS  /var/folders/1y/_321xjh9623c014x9_qw12rr0000gn/T//ccE17DNe.s 			page 285


 10256      00
 10257 0550 00000000 		.ascii	"\000\000\000\000\000\000\377\007\200\377\000\000\000"
 10257      0000FF07 
 10257      80FF0000 
 10257      00
 10258 055d 00000000 		.ascii	"\000\000\000\000\000\000\000\000\000\007\217\001\340"
 10258      00000000 
 10258      00078F01 
 10258      E0
 10259 056a 00000000 		.ascii	"\000\000\000\000\000\000\000\000\000\000\000\000\003"
 10259      00000000 
 10259      00000000 
 10259      03
 10260 0577 DE03C000 		.ascii	"\336\003\300\000\000\000\000\000\000\000\000\000\000"
 10260      00000000 
 10260      00000000 
 10260      00
 10261 0584 000001FC 		.ascii	"\000\000\001\374\007\200\000\000\000\000\000\000\000"
 10261      07800000 
 10261      00000000 
 10261      00
 10262 0591 00000000 		.ascii	"\000\000\000\000\000\000\370\017\000\000\000\000\000"
 10262      0000F80F 
 10262      00000000 
 10262      00
 10263 059e 00000000 		.ascii	"\000\000\000\000\000\000\000\000\000\360\037\000\000"
 10263      00000000 
 10263      00F01F00 
 10263      00
 10264 05ab 00000000 		.ascii	"\000\000\000\000\000\000\000\000\000\000\000\001\340"
 10264      00000000 
 10264      00000001 
 10264      E0
 10265 05b8 3F800000 		.ascii	"?\200\000\000\000\000\000\000\000\000\000\000\000\000"
 10265      00000000 
 10265      00000000 
 10265      0000
 10266 05c6 03C07BC0 		.ascii	"\003\300{\300\000\000\000\000\000\000\000\000\000\000"
 10266      00000000 
 10266      00000000 
 10266      0000
 10267 05d4 00000780 		.ascii	"\000\000\007\200\361\340\000\000\000\000\000\000\000"
 10267      F1E00000 
 10267      00000000 
 10267      00
 10268 05e1 00000000 		.ascii	"\000\000\000\000\000\377\001\340\377\000\000\000\000"
 10268      00FF01E0 
 10268      FF000000 
 10268      00
 10269 05ee 00000000 		.ascii	"\000\000\000\000\000\000\000\007\376\003\300\177\300"
 10269      00000007 
 10269      FE03C07F 
 10269      C0
 10270 05fb 00000000 		.ascii	"\000\000\000\000\000\000\000\000\000\000\017\374\007"
 10270      00000000 
 10270      00000FFC 
 10270      07
ARM GAS  /var/folders/1y/_321xjh9623c014x9_qw12rr0000gn/T//ccE17DNe.s 			page 286


 10271 0608 E03FF000 		.ascii	"\340?\360\000\000\000\000\000\000\000\000\000\000\017"
 10271      00000000 
 10271      00000000 
 10271      000F
 10272 0616 000FF000 		.ascii	"\000\017\360\000\360\000\000\000\000\000\000\000\000"
 10272      F0000000 
 10272      00000000 
 10272      00
 10273 0623 00003C00 		.ascii	"\000\000<\000\036x\000<\000\000\000\000\000\000\000"
 10273      1E78003C 
 10273      00000000 
 10273      000000
 10274 0632 00000038 		.ascii	"\000\000\0008\000<<\002\034\000\000\000\000\000\000"
 10274      003C3C02 
 10274      1C000000 
 10274      000000
 10275 0641 00000000 		.ascii	"\000\000\000\000x\000x\036\037\036\000\000\000\000\000"
 10275      7800781E 
 10275      1F1E0000 
 10275      000000
 10276 0650 00000000 		.ascii	"\000\000\000\000\000q\300p\016?\216\000\000\000\000"
 10276      0071C070 
 10276      0E3F8E00 
 10276      000000
 10277 065f 00000000 		.ascii	"\000\000\000\000\000\000s\340p\016?\316\000\000\000"
 10277      000073E0 
 10277      700E3FCE 
 10277      000000
 10278 066e 00000000 		.ascii	"\000\000\000\000\000\000\000w\360p\0161\316\000\000"
 10278      00000077 
 10278      F0700E31 
 10278      CE0000
 10279 067d 00000000 		.ascii	"\000\000\000\000\000\000\000\000~8p\016y\316\000\000"
 10279      00000000 
 10279      7E38700E 
 10279      79CE0000 
 10280 068d 00000000 		.ascii	"\000\000\000\000\000\000\000\000|8p\016?\216\000\000"
 10280      00000000 
 10280      7C38700E 
 10280      3F8E0000 
 10281 069d 00000000 		.ascii	"\000\000\000\000\000\000\000\000|8\340\007\037\216\000"
 10281      00000000 
 10281      7C38E007 
 10281      1F8E00
 10282 06ac 00000000 		.ascii	"\000\000\000\000\000\000\000\000\0008p\340\007\016\034"
 10282      00000000 
 10282      003870E0 
 10282      070E1C
 10283 06bb 00000000 		.ascii	"\000\000\000\000\000\000\000\000\000\000\001\341\340"
 10283      00000000 
 10283      000001E1 
 10283      E0
 10284 06c8 03803C00 		.ascii	"\003\200<\000\000\000\000\000\000\000\000\000\000\003"
 10284      00000000 
 10284      00000000 
 10284      0003
 10285 06d6 C7C003E0 		.ascii	"\307\300\003\340x\000\000\000\000\000\000\000\000\000"
ARM GAS  /var/folders/1y/_321xjh9623c014x9_qw12rr0000gn/T//ccE17DNe.s 			page 287


 10285      78000000 
 10285      00000000 
 10285      0000
 10286 06e4 0003FF00 		.ascii	"\000\003\377\000\000\377\360\000\000\000\000\000\000"
 10286      00FFF000 
 10286      00000000 
 10286      00
 10287 06f1 00000000 		.ascii	"\000\000\000\000\003\377\000\000\377\340\000\000\000"
 10287      03FF0000 
 10287      FFE00000 
 10287      00
 10288 06fe 00000000 		.ascii	"\000\000\000\000\000\000\000\001\374\000\000?\200\000"
 10288      00000001 
 10288      FC00003F 
 10288      8000
 10289 070c 00000000 		.ascii	"\000\000\000\000\000\000\000\000\000\000\000\000\000"
 10289      00000000 
 10289      00000000 
 10289      00
 10290 0719 00000000 		.ascii	"\000\000\000\000\000\000\000\000\000\000\000\000\000"
 10290      00000000 
 10290      00000000 
 10290      00
 10291 0726 00000000 		.ascii	"\000\000\000\000\000\000\000\000\000\000\000\000\000"
 10291      00000000 
 10291      00000000 
 10291      00
 10292 0733 00000000 		.ascii	"\000\000\000\000\000\000\000\000\000\000\000\000\000"
 10292      00000000 
 10292      00000000 
 10292      00
 10293 0740 00000000 		.ascii	"\000\000\000\000\000\000\000\000\000\000\000\000\000"
 10293      00000000 
 10293      00000000 
 10293      00
 10294 074d 00000000 		.ascii	"\000\000\000\000\000\000\000\000\000\000\000\000\000"
 10294      00000000 
 10294      00000000 
 10294      00
 10295 075a 00000000 		.ascii	"\000\000\000\000\000\000\000\000\000\000\000\000\000"
 10295      00000000 
 10295      00000000 
 10295      00
 10296 0767 00000000 		.ascii	"\000\000\000\000\000\000\000\000\000\000\000\000\000"
 10296      00000000 
 10296      00000000 
 10296      00
 10297 0774 00000000 		.ascii	"\000\000\000\000\000\000\000\000\000\000\000\000\000"
 10297      00000000 
 10297      00000000 
 10297      00
 10298 0781 00000000 		.ascii	"\000\000\000\000\000\000\000\000\000\000\000\000\000"
 10298      00000000 
 10298      00000000 
 10298      00
 10299 078e 00000000 		.ascii	"\000\000\000\000\000\000\000\000\000\000\000\000\000"
 10299      00000000 
ARM GAS  /var/folders/1y/_321xjh9623c014x9_qw12rr0000gn/T//ccE17DNe.s 			page 288


 10299      00000000 
 10299      00
 10300 079b 00000000 		.ascii	"\000\000\000\000\000\000\000\000\000\000\000\000\000"
 10300      00000000 
 10300      00000000 
 10300      00
 10301 07a8 00000000 		.ascii	"\000\000\000\000\000\000\000\000\000\000\000\000\000"
 10301      00000000 
 10301      00000000 
 10301      00
 10302 07b5 00000000 		.ascii	"\000\000\000\000\000\000\000\000\000\000\000\000\000"
 10302      00000000 
 10302      00000000 
 10302      00
 10303 07c2 00000000 		.ascii	"\000\000\000\000\000\000\000\000\000\000\000\000\000"
 10303      00000000 
 10303      00000000 
 10303      00
 10304 07cf 00000000 		.ascii	"\000\000\000\000\000\000\000\000\000\000\000\000\000"
 10304      00000000 
 10304      00000000 
 10304      00
 10305 07dc 00000000 		.ascii	"\000\000\000\000\000\000\000\000\000\000\000\000\000"
 10305      00000000 
 10305      00000000 
 10305      00
 10306 07e9 00000000 		.ascii	"\000\000\000\000\000\000\000\000\000\000\000\000\000"
 10306      00000000 
 10306      00000000 
 10306      00
 10307 07f6 00000000 		.ascii	"\000\000\000\000\000\000\000\000\000\000"
 10307      00000000 
 10307      0000
 10308              		.text
 10309              	.Letext0:
 10310              		.file 19 "/Library/DaisyToolchain/0.2.0/arm/arm-none-eabi/include/machine/_default_types.h"
 10311              		.file 20 "/Library/DaisyToolchain/0.2.0/arm/arm-none-eabi/include/sys/_stdint.h"
 10312              		.file 21 "/Library/DaisyToolchain/0.2.0/arm/arm-none-eabi/include/stdint.h"
 10313              		.file 22 "../../libDaisy//Drivers/CMSIS/Device/ST/STM32H7xx/Include/stm32h750xx.h"
 10314              		.file 23 "/Library/DaisyToolchain/0.2.0/arm/lib/gcc/arm-none-eabi/10.3.1/include/stddef.h"
 10315              		.file 24 "/Library/DaisyToolchain/0.2.0/arm/arm-none-eabi/include/c++/10.3.1/cmath"
 10316              		.file 25 "/Library/DaisyToolchain/0.2.0/arm/arm-none-eabi/include/c++/10.3.1/cstdlib"
 10317              		.file 26 "/Library/DaisyToolchain/0.2.0/arm/arm-none-eabi/include/c++/10.3.1/cstdint"
 10318              		.file 27 "/Library/DaisyToolchain/0.2.0/arm/arm-none-eabi/include/c++/10.3.1/arm-none-eabi/thumb/v
 10319              		.file 28 "/Library/DaisyToolchain/0.2.0/arm/arm-none-eabi/include/c++/10.3.1/type_traits"
 10320              		.file 29 "/Library/DaisyToolchain/0.2.0/arm/arm-none-eabi/include/c++/10.3.1/debug/debug.h"
 10321              		.file 30 "/Library/DaisyToolchain/0.2.0/arm/arm-none-eabi/include/c++/10.3.1/bits/algorithmfwd.h"
 10322              		.file 31 "/Library/DaisyToolchain/0.2.0/arm/arm-none-eabi/include/c++/10.3.1/bits/exception_ptr.h"
 10323              		.file 32 "/Library/DaisyToolchain/0.2.0/arm/arm-none-eabi/include/c++/10.3.1/bits/stl_pair.h"
 10324              		.file 33 "/Library/DaisyToolchain/0.2.0/arm/arm-none-eabi/include/c++/10.3.1/initializer_list"
 10325              		.file 34 "/Library/DaisyToolchain/0.2.0/arm/arm-none-eabi/include/c++/10.3.1/cstdarg"
 10326              		.file 35 "/Library/DaisyToolchain/0.2.0/arm/arm-none-eabi/include/c++/10.3.1/cstdio"
 10327              		.file 36 "/Library/DaisyToolchain/0.2.0/arm/arm-none-eabi/include/c++/10.3.1/cstring"
 10328              		.file 37 "/Library/DaisyToolchain/0.2.0/arm/arm-none-eabi/include/c++/10.3.1/cwchar"
 10329              		.file 38 "/Library/DaisyToolchain/0.2.0/arm/arm-none-eabi/include/c++/10.3.1/clocale"
 10330              		.file 39 "/Library/DaisyToolchain/0.2.0/arm/arm-none-eabi/include/c++/10.3.1/bits/basic_string.h"
 10331              		.file 40 "/Library/DaisyToolchain/0.2.0/arm/arm-none-eabi/include/c++/10.3.1/bits/ios_base.h"
ARM GAS  /var/folders/1y/_321xjh9623c014x9_qw12rr0000gn/T//ccE17DNe.s 			page 289


 10332              		.file 41 "/Library/DaisyToolchain/0.2.0/arm/arm-none-eabi/include/c++/10.3.1/cwctype"
 10333              		.file 42 "/Library/DaisyToolchain/0.2.0/arm/arm-none-eabi/include/c++/10.3.1/bits/predefined_ops.h
 10334              		.file 43 "/Library/DaisyToolchain/0.2.0/arm/arm-none-eabi/include/sys/_types.h"
 10335              		.file 44 "/Library/DaisyToolchain/0.2.0/arm/arm-none-eabi/include/sys/reent.h"
 10336              		.file 45 "/Library/DaisyToolchain/0.2.0/arm/arm-none-eabi/include/sys/lock.h"
 10337              		.file 46 "/Library/DaisyToolchain/0.2.0/arm/arm-none-eabi/include/math.h"
 10338              		.file 47 "/Library/DaisyToolchain/0.2.0/arm/arm-none-eabi/include/stdlib.h"
 10339              		.file 48 "/Library/DaisyToolchain/0.2.0/arm/arm-none-eabi/include/c++/10.3.1/math.h"
 10340              		.file 49 "/Library/DaisyToolchain/0.2.0/arm/arm-none-eabi/include/c++/10.3.1/stdlib.h"
 10341              		.file 50 "../../libDaisy//src/daisy_core.h"
 10342              		.file 51 "../../libDaisy//src/per/tim.h"
 10343              		.file 52 "../../libDaisy//src/sys/system.h"
 10344              		.file 53 "../../libDaisy//src/per/qspi.h"
 10345              		.file 54 "../../libDaisy//src/per/dac.h"
 10346              		.file 55 "../../libDaisy//src/per/gpio.h"
 10347              		.file 56 "../../libDaisy//src/per/adc.h"
 10348              		.file 57 "../../libDaisy//src/hid/MidiEvent.h"
 10349              		.file 58 "../../libDaisy//src/hid/usb.h"
 10350              		.file 59 "../../libDaisy//src/util/FIFO.h"
 10351              		.file 60 "../../libDaisy//src/hid/gatein.h"
 10352              		.file 61 "../../libDaisy//src/hid/disp/graphics_common.h"
 10353              		.file 62 "../../libDaisy//src/util/wav_format.h"
 10354              		.file 63 "../../libDaisy//src/dev/max11300.h"
 10355              		.file 64 "../../libDaisy//src/daisy_seed.h"
 10356              		.file 65 "Dubby.h"
 10357              		.file 66 "../../libDaisy//src/dev/sdram.h"
 10358              		.file 67 "/Library/DaisyToolchain/0.2.0/arm/lib/gcc/arm-none-eabi/10.3.1/include/stdarg.h"
 10359              		.file 68 "/Library/DaisyToolchain/0.2.0/arm/arm-none-eabi/include/stdio.h"
 10360              		.file 69 "../../libDaisy//src/util/oled_fonts.h"
 10361              		.file 70 "../../libDaisy//src/dev/sr_595.h"
 10362              		.file 71 "/Library/DaisyToolchain/0.2.0/arm/arm-none-eabi/include/string.h"
 10363              		.file 72 "/Library/DaisyToolchain/0.2.0/arm/arm-none-eabi/include/wchar.h"
 10364              		.file 73 "/Library/DaisyToolchain/0.2.0/arm/arm-none-eabi/include/locale.h"
 10365              		.file 74 "/Library/DaisyToolchain/0.2.0/arm/arm-none-eabi/include/c++/10.3.1/arm-none-eabi/thumb/v
 10366              		.file 75 "/Library/DaisyToolchain/0.2.0/arm/arm-none-eabi/include/wctype.h"
 10367              		.file 76 "./bitmaps/bmps.h"
 10368              		.file 77 "<built-in>"
ARM GAS  /var/folders/1y/_321xjh9623c014x9_qw12rr0000gn/T//ccE17DNe.s 			page 290


DEFINED SYMBOLS
                            *ABS*:0000000000000000 Dubby.cpp
/var/folders/1y/_321xjh9623c014x9_qw12rr0000gn/T//ccE17DNe.s:19     .text._ZNK5daisy11OledDisplayINS_13SSD130xDriverILj128ELj64ENS_24SSD130x4WireSpiTransportEEEE6HeightEv:0000000000000000 $t
/var/folders/1y/_321xjh9623c014x9_qw12rr0000gn/T//ccE17DNe.s:26     .text._ZNK5daisy11OledDisplayINS_13SSD130xDriverILj128ELj64ENS_24SSD130x4WireSpiTransportEEEE6HeightEv:0000000000000000 _ZNK5daisy11OledDisplayINS_13SSD130xDriverILj128ELj64ENS_24SSD130x4WireSpiTransportEEEE6HeightEv
/var/folders/1y/_321xjh9623c014x9_qw12rr0000gn/T//ccE17DNe.s:44     .text._ZNK5daisy11OledDisplayINS_13SSD130xDriverILj128ELj64ENS_24SSD130x4WireSpiTransportEEEE5WidthEv:0000000000000000 $t
/var/folders/1y/_321xjh9623c014x9_qw12rr0000gn/T//ccE17DNe.s:51     .text._ZNK5daisy11OledDisplayINS_13SSD130xDriverILj128ELj64ENS_24SSD130x4WireSpiTransportEEEE5WidthEv:0000000000000000 _ZNK5daisy11OledDisplayINS_13SSD130xDriverILj128ELj64ENS_24SSD130x4WireSpiTransportEEEE5WidthEv
/var/folders/1y/_321xjh9623c014x9_qw12rr0000gn/T//ccE17DNe.s:68     .text._ZN5daisy5Dubby11RenderScopeEv.part.0:0000000000000000 $t
/var/folders/1y/_321xjh9623c014x9_qw12rr0000gn/T//ccE17DNe.s:74     .text._ZN5daisy5Dubby11RenderScopeEv.part.0:0000000000000000 _ZN5daisy5Dubby11RenderScopeEv.part.0
/var/folders/1y/_321xjh9623c014x9_qw12rr0000gn/T//ccE17DNe.s:665    .text._ZN5daisy5Dubby11RenderScopeEv.part.0:00000000000001e8 $d
/var/folders/1y/_321xjh9623c014x9_qw12rr0000gn/T//ccE17DNe.s:675    .text._ZN5daisy5Dubby12InitControlsEv:0000000000000000 $t
/var/folders/1y/_321xjh9623c014x9_qw12rr0000gn/T//ccE17DNe.s:682    .text._ZN5daisy5Dubby12InitControlsEv:0000000000000000 _ZN5daisy5Dubby12InitControlsEv
/var/folders/1y/_321xjh9623c014x9_qw12rr0000gn/T//ccE17DNe.s:842    .text._ZN5daisy5Dubby12InitControlsEv:00000000000000d4 $d
/var/folders/1y/_321xjh9623c014x9_qw12rr0000gn/T//ccE17DNe.s:847    .text._ZN5daisy5Dubby11InitButtonsEv:0000000000000000 $t
/var/folders/1y/_321xjh9623c014x9_qw12rr0000gn/T//ccE17DNe.s:854    .text._ZN5daisy5Dubby11InitButtonsEv:0000000000000000 _ZN5daisy5Dubby11InitButtonsEv
/var/folders/1y/_321xjh9623c014x9_qw12rr0000gn/T//ccE17DNe.s:943    .text._ZN5daisy5Dubby11InitButtonsEv:0000000000000080 $d
/var/folders/1y/_321xjh9623c014x9_qw12rr0000gn/T//ccE17DNe.s:948    .text._ZN5daisy5Dubby8InitMidiEv:0000000000000000 $t
/var/folders/1y/_321xjh9623c014x9_qw12rr0000gn/T//ccE17DNe.s:955    .text._ZN5daisy5Dubby8InitMidiEv:0000000000000000 _ZN5daisy5Dubby8InitMidiEv
/var/folders/1y/_321xjh9623c014x9_qw12rr0000gn/T//ccE17DNe.s:1213   .text._ZN5daisy5Dubby10DrawBitmapEi:0000000000000000 $t
/var/folders/1y/_321xjh9623c014x9_qw12rr0000gn/T//ccE17DNe.s:1220   .text._ZN5daisy5Dubby10DrawBitmapEi:0000000000000000 _ZN5daisy5Dubby10DrawBitmapEi
/var/folders/1y/_321xjh9623c014x9_qw12rr0000gn/T//ccE17DNe.s:1651   .text._ZN5daisy5Dubby10DrawBitmapEi:0000000000000124 $d
/var/folders/1y/_321xjh9623c014x9_qw12rr0000gn/T//ccE17DNe.s:1664   .text._ZN5daisy5Dubby8DrawLogoEv:0000000000000000 $t
/var/folders/1y/_321xjh9623c014x9_qw12rr0000gn/T//ccE17DNe.s:1671   .text._ZN5daisy5Dubby8DrawLogoEv:0000000000000000 _ZN5daisy5Dubby8DrawLogoEv
/var/folders/1y/_321xjh9623c014x9_qw12rr0000gn/T//ccE17DNe.s:1689   .text._ZN5daisy5Dubby9UpdateBarEi:0000000000000000 $t
/var/folders/1y/_321xjh9623c014x9_qw12rr0000gn/T//ccE17DNe.s:1696   .text._ZN5daisy5Dubby9UpdateBarEi:0000000000000000 _ZN5daisy5Dubby9UpdateBarEi
/var/folders/1y/_321xjh9623c014x9_qw12rr0000gn/T//ccE17DNe.s:2747   .text._ZN5daisy5Dubby9UpdateBarEi:000000000000038c $d
/var/folders/1y/_321xjh9623c014x9_qw12rr0000gn/T//ccE17DNe.s:2760   .text._ZN5daisy5Dubby9UpdateBarEi:0000000000000390 $t
/var/folders/1y/_321xjh9623c014x9_qw12rr0000gn/T//ccE17DNe.s:2892   .text._ZN5daisy5Dubby15UpdateMixerPaneEv:0000000000000000 $t
/var/folders/1y/_321xjh9623c014x9_qw12rr0000gn/T//ccE17DNe.s:2899   .text._ZN5daisy5Dubby15UpdateMixerPaneEv:0000000000000000 _ZN5daisy5Dubby15UpdateMixerPaneEv
/var/folders/1y/_321xjh9623c014x9_qw12rr0000gn/T//ccE17DNe.s:2979   .text._ZN5daisy5Dubby11RenderScopeEv:0000000000000000 $t
/var/folders/1y/_321xjh9623c014x9_qw12rr0000gn/T//ccE17DNe.s:2986   .text._ZN5daisy5Dubby11RenderScopeEv:0000000000000000 _ZN5daisy5Dubby11RenderScopeEv
/var/folders/1y/_321xjh9623c014x9_qw12rr0000gn/T//ccE17DNe.s:3036   .text._ZN5daisy5Dubby17SwitchMIDIOutThruEb:0000000000000000 $t
/var/folders/1y/_321xjh9623c014x9_qw12rr0000gn/T//ccE17DNe.s:3043   .text._ZN5daisy5Dubby17SwitchMIDIOutThruEb:0000000000000000 _ZN5daisy5Dubby17SwitchMIDIOutThruEb
/var/folders/1y/_321xjh9623c014x9_qw12rr0000gn/T//ccE17DNe.s:3066   .text._ZN5daisy5Dubby11InitEncoderEv:0000000000000000 $t
/var/folders/1y/_321xjh9623c014x9_qw12rr0000gn/T//ccE17DNe.s:3073   .text._ZN5daisy5Dubby11InitEncoderEv:0000000000000000 _ZN5daisy5Dubby11InitEncoderEv
/var/folders/1y/_321xjh9623c014x9_qw12rr0000gn/T//ccE17DNe.s:3126   .text._ZN5daisy5Dubby11InitEncoderEv:0000000000000040 $d
/var/folders/1y/_321xjh9623c014x9_qw12rr0000gn/T//ccE17DNe.s:3131   .text._ZN5daisy5Dubby18ProcessAllControlsEv:0000000000000000 $t
/var/folders/1y/_321xjh9623c014x9_qw12rr0000gn/T//ccE17DNe.s:3138   .text._ZN5daisy5Dubby18ProcessAllControlsEv:0000000000000000 _ZN5daisy5Dubby18ProcessAllControlsEv
/var/folders/1y/_321xjh9623c014x9_qw12rr0000gn/T//ccE17DNe.s:3246   .text._ZN5daisy5Dubby21ProcessAnalogControlsEv:0000000000000000 $t
/var/folders/1y/_321xjh9623c014x9_qw12rr0000gn/T//ccE17DNe.s:3253   .text._ZN5daisy5Dubby21ProcessAnalogControlsEv:0000000000000000 _ZN5daisy5Dubby21ProcessAnalogControlsEv
/var/folders/1y/_321xjh9623c014x9_qw12rr0000gn/T//ccE17DNe.s:3296   .text._ZN5daisy5Dubby22ProcessDigitalControlsEv:0000000000000000 $t
/var/folders/1y/_321xjh9623c014x9_qw12rr0000gn/T//ccE17DNe.s:3303   .text._ZN5daisy5Dubby22ProcessDigitalControlsEv:0000000000000000 _ZN5daisy5Dubby22ProcessDigitalControlsEv
/var/folders/1y/_321xjh9623c014x9_qw12rr0000gn/T//ccE17DNe.s:3368   .text._ZN5daisy5Dubby12GetKnobValueENS0_4CtrlE:0000000000000000 $t
/var/folders/1y/_321xjh9623c014x9_qw12rr0000gn/T//ccE17DNe.s:3375   .text._ZN5daisy5Dubby12GetKnobValueENS0_4CtrlE:0000000000000000 _ZN5daisy5Dubby12GetKnobValueENS0_4CtrlE
/var/folders/1y/_321xjh9623c014x9_qw12rr0000gn/T//ccE17DNe.s:3402   .text._ZN5daisy5Dubby9InitAudioEv:0000000000000000 $t
/var/folders/1y/_321xjh9623c014x9_qw12rr0000gn/T//ccE17DNe.s:3409   .text._ZN5daisy5Dubby9InitAudioEv:0000000000000000 _ZN5daisy5Dubby9InitAudioEv
/var/folders/1y/_321xjh9623c014x9_qw12rr0000gn/T//ccE17DNe.s:3749   .text._ZN5daisy5Dubby9InitAudioEv:0000000000000108 $d
/var/folders/1y/_321xjh9623c014x9_qw12rr0000gn/T//ccE17DNe.s:3755   .rodata._ZN5daisy5Dubby14GetTextForEnumENS0_9MenuTypesEi.str1.4:0000000000000000 $d
/var/folders/1y/_321xjh9623c014x9_qw12rr0000gn/T//ccE17DNe.s:3759   .text._ZN5daisy5Dubby14GetTextForEnumENS0_9MenuTypesEi:0000000000000000 $t
/var/folders/1y/_321xjh9623c014x9_qw12rr0000gn/T//ccE17DNe.s:3766   .text._ZN5daisy5Dubby14GetTextForEnumENS0_9MenuTypesEi:0000000000000000 _ZN5daisy5Dubby14GetTextForEnumENS0_9MenuTypesEi
/var/folders/1y/_321xjh9623c014x9_qw12rr0000gn/T//ccE17DNe.s:3807   .text._ZN5daisy5Dubby14GetTextForEnumENS0_9MenuTypesEi:0000000000000018 $d
/var/folders/1y/_321xjh9623c014x9_qw12rr0000gn/T//ccE17DNe.s:3812   .text._ZN5daisy25OneBitGraphicsDisplayImplINS_11OledDisplayINS_13SSD130xDriverILj128ELj64ENS_24SSD130x4WireSpiTransportEEEEEE11WriteStringEPKc7FontDefb:0000000000000000 $t
/var/folders/1y/_321xjh9623c014x9_qw12rr0000gn/T//ccE17DNe.s:3819   .text._ZN5daisy25OneBitGraphicsDisplayImplINS_11OledDisplayINS_13SSD130xDriverILj128ELj64ENS_24SSD130x4WireSpiTransportEEEEEE11WriteStringEPKc7FontDefb:0000000000000000 _ZN5daisy25OneBitGraphicsDisplayImplINS_11OledDisplayINS_13SSD130xDriverILj128ELj64ENS_24SSD130x4WireSpiTransportEEEEEE11WriteStringEPKc7FontDefb
/var/folders/1y/_321xjh9623c014x9_qw12rr0000gn/T//ccE17DNe.s:4276   .text._ZN5daisy25OneBitGraphicsDisplayImplINS_11OledDisplayINS_13SSD130xDriverILj128ELj64ENS_24SSD130x4WireSpiTransportEEEEEE11WriteStringEPKc7FontDefb:00000000000001b8 $d
/var/folders/1y/_321xjh9623c014x9_qw12rr0000gn/T//ccE17DNe.s:4286   .text._ZN5daisy5Dubby18HightlightMenuItemEv:0000000000000000 $t
/var/folders/1y/_321xjh9623c014x9_qw12rr0000gn/T//ccE17DNe.s:4293   .text._ZN5daisy5Dubby18HightlightMenuItemEv:0000000000000000 _ZN5daisy5Dubby18HightlightMenuItemEv
/var/folders/1y/_321xjh9623c014x9_qw12rr0000gn/T//ccE17DNe.s:5707   .text._ZN5daisy5Dubby18HightlightMenuItemEv:00000000000004e4 $d
/var/folders/1y/_321xjh9623c014x9_qw12rr0000gn/T//ccE17DNe.s:5716   .text._ZN5daisy5Dubby11ReleaseMenuEv:0000000000000000 $t
ARM GAS  /var/folders/1y/_321xjh9623c014x9_qw12rr0000gn/T//ccE17DNe.s 			page 291


/var/folders/1y/_321xjh9623c014x9_qw12rr0000gn/T//ccE17DNe.s:5723   .text._ZN5daisy5Dubby11ReleaseMenuEv:0000000000000000 _ZN5daisy5Dubby11ReleaseMenuEv
/var/folders/1y/_321xjh9623c014x9_qw12rr0000gn/T//ccE17DNe.s:6029   .text._ZN5daisy5Dubby11ReleaseMenuEv:00000000000000d0 $d
/var/folders/1y/_321xjh9623c014x9_qw12rr0000gn/T//ccE17DNe.s:6034   .text._ZN5daisy5Dubby22DisplayPreferencesMenuEv:0000000000000000 $t
/var/folders/1y/_321xjh9623c014x9_qw12rr0000gn/T//ccE17DNe.s:6041   .text._ZN5daisy5Dubby22DisplayPreferencesMenuEv:0000000000000000 _ZN5daisy5Dubby22DisplayPreferencesMenuEv
/var/folders/1y/_321xjh9623c014x9_qw12rr0000gn/T//ccE17DNe.s:6424   .text._ZN5daisy5Dubby22DisplayPreferencesMenuEv:0000000000000124 $d
/var/folders/1y/_321xjh9623c014x9_qw12rr0000gn/T//ccE17DNe.s:6431   .text._ZN5daisy5Dubby22DisplayPreferencesMenuEv:0000000000000128 $t
/var/folders/1y/_321xjh9623c014x9_qw12rr0000gn/T//ccE17DNe.s:7217   .text._ZN5daisy5Dubby13UpdateSubmenuEv:0000000000000000 $t
/var/folders/1y/_321xjh9623c014x9_qw12rr0000gn/T//ccE17DNe.s:7224   .text._ZN5daisy5Dubby13UpdateSubmenuEv:0000000000000000 _ZN5daisy5Dubby13UpdateSubmenuEv
/var/folders/1y/_321xjh9623c014x9_qw12rr0000gn/T//ccE17DNe.s:7445   .text._ZN5daisy5Dubby10UpdateMenuEib:0000000000000000 $t
/var/folders/1y/_321xjh9623c014x9_qw12rr0000gn/T//ccE17DNe.s:7452   .text._ZN5daisy5Dubby10UpdateMenuEib:0000000000000000 _ZN5daisy5Dubby10UpdateMenuEib
/var/folders/1y/_321xjh9623c014x9_qw12rr0000gn/T//ccE17DNe.s:7723   .text._ZN5daisy5Dubby21UpdatePreferencesMenuEi:0000000000000000 $t
/var/folders/1y/_321xjh9623c014x9_qw12rr0000gn/T//ccE17DNe.s:7730   .text._ZN5daisy5Dubby21UpdatePreferencesMenuEi:0000000000000000 _ZN5daisy5Dubby21UpdatePreferencesMenuEi
/var/folders/1y/_321xjh9623c014x9_qw12rr0000gn/T//ccE17DNe.s:7777   .rodata._ZN5daisy5Dubby17ResetToBootloaderEv.str1.4:0000000000000000 $d
/var/folders/1y/_321xjh9623c014x9_qw12rr0000gn/T//ccE17DNe.s:7781   .text._ZN5daisy5Dubby17ResetToBootloaderEv:0000000000000000 $t
/var/folders/1y/_321xjh9623c014x9_qw12rr0000gn/T//ccE17DNe.s:7788   .text._ZN5daisy5Dubby17ResetToBootloaderEv:0000000000000000 _ZN5daisy5Dubby17ResetToBootloaderEv
/var/folders/1y/_321xjh9623c014x9_qw12rr0000gn/T//ccE17DNe.s:8046   .text._ZN5daisy5Dubby17ResetToBootloaderEv:00000000000000b4 $d
/var/folders/1y/_321xjh9623c014x9_qw12rr0000gn/T//ccE17DNe.s:8053   .text._ZN5daisy5Dubby13UpdateDisplayEv:0000000000000000 $t
/var/folders/1y/_321xjh9623c014x9_qw12rr0000gn/T//ccE17DNe.s:8060   .text._ZN5daisy5Dubby13UpdateDisplayEv:0000000000000000 _ZN5daisy5Dubby13UpdateDisplayEv
/var/folders/1y/_321xjh9623c014x9_qw12rr0000gn/T//ccE17DNe.s:8929   .text._ZN5daisy5Dubby13UpdateDisplayEv:0000000000000278 $d
/var/folders/1y/_321xjh9623c014x9_qw12rr0000gn/T//ccE17DNe.s:8937   .text._ZN5daisy13SSD130xDriverILj128ELj64ENS_24SSD130x4WireSpiTransportEE4InitENS2_6ConfigE:0000000000000000 $t
/var/folders/1y/_321xjh9623c014x9_qw12rr0000gn/T//ccE17DNe.s:8944   .text._ZN5daisy13SSD130xDriverILj128ELj64ENS_24SSD130x4WireSpiTransportEE4InitENS2_6ConfigE:0000000000000000 _ZN5daisy13SSD130xDriverILj128ELj64ENS_24SSD130x4WireSpiTransportEE4InitENS2_6ConfigE
/var/folders/1y/_321xjh9623c014x9_qw12rr0000gn/T//ccE17DNe.s:9716   .text._ZN5daisy5Dubby11InitDisplayEv:0000000000000000 $t
/var/folders/1y/_321xjh9623c014x9_qw12rr0000gn/T//ccE17DNe.s:9723   .text._ZN5daisy5Dubby11InitDisplayEv:0000000000000000 _ZN5daisy5Dubby11InitDisplayEv
/var/folders/1y/_321xjh9623c014x9_qw12rr0000gn/T//ccE17DNe.s:9902   .text._ZN5daisy5Dubby11InitDisplayEv:0000000000000088 $d
/var/folders/1y/_321xjh9623c014x9_qw12rr0000gn/T//ccE17DNe.s:9907   .text._ZN5daisy5Dubby4InitEv:0000000000000000 $t
/var/folders/1y/_321xjh9623c014x9_qw12rr0000gn/T//ccE17DNe.s:9914   .text._ZN5daisy5Dubby4InitEv:0000000000000000 _ZN5daisy5Dubby4InitEv
/var/folders/1y/_321xjh9623c014x9_qw12rr0000gn/T//ccE17DNe.s:10040  .text._ZN5daisy5Dubby4InitEv:000000000000008c $d
/var/folders/1y/_321xjh9623c014x9_qw12rr0000gn/T//ccE17DNe.s:10045  .text.startup._GLOBAL__sub_I__ZN5daisy5Dubby4InitEv:0000000000000000 $t
/var/folders/1y/_321xjh9623c014x9_qw12rr0000gn/T//ccE17DNe.s:10051  .text.startup._GLOBAL__sub_I__ZN5daisy5Dubby4InitEv:0000000000000000 _GLOBAL__sub_I__ZN5daisy5Dubby4InitEv
/var/folders/1y/_321xjh9623c014x9_qw12rr0000gn/T//ccE17DNe.s:10093  .text.startup._GLOBAL__sub_I__ZN5daisy5Dubby4InitEv:0000000000000018 $d
/var/folders/1y/_321xjh9623c014x9_qw12rr0000gn/T//ccE17DNe.s:10102  .init_array:0000000000000000 $d
/var/folders/1y/_321xjh9623c014x9_qw12rr0000gn/T//ccE17DNe.s:10105  .rodata:0000000000000000 $d
/var/folders/1y/_321xjh9623c014x9_qw12rr0000gn/T//ccE17DNe.s:10143  .bss._ZStL8__ioinit:0000000000000000 $d
/var/folders/1y/_321xjh9623c014x9_qw12rr0000gn/T//ccE17DNe.s:10147  .bss._ZStL8__ioinit:0000000000000000 _ZStL8__ioinit
/var/folders/1y/_321xjh9623c014x9_qw12rr0000gn/T//ccE17DNe.s:10150  .rodata._ZL7bitmaps:0000000000000000 $d
/var/folders/1y/_321xjh9623c014x9_qw12rr0000gn/T//ccE17DNe.s:10154  .rodata._ZL7bitmaps:0000000000000000 _ZL7bitmaps

UNDEFINED SYMBOLS
_ZN5daisy6System6GetNowEv
dsy_gpio_write
_ZN5daisy9SpiHandle16BlockingTransmitEPhjm
_ZN5daisy9DaisySeed6GetPinEh
_ZN5daisy16AdcChannelConfig10InitSingleE12dsy_gpio_pinNS0_15ConversionSpeedE
_ZN5daisy9AdcHandle4InitEPNS_16AdcChannelConfigEjNS0_12OverSamplingE
_ZNK5daisy9AdcHandle6GetPtrEh
_ZNK5daisy9DaisySeed17AudioCallbackRateEv
_ZN5daisy13AnalogControl4InitEPtfbbf
_ZN5daisy9AdcHandle5StartEv
_ZN5daisy6Switch4InitE12dsy_gpio_pinf
_ZN5daisy17MidiUartTransport6ConfigC1Ev
memset
_ZN5daisy11UartHandler4InitERKNS0_6ConfigE
_ZN5daisy10MidiParser5ResetEv
dsy_gpio_init
_ZN5daisy7Encoder4InitE12dsy_gpio_pinS1_S1_f
_ZN5daisy13AnalogControl7ProcessEv
_ZN5daisy7Encoder8DebounceEv
ARM GAS  /var/folders/1y/_321xjh9623c014x9_qw12rr0000gn/T//ccE17DNe.s 			page 292


_ZN5daisy6Switch8DebounceEv
_ZN5daisy9DaisySeed17CheckBoardVersionEv
_ZN5daisy9I2CHandle4InitERKNS0_6ConfigE
_ZN5daisy7Pcm30604InitENS_9I2CHandleE
_ZN5daisy9SaiHandle4InitERKNS0_6ConfigE
_ZN5daisy11AudioHandle4InitERKNS0_6ConfigENS_9SaiHandleES4_
Font_6x8
_ZN5daisy6System17ResetToBootloaderENS0_14BootloaderModeE
_ZN5daisy9SpiHandle4InitERKNS0_6ConfigE
_ZN5daisy6System5DelayEm
_ZNSt8ios_base4InitC1Ev
__aeabi_atexit
__dso_handle
_ZNSt8ios_base4InitD1Ev
