ARM GAS  /var/folders/1y/_321xjh9623c014x9_qw12rr0000gn/T//cc4eHiNS.s 			page 1


   1              		.cpu cortex-m7
   2              		.arch armv7e-m
   3              		.fpu fpv5-d16
   4              		.eabi_attribute 28, 1
   5              		.eabi_attribute 20, 1
   6              		.eabi_attribute 21, 1
   7              		.eabi_attribute 23, 3
   8              		.eabi_attribute 24, 1
   9              		.eabi_attribute 25, 1
  10              		.eabi_attribute 26, 1
  11              		.eabi_attribute 30, 2
  12              		.eabi_attribute 34, 1
  13              		.eabi_attribute 18, 4
  14              		.file	"Dubby.cpp"
  15              		.text
  16              	.Ltext0:
  17              		.cfi_sections	.debug_frame
  18              		.section	.text._ZNK5daisy11OledDisplayINS_13SSD130xDriverILj128ELj64ENS_24SSD130x4WireSpiTransport
  19              		.align	1
  20              		.p2align 2,,3
  21              		.weak	_ZNK5daisy11OledDisplayINS_13SSD130xDriverILj128ELj64ENS_24SSD130x4WireSpiTransportEEEE6Heig
  22              		.syntax unified
  23              		.thumb
  24              		.thumb_func
  26              	_ZNK5daisy11OledDisplayINS_13SSD130xDriverILj128ELj64ENS_24SSD130x4WireSpiTransportEEEE6HeightEv:
  27              	.LVL0:
  28              	.LFB2661:
  29              		.file 1 "../../libDaisy//src/hid/disp/oled_display.h"
   1:../../libDaisy//src/hid/disp/oled_display.h **** #pragma once
   2:../../libDaisy//src/hid/disp/oled_display.h **** #ifndef DSY_OLED_DISPLAY_H
   3:../../libDaisy//src/hid/disp/oled_display.h **** #define DSY_OLED_DISPLAY_H /**< Macro */
   4:../../libDaisy//src/hid/disp/oled_display.h **** 
   5:../../libDaisy//src/hid/disp/oled_display.h **** #include "display.h"
   6:../../libDaisy//src/hid/disp/oled_display.h **** 
   7:../../libDaisy//src/hid/disp/oled_display.h **** namespace daisy
   8:../../libDaisy//src/hid/disp/oled_display.h **** {
   9:../../libDaisy//src/hid/disp/oled_display.h **** /** 
  10:../../libDaisy//src/hid/disp/oled_display.h ****  * This class is for drawing to a monochrome OLED display. 
  11:../../libDaisy//src/hid/disp/oled_display.h ****  * @ingroup device
  12:../../libDaisy//src/hid/disp/oled_display.h **** */
  13:../../libDaisy//src/hid/disp/oled_display.h **** template <typename DisplayDriver>
  14:../../libDaisy//src/hid/disp/oled_display.h **** class OledDisplay : public OneBitGraphicsDisplayImpl<OledDisplay<DisplayDriver>>
  15:../../libDaisy//src/hid/disp/oled_display.h **** {
  16:../../libDaisy//src/hid/disp/oled_display.h ****   public:
  17:../../libDaisy//src/hid/disp/oled_display.h ****     OledDisplay() {}
  18:../../libDaisy//src/hid/disp/oled_display.h ****     virtual ~OledDisplay() {}
  19:../../libDaisy//src/hid/disp/oled_display.h **** 
  20:../../libDaisy//src/hid/disp/oled_display.h ****     struct Config
  21:../../libDaisy//src/hid/disp/oled_display.h ****     {
  22:../../libDaisy//src/hid/disp/oled_display.h ****         typename DisplayDriver::Config driver_config;
  23:../../libDaisy//src/hid/disp/oled_display.h ****     };
  24:../../libDaisy//src/hid/disp/oled_display.h **** 
  25:../../libDaisy//src/hid/disp/oled_display.h ****     void Init(Config config) { driver_.Init(config.driver_config); }
  26:../../libDaisy//src/hid/disp/oled_display.h **** 
  27:../../libDaisy//src/hid/disp/oled_display.h ****     uint16_t Height() const override { return driver_.Height(); }
  30              		.loc 1 27 14 view -0
  31              		.cfi_startproc
ARM GAS  /var/folders/1y/_321xjh9623c014x9_qw12rr0000gn/T//cc4eHiNS.s 			page 2


  32              		@ args = 0, pretend = 0, frame = 0
  33              		@ frame_needed = 0, uses_anonymous_args = 0
  34              		@ link register save eliminated.
  35              		.loc 1 27 65 is_stmt 0 view .LVU1
  36 0000 4020     		movs	r0, #64
  37              	.LVL1:
  38              		.loc 1 27 65 view .LVU2
  39 0002 7047     		bx	lr
  40              		.cfi_endproc
  41              	.LFE2661:
  43              		.section	.text._ZNK5daisy11OledDisplayINS_13SSD130xDriverILj128ELj64ENS_24SSD130x4WireSpiTransport
  44              		.align	1
  45              		.p2align 2,,3
  46              		.weak	_ZNK5daisy11OledDisplayINS_13SSD130xDriverILj128ELj64ENS_24SSD130x4WireSpiTransportEEEE5Widt
  47              		.syntax unified
  48              		.thumb
  49              		.thumb_func
  51              	_ZNK5daisy11OledDisplayINS_13SSD130xDriverILj128ELj64ENS_24SSD130x4WireSpiTransportEEEE5WidthEv:
  52              	.LVL2:
  53              	.LFB2662:
  28:../../libDaisy//src/hid/disp/oled_display.h ****     uint16_t Width() const override { return driver_.Width(); }
  54              		.loc 1 28 14 is_stmt 1 view -0
  55              		.cfi_startproc
  56              		@ args = 0, pretend = 0, frame = 0
  57              		@ frame_needed = 0, uses_anonymous_args = 0
  58              		@ link register save eliminated.
  59              		.loc 1 28 63 is_stmt 0 view .LVU4
  60 0000 8020     		movs	r0, #128
  61              	.LVL3:
  62              		.loc 1 28 63 view .LVU5
  63 0002 7047     		bx	lr
  64              		.cfi_endproc
  65              	.LFE2662:
  67              		.section	.text._ZN5daisy5Dubby11RenderScopeEv.part.0,"ax",%progbits
  68              		.align	1
  69              		.p2align 2,,3
  70              		.syntax unified
  71              		.thumb
  72              		.thumb_func
  74              	_ZN5daisy5Dubby11RenderScopeEv.part.0:
  75              	.LVL4:
  76              	.LFB2673:
  77              		.file 2 "Dubby.cpp"
   1:Dubby.cpp     **** #include "Dubby.h"
   2:Dubby.cpp     **** 
   3:Dubby.cpp     **** using namespace daisy;
   4:Dubby.cpp     **** 
   5:Dubby.cpp     **** // Hardware Definitions
   6:Dubby.cpp     **** #define PIN_GATE_IN_1 32
   7:Dubby.cpp     **** #define PIN_GATE_IN_2 23
   8:Dubby.cpp     **** #define PIN_GATE_IN_3 17
   9:Dubby.cpp     **** #define PIN_GATE_IN_4 19
  10:Dubby.cpp     **** #define PIN_KNOB_1 18
  11:Dubby.cpp     **** #define PIN_KNOB_2 15
  12:Dubby.cpp     **** #define PIN_KNOB_3 21
  13:Dubby.cpp     **** #define PIN_KNOB_4 22
  14:Dubby.cpp     **** #define PIN_JS_CLICK 3
ARM GAS  /var/folders/1y/_321xjh9623c014x9_qw12rr0000gn/T//cc4eHiNS.s 			page 3


  15:Dubby.cpp     **** #define PIN_JS_V 20
  16:Dubby.cpp     **** #define PIN_JS_H 16
  17:Dubby.cpp     **** #define PIN_ENC_CLICK 4
  18:Dubby.cpp     **** #define PIN_ENC_A 6
  19:Dubby.cpp     **** #define PIN_ENC_B 5 
  20:Dubby.cpp     **** #define PIN_OLED_DC 9
  21:Dubby.cpp     **** #define PIN_OLED_RESET 31
  22:Dubby.cpp     **** #define PIN_MIDI_OUT 13
  23:Dubby.cpp     **** #define PIN_MIDI_IN 14
  24:Dubby.cpp     **** 
  25:Dubby.cpp     **** #define OLED_WIDTH 128
  26:Dubby.cpp     **** #define OLED_HEIGHT 64
  27:Dubby.cpp     **** 
  28:Dubby.cpp     **** #define PANE_X_START 1
  29:Dubby.cpp     **** #define PANE_X_END 126
  30:Dubby.cpp     **** #define PANE_Y_START 1
  31:Dubby.cpp     **** #define PANE_Y_END 51
  32:Dubby.cpp     **** 
  33:Dubby.cpp     **** #define SUBMENU_X_START 1
  34:Dubby.cpp     **** #define SUBMENU_X_END 63
  35:Dubby.cpp     **** #define SUBMENU_Y_START 1
  36:Dubby.cpp     **** #define SUBMENU_Y_END 11
  37:Dubby.cpp     **** 
  38:Dubby.cpp     **** void Dubby::Init() 
  39:Dubby.cpp     **** {
  40:Dubby.cpp     ****     InitControls();
  41:Dubby.cpp     ****     InitButtons();
  42:Dubby.cpp     ****     
  43:Dubby.cpp     ****     screen_update_period_ = 17; // roughly 60Hz
  44:Dubby.cpp     ****     screen_update_last_   = seed.system.GetNow();
  45:Dubby.cpp     **** 
  46:Dubby.cpp     ****     for (int i = 0; i < 5; i++) 
  47:Dubby.cpp     ****     {
  48:Dubby.cpp     ****         submenuBoxBounding[i][0] = SUBMENU_X_START;
  49:Dubby.cpp     ****         submenuBoxBounding[i][1] = SUBMENU_Y_START + i * 10;
  50:Dubby.cpp     ****         submenuBoxBounding[i][2] = SUBMENU_X_END;
  51:Dubby.cpp     ****         submenuBoxBounding[i][3] = SUBMENU_Y_END + i * 10;
  52:Dubby.cpp     ****     }
  53:Dubby.cpp     **** 
  54:Dubby.cpp     ****     InitDisplay();
  55:Dubby.cpp     ****     InitEncoder();
  56:Dubby.cpp     ****     InitAudio();
  57:Dubby.cpp     ****     InitMidi();
  58:Dubby.cpp     **** }
  59:Dubby.cpp     **** 
  60:Dubby.cpp     **** void Dubby::InitControls()
  61:Dubby.cpp     **** {
  62:Dubby.cpp     ****     AdcChannelConfig cfg[CTRL_LAST];
  63:Dubby.cpp     **** 
  64:Dubby.cpp     ****     // Init ADC channels with Pins
  65:Dubby.cpp     ****     cfg[CTRL_1].InitSingle(seed.GetPin(PIN_KNOB_1));
  66:Dubby.cpp     ****     cfg[CTRL_2].InitSingle(seed.GetPin(PIN_KNOB_2));
  67:Dubby.cpp     ****     cfg[CTRL_3].InitSingle(seed.GetPin(PIN_KNOB_3));
  68:Dubby.cpp     ****     cfg[CTRL_4].InitSingle(seed.GetPin(PIN_KNOB_4));
  69:Dubby.cpp     ****     cfg[CTRL_5].InitSingle(seed.GetPin(PIN_JS_H));
  70:Dubby.cpp     ****     cfg[CTRL_6].InitSingle(seed.GetPin(PIN_JS_V));
  71:Dubby.cpp     **** 
ARM GAS  /var/folders/1y/_321xjh9623c014x9_qw12rr0000gn/T//cc4eHiNS.s 			page 4


  72:Dubby.cpp     ****     // Initialize ADC
  73:Dubby.cpp     ****     seed.adc.Init(cfg, CTRL_LAST);
  74:Dubby.cpp     **** 
  75:Dubby.cpp     ****     // Initialize analogInputs, with flip set to true
  76:Dubby.cpp     ****     for(size_t i = 0; i < CTRL_LAST; i++)
  77:Dubby.cpp     ****     {
  78:Dubby.cpp     ****         analogInputs[i].Init(seed.adc.GetPtr(i), seed.AudioCallbackRate(), true);
  79:Dubby.cpp     ****     }
  80:Dubby.cpp     **** 
  81:Dubby.cpp     ****     seed.adc.Start();
  82:Dubby.cpp     **** }
  83:Dubby.cpp     **** 
  84:Dubby.cpp     **** void Dubby::InitButtons()
  85:Dubby.cpp     **** {
  86:Dubby.cpp     ****     //Set button to pins, to be updated at a 1kHz  samplerate
  87:Dubby.cpp     ****     buttons[0].Init(seed.GetPin(PIN_GATE_IN_1), 1000);
  88:Dubby.cpp     ****     buttons[1].Init(seed.GetPin(PIN_GATE_IN_2), 1000);
  89:Dubby.cpp     ****     buttons[2].Init(seed.GetPin(PIN_GATE_IN_3), 1000);
  90:Dubby.cpp     ****     buttons[3].Init(seed.GetPin(PIN_GATE_IN_4), 1000);
  91:Dubby.cpp     **** }
  92:Dubby.cpp     **** 
  93:Dubby.cpp     **** void Dubby::InitMidi()
  94:Dubby.cpp     **** {
  95:Dubby.cpp     ****     MidiUartHandler::Config midi_config;
  96:Dubby.cpp     ****     midi.Init(midi_config);
  97:Dubby.cpp     **** }
  98:Dubby.cpp     **** 
  99:Dubby.cpp     **** void Dubby::InitDisplay() 
 100:Dubby.cpp     **** {
 101:Dubby.cpp     ****     /** Configure the Display */
 102:Dubby.cpp     ****     OledDisplay<SSD130x4WireSpi128x64Driver>::Config disp_cfg;
 103:Dubby.cpp     ****     disp_cfg.driver_config.transport_config.pin_config.dc    = seed.GetPin(9);
 104:Dubby.cpp     ****     disp_cfg.driver_config.transport_config.pin_config.reset = seed.GetPin(31);
 105:Dubby.cpp     ****     /** And Initialize */
 106:Dubby.cpp     ****     display.Init(disp_cfg);
 107:Dubby.cpp     **** }
 108:Dubby.cpp     **** 
 109:Dubby.cpp     **** void Dubby::UpdateDisplay() 
 110:Dubby.cpp     **** {
 111:Dubby.cpp     ****     if (encoder.TimeHeldMs() > 300) 
 112:Dubby.cpp     ****     {
 113:Dubby.cpp     ****         if (!menuActive) 
 114:Dubby.cpp     ****         {
 115:Dubby.cpp     ****             HightlightMenuItem();
 116:Dubby.cpp     ****             menuActive = true;
 117:Dubby.cpp     ****         }
 118:Dubby.cpp     **** 
 119:Dubby.cpp     ****         if (encoder.Increment()) UpdateMenu(encoder.Increment(), true);
 120:Dubby.cpp     ****     } 
 121:Dubby.cpp     **** 
 122:Dubby.cpp     ****     switch(menuItemSelected) 
 123:Dubby.cpp     ****     {
 124:Dubby.cpp     ****         case MENU1:
 125:Dubby.cpp     ****             RenderScope();
 126:Dubby.cpp     ****             break;
 127:Dubby.cpp     ****         case MENU2:
 128:Dubby.cpp     ****             UpdateMixerPane();
ARM GAS  /var/folders/1y/_321xjh9623c014x9_qw12rr0000gn/T//cc4eHiNS.s 			page 5


 129:Dubby.cpp     ****             break;
 130:Dubby.cpp     ****         case MENU3:
 131:Dubby.cpp     ****             if (encoder.Pressed() && preferencesMenuItemSelected == OPTION4) ResetToBootloader();
 132:Dubby.cpp     ****             if (encoder.Increment() && !menuActive) UpdatePreferencesMenu(encoder.Increment());
 133:Dubby.cpp     ****             break;
 134:Dubby.cpp     ****         default:
 135:Dubby.cpp     ****             break;
 136:Dubby.cpp     ****     }
 137:Dubby.cpp     ****     
 138:Dubby.cpp     ****     if (encoder.TimeHeldMs() < 300 && menuActive)
 139:Dubby.cpp     ****     {
 140:Dubby.cpp     ****         menuActive = false;
 141:Dubby.cpp     ****         
 142:Dubby.cpp     ****         ReleaseMenu();
 143:Dubby.cpp     ****         UpdateSubmenu();
 144:Dubby.cpp     ****     }
 145:Dubby.cpp     **** }
 146:Dubby.cpp     **** 
 147:Dubby.cpp     **** void Dubby::DrawLogo() 
 148:Dubby.cpp     **** {
 149:Dubby.cpp     ****     DrawBitmap(0);   
 150:Dubby.cpp     **** }
 151:Dubby.cpp     **** 
 152:Dubby.cpp     **** void Dubby::DrawBitmap(int bitmapIndex)
 153:Dubby.cpp     **** {
 154:Dubby.cpp     ****     display.Fill(false);
 155:Dubby.cpp     ****     display.SetCursor(30, 30);
 156:Dubby.cpp     ****     
 157:Dubby.cpp     ****     for (int x = 0; x < OLED_WIDTH; x += 8) {
 158:Dubby.cpp     ****         for (int y = 0; y < OLED_HEIGHT; y++) {
 159:Dubby.cpp     ****             // Calculate the index in the array
 160:Dubby.cpp     ****             int byteIndex = (y * OLED_WIDTH + x) / 8;
 161:Dubby.cpp     **** 
 162:Dubby.cpp     ****             // Get the byte containing 8 pixels
 163:Dubby.cpp     ****             char byte = bitmaps[bitmapIndex][byteIndex];
 164:Dubby.cpp     **** 
 165:Dubby.cpp     ****             // Process 8 pixels in the byte
 166:Dubby.cpp     ****             for (int bitIndex = 0; bitIndex < 8; bitIndex++) {
 167:Dubby.cpp     **** 
 168:Dubby.cpp     ****                 // Get the pixel value (0 or 1)
 169:Dubby.cpp     ****                 char pixel = (byte >> (7 - bitIndex)) & 0x01;
 170:Dubby.cpp     **** 
 171:Dubby.cpp     ****                 bool isWhite = (pixel == 1);
 172:Dubby.cpp     **** 
 173:Dubby.cpp     ****                 display.DrawPixel(x + bitIndex, y, isWhite);
 174:Dubby.cpp     ****             }
 175:Dubby.cpp     **** 
 176:Dubby.cpp     ****             if (y % 6 == 0) display.Update();
 177:Dubby.cpp     ****         }
 178:Dubby.cpp     ****     }
 179:Dubby.cpp     **** }
 180:Dubby.cpp     **** 
 181:Dubby.cpp     **** void Dubby::UpdateMenu(int increment, bool higlight) 
 182:Dubby.cpp     **** {
 183:Dubby.cpp     ****     if ((menuItemSelected >= 0 && increment == 1 && menuItemSelected < 2) || (increment != 1 && men
 184:Dubby.cpp     ****         menuItemSelected = (MenuItems)(menuItemSelected + increment);
 185:Dubby.cpp     **** 
ARM GAS  /var/folders/1y/_321xjh9623c014x9_qw12rr0000gn/T//cc4eHiNS.s 			page 6


 186:Dubby.cpp     ****     display.Fill(false);
 187:Dubby.cpp     **** 
 188:Dubby.cpp     ****     if (higlight) HightlightMenuItem();
 189:Dubby.cpp     ****     else ReleaseMenu();
 190:Dubby.cpp     ****     
 191:Dubby.cpp     ****     UpdateSubmenu();
 192:Dubby.cpp     **** 
 193:Dubby.cpp     ****     display.Update();
 194:Dubby.cpp     **** }
 195:Dubby.cpp     **** 
 196:Dubby.cpp     **** void Dubby::HightlightMenuItem() 
 197:Dubby.cpp     **** {
 198:Dubby.cpp     ****     display.DrawRect(menuBoxBounding[menuItemSelected][0], menuBoxBounding[menuItemSelected][1], me
 199:Dubby.cpp     **** 
 200:Dubby.cpp     ****     for (int i = 0; i < 3; i++) 
 201:Dubby.cpp     ****     {
 202:Dubby.cpp     ****         display.SetCursor(menuTextCursors[i][0], menuTextCursors[i][1]);
 203:Dubby.cpp     ****         display.WriteString(GetTextForEnum(MAINMENU, i), Font_6x8, i == menuItemSelected ? false : 
 204:Dubby.cpp     ****     }
 205:Dubby.cpp     **** 
 206:Dubby.cpp     ****     display.DrawRect(PANE_X_START - 1, PANE_Y_START - 1, PANE_X_END + 1, PANE_Y_END + 1, true);
 207:Dubby.cpp     **** 
 208:Dubby.cpp     ****     display.Update();
 209:Dubby.cpp     **** }
 210:Dubby.cpp     **** 
 211:Dubby.cpp     **** void Dubby::ReleaseMenu() 
 212:Dubby.cpp     **** {        
 213:Dubby.cpp     ****     display.Fill(false);
 214:Dubby.cpp     ****     display.DrawRect(menuBoxBounding[menuItemSelected][0], menuBoxBounding[menuItemSelected][1], me
 215:Dubby.cpp     **** 
 216:Dubby.cpp     ****     for (int i = 0; i < MENU_LAST; i++) 
 217:Dubby.cpp     ****     {
 218:Dubby.cpp     ****         display.SetCursor(menuTextCursors[i][0], menuTextCursors[i][1]);
 219:Dubby.cpp     ****         display.WriteString(GetTextForEnum(MAINMENU, i), Font_6x8, true);
 220:Dubby.cpp     ****     }
 221:Dubby.cpp     **** 
 222:Dubby.cpp     ****     display.Update();
 223:Dubby.cpp     **** }
 224:Dubby.cpp     **** 
 225:Dubby.cpp     **** void Dubby::UpdateMixerPane() 
 226:Dubby.cpp     **** {
 227:Dubby.cpp     ****     if(seed.system.GetNow() - screen_update_last_ > screen_update_period_)
 228:Dubby.cpp     ****     {
 229:Dubby.cpp     ****         screen_update_last_ = seed.system.GetNow();
 230:Dubby.cpp     ****         for (int i = 0; i < 4; i++) UpdateBar(i);
 231:Dubby.cpp     ****     }
 232:Dubby.cpp     **** }
 233:Dubby.cpp     **** 
 234:Dubby.cpp     **** void Dubby::UpdateSubmenu()
 235:Dubby.cpp     **** {
 236:Dubby.cpp     ****     switch(menuItemSelected) 
 237:Dubby.cpp     ****     {
 238:Dubby.cpp     ****         case MENU1:
 239:Dubby.cpp     ****             RenderScope();
 240:Dubby.cpp     ****             break;
 241:Dubby.cpp     ****         case MENU2:
 242:Dubby.cpp     ****             // for (int i = 0; i < 4; i++) UpdateBar(i);
ARM GAS  /var/folders/1y/_321xjh9623c014x9_qw12rr0000gn/T//cc4eHiNS.s 			page 7


 243:Dubby.cpp     ****             break;
 244:Dubby.cpp     ****         case MENU3:
 245:Dubby.cpp     ****             DisplayPreferencesMenu();
 246:Dubby.cpp     ****             break;
 247:Dubby.cpp     ****         default:
 248:Dubby.cpp     ****             break;
 249:Dubby.cpp     ****     }
 250:Dubby.cpp     **** 
 251:Dubby.cpp     ****     display.Update();
 252:Dubby.cpp     **** }
 253:Dubby.cpp     **** 
 254:Dubby.cpp     **** void Dubby::UpdateBar(int i) 
 255:Dubby.cpp     **** {
 256:Dubby.cpp     ****     display.DrawRect((i * 32)  + margin, 1, ((i + 1) * 31) - margin, 51, false, true);
 257:Dubby.cpp     ****     display.DrawRect((i * 32)  + margin, int(abs(1.0f - GetKnobValue(static_cast<Dubby::Ctrl>(i))) 
 258:Dubby.cpp     ****     display.DrawRect((i * 32)  + margin, int(abs((currentLevels[i] * 5.0f) - 1.0f) * 51.0f) + 1, ((
 259:Dubby.cpp     ****     
 260:Dubby.cpp     ****     display.Update();
 261:Dubby.cpp     **** }
 262:Dubby.cpp     **** 
 263:Dubby.cpp     **** void Dubby::RenderScope()
  78              		.loc 2 263 6 is_stmt 1 view -0
  79              		.cfi_startproc
  80              		@ args = 0, pretend = 0, frame = 32
  81              		@ frame_needed = 0, uses_anonymous_args = 0
  82              	.LBB279:
 264:Dubby.cpp     **** {
 265:Dubby.cpp     ****     if(seed.system.GetNow() - screen_update_last_ > screen_update_period_)
 266:Dubby.cpp     ****     {
 267:Dubby.cpp     ****         screen_update_last_ = seed.system.GetNow();
  83              		.loc 2 267 9 view .LVU7
  84              	.LBE279:
 263:Dubby.cpp     **** {
  85              		.loc 2 263 6 is_stmt 0 view .LVU8
  86 0000 2DE9F04F 		push	{r4, r5, r6, r7, r8, r9, r10, fp, lr}
  87              		.cfi_def_cfa_offset 36
  88              		.cfi_offset 4, -36
  89              		.cfi_offset 5, -32
  90              		.cfi_offset 6, -28
  91              		.cfi_offset 7, -24
  92              		.cfi_offset 8, -20
  93              		.cfi_offset 9, -16
  94              		.cfi_offset 10, -12
  95              		.cfi_offset 11, -8
  96              		.cfi_offset 14, -4
  97 0004 8246     		mov	r10, r0
  98 0006 89B0     		sub	sp, sp, #36
  99              		.cfi_def_cfa_offset 72
 100              	.LBB356:
 101              		.loc 2 267 49 view .LVU9
 102 0008 FFF7FEFF 		bl	_ZN5daisy6System6GetNowEv
 103              	.LVL5:
 104              	.LBB280:
 105              	.LBB281:
 106              	.LBB282:
 107              		.file 3 "../../libDaisy//src/hid/disp/display.h"
   1:../../libDaisy//src/hid/disp/display.h **** #pragma once
ARM GAS  /var/folders/1y/_321xjh9623c014x9_qw12rr0000gn/T//cc4eHiNS.s 			page 8


   2:../../libDaisy//src/hid/disp/display.h **** #ifndef DSY_DISPLAY_H
   3:../../libDaisy//src/hid/disp/display.h **** #define DSY_DISPLAY_H /**< Macro */
   4:../../libDaisy//src/hid/disp/display.h **** #include <cmath>
   5:../../libDaisy//src/hid/disp/display.h **** #include "util/oled_fonts.h"
   6:../../libDaisy//src/hid/disp/display.h **** #include "daisy_core.h"
   7:../../libDaisy//src/hid/disp/display.h **** #include "graphics_common.h"
   8:../../libDaisy//src/hid/disp/display.h **** 
   9:../../libDaisy//src/hid/disp/display.h **** #ifndef deg2rad
  10:../../libDaisy//src/hid/disp/display.h **** #define deg2rad(deg) ((deg)*3.141592 / 180.0)
  11:../../libDaisy//src/hid/disp/display.h **** #endif
  12:../../libDaisy//src/hid/disp/display.h **** 
  13:../../libDaisy//src/hid/disp/display.h **** namespace daisy
  14:../../libDaisy//src/hid/disp/display.h **** {
  15:../../libDaisy//src/hid/disp/display.h **** /** 
  16:../../libDaisy//src/hid/disp/display.h ****  * This interface is used as a base class for all types of 1bit-per-pixel
  17:../../libDaisy//src/hid/disp/display.h ****  * graphics displays.
  18:../../libDaisy//src/hid/disp/display.h **** */
  19:../../libDaisy//src/hid/disp/display.h **** class OneBitGraphicsDisplay
  20:../../libDaisy//src/hid/disp/display.h **** {
  21:../../libDaisy//src/hid/disp/display.h ****   public:
  22:../../libDaisy//src/hid/disp/display.h ****     OneBitGraphicsDisplay() {}
  23:../../libDaisy//src/hid/disp/display.h ****     virtual ~OneBitGraphicsDisplay() {}
  24:../../libDaisy//src/hid/disp/display.h **** 
  25:../../libDaisy//src/hid/disp/display.h ****     virtual uint16_t Height() const = 0;
  26:../../libDaisy//src/hid/disp/display.h ****     virtual uint16_t Width() const  = 0;
  27:../../libDaisy//src/hid/disp/display.h **** 
  28:../../libDaisy//src/hid/disp/display.h ****     Rectangle GetBounds() const
  29:../../libDaisy//src/hid/disp/display.h ****     {
  30:../../libDaisy//src/hid/disp/display.h ****         return Rectangle(int16_t(Width()), int16_t(Height()));
  31:../../libDaisy//src/hid/disp/display.h ****     }
  32:../../libDaisy//src/hid/disp/display.h **** 
  33:../../libDaisy//src/hid/disp/display.h **** 
  34:../../libDaisy//src/hid/disp/display.h ****     size_t CurrentX() { return currentX_; };
  35:../../libDaisy//src/hid/disp/display.h ****     size_t CurrentY() { return currentY_; };
  36:../../libDaisy//src/hid/disp/display.h **** 
  37:../../libDaisy//src/hid/disp/display.h ****     /** 
  38:../../libDaisy//src/hid/disp/display.h ****     Fills the entire display with either on/off.
  39:../../libDaisy//src/hid/disp/display.h ****     \param on Sets on or off.
  40:../../libDaisy//src/hid/disp/display.h ****     */
  41:../../libDaisy//src/hid/disp/display.h ****     virtual void Fill(bool on) = 0;
  42:../../libDaisy//src/hid/disp/display.h **** 
  43:../../libDaisy//src/hid/disp/display.h ****     /**
  44:../../libDaisy//src/hid/disp/display.h ****     Sets the pixel at the specified coordinate to be on/off.
  45:../../libDaisy//src/hid/disp/display.h ****     \param x   x Coordinate
  46:../../libDaisy//src/hid/disp/display.h ****     \param y   y coordinate
  47:../../libDaisy//src/hid/disp/display.h ****     \param on  on or off
  48:../../libDaisy//src/hid/disp/display.h ****     */
  49:../../libDaisy//src/hid/disp/display.h ****     virtual void DrawPixel(uint_fast8_t x, uint_fast8_t y, bool on) = 0;
  50:../../libDaisy//src/hid/disp/display.h **** 
  51:../../libDaisy//src/hid/disp/display.h ****     /**
  52:../../libDaisy//src/hid/disp/display.h ****     Draws a line from (x1, y1) to (y1, y2)
  53:../../libDaisy//src/hid/disp/display.h ****     \param x1  x Coordinate of the starting point
  54:../../libDaisy//src/hid/disp/display.h ****     \param y1  y Coordinate of the starting point
  55:../../libDaisy//src/hid/disp/display.h ****     \param x2  x Coordinate of the ending point
  56:../../libDaisy//src/hid/disp/display.h ****     \param y2  y Coordinate of the ending point
  57:../../libDaisy//src/hid/disp/display.h ****     \param on  on or off
  58:../../libDaisy//src/hid/disp/display.h ****     */
ARM GAS  /var/folders/1y/_321xjh9623c014x9_qw12rr0000gn/T//cc4eHiNS.s 			page 9


  59:../../libDaisy//src/hid/disp/display.h ****     virtual void DrawLine(uint_fast8_t x1,
  60:../../libDaisy//src/hid/disp/display.h ****                           uint_fast8_t y1,
  61:../../libDaisy//src/hid/disp/display.h ****                           uint_fast8_t x2,
  62:../../libDaisy//src/hid/disp/display.h ****                           uint_fast8_t y2,
  63:../../libDaisy//src/hid/disp/display.h ****                           bool         on)
  64:../../libDaisy//src/hid/disp/display.h ****         = 0;
  65:../../libDaisy//src/hid/disp/display.h **** 
  66:../../libDaisy//src/hid/disp/display.h ****     /**
  67:../../libDaisy//src/hid/disp/display.h ****     Draws a rectangle based on two coordinates.
  68:../../libDaisy//src/hid/disp/display.h ****     \param x1 x Coordinate of the first point
  69:../../libDaisy//src/hid/disp/display.h ****     \param y1 y Coordinate of the first point
  70:../../libDaisy//src/hid/disp/display.h ****     \param x2 x Coordinate of the second point
  71:../../libDaisy//src/hid/disp/display.h ****     \param y2 y Coordinate of the second point
  72:../../libDaisy//src/hid/disp/display.h ****     \param on on or off
  73:../../libDaisy//src/hid/disp/display.h ****     \param fill fill the rectangle or draw only the outline
  74:../../libDaisy//src/hid/disp/display.h ****     */
  75:../../libDaisy//src/hid/disp/display.h ****     virtual void DrawRect(uint_fast8_t x1,
  76:../../libDaisy//src/hid/disp/display.h ****                           uint_fast8_t y1,
  77:../../libDaisy//src/hid/disp/display.h ****                           uint_fast8_t x2,
  78:../../libDaisy//src/hid/disp/display.h ****                           uint_fast8_t y2,
  79:../../libDaisy//src/hid/disp/display.h ****                           bool         on,
  80:../../libDaisy//src/hid/disp/display.h ****                           bool         fill = false)
  81:../../libDaisy//src/hid/disp/display.h ****         = 0;
  82:../../libDaisy//src/hid/disp/display.h **** 
  83:../../libDaisy//src/hid/disp/display.h ****     /**
  84:../../libDaisy//src/hid/disp/display.h ****     Draws a rectangle.
  85:../../libDaisy//src/hid/disp/display.h ****     \param rect the rectangle
  86:../../libDaisy//src/hid/disp/display.h ****     \param on   on or off
  87:../../libDaisy//src/hid/disp/display.h ****     \param fill fill the rectangle or draw only the outline
  88:../../libDaisy//src/hid/disp/display.h ****     */
  89:../../libDaisy//src/hid/disp/display.h ****     void DrawRect(const Rectangle& rect, bool on, bool fill = false)
  90:../../libDaisy//src/hid/disp/display.h ****     {
  91:../../libDaisy//src/hid/disp/display.h ****         DrawRect(rect.GetX(),
  92:../../libDaisy//src/hid/disp/display.h ****                  rect.GetY(),
  93:../../libDaisy//src/hid/disp/display.h ****                  rect.GetRight(),
  94:../../libDaisy//src/hid/disp/display.h ****                  rect.GetBottom(),
  95:../../libDaisy//src/hid/disp/display.h ****                  on,
  96:../../libDaisy//src/hid/disp/display.h ****                  fill);
  97:../../libDaisy//src/hid/disp/display.h ****     }
  98:../../libDaisy//src/hid/disp/display.h **** 
  99:../../libDaisy//src/hid/disp/display.h ****     /**
 100:../../libDaisy//src/hid/disp/display.h ****     Draws an arc around the specified coordinate
 101:../../libDaisy//src/hid/disp/display.h ****     \param x           x Coordinate of the center of the arc
 102:../../libDaisy//src/hid/disp/display.h ****     \param y           y Coordinate of the center of the arc
 103:../../libDaisy//src/hid/disp/display.h ****     \param radius      radius of the arc
 104:../../libDaisy//src/hid/disp/display.h ****     \param start_angle angle where to start the arc
 105:../../libDaisy//src/hid/disp/display.h ****     \param sweep       total angle of the arc
 106:../../libDaisy//src/hid/disp/display.h ****     \param on  on or off
 107:../../libDaisy//src/hid/disp/display.h ****     */
 108:../../libDaisy//src/hid/disp/display.h ****     virtual void DrawArc(uint_fast8_t x,
 109:../../libDaisy//src/hid/disp/display.h ****                          uint_fast8_t y,
 110:../../libDaisy//src/hid/disp/display.h ****                          uint_fast8_t radius,
 111:../../libDaisy//src/hid/disp/display.h ****                          int_fast16_t start_angle,
 112:../../libDaisy//src/hid/disp/display.h ****                          int_fast16_t sweep,
 113:../../libDaisy//src/hid/disp/display.h ****                          bool         on)
 114:../../libDaisy//src/hid/disp/display.h ****         = 0;
 115:../../libDaisy//src/hid/disp/display.h **** 
ARM GAS  /var/folders/1y/_321xjh9623c014x9_qw12rr0000gn/T//cc4eHiNS.s 			page 10


 116:../../libDaisy//src/hid/disp/display.h ****     /**
 117:../../libDaisy//src/hid/disp/display.h ****     Draws a circle around the specified coordinate
 118:../../libDaisy//src/hid/disp/display.h ****     \param x           x Coordinate of the center of the circle
 119:../../libDaisy//src/hid/disp/display.h ****     \param y           y Coordinate of the center of the circle
 120:../../libDaisy//src/hid/disp/display.h ****     \param radius      radius of the circle
 121:../../libDaisy//src/hid/disp/display.h ****     \param on  on or off
 122:../../libDaisy//src/hid/disp/display.h ****     */
 123:../../libDaisy//src/hid/disp/display.h ****     void
 124:../../libDaisy//src/hid/disp/display.h ****     DrawCircle(uint_fast8_t x, uint_fast8_t y, uint_fast8_t radius, bool on)
 125:../../libDaisy//src/hid/disp/display.h ****     {
 126:../../libDaisy//src/hid/disp/display.h ****         DrawArc(x, y, radius, 0, 360, on);
 127:../../libDaisy//src/hid/disp/display.h ****     };
 128:../../libDaisy//src/hid/disp/display.h **** 
 129:../../libDaisy//src/hid/disp/display.h ****     /** 
 130:../../libDaisy//src/hid/disp/display.h ****     Writes the character with the specific FontDef
 131:../../libDaisy//src/hid/disp/display.h ****     to the display buffer at the current Cursor position.
 132:../../libDaisy//src/hid/disp/display.h ****     \param ch character to be written
 133:../../libDaisy//src/hid/disp/display.h ****     \param font font to be written in
 134:../../libDaisy//src/hid/disp/display.h ****     \param on    on or off
 135:../../libDaisy//src/hid/disp/display.h ****     \return &
 136:../../libDaisy//src/hid/disp/display.h ****     */
 137:../../libDaisy//src/hid/disp/display.h ****     virtual char WriteChar(char ch, FontDef font, bool on) = 0;
 138:../../libDaisy//src/hid/disp/display.h **** 
 139:../../libDaisy//src/hid/disp/display.h ****     /** 
 140:../../libDaisy//src/hid/disp/display.h ****     Similar to WriteChar, except it will handle an entire String.
 141:../../libDaisy//src/hid/disp/display.h ****     Wrapping does not happen automatically, so the width
 142:../../libDaisy//src/hid/disp/display.h ****     of the string must be kept within the dimensions of the screen.
 143:../../libDaisy//src/hid/disp/display.h ****     \param str string to be written
 144:../../libDaisy//src/hid/disp/display.h ****     \param font font to use
 145:../../libDaisy//src/hid/disp/display.h ****     \param on  on or off
 146:../../libDaisy//src/hid/disp/display.h ****     \return &
 147:../../libDaisy//src/hid/disp/display.h ****     */
 148:../../libDaisy//src/hid/disp/display.h ****     virtual char WriteString(const char* str, FontDef font, bool on) = 0;
 149:../../libDaisy//src/hid/disp/display.h **** 
 150:../../libDaisy//src/hid/disp/display.h ****     /** 
 151:../../libDaisy//src/hid/disp/display.h ****     Similar to WriteString but justified within a bounding box.
 152:../../libDaisy//src/hid/disp/display.h ****     \param str          string to be written
 153:../../libDaisy//src/hid/disp/display.h ****     \param font         font to use
 154:../../libDaisy//src/hid/disp/display.h ****     \param boundingBox  the bounding box to draw the text in
 155:../../libDaisy//src/hid/disp/display.h ****     \param alignment    the alignment to use
 156:../../libDaisy//src/hid/disp/display.h ****     \param on           on or off
 157:../../libDaisy//src/hid/disp/display.h ****     \return The rectangle that was drawn to
 158:../../libDaisy//src/hid/disp/display.h ****     */
 159:../../libDaisy//src/hid/disp/display.h ****     virtual Rectangle WriteStringAligned(const char*    str,
 160:../../libDaisy//src/hid/disp/display.h ****                                          const FontDef& font,
 161:../../libDaisy//src/hid/disp/display.h ****                                          Rectangle      boundingBox,
 162:../../libDaisy//src/hid/disp/display.h ****                                          Alignment      alignment,
 163:../../libDaisy//src/hid/disp/display.h ****                                          bool           on)
 164:../../libDaisy//src/hid/disp/display.h ****         = 0;
 165:../../libDaisy//src/hid/disp/display.h **** 
 166:../../libDaisy//src/hid/disp/display.h ****     /** 
 167:../../libDaisy//src/hid/disp/display.h ****     Moves the 'Cursor' position used for WriteChar, and WriteStr to the specified coordinate.
 168:../../libDaisy//src/hid/disp/display.h ****     \param x x pos
 169:../../libDaisy//src/hid/disp/display.h ****     \param y y pos
 170:../../libDaisy//src/hid/disp/display.h ****     */
 171:../../libDaisy//src/hid/disp/display.h ****     void SetCursor(uint16_t x, uint16_t y)
 172:../../libDaisy//src/hid/disp/display.h ****     {
ARM GAS  /var/folders/1y/_321xjh9623c014x9_qw12rr0000gn/T//cc4eHiNS.s 			page 11


 173:../../libDaisy//src/hid/disp/display.h ****         currentX_ = (x >= Width()) ? Width() - 1 : x;
 174:../../libDaisy//src/hid/disp/display.h ****         currentY_ = (y >= Height()) ? Height() - 1 : y;
 175:../../libDaisy//src/hid/disp/display.h ****     }
 176:../../libDaisy//src/hid/disp/display.h **** 
 177:../../libDaisy//src/hid/disp/display.h ****     /** 
 178:../../libDaisy//src/hid/disp/display.h ****     Writes the current display buffer to the OLED device using SPI or I2C depending on 
 179:../../libDaisy//src/hid/disp/display.h ****     how the object was initialized.
 180:../../libDaisy//src/hid/disp/display.h ****     */
 181:../../libDaisy//src/hid/disp/display.h ****     virtual void Update() = 0;
 182:../../libDaisy//src/hid/disp/display.h **** 
 183:../../libDaisy//src/hid/disp/display.h ****   protected:
 184:../../libDaisy//src/hid/disp/display.h ****     uint16_t currentX_;
 185:../../libDaisy//src/hid/disp/display.h ****     uint16_t currentY_;
 186:../../libDaisy//src/hid/disp/display.h **** };
 187:../../libDaisy//src/hid/disp/display.h **** 
 188:../../libDaisy//src/hid/disp/display.h **** /** This class is intended as a intermediary class for your actual implementation of the OneBitGrap
 189:../../libDaisy//src/hid/disp/display.h ****  *  interface. It uses the CRTP design pattern where the template argument is the child class. It p
 190:../../libDaisy//src/hid/disp/display.h ****  *  implementations for most of the functions, except DrawPixel(), Update() and Fill(), which you'l
 191:../../libDaisy//src/hid/disp/display.h ****  *  to provide in your child class.
 192:../../libDaisy//src/hid/disp/display.h ****  *  The main goal of this class is to provide common drawing functions without relying on massive a
 193:../../libDaisy//src/hid/disp/display.h ****  *  virtual function calls that would result in a performance loss. To achieve this, any drawing fu
 194:../../libDaisy//src/hid/disp/display.h ****  *  is implemented here and internally calls other drawing functions (e.g. DrawRect() which interna
 195:../../libDaisy//src/hid/disp/display.h ****  *  DrawPixel() and DrawLine()) makes these calls via the qualified name of these functions to expl
 196:../../libDaisy//src/hid/disp/display.h ****  *  suppress the virtual dispatch mechanism like this:
 197:../../libDaisy//src/hid/disp/display.h ****  * 
 198:../../libDaisy//src/hid/disp/display.h ****  *      ChildType::DrawPixel(...); // no virtual function call; direct call into the child class fu
 199:../../libDaisy//src/hid/disp/display.h ****  *  
 200:../../libDaisy//src/hid/disp/display.h ****  *  To create a custom OneBitGraphicsDisplay implementation, you can 
 201:../../libDaisy//src/hid/disp/display.h ****  *  A) inherit from OneBitGraphicsDisplay directly and provide all the drawing functions yourself
 202:../../libDaisy//src/hid/disp/display.h ****  *  B) Inherit from OneBitGraphicsDisplayImpl and only provide DrawPixel(), Fill() and Update()
 203:../../libDaisy//src/hid/disp/display.h ****  *     like this:
 204:../../libDaisy//src/hid/disp/display.h ****  *  
 205:../../libDaisy//src/hid/disp/display.h ****  *      class MyDisplayClass : public OneBitGraphicsDisplayImpl<MyDisplayClass> 
 206:../../libDaisy//src/hid/disp/display.h ****  *      {
 207:../../libDaisy//src/hid/disp/display.h ****  *      public:
 208:../../libDaisy//src/hid/disp/display.h ****  *          void Fill() override { ... };
 209:../../libDaisy//src/hid/disp/display.h ****  *          void DrawPixel(uint_fast8_t x, uint_fast8_t y, bool on) override { ... };
 210:../../libDaisy//src/hid/disp/display.h ****  *          void Update() override { ... }
 211:../../libDaisy//src/hid/disp/display.h ****  *      };
 212:../../libDaisy//src/hid/disp/display.h ****  *  
 213:../../libDaisy//src/hid/disp/display.h ****  */
 214:../../libDaisy//src/hid/disp/display.h **** template <class ChildType>
 215:../../libDaisy//src/hid/disp/display.h **** class OneBitGraphicsDisplayImpl : public OneBitGraphicsDisplay
 216:../../libDaisy//src/hid/disp/display.h **** {
 217:../../libDaisy//src/hid/disp/display.h ****   public:
 218:../../libDaisy//src/hid/disp/display.h ****     OneBitGraphicsDisplayImpl() {}
 219:../../libDaisy//src/hid/disp/display.h ****     virtual ~OneBitGraphicsDisplayImpl() {}
 220:../../libDaisy//src/hid/disp/display.h **** 
 221:../../libDaisy//src/hid/disp/display.h ****     void DrawLine(uint_fast8_t x1,
 222:../../libDaisy//src/hid/disp/display.h ****                   uint_fast8_t y1,
 223:../../libDaisy//src/hid/disp/display.h ****                   uint_fast8_t x2,
 224:../../libDaisy//src/hid/disp/display.h ****                   uint_fast8_t y2,
 225:../../libDaisy//src/hid/disp/display.h ****                   bool         on) override
 226:../../libDaisy//src/hid/disp/display.h ****     {
 227:../../libDaisy//src/hid/disp/display.h ****         int_fast16_t deltaX = abs((int_fast16_t)x2 - (int_fast16_t)x1);
 228:../../libDaisy//src/hid/disp/display.h ****         int_fast16_t deltaY = abs((int_fast16_t)y2 - (int_fast16_t)y1);
 229:../../libDaisy//src/hid/disp/display.h ****         int_fast16_t signX  = ((x1 < x2) ? 1 : -1);
ARM GAS  /var/folders/1y/_321xjh9623c014x9_qw12rr0000gn/T//cc4eHiNS.s 			page 12


 230:../../libDaisy//src/hid/disp/display.h ****         int_fast16_t signY  = ((y1 < y2) ? 1 : -1);
 231:../../libDaisy//src/hid/disp/display.h ****         int_fast16_t error  = deltaX - deltaY;
 232:../../libDaisy//src/hid/disp/display.h ****         int_fast16_t error2;
 233:../../libDaisy//src/hid/disp/display.h **** 
 234:../../libDaisy//src/hid/disp/display.h ****         // If we write "ChildType::DrawPixel(x2, y2, on);", we end up with
 235:../../libDaisy//src/hid/disp/display.h ****         // all sorts of weird compiler errors when the Child class is a template
 236:../../libDaisy//src/hid/disp/display.h ****         // class. The only way around this is to use this very verbose syntax:
 237:../../libDaisy//src/hid/disp/display.h ****         ((ChildType*)(this))->ChildType::DrawPixel(x2, y2, on);
 238:../../libDaisy//src/hid/disp/display.h **** 
 239:../../libDaisy//src/hid/disp/display.h ****         while((x1 != x2) || (y1 != y2))
 240:../../libDaisy//src/hid/disp/display.h ****         {
 241:../../libDaisy//src/hid/disp/display.h ****             ((ChildType*)(this))->ChildType::DrawPixel(x1, y1, on);
 242:../../libDaisy//src/hid/disp/display.h ****             error2 = error * 2;
 243:../../libDaisy//src/hid/disp/display.h ****             if(error2 > -deltaY)
 244:../../libDaisy//src/hid/disp/display.h ****             {
 245:../../libDaisy//src/hid/disp/display.h ****                 error -= deltaY;
 246:../../libDaisy//src/hid/disp/display.h ****                 x1 += signX;
 247:../../libDaisy//src/hid/disp/display.h ****             }
 248:../../libDaisy//src/hid/disp/display.h **** 
 249:../../libDaisy//src/hid/disp/display.h ****             if(error2 < deltaX)
 250:../../libDaisy//src/hid/disp/display.h ****             {
 251:../../libDaisy//src/hid/disp/display.h ****                 error += deltaX;
 252:../../libDaisy//src/hid/disp/display.h ****                 y1 += signY;
 253:../../libDaisy//src/hid/disp/display.h ****             }
 254:../../libDaisy//src/hid/disp/display.h ****         }
 255:../../libDaisy//src/hid/disp/display.h ****     }
 256:../../libDaisy//src/hid/disp/display.h **** 
 257:../../libDaisy//src/hid/disp/display.h ****     void DrawRect(uint_fast8_t x1,
 258:../../libDaisy//src/hid/disp/display.h ****                   uint_fast8_t y1,
 259:../../libDaisy//src/hid/disp/display.h ****                   uint_fast8_t x2,
 260:../../libDaisy//src/hid/disp/display.h ****                   uint_fast8_t y2,
 261:../../libDaisy//src/hid/disp/display.h ****                   bool         on,
 262:../../libDaisy//src/hid/disp/display.h ****                   bool         fill = false) override
 263:../../libDaisy//src/hid/disp/display.h ****     {
 264:../../libDaisy//src/hid/disp/display.h ****         if(fill)
 265:../../libDaisy//src/hid/disp/display.h ****         {
 266:../../libDaisy//src/hid/disp/display.h ****             for(uint_fast8_t x = x1; x <= x2; x++)
 108              		.loc 3 266 30 view .LVU10
 109 000c 0125     		movs	r5, #1
 110              	.LBE282:
 111              	.LBE281:
 112              	.LBE280:
 113              		.loc 2 267 29 view .LVU11
 114 000e 0AF51043 		add	r3, r10, #36864
 115 0012 C3F82809 		str	r0, [r3, #2344]
 268:Dubby.cpp     ****         display.DrawRect(PANE_X_START, PANE_Y_START, PANE_X_END, PANE_Y_END, false, true);
 116              		.loc 2 268 9 is_stmt 1 view .LVU12
 117              	.LVL6:
 118              	.LBB301:
 119              	.LBI280:
 257:../../libDaisy//src/hid/disp/display.h ****                   uint_fast8_t y1,
 120              		.loc 3 257 10 view .LVU13
 121              	.LBB299:
 122              	.LBI281:
 257:../../libDaisy//src/hid/disp/display.h ****                   uint_fast8_t y1,
 123              		.loc 3 257 10 view .LVU14
 124              	.LBB297:
ARM GAS  /var/folders/1y/_321xjh9623c014x9_qw12rr0000gn/T//cc4eHiNS.s 			page 13


 125              		.loc 3 266 40 view .LVU15
 126              	.L6:
 127              	.LBB283:
 267:../../libDaisy//src/hid/disp/display.h ****             {
 268:../../libDaisy//src/hid/disp/display.h ****                 for(uint_fast8_t y = y1; y <= y2; y++)
 128              		.loc 3 268 44 view .LVU16
 129              		.loc 3 268 34 is_stmt 0 view .LVU17
 130 0016 0122     		movs	r2, #1
 131              	.LVL7:
 132              	.L5:
 133              	.LBB284:
 134              	.LBI284:
  29:../../libDaisy//src/hid/disp/oled_display.h **** 
  30:../../libDaisy//src/hid/disp/oled_display.h ****     /** 
  31:../../libDaisy//src/hid/disp/oled_display.h ****     Fills the entire display with either on/off.
  32:../../libDaisy//src/hid/disp/oled_display.h ****     \param on Sets on or off.
  33:../../libDaisy//src/hid/disp/oled_display.h ****     */
  34:../../libDaisy//src/hid/disp/oled_display.h ****     void Fill(bool on) override { driver_.Fill(on); }
  35:../../libDaisy//src/hid/disp/oled_display.h **** 
  36:../../libDaisy//src/hid/disp/oled_display.h ****     /**
  37:../../libDaisy//src/hid/disp/oled_display.h ****     Sets the pixel at the specified coordinate to be on/off.
  38:../../libDaisy//src/hid/disp/oled_display.h ****     \param x   x Coordinate
  39:../../libDaisy//src/hid/disp/oled_display.h ****     \param y   y coordinate
  40:../../libDaisy//src/hid/disp/oled_display.h ****     \param on  on or off
  41:../../libDaisy//src/hid/disp/oled_display.h ****     */
  42:../../libDaisy//src/hid/disp/oled_display.h ****     void DrawPixel(uint_fast8_t x, uint_fast8_t y, bool on) override
 135              		.loc 1 42 10 is_stmt 1 view .LVU18
 136              	.LBB285:
 137              	.LBI285:
 138              		.file 4 "../../libDaisy//src/dev/oled_ssd130x.h"
   1:../../libDaisy//src/dev/oled_ssd130x.h **** #pragma once
   2:../../libDaisy//src/dev/oled_ssd130x.h **** #ifndef SA_OLED_SSD130X_H
   3:../../libDaisy//src/dev/oled_ssd130x.h **** #define SA_OLED_SSD130X_H /**< & */
   4:../../libDaisy//src/dev/oled_ssd130x.h **** 
   5:../../libDaisy//src/dev/oled_ssd130x.h **** #include "per/i2c.h"
   6:../../libDaisy//src/dev/oled_ssd130x.h **** #include "per/spi.h"
   7:../../libDaisy//src/dev/oled_ssd130x.h **** #include "per/gpio.h"
   8:../../libDaisy//src/dev/oled_ssd130x.h **** #include "sys/system.h"
   9:../../libDaisy//src/dev/oled_ssd130x.h **** 
  10:../../libDaisy//src/dev/oled_ssd130x.h **** namespace daisy
  11:../../libDaisy//src/dev/oled_ssd130x.h **** {
  12:../../libDaisy//src/dev/oled_ssd130x.h **** /**
  13:../../libDaisy//src/dev/oled_ssd130x.h ****  * I2C Transport for SSD1306 / SSD1309 OLED display devices
  14:../../libDaisy//src/dev/oled_ssd130x.h ****  */
  15:../../libDaisy//src/dev/oled_ssd130x.h **** class SSD130xI2CTransport
  16:../../libDaisy//src/dev/oled_ssd130x.h **** {
  17:../../libDaisy//src/dev/oled_ssd130x.h ****   public:
  18:../../libDaisy//src/dev/oled_ssd130x.h ****     struct Config
  19:../../libDaisy//src/dev/oled_ssd130x.h ****     {
  20:../../libDaisy//src/dev/oled_ssd130x.h ****         Config()
  21:../../libDaisy//src/dev/oled_ssd130x.h ****         {
  22:../../libDaisy//src/dev/oled_ssd130x.h ****             // Intialize using defaults
  23:../../libDaisy//src/dev/oled_ssd130x.h ****             Defaults();
  24:../../libDaisy//src/dev/oled_ssd130x.h ****         }
  25:../../libDaisy//src/dev/oled_ssd130x.h ****         I2CHandle::Config i2c_config;
  26:../../libDaisy//src/dev/oled_ssd130x.h ****         uint8_t           i2c_address;
  27:../../libDaisy//src/dev/oled_ssd130x.h ****         void              Defaults()
ARM GAS  /var/folders/1y/_321xjh9623c014x9_qw12rr0000gn/T//cc4eHiNS.s 			page 14


  28:../../libDaisy//src/dev/oled_ssd130x.h ****         {
  29:../../libDaisy//src/dev/oled_ssd130x.h ****             i2c_config.periph         = I2CHandle::Config::Peripheral::I2C_1;
  30:../../libDaisy//src/dev/oled_ssd130x.h ****             i2c_config.speed          = I2CHandle::Config::Speed::I2C_1MHZ;
  31:../../libDaisy//src/dev/oled_ssd130x.h ****             i2c_config.mode           = I2CHandle::Config::Mode::I2C_MASTER;
  32:../../libDaisy//src/dev/oled_ssd130x.h ****             i2c_config.pin_config.scl = {DSY_GPIOB, 8};
  33:../../libDaisy//src/dev/oled_ssd130x.h ****             i2c_config.pin_config.sda = {DSY_GPIOB, 9};
  34:../../libDaisy//src/dev/oled_ssd130x.h ****             i2c_address               = 0x3C;
  35:../../libDaisy//src/dev/oled_ssd130x.h ****         }
  36:../../libDaisy//src/dev/oled_ssd130x.h ****     };
  37:../../libDaisy//src/dev/oled_ssd130x.h ****     void Init(const Config& config)
  38:../../libDaisy//src/dev/oled_ssd130x.h ****     {
  39:../../libDaisy//src/dev/oled_ssd130x.h ****         i2c_address_ = config.i2c_address;
  40:../../libDaisy//src/dev/oled_ssd130x.h ****         i2c_.Init(config.i2c_config);
  41:../../libDaisy//src/dev/oled_ssd130x.h ****     };
  42:../../libDaisy//src/dev/oled_ssd130x.h ****     void SendCommand(uint8_t cmd)
  43:../../libDaisy//src/dev/oled_ssd130x.h ****     {
  44:../../libDaisy//src/dev/oled_ssd130x.h ****         uint8_t buf[2] = {0X00, cmd};
  45:../../libDaisy//src/dev/oled_ssd130x.h ****         i2c_.TransmitBlocking(i2c_address_, buf, 2, 1000);
  46:../../libDaisy//src/dev/oled_ssd130x.h ****     };
  47:../../libDaisy//src/dev/oled_ssd130x.h **** 
  48:../../libDaisy//src/dev/oled_ssd130x.h ****     void SendData(uint8_t* buff, size_t size)
  49:../../libDaisy//src/dev/oled_ssd130x.h ****     {
  50:../../libDaisy//src/dev/oled_ssd130x.h ****         for(size_t i = 0; i < size; i++)
  51:../../libDaisy//src/dev/oled_ssd130x.h ****         {
  52:../../libDaisy//src/dev/oled_ssd130x.h ****             uint8_t buf[2] = {0X40, buff[i]};
  53:../../libDaisy//src/dev/oled_ssd130x.h ****             i2c_.TransmitBlocking(i2c_address_, buf, 2, 1000);
  54:../../libDaisy//src/dev/oled_ssd130x.h ****         }
  55:../../libDaisy//src/dev/oled_ssd130x.h ****     };
  56:../../libDaisy//src/dev/oled_ssd130x.h **** 
  57:../../libDaisy//src/dev/oled_ssd130x.h ****   private:
  58:../../libDaisy//src/dev/oled_ssd130x.h ****     daisy::I2CHandle i2c_;
  59:../../libDaisy//src/dev/oled_ssd130x.h ****     uint8_t          i2c_address_;
  60:../../libDaisy//src/dev/oled_ssd130x.h **** };
  61:../../libDaisy//src/dev/oled_ssd130x.h **** 
  62:../../libDaisy//src/dev/oled_ssd130x.h **** /**
  63:../../libDaisy//src/dev/oled_ssd130x.h ****  * 4 Wire SPI Transport for SSD1306 / SSD1309 OLED display devices
  64:../../libDaisy//src/dev/oled_ssd130x.h ****  */
  65:../../libDaisy//src/dev/oled_ssd130x.h **** class SSD130x4WireSpiTransport
  66:../../libDaisy//src/dev/oled_ssd130x.h **** {
  67:../../libDaisy//src/dev/oled_ssd130x.h ****   public:
  68:../../libDaisy//src/dev/oled_ssd130x.h ****     struct Config
  69:../../libDaisy//src/dev/oled_ssd130x.h ****     {
  70:../../libDaisy//src/dev/oled_ssd130x.h ****         Config()
  71:../../libDaisy//src/dev/oled_ssd130x.h ****         {
  72:../../libDaisy//src/dev/oled_ssd130x.h ****             // Initialize using defaults
  73:../../libDaisy//src/dev/oled_ssd130x.h ****             Defaults();
  74:../../libDaisy//src/dev/oled_ssd130x.h ****         }
  75:../../libDaisy//src/dev/oled_ssd130x.h ****         SpiHandle::Config spi_config;
  76:../../libDaisy//src/dev/oled_ssd130x.h ****         struct
  77:../../libDaisy//src/dev/oled_ssd130x.h ****         {
  78:../../libDaisy//src/dev/oled_ssd130x.h ****             dsy_gpio_pin dc;    /**< & */
  79:../../libDaisy//src/dev/oled_ssd130x.h ****             dsy_gpio_pin reset; /**< & */
  80:../../libDaisy//src/dev/oled_ssd130x.h ****         } pin_config;
  81:../../libDaisy//src/dev/oled_ssd130x.h ****         void Defaults()
  82:../../libDaisy//src/dev/oled_ssd130x.h ****         {
  83:../../libDaisy//src/dev/oled_ssd130x.h ****             // SPI peripheral config
  84:../../libDaisy//src/dev/oled_ssd130x.h ****             spi_config.periph = SpiHandle::Config::Peripheral::SPI_1;
ARM GAS  /var/folders/1y/_321xjh9623c014x9_qw12rr0000gn/T//cc4eHiNS.s 			page 15


  85:../../libDaisy//src/dev/oled_ssd130x.h ****             spi_config.mode   = SpiHandle::Config::Mode::MASTER;
  86:../../libDaisy//src/dev/oled_ssd130x.h ****             spi_config.direction
  87:../../libDaisy//src/dev/oled_ssd130x.h ****                 = SpiHandle::Config::Direction::TWO_LINES_TX_ONLY;
  88:../../libDaisy//src/dev/oled_ssd130x.h ****             spi_config.datasize       = 8;
  89:../../libDaisy//src/dev/oled_ssd130x.h ****             spi_config.clock_polarity = SpiHandle::Config::ClockPolarity::LOW;
  90:../../libDaisy//src/dev/oled_ssd130x.h ****             spi_config.clock_phase    = SpiHandle::Config::ClockPhase::ONE_EDGE;
  91:../../libDaisy//src/dev/oled_ssd130x.h ****             spi_config.nss            = SpiHandle::Config::NSS::HARD_OUTPUT;
  92:../../libDaisy//src/dev/oled_ssd130x.h ****             spi_config.baud_prescaler = SpiHandle::Config::BaudPrescaler::PS_8;
  93:../../libDaisy//src/dev/oled_ssd130x.h ****             // SPI pin config
  94:../../libDaisy//src/dev/oled_ssd130x.h ****             spi_config.pin_config.sclk = {DSY_GPIOG, 11};
  95:../../libDaisy//src/dev/oled_ssd130x.h ****             spi_config.pin_config.miso = {DSY_GPIOX, 0};
  96:../../libDaisy//src/dev/oled_ssd130x.h ****             spi_config.pin_config.mosi = {DSY_GPIOB, 5};
  97:../../libDaisy//src/dev/oled_ssd130x.h ****             spi_config.pin_config.nss  = {DSY_GPIOG, 10};
  98:../../libDaisy//src/dev/oled_ssd130x.h ****             // SSD130x control pin config
  99:../../libDaisy//src/dev/oled_ssd130x.h ****             pin_config.dc    = {DSY_GPIOB, 4};
 100:../../libDaisy//src/dev/oled_ssd130x.h ****             pin_config.reset = {DSY_GPIOB, 15};
 101:../../libDaisy//src/dev/oled_ssd130x.h ****         }
 102:../../libDaisy//src/dev/oled_ssd130x.h ****     };
 103:../../libDaisy//src/dev/oled_ssd130x.h ****     void Init(const Config& config)
 104:../../libDaisy//src/dev/oled_ssd130x.h ****     {
 105:../../libDaisy//src/dev/oled_ssd130x.h ****         // Initialize both GPIO
 106:../../libDaisy//src/dev/oled_ssd130x.h ****         pin_dc_.mode = DSY_GPIO_MODE_OUTPUT_PP;
 107:../../libDaisy//src/dev/oled_ssd130x.h ****         pin_dc_.pin  = config.pin_config.dc;
 108:../../libDaisy//src/dev/oled_ssd130x.h ****         dsy_gpio_init(&pin_dc_);
 109:../../libDaisy//src/dev/oled_ssd130x.h ****         pin_reset_.mode = DSY_GPIO_MODE_OUTPUT_PP;
 110:../../libDaisy//src/dev/oled_ssd130x.h ****         pin_reset_.pin  = config.pin_config.reset;
 111:../../libDaisy//src/dev/oled_ssd130x.h ****         dsy_gpio_init(&pin_reset_);
 112:../../libDaisy//src/dev/oled_ssd130x.h **** 
 113:../../libDaisy//src/dev/oled_ssd130x.h ****         // Initialize SPI
 114:../../libDaisy//src/dev/oled_ssd130x.h ****         spi_.Init(config.spi_config);
 115:../../libDaisy//src/dev/oled_ssd130x.h **** 
 116:../../libDaisy//src/dev/oled_ssd130x.h ****         // Reset and Configure OLED.
 117:../../libDaisy//src/dev/oled_ssd130x.h ****         dsy_gpio_write(&pin_reset_, 0);
 118:../../libDaisy//src/dev/oled_ssd130x.h ****         System::Delay(10);
 119:../../libDaisy//src/dev/oled_ssd130x.h ****         dsy_gpio_write(&pin_reset_, 1);
 120:../../libDaisy//src/dev/oled_ssd130x.h ****         System::Delay(10);
 121:../../libDaisy//src/dev/oled_ssd130x.h ****     };
 122:../../libDaisy//src/dev/oled_ssd130x.h ****     void SendCommand(uint8_t cmd)
 123:../../libDaisy//src/dev/oled_ssd130x.h ****     {
 124:../../libDaisy//src/dev/oled_ssd130x.h ****         dsy_gpio_write(&pin_dc_, 0);
 125:../../libDaisy//src/dev/oled_ssd130x.h ****         spi_.BlockingTransmit(&cmd, 1);
 126:../../libDaisy//src/dev/oled_ssd130x.h ****     };
 127:../../libDaisy//src/dev/oled_ssd130x.h **** 
 128:../../libDaisy//src/dev/oled_ssd130x.h ****     void SendData(uint8_t* buff, size_t size)
 129:../../libDaisy//src/dev/oled_ssd130x.h ****     {
 130:../../libDaisy//src/dev/oled_ssd130x.h ****         dsy_gpio_write(&pin_dc_, 1);
 131:../../libDaisy//src/dev/oled_ssd130x.h ****         spi_.BlockingTransmit(buff, size);
 132:../../libDaisy//src/dev/oled_ssd130x.h ****     };
 133:../../libDaisy//src/dev/oled_ssd130x.h **** 
 134:../../libDaisy//src/dev/oled_ssd130x.h ****   private:
 135:../../libDaisy//src/dev/oled_ssd130x.h ****     SpiHandle spi_;
 136:../../libDaisy//src/dev/oled_ssd130x.h ****     dsy_gpio  pin_reset_;
 137:../../libDaisy//src/dev/oled_ssd130x.h ****     dsy_gpio  pin_dc_;
 138:../../libDaisy//src/dev/oled_ssd130x.h **** };
 139:../../libDaisy//src/dev/oled_ssd130x.h **** 
 140:../../libDaisy//src/dev/oled_ssd130x.h **** /**
 141:../../libDaisy//src/dev/oled_ssd130x.h ****  * Soft SPI Transport for SSD1306 / SSD1309 OLED display devices
ARM GAS  /var/folders/1y/_321xjh9623c014x9_qw12rr0000gn/T//cc4eHiNS.s 			page 16


 142:../../libDaisy//src/dev/oled_ssd130x.h ****  */
 143:../../libDaisy//src/dev/oled_ssd130x.h **** class SSD130x4WireSoftSpiTransport
 144:../../libDaisy//src/dev/oled_ssd130x.h **** {
 145:../../libDaisy//src/dev/oled_ssd130x.h ****   public:
 146:../../libDaisy//src/dev/oled_ssd130x.h ****     struct Config
 147:../../libDaisy//src/dev/oled_ssd130x.h ****     {
 148:../../libDaisy//src/dev/oled_ssd130x.h ****         Config()
 149:../../libDaisy//src/dev/oled_ssd130x.h ****         {
 150:../../libDaisy//src/dev/oled_ssd130x.h ****             // Initialize using defaults
 151:../../libDaisy//src/dev/oled_ssd130x.h ****             Defaults();
 152:../../libDaisy//src/dev/oled_ssd130x.h ****         }
 153:../../libDaisy//src/dev/oled_ssd130x.h ****         struct
 154:../../libDaisy//src/dev/oled_ssd130x.h ****         {
 155:../../libDaisy//src/dev/oled_ssd130x.h ****             uint32_t     sclk_delay;
 156:../../libDaisy//src/dev/oled_ssd130x.h ****             dsy_gpio_pin sclk;
 157:../../libDaisy//src/dev/oled_ssd130x.h ****             dsy_gpio_pin mosi;
 158:../../libDaisy//src/dev/oled_ssd130x.h ****             dsy_gpio_pin dc;
 159:../../libDaisy//src/dev/oled_ssd130x.h ****             dsy_gpio_pin reset;
 160:../../libDaisy//src/dev/oled_ssd130x.h ****         } pin_config;
 161:../../libDaisy//src/dev/oled_ssd130x.h ****         void Defaults()
 162:../../libDaisy//src/dev/oled_ssd130x.h ****         {
 163:../../libDaisy//src/dev/oled_ssd130x.h ****             pin_config.sclk_delay = 0; // fast as possible?!
 164:../../libDaisy//src/dev/oled_ssd130x.h ****             // SPI peripheral config
 165:../../libDaisy//src/dev/oled_ssd130x.h ****             pin_config.sclk = {DSY_GPIOD, 3}; /**< D10 - SPI2 SCK  */
 166:../../libDaisy//src/dev/oled_ssd130x.h ****             pin_config.mosi = {DSY_GPIOC, 3}; /**< D9  - SPI2 MOSI */
 167:../../libDaisy//src/dev/oled_ssd130x.h ****             // SSD130x control pin config
 168:../../libDaisy//src/dev/oled_ssd130x.h ****             pin_config.dc    = {DSY_GPIOC, 11}; //D2
 169:../../libDaisy//src/dev/oled_ssd130x.h ****             pin_config.reset = {DSY_GPIOC, 10}; //D3
 170:../../libDaisy//src/dev/oled_ssd130x.h ****         }
 171:../../libDaisy//src/dev/oled_ssd130x.h ****     };
 172:../../libDaisy//src/dev/oled_ssd130x.h ****     void Init(const Config& config)
 173:../../libDaisy//src/dev/oled_ssd130x.h ****     {
 174:../../libDaisy//src/dev/oled_ssd130x.h ****         // Initialize both GPIO
 175:../../libDaisy//src/dev/oled_ssd130x.h ****         pin_sclk_.mode = DSY_GPIO_MODE_OUTPUT_PP;
 176:../../libDaisy//src/dev/oled_ssd130x.h ****         pin_sclk_.pin  = config.pin_config.sclk;
 177:../../libDaisy//src/dev/oled_ssd130x.h ****         dsy_gpio_init(&pin_sclk_);
 178:../../libDaisy//src/dev/oled_ssd130x.h ****         dsy_gpio_write(&pin_sclk_, 1); //ClockPolarity::LOW
 179:../../libDaisy//src/dev/oled_ssd130x.h ****         clk_delay      = config.pin_config.sclk_delay;
 180:../../libDaisy//src/dev/oled_ssd130x.h ****         pin_mosi_.mode = DSY_GPIO_MODE_OUTPUT_PP;
 181:../../libDaisy//src/dev/oled_ssd130x.h ****         pin_mosi_.pin  = config.pin_config.mosi;
 182:../../libDaisy//src/dev/oled_ssd130x.h ****         dsy_gpio_init(&pin_mosi_);
 183:../../libDaisy//src/dev/oled_ssd130x.h ****         dsy_gpio_write(&pin_mosi_, 0);
 184:../../libDaisy//src/dev/oled_ssd130x.h **** 
 185:../../libDaisy//src/dev/oled_ssd130x.h ****         pin_dc_.mode = DSY_GPIO_MODE_OUTPUT_PP;
 186:../../libDaisy//src/dev/oled_ssd130x.h ****         pin_dc_.pin  = config.pin_config.dc;
 187:../../libDaisy//src/dev/oled_ssd130x.h ****         dsy_gpio_init(&pin_dc_);
 188:../../libDaisy//src/dev/oled_ssd130x.h ****         pin_reset_.mode = DSY_GPIO_MODE_OUTPUT_PP;
 189:../../libDaisy//src/dev/oled_ssd130x.h ****         pin_reset_.pin  = config.pin_config.reset;
 190:../../libDaisy//src/dev/oled_ssd130x.h ****         dsy_gpio_init(&pin_reset_);
 191:../../libDaisy//src/dev/oled_ssd130x.h **** 
 192:../../libDaisy//src/dev/oled_ssd130x.h ****         // Reset and Configure OLED.
 193:../../libDaisy//src/dev/oled_ssd130x.h ****         dsy_gpio_write(&pin_reset_, 0);
 194:../../libDaisy//src/dev/oled_ssd130x.h ****         System::Delay(10);
 195:../../libDaisy//src/dev/oled_ssd130x.h ****         dsy_gpio_write(&pin_reset_, 1);
 196:../../libDaisy//src/dev/oled_ssd130x.h ****         System::Delay(10);
 197:../../libDaisy//src/dev/oled_ssd130x.h ****     };
 198:../../libDaisy//src/dev/oled_ssd130x.h ****     void SendCommand(uint8_t cmd)
ARM GAS  /var/folders/1y/_321xjh9623c014x9_qw12rr0000gn/T//cc4eHiNS.s 			page 17


 199:../../libDaisy//src/dev/oled_ssd130x.h ****     {
 200:../../libDaisy//src/dev/oled_ssd130x.h ****         dsy_gpio_write(&pin_dc_, 0);
 201:../../libDaisy//src/dev/oled_ssd130x.h ****         SoftSpiTransmit(cmd);
 202:../../libDaisy//src/dev/oled_ssd130x.h ****     };
 203:../../libDaisy//src/dev/oled_ssd130x.h **** 
 204:../../libDaisy//src/dev/oled_ssd130x.h ****     void SendData(uint8_t* buff, size_t size)
 205:../../libDaisy//src/dev/oled_ssd130x.h ****     {
 206:../../libDaisy//src/dev/oled_ssd130x.h ****         dsy_gpio_write(&pin_dc_, 1);
 207:../../libDaisy//src/dev/oled_ssd130x.h ****         for(size_t i = 0; i < size; i++)
 208:../../libDaisy//src/dev/oled_ssd130x.h ****             SoftSpiTransmit(buff[i]);
 209:../../libDaisy//src/dev/oled_ssd130x.h ****     };
 210:../../libDaisy//src/dev/oled_ssd130x.h **** 
 211:../../libDaisy//src/dev/oled_ssd130x.h ****   private:
 212:../../libDaisy//src/dev/oled_ssd130x.h ****     void SoftSpiTransmit(uint8_t val)
 213:../../libDaisy//src/dev/oled_ssd130x.h ****     {
 214:../../libDaisy//src/dev/oled_ssd130x.h ****         // bit flip
 215:../../libDaisy//src/dev/oled_ssd130x.h ****         val = ((val & 0x01) << 7) | ((val & 0x02) << 5) | ((val & 0x04) << 3)
 216:../../libDaisy//src/dev/oled_ssd130x.h ****               | ((val & 0x08) << 1) | ((val & 0x10) >> 1) | ((val & 0x20) >> 3)
 217:../../libDaisy//src/dev/oled_ssd130x.h ****               | ((val & 0x40) >> 5) | ((val & 0x80) >> 7);
 218:../../libDaisy//src/dev/oled_ssd130x.h **** 
 219:../../libDaisy//src/dev/oled_ssd130x.h ****         for(uint8_t bit = 0u; bit < 8u; bit++)
 220:../../libDaisy//src/dev/oled_ssd130x.h ****         {
 221:../../libDaisy//src/dev/oled_ssd130x.h ****             dsy_gpio_write(&pin_mosi_, ((val & (1 << bit)) ? 1 : 0));
 222:../../libDaisy//src/dev/oled_ssd130x.h **** 
 223:../../libDaisy//src/dev/oled_ssd130x.h ****             System::DelayTicks(clk_delay);
 224:../../libDaisy//src/dev/oled_ssd130x.h **** 
 225:../../libDaisy//src/dev/oled_ssd130x.h ****             dsy_gpio_toggle(&pin_sclk_);
 226:../../libDaisy//src/dev/oled_ssd130x.h **** 
 227:../../libDaisy//src/dev/oled_ssd130x.h ****             System::DelayTicks(clk_delay);
 228:../../libDaisy//src/dev/oled_ssd130x.h **** 
 229:../../libDaisy//src/dev/oled_ssd130x.h ****             dsy_gpio_toggle(&pin_sclk_);
 230:../../libDaisy//src/dev/oled_ssd130x.h ****         }
 231:../../libDaisy//src/dev/oled_ssd130x.h ****     }
 232:../../libDaisy//src/dev/oled_ssd130x.h **** 
 233:../../libDaisy//src/dev/oled_ssd130x.h ****     uint32_t clk_delay;
 234:../../libDaisy//src/dev/oled_ssd130x.h ****     dsy_gpio pin_sclk_;
 235:../../libDaisy//src/dev/oled_ssd130x.h ****     dsy_gpio pin_mosi_;
 236:../../libDaisy//src/dev/oled_ssd130x.h ****     dsy_gpio pin_reset_;
 237:../../libDaisy//src/dev/oled_ssd130x.h ****     dsy_gpio pin_dc_;
 238:../../libDaisy//src/dev/oled_ssd130x.h **** };
 239:../../libDaisy//src/dev/oled_ssd130x.h **** 
 240:../../libDaisy//src/dev/oled_ssd130x.h **** 
 241:../../libDaisy//src/dev/oled_ssd130x.h **** /**
 242:../../libDaisy//src/dev/oled_ssd130x.h ****  * A driver implementation for the SSD1306/SSD1309
 243:../../libDaisy//src/dev/oled_ssd130x.h ****  */
 244:../../libDaisy//src/dev/oled_ssd130x.h **** template <size_t width, size_t height, typename Transport>
 245:../../libDaisy//src/dev/oled_ssd130x.h **** class SSD130xDriver
 246:../../libDaisy//src/dev/oled_ssd130x.h **** {
 247:../../libDaisy//src/dev/oled_ssd130x.h ****   public:
 248:../../libDaisy//src/dev/oled_ssd130x.h ****     struct Config
 249:../../libDaisy//src/dev/oled_ssd130x.h ****     {
 250:../../libDaisy//src/dev/oled_ssd130x.h ****         typename Transport::Config transport_config;
 251:../../libDaisy//src/dev/oled_ssd130x.h ****     };
 252:../../libDaisy//src/dev/oled_ssd130x.h **** 
 253:../../libDaisy//src/dev/oled_ssd130x.h ****     void Init(Config config)
 254:../../libDaisy//src/dev/oled_ssd130x.h ****     {
 255:../../libDaisy//src/dev/oled_ssd130x.h ****         transport_.Init(config.transport_config);
ARM GAS  /var/folders/1y/_321xjh9623c014x9_qw12rr0000gn/T//cc4eHiNS.s 			page 18


 256:../../libDaisy//src/dev/oled_ssd130x.h **** 
 257:../../libDaisy//src/dev/oled_ssd130x.h ****         // Init routine...
 258:../../libDaisy//src/dev/oled_ssd130x.h **** 
 259:../../libDaisy//src/dev/oled_ssd130x.h ****         // Display Off
 260:../../libDaisy//src/dev/oled_ssd130x.h ****         transport_.SendCommand(0xaE);
 261:../../libDaisy//src/dev/oled_ssd130x.h ****         // Dimension dependent commands...
 262:../../libDaisy//src/dev/oled_ssd130x.h ****         switch(height)
 263:../../libDaisy//src/dev/oled_ssd130x.h ****         {
 264:../../libDaisy//src/dev/oled_ssd130x.h ****             case 16:
 265:../../libDaisy//src/dev/oled_ssd130x.h ****                 // Display Clock Divide Ratio
 266:../../libDaisy//src/dev/oled_ssd130x.h ****                 transport_.SendCommand(0xD5);
 267:../../libDaisy//src/dev/oled_ssd130x.h ****                 transport_.SendCommand(0x60);
 268:../../libDaisy//src/dev/oled_ssd130x.h ****                 // Multiplex Ratio
 269:../../libDaisy//src/dev/oled_ssd130x.h ****                 transport_.SendCommand(0xA8);
 270:../../libDaisy//src/dev/oled_ssd130x.h ****                 transport_.SendCommand(0x0F);
 271:../../libDaisy//src/dev/oled_ssd130x.h ****                 // COM Pins
 272:../../libDaisy//src/dev/oled_ssd130x.h ****                 transport_.SendCommand(0xDA);
 273:../../libDaisy//src/dev/oled_ssd130x.h ****                 transport_.SendCommand(0x02);
 274:../../libDaisy//src/dev/oled_ssd130x.h ****                 break;
 275:../../libDaisy//src/dev/oled_ssd130x.h ****             case 32:
 276:../../libDaisy//src/dev/oled_ssd130x.h ****                 // Display Clock Divide Ratio
 277:../../libDaisy//src/dev/oled_ssd130x.h ****                 transport_.SendCommand(0xD5);
 278:../../libDaisy//src/dev/oled_ssd130x.h ****                 transport_.SendCommand(0x80);
 279:../../libDaisy//src/dev/oled_ssd130x.h ****                 // Multiplex Ratio
 280:../../libDaisy//src/dev/oled_ssd130x.h ****                 transport_.SendCommand(0xA8);
 281:../../libDaisy//src/dev/oled_ssd130x.h ****                 transport_.SendCommand(0x1F);
 282:../../libDaisy//src/dev/oled_ssd130x.h ****                 // COM Pins
 283:../../libDaisy//src/dev/oled_ssd130x.h ****                 transport_.SendCommand(0xDA);
 284:../../libDaisy//src/dev/oled_ssd130x.h ****                 if(width == 64)
 285:../../libDaisy//src/dev/oled_ssd130x.h ****                 {
 286:../../libDaisy//src/dev/oled_ssd130x.h ****                     transport_.SendCommand(0x12);
 287:../../libDaisy//src/dev/oled_ssd130x.h ****                 }
 288:../../libDaisy//src/dev/oled_ssd130x.h ****                 else
 289:../../libDaisy//src/dev/oled_ssd130x.h ****                 {
 290:../../libDaisy//src/dev/oled_ssd130x.h ****                     transport_.SendCommand(0x02);
 291:../../libDaisy//src/dev/oled_ssd130x.h ****                 }
 292:../../libDaisy//src/dev/oled_ssd130x.h **** 
 293:../../libDaisy//src/dev/oled_ssd130x.h ****                 break;
 294:../../libDaisy//src/dev/oled_ssd130x.h ****             case 48:
 295:../../libDaisy//src/dev/oled_ssd130x.h ****                 // Display Clock Divide Ratio
 296:../../libDaisy//src/dev/oled_ssd130x.h ****                 transport_.SendCommand(0xD5);
 297:../../libDaisy//src/dev/oled_ssd130x.h ****                 transport_.SendCommand(0x80);
 298:../../libDaisy//src/dev/oled_ssd130x.h ****                 // Multiplex Ratio
 299:../../libDaisy//src/dev/oled_ssd130x.h ****                 transport_.SendCommand(0xA8);
 300:../../libDaisy//src/dev/oled_ssd130x.h ****                 transport_.SendCommand(0x2F);
 301:../../libDaisy//src/dev/oled_ssd130x.h ****                 // COM Pins
 302:../../libDaisy//src/dev/oled_ssd130x.h ****                 transport_.SendCommand(0xDA);
 303:../../libDaisy//src/dev/oled_ssd130x.h ****                 transport_.SendCommand(0x12);
 304:../../libDaisy//src/dev/oled_ssd130x.h ****                 break;
 305:../../libDaisy//src/dev/oled_ssd130x.h ****             default: // 128
 306:../../libDaisy//src/dev/oled_ssd130x.h ****                 // Display Clock Divide Ratio
 307:../../libDaisy//src/dev/oled_ssd130x.h ****                 transport_.SendCommand(0xD5);
 308:../../libDaisy//src/dev/oled_ssd130x.h ****                 transport_.SendCommand(0x80);
 309:../../libDaisy//src/dev/oled_ssd130x.h ****                 // Multiplex Ratio
 310:../../libDaisy//src/dev/oled_ssd130x.h ****                 transport_.SendCommand(0xA8);
 311:../../libDaisy//src/dev/oled_ssd130x.h ****                 transport_.SendCommand(0x3F);
 312:../../libDaisy//src/dev/oled_ssd130x.h ****                 // COM Pins
ARM GAS  /var/folders/1y/_321xjh9623c014x9_qw12rr0000gn/T//cc4eHiNS.s 			page 19


 313:../../libDaisy//src/dev/oled_ssd130x.h ****                 transport_.SendCommand(0xDA);
 314:../../libDaisy//src/dev/oled_ssd130x.h ****                 transport_.SendCommand(0x12);
 315:../../libDaisy//src/dev/oled_ssd130x.h ****                 break;
 316:../../libDaisy//src/dev/oled_ssd130x.h ****         }
 317:../../libDaisy//src/dev/oled_ssd130x.h **** 
 318:../../libDaisy//src/dev/oled_ssd130x.h ****         // Display Offset
 319:../../libDaisy//src/dev/oled_ssd130x.h ****         transport_.SendCommand(0xD3);
 320:../../libDaisy//src/dev/oled_ssd130x.h ****         transport_.SendCommand(0x00);
 321:../../libDaisy//src/dev/oled_ssd130x.h ****         // Start Line Address
 322:../../libDaisy//src/dev/oled_ssd130x.h ****         transport_.SendCommand(0x40);
 323:../../libDaisy//src/dev/oled_ssd130x.h ****         // Normal Display
 324:../../libDaisy//src/dev/oled_ssd130x.h ****         transport_.SendCommand(0xA6);
 325:../../libDaisy//src/dev/oled_ssd130x.h ****         // All On Resume
 326:../../libDaisy//src/dev/oled_ssd130x.h ****         transport_.SendCommand(0xA4);
 327:../../libDaisy//src/dev/oled_ssd130x.h ****         // Charge Pump
 328:../../libDaisy//src/dev/oled_ssd130x.h ****         transport_.SendCommand(0x8D);
 329:../../libDaisy//src/dev/oled_ssd130x.h ****         transport_.SendCommand(0x14);
 330:../../libDaisy//src/dev/oled_ssd130x.h ****         // Set Segment Remap
 331:../../libDaisy//src/dev/oled_ssd130x.h ****         transport_.SendCommand(0xA1);
 332:../../libDaisy//src/dev/oled_ssd130x.h ****         // COM Output Scan Direction
 333:../../libDaisy//src/dev/oled_ssd130x.h ****         transport_.SendCommand(0xC8);
 334:../../libDaisy//src/dev/oled_ssd130x.h ****         // Contrast Control
 335:../../libDaisy//src/dev/oled_ssd130x.h ****         transport_.SendCommand(0x81);
 336:../../libDaisy//src/dev/oled_ssd130x.h ****         transport_.SendCommand(0x8F);
 337:../../libDaisy//src/dev/oled_ssd130x.h ****         // Pre Charge
 338:../../libDaisy//src/dev/oled_ssd130x.h ****         transport_.SendCommand(0xD9);
 339:../../libDaisy//src/dev/oled_ssd130x.h ****         transport_.SendCommand(0x25);
 340:../../libDaisy//src/dev/oled_ssd130x.h ****         // VCOM Detect
 341:../../libDaisy//src/dev/oled_ssd130x.h ****         transport_.SendCommand(0xDB);
 342:../../libDaisy//src/dev/oled_ssd130x.h ****         transport_.SendCommand(0x34);
 343:../../libDaisy//src/dev/oled_ssd130x.h **** 
 344:../../libDaisy//src/dev/oled_ssd130x.h **** 
 345:../../libDaisy//src/dev/oled_ssd130x.h ****         // Display On
 346:../../libDaisy//src/dev/oled_ssd130x.h ****         transport_.SendCommand(0xAF); //--turn on oled panel
 347:../../libDaisy//src/dev/oled_ssd130x.h ****     };
 348:../../libDaisy//src/dev/oled_ssd130x.h **** 
 349:../../libDaisy//src/dev/oled_ssd130x.h ****     size_t Width() const { return width; };
 350:../../libDaisy//src/dev/oled_ssd130x.h ****     size_t Height() const { return height; };
 351:../../libDaisy//src/dev/oled_ssd130x.h **** 
 352:../../libDaisy//src/dev/oled_ssd130x.h ****     void DrawPixel(uint_fast8_t x, uint_fast8_t y, bool on)
 139              		.loc 4 352 10 view .LVU19
 140              	.LBB286:
 141              	.LBI286:
 142              		.loc 4 352 10 view .LVU20
 143              	.LBB287:
 353:../../libDaisy//src/dev/oled_ssd130x.h ****     {
 354:../../libDaisy//src/dev/oled_ssd130x.h ****         if(x >= width || y >= height)
 355:../../libDaisy//src/dev/oled_ssd130x.h ****             return;
 356:../../libDaisy//src/dev/oled_ssd130x.h ****         if(on)
 357:../../libDaisy//src/dev/oled_ssd130x.h ****             buffer_[x + (y / 8) * width] |= (1 << (y % 8));
 358:../../libDaisy//src/dev/oled_ssd130x.h ****         else
 359:../../libDaisy//src/dev/oled_ssd130x.h ****             buffer_[x + (y / 8) * width] &= ~(1 << (y % 8));
 144              		.loc 4 359 28 is_stmt 0 view .LVU21
 145 0018 D308     		lsrs	r3, r2, #3
 146              		.loc 4 359 55 view .LVU22
 147 001a 02F00701 		and	r1, r2, #7
 148              		.loc 4 359 49 view .LVU23
ARM GAS  /var/folders/1y/_321xjh9623c014x9_qw12rr0000gn/T//cc4eHiNS.s 			page 20


 149 001e 0124     		movs	r4, #1
 150              		.loc 4 359 42 view .LVU24
 151 0020 05EBC313 		add	r3, r5, r3, lsl #7
 152              		.loc 4 359 49 view .LVU25
 153 0024 04FA01F0 		lsl	r0, r4, r1
 154              	.LBE287:
 155              	.LBE286:
 156              	.LBE285:
 157              	.LBE284:
 158              		.loc 3 268 17 view .LVU26
 159 0028 2244     		add	r2, r2, r4
 160              	.LVL8:
 161              	.LBB294:
 162              	.LBB292:
 163              	.LBB290:
 164              	.LBB288:
 165              		.loc 4 359 42 view .LVU27
 166 002a 5344     		add	r3, r3, r10
 167              	.LBE288:
 168              	.LBE290:
 169              	.LBE292:
 170              	.LBE294:
 171              		.loc 3 268 44 view .LVU28
 172 002c 342A     		cmp	r2, #52
 173              	.LBB295:
 174              	.LBB293:
 175              	.LBB291:
 176              	.LBB289:
 177              		.loc 4 359 42 view .LVU29
 178 002e 93F86414 		ldrb	r1, [r3, #1124]	@ zero_extendqisi2
 179 0032 21EA0001 		bic	r1, r1, r0
 180 0036 83F86414 		strb	r1, [r3, #1124]
 181              	.LVL9:
 182              		.loc 4 359 42 view .LVU30
 183              	.LBE289:
 184              	.LBE291:
 185              	.LBE293:
 186              	.LBE295:
 187              		.loc 3 268 17 is_stmt 1 view .LVU31
 188              		.loc 3 268 44 view .LVU32
 189 003a EDD1     		bne	.L5
 190              	.LBE283:
 266:../../libDaisy//src/hid/disp/display.h ****             {
 191              		.loc 3 266 13 view .LVU33
 192 003c 2544     		add	r5, r5, r4
 193              	.LVL10:
 266:../../libDaisy//src/hid/disp/display.h ****             {
 194              		.loc 3 266 40 view .LVU34
 195 003e 7F2D     		cmp	r5, #127
 196 0040 E9D1     		bne	.L6
 197 0042 0023     		movs	r3, #0
 198 0044 0AF51072 		add	r2, r10, #576
 199              	.LVL11:
 266:../../libDaisy//src/hid/disp/display.h ****             {
 200              		.loc 3 266 40 is_stmt 0 view .LVU35
 201 0048 A146     		mov	r9, r4
 202              	.LBE297:
ARM GAS  /var/folders/1y/_321xjh9623c014x9_qw12rr0000gn/T//cc4eHiNS.s 			page 21


 203              	.LBE299:
 204              	.LBE301:
 269:Dubby.cpp     ****         int prev_x = 0;
 270:Dubby.cpp     ****         int prev_y = (OLED_HEIGHT - 15) / 2;
 205              		.loc 2 270 13 view .LVU36
 206 004a 1826     		movs	r6, #24
 207              	.LBB302:
 208              	.LBB300:
 209              	.LBB298:
 266:../../libDaisy//src/hid/disp/display.h ****             {
 210              		.loc 3 266 40 view .LVU37
 211 004c 0193     		str	r3, [sp, #4]
 212 004e 0492     		str	r2, [sp, #16]
 213 0050 06E0     		b	.L21
 214              	.LVL12:
 215              	.L9:
 266:../../libDaisy//src/hid/disp/display.h ****             {
 216              		.loc 3 266 40 view .LVU38
 217 0052 019B     		ldr	r3, [sp, #4]
 218 0054 09F10109 		add	r9, r9, #1
 219              	.LVL13:
 220              	.LBB296:
 221              		.loc 3 268 34 view .LVU39
 222 0058 2646     		mov	r6, r4
 223 005a 7E33     		adds	r3, r3, #126
 224 005c 0193     		str	r3, [sp, #4]
 225              	.LBE296:
 226              	.LBE298:
 227              	.LBE300:
 228              	.LBE302:
 229              	.LBB303:
 230              	.LBB304:
 271:Dubby.cpp     ****         for(size_t i = 0; i < AUDIO_BLOCK_SIZE; i++)
 272:Dubby.cpp     ****         {
 273:Dubby.cpp     ****             int y = 1 + std::min(std::max((OLED_HEIGHT - 15) / 2
 274:Dubby.cpp     ****                                         - int(scope_buffer[i] * 150),
 275:Dubby.cpp     ****                                     0),
 276:Dubby.cpp     ****                             OLED_HEIGHT - 15);
 277:Dubby.cpp     ****             int x = 1 + i * (OLED_WIDTH - 2) / AUDIO_BLOCK_SIZE;
 278:Dubby.cpp     ****             if(i != 0)
 279:Dubby.cpp     ****             {
 280:Dubby.cpp     ****                 display.DrawLine(prev_x, prev_y, x, y, true);
 281:Dubby.cpp     ****             }
 282:Dubby.cpp     ****             prev_x = x;
 231              		.loc 2 282 20 view .LVU40
 232 005e 2B46     		mov	r3, r5
 233              	.LVL14:
 234              	.L21:
 273:Dubby.cpp     ****                                         - int(scope_buffer[i] * 150),
 235              		.loc 2 273 13 is_stmt 1 view .LVU41
 236              	.LBB305:
 237              	.LBI305:
 238              		.file 5 "/Library/DaisyToolchain/0.2.0/arm/arm-none-eabi/include/c++/10.3.1/bits/stl_algobase.h"
   1:/Library/DaisyToolchain/0.2.0/arm/arm-none-eabi/include/c++/10.3.1/bits/stl_algobase.h **** // Core algorithmic facilities -*- C++ -*-
   2:/Library/DaisyToolchain/0.2.0/arm/arm-none-eabi/include/c++/10.3.1/bits/stl_algobase.h **** 
   3:/Library/DaisyToolchain/0.2.0/arm/arm-none-eabi/include/c++/10.3.1/bits/stl_algobase.h **** // Copyright (C) 2001-2020 Free Software Foundation, Inc.
   4:/Library/DaisyToolchain/0.2.0/arm/arm-none-eabi/include/c++/10.3.1/bits/stl_algobase.h **** //
ARM GAS  /var/folders/1y/_321xjh9623c014x9_qw12rr0000gn/T//cc4eHiNS.s 			page 22


   5:/Library/DaisyToolchain/0.2.0/arm/arm-none-eabi/include/c++/10.3.1/bits/stl_algobase.h **** // This file is part of the GNU ISO C++ Library.  This library is free
   6:/Library/DaisyToolchain/0.2.0/arm/arm-none-eabi/include/c++/10.3.1/bits/stl_algobase.h **** // software; you can redistribute it and/or modify it under the
   7:/Library/DaisyToolchain/0.2.0/arm/arm-none-eabi/include/c++/10.3.1/bits/stl_algobase.h **** // terms of the GNU General Public License as published by the
   8:/Library/DaisyToolchain/0.2.0/arm/arm-none-eabi/include/c++/10.3.1/bits/stl_algobase.h **** // Free Software Foundation; either version 3, or (at your option)
   9:/Library/DaisyToolchain/0.2.0/arm/arm-none-eabi/include/c++/10.3.1/bits/stl_algobase.h **** // any later version.
  10:/Library/DaisyToolchain/0.2.0/arm/arm-none-eabi/include/c++/10.3.1/bits/stl_algobase.h **** 
  11:/Library/DaisyToolchain/0.2.0/arm/arm-none-eabi/include/c++/10.3.1/bits/stl_algobase.h **** // This library is distributed in the hope that it will be useful,
  12:/Library/DaisyToolchain/0.2.0/arm/arm-none-eabi/include/c++/10.3.1/bits/stl_algobase.h **** // but WITHOUT ANY WARRANTY; without even the implied warranty of
  13:/Library/DaisyToolchain/0.2.0/arm/arm-none-eabi/include/c++/10.3.1/bits/stl_algobase.h **** // MERCHANTABILITY or FITNESS FOR A PARTICULAR PURPOSE.  See the
  14:/Library/DaisyToolchain/0.2.0/arm/arm-none-eabi/include/c++/10.3.1/bits/stl_algobase.h **** // GNU General Public License for more details.
  15:/Library/DaisyToolchain/0.2.0/arm/arm-none-eabi/include/c++/10.3.1/bits/stl_algobase.h **** 
  16:/Library/DaisyToolchain/0.2.0/arm/arm-none-eabi/include/c++/10.3.1/bits/stl_algobase.h **** // Under Section 7 of GPL version 3, you are granted additional
  17:/Library/DaisyToolchain/0.2.0/arm/arm-none-eabi/include/c++/10.3.1/bits/stl_algobase.h **** // permissions described in the GCC Runtime Library Exception, version
  18:/Library/DaisyToolchain/0.2.0/arm/arm-none-eabi/include/c++/10.3.1/bits/stl_algobase.h **** // 3.1, as published by the Free Software Foundation.
  19:/Library/DaisyToolchain/0.2.0/arm/arm-none-eabi/include/c++/10.3.1/bits/stl_algobase.h **** 
  20:/Library/DaisyToolchain/0.2.0/arm/arm-none-eabi/include/c++/10.3.1/bits/stl_algobase.h **** // You should have received a copy of the GNU General Public License and
  21:/Library/DaisyToolchain/0.2.0/arm/arm-none-eabi/include/c++/10.3.1/bits/stl_algobase.h **** // a copy of the GCC Runtime Library Exception along with this program;
  22:/Library/DaisyToolchain/0.2.0/arm/arm-none-eabi/include/c++/10.3.1/bits/stl_algobase.h **** // see the files COPYING3 and COPYING.RUNTIME respectively.  If not, see
  23:/Library/DaisyToolchain/0.2.0/arm/arm-none-eabi/include/c++/10.3.1/bits/stl_algobase.h **** // <http://www.gnu.org/licenses/>.
  24:/Library/DaisyToolchain/0.2.0/arm/arm-none-eabi/include/c++/10.3.1/bits/stl_algobase.h **** 
  25:/Library/DaisyToolchain/0.2.0/arm/arm-none-eabi/include/c++/10.3.1/bits/stl_algobase.h **** /*
  26:/Library/DaisyToolchain/0.2.0/arm/arm-none-eabi/include/c++/10.3.1/bits/stl_algobase.h ****  *
  27:/Library/DaisyToolchain/0.2.0/arm/arm-none-eabi/include/c++/10.3.1/bits/stl_algobase.h ****  * Copyright (c) 1994
  28:/Library/DaisyToolchain/0.2.0/arm/arm-none-eabi/include/c++/10.3.1/bits/stl_algobase.h ****  * Hewlett-Packard Company
  29:/Library/DaisyToolchain/0.2.0/arm/arm-none-eabi/include/c++/10.3.1/bits/stl_algobase.h ****  *
  30:/Library/DaisyToolchain/0.2.0/arm/arm-none-eabi/include/c++/10.3.1/bits/stl_algobase.h ****  * Permission to use, copy, modify, distribute and sell this software
  31:/Library/DaisyToolchain/0.2.0/arm/arm-none-eabi/include/c++/10.3.1/bits/stl_algobase.h ****  * and its documentation for any purpose is hereby granted without fee,
  32:/Library/DaisyToolchain/0.2.0/arm/arm-none-eabi/include/c++/10.3.1/bits/stl_algobase.h ****  * provided that the above copyright notice appear in all copies and
  33:/Library/DaisyToolchain/0.2.0/arm/arm-none-eabi/include/c++/10.3.1/bits/stl_algobase.h ****  * that both that copyright notice and this permission notice appear
  34:/Library/DaisyToolchain/0.2.0/arm/arm-none-eabi/include/c++/10.3.1/bits/stl_algobase.h ****  * in supporting documentation.  Hewlett-Packard Company makes no
  35:/Library/DaisyToolchain/0.2.0/arm/arm-none-eabi/include/c++/10.3.1/bits/stl_algobase.h ****  * representations about the suitability of this software for any
  36:/Library/DaisyToolchain/0.2.0/arm/arm-none-eabi/include/c++/10.3.1/bits/stl_algobase.h ****  * purpose.  It is provided "as is" without express or implied warranty.
  37:/Library/DaisyToolchain/0.2.0/arm/arm-none-eabi/include/c++/10.3.1/bits/stl_algobase.h ****  *
  38:/Library/DaisyToolchain/0.2.0/arm/arm-none-eabi/include/c++/10.3.1/bits/stl_algobase.h ****  *
  39:/Library/DaisyToolchain/0.2.0/arm/arm-none-eabi/include/c++/10.3.1/bits/stl_algobase.h ****  * Copyright (c) 1996-1998
  40:/Library/DaisyToolchain/0.2.0/arm/arm-none-eabi/include/c++/10.3.1/bits/stl_algobase.h ****  * Silicon Graphics Computer Systems, Inc.
  41:/Library/DaisyToolchain/0.2.0/arm/arm-none-eabi/include/c++/10.3.1/bits/stl_algobase.h ****  *
  42:/Library/DaisyToolchain/0.2.0/arm/arm-none-eabi/include/c++/10.3.1/bits/stl_algobase.h ****  * Permission to use, copy, modify, distribute and sell this software
  43:/Library/DaisyToolchain/0.2.0/arm/arm-none-eabi/include/c++/10.3.1/bits/stl_algobase.h ****  * and its documentation for any purpose is hereby granted without fee,
  44:/Library/DaisyToolchain/0.2.0/arm/arm-none-eabi/include/c++/10.3.1/bits/stl_algobase.h ****  * provided that the above copyright notice appear in all copies and
  45:/Library/DaisyToolchain/0.2.0/arm/arm-none-eabi/include/c++/10.3.1/bits/stl_algobase.h ****  * that both that copyright notice and this permission notice appear
  46:/Library/DaisyToolchain/0.2.0/arm/arm-none-eabi/include/c++/10.3.1/bits/stl_algobase.h ****  * in supporting documentation.  Silicon Graphics makes no
  47:/Library/DaisyToolchain/0.2.0/arm/arm-none-eabi/include/c++/10.3.1/bits/stl_algobase.h ****  * representations about the suitability of this software for any
  48:/Library/DaisyToolchain/0.2.0/arm/arm-none-eabi/include/c++/10.3.1/bits/stl_algobase.h ****  * purpose.  It is provided "as is" without express or implied warranty.
  49:/Library/DaisyToolchain/0.2.0/arm/arm-none-eabi/include/c++/10.3.1/bits/stl_algobase.h ****  */
  50:/Library/DaisyToolchain/0.2.0/arm/arm-none-eabi/include/c++/10.3.1/bits/stl_algobase.h **** 
  51:/Library/DaisyToolchain/0.2.0/arm/arm-none-eabi/include/c++/10.3.1/bits/stl_algobase.h **** /** @file bits/stl_algobase.h
  52:/Library/DaisyToolchain/0.2.0/arm/arm-none-eabi/include/c++/10.3.1/bits/stl_algobase.h ****  *  This is an internal header file, included by other library headers.
  53:/Library/DaisyToolchain/0.2.0/arm/arm-none-eabi/include/c++/10.3.1/bits/stl_algobase.h ****  *  Do not attempt to use it directly. @headername{algorithm}
  54:/Library/DaisyToolchain/0.2.0/arm/arm-none-eabi/include/c++/10.3.1/bits/stl_algobase.h ****  */
  55:/Library/DaisyToolchain/0.2.0/arm/arm-none-eabi/include/c++/10.3.1/bits/stl_algobase.h **** 
  56:/Library/DaisyToolchain/0.2.0/arm/arm-none-eabi/include/c++/10.3.1/bits/stl_algobase.h **** #ifndef _STL_ALGOBASE_H
  57:/Library/DaisyToolchain/0.2.0/arm/arm-none-eabi/include/c++/10.3.1/bits/stl_algobase.h **** #define _STL_ALGOBASE_H 1
  58:/Library/DaisyToolchain/0.2.0/arm/arm-none-eabi/include/c++/10.3.1/bits/stl_algobase.h **** 
  59:/Library/DaisyToolchain/0.2.0/arm/arm-none-eabi/include/c++/10.3.1/bits/stl_algobase.h **** #include <bits/c++config.h>
  60:/Library/DaisyToolchain/0.2.0/arm/arm-none-eabi/include/c++/10.3.1/bits/stl_algobase.h **** #include <bits/functexcept.h>
  61:/Library/DaisyToolchain/0.2.0/arm/arm-none-eabi/include/c++/10.3.1/bits/stl_algobase.h **** #include <bits/cpp_type_traits.h>
ARM GAS  /var/folders/1y/_321xjh9623c014x9_qw12rr0000gn/T//cc4eHiNS.s 			page 23


  62:/Library/DaisyToolchain/0.2.0/arm/arm-none-eabi/include/c++/10.3.1/bits/stl_algobase.h **** #include <ext/type_traits.h>
  63:/Library/DaisyToolchain/0.2.0/arm/arm-none-eabi/include/c++/10.3.1/bits/stl_algobase.h **** #include <ext/numeric_traits.h>
  64:/Library/DaisyToolchain/0.2.0/arm/arm-none-eabi/include/c++/10.3.1/bits/stl_algobase.h **** #include <bits/stl_pair.h>
  65:/Library/DaisyToolchain/0.2.0/arm/arm-none-eabi/include/c++/10.3.1/bits/stl_algobase.h **** #include <bits/stl_iterator_base_types.h>
  66:/Library/DaisyToolchain/0.2.0/arm/arm-none-eabi/include/c++/10.3.1/bits/stl_algobase.h **** #include <bits/stl_iterator_base_funcs.h>
  67:/Library/DaisyToolchain/0.2.0/arm/arm-none-eabi/include/c++/10.3.1/bits/stl_algobase.h **** #include <bits/stl_iterator.h>
  68:/Library/DaisyToolchain/0.2.0/arm/arm-none-eabi/include/c++/10.3.1/bits/stl_algobase.h **** #include <bits/concept_check.h>
  69:/Library/DaisyToolchain/0.2.0/arm/arm-none-eabi/include/c++/10.3.1/bits/stl_algobase.h **** #include <debug/debug.h>
  70:/Library/DaisyToolchain/0.2.0/arm/arm-none-eabi/include/c++/10.3.1/bits/stl_algobase.h **** #include <bits/move.h> // For std::swap
  71:/Library/DaisyToolchain/0.2.0/arm/arm-none-eabi/include/c++/10.3.1/bits/stl_algobase.h **** #include <bits/predefined_ops.h>
  72:/Library/DaisyToolchain/0.2.0/arm/arm-none-eabi/include/c++/10.3.1/bits/stl_algobase.h **** #if __cplusplus >= 201103L
  73:/Library/DaisyToolchain/0.2.0/arm/arm-none-eabi/include/c++/10.3.1/bits/stl_algobase.h **** # include <type_traits>
  74:/Library/DaisyToolchain/0.2.0/arm/arm-none-eabi/include/c++/10.3.1/bits/stl_algobase.h **** #endif
  75:/Library/DaisyToolchain/0.2.0/arm/arm-none-eabi/include/c++/10.3.1/bits/stl_algobase.h **** #if __cplusplus > 201703L
  76:/Library/DaisyToolchain/0.2.0/arm/arm-none-eabi/include/c++/10.3.1/bits/stl_algobase.h **** # include <compare>
  77:/Library/DaisyToolchain/0.2.0/arm/arm-none-eabi/include/c++/10.3.1/bits/stl_algobase.h **** #endif
  78:/Library/DaisyToolchain/0.2.0/arm/arm-none-eabi/include/c++/10.3.1/bits/stl_algobase.h **** 
  79:/Library/DaisyToolchain/0.2.0/arm/arm-none-eabi/include/c++/10.3.1/bits/stl_algobase.h **** namespace std _GLIBCXX_VISIBILITY(default)
  80:/Library/DaisyToolchain/0.2.0/arm/arm-none-eabi/include/c++/10.3.1/bits/stl_algobase.h **** {
  81:/Library/DaisyToolchain/0.2.0/arm/arm-none-eabi/include/c++/10.3.1/bits/stl_algobase.h **** _GLIBCXX_BEGIN_NAMESPACE_VERSION
  82:/Library/DaisyToolchain/0.2.0/arm/arm-none-eabi/include/c++/10.3.1/bits/stl_algobase.h **** 
  83:/Library/DaisyToolchain/0.2.0/arm/arm-none-eabi/include/c++/10.3.1/bits/stl_algobase.h ****   /*
  84:/Library/DaisyToolchain/0.2.0/arm/arm-none-eabi/include/c++/10.3.1/bits/stl_algobase.h ****    * A constexpr wrapper for __builtin_memcmp.
  85:/Library/DaisyToolchain/0.2.0/arm/arm-none-eabi/include/c++/10.3.1/bits/stl_algobase.h ****    * @param __num The number of elements of type _Tp (not bytes).
  86:/Library/DaisyToolchain/0.2.0/arm/arm-none-eabi/include/c++/10.3.1/bits/stl_algobase.h ****    */
  87:/Library/DaisyToolchain/0.2.0/arm/arm-none-eabi/include/c++/10.3.1/bits/stl_algobase.h ****   template<typename _Tp, typename _Up>
  88:/Library/DaisyToolchain/0.2.0/arm/arm-none-eabi/include/c++/10.3.1/bits/stl_algobase.h ****     _GLIBCXX14_CONSTEXPR
  89:/Library/DaisyToolchain/0.2.0/arm/arm-none-eabi/include/c++/10.3.1/bits/stl_algobase.h ****     inline int
  90:/Library/DaisyToolchain/0.2.0/arm/arm-none-eabi/include/c++/10.3.1/bits/stl_algobase.h ****     __memcmp(const _Tp* __first1, const _Up* __first2, size_t __num)
  91:/Library/DaisyToolchain/0.2.0/arm/arm-none-eabi/include/c++/10.3.1/bits/stl_algobase.h ****     {
  92:/Library/DaisyToolchain/0.2.0/arm/arm-none-eabi/include/c++/10.3.1/bits/stl_algobase.h **** #if __cplusplus >= 201103L
  93:/Library/DaisyToolchain/0.2.0/arm/arm-none-eabi/include/c++/10.3.1/bits/stl_algobase.h ****       static_assert(sizeof(_Tp) == sizeof(_Up), "can be compared with memcmp");
  94:/Library/DaisyToolchain/0.2.0/arm/arm-none-eabi/include/c++/10.3.1/bits/stl_algobase.h **** #endif
  95:/Library/DaisyToolchain/0.2.0/arm/arm-none-eabi/include/c++/10.3.1/bits/stl_algobase.h **** #ifdef __cpp_lib_is_constant_evaluated
  96:/Library/DaisyToolchain/0.2.0/arm/arm-none-eabi/include/c++/10.3.1/bits/stl_algobase.h ****       if (std::is_constant_evaluated())
  97:/Library/DaisyToolchain/0.2.0/arm/arm-none-eabi/include/c++/10.3.1/bits/stl_algobase.h **** 	{
  98:/Library/DaisyToolchain/0.2.0/arm/arm-none-eabi/include/c++/10.3.1/bits/stl_algobase.h **** 	  for(; __num > 0; ++__first1, ++__first2, --__num)
  99:/Library/DaisyToolchain/0.2.0/arm/arm-none-eabi/include/c++/10.3.1/bits/stl_algobase.h **** 	    if (*__first1 != *__first2)
 100:/Library/DaisyToolchain/0.2.0/arm/arm-none-eabi/include/c++/10.3.1/bits/stl_algobase.h **** 	      return *__first1 < *__first2 ? -1 : 1;
 101:/Library/DaisyToolchain/0.2.0/arm/arm-none-eabi/include/c++/10.3.1/bits/stl_algobase.h **** 	  return 0;
 102:/Library/DaisyToolchain/0.2.0/arm/arm-none-eabi/include/c++/10.3.1/bits/stl_algobase.h **** 	}
 103:/Library/DaisyToolchain/0.2.0/arm/arm-none-eabi/include/c++/10.3.1/bits/stl_algobase.h ****       else
 104:/Library/DaisyToolchain/0.2.0/arm/arm-none-eabi/include/c++/10.3.1/bits/stl_algobase.h **** #endif
 105:/Library/DaisyToolchain/0.2.0/arm/arm-none-eabi/include/c++/10.3.1/bits/stl_algobase.h **** 	return __builtin_memcmp(__first1, __first2, sizeof(_Tp) * __num);
 106:/Library/DaisyToolchain/0.2.0/arm/arm-none-eabi/include/c++/10.3.1/bits/stl_algobase.h ****     }
 107:/Library/DaisyToolchain/0.2.0/arm/arm-none-eabi/include/c++/10.3.1/bits/stl_algobase.h **** 
 108:/Library/DaisyToolchain/0.2.0/arm/arm-none-eabi/include/c++/10.3.1/bits/stl_algobase.h **** #if __cplusplus < 201103L
 109:/Library/DaisyToolchain/0.2.0/arm/arm-none-eabi/include/c++/10.3.1/bits/stl_algobase.h ****   // See http://gcc.gnu.org/ml/libstdc++/2004-08/msg00167.html: in a
 110:/Library/DaisyToolchain/0.2.0/arm/arm-none-eabi/include/c++/10.3.1/bits/stl_algobase.h ****   // nutshell, we are partially implementing the resolution of DR 187,
 111:/Library/DaisyToolchain/0.2.0/arm/arm-none-eabi/include/c++/10.3.1/bits/stl_algobase.h ****   // when it's safe, i.e., the value_types are equal.
 112:/Library/DaisyToolchain/0.2.0/arm/arm-none-eabi/include/c++/10.3.1/bits/stl_algobase.h ****   template<bool _BoolType>
 113:/Library/DaisyToolchain/0.2.0/arm/arm-none-eabi/include/c++/10.3.1/bits/stl_algobase.h ****     struct __iter_swap
 114:/Library/DaisyToolchain/0.2.0/arm/arm-none-eabi/include/c++/10.3.1/bits/stl_algobase.h ****     {
 115:/Library/DaisyToolchain/0.2.0/arm/arm-none-eabi/include/c++/10.3.1/bits/stl_algobase.h ****       template<typename _ForwardIterator1, typename _ForwardIterator2>
 116:/Library/DaisyToolchain/0.2.0/arm/arm-none-eabi/include/c++/10.3.1/bits/stl_algobase.h **** 	static void
 117:/Library/DaisyToolchain/0.2.0/arm/arm-none-eabi/include/c++/10.3.1/bits/stl_algobase.h **** 	iter_swap(_ForwardIterator1 __a, _ForwardIterator2 __b)
 118:/Library/DaisyToolchain/0.2.0/arm/arm-none-eabi/include/c++/10.3.1/bits/stl_algobase.h **** 	{
ARM GAS  /var/folders/1y/_321xjh9623c014x9_qw12rr0000gn/T//cc4eHiNS.s 			page 24


 119:/Library/DaisyToolchain/0.2.0/arm/arm-none-eabi/include/c++/10.3.1/bits/stl_algobase.h **** 	  typedef typename iterator_traits<_ForwardIterator1>::value_type
 120:/Library/DaisyToolchain/0.2.0/arm/arm-none-eabi/include/c++/10.3.1/bits/stl_algobase.h **** 	    _ValueType1;
 121:/Library/DaisyToolchain/0.2.0/arm/arm-none-eabi/include/c++/10.3.1/bits/stl_algobase.h **** 	  _ValueType1 __tmp = *__a;
 122:/Library/DaisyToolchain/0.2.0/arm/arm-none-eabi/include/c++/10.3.1/bits/stl_algobase.h **** 	  *__a = *__b;
 123:/Library/DaisyToolchain/0.2.0/arm/arm-none-eabi/include/c++/10.3.1/bits/stl_algobase.h **** 	  *__b = __tmp;
 124:/Library/DaisyToolchain/0.2.0/arm/arm-none-eabi/include/c++/10.3.1/bits/stl_algobase.h **** 	}
 125:/Library/DaisyToolchain/0.2.0/arm/arm-none-eabi/include/c++/10.3.1/bits/stl_algobase.h ****     };
 126:/Library/DaisyToolchain/0.2.0/arm/arm-none-eabi/include/c++/10.3.1/bits/stl_algobase.h **** 
 127:/Library/DaisyToolchain/0.2.0/arm/arm-none-eabi/include/c++/10.3.1/bits/stl_algobase.h ****   template<>
 128:/Library/DaisyToolchain/0.2.0/arm/arm-none-eabi/include/c++/10.3.1/bits/stl_algobase.h ****     struct __iter_swap<true>
 129:/Library/DaisyToolchain/0.2.0/arm/arm-none-eabi/include/c++/10.3.1/bits/stl_algobase.h ****     {
 130:/Library/DaisyToolchain/0.2.0/arm/arm-none-eabi/include/c++/10.3.1/bits/stl_algobase.h ****       template<typename _ForwardIterator1, typename _ForwardIterator2>
 131:/Library/DaisyToolchain/0.2.0/arm/arm-none-eabi/include/c++/10.3.1/bits/stl_algobase.h **** 	static void
 132:/Library/DaisyToolchain/0.2.0/arm/arm-none-eabi/include/c++/10.3.1/bits/stl_algobase.h **** 	iter_swap(_ForwardIterator1 __a, _ForwardIterator2 __b)
 133:/Library/DaisyToolchain/0.2.0/arm/arm-none-eabi/include/c++/10.3.1/bits/stl_algobase.h **** 	{
 134:/Library/DaisyToolchain/0.2.0/arm/arm-none-eabi/include/c++/10.3.1/bits/stl_algobase.h **** 	  swap(*__a, *__b);
 135:/Library/DaisyToolchain/0.2.0/arm/arm-none-eabi/include/c++/10.3.1/bits/stl_algobase.h **** 	}
 136:/Library/DaisyToolchain/0.2.0/arm/arm-none-eabi/include/c++/10.3.1/bits/stl_algobase.h ****     };
 137:/Library/DaisyToolchain/0.2.0/arm/arm-none-eabi/include/c++/10.3.1/bits/stl_algobase.h **** #endif // C++03
 138:/Library/DaisyToolchain/0.2.0/arm/arm-none-eabi/include/c++/10.3.1/bits/stl_algobase.h **** 
 139:/Library/DaisyToolchain/0.2.0/arm/arm-none-eabi/include/c++/10.3.1/bits/stl_algobase.h ****   /**
 140:/Library/DaisyToolchain/0.2.0/arm/arm-none-eabi/include/c++/10.3.1/bits/stl_algobase.h ****    *  @brief Swaps the contents of two iterators.
 141:/Library/DaisyToolchain/0.2.0/arm/arm-none-eabi/include/c++/10.3.1/bits/stl_algobase.h ****    *  @ingroup mutating_algorithms
 142:/Library/DaisyToolchain/0.2.0/arm/arm-none-eabi/include/c++/10.3.1/bits/stl_algobase.h ****    *  @param  __a  An iterator.
 143:/Library/DaisyToolchain/0.2.0/arm/arm-none-eabi/include/c++/10.3.1/bits/stl_algobase.h ****    *  @param  __b  Another iterator.
 144:/Library/DaisyToolchain/0.2.0/arm/arm-none-eabi/include/c++/10.3.1/bits/stl_algobase.h ****    *  @return   Nothing.
 145:/Library/DaisyToolchain/0.2.0/arm/arm-none-eabi/include/c++/10.3.1/bits/stl_algobase.h ****    *
 146:/Library/DaisyToolchain/0.2.0/arm/arm-none-eabi/include/c++/10.3.1/bits/stl_algobase.h ****    *  This function swaps the values pointed to by two iterators, not the
 147:/Library/DaisyToolchain/0.2.0/arm/arm-none-eabi/include/c++/10.3.1/bits/stl_algobase.h ****    *  iterators themselves.
 148:/Library/DaisyToolchain/0.2.0/arm/arm-none-eabi/include/c++/10.3.1/bits/stl_algobase.h ****   */
 149:/Library/DaisyToolchain/0.2.0/arm/arm-none-eabi/include/c++/10.3.1/bits/stl_algobase.h ****   template<typename _ForwardIterator1, typename _ForwardIterator2>
 150:/Library/DaisyToolchain/0.2.0/arm/arm-none-eabi/include/c++/10.3.1/bits/stl_algobase.h ****     _GLIBCXX20_CONSTEXPR
 151:/Library/DaisyToolchain/0.2.0/arm/arm-none-eabi/include/c++/10.3.1/bits/stl_algobase.h ****     inline void
 152:/Library/DaisyToolchain/0.2.0/arm/arm-none-eabi/include/c++/10.3.1/bits/stl_algobase.h ****     iter_swap(_ForwardIterator1 __a, _ForwardIterator2 __b)
 153:/Library/DaisyToolchain/0.2.0/arm/arm-none-eabi/include/c++/10.3.1/bits/stl_algobase.h ****     {
 154:/Library/DaisyToolchain/0.2.0/arm/arm-none-eabi/include/c++/10.3.1/bits/stl_algobase.h ****       // concept requirements
 155:/Library/DaisyToolchain/0.2.0/arm/arm-none-eabi/include/c++/10.3.1/bits/stl_algobase.h ****       __glibcxx_function_requires(_Mutable_ForwardIteratorConcept<
 156:/Library/DaisyToolchain/0.2.0/arm/arm-none-eabi/include/c++/10.3.1/bits/stl_algobase.h **** 				  _ForwardIterator1>)
 157:/Library/DaisyToolchain/0.2.0/arm/arm-none-eabi/include/c++/10.3.1/bits/stl_algobase.h ****       __glibcxx_function_requires(_Mutable_ForwardIteratorConcept<
 158:/Library/DaisyToolchain/0.2.0/arm/arm-none-eabi/include/c++/10.3.1/bits/stl_algobase.h **** 				  _ForwardIterator2>)
 159:/Library/DaisyToolchain/0.2.0/arm/arm-none-eabi/include/c++/10.3.1/bits/stl_algobase.h **** 
 160:/Library/DaisyToolchain/0.2.0/arm/arm-none-eabi/include/c++/10.3.1/bits/stl_algobase.h **** #if __cplusplus < 201103L
 161:/Library/DaisyToolchain/0.2.0/arm/arm-none-eabi/include/c++/10.3.1/bits/stl_algobase.h ****       typedef typename iterator_traits<_ForwardIterator1>::value_type
 162:/Library/DaisyToolchain/0.2.0/arm/arm-none-eabi/include/c++/10.3.1/bits/stl_algobase.h **** 	_ValueType1;
 163:/Library/DaisyToolchain/0.2.0/arm/arm-none-eabi/include/c++/10.3.1/bits/stl_algobase.h ****       typedef typename iterator_traits<_ForwardIterator2>::value_type
 164:/Library/DaisyToolchain/0.2.0/arm/arm-none-eabi/include/c++/10.3.1/bits/stl_algobase.h **** 	_ValueType2;
 165:/Library/DaisyToolchain/0.2.0/arm/arm-none-eabi/include/c++/10.3.1/bits/stl_algobase.h **** 
 166:/Library/DaisyToolchain/0.2.0/arm/arm-none-eabi/include/c++/10.3.1/bits/stl_algobase.h ****       __glibcxx_function_requires(_ConvertibleConcept<_ValueType1,
 167:/Library/DaisyToolchain/0.2.0/arm/arm-none-eabi/include/c++/10.3.1/bits/stl_algobase.h **** 				  _ValueType2>)
 168:/Library/DaisyToolchain/0.2.0/arm/arm-none-eabi/include/c++/10.3.1/bits/stl_algobase.h ****       __glibcxx_function_requires(_ConvertibleConcept<_ValueType2,
 169:/Library/DaisyToolchain/0.2.0/arm/arm-none-eabi/include/c++/10.3.1/bits/stl_algobase.h **** 				  _ValueType1>)
 170:/Library/DaisyToolchain/0.2.0/arm/arm-none-eabi/include/c++/10.3.1/bits/stl_algobase.h **** 
 171:/Library/DaisyToolchain/0.2.0/arm/arm-none-eabi/include/c++/10.3.1/bits/stl_algobase.h ****       typedef typename iterator_traits<_ForwardIterator1>::reference
 172:/Library/DaisyToolchain/0.2.0/arm/arm-none-eabi/include/c++/10.3.1/bits/stl_algobase.h **** 	_ReferenceType1;
 173:/Library/DaisyToolchain/0.2.0/arm/arm-none-eabi/include/c++/10.3.1/bits/stl_algobase.h ****       typedef typename iterator_traits<_ForwardIterator2>::reference
 174:/Library/DaisyToolchain/0.2.0/arm/arm-none-eabi/include/c++/10.3.1/bits/stl_algobase.h **** 	_ReferenceType2;
 175:/Library/DaisyToolchain/0.2.0/arm/arm-none-eabi/include/c++/10.3.1/bits/stl_algobase.h ****       std::__iter_swap<__are_same<_ValueType1, _ValueType2>::__value
ARM GAS  /var/folders/1y/_321xjh9623c014x9_qw12rr0000gn/T//cc4eHiNS.s 			page 25


 176:/Library/DaisyToolchain/0.2.0/arm/arm-none-eabi/include/c++/10.3.1/bits/stl_algobase.h **** 	&& __are_same<_ValueType1&, _ReferenceType1>::__value
 177:/Library/DaisyToolchain/0.2.0/arm/arm-none-eabi/include/c++/10.3.1/bits/stl_algobase.h **** 	&& __are_same<_ValueType2&, _ReferenceType2>::__value>::
 178:/Library/DaisyToolchain/0.2.0/arm/arm-none-eabi/include/c++/10.3.1/bits/stl_algobase.h **** 	iter_swap(__a, __b);
 179:/Library/DaisyToolchain/0.2.0/arm/arm-none-eabi/include/c++/10.3.1/bits/stl_algobase.h **** #else
 180:/Library/DaisyToolchain/0.2.0/arm/arm-none-eabi/include/c++/10.3.1/bits/stl_algobase.h ****       // _GLIBCXX_RESOLVE_LIB_DEFECTS
 181:/Library/DaisyToolchain/0.2.0/arm/arm-none-eabi/include/c++/10.3.1/bits/stl_algobase.h ****       // 187. iter_swap underspecified
 182:/Library/DaisyToolchain/0.2.0/arm/arm-none-eabi/include/c++/10.3.1/bits/stl_algobase.h ****       swap(*__a, *__b);
 183:/Library/DaisyToolchain/0.2.0/arm/arm-none-eabi/include/c++/10.3.1/bits/stl_algobase.h **** #endif
 184:/Library/DaisyToolchain/0.2.0/arm/arm-none-eabi/include/c++/10.3.1/bits/stl_algobase.h ****     }
 185:/Library/DaisyToolchain/0.2.0/arm/arm-none-eabi/include/c++/10.3.1/bits/stl_algobase.h **** 
 186:/Library/DaisyToolchain/0.2.0/arm/arm-none-eabi/include/c++/10.3.1/bits/stl_algobase.h ****   /**
 187:/Library/DaisyToolchain/0.2.0/arm/arm-none-eabi/include/c++/10.3.1/bits/stl_algobase.h ****    *  @brief Swap the elements of two sequences.
 188:/Library/DaisyToolchain/0.2.0/arm/arm-none-eabi/include/c++/10.3.1/bits/stl_algobase.h ****    *  @ingroup mutating_algorithms
 189:/Library/DaisyToolchain/0.2.0/arm/arm-none-eabi/include/c++/10.3.1/bits/stl_algobase.h ****    *  @param  __first1  A forward iterator.
 190:/Library/DaisyToolchain/0.2.0/arm/arm-none-eabi/include/c++/10.3.1/bits/stl_algobase.h ****    *  @param  __last1   A forward iterator.
 191:/Library/DaisyToolchain/0.2.0/arm/arm-none-eabi/include/c++/10.3.1/bits/stl_algobase.h ****    *  @param  __first2  A forward iterator.
 192:/Library/DaisyToolchain/0.2.0/arm/arm-none-eabi/include/c++/10.3.1/bits/stl_algobase.h ****    *  @return   An iterator equal to @p first2+(last1-first1).
 193:/Library/DaisyToolchain/0.2.0/arm/arm-none-eabi/include/c++/10.3.1/bits/stl_algobase.h ****    *
 194:/Library/DaisyToolchain/0.2.0/arm/arm-none-eabi/include/c++/10.3.1/bits/stl_algobase.h ****    *  Swaps each element in the range @p [first1,last1) with the
 195:/Library/DaisyToolchain/0.2.0/arm/arm-none-eabi/include/c++/10.3.1/bits/stl_algobase.h ****    *  corresponding element in the range @p [first2,(last1-first1)).
 196:/Library/DaisyToolchain/0.2.0/arm/arm-none-eabi/include/c++/10.3.1/bits/stl_algobase.h ****    *  The ranges must not overlap.
 197:/Library/DaisyToolchain/0.2.0/arm/arm-none-eabi/include/c++/10.3.1/bits/stl_algobase.h ****   */
 198:/Library/DaisyToolchain/0.2.0/arm/arm-none-eabi/include/c++/10.3.1/bits/stl_algobase.h ****   template<typename _ForwardIterator1, typename _ForwardIterator2>
 199:/Library/DaisyToolchain/0.2.0/arm/arm-none-eabi/include/c++/10.3.1/bits/stl_algobase.h ****     _GLIBCXX20_CONSTEXPR
 200:/Library/DaisyToolchain/0.2.0/arm/arm-none-eabi/include/c++/10.3.1/bits/stl_algobase.h ****     _ForwardIterator2
 201:/Library/DaisyToolchain/0.2.0/arm/arm-none-eabi/include/c++/10.3.1/bits/stl_algobase.h ****     swap_ranges(_ForwardIterator1 __first1, _ForwardIterator1 __last1,
 202:/Library/DaisyToolchain/0.2.0/arm/arm-none-eabi/include/c++/10.3.1/bits/stl_algobase.h **** 		_ForwardIterator2 __first2)
 203:/Library/DaisyToolchain/0.2.0/arm/arm-none-eabi/include/c++/10.3.1/bits/stl_algobase.h ****     {
 204:/Library/DaisyToolchain/0.2.0/arm/arm-none-eabi/include/c++/10.3.1/bits/stl_algobase.h ****       // concept requirements
 205:/Library/DaisyToolchain/0.2.0/arm/arm-none-eabi/include/c++/10.3.1/bits/stl_algobase.h ****       __glibcxx_function_requires(_Mutable_ForwardIteratorConcept<
 206:/Library/DaisyToolchain/0.2.0/arm/arm-none-eabi/include/c++/10.3.1/bits/stl_algobase.h **** 				  _ForwardIterator1>)
 207:/Library/DaisyToolchain/0.2.0/arm/arm-none-eabi/include/c++/10.3.1/bits/stl_algobase.h ****       __glibcxx_function_requires(_Mutable_ForwardIteratorConcept<
 208:/Library/DaisyToolchain/0.2.0/arm/arm-none-eabi/include/c++/10.3.1/bits/stl_algobase.h **** 				  _ForwardIterator2>)
 209:/Library/DaisyToolchain/0.2.0/arm/arm-none-eabi/include/c++/10.3.1/bits/stl_algobase.h ****       __glibcxx_requires_valid_range(__first1, __last1);
 210:/Library/DaisyToolchain/0.2.0/arm/arm-none-eabi/include/c++/10.3.1/bits/stl_algobase.h **** 
 211:/Library/DaisyToolchain/0.2.0/arm/arm-none-eabi/include/c++/10.3.1/bits/stl_algobase.h ****       for (; __first1 != __last1; ++__first1, (void)++__first2)
 212:/Library/DaisyToolchain/0.2.0/arm/arm-none-eabi/include/c++/10.3.1/bits/stl_algobase.h **** 	std::iter_swap(__first1, __first2);
 213:/Library/DaisyToolchain/0.2.0/arm/arm-none-eabi/include/c++/10.3.1/bits/stl_algobase.h ****       return __first2;
 214:/Library/DaisyToolchain/0.2.0/arm/arm-none-eabi/include/c++/10.3.1/bits/stl_algobase.h ****     }
 215:/Library/DaisyToolchain/0.2.0/arm/arm-none-eabi/include/c++/10.3.1/bits/stl_algobase.h **** 
 216:/Library/DaisyToolchain/0.2.0/arm/arm-none-eabi/include/c++/10.3.1/bits/stl_algobase.h ****   /**
 217:/Library/DaisyToolchain/0.2.0/arm/arm-none-eabi/include/c++/10.3.1/bits/stl_algobase.h ****    *  @brief This does what you think it does.
 218:/Library/DaisyToolchain/0.2.0/arm/arm-none-eabi/include/c++/10.3.1/bits/stl_algobase.h ****    *  @ingroup sorting_algorithms
 219:/Library/DaisyToolchain/0.2.0/arm/arm-none-eabi/include/c++/10.3.1/bits/stl_algobase.h ****    *  @param  __a  A thing of arbitrary type.
 220:/Library/DaisyToolchain/0.2.0/arm/arm-none-eabi/include/c++/10.3.1/bits/stl_algobase.h ****    *  @param  __b  Another thing of arbitrary type.
 221:/Library/DaisyToolchain/0.2.0/arm/arm-none-eabi/include/c++/10.3.1/bits/stl_algobase.h ****    *  @return   The lesser of the parameters.
 222:/Library/DaisyToolchain/0.2.0/arm/arm-none-eabi/include/c++/10.3.1/bits/stl_algobase.h ****    *
 223:/Library/DaisyToolchain/0.2.0/arm/arm-none-eabi/include/c++/10.3.1/bits/stl_algobase.h ****    *  This is the simple classic generic implementation.  It will work on
 224:/Library/DaisyToolchain/0.2.0/arm/arm-none-eabi/include/c++/10.3.1/bits/stl_algobase.h ****    *  temporary expressions, since they are only evaluated once, unlike a
 225:/Library/DaisyToolchain/0.2.0/arm/arm-none-eabi/include/c++/10.3.1/bits/stl_algobase.h ****    *  preprocessor macro.
 226:/Library/DaisyToolchain/0.2.0/arm/arm-none-eabi/include/c++/10.3.1/bits/stl_algobase.h ****   */
 227:/Library/DaisyToolchain/0.2.0/arm/arm-none-eabi/include/c++/10.3.1/bits/stl_algobase.h ****   template<typename _Tp>
 228:/Library/DaisyToolchain/0.2.0/arm/arm-none-eabi/include/c++/10.3.1/bits/stl_algobase.h ****     _GLIBCXX14_CONSTEXPR
 229:/Library/DaisyToolchain/0.2.0/arm/arm-none-eabi/include/c++/10.3.1/bits/stl_algobase.h ****     inline const _Tp&
 230:/Library/DaisyToolchain/0.2.0/arm/arm-none-eabi/include/c++/10.3.1/bits/stl_algobase.h ****     min(const _Tp& __a, const _Tp& __b)
 231:/Library/DaisyToolchain/0.2.0/arm/arm-none-eabi/include/c++/10.3.1/bits/stl_algobase.h ****     {
 232:/Library/DaisyToolchain/0.2.0/arm/arm-none-eabi/include/c++/10.3.1/bits/stl_algobase.h ****       // concept requirements
ARM GAS  /var/folders/1y/_321xjh9623c014x9_qw12rr0000gn/T//cc4eHiNS.s 			page 26


 233:/Library/DaisyToolchain/0.2.0/arm/arm-none-eabi/include/c++/10.3.1/bits/stl_algobase.h ****       __glibcxx_function_requires(_LessThanComparableConcept<_Tp>)
 234:/Library/DaisyToolchain/0.2.0/arm/arm-none-eabi/include/c++/10.3.1/bits/stl_algobase.h ****       //return __b < __a ? __b : __a;
 235:/Library/DaisyToolchain/0.2.0/arm/arm-none-eabi/include/c++/10.3.1/bits/stl_algobase.h ****       if (__b < __a)
 236:/Library/DaisyToolchain/0.2.0/arm/arm-none-eabi/include/c++/10.3.1/bits/stl_algobase.h **** 	return __b;
 237:/Library/DaisyToolchain/0.2.0/arm/arm-none-eabi/include/c++/10.3.1/bits/stl_algobase.h ****       return __a;
 238:/Library/DaisyToolchain/0.2.0/arm/arm-none-eabi/include/c++/10.3.1/bits/stl_algobase.h ****     }
 239:/Library/DaisyToolchain/0.2.0/arm/arm-none-eabi/include/c++/10.3.1/bits/stl_algobase.h **** 
 240:/Library/DaisyToolchain/0.2.0/arm/arm-none-eabi/include/c++/10.3.1/bits/stl_algobase.h ****   /**
 241:/Library/DaisyToolchain/0.2.0/arm/arm-none-eabi/include/c++/10.3.1/bits/stl_algobase.h ****    *  @brief This does what you think it does.
 242:/Library/DaisyToolchain/0.2.0/arm/arm-none-eabi/include/c++/10.3.1/bits/stl_algobase.h ****    *  @ingroup sorting_algorithms
 243:/Library/DaisyToolchain/0.2.0/arm/arm-none-eabi/include/c++/10.3.1/bits/stl_algobase.h ****    *  @param  __a  A thing of arbitrary type.
 244:/Library/DaisyToolchain/0.2.0/arm/arm-none-eabi/include/c++/10.3.1/bits/stl_algobase.h ****    *  @param  __b  Another thing of arbitrary type.
 245:/Library/DaisyToolchain/0.2.0/arm/arm-none-eabi/include/c++/10.3.1/bits/stl_algobase.h ****    *  @return   The greater of the parameters.
 246:/Library/DaisyToolchain/0.2.0/arm/arm-none-eabi/include/c++/10.3.1/bits/stl_algobase.h ****    *
 247:/Library/DaisyToolchain/0.2.0/arm/arm-none-eabi/include/c++/10.3.1/bits/stl_algobase.h ****    *  This is the simple classic generic implementation.  It will work on
 248:/Library/DaisyToolchain/0.2.0/arm/arm-none-eabi/include/c++/10.3.1/bits/stl_algobase.h ****    *  temporary expressions, since they are only evaluated once, unlike a
 249:/Library/DaisyToolchain/0.2.0/arm/arm-none-eabi/include/c++/10.3.1/bits/stl_algobase.h ****    *  preprocessor macro.
 250:/Library/DaisyToolchain/0.2.0/arm/arm-none-eabi/include/c++/10.3.1/bits/stl_algobase.h ****   */
 251:/Library/DaisyToolchain/0.2.0/arm/arm-none-eabi/include/c++/10.3.1/bits/stl_algobase.h ****   template<typename _Tp>
 252:/Library/DaisyToolchain/0.2.0/arm/arm-none-eabi/include/c++/10.3.1/bits/stl_algobase.h ****     _GLIBCXX14_CONSTEXPR
 253:/Library/DaisyToolchain/0.2.0/arm/arm-none-eabi/include/c++/10.3.1/bits/stl_algobase.h ****     inline const _Tp&
 254:/Library/DaisyToolchain/0.2.0/arm/arm-none-eabi/include/c++/10.3.1/bits/stl_algobase.h ****     max(const _Tp& __a, const _Tp& __b)
 239              		.loc 5 254 5 view .LVU42
 240              	.LBE305:
 274:Dubby.cpp     ****                                     0),
 241              		.loc 2 274 61 is_stmt 0 view .LVU43
 242 0060 049A     		ldr	r2, [sp, #16]
 274:Dubby.cpp     ****                                     0),
 243              		.loc 2 274 63 view .LVU44
 244 0062 9FED617A 		vldr.32	s14, .L44
 274:Dubby.cpp     ****                                     0),
 245              		.loc 2 274 61 view .LVU45
 246 0066 F2EC017A 		vldmia.32	r2!, {s15}
 274:Dubby.cpp     ****                                     0),
 247              		.loc 2 274 63 view .LVU46
 248 006a 67EE877A 		vmul.f32	s15, s15, s14
 274:Dubby.cpp     ****                                     0),
 249              		.loc 2 274 61 view .LVU47
 250 006e 0492     		str	r2, [sp, #16]
 274:Dubby.cpp     ****                                     0),
 251              		.loc 2 274 43 view .LVU48
 252 0070 FDEEE77A 		vcvt.s32.f32	s15, s15
 253              	.LBB308:
 254              	.LBB306:
 255:/Library/DaisyToolchain/0.2.0/arm/arm-none-eabi/include/c++/10.3.1/bits/stl_algobase.h ****     {
 256:/Library/DaisyToolchain/0.2.0/arm/arm-none-eabi/include/c++/10.3.1/bits/stl_algobase.h ****       // concept requirements
 257:/Library/DaisyToolchain/0.2.0/arm/arm-none-eabi/include/c++/10.3.1/bits/stl_algobase.h ****       __glibcxx_function_requires(_LessThanComparableConcept<_Tp>)
 258:/Library/DaisyToolchain/0.2.0/arm/arm-none-eabi/include/c++/10.3.1/bits/stl_algobase.h ****       //return  __a < __b ? __b : __a;
 259:/Library/DaisyToolchain/0.2.0/arm/arm-none-eabi/include/c++/10.3.1/bits/stl_algobase.h ****       if (__a < __b)
 255              		.loc 5 259 7 view .LVU49
 256 0074 17EE902A 		vmov	r2, s15	@ int
 257 0078 D2F11804 		rsbs	r4, r2, #24
 258 007c 00F1AD80 		bmi	.L26
 259              	.LVL15:
 260              		.loc 5 259 7 view .LVU50
 261              	.LBE306:
 262              	.LBE308:
ARM GAS  /var/folders/1y/_321xjh9623c014x9_qw12rr0000gn/T//cc4eHiNS.s 			page 27


 263              	.LBB309:
 264              	.LBI309:
 230:/Library/DaisyToolchain/0.2.0/arm/arm-none-eabi/include/c++/10.3.1/bits/stl_algobase.h ****     {
 265              		.loc 5 230 5 is_stmt 1 view .LVU51
 266              	.LBB310:
 235:/Library/DaisyToolchain/0.2.0/arm/arm-none-eabi/include/c++/10.3.1/bits/stl_algobase.h **** 	return __b;
 267              		.loc 5 235 7 is_stmt 0 view .LVU52
 268 0080 312C     		cmp	r4, #49
 269 0082 40F3AB80 		ble	.L7
 270 0086 3224     		movs	r4, #50
 271              	.LVL16:
 272              	.L8:
 235:/Library/DaisyToolchain/0.2.0/arm/arm-none-eabi/include/c++/10.3.1/bits/stl_algobase.h **** 	return __b;
 273              		.loc 5 235 7 view .LVU53
 274              	.LBE310:
 275              	.LBE309:
 277:Dubby.cpp     ****             if(i != 0)
 276              		.loc 2 277 13 is_stmt 1 view .LVU54
 277:Dubby.cpp     ****             if(i != 0)
 277              		.loc 2 277 46 is_stmt 0 view .LVU55
 278 0088 019A     		ldr	r2, [sp, #4]
 278:Dubby.cpp     ****             {
 279              		.loc 2 278 13 view .LVU56
 280 008a B9F1010F 		cmp	r9, #1
 277:Dubby.cpp     ****             if(i != 0)
 281              		.loc 2 277 46 view .LVU57
 282 008e 4FEAD215 		lsr	r5, r2, #7
 277:Dubby.cpp     ****             if(i != 0)
 283              		.loc 2 277 23 view .LVU58
 284 0092 05F10105 		add	r5, r5, #1
 285              	.LVL17:
 278:Dubby.cpp     ****             {
 286              		.loc 2 278 13 is_stmt 1 view .LVU59
 287 0096 DCD0     		beq	.L9
 280:Dubby.cpp     ****             }
 288              		.loc 2 280 17 view .LVU60
 289              	.LBB311:
 290              	.LBB312:
 227:../../libDaisy//src/hid/disp/display.h ****         int_fast16_t deltaY = abs((int_fast16_t)y2 - (int_fast16_t)y1);
 291              		.loc 3 227 52 is_stmt 0 view .LVU61
 292 0098 EF1A     		subs	r7, r5, r3
 228:../../libDaisy//src/hid/disp/display.h ****         int_fast16_t signX  = ((x1 < x2) ? 1 : -1);
 293              		.loc 3 228 52 view .LVU62
 294 009a A4EB060E 		sub	lr, r4, r6
 295              	.LBE312:
 296              	.LBE311:
 280:Dubby.cpp     ****             }
 297              		.loc 2 280 33 view .LVU63
 298 009e 1946     		mov	r1, r3
 299 00a0 3246     		mov	r2, r6
 300              	.LVL18:
 301              	.LBB331:
 302              	.LBI311:
 221:../../libDaisy//src/hid/disp/display.h ****                   uint_fast8_t y1,
 303              		.loc 3 221 10 is_stmt 1 view .LVU64
 304              	.LBB329:
 227:../../libDaisy//src/hid/disp/display.h ****         int_fast16_t deltaY = abs((int_fast16_t)y2 - (int_fast16_t)y1);
ARM GAS  /var/folders/1y/_321xjh9623c014x9_qw12rr0000gn/T//cc4eHiNS.s 			page 28


 305              		.loc 3 227 22 is_stmt 0 view .LVU65
 306 00a2 002F     		cmp	r7, #0
 307 00a4 B8BF     		it	lt
 308 00a6 7F42     		rsblt	r7, r7, #0
 309              	.LVL19:
 228:../../libDaisy//src/hid/disp/display.h ****         int_fast16_t signX  = ((x1 < x2) ? 1 : -1);
 310              		.loc 3 228 22 view .LVU66
 311 00a8 BEF1000F 		cmp	lr, #0
 312 00ac B8BF     		it	lt
 313 00ae CEF1000E 		rsblt	lr, lr, #0
 314              	.LVL20:
 229:../../libDaisy//src/hid/disp/display.h ****         int_fast16_t signY  = ((y1 < y2) ? 1 : -1);
 315              		.loc 3 229 42 view .LVU67
 316 00b2 9D42     		cmp	r5, r3
 317 00b4 8CBF     		ite	hi
 318 00b6 0120     		movhi	r0, #1
 319 00b8 4FF0FF30 		movls	r0, #-1
 230:../../libDaisy//src/hid/disp/display.h ****         int_fast16_t error  = deltaX - deltaY;
 320              		.loc 3 230 42 view .LVU68
 321 00bc A642     		cmp	r6, r4
 229:../../libDaisy//src/hid/disp/display.h ****         int_fast16_t signY  = ((y1 < y2) ? 1 : -1);
 322              		.loc 3 229 42 view .LVU69
 323 00be 0290     		str	r0, [sp, #8]
 324              	.LVL21:
 231:../../libDaisy//src/hid/disp/display.h ****         int_fast16_t error2;
 325              		.loc 3 231 22 view .LVU70
 326 00c0 A7EB0E00 		sub	r0, r7, lr
 327              	.LVL22:
 231:../../libDaisy//src/hid/disp/display.h ****         int_fast16_t error2;
 328              		.loc 3 231 22 view .LVU71
 329 00c4 0590     		str	r0, [sp, #20]
 230:../../libDaisy//src/hid/disp/display.h ****         int_fast16_t error  = deltaX - deltaY;
 330              		.loc 3 230 42 view .LVU72
 331 00c6 C0F08B80 		bcc	.L24
 332              	.LVL23:
 333              	.LBB313:
 334              	.LBI313:
 335              		.loc 1 42 10 is_stmt 1 view .LVU73
 336              	.LBB314:
 337              	.LBI314:
 352:../../libDaisy//src/dev/oled_ssd130x.h ****     {
 338              		.loc 4 352 10 view .LVU74
 339              	.LBE314:
 340              	.LBE313:
 230:../../libDaisy//src/hid/disp/display.h ****         int_fast16_t error  = deltaX - deltaY;
 341              		.loc 3 230 42 is_stmt 0 view .LVU75
 342 00ca 4FF0FF30 		mov	r0, #-1
 343              	.LVL24:
 230:../../libDaisy//src/hid/disp/display.h ****         int_fast16_t error  = deltaX - deltaY;
 344              		.loc 3 230 42 view .LVU76
 345 00ce 0390     		str	r0, [sp, #12]
 346              	.LVL25:
 347              	.L23:
 348              	.LBB320:
 349              	.LBB317:
 350              	.LBB315:
 357:../../libDaisy//src/dev/oled_ssd130x.h ****         else
ARM GAS  /var/folders/1y/_321xjh9623c014x9_qw12rr0000gn/T//cc4eHiNS.s 			page 29


 351              		.loc 4 357 28 view .LVU77
 352 00d0 4FEAD40C 		lsr	ip, r4, #3
 357:../../libDaisy//src/dev/oled_ssd130x.h ****         else
 353              		.loc 4 357 48 view .LVU78
 354 00d4 4FF0010B 		mov	fp, #1
 357:../../libDaisy//src/dev/oled_ssd130x.h ****         else
 355              		.loc 4 357 54 view .LVU79
 356 00d8 04F00708 		and	r8, r4, #7
 357              	.LBE315:
 358              	.LBE317:
 359              	.LBE320:
 239:../../libDaisy//src/hid/disp/display.h ****         {
 360              		.loc 3 239 26 view .LVU80
 361 00dc 9D42     		cmp	r5, r3
 362              	.LBB321:
 363              	.LBB318:
 364              	.LBB316:
 357:../../libDaisy//src/dev/oled_ssd130x.h ****         else
 365              		.loc 4 357 42 view .LVU81
 366 00de 05EBCC1C 		add	ip, r5, ip, lsl #7
 357:../../libDaisy//src/dev/oled_ssd130x.h ****         else
 367              		.loc 4 357 48 view .LVU82
 368 00e2 0BFA08F8 		lsl	r8, fp, r8
 357:../../libDaisy//src/dev/oled_ssd130x.h ****         else
 369              		.loc 4 357 42 view .LVU83
 370 00e6 D444     		add	ip, ip, r10
 371 00e8 9CF864B4 		ldrb	fp, [ip, #1124]	@ zero_extendqisi2
 372 00ec 48EA0B08 		orr	r8, r8, fp
 373 00f0 8CF86484 		strb	r8, [ip, #1124]
 374              	.LVL26:
 357:../../libDaisy//src/dev/oled_ssd130x.h ****         else
 375              		.loc 4 357 42 view .LVU84
 376              	.LBE316:
 377              	.LBE318:
 378              	.LBE321:
 239:../../libDaisy//src/hid/disp/display.h ****         {
 379              		.loc 3 239 26 is_stmt 1 view .LVU85
 380 00f4 01D1     		bne	.L14
 381 00f6 A642     		cmp	r6, r4
 382 00f8 28D0     		beq	.L12
 383              	.L14:
 384              	.LVL27:
 243:../../libDaisy//src/hid/disp/display.h ****             {
 385              		.loc 3 243 23 is_stmt 0 view .LVU86
 386 00fa CEF10008 		rsb	r8, lr, #0
 387 00fe 0598     		ldr	r0, [sp, #20]
 388              	.LVL28:
 389              	.L16:
 390              	.LBB322:
 391              	.LBI322:
 392              		.loc 1 42 10 is_stmt 1 view .LVU87
 393              	.LBB323:
 394              	.LBI323:
 352:../../libDaisy//src/dev/oled_ssd130x.h ****     {
 395              		.loc 4 352 10 view .LVU88
 396              	.LBB324:
 357:../../libDaisy//src/dev/oled_ssd130x.h ****         else
ARM GAS  /var/folders/1y/_321xjh9623c014x9_qw12rr0000gn/T//cc4eHiNS.s 			page 30


 397              		.loc 4 357 48 is_stmt 0 view .LVU89
 398 0100 4FF0010C 		mov	ip, #1
 357:../../libDaisy//src/dev/oled_ssd130x.h ****         else
 399              		.loc 4 357 28 view .LVU90
 400 0104 D308     		lsrs	r3, r2, #3
 357:../../libDaisy//src/dev/oled_ssd130x.h ****         else
 401              		.loc 4 357 54 view .LVU91
 402 0106 02F00706 		and	r6, r2, #7
 354:../../libDaisy//src/dev/oled_ssd130x.h ****             return;
 403              		.loc 4 354 9 view .LVU92
 404 010a 7F29     		cmp	r1, #127
 357:../../libDaisy//src/dev/oled_ssd130x.h ****         else
 405              		.loc 4 357 42 view .LVU93
 406 010c 01EBC313 		add	r3, r1, r3, lsl #7
 407              	.LBE324:
 408              	.LBE323:
 409              	.LBE322:
 242:../../libDaisy//src/hid/disp/display.h ****             if(error2 > -deltaY)
 410              		.loc 3 242 20 view .LVU94
 411 0110 00FA0CFB 		lsl	fp, r0, ip
 412              	.LVL29:
 413              	.LBB327:
 414              	.LBB326:
 415              	.LBB325:
 357:../../libDaisy//src/dev/oled_ssd130x.h ****         else
 416              		.loc 4 357 48 view .LVU95
 417 0114 0CFA06F6 		lsl	r6, ip, r6
 354:../../libDaisy//src/dev/oled_ssd130x.h ****             return;
 418              		.loc 4 354 9 view .LVU96
 419 0118 08D8     		bhi	.L17
 420 011a 3F2A     		cmp	r2, #63
 357:../../libDaisy//src/dev/oled_ssd130x.h ****         else
 421              		.loc 4 357 42 view .LVU97
 422 011c 5344     		add	r3, r3, r10
 354:../../libDaisy//src/dev/oled_ssd130x.h ****             return;
 423              		.loc 4 354 9 view .LVU98
 424 011e 05D8     		bhi	.L17
 357:../../libDaisy//src/dev/oled_ssd130x.h ****         else
 425              		.loc 4 357 42 view .LVU99
 426 0120 93F864C4 		ldrb	ip, [r3, #1124]	@ zero_extendqisi2
 427 0124 46EA0C06 		orr	r6, r6, ip
 428 0128 83F86464 		strb	r6, [r3, #1124]
 429              	.L17:
 357:../../libDaisy//src/dev/oled_ssd130x.h ****         else
 430              		.loc 4 357 42 view .LVU100
 431              	.LBE325:
 432              	.LBE326:
 433              	.LBE327:
 243:../../libDaisy//src/hid/disp/display.h ****             {
 434              		.loc 3 243 13 view .LVU101
 435 012c B8EB400F 		cmp	r8, r0, lsl #1
 436 0130 03DA     		bge	.L18
 246:../../libDaisy//src/hid/disp/display.h ****             }
 437              		.loc 3 246 20 view .LVU102
 438 0132 029B     		ldr	r3, [sp, #8]
 245:../../libDaisy//src/hid/disp/display.h ****                 x1 += signX;
 439              		.loc 3 245 23 view .LVU103
ARM GAS  /var/folders/1y/_321xjh9623c014x9_qw12rr0000gn/T//cc4eHiNS.s 			page 31


 440 0134 A0EB0E00 		sub	r0, r0, lr
 441              	.LVL30:
 246:../../libDaisy//src/hid/disp/display.h ****             }
 442              		.loc 3 246 20 view .LVU104
 443 0138 1944     		add	r1, r1, r3
 444              	.LVL31:
 445              	.L18:
 249:../../libDaisy//src/hid/disp/display.h ****             {
 446              		.loc 3 249 13 view .LVU105
 447 013a 5F45     		cmp	r7, fp
 448 013c 02DD     		ble	.L19
 252:../../libDaisy//src/hid/disp/display.h ****             }
 449              		.loc 3 252 20 view .LVU106
 450 013e 039B     		ldr	r3, [sp, #12]
 251:../../libDaisy//src/hid/disp/display.h ****                 y1 += signY;
 451              		.loc 3 251 23 view .LVU107
 452 0140 3844     		add	r0, r0, r7
 453              	.LVL32:
 252:../../libDaisy//src/hid/disp/display.h ****             }
 454              		.loc 3 252 20 view .LVU108
 455 0142 1A44     		add	r2, r2, r3
 456              	.LVL33:
 457              	.L19:
 239:../../libDaisy//src/hid/disp/display.h ****         {
 458              		.loc 3 239 26 is_stmt 1 view .LVU109
 459 0144 8D42     		cmp	r5, r1
 460 0146 DBD1     		bne	.L16
 239:../../libDaisy//src/hid/disp/display.h ****         {
 461              		.loc 3 239 26 is_stmt 0 view .LVU110
 462 0148 9442     		cmp	r4, r2
 463 014a D9D1     		bne	.L16
 464              	.LVL34:
 465              	.L12:
 239:../../libDaisy//src/hid/disp/display.h ****         {
 466              		.loc 3 239 26 view .LVU111
 467              	.LBE329:
 468              	.LBE331:
 469              		.loc 2 282 13 is_stmt 1 view .LVU112
 283:Dubby.cpp     ****             prev_y = y;
 470              		.loc 2 283 13 view .LVU113
 471              		.loc 2 283 13 is_stmt 0 view .LVU114
 472              	.LBE304:
 271:Dubby.cpp     ****         {
 473              		.loc 2 271 9 is_stmt 1 view .LVU115
 271:Dubby.cpp     ****         {
 474              		.loc 2 271 29 view .LVU116
 475 014c B9F1800F 		cmp	r9, #128
 476 0150 7FF47FAF 		bne	.L9
 477              	.LBE303:
 478              	.LBB335:
 479              	.LBB336:
 480              	.LBB337:
 481              	.LBB338:
 482              	.LBB339:
 124:../../libDaisy//src/dev/oled_ssd130x.h ****         spi_.BlockingTransmit(&cmd, 1);
 483              		.loc 4 124 24 is_stmt 0 view .LVU117
 484 0154 0AF58B67 		add	r7, r10, #1112
ARM GAS  /var/folders/1y/_321xjh9623c014x9_qw12rr0000gn/T//cc4eHiNS.s 			page 32


 485 0158 0AF58C66 		add	r6, r10, #1120
 486 015c 0AF26444 		addw	r4, r10, #1124
 125:../../libDaisy//src/dev/oled_ssd130x.h ****     };
 487              		.loc 4 125 30 view .LVU118
 488 0160 B025     		movs	r5, #176
 489              	.LVL35:
 490              	.L22:
 125:../../libDaisy//src/dev/oled_ssd130x.h ****     };
 491              		.loc 4 125 30 view .LVU119
 492 0162 4FF00008 		mov	r8, #0
 124:../../libDaisy//src/dev/oled_ssd130x.h ****         spi_.BlockingTransmit(&cmd, 1);
 493              		.loc 4 124 23 view .LVU120
 494 0166 3046     		mov	r0, r6
 495 0168 8DF81F50 		strb	r5, [sp, #31]
 496              	.LVL36:
 124:../../libDaisy//src/dev/oled_ssd130x.h ****         spi_.BlockingTransmit(&cmd, 1);
 497              		.loc 4 124 23 view .LVU121
 498              	.LBE339:
 499              	.LBI338:
 122:../../libDaisy//src/dev/oled_ssd130x.h ****     {
 500              		.loc 4 122 10 is_stmt 1 view .LVU122
 501              	.LBB340:
 124:../../libDaisy//src/dev/oled_ssd130x.h ****         spi_.BlockingTransmit(&cmd, 1);
 502              		.loc 4 124 9 view .LVU123
 503              	.LBE340:
 504              	.LBE338:
 360:../../libDaisy//src/dev/oled_ssd130x.h ****     }
 361:../../libDaisy//src/dev/oled_ssd130x.h **** 
 362:../../libDaisy//src/dev/oled_ssd130x.h ****     void Fill(bool on)
 363:../../libDaisy//src/dev/oled_ssd130x.h ****     {
 364:../../libDaisy//src/dev/oled_ssd130x.h ****         for(size_t i = 0; i < sizeof(buffer_); i++)
 365:../../libDaisy//src/dev/oled_ssd130x.h ****         {
 366:../../libDaisy//src/dev/oled_ssd130x.h ****             buffer_[i] = on ? 0xff : 0x00;
 367:../../libDaisy//src/dev/oled_ssd130x.h ****         }
 368:../../libDaisy//src/dev/oled_ssd130x.h ****     };
 369:../../libDaisy//src/dev/oled_ssd130x.h **** 
 370:../../libDaisy//src/dev/oled_ssd130x.h ****     /**
 371:../../libDaisy//src/dev/oled_ssd130x.h ****      * Update the display 
 372:../../libDaisy//src/dev/oled_ssd130x.h ****     */
 373:../../libDaisy//src/dev/oled_ssd130x.h ****     void Update()
 374:../../libDaisy//src/dev/oled_ssd130x.h ****     {
 375:../../libDaisy//src/dev/oled_ssd130x.h ****         uint8_t i;
 376:../../libDaisy//src/dev/oled_ssd130x.h ****         uint8_t high_column_addr;
 377:../../libDaisy//src/dev/oled_ssd130x.h ****         switch(height)
 378:../../libDaisy//src/dev/oled_ssd130x.h ****         {
 379:../../libDaisy//src/dev/oled_ssd130x.h ****             case 32: high_column_addr = 0x12; break;
 380:../../libDaisy//src/dev/oled_ssd130x.h **** 
 381:../../libDaisy//src/dev/oled_ssd130x.h ****             default: high_column_addr = 0x10; break;
 382:../../libDaisy//src/dev/oled_ssd130x.h ****         }
 383:../../libDaisy//src/dev/oled_ssd130x.h ****         for(i = 0; i < (height / 8); i++)
 505              		.loc 4 383 22 is_stmt 0 view .LVU124
 506 016c 0135     		adds	r5, r5, #1
 507              	.LVL37:
 508              	.LBB343:
 509              	.LBB341:
 124:../../libDaisy//src/dev/oled_ssd130x.h ****         spi_.BlockingTransmit(&cmd, 1);
 510              		.loc 4 124 23 view .LVU125
ARM GAS  /var/folders/1y/_321xjh9623c014x9_qw12rr0000gn/T//cc4eHiNS.s 			page 33


 511 016e 4146     		mov	r1, r8
 512 0170 FFF7FEFF 		bl	dsy_gpio_write
 513              	.LVL38:
 125:../../libDaisy//src/dev/oled_ssd130x.h ****     };
 514              		.loc 4 125 9 is_stmt 1 view .LVU126
 125:../../libDaisy//src/dev/oled_ssd130x.h ****     };
 515              		.loc 4 125 30 is_stmt 0 view .LVU127
 516 0174 6423     		movs	r3, #100
 517 0176 0122     		movs	r2, #1
 518 0178 0DF11F01 		add	r1, sp, #31
 519 017c 3846     		mov	r0, r7
 520              	.LBE341:
 521              	.LBE343:
 522              		.loc 4 383 22 view .LVU128
 523 017e EDB2     		uxtb	r5, r5
 524              	.LBB344:
 525              	.LBB342:
 125:../../libDaisy//src/dev/oled_ssd130x.h ****     };
 526              		.loc 4 125 30 view .LVU129
 527 0180 FFF7FEFF 		bl	_ZN5daisy9SpiHandle16BlockingTransmitEPhjm
 528              	.LVL39:
 125:../../libDaisy//src/dev/oled_ssd130x.h ****     };
 529              		.loc 4 125 30 view .LVU130
 530              	.LBE342:
 531              	.LBE344:
 532              	.LBB345:
 533              	.LBB346:
 124:../../libDaisy//src/dev/oled_ssd130x.h ****         spi_.BlockingTransmit(&cmd, 1);
 534              		.loc 4 124 23 view .LVU131
 535 0184 4146     		mov	r1, r8
 536 0186 3046     		mov	r0, r6
 537 0188 8DF81F80 		strb	r8, [sp, #31]
 538              	.LVL40:
 124:../../libDaisy//src/dev/oled_ssd130x.h ****         spi_.BlockingTransmit(&cmd, 1);
 539              		.loc 4 124 23 view .LVU132
 540              	.LBE346:
 541              	.LBI345:
 122:../../libDaisy//src/dev/oled_ssd130x.h ****     {
 542              		.loc 4 122 10 is_stmt 1 view .LVU133
 543              	.LBB347:
 124:../../libDaisy//src/dev/oled_ssd130x.h ****         spi_.BlockingTransmit(&cmd, 1);
 544              		.loc 4 124 9 view .LVU134
 124:../../libDaisy//src/dev/oled_ssd130x.h ****         spi_.BlockingTransmit(&cmd, 1);
 545              		.loc 4 124 23 is_stmt 0 view .LVU135
 546 018c FFF7FEFF 		bl	dsy_gpio_write
 547              	.LVL41:
 125:../../libDaisy//src/dev/oled_ssd130x.h ****     };
 548              		.loc 4 125 9 is_stmt 1 view .LVU136
 125:../../libDaisy//src/dev/oled_ssd130x.h ****     };
 549              		.loc 4 125 30 is_stmt 0 view .LVU137
 550 0190 0122     		movs	r2, #1
 551 0192 6423     		movs	r3, #100
 552 0194 0DF11F01 		add	r1, sp, #31
 553 0198 3846     		mov	r0, r7
 554 019a FFF7FEFF 		bl	_ZN5daisy9SpiHandle16BlockingTransmitEPhjm
 555              	.LVL42:
 125:../../libDaisy//src/dev/oled_ssd130x.h ****     };
ARM GAS  /var/folders/1y/_321xjh9623c014x9_qw12rr0000gn/T//cc4eHiNS.s 			page 34


 556              		.loc 4 125 30 view .LVU138
 557 019e 1023     		movs	r3, #16
 558              	.LBE347:
 559              	.LBE345:
 560              	.LBB348:
 561              	.LBB349:
 124:../../libDaisy//src/dev/oled_ssd130x.h ****         spi_.BlockingTransmit(&cmd, 1);
 562              		.loc 4 124 23 view .LVU139
 563 01a0 4146     		mov	r1, r8
 564 01a2 3046     		mov	r0, r6
 565 01a4 8DF81F30 		strb	r3, [sp, #31]
 566              	.LVL43:
 124:../../libDaisy//src/dev/oled_ssd130x.h ****         spi_.BlockingTransmit(&cmd, 1);
 567              		.loc 4 124 23 view .LVU140
 568              	.LBE349:
 569              	.LBI348:
 122:../../libDaisy//src/dev/oled_ssd130x.h ****     {
 570              		.loc 4 122 10 is_stmt 1 view .LVU141
 571              	.LBB350:
 124:../../libDaisy//src/dev/oled_ssd130x.h ****         spi_.BlockingTransmit(&cmd, 1);
 572              		.loc 4 124 9 view .LVU142
 124:../../libDaisy//src/dev/oled_ssd130x.h ****         spi_.BlockingTransmit(&cmd, 1);
 573              		.loc 4 124 23 is_stmt 0 view .LVU143
 574 01a8 FFF7FEFF 		bl	dsy_gpio_write
 575              	.LVL44:
 125:../../libDaisy//src/dev/oled_ssd130x.h ****     };
 576              		.loc 4 125 9 is_stmt 1 view .LVU144
 125:../../libDaisy//src/dev/oled_ssd130x.h ****     };
 577              		.loc 4 125 30 is_stmt 0 view .LVU145
 578 01ac 6423     		movs	r3, #100
 579 01ae 0122     		movs	r2, #1
 580 01b0 0DF11F01 		add	r1, sp, #31
 581 01b4 3846     		mov	r0, r7
 582 01b6 FFF7FEFF 		bl	_ZN5daisy9SpiHandle16BlockingTransmitEPhjm
 583              	.LVL45:
 125:../../libDaisy//src/dev/oled_ssd130x.h ****     };
 584              		.loc 4 125 30 view .LVU146
 585              	.LBE350:
 586              	.LBE348:
 587              	.LBB351:
 588              	.LBI351:
 128:../../libDaisy//src/dev/oled_ssd130x.h ****     {
 589              		.loc 4 128 10 is_stmt 1 view .LVU147
 590              	.LBB352:
 130:../../libDaisy//src/dev/oled_ssd130x.h ****         spi_.BlockingTransmit(buff, size);
 591              		.loc 4 130 9 view .LVU148
 130:../../libDaisy//src/dev/oled_ssd130x.h ****         spi_.BlockingTransmit(buff, size);
 592              		.loc 4 130 23 is_stmt 0 view .LVU149
 593 01ba 0121     		movs	r1, #1
 594 01bc 3046     		mov	r0, r6
 595 01be FFF7FEFF 		bl	dsy_gpio_write
 596              	.LVL46:
 131:../../libDaisy//src/dev/oled_ssd130x.h ****     };
 597              		.loc 4 131 9 is_stmt 1 view .LVU150
 131:../../libDaisy//src/dev/oled_ssd130x.h ****     };
 598              		.loc 4 131 30 is_stmt 0 view .LVU151
 599 01c2 8022     		movs	r2, #128
ARM GAS  /var/folders/1y/_321xjh9623c014x9_qw12rr0000gn/T//cc4eHiNS.s 			page 35


 600 01c4 2146     		mov	r1, r4
 601 01c6 6423     		movs	r3, #100
 602 01c8 3846     		mov	r0, r7
 603              	.LBE352:
 604              	.LBE351:
 605              		.loc 4 383 22 view .LVU152
 606 01ca 1444     		add	r4, r4, r2
 607              	.LVL47:
 608              	.LBB354:
 609              	.LBB353:
 131:../../libDaisy//src/dev/oled_ssd130x.h ****     };
 610              		.loc 4 131 30 view .LVU153
 611 01cc FFF7FEFF 		bl	_ZN5daisy9SpiHandle16BlockingTransmitEPhjm
 612              	.LVL48:
 131:../../libDaisy//src/dev/oled_ssd130x.h ****     };
 613              		.loc 4 131 30 view .LVU154
 614              	.LBE353:
 615              	.LBE354:
 616              		.loc 4 383 9 is_stmt 1 view .LVU155
 617              		.loc 4 383 22 view .LVU156
 618 01d0 B82D     		cmp	r5, #184
 619 01d2 C6D1     		bne	.L22
 620              	.LBE337:
 621              	.LBE336:
 622              	.LBE335:
 623              	.LBE356:
 284:Dubby.cpp     ****         }
 285:Dubby.cpp     **** 
 286:Dubby.cpp     ****         display.Update();
 287:Dubby.cpp     ****     }   
 288:Dubby.cpp     **** }
 624              		.loc 2 288 1 is_stmt 0 view .LVU157
 625 01d4 09B0     		add	sp, sp, #36
 626              		.cfi_remember_state
 627              		.cfi_def_cfa_offset 36
 628              		@ sp needed
 629 01d6 BDE8F08F 		pop	{r4, r5, r6, r7, r8, r9, r10, fp, pc}
 630              	.LVL49:
 631              	.L26:
 632              		.cfi_restore_state
 633              	.LBB357:
 634              	.LBB355:
 635              	.LBB334:
 636              	.LBB332:
 637              	.LBB307:
 638              		.loc 2 288 1 view .LVU158
 639 01da 0024     		movs	r4, #0
 640              	.LVL50:
 641              	.L7:
 642              		.loc 2 288 1 view .LVU159
 643              	.LBE307:
 644              	.LBE332:
 276:Dubby.cpp     ****             int x = 1 + i * (OLED_WIDTH - 2) / AUDIO_BLOCK_SIZE;
 645              		.loc 2 276 45 view .LVU160
 646 01dc 0134     		adds	r4, r4, #1
 647 01de 53E7     		b	.L8
 648              	.LVL51:
ARM GAS  /var/folders/1y/_321xjh9623c014x9_qw12rr0000gn/T//cc4eHiNS.s 			page 36


 649              	.L24:
 650              	.LBB333:
 651              	.LBB330:
 652              	.LBB328:
 653              		.loc 1 42 10 is_stmt 1 view .LVU161
 654              	.LBB319:
 352:../../libDaisy//src/dev/oled_ssd130x.h ****     {
 655              		.loc 4 352 10 view .LVU162
 656              	.LBE319:
 657              	.LBE328:
 230:../../libDaisy//src/hid/disp/display.h ****         int_fast16_t error  = deltaX - deltaY;
 658              		.loc 3 230 42 is_stmt 0 view .LVU163
 659 01e0 0120     		movs	r0, #1
 660 01e2 0390     		str	r0, [sp, #12]
 661 01e4 74E7     		b	.L23
 662              	.L45:
 663 01e6 00BF     		.align	2
 664              	.L44:
 665 01e8 00001643 		.word	1125515264
 666              	.LBE330:
 667              	.LBE333:
 668              	.LBE334:
 669              	.LBE355:
 670              	.LBE357:
 671              		.cfi_endproc
 672              	.LFE2673:
 674              		.section	.text._ZN5daisy5Dubby12InitControlsEv,"ax",%progbits
 675              		.align	1
 676              		.p2align 2,,3
 677              		.global	_ZN5daisy5Dubby12InitControlsEv
 678              		.syntax unified
 679              		.thumb
 680              		.thumb_func
 682              	_ZN5daisy5Dubby12InitControlsEv:
 683              	.LVL52:
 684              	.LFB2569:
  61:Dubby.cpp     ****     AdcChannelConfig cfg[CTRL_LAST];
 685              		.loc 2 61 1 is_stmt 1 view -0
 686              		.cfi_startproc
 687              		@ args = 0, pretend = 0, frame = 136
 688              		@ frame_needed = 0, uses_anonymous_args = 0
  62:Dubby.cpp     **** 
 689              		.loc 2 62 5 view .LVU165
  65:Dubby.cpp     ****     cfg[CTRL_2].InitSingle(seed.GetPin(PIN_KNOB_2));
 690              		.loc 2 65 5 view .LVU166
  61:Dubby.cpp     ****     AdcChannelConfig cfg[CTRL_LAST];
 691              		.loc 2 61 1 is_stmt 0 view .LVU167
 692 0000 F0B5     		push	{r4, r5, r6, r7, lr}
 693              		.cfi_def_cfa_offset 20
 694              		.cfi_offset 4, -20
 695              		.cfi_offset 5, -16
 696              		.cfi_offset 6, -12
 697              		.cfi_offset 7, -8
 698              		.cfi_offset 14, -4
 699 0002 0546     		mov	r5, r0
 700 0004 A3B0     		sub	sp, sp, #140
 701              		.cfi_def_cfa_offset 160
ARM GAS  /var/folders/1y/_321xjh9623c014x9_qw12rr0000gn/T//cc4eHiNS.s 			page 37


  65:Dubby.cpp     ****     cfg[CTRL_2].InitSingle(seed.GetPin(PIN_KNOB_2));
 702              		.loc 2 65 27 view .LVU168
 703 0006 1220     		movs	r0, #18
 704              	.LVL53:
 705              	.LBB358:
  76:Dubby.cpp     ****     {
 706              		.loc 2 76 16 view .LVU169
 707 0008 0024     		movs	r4, #0
 708              	.LBE358:
  65:Dubby.cpp     ****     cfg[CTRL_2].InitSingle(seed.GetPin(PIN_KNOB_2));
 709              		.loc 2 65 27 view .LVU170
 710 000a FFF7FEFF 		bl	_ZN5daisy9DaisySeed6GetPinEh
 711              	.LVL54:
 712 000e 0346     		mov	r3, r0	@ movhi
 713 0010 08A8     		add	r0, sp, #32
  73:Dubby.cpp     **** 
 714              		.loc 2 73 18 view .LVU171
 715 0012 05F13406 		add	r6, r5, #52
  65:Dubby.cpp     ****     cfg[CTRL_2].InitSingle(seed.GetPin(PIN_KNOB_2));
 716              		.loc 2 65 27 view .LVU172
 717 0016 ADF80830 		strh	r3, [sp, #8]	@ movhi
 718              	.LBB359:
  78:Dubby.cpp     ****     }
 719              		.loc 2 78 29 view .LVU173
 720 001a 05F11C07 		add	r7, r5, #28
 721              	.LBE359:
  65:Dubby.cpp     ****     cfg[CTRL_2].InitSingle(seed.GetPin(PIN_KNOB_2));
 722              		.loc 2 65 27 view .LVU174
 723 001e 0299     		ldr	r1, [sp, #8]
 724 0020 05F58E75 		add	r5, r5, #284
 725              	.LVL55:
  65:Dubby.cpp     ****     cfg[CTRL_2].InitSingle(seed.GetPin(PIN_KNOB_2));
 726              		.loc 2 65 27 view .LVU175
 727 0024 FFF7FEFF 		bl	_ZN5daisy16AdcChannelConfig10InitSingleE12dsy_gpio_pin
 728              	.LVL56:
  66:Dubby.cpp     ****     cfg[CTRL_3].InitSingle(seed.GetPin(PIN_KNOB_3));
 729              		.loc 2 66 5 is_stmt 1 view .LVU176
  66:Dubby.cpp     ****     cfg[CTRL_3].InitSingle(seed.GetPin(PIN_KNOB_3));
 730              		.loc 2 66 27 is_stmt 0 view .LVU177
 731 0028 0F20     		movs	r0, #15
 732 002a FFF7FEFF 		bl	_ZN5daisy9DaisySeed6GetPinEh
 733              	.LVL57:
 734 002e 0346     		mov	r3, r0	@ movhi
 735 0030 0DF13100 		add	r0, sp, #49
 736 0034 ADF80C30 		strh	r3, [sp, #12]	@ movhi
 737 0038 0399     		ldr	r1, [sp, #12]
 738 003a FFF7FEFF 		bl	_ZN5daisy16AdcChannelConfig10InitSingleE12dsy_gpio_pin
 739              	.LVL58:
  67:Dubby.cpp     ****     cfg[CTRL_4].InitSingle(seed.GetPin(PIN_KNOB_4));
 740              		.loc 2 67 5 is_stmt 1 view .LVU178
  67:Dubby.cpp     ****     cfg[CTRL_4].InitSingle(seed.GetPin(PIN_KNOB_4));
 741              		.loc 2 67 27 is_stmt 0 view .LVU179
 742 003e 1520     		movs	r0, #21
 743 0040 FFF7FEFF 		bl	_ZN5daisy9DaisySeed6GetPinEh
 744              	.LVL59:
 745 0044 0346     		mov	r3, r0	@ movhi
 746 0046 0DF14200 		add	r0, sp, #66
ARM GAS  /var/folders/1y/_321xjh9623c014x9_qw12rr0000gn/T//cc4eHiNS.s 			page 38


 747 004a ADF81030 		strh	r3, [sp, #16]	@ movhi
 748 004e 0499     		ldr	r1, [sp, #16]
 749 0050 FFF7FEFF 		bl	_ZN5daisy16AdcChannelConfig10InitSingleE12dsy_gpio_pin
 750              	.LVL60:
  68:Dubby.cpp     ****     cfg[CTRL_5].InitSingle(seed.GetPin(PIN_JS_H));
 751              		.loc 2 68 5 is_stmt 1 view .LVU180
  68:Dubby.cpp     ****     cfg[CTRL_5].InitSingle(seed.GetPin(PIN_JS_H));
 752              		.loc 2 68 27 is_stmt 0 view .LVU181
 753 0054 1620     		movs	r0, #22
 754 0056 FFF7FEFF 		bl	_ZN5daisy9DaisySeed6GetPinEh
 755              	.LVL61:
 756 005a 0346     		mov	r3, r0	@ movhi
 757 005c 0DF15300 		add	r0, sp, #83
 758 0060 ADF81430 		strh	r3, [sp, #20]	@ movhi
 759 0064 0599     		ldr	r1, [sp, #20]
 760 0066 FFF7FEFF 		bl	_ZN5daisy16AdcChannelConfig10InitSingleE12dsy_gpio_pin
 761              	.LVL62:
  69:Dubby.cpp     ****     cfg[CTRL_6].InitSingle(seed.GetPin(PIN_JS_V));
 762              		.loc 2 69 5 is_stmt 1 view .LVU182
  69:Dubby.cpp     ****     cfg[CTRL_6].InitSingle(seed.GetPin(PIN_JS_V));
 763              		.loc 2 69 27 is_stmt 0 view .LVU183
 764 006a 1020     		movs	r0, #16
 765 006c FFF7FEFF 		bl	_ZN5daisy9DaisySeed6GetPinEh
 766              	.LVL63:
 767 0070 0346     		mov	r3, r0	@ movhi
 768 0072 19A8     		add	r0, sp, #100
 769 0074 ADF81830 		strh	r3, [sp, #24]	@ movhi
 770 0078 0699     		ldr	r1, [sp, #24]
 771 007a FFF7FEFF 		bl	_ZN5daisy16AdcChannelConfig10InitSingleE12dsy_gpio_pin
 772              	.LVL64:
  70:Dubby.cpp     **** 
 773              		.loc 2 70 5 is_stmt 1 view .LVU184
  70:Dubby.cpp     **** 
 774              		.loc 2 70 27 is_stmt 0 view .LVU185
 775 007e 1420     		movs	r0, #20
 776 0080 FFF7FEFF 		bl	_ZN5daisy9DaisySeed6GetPinEh
 777              	.LVL65:
 778 0084 0346     		mov	r3, r0	@ movhi
 779 0086 0DF17500 		add	r0, sp, #117
 780 008a ADF81C30 		strh	r3, [sp, #28]	@ movhi
 781 008e 0799     		ldr	r1, [sp, #28]
 782 0090 FFF7FEFF 		bl	_ZN5daisy16AdcChannelConfig10InitSingleE12dsy_gpio_pin
 783              	.LVL66:
  73:Dubby.cpp     **** 
 784              		.loc 2 73 5 is_stmt 1 view .LVU186
  73:Dubby.cpp     **** 
 785              		.loc 2 73 18 is_stmt 0 view .LVU187
 786 0094 0423     		movs	r3, #4
 787 0096 0622     		movs	r2, #6
 788 0098 08A9     		add	r1, sp, #32
 789 009a 3046     		mov	r0, r6
 790 009c FFF7FEFF 		bl	_ZN5daisy9AdcHandle4InitEPNS_16AdcChannelConfigEjNS0_12OverSamplingE
 791              	.LVL67:
  76:Dubby.cpp     ****     {
 792              		.loc 2 76 5 is_stmt 1 view .LVU188
 793              	.LBB360:
  76:Dubby.cpp     ****     {
ARM GAS  /var/folders/1y/_321xjh9623c014x9_qw12rr0000gn/T//cc4eHiNS.s 			page 39


 794              		.loc 2 76 25 view .LVU189
 795              	.L47:
  78:Dubby.cpp     ****     }
 796              		.loc 2 78 9 discriminator 2 view .LVU190
  78:Dubby.cpp     ****     }
 797              		.loc 2 78 29 is_stmt 0 discriminator 2 view .LVU191
 798 00a0 E1B2     		uxtb	r1, r4
 799 00a2 3046     		mov	r0, r6
 800 00a4 FFF7FEFF 		bl	_ZNK5daisy9AdcHandle6GetPtrEh
 801              	.LVL68:
 802 00a8 0146     		mov	r1, r0
  76:Dubby.cpp     ****     {
 803              		.loc 2 76 5 discriminator 2 view .LVU192
 804 00aa 0134     		adds	r4, r4, #1
 805              	.LVL69:
  78:Dubby.cpp     ****     }
 806              		.loc 2 78 29 discriminator 2 view .LVU193
 807 00ac 3846     		mov	r0, r7
 808 00ae 0191     		str	r1, [sp, #4]
 809 00b0 FFF7FEFF 		bl	_ZNK5daisy9DaisySeed17AudioCallbackRateEv
 810              	.LVL70:
 811 00b4 2846     		mov	r0, r5
 812 00b6 DFED070A 		vldr.32	s1, .L50
 813 00ba 0023     		movs	r3, #0
 814 00bc 0122     		movs	r2, #1
 815 00be 0199     		ldr	r1, [sp, #4]
  76:Dubby.cpp     ****     {
 816              		.loc 2 76 25 discriminator 2 view .LVU194
 817 00c0 2035     		adds	r5, r5, #32
  78:Dubby.cpp     ****     }
 818              		.loc 2 78 29 discriminator 2 view .LVU195
 819 00c2 FFF7FEFF 		bl	_ZN5daisy13AnalogControl4InitEPtfbbf
 820              	.LVL71:
  76:Dubby.cpp     ****     {
 821              		.loc 2 76 5 is_stmt 1 discriminator 2 view .LVU196
  76:Dubby.cpp     ****     {
 822              		.loc 2 76 25 discriminator 2 view .LVU197
 823 00c6 062C     		cmp	r4, #6
 824 00c8 EAD1     		bne	.L47
 825              	.LBE360:
  81:Dubby.cpp     **** }
 826              		.loc 2 81 5 view .LVU198
  81:Dubby.cpp     **** }
 827              		.loc 2 81 19 is_stmt 0 view .LVU199
 828 00ca 3046     		mov	r0, r6
 829 00cc FFF7FEFF 		bl	_ZN5daisy9AdcHandle5StartEv
 830              	.LVL72:
  82:Dubby.cpp     **** 
 831              		.loc 2 82 1 view .LVU200
 832 00d0 23B0     		add	sp, sp, #140
 833              		.cfi_def_cfa_offset 20
 834              		@ sp needed
 835 00d2 F0BD     		pop	{r4, r5, r6, r7, pc}
 836              	.LVL73:
 837              	.L51:
  82:Dubby.cpp     **** 
 838              		.loc 2 82 1 view .LVU201
ARM GAS  /var/folders/1y/_321xjh9623c014x9_qw12rr0000gn/T//cc4eHiNS.s 			page 40


 839              		.align	2
 840              	.L50:
 841 00d4 6F12033B 		.word	990057071
 842              		.cfi_endproc
 843              	.LFE2569:
 845              		.section	.text._ZN5daisy5Dubby11InitButtonsEv,"ax",%progbits
 846              		.align	1
 847              		.p2align 2,,3
 848              		.global	_ZN5daisy5Dubby11InitButtonsEv
 849              		.syntax unified
 850              		.thumb
 851              		.thumb_func
 853              	_ZN5daisy5Dubby11InitButtonsEv:
 854              	.LVL74:
 855              	.LFB2570:
  85:Dubby.cpp     ****     //Set button to pins, to be updated at a 1kHz  samplerate
 856              		.loc 2 85 1 is_stmt 1 view -0
 857              		.cfi_startproc
 858              		@ args = 0, pretend = 0, frame = 16
 859              		@ frame_needed = 0, uses_anonymous_args = 0
  87:Dubby.cpp     ****     buttons[1].Init(seed.GetPin(PIN_GATE_IN_2), 1000);
 860              		.loc 2 87 5 view .LVU203
  85:Dubby.cpp     ****     //Set button to pins, to be updated at a 1kHz  samplerate
 861              		.loc 2 85 1 is_stmt 0 view .LVU204
 862 0000 10B5     		push	{r4, lr}
 863              		.cfi_def_cfa_offset 8
 864              		.cfi_offset 4, -8
 865              		.cfi_offset 14, -4
 866 0002 0446     		mov	r4, r0
  87:Dubby.cpp     ****     buttons[1].Init(seed.GetPin(PIN_GATE_IN_2), 1000);
 867              		.loc 2 87 20 view .LVU205
 868 0004 2020     		movs	r0, #32
 869              	.LVL75:
  85:Dubby.cpp     ****     //Set button to pins, to be updated at a 1kHz  samplerate
 870              		.loc 2 85 1 view .LVU206
 871 0006 2DED028B 		vpush.64	{d8}
 872              		.cfi_def_cfa_offset 16
 873              		.cfi_offset 80, -16
 874              		.cfi_offset 81, -12
 875 000a 84B0     		sub	sp, sp, #16
 876              		.cfi_def_cfa_offset 32
  87:Dubby.cpp     ****     buttons[1].Init(seed.GetPin(PIN_GATE_IN_2), 1000);
 877              		.loc 2 87 20 view .LVU207
 878 000c 9FED1C8A 		vldr.32	s16, .L54
 879 0010 FFF7FEFF 		bl	_ZN5daisy9DaisySeed6GetPinEh
 880              	.LVL76:
 881 0014 0346     		mov	r3, r0	@ movhi
 882 0016 B0EE480A 		vmov.f32	s0, s16
 883 001a 04F50070 		add	r0, r4, #512
 884 001e ADF80030 		strh	r3, [sp]	@ movhi
 885 0022 0099     		ldr	r1, [sp]
 886 0024 FFF7FEFF 		bl	_ZN5daisy6Switch4InitE12dsy_gpio_pinf
 887              	.LVL77:
  88:Dubby.cpp     ****     buttons[2].Init(seed.GetPin(PIN_GATE_IN_3), 1000);
 888              		.loc 2 88 5 is_stmt 1 view .LVU208
  88:Dubby.cpp     ****     buttons[2].Init(seed.GetPin(PIN_GATE_IN_3), 1000);
 889              		.loc 2 88 20 is_stmt 0 view .LVU209
ARM GAS  /var/folders/1y/_321xjh9623c014x9_qw12rr0000gn/T//cc4eHiNS.s 			page 41


 890 0028 1720     		movs	r0, #23
 891 002a FFF7FEFF 		bl	_ZN5daisy9DaisySeed6GetPinEh
 892              	.LVL78:
 893 002e 0346     		mov	r3, r0	@ movhi
 894 0030 B0EE480A 		vmov.f32	s0, s16
 895 0034 04F50470 		add	r0, r4, #528
 896 0038 ADF80430 		strh	r3, [sp, #4]	@ movhi
 897 003c 0199     		ldr	r1, [sp, #4]
 898 003e FFF7FEFF 		bl	_ZN5daisy6Switch4InitE12dsy_gpio_pinf
 899              	.LVL79:
  89:Dubby.cpp     ****     buttons[3].Init(seed.GetPin(PIN_GATE_IN_4), 1000);
 900              		.loc 2 89 5 is_stmt 1 view .LVU210
  89:Dubby.cpp     ****     buttons[3].Init(seed.GetPin(PIN_GATE_IN_4), 1000);
 901              		.loc 2 89 20 is_stmt 0 view .LVU211
 902 0042 1120     		movs	r0, #17
 903 0044 FFF7FEFF 		bl	_ZN5daisy9DaisySeed6GetPinEh
 904              	.LVL80:
 905 0048 0346     		mov	r3, r0	@ movhi
 906 004a B0EE480A 		vmov.f32	s0, s16
 907 004e 04F50870 		add	r0, r4, #544
 908 0052 ADF80830 		strh	r3, [sp, #8]	@ movhi
 909 0056 0299     		ldr	r1, [sp, #8]
 910 0058 FFF7FEFF 		bl	_ZN5daisy6Switch4InitE12dsy_gpio_pinf
 911              	.LVL81:
  90:Dubby.cpp     **** }
 912              		.loc 2 90 5 is_stmt 1 view .LVU212
  90:Dubby.cpp     **** }
 913              		.loc 2 90 20 is_stmt 0 view .LVU213
 914 005c 1320     		movs	r0, #19
 915 005e FFF7FEFF 		bl	_ZN5daisy9DaisySeed6GetPinEh
 916              	.LVL82:
 917 0062 0346     		mov	r3, r0	@ movhi
 918 0064 B0EE480A 		vmov.f32	s0, s16
 919 0068 04F50C70 		add	r0, r4, #560
 920 006c ADF80C30 		strh	r3, [sp, #12]	@ movhi
 921 0070 0399     		ldr	r1, [sp, #12]
  91:Dubby.cpp     **** 
 922              		.loc 2 91 1 view .LVU214
 923 0072 04B0     		add	sp, sp, #16
 924              		.cfi_def_cfa_offset 16
 925              		@ sp needed
 926 0074 BDEC028B 		vldm	sp!, {d8}
 927              		.cfi_restore 80
 928              		.cfi_restore 81
 929              		.cfi_def_cfa_offset 8
 930 0078 BDE81040 		pop	{r4, lr}
 931              		.cfi_restore 14
 932              		.cfi_restore 4
 933              		.cfi_def_cfa_offset 0
 934              	.LVL83:
  90:Dubby.cpp     **** }
 935              		.loc 2 90 20 view .LVU215
 936 007c FFF7FEBF 		b	_ZN5daisy6Switch4InitE12dsy_gpio_pinf
 937              	.LVL84:
 938              	.L55:
  90:Dubby.cpp     **** }
 939              		.loc 2 90 20 view .LVU216
ARM GAS  /var/folders/1y/_321xjh9623c014x9_qw12rr0000gn/T//cc4eHiNS.s 			page 42


 940              		.align	2
 941              	.L54:
 942 0080 00007A44 		.word	1148846080
 943              		.cfi_endproc
 944              	.LFE2570:
 946              		.section	.text._ZN5daisy5Dubby8InitMidiEv,"ax",%progbits
 947              		.align	1
 948              		.p2align 2,,3
 949              		.global	_ZN5daisy5Dubby8InitMidiEv
 950              		.syntax unified
 951              		.thumb
 952              		.thumb_func
 954              	_ZN5daisy5Dubby8InitMidiEv:
 955              	.LVL85:
 956              	.LFB2571:
  94:Dubby.cpp     ****     MidiUartHandler::Config midi_config;
 957              		.loc 2 94 1 is_stmt 1 view -0
 958              		.cfi_startproc
 959              		@ args = 0, pretend = 0, frame = 32
 960              		@ frame_needed = 0, uses_anonymous_args = 0
  95:Dubby.cpp     ****     midi.Init(midi_config);
 961              		.loc 2 95 5 view .LVU218
 962              	.LBB374:
 963              	.LBI374:
 964              		.file 6 "../../libDaisy//src/hid/midi.h"
   1:../../libDaisy//src/hid/midi.h **** #pragma once
   2:../../libDaisy//src/hid/midi.h **** #ifndef DSY_MIDI_H
   3:../../libDaisy//src/hid/midi.h **** #define DSY_MIDI_H
   4:../../libDaisy//src/hid/midi.h **** 
   5:../../libDaisy//src/hid/midi.h **** // TODO: make this adjustable
   6:../../libDaisy//src/hid/midi.h **** #define SYSEX_BUFFER_LEN 128
   7:../../libDaisy//src/hid/midi.h **** 
   8:../../libDaisy//src/hid/midi.h **** #include <stdint.h>
   9:../../libDaisy//src/hid/midi.h **** #include <stdlib.h>
  10:../../libDaisy//src/hid/midi.h **** #include "per/uart.h"
  11:../../libDaisy//src/hid/midi.h **** #include "util/ringbuffer.h"
  12:../../libDaisy//src/hid/midi.h **** #include "hid/MidiEvent.h"
  13:../../libDaisy//src/hid/midi.h **** #include "hid/usb_midi.h"
  14:../../libDaisy//src/hid/midi.h **** #include "sys/system.h"
  15:../../libDaisy//src/hid/midi.h **** 
  16:../../libDaisy//src/hid/midi.h **** namespace daisy
  17:../../libDaisy//src/hid/midi.h **** {
  18:../../libDaisy//src/hid/midi.h **** /** @brief   Transport layer for sending and receiving MIDI data over UART 
  19:../../libDaisy//src/hid/midi.h ****  *  @details This is the mode of communication used for TRS and DIN MIDI
  20:../../libDaisy//src/hid/midi.h ****  *  @ingroup midi
  21:../../libDaisy//src/hid/midi.h **** */
  22:../../libDaisy//src/hid/midi.h **** class MidiUartTransport
  23:../../libDaisy//src/hid/midi.h **** {
  24:../../libDaisy//src/hid/midi.h ****   public:
  25:../../libDaisy//src/hid/midi.h ****     MidiUartTransport() {}
  26:../../libDaisy//src/hid/midi.h ****     ~MidiUartTransport() {}
  27:../../libDaisy//src/hid/midi.h **** 
  28:../../libDaisy//src/hid/midi.h ****     struct Config
  29:../../libDaisy//src/hid/midi.h ****     {
  30:../../libDaisy//src/hid/midi.h ****         UartHandler::Config::Peripheral periph;
  31:../../libDaisy//src/hid/midi.h ****         dsy_gpio_pin                    rx;
  32:../../libDaisy//src/hid/midi.h ****         dsy_gpio_pin                    tx;
ARM GAS  /var/folders/1y/_321xjh9623c014x9_qw12rr0000gn/T//cc4eHiNS.s 			page 43


  33:../../libDaisy//src/hid/midi.h **** 
  34:../../libDaisy//src/hid/midi.h ****         Config()
  35:../../libDaisy//src/hid/midi.h ****         {
  36:../../libDaisy//src/hid/midi.h ****             periph = UartHandler::Config::Peripheral::USART_1;
  37:../../libDaisy//src/hid/midi.h ****             rx     = {DSY_GPIOB, 7};
  38:../../libDaisy//src/hid/midi.h ****             tx     = {DSY_GPIOB, 6};
  39:../../libDaisy//src/hid/midi.h ****         }
  40:../../libDaisy//src/hid/midi.h ****     };
  41:../../libDaisy//src/hid/midi.h **** 
  42:../../libDaisy//src/hid/midi.h ****     inline void Init(Config config)
  43:../../libDaisy//src/hid/midi.h ****     {
  44:../../libDaisy//src/hid/midi.h ****         UartHandler::Config uart_config;
  45:../../libDaisy//src/hid/midi.h **** 
  46:../../libDaisy//src/hid/midi.h ****         //defaults
  47:../../libDaisy//src/hid/midi.h ****         uart_config.baudrate   = 31250;
  48:../../libDaisy//src/hid/midi.h ****         uart_config.stopbits   = UartHandler::Config::StopBits::BITS_1;
  49:../../libDaisy//src/hid/midi.h ****         uart_config.parity     = UartHandler::Config::Parity::NONE;
  50:../../libDaisy//src/hid/midi.h ****         uart_config.mode       = UartHandler::Config::Mode::TX_RX;
  51:../../libDaisy//src/hid/midi.h ****         uart_config.wordlength = UartHandler::Config::WordLength::BITS_8;
  52:../../libDaisy//src/hid/midi.h **** 
  53:../../libDaisy//src/hid/midi.h ****         //user settings
  54:../../libDaisy//src/hid/midi.h ****         uart_config.periph        = config.periph;
  55:../../libDaisy//src/hid/midi.h ****         uart_config.pin_config.rx = config.rx;
  56:../../libDaisy//src/hid/midi.h ****         uart_config.pin_config.tx = config.tx;
  57:../../libDaisy//src/hid/midi.h **** 
  58:../../libDaisy//src/hid/midi.h ****         uart_.Init(uart_config);
  59:../../libDaisy//src/hid/midi.h ****     }
  60:../../libDaisy//src/hid/midi.h **** 
  61:../../libDaisy//src/hid/midi.h ****     inline void    StartRx() { uart_.StartRx(); }
  62:../../libDaisy//src/hid/midi.h ****     inline size_t  Readable() { return uart_.Readable(); }
  63:../../libDaisy//src/hid/midi.h ****     inline uint8_t Rx() { return uart_.PopRx(); }
  64:../../libDaisy//src/hid/midi.h ****     inline bool    RxActive() { return uart_.RxActive(); }
  65:../../libDaisy//src/hid/midi.h ****     inline void    FlushRx() { uart_.FlushRx(); }
  66:../../libDaisy//src/hid/midi.h ****     inline void    Tx(uint8_t* buff, size_t size) { uart_.PollTx(buff, size); }
  67:../../libDaisy//src/hid/midi.h **** 
  68:../../libDaisy//src/hid/midi.h ****   private:
  69:../../libDaisy//src/hid/midi.h ****     UartHandler uart_;
  70:../../libDaisy//src/hid/midi.h **** };
  71:../../libDaisy//src/hid/midi.h **** 
  72:../../libDaisy//src/hid/midi.h **** /** 
  73:../../libDaisy//src/hid/midi.h ****     @brief Simple MIDI Handler \n 
  74:../../libDaisy//src/hid/midi.h ****     Parses bytes from an input into valid MidiEvents. \n 
  75:../../libDaisy//src/hid/midi.h ****     The MidiEvents fill a FIFO queue that the user can pop messages from.
  76:../../libDaisy//src/hid/midi.h ****     @author shensley
  77:../../libDaisy//src/hid/midi.h ****     @date March 2020
  78:../../libDaisy//src/hid/midi.h ****     @ingroup midi
  79:../../libDaisy//src/hid/midi.h **** */
  80:../../libDaisy//src/hid/midi.h **** template <typename Transport>
  81:../../libDaisy//src/hid/midi.h **** class MidiHandler
  82:../../libDaisy//src/hid/midi.h **** {
  83:../../libDaisy//src/hid/midi.h ****   public:
  84:../../libDaisy//src/hid/midi.h ****     MidiHandler() {}
  85:../../libDaisy//src/hid/midi.h ****     ~MidiHandler() {}
  86:../../libDaisy//src/hid/midi.h **** 
  87:../../libDaisy//src/hid/midi.h ****     struct Config
 965              		.loc 6 87 12 view .LVU219
 966              	.LBB375:
ARM GAS  /var/folders/1y/_321xjh9623c014x9_qw12rr0000gn/T//cc4eHiNS.s 			page 44


 967              	.LBI375:
  34:../../libDaisy//src/hid/midi.h ****         {
 968              		.loc 6 34 9 view .LVU220
 969              	.LBE375:
 970              	.LBE374:
  36:../../libDaisy//src/hid/midi.h ****             rx     = {DSY_GPIOB, 7};
 971              		.loc 6 36 13 view .LVU221
  37:../../libDaisy//src/hid/midi.h ****             tx     = {DSY_GPIOB, 6};
 972              		.loc 6 37 13 view .LVU222
  38:../../libDaisy//src/hid/midi.h ****         }
 973              		.loc 6 38 13 view .LVU223
  96:Dubby.cpp     **** }
 974              		.loc 2 96 5 view .LVU224
  94:Dubby.cpp     ****     MidiUartHandler::Config midi_config;
 975              		.loc 2 94 1 is_stmt 0 view .LVU225
 976 0000 70B5     		push	{r4, r5, r6, lr}
 977              		.cfi_def_cfa_offset 16
 978              		.cfi_offset 4, -16
 979              		.cfi_offset 5, -12
 980              		.cfi_offset 6, -8
 981              		.cfi_offset 14, -4
 982              	.LBB376:
 983              	.LBB377:
 984              	.LBB378:
 985              	.LBB379:
 986              	.LBB380:
 987              	.LBB381:
 988              	.LBB382:
 989              		.file 7 "../../libDaisy//src/per/uart.h"
   1:../../libDaisy//src/per/uart.h **** /* 
   2:../../libDaisy//src/per/uart.h **** TODO
   3:../../libDaisy//src/per/uart.h **** - UART1 defaults to DMA, add flexible config for DMA on all periphs
   4:../../libDaisy//src/per/uart.h **** - Transmit function improvements.
   5:../../libDaisy//src/per/uart.h **** - Overflow handling, etc. for Rx Queue.
   6:../../libDaisy//src/per/uart.h **** */
   7:../../libDaisy//src/per/uart.h **** 
   8:../../libDaisy//src/per/uart.h **** #pragma once
   9:../../libDaisy//src/per/uart.h **** #ifndef DSY_UART_H
  10:../../libDaisy//src/per/uart.h **** #define DSY_UART_H /**< macro */
  11:../../libDaisy//src/per/uart.h **** #include "daisy_core.h"
  12:../../libDaisy//src/per/uart.h **** 
  13:../../libDaisy//src/per/uart.h **** 
  14:../../libDaisy//src/per/uart.h **** namespace daisy
  15:../../libDaisy//src/per/uart.h **** {
  16:../../libDaisy//src/per/uart.h **** /** @addtogroup serial
  17:../../libDaisy//src/per/uart.h ****     @{
  18:../../libDaisy//src/per/uart.h ****     */
  19:../../libDaisy//src/per/uart.h **** 
  20:../../libDaisy//src/per/uart.h **** /** 
  21:../../libDaisy//src/per/uart.h ****     Uart Peripheral
  22:../../libDaisy//src/per/uart.h ****     @author shensley
  23:../../libDaisy//src/per/uart.h ****     @date March 2020
  24:../../libDaisy//src/per/uart.h ****     */
  25:../../libDaisy//src/per/uart.h **** class UartHandler
  26:../../libDaisy//src/per/uart.h **** {
  27:../../libDaisy//src/per/uart.h ****   public:
  28:../../libDaisy//src/per/uart.h ****     struct Config
ARM GAS  /var/folders/1y/_321xjh9623c014x9_qw12rr0000gn/T//cc4eHiNS.s 			page 45


  29:../../libDaisy//src/per/uart.h ****     {
  30:../../libDaisy//src/per/uart.h ****         enum class Peripheral
  31:../../libDaisy//src/per/uart.h ****         {
  32:../../libDaisy//src/per/uart.h ****             USART_1,
  33:../../libDaisy//src/per/uart.h ****             USART_2,
  34:../../libDaisy//src/per/uart.h ****             USART_3,
  35:../../libDaisy//src/per/uart.h ****             UART_4,
  36:../../libDaisy//src/per/uart.h ****             UART_5,
  37:../../libDaisy//src/per/uart.h ****             USART_6,
  38:../../libDaisy//src/per/uart.h ****             UART_7,
  39:../../libDaisy//src/per/uart.h ****             UART_8,
  40:../../libDaisy//src/per/uart.h ****             LPUART_1,
  41:../../libDaisy//src/per/uart.h ****         };
  42:../../libDaisy//src/per/uart.h **** 
  43:../../libDaisy//src/per/uart.h ****         enum class StopBits
  44:../../libDaisy//src/per/uart.h ****         {
  45:../../libDaisy//src/per/uart.h ****             BITS_0_5,
  46:../../libDaisy//src/per/uart.h ****             BITS_1,
  47:../../libDaisy//src/per/uart.h ****             BITS_1_5,
  48:../../libDaisy//src/per/uart.h ****             BITS_2,
  49:../../libDaisy//src/per/uart.h ****         };
  50:../../libDaisy//src/per/uart.h **** 
  51:../../libDaisy//src/per/uart.h ****         enum class Parity
  52:../../libDaisy//src/per/uart.h ****         {
  53:../../libDaisy//src/per/uart.h ****             NONE,
  54:../../libDaisy//src/per/uart.h ****             EVEN,
  55:../../libDaisy//src/per/uart.h ****             ODD,
  56:../../libDaisy//src/per/uart.h ****         };
  57:../../libDaisy//src/per/uart.h **** 
  58:../../libDaisy//src/per/uart.h ****         enum class Mode
  59:../../libDaisy//src/per/uart.h ****         {
  60:../../libDaisy//src/per/uart.h ****             RX,
  61:../../libDaisy//src/per/uart.h ****             TX,
  62:../../libDaisy//src/per/uart.h ****             TX_RX,
  63:../../libDaisy//src/per/uart.h ****         };
  64:../../libDaisy//src/per/uart.h **** 
  65:../../libDaisy//src/per/uart.h ****         enum class WordLength
  66:../../libDaisy//src/per/uart.h ****         {
  67:../../libDaisy//src/per/uart.h ****             BITS_7,
  68:../../libDaisy//src/per/uart.h ****             BITS_8,
  69:../../libDaisy//src/per/uart.h ****             BITS_9,
  70:../../libDaisy//src/per/uart.h ****         };
  71:../../libDaisy//src/per/uart.h **** 
  72:../../libDaisy//src/per/uart.h ****         struct
  73:../../libDaisy//src/per/uart.h ****         {
  74:../../libDaisy//src/per/uart.h ****             dsy_gpio_pin tx; /**< & */
  75:../../libDaisy//src/per/uart.h ****             dsy_gpio_pin rx; /**< & */
  76:../../libDaisy//src/per/uart.h ****         } pin_config;        /**< & */
  77:../../libDaisy//src/per/uart.h **** 
  78:../../libDaisy//src/per/uart.h ****         Config()
  79:../../libDaisy//src/per/uart.h ****         {
  80:../../libDaisy//src/per/uart.h ****             // user must init periph, pin_config, and mode
  81:../../libDaisy//src/per/uart.h ****             stopbits   = StopBits::BITS_1;
 990              		.loc 7 81 24 view .LVU226
 991 0002 0123     		movs	r3, #1
 992              	.LBE382:
 993              	.LBE381:
ARM GAS  /var/folders/1y/_321xjh9623c014x9_qw12rr0000gn/T//cc4eHiNS.s 			page 46


 994              	.LBE380:
 995              	.LBE379:
 996              	.LBE378:
 997              	.LBE377:
 998              	.LBE376:
  94:Dubby.cpp     ****     MidiUartHandler::Config midi_config;
 999              		.loc 2 94 1 view .LVU227
 1000 0004 88B0     		sub	sp, sp, #32
 1001              		.cfi_def_cfa_offset 48
 1002              	.LBB410:
 1003              	.LBB407:
  88:../../libDaisy//src/hid/midi.h ****     {
  89:../../libDaisy//src/hid/midi.h ****         typename Transport::Config transport_config;
  90:../../libDaisy//src/hid/midi.h ****     };
  91:../../libDaisy//src/hid/midi.h **** 
  92:../../libDaisy//src/hid/midi.h ****     /** Initializes the MidiHandler 
  93:../../libDaisy//src/hid/midi.h ****      *  \param config Configuration structure used to define specifics to the MIDI Handler.
  94:../../libDaisy//src/hid/midi.h ****      */
  95:../../libDaisy//src/hid/midi.h ****     void Init(Config config)
  96:../../libDaisy//src/hid/midi.h ****     {
  97:../../libDaisy//src/hid/midi.h ****         config_ = config;
 1004              		.loc 6 97 9 view .LVU228
 1005 0006 0025     		movs	r5, #0
 1006              	.LBE407:
 1007              	.LBE410:
  94:Dubby.cpp     ****     MidiUartHandler::Config midi_config;
 1008              		.loc 2 94 1 view .LVU229
 1009 0008 0446     		mov	r4, r0
 1010              	.LBB411:
 1011              	.LBB408:
 1012              	.LBB400:
 1013              	.LBB396:
 1014              	.LBB391:
 1015              	.LBB386:
 1016              	.LBB383:
  82:../../libDaisy//src/per/uart.h ****             parity     = Parity::NONE;
  83:../../libDaisy//src/per/uart.h ****             wordlength = WordLength::BITS_8;
 1017              		.loc 7 83 24 view .LVU230
 1018 000a 0693     		str	r3, [sp, #24]
 1019              	.LBE383:
 1020              	.LBE386:
 1021              	.LBE391:
  58:../../libDaisy//src/hid/midi.h ****     }
 1022              		.loc 6 58 19 view .LVU231
 1023 000c 49F61410 		movw	r0, #39188
 1024              	.LVL86:
  58:../../libDaisy//src/hid/midi.h ****     }
 1025              		.loc 6 58 19 view .LVU232
 1026              	.LBE396:
 1027              	.LBE400:
 1028              	.LBE408:
 1029              	.LBI376:
  95:../../libDaisy//src/hid/midi.h ****     {
 1030              		.loc 6 95 10 is_stmt 1 view .LVU233
 1031              	.LBB409:
 1032              		.loc 6 97 9 is_stmt 0 view .LVU234
 1033 0010 04F51046 		add	r6, r4, #36864
ARM GAS  /var/folders/1y/_321xjh9623c014x9_qw12rr0000gn/T//cc4eHiNS.s 			page 47


 1034 0014 0E4A     		ldr	r2, .L58
 1035              	.LBB401:
 1036              	.LBB397:
 1037              	.LBB392:
 1038              	.LBB387:
  79:../../libDaisy//src/per/uart.h ****             // user must init periph, pin_config, and mode
 1039              		.loc 7 79 9 view .LVU235
 1040 0016 0F49     		ldr	r1, .L58+4
 1041              	.LBE387:
 1042              	.LBE392:
  58:../../libDaisy//src/hid/midi.h ****     }
 1043              		.loc 6 58 19 view .LVU236
 1044 0018 2044     		add	r0, r0, r4
 1045              	.LBE397:
 1046              	.LBE401:
 1047              		.loc 6 97 9 view .LVU237
 1048 001a C6F81029 		str	r2, [r6, #2320]
 1049              	.LVL87:
 1050              	.LBB402:
 1051              	.LBI378:
  42:../../libDaisy//src/hid/midi.h ****     {
 1052              		.loc 6 42 17 is_stmt 1 view .LVU238
 1053              	.LBB398:
  44:../../libDaisy//src/hid/midi.h **** 
 1054              		.loc 6 44 9 view .LVU239
 1055              	.LBB393:
 1056              	.LBI380:
  78:../../libDaisy//src/per/uart.h ****         {
 1057              		.loc 7 78 9 view .LVU240
 1058              	.LBB388:
 1059              	.LBB384:
  81:../../libDaisy//src/per/uart.h ****             parity     = Parity::NONE;
 1060              		.loc 7 81 13 view .LVU241
  82:../../libDaisy//src/per/uart.h ****             wordlength = WordLength::BITS_8;
 1061              		.loc 7 82 13 view .LVU242
 1062              		.loc 7 83 13 view .LVU243
  84:../../libDaisy//src/per/uart.h ****             baudrate   = 4800;
 1063              		.loc 7 84 13 view .LVU244
 1064              		.loc 7 84 13 is_stmt 0 view .LVU245
 1065              	.LBE384:
 1066              	.LBE388:
 1067              	.LBE393:
  47:../../libDaisy//src/hid/midi.h ****         uart_config.stopbits   = UartHandler::Config::StopBits::BITS_1;
 1068              		.loc 6 47 9 is_stmt 1 view .LVU246
  48:../../libDaisy//src/hid/midi.h ****         uart_config.parity     = UartHandler::Config::Parity::NONE;
 1069              		.loc 6 48 9 view .LVU247
  49:../../libDaisy//src/hid/midi.h ****         uart_config.mode       = UartHandler::Config::Mode::TX_RX;
 1070              		.loc 6 49 9 view .LVU248
  50:../../libDaisy//src/hid/midi.h ****         uart_config.wordlength = UartHandler::Config::WordLength::BITS_8;
 1071              		.loc 6 50 9 view .LVU249
  51:../../libDaisy//src/hid/midi.h **** 
 1072              		.loc 6 51 9 view .LVU250
  54:../../libDaisy//src/hid/midi.h ****         uart_config.pin_config.rx = config.rx;
 1073              		.loc 6 54 9 view .LVU251
  55:../../libDaisy//src/hid/midi.h ****         uart_config.pin_config.tx = config.tx;
 1074              		.loc 6 55 9 view .LVU252
  56:../../libDaisy//src/hid/midi.h **** 
ARM GAS  /var/folders/1y/_321xjh9623c014x9_qw12rr0000gn/T//cc4eHiNS.s 			page 48


 1075              		.loc 6 56 9 view .LVU253
 1076              	.LBB394:
 1077              	.LBB389:
  79:../../libDaisy//src/per/uart.h ****             // user must init periph, pin_config, and mode
 1078              		.loc 7 79 9 is_stmt 0 view .LVU254
 1079 001e 0191     		str	r1, [sp, #4]
 1080              	.LBE389:
 1081              	.LBE394:
  58:../../libDaisy//src/hid/midi.h ****     }
 1082              		.loc 6 58 19 view .LVU255
 1083 0020 01A9     		add	r1, sp, #4
 1084              	.LBE398:
 1085              	.LBE402:
 1086              		.loc 6 97 9 view .LVU256
 1087 0022 C6F80C59 		str	r5, [r6, #2316]
 1088              	.LBB403:
 1089              	.LBB399:
 1090              	.LBB395:
 1091              	.LBB390:
 1092              	.LBB385:
  82:../../libDaisy//src/per/uart.h ****             wordlength = WordLength::BITS_8;
 1093              		.loc 7 82 24 view .LVU257
 1094 0026 0495     		str	r5, [sp, #16]
  81:../../libDaisy//src/per/uart.h ****             parity     = Parity::NONE;
 1095              		.loc 7 81 24 view .LVU258
 1096 0028 CDE90253 		strd	r5, r3, [sp, #8]
 1097              	.LBE385:
 1098              	.LBE390:
 1099              	.LBE395:
  47:../../libDaisy//src/hid/midi.h ****         uart_config.stopbits   = UartHandler::Config::StopBits::BITS_1;
 1100              		.loc 6 47 32 view .LVU259
 1101 002c 47F61223 		movw	r3, #31250
 1102 0030 0793     		str	r3, [sp, #28]
  58:../../libDaisy//src/hid/midi.h ****     }
 1103              		.loc 6 58 9 is_stmt 1 view .LVU260
  50:../../libDaisy//src/hid/midi.h ****         uart_config.wordlength = UartHandler::Config::WordLength::BITS_8;
 1104              		.loc 6 50 32 is_stmt 0 view .LVU261
 1105 0032 0223     		movs	r3, #2
 1106 0034 0593     		str	r3, [sp, #20]
  58:../../libDaisy//src/hid/midi.h ****     }
 1107              		.loc 6 58 19 view .LVU262
 1108 0036 FFF7FEFF 		bl	_ZN5daisy11UartHandler4InitERKNS0_6ConfigE
 1109              	.LVL88:
  58:../../libDaisy//src/hid/midi.h ****     }
 1110              		.loc 6 58 19 view .LVU263
 1111              	.LBE399:
 1112              	.LBE403:
 1113              	.LBB404:
 1114              	.LBI404:
 1115              		.file 8 "../../libDaisy//src/util/ringbuffer.h"
   1:../../libDaisy//src/util/ringbuffer.h **** #pragma once
   2:../../libDaisy//src/util/ringbuffer.h **** #ifndef DSY_RINGBUFFER_H
   3:../../libDaisy//src/util/ringbuffer.h **** #define DSY_RINGBUFFER_H
   4:../../libDaisy//src/util/ringbuffer.h **** 
   5:../../libDaisy//src/util/ringbuffer.h **** #include <algorithm>
   6:../../libDaisy//src/util/ringbuffer.h **** 
   7:../../libDaisy//src/util/ringbuffer.h **** namespace daisy
ARM GAS  /var/folders/1y/_321xjh9623c014x9_qw12rr0000gn/T//cc4eHiNS.s 			page 49


   8:../../libDaisy//src/util/ringbuffer.h **** {
   9:../../libDaisy//src/util/ringbuffer.h **** /** @addtogroup utility
  10:../../libDaisy//src/util/ringbuffer.h ****     @{
  11:../../libDaisy//src/util/ringbuffer.h **** */
  12:../../libDaisy//src/util/ringbuffer.h **** 
  13:../../libDaisy//src/util/ringbuffer.h **** /**
  14:../../libDaisy//src/util/ringbuffer.h **** Utility Ring Buffer \n 
  15:../../libDaisy//src/util/ringbuffer.h **** imported from pichenettes/stmlib
  16:../../libDaisy//src/util/ringbuffer.h **** */
  17:../../libDaisy//src/util/ringbuffer.h **** template <typename T, size_t size>
  18:../../libDaisy//src/util/ringbuffer.h **** class RingBuffer
  19:../../libDaisy//src/util/ringbuffer.h **** {
  20:../../libDaisy//src/util/ringbuffer.h ****   public:
  21:../../libDaisy//src/util/ringbuffer.h ****     RingBuffer() {}
  22:../../libDaisy//src/util/ringbuffer.h **** 
  23:../../libDaisy//src/util/ringbuffer.h ****     /** Initializes the Ring Buffer */
  24:../../libDaisy//src/util/ringbuffer.h ****     inline void Init() { read_ptr_ = write_ptr_ = 0; }
 1116              		.loc 8 24 17 is_stmt 1 view .LVU264
 1117              	.LBE404:
  98:../../libDaisy//src/hid/midi.h **** 
  99:../../libDaisy//src/hid/midi.h ****         transport_.Init(config_.transport_config);
 100:../../libDaisy//src/hid/midi.h **** 
 101:../../libDaisy//src/hid/midi.h ****         event_q_.Init();
 102:../../libDaisy//src/hid/midi.h ****         incoming_message_.type = MessageLast;
 1118              		.loc 6 102 32 is_stmt 0 view .LVU265
 1119 003a 0A23     		movs	r3, #10
 1120              	.LBB406:
 1121              	.LBB405:
 1122              		.loc 8 24 49 view .LVU266
 1123 003c C6F80059 		str	r5, [r6, #2304]
 1124              		.loc 8 24 36 view .LVU267
 1125 0040 C6F8FC58 		str	r5, [r6, #2300]
 1126              	.LVL89:
 1127              		.loc 8 24 36 view .LVU268
 1128              	.LBE405:
 1129              	.LBE406:
 103:../../libDaisy//src/hid/midi.h ****         pstate_                = ParserEmpty;
 1130              		.loc 6 103 32 view .LVU269
 1131 0044 84F86858 		strb	r5, [r4, #2152]
 1132              	.LVL90:
 102:../../libDaisy//src/hid/midi.h ****         pstate_                = ParserEmpty;
 1133              		.loc 6 102 32 view .LVU270
 1134 0048 84F86C38 		strb	r3, [r4, #2156]
 1135              	.LBE409:
 1136              	.LBE411:
  97:Dubby.cpp     **** 
 1137              		.loc 2 97 1 view .LVU271
 1138 004c 08B0     		add	sp, sp, #32
 1139              		.cfi_def_cfa_offset 16
 1140              		@ sp needed
 1141 004e 70BD     		pop	{r4, r5, r6, pc}
 1142              	.LVL91:
 1143              	.L59:
  97:Dubby.cpp     **** 
 1144              		.loc 2 97 1 view .LVU272
 1145              		.align	2
 1146              	.L58:
ARM GAS  /var/folders/1y/_321xjh9623c014x9_qw12rr0000gn/T//cc4eHiNS.s 			page 50


 1147 0050 01070106 		.word	100730625
 1148 0054 01060107 		.word	117507585
 1149              		.cfi_endproc
 1150              	.LFE2571:
 1152              		.section	.text._ZN5daisy5Dubby10DrawBitmapEi,"ax",%progbits
 1153              		.align	1
 1154              		.p2align 2,,3
 1155              		.global	_ZN5daisy5Dubby10DrawBitmapEi
 1156              		.syntax unified
 1157              		.thumb
 1158              		.thumb_func
 1160              	_ZN5daisy5Dubby10DrawBitmapEi:
 1161              	.LVL92:
 1162              	.LFB2584:
 153:Dubby.cpp     ****     display.Fill(false);
 1163              		.loc 2 153 1 is_stmt 1 view -0
 1164              		.cfi_startproc
 1165              		@ args = 0, pretend = 0, frame = 24
 1166              		@ frame_needed = 0, uses_anonymous_args = 0
 153:Dubby.cpp     ****     display.Fill(false);
 1167              		.loc 2 153 1 is_stmt 0 view .LVU274
 1168 0000 0B46     		mov	r3, r1
 1169              	.LBB448:
 1170              	.LBB449:
 1171              	.LBB450:
 366:../../libDaisy//src/dev/oled_ssd130x.h ****         }
 1172              		.loc 4 366 24 view .LVU275
 1173 0002 0021     		movs	r1, #0
 1174              	.LVL93:
 366:../../libDaisy//src/dev/oled_ssd130x.h ****         }
 1175              		.loc 4 366 24 view .LVU276
 1176 0004 4FF48062 		mov	r2, #1024
 1177 0008 9B02     		lsls	r3, r3, #10
 1178              	.LVL94:
 366:../../libDaisy//src/dev/oled_ssd130x.h ****         }
 1179              		.loc 4 366 24 view .LVU277
 1180              	.LBE450:
 1181              	.LBE449:
 1182              	.LBE448:
 153:Dubby.cpp     ****     display.Fill(false);
 1183              		.loc 2 153 1 view .LVU278
 1184 000a 2DE9F04F 		push	{r4, r5, r6, r7, r8, r9, r10, fp, lr}
 1185              		.cfi_def_cfa_offset 36
 1186              		.cfi_offset 4, -36
 1187              		.cfi_offset 5, -32
 1188              		.cfi_offset 6, -28
 1189              		.cfi_offset 7, -24
 1190              		.cfi_offset 8, -20
 1191              		.cfi_offset 9, -16
 1192              		.cfi_offset 10, -12
 1193              		.cfi_offset 11, -8
 1194              		.cfi_offset 14, -4
 1195 000e 8246     		mov	r10, r0
 154:Dubby.cpp     ****     display.SetCursor(30, 30);
 1196              		.loc 2 154 5 is_stmt 1 view .LVU279
 1197              	.LVL95:
 1198              	.LBB455:
ARM GAS  /var/folders/1y/_321xjh9623c014x9_qw12rr0000gn/T//cc4eHiNS.s 			page 51


 1199              	.LBI448:
  34:../../libDaisy//src/hid/disp/oled_display.h **** 
 1200              		.loc 1 34 10 view .LVU280
 1201              	.LBB453:
 1202              	.LBI449:
 362:../../libDaisy//src/dev/oled_ssd130x.h ****     {
 1203              		.loc 4 362 10 view .LVU281
 1204              	.LBB451:
 364:../../libDaisy//src/dev/oled_ssd130x.h ****         {
 1205              		.loc 4 364 29 view .LVU282
 1206              	.LBE451:
 1207              	.LBE453:
 1208              	.LBE455:
 153:Dubby.cpp     ****     display.Fill(false);
 1209              		.loc 2 153 1 is_stmt 0 view .LVU283
 1210 0010 87B0     		sub	sp, sp, #28
 1211              		.cfi_def_cfa_offset 64
 1212 0012 00F26440 		addw	r0, r0, #1124
 1213              	.LVL96:
 1214              	.LBB456:
 157:Dubby.cpp     ****         for (int y = 0; y < OLED_HEIGHT; y++) {
 1215              		.loc 2 157 14 view .LVU284
 1216 0016 8B46     		mov	fp, r1
 1217 0018 0293     		str	r3, [sp, #8]
 1218 001a 0390     		str	r0, [sp, #12]
 1219              	.LBE456:
 1220              	.LBB526:
 1221              	.LBB454:
 1222              	.LBB452:
 366:../../libDaisy//src/dev/oled_ssd130x.h ****         }
 1223              		.loc 4 366 24 view .LVU285
 1224 001c FFF7FEFF 		bl	memset
 1225              	.LVL97:
 366:../../libDaisy//src/dev/oled_ssd130x.h ****         }
 1226              		.loc 4 366 24 view .LVU286
 1227              	.LBE452:
 1228              	.LBE454:
 1229              	.LBE526:
 155:Dubby.cpp     ****     
 1230              		.loc 2 155 5 is_stmt 1 view .LVU287
 1231              	.LBB527:
 1232              	.LBI527:
 171:../../libDaisy//src/hid/disp/display.h ****     {
 1233              		.loc 3 171 10 view .LVU288
 1234              	.LBB528:
 173:../../libDaisy//src/hid/disp/display.h ****         currentY_ = (y >= Height()) ? Height() - 1 : y;
 1235              		.loc 3 173 9 view .LVU289
 174:../../libDaisy//src/hid/disp/display.h ****     }
 1236              		.loc 3 174 9 view .LVU290
 173:../../libDaisy//src/hid/disp/display.h ****         currentY_ = (y >= Height()) ? Height() - 1 : y;
 1237              		.loc 3 173 19 is_stmt 0 view .LVU291
 1238 0020 4FF01E13 		mov	r3, #1966110
 1239 0024 CAF85434 		str	r3, [r10, #1108]
 1240              	.LVL98:
 173:../../libDaisy//src/hid/disp/display.h ****         currentY_ = (y >= Height()) ? Height() - 1 : y;
 1241              		.loc 3 173 19 view .LVU292
 1242              	.LBE528:
ARM GAS  /var/folders/1y/_321xjh9623c014x9_qw12rr0000gn/T//cc4eHiNS.s 			page 52


 1243              	.LBE527:
 1244              	.LBB529:
 157:Dubby.cpp     ****         for (int y = 0; y < OLED_HEIGHT; y++) {
 1245              		.loc 2 157 23 is_stmt 1 view .LVU293
 1246              	.L69:
 1247              	.LBB457:
 158:Dubby.cpp     ****             // Calculate the index in the array
 1248              		.loc 2 158 27 view .LVU294
 1249 0028 0BF26443 		addw	r3, fp, #1124
 158:Dubby.cpp     ****             // Calculate the index in the array
 1250              		.loc 2 158 18 is_stmt 0 view .LVU295
 1251 002c 4FF00009 		mov	r9, #0
 1252 0030 0193     		str	r3, [sp, #4]
 1253              	.LVL99:
 1254              	.L66:
 1255              	.LBB458:
 160:Dubby.cpp     **** 
 1256              		.loc 2 160 13 is_stmt 1 view .LVU296
 163:Dubby.cpp     **** 
 1257              		.loc 2 163 13 view .LVU297
 166:Dubby.cpp     **** 
 1258              		.loc 2 166 13 view .LVU298
 1259              	.LBB459:
 166:Dubby.cpp     **** 
 1260              		.loc 2 166 45 view .LVU299
 1261              	.LBB460:
 1262              	.LBB461:
 1263              	.LBB462:
 1264              	.LBB463:
 1265              	.LBB464:
 1266              	.LBB465:
 359:../../libDaisy//src/dev/oled_ssd130x.h ****     }
 1267              		.loc 4 359 55 is_stmt 0 view .LVU300
 1268 0032 09F00702 		and	r2, r9, #7
 1269              	.LBE465:
 1270              	.LBE464:
 1271              	.LBE463:
 1272              	.LBE462:
 1273              	.LBE461:
 1274              	.LBE460:
 1275              	.LBE459:
 163:Dubby.cpp     **** 
 1276              		.loc 2 163 18 view .LVU301
 1277 0036 3B48     		ldr	r0, .L76
 1278              	.LBB499:
 1279              	.LBB495:
 1280              	.LBB489:
 1281              	.LBB483:
 1282              	.LBB477:
 1283              	.LBB471:
 1284              	.LBB466:
 359:../../libDaisy//src/dev/oled_ssd130x.h ****     }
 1285              		.loc 4 359 49 view .LVU302
 1286 0038 0124     		movs	r4, #1
 1287              	.LBE466:
 1288              	.LBE471:
 1289              	.LBE477:
ARM GAS  /var/folders/1y/_321xjh9623c014x9_qw12rr0000gn/T//cc4eHiNS.s 			page 53


 1290              	.LBE483:
 1291              	.LBE489:
 1292              	.LBE495:
 1293              	.LBE499:
 160:Dubby.cpp     **** 
 1294              		.loc 2 160 17 view .LVU303
 1295 003a 0BEBC911 		add	r1, fp, r9, lsl #7
 1296              	.LBB500:
 1297              	.LBB496:
 1298              	.LBB490:
 1299              	.LBB484:
 1300              	.LBB478:
 1301              	.LBB472:
 1302              	.LBB467:
 359:../../libDaisy//src/dev/oled_ssd130x.h ****     }
 1303              		.loc 4 359 28 view .LVU304
 1304 003e 4FEAD903 		lsr	r3, r9, #3
 359:../../libDaisy//src/dev/oled_ssd130x.h ****     }
 1305              		.loc 4 359 49 view .LVU305
 1306 0042 9440     		lsls	r4, r4, r2
 1307              	.LBE467:
 1308              	.LBE472:
 1309              	.LBE478:
 1310              	.LBE484:
 1311              	.LBE490:
 1312              	.LBE496:
 1313              	.LBE500:
 163:Dubby.cpp     **** 
 1314              		.loc 2 163 18 view .LVU306
 1315 0044 00EBE101 		add	r1, r0, r1, asr #3
 1316 0048 0198     		ldr	r0, [sp, #4]
 1317              	.LBB501:
 1318              	.LBB497:
 169:Dubby.cpp     **** 
 1319              		.loc 2 169 31 view .LVU307
 1320 004a 0722     		movs	r2, #7
 1321              	.LBB491:
 1322              	.LBB485:
 1323              	.LBB479:
 1324              	.LBB473:
 1325              	.LBB468:
 359:../../libDaisy//src/dev/oled_ssd130x.h ****     }
 1326              		.loc 4 359 42 view .LVU308
 1327 004c 64B2     		sxtb	r4, r4
 1328 004e 00EBC313 		add	r3, r0, r3, lsl #7
 1329              	.LBE468:
 1330              	.LBE473:
 1331              	.LBE479:
 1332              	.LBE485:
 1333              	.LBE491:
 169:Dubby.cpp     **** 
 1334              		.loc 2 169 31 view .LVU309
 1335 0052 0298     		ldr	r0, [sp, #8]
 1336              	.LBB492:
 1337              	.LBB486:
 1338              	.LBB480:
 1339              	.LBB474:
ARM GAS  /var/folders/1y/_321xjh9623c014x9_qw12rr0000gn/T//cc4eHiNS.s 			page 54


 1340              	.LBB469:
 359:../../libDaisy//src/dev/oled_ssd130x.h ****     }
 1341              		.loc 4 359 42 view .LVU310
 1342 0054 E543     		mvns	r5, r4
 1343              	.LBE469:
 1344              	.LBE474:
 1345              	.LBE480:
 1346              	.LBE486:
 1347              	.LBE492:
 169:Dubby.cpp     **** 
 1348              		.loc 2 169 31 view .LVU311
 1349 0056 085C     		ldrb	r0, [r1, r0]	@ zero_extendqisi2
 1350 0058 5344     		add	r3, r3, r10
 1351              	.LVL100:
 1352              	.L63:
 169:Dubby.cpp     **** 
 1353              		.loc 2 169 17 is_stmt 1 discriminator 2 view .LVU312
 171:Dubby.cpp     **** 
 1354              		.loc 2 171 17 discriminator 2 view .LVU313
 173:Dubby.cpp     ****             }
 1355              		.loc 2 173 17 discriminator 2 view .LVU314
 1356              	.LBB493:
 1357              	.LBI461:
 1358              		.loc 1 42 10 discriminator 2 view .LVU315
 1359              	.LBB487:
 1360              	.LBI462:
 352:../../libDaisy//src/dev/oled_ssd130x.h ****     {
 1361              		.loc 4 352 10 discriminator 2 view .LVU316
 1362              	.LBB481:
 1363              	.LBB475:
 1364              	.LBI464:
 352:../../libDaisy//src/dev/oled_ssd130x.h ****     {
 1365              		.loc 4 352 10 discriminator 2 view .LVU317
 352:../../libDaisy//src/dev/oled_ssd130x.h ****     {
 1366              		.loc 4 352 10 is_stmt 0 discriminator 2 view .LVU318
 1367              	.LBE475:
 1368              	.LBE481:
 1369              	.LBE487:
 1370              	.LBE493:
 169:Dubby.cpp     **** 
 1371              		.loc 2 169 36 discriminator 2 view .LVU319
 1372 005a 40FA02F1 		asr	r1, r0, r2
 1373              	.LBE497:
 166:Dubby.cpp     **** 
 1374              		.loc 2 166 45 discriminator 2 view .LVU320
 1375 005e 013A     		subs	r2, r2, #1
 1376 0060 0133     		adds	r3, r3, #1
 1377              	.LBB498:
 1378              	.LBB494:
 1379              	.LBB488:
 1380              	.LBB482:
 356:../../libDaisy//src/dev/oled_ssd130x.h ****             buffer_[x + (y / 8) * width] |= (1 << (y % 8));
 1381              		.loc 4 356 9 discriminator 2 view .LVU321
 1382 0062 11F0010F 		tst	r1, #1
 357:../../libDaisy//src/dev/oled_ssd130x.h ****         else
 1383              		.loc 4 357 42 discriminator 2 view .LVU322
 1384 0066 13F8011C 		ldrb	r1, [r3, #-1]	@ zero_extendqisi2
ARM GAS  /var/folders/1y/_321xjh9623c014x9_qw12rr0000gn/T//cc4eHiNS.s 			page 55


 1385 006a 14BF     		ite	ne
 1386 006c 2143     		orrne	r1, r1, r4
 1387              	.LBB476:
 1388              	.LBB470:
 359:../../libDaisy//src/dev/oled_ssd130x.h ****     }
 1389              		.loc 4 359 42 discriminator 2 view .LVU323
 1390 006e 2940     		andeq	r1, r1, r5
 1391 0070 03F8011C 		strb	r1, [r3, #-1]
 1392              	.LVL101:
 359:../../libDaisy//src/dev/oled_ssd130x.h ****     }
 1393              		.loc 4 359 42 discriminator 2 view .LVU324
 1394              	.LBE470:
 1395              	.LBE476:
 1396              	.LBE482:
 1397              	.LBE488:
 1398              	.LBE494:
 1399              	.LBE498:
 166:Dubby.cpp     **** 
 1400              		.loc 2 166 13 is_stmt 1 discriminator 2 view .LVU325
 166:Dubby.cpp     **** 
 1401              		.loc 2 166 45 discriminator 2 view .LVU326
 1402 0074 511C     		adds	r1, r2, #1
 1403 0076 F0D1     		bne	.L63
 1404              	.LBE501:
 176:Dubby.cpp     ****         }
 1405              		.loc 2 176 13 view .LVU327
 1406              	.LBB502:
 1407 0078 2B4B     		ldr	r3, .L76+4
 1408              	.LBE502:
 1409 007a 2C4A     		ldr	r2, .L76+8
 1410              	.LBB503:
 1411 007c 03FB09F3 		mul	r3, r3, r9
 1412              	.LBE503:
 1413 0080 B2EB730F 		cmp	r2, r3, ror #1
 1414 0084 0CD2     		bcs	.L64
 1415              	.L67:
 176:Dubby.cpp     ****         }
 1416              		.loc 2 176 13 is_stmt 0 view .LVU328
 1417              	.LBE458:
 158:Dubby.cpp     ****             // Calculate the index in the array
 1418              		.loc 2 158 9 is_stmt 1 view .LVU329
 1419 0086 09F10109 		add	r9, r9, #1
 1420              	.LVL102:
 158:Dubby.cpp     ****             // Calculate the index in the array
 1421              		.loc 2 158 27 view .LVU330
 1422 008a B9F1400F 		cmp	r9, #64
 1423 008e D0D1     		bne	.L66
 1424              	.LBE457:
 157:Dubby.cpp     ****         for (int y = 0; y < OLED_HEIGHT; y++) {
 1425              		.loc 2 157 5 discriminator 2 view .LVU331
 157:Dubby.cpp     ****         for (int y = 0; y < OLED_HEIGHT; y++) {
 1426              		.loc 2 157 39 is_stmt 0 discriminator 2 view .LVU332
 1427 0090 0BF1080B 		add	fp, fp, #8
 1428              	.LVL103:
 157:Dubby.cpp     ****         for (int y = 0; y < OLED_HEIGHT; y++) {
 1429              		.loc 2 157 23 is_stmt 1 discriminator 2 view .LVU333
 1430 0094 BBF1800F 		cmp	fp, #128
ARM GAS  /var/folders/1y/_321xjh9623c014x9_qw12rr0000gn/T//cc4eHiNS.s 			page 56


 1431 0098 C6D1     		bne	.L69
 1432              	.LBE529:
 179:Dubby.cpp     **** 
 1433              		.loc 2 179 1 is_stmt 0 view .LVU334
 1434 009a 07B0     		add	sp, sp, #28
 1435              		.cfi_remember_state
 1436              		.cfi_def_cfa_offset 36
 1437              		@ sp needed
 1438 009c BDE8F08F 		pop	{r4, r5, r6, r7, r8, r9, r10, fp, pc}
 1439              	.LVL104:
 1440              	.L64:
 1441              		.cfi_restore_state
 1442              	.LBB530:
 1443              	.LBB525:
 1444              	.LBB524:
 1445              	.LBB504:
 1446              	.LBB505:
 1447              	.LBB506:
 1448              	.LBB507:
 1449              	.LBB508:
 124:../../libDaisy//src/dev/oled_ssd130x.h ****         spi_.BlockingTransmit(&cmd, 1);
 1450              		.loc 4 124 24 view .LVU335
 1451 00a0 0AF58B66 		add	r6, r10, #1112
 1452 00a4 0AF58C65 		add	r5, r10, #1120
 1453 00a8 DDF80C80 		ldr	r8, [sp, #12]
 125:../../libDaisy//src/dev/oled_ssd130x.h ****     };
 1454              		.loc 4 125 30 view .LVU336
 1455 00ac B024     		movs	r4, #176
 1456              	.L68:
 1457              	.LVL105:
 124:../../libDaisy//src/dev/oled_ssd130x.h ****         spi_.BlockingTransmit(&cmd, 1);
 1458              		.loc 4 124 23 view .LVU337
 1459 00ae 0021     		movs	r1, #0
 1460 00b0 2846     		mov	r0, r5
 1461 00b2 8DF81740 		strb	r4, [sp, #23]
 1462              	.LVL106:
 124:../../libDaisy//src/dev/oled_ssd130x.h ****         spi_.BlockingTransmit(&cmd, 1);
 1463              		.loc 4 124 23 view .LVU338
 1464              	.LBE508:
 1465              	.LBI507:
 122:../../libDaisy//src/dev/oled_ssd130x.h ****     {
 1466              		.loc 4 122 10 is_stmt 1 view .LVU339
 1467              	.LBB509:
 124:../../libDaisy//src/dev/oled_ssd130x.h ****         spi_.BlockingTransmit(&cmd, 1);
 1468              		.loc 4 124 9 view .LVU340
 1469              	.LBE509:
 1470              	.LBE507:
 1471              		.loc 4 383 22 is_stmt 0 view .LVU341
 1472 00b6 0134     		adds	r4, r4, #1
 1473              	.LVL107:
 1474              		.loc 4 383 22 view .LVU342
 1475 00b8 0F46     		mov	r7, r1
 1476              	.LBB511:
 1477              	.LBB510:
 124:../../libDaisy//src/dev/oled_ssd130x.h ****         spi_.BlockingTransmit(&cmd, 1);
 1478              		.loc 4 124 23 view .LVU343
 1479 00ba FFF7FEFF 		bl	dsy_gpio_write
ARM GAS  /var/folders/1y/_321xjh9623c014x9_qw12rr0000gn/T//cc4eHiNS.s 			page 57


 1480              	.LVL108:
 125:../../libDaisy//src/dev/oled_ssd130x.h ****     };
 1481              		.loc 4 125 9 is_stmt 1 view .LVU344
 125:../../libDaisy//src/dev/oled_ssd130x.h ****     };
 1482              		.loc 4 125 30 is_stmt 0 view .LVU345
 1483 00be 6423     		movs	r3, #100
 1484 00c0 0122     		movs	r2, #1
 1485 00c2 0DF11701 		add	r1, sp, #23
 1486 00c6 3046     		mov	r0, r6
 1487 00c8 FFF7FEFF 		bl	_ZN5daisy9SpiHandle16BlockingTransmitEPhjm
 1488              	.LVL109:
 125:../../libDaisy//src/dev/oled_ssd130x.h ****     };
 1489              		.loc 4 125 30 view .LVU346
 1490              	.LBE510:
 1491              	.LBE511:
 1492              	.LBB512:
 1493              	.LBB513:
 124:../../libDaisy//src/dev/oled_ssd130x.h ****         spi_.BlockingTransmit(&cmd, 1);
 1494              		.loc 4 124 23 view .LVU347
 1495 00cc 3946     		mov	r1, r7
 1496 00ce 2846     		mov	r0, r5
 1497 00d0 8DF81770 		strb	r7, [sp, #23]
 1498              	.LVL110:
 124:../../libDaisy//src/dev/oled_ssd130x.h ****         spi_.BlockingTransmit(&cmd, 1);
 1499              		.loc 4 124 23 view .LVU348
 1500              	.LBE513:
 1501              	.LBI512:
 122:../../libDaisy//src/dev/oled_ssd130x.h ****     {
 1502              		.loc 4 122 10 is_stmt 1 view .LVU349
 1503              	.LBB514:
 124:../../libDaisy//src/dev/oled_ssd130x.h ****         spi_.BlockingTransmit(&cmd, 1);
 1504              		.loc 4 124 9 view .LVU350
 124:../../libDaisy//src/dev/oled_ssd130x.h ****         spi_.BlockingTransmit(&cmd, 1);
 1505              		.loc 4 124 23 is_stmt 0 view .LVU351
 1506 00d4 FFF7FEFF 		bl	dsy_gpio_write
 1507              	.LVL111:
 125:../../libDaisy//src/dev/oled_ssd130x.h ****     };
 1508              		.loc 4 125 9 is_stmt 1 view .LVU352
 125:../../libDaisy//src/dev/oled_ssd130x.h ****     };
 1509              		.loc 4 125 30 is_stmt 0 view .LVU353
 1510 00d8 0122     		movs	r2, #1
 1511 00da 6423     		movs	r3, #100
 1512 00dc 0DF11701 		add	r1, sp, #23
 1513 00e0 3046     		mov	r0, r6
 1514              	.LBE514:
 1515              	.LBE512:
 1516              		.loc 4 383 22 view .LVU354
 1517 00e2 E4B2     		uxtb	r4, r4
 1518              	.LBB516:
 1519              	.LBB515:
 125:../../libDaisy//src/dev/oled_ssd130x.h ****     };
 1520              		.loc 4 125 30 view .LVU355
 1521 00e4 FFF7FEFF 		bl	_ZN5daisy9SpiHandle16BlockingTransmitEPhjm
 1522              	.LVL112:
 125:../../libDaisy//src/dev/oled_ssd130x.h ****     };
 1523              		.loc 4 125 30 view .LVU356
 1524 00e8 1023     		movs	r3, #16
ARM GAS  /var/folders/1y/_321xjh9623c014x9_qw12rr0000gn/T//cc4eHiNS.s 			page 58


 1525              	.LBE515:
 1526              	.LBE516:
 1527              	.LBB517:
 1528              	.LBB518:
 124:../../libDaisy//src/dev/oled_ssd130x.h ****         spi_.BlockingTransmit(&cmd, 1);
 1529              		.loc 4 124 23 view .LVU357
 1530 00ea 3946     		mov	r1, r7
 1531 00ec 2846     		mov	r0, r5
 1532 00ee 8DF81730 		strb	r3, [sp, #23]
 1533              	.LVL113:
 124:../../libDaisy//src/dev/oled_ssd130x.h ****         spi_.BlockingTransmit(&cmd, 1);
 1534              		.loc 4 124 23 view .LVU358
 1535              	.LBE518:
 1536              	.LBI517:
 122:../../libDaisy//src/dev/oled_ssd130x.h ****     {
 1537              		.loc 4 122 10 is_stmt 1 view .LVU359
 1538              	.LBB519:
 124:../../libDaisy//src/dev/oled_ssd130x.h ****         spi_.BlockingTransmit(&cmd, 1);
 1539              		.loc 4 124 9 view .LVU360
 124:../../libDaisy//src/dev/oled_ssd130x.h ****         spi_.BlockingTransmit(&cmd, 1);
 1540              		.loc 4 124 23 is_stmt 0 view .LVU361
 1541 00f2 FFF7FEFF 		bl	dsy_gpio_write
 1542              	.LVL114:
 125:../../libDaisy//src/dev/oled_ssd130x.h ****     };
 1543              		.loc 4 125 9 is_stmt 1 view .LVU362
 125:../../libDaisy//src/dev/oled_ssd130x.h ****     };
 1544              		.loc 4 125 30 is_stmt 0 view .LVU363
 1545 00f6 6423     		movs	r3, #100
 1546 00f8 0122     		movs	r2, #1
 1547 00fa 0DF11701 		add	r1, sp, #23
 1548 00fe 3046     		mov	r0, r6
 1549 0100 FFF7FEFF 		bl	_ZN5daisy9SpiHandle16BlockingTransmitEPhjm
 1550              	.LVL115:
 125:../../libDaisy//src/dev/oled_ssd130x.h ****     };
 1551              		.loc 4 125 30 view .LVU364
 1552              	.LBE519:
 1553              	.LBE517:
 1554              	.LBB520:
 1555              	.LBI520:
 128:../../libDaisy//src/dev/oled_ssd130x.h ****     {
 1556              		.loc 4 128 10 is_stmt 1 view .LVU365
 1557              	.LBB521:
 130:../../libDaisy//src/dev/oled_ssd130x.h ****         spi_.BlockingTransmit(buff, size);
 1558              		.loc 4 130 9 view .LVU366
 130:../../libDaisy//src/dev/oled_ssd130x.h ****         spi_.BlockingTransmit(buff, size);
 1559              		.loc 4 130 23 is_stmt 0 view .LVU367
 1560 0104 0121     		movs	r1, #1
 1561 0106 2846     		mov	r0, r5
 1562 0108 FFF7FEFF 		bl	dsy_gpio_write
 1563              	.LVL116:
 131:../../libDaisy//src/dev/oled_ssd130x.h ****     };
 1564              		.loc 4 131 9 is_stmt 1 view .LVU368
 131:../../libDaisy//src/dev/oled_ssd130x.h ****     };
 1565              		.loc 4 131 30 is_stmt 0 view .LVU369
 1566 010c 4146     		mov	r1, r8
 1567 010e 6423     		movs	r3, #100
 1568 0110 8022     		movs	r2, #128
ARM GAS  /var/folders/1y/_321xjh9623c014x9_qw12rr0000gn/T//cc4eHiNS.s 			page 59


 1569 0112 3046     		mov	r0, r6
 1570              	.LBE521:
 1571              	.LBE520:
 1572              		.loc 4 383 22 view .LVU370
 1573 0114 08F18008 		add	r8, r8, #128
 1574              	.LVL117:
 1575              	.LBB523:
 1576              	.LBB522:
 131:../../libDaisy//src/dev/oled_ssd130x.h ****     };
 1577              		.loc 4 131 30 view .LVU371
 1578 0118 FFF7FEFF 		bl	_ZN5daisy9SpiHandle16BlockingTransmitEPhjm
 1579              	.LVL118:
 131:../../libDaisy//src/dev/oled_ssd130x.h ****     };
 1580              		.loc 4 131 30 view .LVU372
 1581              	.LBE522:
 1582              	.LBE523:
 1583              		.loc 4 383 9 is_stmt 1 view .LVU373
 1584              		.loc 4 383 22 view .LVU374
 1585 011c B82C     		cmp	r4, #184
 1586 011e C6D1     		bne	.L68
 1587 0120 B1E7     		b	.L67
 1588              	.L77:
 1589 0122 00BF     		.align	2
 1590              	.L76:
 1591 0124 00000000 		.word	.LANCHOR0
 1592 0128 ABAAAAAA 		.word	-1431655765
 1593 012c AAAAAA2A 		.word	715827882
 1594              	.LBE506:
 1595              	.LBE505:
 1596              	.LBE504:
 1597              	.LBE524:
 1598              	.LBE525:
 1599              	.LBE530:
 1600              		.cfi_endproc
 1601              	.LFE2584:
 1603              		.section	.text._ZN5daisy5Dubby8DrawLogoEv,"ax",%progbits
 1604              		.align	1
 1605              		.p2align 2,,3
 1606              		.global	_ZN5daisy5Dubby8DrawLogoEv
 1607              		.syntax unified
 1608              		.thumb
 1609              		.thumb_func
 1611              	_ZN5daisy5Dubby8DrawLogoEv:
 1612              	.LVL119:
 1613              	.LFB2583:
 148:Dubby.cpp     ****     DrawBitmap(0);   
 1614              		.loc 2 148 1 view -0
 1615              		.cfi_startproc
 1616              		@ args = 0, pretend = 0, frame = 0
 1617              		@ frame_needed = 0, uses_anonymous_args = 0
 1618              		@ link register save eliminated.
 149:Dubby.cpp     **** }
 1619              		.loc 2 149 5 view .LVU376
 149:Dubby.cpp     **** }
 1620              		.loc 2 149 15 is_stmt 0 view .LVU377
 1621 0000 0021     		movs	r1, #0
 1622 0002 FFF7FEBF 		b	_ZN5daisy5Dubby10DrawBitmapEi
ARM GAS  /var/folders/1y/_321xjh9623c014x9_qw12rr0000gn/T//cc4eHiNS.s 			page 60


 1623              	.LVL120:
 149:Dubby.cpp     **** }
 1624              		.loc 2 149 15 view .LVU378
 1625              		.cfi_endproc
 1626              	.LFE2583:
 1628 0006 00BF     		.section	.text._ZN5daisy5Dubby9UpdateBarEi,"ax",%progbits
 1629              		.align	1
 1630              		.p2align 2,,3
 1631              		.global	_ZN5daisy5Dubby9UpdateBarEi
 1632              		.syntax unified
 1633              		.thumb
 1634              		.thumb_func
 1636              	_ZN5daisy5Dubby9UpdateBarEi:
 1637              	.LVL121:
 1638              	.LFB2590:
 255:Dubby.cpp     ****     display.DrawRect((i * 32)  + margin, 1, ((i + 1) * 31) - margin, 51, false, true);
 1639              		.loc 2 255 1 is_stmt 1 view -0
 1640              		.cfi_startproc
 1641              		@ args = 0, pretend = 0, frame = 48
 1642              		@ frame_needed = 0, uses_anonymous_args = 0
 256:Dubby.cpp     ****     display.DrawRect((i * 32)  + margin, int(abs(1.0f - GetKnobValue(static_cast<Dubby::Ctrl>(i))) 
 1643              		.loc 2 256 5 view .LVU380
 255:Dubby.cpp     ****     display.DrawRect((i * 32)  + margin, 1, ((i + 1) * 31) - margin, 51, false, true);
 1644              		.loc 2 255 1 is_stmt 0 view .LVU381
 1645 0000 2DE9F04F 		push	{r4, r5, r6, r7, r8, r9, r10, fp, lr}
 1646              		.cfi_def_cfa_offset 36
 1647              		.cfi_offset 4, -36
 1648              		.cfi_offset 5, -32
 1649              		.cfi_offset 6, -28
 1650              		.cfi_offset 7, -24
 1651              		.cfi_offset 8, -20
 1652              		.cfi_offset 9, -16
 1653              		.cfi_offset 10, -12
 1654              		.cfi_offset 11, -8
 1655              		.cfi_offset 14, -4
 256:Dubby.cpp     ****     display.DrawRect((i * 32)  + margin, int(abs(1.0f - GetKnobValue(static_cast<Dubby::Ctrl>(i))) 
 1656              		.loc 2 256 34 view .LVU382
 1657 0004 00F51043 		add	r3, r0, #36864
 255:Dubby.cpp     ****     display.DrawRect((i * 32)  + margin, 1, ((i + 1) * 31) - margin, 51, false, true);
 1658              		.loc 2 255 1 view .LVU383
 1659 0008 8DB0     		sub	sp, sp, #52
 1660              		.cfi_def_cfa_offset 88
 256:Dubby.cpp     ****     display.DrawRect((i * 32)  + margin, int(abs(1.0f - GetKnobValue(static_cast<Dubby::Ctrl>(i))) 
 1661              		.loc 2 256 25 view .LVU384
 1662 000a 4A01     		lsls	r2, r1, #5
 256:Dubby.cpp     ****     display.DrawRect((i * 32)  + margin, int(abs(1.0f - GetKnobValue(static_cast<Dubby::Ctrl>(i))) 
 1663              		.loc 2 256 34 view .LVU385
 1664 000c 0993     		str	r3, [sp, #36]
 256:Dubby.cpp     ****     display.DrawRect((i * 32)  + margin, int(abs(1.0f - GetKnobValue(static_cast<Dubby::Ctrl>(i))) 
 1665              		.loc 2 256 25 view .LVU386
 1666 000e 0692     		str	r2, [sp, #24]
 256:Dubby.cpp     ****     display.DrawRect((i * 32)  + margin, int(abs(1.0f - GetKnobValue(static_cast<Dubby::Ctrl>(i))) 
 1667              		.loc 2 256 34 view .LVU387
 1668 0010 D3F82029 		ldr	r2, [r3, #2336]
 256:Dubby.cpp     ****     display.DrawRect((i * 32)  + margin, int(abs(1.0f - GetKnobValue(static_cast<Dubby::Ctrl>(i))) 
 1669              		.loc 2 256 49 view .LVU388
 1670 0014 4B1C     		adds	r3, r1, #1
ARM GAS  /var/folders/1y/_321xjh9623c014x9_qw12rr0000gn/T//cc4eHiNS.s 			page 61


 255:Dubby.cpp     ****     display.DrawRect((i * 32)  + margin, 1, ((i + 1) * 31) - margin, 51, false, true);
 1671              		.loc 2 255 1 view .LVU389
 1672 0016 0391     		str	r1, [sp, #12]
 256:Dubby.cpp     ****     display.DrawRect((i * 32)  + margin, int(abs(1.0f - GetKnobValue(static_cast<Dubby::Ctrl>(i))) 
 1673              		.loc 2 256 54 view .LVU390
 1674 0018 C3EB4313 		rsb	r3, r3, r3, lsl #5
 256:Dubby.cpp     ****     display.DrawRect((i * 32)  + margin, int(abs(1.0f - GetKnobValue(static_cast<Dubby::Ctrl>(i))) 
 1675              		.loc 2 256 32 view .LVU391
 1676 001c 02EB4115 		add	r5, r2, r1, lsl #5
 256:Dubby.cpp     ****     display.DrawRect((i * 32)  + margin, int(abs(1.0f - GetKnobValue(static_cast<Dubby::Ctrl>(i))) 
 1677              		.loc 2 256 60 view .LVU392
 1678 0020 9A1A     		subs	r2, r3, r2
 256:Dubby.cpp     ****     display.DrawRect((i * 32)  + margin, int(abs(1.0f - GetKnobValue(static_cast<Dubby::Ctrl>(i))) 
 1679              		.loc 2 256 54 view .LVU393
 1680 0022 0793     		str	r3, [sp, #28]
 1681              	.LBB645:
 1682              	.LBB646:
 1683              	.LBB647:
 266:../../libDaisy//src/hid/disp/display.h ****             {
 1684              		.loc 3 266 40 view .LVU394
 1685 0024 9542     		cmp	r5, r2
 1686              	.LBE647:
 1687              	.LBE646:
 1688              	.LBE645:
 256:Dubby.cpp     ****     display.DrawRect((i * 32)  + margin, int(abs(1.0f - GetKnobValue(static_cast<Dubby::Ctrl>(i))) 
 1689              		.loc 2 256 21 view .LVU395
 1690 0026 9446     		mov	ip, r2
 1691              	.LVL122:
 1692              	.LBB664:
 1693              	.LBI645:
 257:../../libDaisy//src/hid/disp/display.h ****                   uint_fast8_t y1,
 1694              		.loc 3 257 10 is_stmt 1 view .LVU396
 1695              	.LBB663:
 1696              	.LBI646:
 257:../../libDaisy//src/hid/disp/display.h ****                   uint_fast8_t y1,
 1697              		.loc 3 257 10 view .LVU397
 1698              	.LBB662:
 266:../../libDaisy//src/hid/disp/display.h ****             {
 1699              		.loc 3 266 40 view .LVU398
 1700 0028 18D8     		bhi	.L85
 1701 002a 2E46     		mov	r6, r5
 1702              	.LVL123:
 1703              	.L80:
 1704              	.LBB648:
 1705              		.loc 3 268 34 is_stmt 0 view .LVU399
 1706 002c 0121     		movs	r1, #1
 1707              	.L84:
 1708              	.LVL124:
 1709              	.LBB649:
 1710              	.LBI649:
 1711              		.loc 1 42 10 is_stmt 1 view .LVU400
 1712              	.LBB650:
 1713              	.LBI650:
 352:../../libDaisy//src/dev/oled_ssd130x.h ****     {
 1714              		.loc 4 352 10 view .LVU401
 1715              	.LBB651:
 1716              	.LBB652:
ARM GAS  /var/folders/1y/_321xjh9623c014x9_qw12rr0000gn/T//cc4eHiNS.s 			page 62


 1717              	.LBI652:
 352:../../libDaisy//src/dev/oled_ssd130x.h ****     {
 1718              		.loc 4 352 10 view .LVU402
 352:../../libDaisy//src/dev/oled_ssd130x.h ****     {
 1719              		.loc 4 352 10 is_stmt 0 view .LVU403
 1720              	.LBE652:
 1721              	.LBE651:
 1722              	.LBE650:
 1723              	.LBE649:
 1724              		.loc 3 268 17 is_stmt 1 view .LVU404
 1725              		.loc 3 268 44 view .LVU405
 1726              	.LBB661:
 1727              	.LBB660:
 1728              	.LBB659:
 1729              	.LBB656:
 1730              	.LBB653:
 359:../../libDaisy//src/dev/oled_ssd130x.h ****     }
 1731              		.loc 4 359 28 is_stmt 0 view .LVU406
 1732 002e CB08     		lsrs	r3, r1, #3
 359:../../libDaisy//src/dev/oled_ssd130x.h ****     }
 1733              		.loc 4 359 55 view .LVU407
 1734 0030 01F00707 		and	r7, r1, #7
 359:../../libDaisy//src/dev/oled_ssd130x.h ****     }
 1735              		.loc 4 359 49 view .LVU408
 1736 0034 0124     		movs	r4, #1
 1737              	.LBE653:
 1738              	.LBE656:
 354:../../libDaisy//src/dev/oled_ssd130x.h ****             return;
 1739              		.loc 4 354 9 view .LVU409
 1740 0036 7F2E     		cmp	r6, #127
 1741              	.LBB657:
 1742              	.LBB654:
 359:../../libDaisy//src/dev/oled_ssd130x.h ****     }
 1743              		.loc 4 359 42 view .LVU410
 1744 0038 06EBC313 		add	r3, r6, r3, lsl #7
 1745 003c 2144     		add	r1, r1, r4
 1746              	.LVL125:
 359:../../libDaisy//src/dev/oled_ssd130x.h ****     }
 1747              		.loc 4 359 49 view .LVU411
 1748 003e 04FA07F4 		lsl	r4, r4, r7
 359:../../libDaisy//src/dev/oled_ssd130x.h ****     }
 1749              		.loc 4 359 42 view .LVU412
 1750 0042 0344     		add	r3, r3, r0
 1751              	.LBE654:
 1752              	.LBE657:
 354:../../libDaisy//src/dev/oled_ssd130x.h ****             return;
 1753              		.loc 4 354 9 view .LVU413
 1754 0044 05D8     		bhi	.L83
 1755              	.LBB658:
 1756              	.LBB655:
 359:../../libDaisy//src/dev/oled_ssd130x.h ****     }
 1757              		.loc 4 359 42 view .LVU414
 1758 0046 93F86474 		ldrb	r7, [r3, #1124]	@ zero_extendqisi2
 1759 004a 27EA0404 		bic	r4, r7, r4
 1760 004e 83F86444 		strb	r4, [r3, #1124]
 1761              	.L83:
 1762              	.LBE655:
ARM GAS  /var/folders/1y/_321xjh9623c014x9_qw12rr0000gn/T//cc4eHiNS.s 			page 63


 1763              	.LBE658:
 1764              	.LBE659:
 1765              	.LBE660:
 1766              	.LBE661:
 1767              		.loc 3 268 44 view .LVU415
 1768 0052 3429     		cmp	r1, #52
 1769 0054 EBD1     		bne	.L84
 1770              	.LBE648:
 266:../../libDaisy//src/hid/disp/display.h ****             {
 1771              		.loc 3 266 13 is_stmt 1 view .LVU416
 1772 0056 0136     		adds	r6, r6, #1
 1773              	.LVL126:
 266:../../libDaisy//src/hid/disp/display.h ****             {
 1774              		.loc 3 266 40 view .LVU417
 1775 0058 B242     		cmp	r2, r6
 1776 005a E7D2     		bcs	.L80
 1777              	.LVL127:
 1778              	.L85:
 266:../../libDaisy//src/hid/disp/display.h ****             {
 1779              		.loc 3 266 40 is_stmt 0 view .LVU418
 1780              	.LBE662:
 1781              	.LBE663:
 1782              	.LBE664:
 257:Dubby.cpp     ****     display.DrawRect((i * 32)  + margin, int(abs((currentLevels[i] * 5.0f) - 1.0f) * 51.0f) + 1, ((
 1783              		.loc 2 257 5 is_stmt 1 view .LVU419
 1784              	.LBB665:
 1785              	.LBI665:
 289:Dubby.cpp     **** 
 290:Dubby.cpp     **** void Dubby::DisplayPreferencesMenu()
 291:Dubby.cpp     **** {
 292:Dubby.cpp     ****     display.DrawRect(PANE_X_START, PANE_Y_START, PANE_X_END, PANE_Y_END, false, true);
 293:Dubby.cpp     **** 
 294:Dubby.cpp     ****     for (int i = 0; i < PREFERENCESMENU_LAST; i++)
 295:Dubby.cpp     ****     {
 296:Dubby.cpp     ****         display.SetCursor(5, 3 + (i * 10));
 297:Dubby.cpp     ****         display.WriteString(GetTextForEnum(PREFERENCESMENU, i), Font_6x8, true);
 298:Dubby.cpp     **** 
 299:Dubby.cpp     ****         if (preferencesMenuItemSelected == i)
 300:Dubby.cpp     ****             display.DrawRect(submenuBoxBounding[i][0], submenuBoxBounding[i][1], submenuBoxBounding
 301:Dubby.cpp     ****     }
 302:Dubby.cpp     **** 
 303:Dubby.cpp     ****     display.Update();
 304:Dubby.cpp     **** }
 305:Dubby.cpp     **** 
 306:Dubby.cpp     **** void Dubby::UpdatePreferencesMenu(int increment) 
 307:Dubby.cpp     **** {
 308:Dubby.cpp     ****     if (((preferencesMenuItemSelected >= 0 && increment == 1 && preferencesMenuItemSelected < PREFE
 309:Dubby.cpp     ****     {
 310:Dubby.cpp     ****         preferencesMenuItemSelected = (PreferenesMenuItems)(preferencesMenuItemSelected + increment
 311:Dubby.cpp     ****         
 312:Dubby.cpp     ****         DisplayPreferencesMenu();
 313:Dubby.cpp     ****     }
 314:Dubby.cpp     **** }
 315:Dubby.cpp     **** 
 316:Dubby.cpp     **** void Dubby::ResetToBootloader() 
 317:Dubby.cpp     **** {
 318:Dubby.cpp     ****     DrawBitmap(1);
ARM GAS  /var/folders/1y/_321xjh9623c014x9_qw12rr0000gn/T//cc4eHiNS.s 			page 64


 319:Dubby.cpp     **** 
 320:Dubby.cpp     ****     display.SetCursor(20, 55);
 321:Dubby.cpp     ****     display.WriteString("FIRMWARE UPDATE", Font_6x8, true);
 322:Dubby.cpp     **** 
 323:Dubby.cpp     ****     display.Update();
 324:Dubby.cpp     **** 
 325:Dubby.cpp     ****     System::ResetToBootloader();
 326:Dubby.cpp     **** }
 327:Dubby.cpp     **** 
 328:Dubby.cpp     **** void Dubby::InitEncoder()
 329:Dubby.cpp     **** {
 330:Dubby.cpp     ****     encoder.Init(seed.GetPin(PIN_ENC_A),
 331:Dubby.cpp     ****                 seed.GetPin(PIN_ENC_B),
 332:Dubby.cpp     ****                 seed.GetPin(PIN_ENC_CLICK));
 333:Dubby.cpp     **** }
 334:Dubby.cpp     **** 
 335:Dubby.cpp     **** void Dubby::ProcessAllControls()
 336:Dubby.cpp     **** {
 337:Dubby.cpp     ****     ProcessAnalogControls();
 338:Dubby.cpp     ****     ProcessDigitalControls();
 339:Dubby.cpp     **** }
 340:Dubby.cpp     **** 
 341:Dubby.cpp     **** void Dubby::ProcessAnalogControls()
 342:Dubby.cpp     **** {
 343:Dubby.cpp     ****     for(size_t i = 0; i < CTRL_LAST; i++)
 344:Dubby.cpp     ****         analogInputs[i].Process();
 345:Dubby.cpp     **** }
 346:Dubby.cpp     **** 
 347:Dubby.cpp     **** void Dubby::ProcessDigitalControls()
 348:Dubby.cpp     **** {
 349:Dubby.cpp     ****     encoder.Debounce();
 350:Dubby.cpp     **** 
 351:Dubby.cpp     ****     for (int i = 0; i < 4; i++) buttons[i].Debounce();
 352:Dubby.cpp     **** }
 353:Dubby.cpp     **** 
 354:Dubby.cpp     **** float Dubby::GetKnobValue(Ctrl k)
 1786              		.loc 2 354 7 view .LVU420
 1787              	.LBE665:
 355:Dubby.cpp     **** {
 356:Dubby.cpp     ****     return (analogInputs[k].Value());
 1788              		.loc 2 356 5 view .LVU421
 1789              	.LBB672:
 1790              	.LBB666:
 1791              	.LBI666:
 1792              		.file 9 "../../libDaisy//src/hid/ctrl.h"
   1:../../libDaisy//src/hid/ctrl.h **** #pragma once
   2:../../libDaisy//src/hid/ctrl.h **** #ifndef DSY_KNOB_H
   3:../../libDaisy//src/hid/ctrl.h **** #define DSY_KNOB_H /**< & */
   4:../../libDaisy//src/hid/ctrl.h **** #include <stdint.h>
   5:../../libDaisy//src/hid/ctrl.h **** 
   6:../../libDaisy//src/hid/ctrl.h **** #ifdef __cplusplus
   7:../../libDaisy//src/hid/ctrl.h **** namespace daisy
   8:../../libDaisy//src/hid/ctrl.h **** {
   9:../../libDaisy//src/hid/ctrl.h **** /**
  10:../../libDaisy//src/hid/ctrl.h ****     @brief Hardware Interface for control inputs \n 
  11:../../libDaisy//src/hid/ctrl.h ****     Primarily designed for ADC input controls such as \n 
  12:../../libDaisy//src/hid/ctrl.h ****     potentiometers, and control voltage. \n 
ARM GAS  /var/folders/1y/_321xjh9623c014x9_qw12rr0000gn/T//cc4eHiNS.s 			page 65


  13:../../libDaisy//src/hid/ctrl.h ****     @author Stephen Hensley
  14:../../libDaisy//src/hid/ctrl.h ****     @date November 2019
  15:../../libDaisy//src/hid/ctrl.h ****     @ingroup controls
  16:../../libDaisy//src/hid/ctrl.h **** */
  17:../../libDaisy//src/hid/ctrl.h **** class AnalogControl
  18:../../libDaisy//src/hid/ctrl.h **** {
  19:../../libDaisy//src/hid/ctrl.h ****   public:
  20:../../libDaisy//src/hid/ctrl.h ****     /** Constructor */
  21:../../libDaisy//src/hid/ctrl.h ****     AnalogControl() {}
  22:../../libDaisy//src/hid/ctrl.h ****     /** destructor */
  23:../../libDaisy//src/hid/ctrl.h ****     ~AnalogControl() {}
  24:../../libDaisy//src/hid/ctrl.h **** 
  25:../../libDaisy//src/hid/ctrl.h ****     /** 
  26:../../libDaisy//src/hid/ctrl.h ****     Initializes the control
  27:../../libDaisy//src/hid/ctrl.h ****     \param *adcptr is a pointer to the raw adc read value -- This can be acquired with dsy_adc_get_
  28:../../libDaisy//src/hid/ctrl.h ****     \param sr is the samplerate in Hz that the Process function will be called at.
  29:../../libDaisy//src/hid/ctrl.h ****     \param flip determines whether the input is flipped (i.e. 1.f - input) or not before being proc
  30:../../libDaisy//src/hid/ctrl.h ****     \param invert determines whether the input is inverted (i.e. -1.f * input) or note before being
  31:../../libDaisy//src/hid/ctrl.h ****     \param slew_seconds is the slew time in seconds that it takes for the control to change to a ne
  32:../../libDaisy//src/hid/ctrl.h ****     */
  33:../../libDaisy//src/hid/ctrl.h ****     void Init(uint16_t *adcptr,
  34:../../libDaisy//src/hid/ctrl.h ****               float     sr,
  35:../../libDaisy//src/hid/ctrl.h ****               bool      flip         = false,
  36:../../libDaisy//src/hid/ctrl.h ****               bool      invert       = false,
  37:../../libDaisy//src/hid/ctrl.h ****               float     slew_seconds = 0.002f);
  38:../../libDaisy//src/hid/ctrl.h **** 
  39:../../libDaisy//src/hid/ctrl.h ****     /** 
  40:../../libDaisy//src/hid/ctrl.h ****     This Initializes the AnalogControl for a -5V to 5V inverted input
  41:../../libDaisy//src/hid/ctrl.h ****     All of the Init details are the same otherwise
  42:../../libDaisy//src/hid/ctrl.h ****     \param *adcptr Pointer to analog digital converter
  43:../../libDaisy//src/hid/ctrl.h ****     \param sr Audio engine sample rate
  44:../../libDaisy//src/hid/ctrl.h ****     */
  45:../../libDaisy//src/hid/ctrl.h ****     void InitBipolarCv(uint16_t *adcptr, float sr);
  46:../../libDaisy//src/hid/ctrl.h **** 
  47:../../libDaisy//src/hid/ctrl.h ****     /** 
  48:../../libDaisy//src/hid/ctrl.h ****     Filters, and transforms a raw ADC read into a normalized range.
  49:../../libDaisy//src/hid/ctrl.h ****     this should be called at the rate of specified by samplerate at Init time.   
  50:../../libDaisy//src/hid/ctrl.h ****     Default Initializations will return 0.0 -> 1.0
  51:../../libDaisy//src/hid/ctrl.h ****     Bi-polar CV inputs will return -1.0 -> 1.0
  52:../../libDaisy//src/hid/ctrl.h ****     */
  53:../../libDaisy//src/hid/ctrl.h ****     float Process();
  54:../../libDaisy//src/hid/ctrl.h **** 
  55:../../libDaisy//src/hid/ctrl.h ****     /** Returns the current stored value, without reprocessing */
  56:../../libDaisy//src/hid/ctrl.h ****     inline float Value() const { return val_; }
 1793              		.loc 9 56 18 view .LVU422
 1794              	.LBB667:
 1795              		.loc 9 56 34 view .LVU423
 1796              		.loc 9 56 34 is_stmt 0 view .LVU424
 1797              	.LBE667:
 1798              	.LBE666:
 1799              	.LBE672:
 1800              	.LBB673:
 1801              	.LBI673:
 1802              		.file 10 "/Library/DaisyToolchain/0.2.0/arm/arm-none-eabi/include/c++/10.3.1/bits/std_abs.h"
   1:/Library/DaisyToolchain/0.2.0/arm/arm-none-eabi/include/c++/10.3.1/bits/std_abs.h **** // -*- C++ -*- C library enhancements header.
   2:/Library/DaisyToolchain/0.2.0/arm/arm-none-eabi/include/c++/10.3.1/bits/std_abs.h **** 
   3:/Library/DaisyToolchain/0.2.0/arm/arm-none-eabi/include/c++/10.3.1/bits/std_abs.h **** // Copyright (C) 2016-2020 Free Software Foundation, Inc.
ARM GAS  /var/folders/1y/_321xjh9623c014x9_qw12rr0000gn/T//cc4eHiNS.s 			page 66


   4:/Library/DaisyToolchain/0.2.0/arm/arm-none-eabi/include/c++/10.3.1/bits/std_abs.h **** //
   5:/Library/DaisyToolchain/0.2.0/arm/arm-none-eabi/include/c++/10.3.1/bits/std_abs.h **** // This file is part of the GNU ISO C++ Library.  This library is free
   6:/Library/DaisyToolchain/0.2.0/arm/arm-none-eabi/include/c++/10.3.1/bits/std_abs.h **** // software; you can redistribute it and/or modify it under the
   7:/Library/DaisyToolchain/0.2.0/arm/arm-none-eabi/include/c++/10.3.1/bits/std_abs.h **** // terms of the GNU General Public License as published by the
   8:/Library/DaisyToolchain/0.2.0/arm/arm-none-eabi/include/c++/10.3.1/bits/std_abs.h **** // Free Software Foundation; either version 3, or (at your option)
   9:/Library/DaisyToolchain/0.2.0/arm/arm-none-eabi/include/c++/10.3.1/bits/std_abs.h **** // any later version.
  10:/Library/DaisyToolchain/0.2.0/arm/arm-none-eabi/include/c++/10.3.1/bits/std_abs.h **** 
  11:/Library/DaisyToolchain/0.2.0/arm/arm-none-eabi/include/c++/10.3.1/bits/std_abs.h **** // This library is distributed in the hope that it will be useful,
  12:/Library/DaisyToolchain/0.2.0/arm/arm-none-eabi/include/c++/10.3.1/bits/std_abs.h **** // but WITHOUT ANY WARRANTY; without even the implied warranty of
  13:/Library/DaisyToolchain/0.2.0/arm/arm-none-eabi/include/c++/10.3.1/bits/std_abs.h **** // MERCHANTABILITY or FITNESS FOR A PARTICULAR PURPOSE.  See the
  14:/Library/DaisyToolchain/0.2.0/arm/arm-none-eabi/include/c++/10.3.1/bits/std_abs.h **** // GNU General Public License for more details.
  15:/Library/DaisyToolchain/0.2.0/arm/arm-none-eabi/include/c++/10.3.1/bits/std_abs.h **** 
  16:/Library/DaisyToolchain/0.2.0/arm/arm-none-eabi/include/c++/10.3.1/bits/std_abs.h **** // Under Section 7 of GPL version 3, you are granted additional
  17:/Library/DaisyToolchain/0.2.0/arm/arm-none-eabi/include/c++/10.3.1/bits/std_abs.h **** // permissions described in the GCC Runtime Library Exception, version
  18:/Library/DaisyToolchain/0.2.0/arm/arm-none-eabi/include/c++/10.3.1/bits/std_abs.h **** // 3.1, as published by the Free Software Foundation.
  19:/Library/DaisyToolchain/0.2.0/arm/arm-none-eabi/include/c++/10.3.1/bits/std_abs.h **** 
  20:/Library/DaisyToolchain/0.2.0/arm/arm-none-eabi/include/c++/10.3.1/bits/std_abs.h **** // You should have received a copy of the GNU General Public License and
  21:/Library/DaisyToolchain/0.2.0/arm/arm-none-eabi/include/c++/10.3.1/bits/std_abs.h **** // a copy of the GCC Runtime Library Exception along with this program;
  22:/Library/DaisyToolchain/0.2.0/arm/arm-none-eabi/include/c++/10.3.1/bits/std_abs.h **** // see the files COPYING3 and COPYING.RUNTIME respectively.  If not, see
  23:/Library/DaisyToolchain/0.2.0/arm/arm-none-eabi/include/c++/10.3.1/bits/std_abs.h **** // <http://www.gnu.org/licenses/>.
  24:/Library/DaisyToolchain/0.2.0/arm/arm-none-eabi/include/c++/10.3.1/bits/std_abs.h **** 
  25:/Library/DaisyToolchain/0.2.0/arm/arm-none-eabi/include/c++/10.3.1/bits/std_abs.h **** /** @file include/bits/std_abs.h
  26:/Library/DaisyToolchain/0.2.0/arm/arm-none-eabi/include/c++/10.3.1/bits/std_abs.h ****  *  This is an internal header file, included by other library headers.
  27:/Library/DaisyToolchain/0.2.0/arm/arm-none-eabi/include/c++/10.3.1/bits/std_abs.h ****  *  Do not attempt to use it directly. @headername{cmath, cstdlib}
  28:/Library/DaisyToolchain/0.2.0/arm/arm-none-eabi/include/c++/10.3.1/bits/std_abs.h ****  */
  29:/Library/DaisyToolchain/0.2.0/arm/arm-none-eabi/include/c++/10.3.1/bits/std_abs.h **** 
  30:/Library/DaisyToolchain/0.2.0/arm/arm-none-eabi/include/c++/10.3.1/bits/std_abs.h **** #ifndef _GLIBCXX_BITS_STD_ABS_H
  31:/Library/DaisyToolchain/0.2.0/arm/arm-none-eabi/include/c++/10.3.1/bits/std_abs.h **** #define _GLIBCXX_BITS_STD_ABS_H
  32:/Library/DaisyToolchain/0.2.0/arm/arm-none-eabi/include/c++/10.3.1/bits/std_abs.h **** 
  33:/Library/DaisyToolchain/0.2.0/arm/arm-none-eabi/include/c++/10.3.1/bits/std_abs.h **** #pragma GCC system_header
  34:/Library/DaisyToolchain/0.2.0/arm/arm-none-eabi/include/c++/10.3.1/bits/std_abs.h **** 
  35:/Library/DaisyToolchain/0.2.0/arm/arm-none-eabi/include/c++/10.3.1/bits/std_abs.h **** #include <bits/c++config.h>
  36:/Library/DaisyToolchain/0.2.0/arm/arm-none-eabi/include/c++/10.3.1/bits/std_abs.h **** 
  37:/Library/DaisyToolchain/0.2.0/arm/arm-none-eabi/include/c++/10.3.1/bits/std_abs.h **** #define _GLIBCXX_INCLUDE_NEXT_C_HEADERS
  38:/Library/DaisyToolchain/0.2.0/arm/arm-none-eabi/include/c++/10.3.1/bits/std_abs.h **** #include_next <stdlib.h>
  39:/Library/DaisyToolchain/0.2.0/arm/arm-none-eabi/include/c++/10.3.1/bits/std_abs.h **** #ifdef __CORRECT_ISO_CPP_MATH_H_PROTO
  40:/Library/DaisyToolchain/0.2.0/arm/arm-none-eabi/include/c++/10.3.1/bits/std_abs.h **** # include_next <math.h>
  41:/Library/DaisyToolchain/0.2.0/arm/arm-none-eabi/include/c++/10.3.1/bits/std_abs.h **** #endif
  42:/Library/DaisyToolchain/0.2.0/arm/arm-none-eabi/include/c++/10.3.1/bits/std_abs.h **** #undef _GLIBCXX_INCLUDE_NEXT_C_HEADERS
  43:/Library/DaisyToolchain/0.2.0/arm/arm-none-eabi/include/c++/10.3.1/bits/std_abs.h **** 
  44:/Library/DaisyToolchain/0.2.0/arm/arm-none-eabi/include/c++/10.3.1/bits/std_abs.h **** #undef abs
  45:/Library/DaisyToolchain/0.2.0/arm/arm-none-eabi/include/c++/10.3.1/bits/std_abs.h **** 
  46:/Library/DaisyToolchain/0.2.0/arm/arm-none-eabi/include/c++/10.3.1/bits/std_abs.h **** extern "C++"
  47:/Library/DaisyToolchain/0.2.0/arm/arm-none-eabi/include/c++/10.3.1/bits/std_abs.h **** {
  48:/Library/DaisyToolchain/0.2.0/arm/arm-none-eabi/include/c++/10.3.1/bits/std_abs.h **** namespace std _GLIBCXX_VISIBILITY(default)
  49:/Library/DaisyToolchain/0.2.0/arm/arm-none-eabi/include/c++/10.3.1/bits/std_abs.h **** {
  50:/Library/DaisyToolchain/0.2.0/arm/arm-none-eabi/include/c++/10.3.1/bits/std_abs.h **** _GLIBCXX_BEGIN_NAMESPACE_VERSION
  51:/Library/DaisyToolchain/0.2.0/arm/arm-none-eabi/include/c++/10.3.1/bits/std_abs.h **** 
  52:/Library/DaisyToolchain/0.2.0/arm/arm-none-eabi/include/c++/10.3.1/bits/std_abs.h ****   using ::abs;
  53:/Library/DaisyToolchain/0.2.0/arm/arm-none-eabi/include/c++/10.3.1/bits/std_abs.h **** 
  54:/Library/DaisyToolchain/0.2.0/arm/arm-none-eabi/include/c++/10.3.1/bits/std_abs.h **** #ifndef __CORRECT_ISO_CPP_STDLIB_H_PROTO
  55:/Library/DaisyToolchain/0.2.0/arm/arm-none-eabi/include/c++/10.3.1/bits/std_abs.h ****   inline long
  56:/Library/DaisyToolchain/0.2.0/arm/arm-none-eabi/include/c++/10.3.1/bits/std_abs.h ****   abs(long __i) { return __builtin_labs(__i); }
  57:/Library/DaisyToolchain/0.2.0/arm/arm-none-eabi/include/c++/10.3.1/bits/std_abs.h **** #endif
  58:/Library/DaisyToolchain/0.2.0/arm/arm-none-eabi/include/c++/10.3.1/bits/std_abs.h **** 
  59:/Library/DaisyToolchain/0.2.0/arm/arm-none-eabi/include/c++/10.3.1/bits/std_abs.h **** #ifdef _GLIBCXX_USE_LONG_LONG
  60:/Library/DaisyToolchain/0.2.0/arm/arm-none-eabi/include/c++/10.3.1/bits/std_abs.h ****   inline long long
ARM GAS  /var/folders/1y/_321xjh9623c014x9_qw12rr0000gn/T//cc4eHiNS.s 			page 67


  61:/Library/DaisyToolchain/0.2.0/arm/arm-none-eabi/include/c++/10.3.1/bits/std_abs.h ****   abs(long long __x) { return __builtin_llabs (__x); }
  62:/Library/DaisyToolchain/0.2.0/arm/arm-none-eabi/include/c++/10.3.1/bits/std_abs.h **** #endif
  63:/Library/DaisyToolchain/0.2.0/arm/arm-none-eabi/include/c++/10.3.1/bits/std_abs.h **** 
  64:/Library/DaisyToolchain/0.2.0/arm/arm-none-eabi/include/c++/10.3.1/bits/std_abs.h **** // _GLIBCXX_RESOLVE_LIB_DEFECTS
  65:/Library/DaisyToolchain/0.2.0/arm/arm-none-eabi/include/c++/10.3.1/bits/std_abs.h **** // 2192. Validity and return type of std::abs(0u) is unclear
  66:/Library/DaisyToolchain/0.2.0/arm/arm-none-eabi/include/c++/10.3.1/bits/std_abs.h **** // 2294. <cstdlib> should declare abs(double)
  67:/Library/DaisyToolchain/0.2.0/arm/arm-none-eabi/include/c++/10.3.1/bits/std_abs.h **** // 2735. std::abs(short), std::abs(signed char) and others should return int
  68:/Library/DaisyToolchain/0.2.0/arm/arm-none-eabi/include/c++/10.3.1/bits/std_abs.h **** 
  69:/Library/DaisyToolchain/0.2.0/arm/arm-none-eabi/include/c++/10.3.1/bits/std_abs.h **** #ifndef __CORRECT_ISO_CPP_MATH_H_PROTO
  70:/Library/DaisyToolchain/0.2.0/arm/arm-none-eabi/include/c++/10.3.1/bits/std_abs.h ****   inline _GLIBCXX_CONSTEXPR double
  71:/Library/DaisyToolchain/0.2.0/arm/arm-none-eabi/include/c++/10.3.1/bits/std_abs.h ****   abs(double __x)
  72:/Library/DaisyToolchain/0.2.0/arm/arm-none-eabi/include/c++/10.3.1/bits/std_abs.h ****   { return __builtin_fabs(__x); }
  73:/Library/DaisyToolchain/0.2.0/arm/arm-none-eabi/include/c++/10.3.1/bits/std_abs.h **** 
  74:/Library/DaisyToolchain/0.2.0/arm/arm-none-eabi/include/c++/10.3.1/bits/std_abs.h ****   inline _GLIBCXX_CONSTEXPR float
  75:/Library/DaisyToolchain/0.2.0/arm/arm-none-eabi/include/c++/10.3.1/bits/std_abs.h ****   abs(float __x)
 1803              		.loc 10 75 3 is_stmt 1 view .LVU425
 1804              	.LBB674:
  76:/Library/DaisyToolchain/0.2.0/arm/arm-none-eabi/include/c++/10.3.1/bits/std_abs.h ****   { return __builtin_fabsf(__x); }
 1805              		.loc 10 76 5 view .LVU426
 1806              		.loc 10 76 5 is_stmt 0 view .LVU427
 1807              	.LBE674:
 1808              	.LBE673:
 1809              	.LBB676:
 1810              	.LBB670:
 1811              	.LBB668:
 1812              		.loc 9 56 41 view .LVU428
 1813 005c 9DF80C30 		ldrb	r3, [sp, #12]	@ zero_extendqisi2
 1814              	.LBE668:
 1815              	.LBE670:
 1816              	.LBE676:
 257:Dubby.cpp     ****     display.DrawRect((i * 32)  + margin, int(abs((currentLevels[i] * 5.0f) - 1.0f) * 51.0f) + 1, ((
 1817              		.loc 2 257 49 view .LVU429
 1818 0060 F7EE007A 		vmov.f32	s15, #1.0e+0
 257:Dubby.cpp     ****     display.DrawRect((i * 32)  + margin, int(abs((currentLevels[i] * 5.0f) - 1.0f) * 51.0f) + 1, ((
 1819              		.loc 2 257 100 view .LVU430
 1820 0064 9FEDC97A 		vldr.32	s14, .L183
 1821              	.LBB677:
 1822              	.LBB678:
 1823              	.LBB679:
 227:../../libDaisy//src/hid/disp/display.h ****         int_fast16_t deltaY = abs((int_fast16_t)y2 - (int_fast16_t)y1);
 1824              		.loc 3 227 52 view .LVU431
 1825 0068 A2EB050A 		sub	r10, r2, r5
 1826              	.LBE679:
 1827              	.LBE678:
 1828              	.LBE677:
 1829              	.LBB756:
 1830              	.LBB671:
 1831              	.LBB669:
 1832              		.loc 9 56 41 view .LVU432
 1833 006c 00EB4313 		add	r3, r0, r3, lsl #5
 1834              	.LBE669:
 1835              	.LBE671:
 1836              	.LBE756:
 1837              	.LBB757:
 1838              	.LBB706:
 1839              	.LBB701:
 227:../../libDaisy//src/hid/disp/display.h ****         int_fast16_t deltaY = abs((int_fast16_t)y2 - (int_fast16_t)y1);
ARM GAS  /var/folders/1y/_321xjh9623c014x9_qw12rr0000gn/T//cc4eHiNS.s 			page 68


 1840              		.loc 3 227 22 view .LVU433
 1841 0070 BAF1000F 		cmp	r10, #0
 1842              	.LBE701:
 1843              	.LBE706:
 1844              	.LBE757:
 257:Dubby.cpp     ****     display.DrawRect((i * 32)  + margin, int(abs((currentLevels[i] * 5.0f) - 1.0f) * 51.0f) + 1, ((
 1845              		.loc 2 257 49 view .LVU434
 1846 0074 D3ED4A6A 		vldr.32	s13, [r3, #296]
 1847              	.LBB758:
 1848              	.LBB707:
 1849              	.LBB702:
 227:../../libDaisy//src/hid/disp/display.h ****         int_fast16_t deltaY = abs((int_fast16_t)y2 - (int_fast16_t)y1);
 1850              		.loc 3 227 22 view .LVU435
 1851 0078 B8BF     		it	lt
 1852 007a CAF1000A 		rsblt	r10, r10, #0
 229:../../libDaisy//src/hid/disp/display.h ****         int_fast16_t signY  = ((y1 < y2) ? 1 : -1);
 1853              		.loc 3 229 42 view .LVU436
 1854 007e 9542     		cmp	r5, r2
 1855              	.LBE702:
 1856              	.LBE707:
 1857              	.LBE758:
 257:Dubby.cpp     ****     display.DrawRect((i * 32)  + margin, int(abs((currentLevels[i] * 5.0f) - 1.0f) * 51.0f) + 1, ((
 1858              		.loc 2 257 49 view .LVU437
 1859 0080 77EEE67A 		vsub.f32	s15, s15, s13
 1860              	.LBB759:
 1861              	.LBB675:
 1862              		.loc 10 76 31 view .LVU438
 1863 0084 F0EEE77A 		vabs.f32	s15, s15
 1864              	.LBE675:
 1865              	.LBE759:
 257:Dubby.cpp     ****     display.DrawRect((i * 32)  + margin, int(abs((currentLevels[i] * 5.0f) - 1.0f) * 51.0f) + 1, ((
 1866              		.loc 2 257 100 view .LVU439
 1867 0088 67EE877A 		vmul.f32	s15, s15, s14
 257:Dubby.cpp     ****     display.DrawRect((i * 32)  + margin, int(abs((currentLevels[i] * 5.0f) - 1.0f) * 51.0f) + 1, ((
 1868              		.loc 2 257 42 view .LVU440
 1869 008c FDEEE77A 		vcvt.s32.f32	s15, s15
 257:Dubby.cpp     ****     display.DrawRect((i * 32)  + margin, int(abs((currentLevels[i] * 5.0f) - 1.0f) * 51.0f) + 1, ((
 1870              		.loc 2 257 109 view .LVU441
 1871 0090 17EE903A 		vmov	r3, s15	@ int
 1872 0094 03F10107 		add	r7, r3, #1
 1873              	.LVL128:
 1874              	.LBB760:
 1875              	.LBI677:
 257:../../libDaisy//src/hid/disp/display.h ****                   uint_fast8_t y1,
 1876              		.loc 3 257 10 is_stmt 1 view .LVU442
 1877              	.LBB708:
 1878              	.LBI678:
 221:../../libDaisy//src/hid/disp/display.h ****                   uint_fast8_t y1,
 1879              		.loc 3 221 10 view .LVU443
 1880              	.LBB703:
 229:../../libDaisy//src/hid/disp/display.h ****         int_fast16_t signY  = ((y1 < y2) ? 1 : -1);
 1881              		.loc 3 229 42 is_stmt 0 view .LVU444
 1882 0098 80F08E81 		bcs	.L182
 1883              	.LVL129:
 1884              	.LBB680:
 1885              	.LBI680:
 1886              		.loc 1 42 10 is_stmt 1 view .LVU445
ARM GAS  /var/folders/1y/_321xjh9623c014x9_qw12rr0000gn/T//cc4eHiNS.s 			page 69


 1887              	.LBB681:
 1888              	.LBB682:
 1889              	.LBB683:
 354:../../libDaisy//src/dev/oled_ssd130x.h ****             return;
 1890              		.loc 4 354 14 is_stmt 0 view .LVU446
 1891 009c 7F2A     		cmp	r2, #127
 1892              	.LBE683:
 1893              	.LBE682:
  43:../../libDaisy//src/hid/disp/oled_display.h ****     {
  44:../../libDaisy//src/hid/disp/oled_display.h ****         driver_.DrawPixel(x, y, on);
 1894              		.loc 1 44 26 view .LVU447
 1895 009e 00F58B64 		add	r4, r0, #1112
 1896              	.LVL130:
 1897              	.LBB687:
 1898              	.LBI682:
 352:../../libDaisy//src/dev/oled_ssd130x.h ****     {
 1899              		.loc 4 352 10 is_stmt 1 view .LVU448
 1900              	.LBE687:
 1901              	.LBE681:
 1902              	.LBE680:
 229:../../libDaisy//src/hid/disp/display.h ****         int_fast16_t signY  = ((y1 < y2) ? 1 : -1);
 1903              		.loc 3 229 42 is_stmt 0 view .LVU449
 1904 00a2 4FF0010B 		mov	fp, #1
 1905              	.LBB695:
 1906              	.LBB692:
 1907              	.LBB688:
 1908              	.LBB684:
 354:../../libDaisy//src/dev/oled_ssd130x.h ****             return;
 1909              		.loc 4 354 14 view .LVU450
 1910 00a6 94BF     		ite	ls
 1911 00a8 0023     		movls	r3, #0
 1912 00aa 0123     		movhi	r3, #1
 354:../../libDaisy//src/dev/oled_ssd130x.h ****             return;
 1913              		.loc 4 354 28 view .LVU451
 1914 00ac 3F2F     		cmp	r7, #63
 354:../../libDaisy//src/dev/oled_ssd130x.h ****             return;
 1915              		.loc 4 354 14 view .LVU452
 1916 00ae 0493     		str	r3, [sp, #16]
 354:../../libDaisy//src/dev/oled_ssd130x.h ****             return;
 1917              		.loc 4 354 28 view .LVU453
 1918 00b0 94BF     		ite	ls
 1919 00b2 0021     		movls	r1, #0
 1920 00b4 0121     		movhi	r1, #1
 1921 00b6 0591     		str	r1, [sp, #20]
 354:../../libDaisy//src/dev/oled_ssd130x.h ****             return;
 1922              		.loc 4 354 9 view .LVU454
 1923 00b8 13B9     		cbnz	r3, .L88
 1924 00ba 0029     		cmp	r1, #0
 1925 00bc 00F08C81 		beq	.L125
 1926              	.LVL131:
 1927              	.L88:
 354:../../libDaisy//src/dev/oled_ssd130x.h ****             return;
 1928              		.loc 4 354 9 view .LVU455
 1929              	.LBE684:
 1930              	.LBE688:
 1931              	.LBE692:
 1932              	.LBE695:
ARM GAS  /var/folders/1y/_321xjh9623c014x9_qw12rr0000gn/T//cc4eHiNS.s 			page 70


 227:../../libDaisy//src/hid/disp/display.h ****         int_fast16_t deltaY = abs((int_fast16_t)y2 - (int_fast16_t)y1);
 1933              		.loc 3 227 22 view .LVU456
 1934 00c0 D046     		mov	r8, r10
 1935              	.LBE703:
 1936              	.LBE708:
 1937              	.LBE760:
 257:Dubby.cpp     ****     display.DrawRect((i * 32)  + margin, int(abs((currentLevels[i] * 5.0f) - 1.0f) * 51.0f) + 1, ((
 1938              		.loc 2 257 21 view .LVU457
 1939 00c2 3E46     		mov	r6, r7
 256:Dubby.cpp     ****     display.DrawRect((i * 32)  + margin, int(abs(1.0f - GetKnobValue(static_cast<Dubby::Ctrl>(i))) 
 1940              		.loc 2 256 21 view .LVU458
 1941 00c4 AE46     		mov	lr, r5
 1942              	.L90:
 1943              	.LVL132:
 1944              	.LBB761:
 1945              	.LBB709:
 1946              	.LBB704:
 1947              	.LBB696:
 1948              	.LBI696:
  42:../../libDaisy//src/hid/disp/oled_display.h ****     {
 1949              		.loc 1 42 10 is_stmt 1 view .LVU459
 1950              	.LBB697:
 1951              	.LBI697:
 352:../../libDaisy//src/dev/oled_ssd130x.h ****     {
 1952              		.loc 4 352 10 view .LVU460
 1953              	.LBB698:
 357:../../libDaisy//src/dev/oled_ssd130x.h ****         else
 1954              		.loc 4 357 28 is_stmt 0 view .LVU461
 1955 00c6 F108     		lsrs	r1, r6, #3
 357:../../libDaisy//src/dev/oled_ssd130x.h ****         else
 1956              		.loc 4 357 54 view .LVU462
 1957 00c8 06F00703 		and	r3, r6, #7
 357:../../libDaisy//src/dev/oled_ssd130x.h ****         else
 1958              		.loc 4 357 48 view .LVU463
 1959 00cc 4FF00109 		mov	r9, #1
 354:../../libDaisy//src/dev/oled_ssd130x.h ****             return;
 1960              		.loc 4 354 9 view .LVU464
 1961 00d0 BEF17F0F 		cmp	lr, #127
 357:../../libDaisy//src/dev/oled_ssd130x.h ****         else
 1962              		.loc 4 357 42 view .LVU465
 1963 00d4 0EEBC111 		add	r1, lr, r1, lsl #7
 357:../../libDaisy//src/dev/oled_ssd130x.h ****         else
 1964              		.loc 4 357 48 view .LVU466
 1965 00d8 09FA03F3 		lsl	r3, r9, r3
 354:../../libDaisy//src/dev/oled_ssd130x.h ****             return;
 1966              		.loc 4 354 9 view .LVU467
 1967 00dc 08D8     		bhi	.L91
 1968 00de 3F2E     		cmp	r6, #63
 357:../../libDaisy//src/dev/oled_ssd130x.h ****         else
 1969              		.loc 4 357 42 view .LVU468
 1970 00e0 0144     		add	r1, r1, r0
 354:../../libDaisy//src/dev/oled_ssd130x.h ****             return;
 1971              		.loc 4 354 9 view .LVU469
 1972 00e2 05D8     		bhi	.L91
 357:../../libDaisy//src/dev/oled_ssd130x.h ****         else
 1973              		.loc 4 357 42 view .LVU470
 1974 00e4 91F86494 		ldrb	r9, [r1, #1124]	@ zero_extendqisi2
ARM GAS  /var/folders/1y/_321xjh9623c014x9_qw12rr0000gn/T//cc4eHiNS.s 			page 71


 1975 00e8 43EA0903 		orr	r3, r3, r9
 1976 00ec 81F86434 		strb	r3, [r1, #1124]
 1977              	.L91:
 357:../../libDaisy//src/dev/oled_ssd130x.h ****         else
 1978              		.loc 4 357 42 view .LVU471
 1979              	.LBE698:
 1980              	.LBE697:
 1981              	.LBE696:
 243:../../libDaisy//src/hid/disp/display.h ****             {
 1982              		.loc 3 243 13 view .LVU472
 1983 00f0 5FEA4803 		lsls	r3, r8, #1
 246:../../libDaisy//src/hid/disp/display.h ****             }
 1984              		.loc 3 246 20 view .LVU473
 1985 00f4 18BF     		it	ne
 1986 00f6 DE44     		addne	lr, lr, fp
 1987              	.LVL133:
 249:../../libDaisy//src/hid/disp/display.h ****             {
 1988              		.loc 3 249 13 view .LVU474
 1989 00f8 9A45     		cmp	r10, r3
 1990 00fa 01DD     		ble	.L93
 251:../../libDaisy//src/hid/disp/display.h ****                 y1 += signY;
 1991              		.loc 3 251 23 view .LVU475
 1992 00fc D044     		add	r8, r8, r10
 1993              	.LVL134:
 252:../../libDaisy//src/hid/disp/display.h ****             }
 1994              		.loc 3 252 20 view .LVU476
 1995 00fe 013E     		subs	r6, r6, #1
 1996              	.LVL135:
 1997              	.L93:
 239:../../libDaisy//src/hid/disp/display.h ****         {
 1998              		.loc 3 239 26 is_stmt 1 view .LVU477
 1999 0100 7245     		cmp	r2, lr
 2000 0102 E0D1     		bne	.L90
 239:../../libDaisy//src/hid/disp/display.h ****         {
 2001              		.loc 3 239 26 is_stmt 0 view .LVU478
 2002 0104 B742     		cmp	r7, r6
 2003 0106 DED1     		bne	.L90
 2004 0108 0023     		movs	r3, #0
 2005 010a 0893     		str	r3, [sp, #32]
 2006              	.LVL136:
 2007              	.L87:
 239:../../libDaisy//src/hid/disp/display.h ****         {
 2008              		.loc 3 239 26 view .LVU479
 2009              	.LBE704:
 2010              	.LBE709:
 2011              	.LBB710:
 2012              	.LBI710:
 221:../../libDaisy//src/hid/disp/display.h ****                   uint_fast8_t y1,
 2013              		.loc 3 221 10 is_stmt 1 view .LVU480
 2014              	.LBB711:
 228:../../libDaisy//src/hid/disp/display.h ****         int_fast16_t signX  = ((x1 < x2) ? 1 : -1);
 2015              		.loc 3 228 52 is_stmt 0 view .LVU481
 2016 010c C7F13303 		rsb	r3, r7, #51
 230:../../libDaisy//src/hid/disp/display.h ****         int_fast16_t error  = deltaX - deltaY;
 2017              		.loc 3 230 42 view .LVU482
 2018 0110 332F     		cmp	r7, #51
 228:../../libDaisy//src/hid/disp/display.h ****         int_fast16_t signX  = ((x1 < x2) ? 1 : -1);
ARM GAS  /var/folders/1y/_321xjh9623c014x9_qw12rr0000gn/T//cc4eHiNS.s 			page 72


 2019              		.loc 3 228 22 view .LVU483
 2020 0112 83EAE371 		eor	r1, r3, r3, asr #31
 2021 0116 A1EBE371 		sub	r1, r1, r3, asr #31
 2022 011a 0B46     		mov	r3, r1
 230:../../libDaisy//src/hid/disp/display.h ****         int_fast16_t error  = deltaX - deltaY;
 2023              		.loc 3 230 42 view .LVU484
 2024 011c B4BF     		ite	lt
 2025 011e 0123     		movlt	r3, #1
 2026 0120 4FF0FF33 		movge	r3, #-1
 231:../../libDaisy//src/hid/disp/display.h ****         int_fast16_t error2;
 2027              		.loc 3 231 22 view .LVU485
 2028 0124 C1F1000A 		rsb	r10, r1, #0
 228:../../libDaisy//src/hid/disp/display.h ****         int_fast16_t signX  = ((x1 < x2) ? 1 : -1);
 2029              		.loc 3 228 22 view .LVU486
 2030 0128 0191     		str	r1, [sp, #4]
 2031              	.LVL137:
 230:../../libDaisy//src/hid/disp/display.h ****         int_fast16_t error  = deltaX - deltaY;
 2032              		.loc 3 230 42 view .LVU487
 2033 012a 0293     		str	r3, [sp, #8]
 2034              	.LVL138:
 2035              	.LBB712:
 2036              	.LBI712:
  42:../../libDaisy//src/hid/disp/oled_display.h ****     {
 2037              		.loc 1 42 10 is_stmt 1 view .LVU488
 2038              	.LBB713:
 2039              	.LBI713:
 352:../../libDaisy//src/dev/oled_ssd130x.h ****     {
 2040              		.loc 4 352 10 view .LVU489
 2041              	.LBB714:
 354:../../libDaisy//src/dev/oled_ssd130x.h ****             return;
 2042              		.loc 4 354 9 is_stmt 0 view .LVU490
 2043 012c 049B     		ldr	r3, [sp, #16]
 2044              	.LVL139:
 354:../../libDaisy//src/dev/oled_ssd130x.h ****             return;
 2045              		.loc 4 354 9 view .LVU491
 2046 012e 43B9     		cbnz	r3, .L95
 357:../../libDaisy//src/dev/oled_ssd130x.h ****         else
 2047              		.loc 4 357 42 view .LVU492
 2048 0130 02F54073 		add	r3, r2, #768
 2049 0134 0344     		add	r3, r3, r0
 2050 0136 93F86414 		ldrb	r1, [r3, #1124]	@ zero_extendqisi2
 2051              	.LVL140:
 357:../../libDaisy//src/dev/oled_ssd130x.h ****         else
 2052              		.loc 4 357 42 view .LVU493
 2053 013a 41F00801 		orr	r1, r1, #8
 2054 013e 83F86414 		strb	r1, [r3, #1124]
 2055              	.L95:
 2056              	.LVL141:
 357:../../libDaisy//src/dev/oled_ssd130x.h ****         else
 2057              		.loc 4 357 42 view .LVU494
 2058              	.LBE714:
 2059              	.LBE713:
 2060              	.LBE712:
 239:../../libDaisy//src/hid/disp/display.h ****         {
 2061              		.loc 3 239 26 is_stmt 1 view .LVU495
 2062 0142 332F     		cmp	r7, #51
 2063 0144 29D0     		beq	.L96
ARM GAS  /var/folders/1y/_321xjh9623c014x9_qw12rr0000gn/T//cc4eHiNS.s 			page 73


 2064 0146 5646     		mov	r6, r10
 2065 0148 3946     		mov	r1, r7
 2066              	.LBE711:
 2067              	.LBE710:
 2068              	.LBE761:
 256:Dubby.cpp     ****     display.DrawRect((i * 32)  + margin, int(abs(1.0f - GetKnobValue(static_cast<Dubby::Ctrl>(i))) 
 2069              		.loc 2 256 21 is_stmt 0 view .LVU496
 2070 014a 9646     		mov	lr, r2
 2071              	.LVL142:
 2072              	.L97:
 2073              	.LBB762:
 2074              	.LBB722:
 2075              	.LBB721:
 2076              	.LBB715:
 2077              	.LBI715:
  42:../../libDaisy//src/hid/disp/oled_display.h ****     {
 2078              		.loc 1 42 10 is_stmt 1 view .LVU497
 2079              	.LBB716:
 2080              	.LBI716:
 352:../../libDaisy//src/dev/oled_ssd130x.h ****     {
 2081              		.loc 4 352 10 view .LVU498
 2082              	.LBB717:
 357:../../libDaisy//src/dev/oled_ssd130x.h ****         else
 2083              		.loc 4 357 48 is_stmt 0 view .LVU499
 2084 014c 4FF0010B 		mov	fp, #1
 357:../../libDaisy//src/dev/oled_ssd130x.h ****         else
 2085              		.loc 4 357 28 view .LVU500
 2086 0150 CB08     		lsrs	r3, r1, #3
 357:../../libDaisy//src/dev/oled_ssd130x.h ****         else
 2087              		.loc 4 357 54 view .LVU501
 2088 0152 01F00708 		and	r8, r1, #7
 354:../../libDaisy//src/dev/oled_ssd130x.h ****             return;
 2089              		.loc 4 354 9 view .LVU502
 2090 0156 BEF17F0F 		cmp	lr, #127
 357:../../libDaisy//src/dev/oled_ssd130x.h ****         else
 2091              		.loc 4 357 42 view .LVU503
 2092 015a 0EEBC313 		add	r3, lr, r3, lsl #7
 2093              	.LBE717:
 2094              	.LBE716:
 2095              	.LBE715:
 242:../../libDaisy//src/hid/disp/display.h ****             if(error2 > -deltaY)
 2096              		.loc 3 242 20 view .LVU504
 2097 015e 06FA0BF9 		lsl	r9, r6, fp
 2098              	.LVL143:
 2099              	.LBB720:
 2100              	.LBB719:
 2101              	.LBB718:
 357:../../libDaisy//src/dev/oled_ssd130x.h ****         else
 2102              		.loc 4 357 48 view .LVU505
 2103 0162 0BFA08F8 		lsl	r8, fp, r8
 354:../../libDaisy//src/dev/oled_ssd130x.h ****             return;
 2104              		.loc 4 354 9 view .LVU506
 2105 0166 08D8     		bhi	.L99
 354:../../libDaisy//src/dev/oled_ssd130x.h ****             return;
 2106              		.loc 4 354 9 view .LVU507
 2107 0168 3F29     		cmp	r1, #63
 357:../../libDaisy//src/dev/oled_ssd130x.h ****         else
ARM GAS  /var/folders/1y/_321xjh9623c014x9_qw12rr0000gn/T//cc4eHiNS.s 			page 74


 2108              		.loc 4 357 42 view .LVU508
 2109 016a 0344     		add	r3, r3, r0
 354:../../libDaisy//src/dev/oled_ssd130x.h ****             return;
 2110              		.loc 4 354 9 view .LVU509
 2111 016c 05D8     		bhi	.L99
 357:../../libDaisy//src/dev/oled_ssd130x.h ****         else
 2112              		.loc 4 357 42 view .LVU510
 2113 016e 93F864B4 		ldrb	fp, [r3, #1124]	@ zero_extendqisi2
 2114 0172 48EA0B08 		orr	r8, r8, fp
 2115 0176 83F86484 		strb	r8, [r3, #1124]
 2116              	.L99:
 357:../../libDaisy//src/dev/oled_ssd130x.h ****         else
 2117              		.loc 4 357 42 view .LVU511
 2118              	.LBE718:
 2119              	.LBE719:
 2120              	.LBE720:
 243:../../libDaisy//src/hid/disp/display.h ****             {
 2121              		.loc 3 243 13 view .LVU512
 2122 017a BAEB460F 		cmp	r10, r6, lsl #1
 2123 017e 03DA     		bge	.L100
 245:../../libDaisy//src/hid/disp/display.h ****                 x1 += signX;
 2124              		.loc 3 245 23 view .LVU513
 2125 0180 019B     		ldr	r3, [sp, #4]
 246:../../libDaisy//src/hid/disp/display.h ****             }
 2126              		.loc 3 246 20 view .LVU514
 2127 0182 0EF1FF3E 		add	lr, lr, #-1
 2128              	.LVL144:
 245:../../libDaisy//src/hid/disp/display.h ****                 x1 += signX;
 2129              		.loc 3 245 23 view .LVU515
 2130 0186 F61A     		subs	r6, r6, r3
 2131              	.LVL145:
 2132              	.L100:
 249:../../libDaisy//src/hid/disp/display.h ****             {
 2133              		.loc 3 249 13 view .LVU516
 2134 0188 B9F1000F 		cmp	r9, #0
 2135 018c 01D0     		beq	.L101
 252:../../libDaisy//src/hid/disp/display.h ****             }
 2136              		.loc 3 252 20 view .LVU517
 2137 018e 029B     		ldr	r3, [sp, #8]
 2138 0190 1944     		add	r1, r1, r3
 2139              	.LVL146:
 2140              	.L101:
 239:../../libDaisy//src/hid/disp/display.h ****         {
 2141              		.loc 3 239 26 is_stmt 1 view .LVU518
 2142 0192 7245     		cmp	r2, lr
 2143 0194 DAD1     		bne	.L97
 239:../../libDaisy//src/hid/disp/display.h ****         {
 2144              		.loc 3 239 26 is_stmt 0 view .LVU519
 2145 0196 3329     		cmp	r1, #51
 2146 0198 D8D1     		bne	.L97
 2147              	.LVL147:
 2148              	.L96:
 239:../../libDaisy//src/hid/disp/display.h ****         {
 2149              		.loc 3 239 26 view .LVU520
 2150              	.LBE721:
 2151              	.LBE722:
 2152              	.LBB723:
ARM GAS  /var/folders/1y/_321xjh9623c014x9_qw12rr0000gn/T//cc4eHiNS.s 			page 75


 2153              	.LBI723:
 221:../../libDaisy//src/hid/disp/display.h ****                   uint_fast8_t y1,
 2154              		.loc 3 221 10 is_stmt 1 view .LVU521
 2155              	.LBB724:
 227:../../libDaisy//src/hid/disp/display.h ****         int_fast16_t deltaY = abs((int_fast16_t)y2 - (int_fast16_t)y1);
 2156              		.loc 3 227 52 is_stmt 0 view .LVU522
 2157 019a A5EB0208 		sub	r8, r5, r2
 229:../../libDaisy//src/hid/disp/display.h ****         int_fast16_t signY  = ((y1 < y2) ? 1 : -1);
 2158              		.loc 3 229 42 view .LVU523
 2159 019e 9542     		cmp	r5, r2
 2160 01a0 8CBF     		ite	hi
 2161 01a2 0122     		movhi	r2, #1
 2162 01a4 4FF0FF32 		movls	r2, #-1
 227:../../libDaisy//src/hid/disp/display.h ****         int_fast16_t deltaY = abs((int_fast16_t)y2 - (int_fast16_t)y1);
 2163              		.loc 3 227 22 view .LVU524
 2164 01a8 B8F1000F 		cmp	r8, #0
 2165 01ac B8BF     		it	lt
 2166 01ae C8F10008 		rsblt	r8, r8, #0
 2167              	.LVL148:
 2168              	.LBB725:
 2169              	.LBI725:
  42:../../libDaisy//src/hid/disp/oled_display.h ****     {
 2170              		.loc 1 42 10 is_stmt 1 view .LVU525
 2171              	.LBB726:
 2172              	.LBI726:
 352:../../libDaisy//src/dev/oled_ssd130x.h ****     {
 2173              		.loc 4 352 10 view .LVU526
 2174              	.LBB727:
 354:../../libDaisy//src/dev/oled_ssd130x.h ****             return;
 2175              		.loc 4 354 9 is_stmt 0 view .LVU527
 2176 01b2 7F2D     		cmp	r5, #127
 2177 01b4 08D8     		bhi	.L103
 357:../../libDaisy//src/dev/oled_ssd130x.h ****         else
 2178              		.loc 4 357 42 view .LVU528
 2179 01b6 05F54073 		add	r3, r5, #768
 2180 01ba 0344     		add	r3, r3, r0
 2181 01bc 93F86414 		ldrb	r1, [r3, #1124]	@ zero_extendqisi2
 2182 01c0 41F00801 		orr	r1, r1, #8
 2183 01c4 83F86414 		strb	r1, [r3, #1124]
 2184              	.L103:
 2185              	.LVL149:
 357:../../libDaisy//src/dev/oled_ssd130x.h ****         else
 2186              		.loc 4 357 42 view .LVU529
 2187              	.LBE727:
 2188              	.LBE726:
 2189              	.LBE725:
 239:../../libDaisy//src/hid/disp/display.h ****         {
 2190              		.loc 3 239 26 is_stmt 1 view .LVU530
 2191 01c8 089B     		ldr	r3, [sp, #32]
 2192 01ca 0BBB     		cbnz	r3, .L104
 227:../../libDaisy//src/hid/disp/display.h ****         int_fast16_t deltaY = abs((int_fast16_t)y2 - (int_fast16_t)y1);
 2193              		.loc 3 227 22 is_stmt 0 view .LVU531
 2194 01cc C646     		mov	lr, r8
 239:../../libDaisy//src/hid/disp/display.h ****         {
 2195              		.loc 3 239 26 view .LVU532
 2196 01ce 3326     		movs	r6, #51
 2197              	.LVL150:
ARM GAS  /var/folders/1y/_321xjh9623c014x9_qw12rr0000gn/T//cc4eHiNS.s 			page 76


 2198              	.L105:
 2199              	.LBB728:
 2200              	.LBI728:
  42:../../libDaisy//src/hid/disp/oled_display.h ****     {
 2201              		.loc 1 42 10 is_stmt 1 view .LVU533
 2202              	.LBB729:
 2203              	.LBI729:
 352:../../libDaisy//src/dev/oled_ssd130x.h ****     {
 2204              		.loc 4 352 10 view .LVU534
 2205              	.LBB730:
 357:../../libDaisy//src/dev/oled_ssd130x.h ****         else
 2206              		.loc 4 357 28 is_stmt 0 view .LVU535
 2207 01d0 F308     		lsrs	r3, r6, #3
 357:../../libDaisy//src/dev/oled_ssd130x.h ****         else
 2208              		.loc 4 357 54 view .LVU536
 2209 01d2 06F00709 		and	r9, r6, #7
 357:../../libDaisy//src/dev/oled_ssd130x.h ****         else
 2210              		.loc 4 357 48 view .LVU537
 2211 01d6 0121     		movs	r1, #1
 354:../../libDaisy//src/dev/oled_ssd130x.h ****             return;
 2212              		.loc 4 354 9 view .LVU538
 2213 01d8 BCF17F0F 		cmp	ip, #127
 357:../../libDaisy//src/dev/oled_ssd130x.h ****         else
 2214              		.loc 4 357 42 view .LVU539
 2215 01dc 0CEBC313 		add	r3, ip, r3, lsl #7
 357:../../libDaisy//src/dev/oled_ssd130x.h ****         else
 2216              		.loc 4 357 48 view .LVU540
 2217 01e0 01FA09F1 		lsl	r1, r1, r9
 354:../../libDaisy//src/dev/oled_ssd130x.h ****             return;
 2218              		.loc 4 354 9 view .LVU541
 2219 01e4 08D8     		bhi	.L107
 354:../../libDaisy//src/dev/oled_ssd130x.h ****             return;
 2220              		.loc 4 354 9 view .LVU542
 2221 01e6 3F2E     		cmp	r6, #63
 357:../../libDaisy//src/dev/oled_ssd130x.h ****         else
 2222              		.loc 4 357 42 view .LVU543
 2223 01e8 0344     		add	r3, r3, r0
 354:../../libDaisy//src/dev/oled_ssd130x.h ****             return;
 2224              		.loc 4 354 9 view .LVU544
 2225 01ea 05D8     		bhi	.L107
 357:../../libDaisy//src/dev/oled_ssd130x.h ****         else
 2226              		.loc 4 357 42 view .LVU545
 2227 01ec 93F86494 		ldrb	r9, [r3, #1124]	@ zero_extendqisi2
 2228 01f0 41EA0901 		orr	r1, r1, r9
 2229 01f4 83F86414 		strb	r1, [r3, #1124]
 2230              	.L107:
 357:../../libDaisy//src/dev/oled_ssd130x.h ****         else
 2231              		.loc 4 357 42 view .LVU546
 2232              	.LBE730:
 2233              	.LBE729:
 2234              	.LBE728:
 243:../../libDaisy//src/hid/disp/display.h ****             {
 2235              		.loc 3 243 13 view .LVU547
 2236 01f8 5FEA4E03 		lsls	r3, lr, #1
 246:../../libDaisy//src/hid/disp/display.h ****             }
 2237              		.loc 3 246 20 view .LVU548
 2238 01fc 18BF     		it	ne
ARM GAS  /var/folders/1y/_321xjh9623c014x9_qw12rr0000gn/T//cc4eHiNS.s 			page 77


 2239 01fe 9444     		addne	ip, ip, r2
 2240              	.LVL151:
 249:../../libDaisy//src/hid/disp/display.h ****             {
 2241              		.loc 3 249 13 view .LVU549
 2242 0200 9845     		cmp	r8, r3
 2243 0202 01DD     		ble	.L109
 251:../../libDaisy//src/hid/disp/display.h ****                 y1 += signY;
 2244              		.loc 3 251 23 view .LVU550
 2245 0204 C644     		add	lr, lr, r8
 2246              	.LVL152:
 252:../../libDaisy//src/hid/disp/display.h ****             }
 2247              		.loc 3 252 20 view .LVU551
 2248 0206 013E     		subs	r6, r6, #1
 2249              	.LVL153:
 2250              	.L109:
 239:../../libDaisy//src/hid/disp/display.h ****         {
 2251              		.loc 3 239 26 is_stmt 1 view .LVU552
 2252 0208 6545     		cmp	r5, ip
 2253 020a E1D1     		bne	.L105
 239:../../libDaisy//src/hid/disp/display.h ****         {
 2254              		.loc 3 239 26 is_stmt 0 view .LVU553
 2255 020c 332E     		cmp	r6, #51
 2256 020e DFD1     		bne	.L105
 2257              	.LVL154:
 2258              	.L104:
 239:../../libDaisy//src/hid/disp/display.h ****         {
 2259              		.loc 3 239 26 view .LVU554
 2260              	.LBE724:
 2261              	.LBE723:
 2262              	.LBB731:
 2263              	.LBI731:
 221:../../libDaisy//src/hid/disp/display.h ****                   uint_fast8_t y1,
 2264              		.loc 3 221 10 is_stmt 1 view .LVU555
 2265              	.LBB732:
 228:../../libDaisy//src/hid/disp/display.h ****         int_fast16_t signX  = ((x1 < x2) ? 1 : -1);
 2266              		.loc 3 228 52 is_stmt 0 view .LVU556
 2267 0210 17EE903A 		vmov	r3, s15	@ int
 2268 0214 A3F1320C 		sub	ip, r3, #50
 228:../../libDaisy//src/hid/disp/display.h ****         int_fast16_t signX  = ((x1 < x2) ? 1 : -1);
 2269              		.loc 3 228 22 view .LVU557
 2270 0218 BCF1000F 		cmp	ip, #0
 2271 021c B8BF     		it	lt
 2272 021e CCF1000C 		rsblt	ip, ip, #0
 2273              	.LVL155:
 230:../../libDaisy//src/hid/disp/display.h ****         int_fast16_t error  = deltaX - deltaY;
 2274              		.loc 3 230 42 view .LVU558
 2275 0222 332F     		cmp	r7, #51
 231:../../libDaisy//src/hid/disp/display.h ****         int_fast16_t error2;
 2276              		.loc 3 231 22 view .LVU559
 2277 0224 CCF10006 		rsb	r6, ip, #0
 230:../../libDaisy//src/hid/disp/display.h ****         int_fast16_t error  = deltaX - deltaY;
 2278              		.loc 3 230 42 view .LVU560
 2279 0228 00F3B280 		bgt	.L110
 2280              	.LVL156:
 2281              	.LBB733:
 2282              	.LBI733:
  42:../../libDaisy//src/hid/disp/oled_display.h ****     {
ARM GAS  /var/folders/1y/_321xjh9623c014x9_qw12rr0000gn/T//cc4eHiNS.s 			page 78


 2283              		.loc 1 42 10 is_stmt 1 view .LVU561
 2284              	.LBB734:
 2285              	.LBI734:
 352:../../libDaisy//src/dev/oled_ssd130x.h ****     {
 2286              		.loc 4 352 10 view .LVU562
 2287              	.LBB735:
 354:../../libDaisy//src/dev/oled_ssd130x.h ****             return;
 2288              		.loc 4 354 9 is_stmt 0 view .LVU563
 2289 022c 7F2D     		cmp	r5, #127
 2290              	.LBE735:
 2291              	.LBE734:
 2292              	.LBE733:
 230:../../libDaisy//src/hid/disp/display.h ****         int_fast16_t error  = deltaX - deltaY;
 2293              		.loc 3 230 42 view .LVU564
 2294 022e 4FF0FF3A 		mov	r10, #-1
 2295              	.LBB742:
 2296              	.LBB739:
 2297              	.LBB736:
 354:../../libDaisy//src/dev/oled_ssd130x.h ****             return;
 2298              		.loc 4 354 9 view .LVU565
 2299 0232 03D8     		bhi	.L111
 2300 0234 059B     		ldr	r3, [sp, #20]
 2301 0236 002B     		cmp	r3, #0
 2302 0238 00F0B080 		beq	.L126
 2303              	.LVL157:
 2304              	.L111:
 354:../../libDaisy//src/dev/oled_ssd130x.h ****             return;
 2305              		.loc 4 354 9 view .LVU566
 2306              	.LBE736:
 2307              	.LBE739:
 2308              	.LBE742:
 239:../../libDaisy//src/hid/disp/display.h ****         {
 2309              		.loc 3 239 26 is_stmt 1 view .LVU567
 2310 023c 332F     		cmp	r7, #51
 2311 023e 26D0     		beq	.L112
 2312 0240 B146     		mov	r9, r6
 2313              	.L113:
 2314              	.LVL158:
 230:../../libDaisy//src/hid/disp/display.h ****         int_fast16_t error  = deltaX - deltaY;
 2315              		.loc 3 230 42 is_stmt 0 view .LVU568
 2316 0242 2946     		mov	r1, r5
 2317 0244 3322     		movs	r2, #51
 2318              	.L115:
 2319              	.LVL159:
 2320              	.LBB743:
 2321              	.LBI743:
  42:../../libDaisy//src/hid/disp/oled_display.h ****     {
 2322              		.loc 1 42 10 is_stmt 1 view .LVU569
 2323              	.LBB744:
 2324              	.LBI744:
 352:../../libDaisy//src/dev/oled_ssd130x.h ****     {
 2325              		.loc 4 352 10 view .LVU570
 2326              	.LBB745:
 357:../../libDaisy//src/dev/oled_ssd130x.h ****         else
 2327              		.loc 4 357 48 is_stmt 0 view .LVU571
 2328 0246 4FF0010B 		mov	fp, #1
 357:../../libDaisy//src/dev/oled_ssd130x.h ****         else
ARM GAS  /var/folders/1y/_321xjh9623c014x9_qw12rr0000gn/T//cc4eHiNS.s 			page 79


 2329              		.loc 4 357 28 view .LVU572
 2330 024a D308     		lsrs	r3, r2, #3
 357:../../libDaisy//src/dev/oled_ssd130x.h ****         else
 2331              		.loc 4 357 54 view .LVU573
 2332 024c 02F0070E 		and	lr, r2, #7
 354:../../libDaisy//src/dev/oled_ssd130x.h ****             return;
 2333              		.loc 4 354 9 view .LVU574
 2334 0250 7F29     		cmp	r1, #127
 357:../../libDaisy//src/dev/oled_ssd130x.h ****         else
 2335              		.loc 4 357 42 view .LVU575
 2336 0252 01EBC313 		add	r3, r1, r3, lsl #7
 2337              	.LBE745:
 2338              	.LBE744:
 2339              	.LBE743:
 242:../../libDaisy//src/hid/disp/display.h ****             if(error2 > -deltaY)
 2340              		.loc 3 242 20 view .LVU576
 2341 0256 06FA0BF8 		lsl	r8, r6, fp
 2342              	.LVL160:
 2343              	.LBB748:
 2344              	.LBB747:
 2345              	.LBB746:
 357:../../libDaisy//src/dev/oled_ssd130x.h ****         else
 2346              		.loc 4 357 48 view .LVU577
 2347 025a 0BFA0EFE 		lsl	lr, fp, lr
 354:../../libDaisy//src/dev/oled_ssd130x.h ****             return;
 2348              		.loc 4 354 9 view .LVU578
 2349 025e 08D8     		bhi	.L116
 2350 0260 3F2A     		cmp	r2, #63
 357:../../libDaisy//src/dev/oled_ssd130x.h ****         else
 2351              		.loc 4 357 42 view .LVU579
 2352 0262 0344     		add	r3, r3, r0
 354:../../libDaisy//src/dev/oled_ssd130x.h ****             return;
 2353              		.loc 4 354 9 view .LVU580
 2354 0264 05D8     		bhi	.L116
 357:../../libDaisy//src/dev/oled_ssd130x.h ****         else
 2355              		.loc 4 357 42 view .LVU581
 2356 0266 93F864B4 		ldrb	fp, [r3, #1124]	@ zero_extendqisi2
 2357 026a 4EEA0B0E 		orr	lr, lr, fp
 2358 026e 83F864E4 		strb	lr, [r3, #1124]
 2359              	.L116:
 357:../../libDaisy//src/dev/oled_ssd130x.h ****         else
 2360              		.loc 4 357 42 view .LVU582
 2361              	.LBE746:
 2362              	.LBE747:
 2363              	.LBE748:
 243:../../libDaisy//src/hid/disp/display.h ****             {
 2364              		.loc 3 243 13 view .LVU583
 2365 0272 B9EB460F 		cmp	r9, r6, lsl #1
 2366 0276 02DA     		bge	.L117
 246:../../libDaisy//src/hid/disp/display.h ****             }
 2367              		.loc 3 246 20 view .LVU584
 2368 0278 0139     		subs	r1, r1, #1
 2369              	.LVL161:
 245:../../libDaisy//src/hid/disp/display.h ****                 x1 += signX;
 2370              		.loc 3 245 23 view .LVU585
 2371 027a A6EB0C06 		sub	r6, r6, ip
 2372              	.LVL162:
ARM GAS  /var/folders/1y/_321xjh9623c014x9_qw12rr0000gn/T//cc4eHiNS.s 			page 80


 2373              	.L117:
 249:../../libDaisy//src/hid/disp/display.h ****             {
 2374              		.loc 3 249 13 view .LVU586
 2375 027e B8F1000F 		cmp	r8, #0
 2376 0282 00D0     		beq	.L118
 252:../../libDaisy//src/hid/disp/display.h ****             }
 2377              		.loc 3 252 20 view .LVU587
 2378 0284 5244     		add	r2, r2, r10
 2379              	.LVL163:
 2380              	.L118:
 239:../../libDaisy//src/hid/disp/display.h ****         {
 2381              		.loc 3 239 26 is_stmt 1 view .LVU588
 2382 0286 8D42     		cmp	r5, r1
 2383 0288 DDD1     		bne	.L115
 239:../../libDaisy//src/hid/disp/display.h ****         {
 2384              		.loc 3 239 26 is_stmt 0 view .LVU589
 2385 028a 9742     		cmp	r7, r2
 2386 028c DBD1     		bne	.L115
 2387              	.LVL164:
 2388              	.L112:
 239:../../libDaisy//src/hid/disp/display.h ****         {
 2389              		.loc 3 239 26 view .LVU590
 2390              	.LBE732:
 2391              	.LBE731:
 2392              	.LBE762:
 258:Dubby.cpp     ****     
 2393              		.loc 2 258 5 is_stmt 1 view .LVU591
 258:Dubby.cpp     ****     
 2394              		.loc 2 258 66 is_stmt 0 view .LVU592
 2395 028e 039B     		ldr	r3, [sp, #12]
 258:Dubby.cpp     ****     
 2396              		.loc 2 258 49 view .LVU593
 2397 0290 F1EE046A 		vmov.f32	s13, #5.0e+0
 2398 0294 FFEE007A 		vmov.f32	s15, #-1.0e+0
 258:Dubby.cpp     ****     
 2399              		.loc 2 258 84 view .LVU594
 2400 0298 9FED3C7A 		vldr.32	s14, .L183
 258:Dubby.cpp     ****     
 2401              		.loc 2 258 66 view .LVU595
 2402 029c 03F58873 		add	r3, r3, #272
 258:Dubby.cpp     ****     
 2403              		.loc 2 258 32 view .LVU596
 2404 02a0 069D     		ldr	r5, [sp, #24]
 258:Dubby.cpp     ****     
 2405              		.loc 2 258 113 view .LVU597
 2406 02a2 079A     		ldr	r2, [sp, #28]
 258:Dubby.cpp     ****     
 2407              		.loc 2 258 66 view .LVU598
 2408 02a4 00EB8303 		add	r3, r0, r3, lsl #2
 258:Dubby.cpp     ****     
 2409              		.loc 2 258 49 view .LVU599
 2410 02a8 93ED006A 		vldr.32	s12, [r3]
 258:Dubby.cpp     ****     
 2411              		.loc 2 258 34 view .LVU600
 2412 02ac 099B     		ldr	r3, [sp, #36]
 258:Dubby.cpp     ****     
 2413              		.loc 2 258 49 view .LVU601
ARM GAS  /var/folders/1y/_321xjh9623c014x9_qw12rr0000gn/T//cc4eHiNS.s 			page 81


 2414 02ae E6EE267A 		vfma.f32	s15, s12, s13
 2415              	.LVL165:
 2416              	.LBB763:
 2417              	.LBI763:
  75:/Library/DaisyToolchain/0.2.0/arm/arm-none-eabi/include/c++/10.3.1/bits/std_abs.h ****   { return __builtin_fabsf(__x); }
 2418              		.loc 10 75 3 is_stmt 1 view .LVU602
 2419              	.LBB764:
 2420              		.loc 10 76 5 view .LVU603
 2421              		.loc 10 76 5 is_stmt 0 view .LVU604
 2422              	.LBE764:
 2423              	.LBE763:
 258:Dubby.cpp     ****     
 2424              		.loc 2 258 34 view .LVU605
 2425 02b2 D3F82039 		ldr	r3, [r3, #2336]
 258:Dubby.cpp     ****     
 2426              		.loc 2 258 32 view .LVU606
 2427 02b6 1D44     		add	r5, r5, r3
 258:Dubby.cpp     ****     
 2428              		.loc 2 258 113 view .LVU607
 2429 02b8 A2EB030C 		sub	ip, r2, r3
 2430              	.LVL166:
 2431              	.LBB766:
 2432              	.LBB767:
 2433              	.LBB768:
 266:../../libDaisy//src/hid/disp/display.h ****             {
 2434              		.loc 3 266 40 view .LVU608
 2435 02bc 6545     		cmp	r5, ip
 2436              	.LBE768:
 2437              	.LBE767:
 2438              	.LBE766:
 2439              	.LBB777:
 2440              	.LBB765:
 2441              		.loc 10 76 31 view .LVU609
 2442 02be F0EEE77A 		vabs.f32	s15, s15
 2443              	.LBE765:
 2444              	.LBE777:
 258:Dubby.cpp     ****     
 2445              		.loc 2 258 84 view .LVU610
 2446 02c2 67EE877A 		vmul.f32	s15, s15, s14
 258:Dubby.cpp     ****     
 2447              		.loc 2 258 42 view .LVU611
 2448 02c6 FDEEE77A 		vcvt.s32.f32	s15, s15
 2449 02ca 17EE907A 		vmov	r7, s15	@ int
 258:Dubby.cpp     ****     
 2450              		.loc 2 258 93 view .LVU612
 2451 02ce 07F10107 		add	r7, r7, #1
 2452              	.LVL167:
 2453              	.LBB778:
 2454              	.LBI766:
 257:../../libDaisy//src/hid/disp/display.h ****                   uint_fast8_t y1,
 2455              		.loc 3 257 10 is_stmt 1 view .LVU613
 2456              	.LBB776:
 2457              	.LBI767:
 257:../../libDaisy//src/hid/disp/display.h ****                   uint_fast8_t y1,
 2458              		.loc 3 257 10 view .LVU614
 2459              	.LBB775:
 266:../../libDaisy//src/hid/disp/display.h ****             {
ARM GAS  /var/folders/1y/_321xjh9623c014x9_qw12rr0000gn/T//cc4eHiNS.s 			page 82


 2460              		.loc 3 266 40 view .LVU615
 2461 02d2 18D8     		bhi	.L122
 2462              	.LVL168:
 2463              	.L119:
 2464              	.LBB769:
 2465              		.loc 3 268 44 view .LVU616
 2466 02d4 332F     		cmp	r7, #51
 2467 02d6 13DC     		bgt	.L124
 2468              		.loc 3 268 44 is_stmt 0 view .LVU617
 2469 02d8 3A46     		mov	r2, r7
 2470              	.LVL169:
 2471              	.L121:
 2472              	.LBB770:
 2473              	.LBI770:
  42:../../libDaisy//src/hid/disp/oled_display.h ****     {
 2474              		.loc 1 42 10 is_stmt 1 view .LVU618
 2475              	.LBB771:
 2476              	.LBI771:
 352:../../libDaisy//src/dev/oled_ssd130x.h ****     {
 2477              		.loc 4 352 10 view .LVU619
 352:../../libDaisy//src/dev/oled_ssd130x.h ****     {
 2478              		.loc 4 352 10 is_stmt 0 view .LVU620
 2479              	.LBE771:
 2480              	.LBE770:
 2481              		.loc 3 268 17 is_stmt 1 view .LVU621
 2482              		.loc 3 268 44 view .LVU622
 2483              	.LBB774:
 2484              	.LBB773:
 2485              	.LBB772:
 357:../../libDaisy//src/dev/oled_ssd130x.h ****         else
 2486              		.loc 4 357 28 is_stmt 0 view .LVU623
 2487 02da D308     		lsrs	r3, r2, #3
 357:../../libDaisy//src/dev/oled_ssd130x.h ****         else
 2488              		.loc 4 357 54 view .LVU624
 2489 02dc 02F00706 		and	r6, r2, #7
 357:../../libDaisy//src/dev/oled_ssd130x.h ****         else
 2490              		.loc 4 357 48 view .LVU625
 2491 02e0 0121     		movs	r1, #1
 354:../../libDaisy//src/dev/oled_ssd130x.h ****             return;
 2492              		.loc 4 354 9 view .LVU626
 2493 02e2 7F2D     		cmp	r5, #127
 357:../../libDaisy//src/dev/oled_ssd130x.h ****         else
 2494              		.loc 4 357 42 view .LVU627
 2495 02e4 05EBC313 		add	r3, r5, r3, lsl #7
 2496 02e8 0A44     		add	r2, r2, r1
 2497              	.LVL170:
 357:../../libDaisy//src/dev/oled_ssd130x.h ****         else
 2498              		.loc 4 357 48 view .LVU628
 2499 02ea 01FA06F1 		lsl	r1, r1, r6
 357:../../libDaisy//src/dev/oled_ssd130x.h ****         else
 2500              		.loc 4 357 42 view .LVU629
 2501 02ee 0344     		add	r3, r3, r0
 354:../../libDaisy//src/dev/oled_ssd130x.h ****             return;
 2502              		.loc 4 354 9 view .LVU630
 2503 02f0 04D8     		bhi	.L123
 357:../../libDaisy//src/dev/oled_ssd130x.h ****         else
 2504              		.loc 4 357 42 view .LVU631
ARM GAS  /var/folders/1y/_321xjh9623c014x9_qw12rr0000gn/T//cc4eHiNS.s 			page 83


 2505 02f2 93F86464 		ldrb	r6, [r3, #1124]	@ zero_extendqisi2
 2506 02f6 3143     		orrs	r1, r1, r6
 2507 02f8 83F86414 		strb	r1, [r3, #1124]
 2508              	.L123:
 2509              	.LBE772:
 2510              	.LBE773:
 2511              	.LBE774:
 2512              		.loc 3 268 44 view .LVU632
 2513 02fc 342A     		cmp	r2, #52
 2514 02fe ECD1     		bne	.L121
 2515              	.LVL171:
 2516              	.L124:
 2517              		.loc 3 268 44 view .LVU633
 2518              	.LBE769:
 266:../../libDaisy//src/hid/disp/display.h ****             {
 2519              		.loc 3 266 13 is_stmt 1 view .LVU634
 2520 0300 0135     		adds	r5, r5, #1
 2521              	.LVL172:
 266:../../libDaisy//src/hid/disp/display.h ****             {
 2522              		.loc 3 266 40 view .LVU635
 2523 0302 AC45     		cmp	ip, r5
 2524 0304 E6D2     		bcs	.L119
 2525              	.L122:
 266:../../libDaisy//src/hid/disp/display.h ****             {
 2526              		.loc 3 266 40 is_stmt 0 view .LVU636
 2527              	.LBE775:
 2528              	.LBE776:
 2529              	.LBE778:
 2530              	.LBB779:
 2531              	.LBB780:
 2532              	.LBB781:
 2533              	.LBB782:
 2534              	.LBB783:
 124:../../libDaisy//src/dev/oled_ssd130x.h ****         spi_.BlockingTransmit(&cmd, 1);
 2535              		.loc 4 124 24 view .LVU637
 2536 0306 00F58C67 		add	r7, r0, #1120
 2537              	.LVL173:
 124:../../libDaisy//src/dev/oled_ssd130x.h ****         spi_.BlockingTransmit(&cmd, 1);
 2538              		.loc 4 124 24 view .LVU638
 2539 030a 04F10C06 		add	r6, r4, #12
 2540 030e 04F20C49 		addw	r9, r4, #1036
 2541 0312 B025     		movs	r5, #176
 2542              	.LVL174:
 2543              	.L120:
 124:../../libDaisy//src/dev/oled_ssd130x.h ****         spi_.BlockingTransmit(&cmd, 1);
 2544              		.loc 4 124 24 view .LVU639
 2545 0314 4FF00008 		mov	r8, #0
 124:../../libDaisy//src/dev/oled_ssd130x.h ****         spi_.BlockingTransmit(&cmd, 1);
 2546              		.loc 4 124 23 view .LVU640
 2547 0318 3846     		mov	r0, r7
 2548 031a 8DF82F50 		strb	r5, [sp, #47]
 2549              	.LVL175:
 124:../../libDaisy//src/dev/oled_ssd130x.h ****         spi_.BlockingTransmit(&cmd, 1);
 2550              		.loc 4 124 23 view .LVU641
 2551              	.LBE783:
 2552              	.LBI782:
 122:../../libDaisy//src/dev/oled_ssd130x.h ****     {
ARM GAS  /var/folders/1y/_321xjh9623c014x9_qw12rr0000gn/T//cc4eHiNS.s 			page 84


 2553              		.loc 4 122 10 is_stmt 1 view .LVU642
 2554              	.LBB784:
 124:../../libDaisy//src/dev/oled_ssd130x.h ****         spi_.BlockingTransmit(&cmd, 1);
 2555              		.loc 4 124 9 view .LVU643
 2556              	.LBE784:
 2557              	.LBE782:
 2558              		.loc 4 383 22 is_stmt 0 view .LVU644
 2559 031e 0135     		adds	r5, r5, #1
 2560              	.LVL176:
 2561              	.LBB787:
 2562              	.LBB785:
 124:../../libDaisy//src/dev/oled_ssd130x.h ****         spi_.BlockingTransmit(&cmd, 1);
 2563              		.loc 4 124 23 view .LVU645
 2564 0320 4146     		mov	r1, r8
 2565 0322 FFF7FEFF 		bl	dsy_gpio_write
 2566              	.LVL177:
 125:../../libDaisy//src/dev/oled_ssd130x.h ****     };
 2567              		.loc 4 125 9 is_stmt 1 view .LVU646
 125:../../libDaisy//src/dev/oled_ssd130x.h ****     };
 2568              		.loc 4 125 30 is_stmt 0 view .LVU647
 2569 0326 6423     		movs	r3, #100
 2570 0328 0122     		movs	r2, #1
 2571 032a 0DF12F01 		add	r1, sp, #47
 2572 032e 2046     		mov	r0, r4
 2573              	.LBE785:
 2574              	.LBE787:
 2575              		.loc 4 383 22 view .LVU648
 2576 0330 EDB2     		uxtb	r5, r5
 2577              	.LBB788:
 2578              	.LBB786:
 125:../../libDaisy//src/dev/oled_ssd130x.h ****     };
 2579              		.loc 4 125 30 view .LVU649
 2580 0332 FFF7FEFF 		bl	_ZN5daisy9SpiHandle16BlockingTransmitEPhjm
 2581              	.LVL178:
 125:../../libDaisy//src/dev/oled_ssd130x.h ****     };
 2582              		.loc 4 125 30 view .LVU650
 2583              	.LBE786:
 2584              	.LBE788:
 2585              	.LBB789:
 2586              	.LBB790:
 124:../../libDaisy//src/dev/oled_ssd130x.h ****         spi_.BlockingTransmit(&cmd, 1);
 2587              		.loc 4 124 23 view .LVU651
 2588 0336 4146     		mov	r1, r8
 2589 0338 3846     		mov	r0, r7
 2590 033a 8DF82F80 		strb	r8, [sp, #47]
 2591              	.LVL179:
 124:../../libDaisy//src/dev/oled_ssd130x.h ****         spi_.BlockingTransmit(&cmd, 1);
 2592              		.loc 4 124 23 view .LVU652
 2593              	.LBE790:
 2594              	.LBI789:
 122:../../libDaisy//src/dev/oled_ssd130x.h ****     {
 2595              		.loc 4 122 10 is_stmt 1 view .LVU653
 2596              	.LBB791:
 124:../../libDaisy//src/dev/oled_ssd130x.h ****         spi_.BlockingTransmit(&cmd, 1);
 2597              		.loc 4 124 9 view .LVU654
 124:../../libDaisy//src/dev/oled_ssd130x.h ****         spi_.BlockingTransmit(&cmd, 1);
 2598              		.loc 4 124 23 is_stmt 0 view .LVU655
ARM GAS  /var/folders/1y/_321xjh9623c014x9_qw12rr0000gn/T//cc4eHiNS.s 			page 85


 2599 033e FFF7FEFF 		bl	dsy_gpio_write
 2600              	.LVL180:
 125:../../libDaisy//src/dev/oled_ssd130x.h ****     };
 2601              		.loc 4 125 9 is_stmt 1 view .LVU656
 125:../../libDaisy//src/dev/oled_ssd130x.h ****     };
 2602              		.loc 4 125 30 is_stmt 0 view .LVU657
 2603 0342 0122     		movs	r2, #1
 2604 0344 6423     		movs	r3, #100
 2605 0346 0DF12F01 		add	r1, sp, #47
 2606 034a 2046     		mov	r0, r4
 2607 034c FFF7FEFF 		bl	_ZN5daisy9SpiHandle16BlockingTransmitEPhjm
 2608              	.LVL181:
 125:../../libDaisy//src/dev/oled_ssd130x.h ****     };
 2609              		.loc 4 125 30 view .LVU658
 2610 0350 1023     		movs	r3, #16
 2611              	.LBE791:
 2612              	.LBE789:
 2613              	.LBB792:
 2614              	.LBB793:
 124:../../libDaisy//src/dev/oled_ssd130x.h ****         spi_.BlockingTransmit(&cmd, 1);
 2615              		.loc 4 124 23 view .LVU659
 2616 0352 4146     		mov	r1, r8
 2617 0354 3846     		mov	r0, r7
 2618 0356 8DF82F30 		strb	r3, [sp, #47]
 2619              	.LVL182:
 124:../../libDaisy//src/dev/oled_ssd130x.h ****         spi_.BlockingTransmit(&cmd, 1);
 2620              		.loc 4 124 23 view .LVU660
 2621              	.LBE793:
 2622              	.LBI792:
 122:../../libDaisy//src/dev/oled_ssd130x.h ****     {
 2623              		.loc 4 122 10 is_stmt 1 view .LVU661
 2624              	.LBB794:
 124:../../libDaisy//src/dev/oled_ssd130x.h ****         spi_.BlockingTransmit(&cmd, 1);
 2625              		.loc 4 124 9 view .LVU662
 124:../../libDaisy//src/dev/oled_ssd130x.h ****         spi_.BlockingTransmit(&cmd, 1);
 2626              		.loc 4 124 23 is_stmt 0 view .LVU663
 2627 035a FFF7FEFF 		bl	dsy_gpio_write
 2628              	.LVL183:
 125:../../libDaisy//src/dev/oled_ssd130x.h ****     };
 2629              		.loc 4 125 9 is_stmt 1 view .LVU664
 125:../../libDaisy//src/dev/oled_ssd130x.h ****     };
 2630              		.loc 4 125 30 is_stmt 0 view .LVU665
 2631 035e 6423     		movs	r3, #100
 2632 0360 0122     		movs	r2, #1
 2633 0362 0DF12F01 		add	r1, sp, #47
 2634 0366 2046     		mov	r0, r4
 2635 0368 FFF7FEFF 		bl	_ZN5daisy9SpiHandle16BlockingTransmitEPhjm
 2636              	.LVL184:
 125:../../libDaisy//src/dev/oled_ssd130x.h ****     };
 2637              		.loc 4 125 30 view .LVU666
 2638              	.LBE794:
 2639              	.LBE792:
 2640              	.LBB795:
 2641              	.LBI795:
 128:../../libDaisy//src/dev/oled_ssd130x.h ****     {
 2642              		.loc 4 128 10 is_stmt 1 view .LVU667
 2643              	.LBB796:
ARM GAS  /var/folders/1y/_321xjh9623c014x9_qw12rr0000gn/T//cc4eHiNS.s 			page 86


 130:../../libDaisy//src/dev/oled_ssd130x.h ****         spi_.BlockingTransmit(buff, size);
 2644              		.loc 4 130 9 view .LVU668
 130:../../libDaisy//src/dev/oled_ssd130x.h ****         spi_.BlockingTransmit(buff, size);
 2645              		.loc 4 130 23 is_stmt 0 view .LVU669
 2646 036c 0121     		movs	r1, #1
 2647 036e 3846     		mov	r0, r7
 2648 0370 FFF7FEFF 		bl	dsy_gpio_write
 2649              	.LVL185:
 131:../../libDaisy//src/dev/oled_ssd130x.h ****     };
 2650              		.loc 4 131 9 is_stmt 1 view .LVU670
 131:../../libDaisy//src/dev/oled_ssd130x.h ****     };
 2651              		.loc 4 131 30 is_stmt 0 view .LVU671
 2652 0374 8022     		movs	r2, #128
 2653 0376 3146     		mov	r1, r6
 2654 0378 6423     		movs	r3, #100
 2655              	.LBE796:
 2656              	.LBE795:
 2657              		.loc 4 383 22 view .LVU672
 2658 037a 1644     		add	r6, r6, r2
 2659              	.LVL186:
 2660              	.LBB798:
 2661              	.LBB797:
 131:../../libDaisy//src/dev/oled_ssd130x.h ****     };
 2662              		.loc 4 131 30 view .LVU673
 2663 037c 2046     		mov	r0, r4
 2664 037e FFF7FEFF 		bl	_ZN5daisy9SpiHandle16BlockingTransmitEPhjm
 2665              	.LVL187:
 131:../../libDaisy//src/dev/oled_ssd130x.h ****     };
 2666              		.loc 4 131 30 view .LVU674
 2667              	.LBE797:
 2668              	.LBE798:
 2669              		.loc 4 383 9 is_stmt 1 view .LVU675
 2670              		.loc 4 383 22 view .LVU676
 2671 0382 B145     		cmp	r9, r6
 2672 0384 C6D1     		bne	.L120
 2673              	.LBE781:
 2674              	.LBE780:
 2675              	.LBE779:
 261:Dubby.cpp     **** 
 2676              		.loc 2 261 1 is_stmt 0 view .LVU677
 2677 0386 0DB0     		add	sp, sp, #52
 2678              		.cfi_remember_state
 2679              		.cfi_def_cfa_offset 36
 2680              		@ sp needed
 2681 0388 BDE8F08F 		pop	{r4, r5, r6, r7, r8, r9, r10, fp, pc}
 2682              	.LVL188:
 2683              	.L184:
 261:Dubby.cpp     **** 
 2684              		.loc 2 261 1 view .LVU678
 2685              		.align	2
 2686              	.L183:
 2687 038c 00004C42 		.word	1112276992
 2688              	.LVL189:
 2689              	.L110:
 2690              		.cfi_restore_state
 2691              	.LBB799:
 2692              	.LBB753:
ARM GAS  /var/folders/1y/_321xjh9623c014x9_qw12rr0000gn/T//cc4eHiNS.s 			page 87


 2693              	.LBB751:
 2694              	.LBB749:
  42:../../libDaisy//src/hid/disp/oled_display.h ****     {
 2695              		.loc 1 42 10 is_stmt 1 view .LVU679
 2696              	.LBB740:
 352:../../libDaisy//src/dev/oled_ssd130x.h ****     {
 2697              		.loc 4 352 10 view .LVU680
 2698              	.LBB737:
 354:../../libDaisy//src/dev/oled_ssd130x.h ****             return;
 2699              		.loc 4 354 9 is_stmt 0 view .LVU681
 2700 0390 7F2D     		cmp	r5, #127
 2701 0392 38D8     		bhi	.L136
 2702 0394 059B     		ldr	r3, [sp, #20]
 2703 0396 B3BB     		cbnz	r3, .L136
 2704              	.LBE737:
 2705              	.LBE740:
 2706              	.LBE749:
 230:../../libDaisy//src/hid/disp/display.h ****         int_fast16_t error  = deltaX - deltaY;
 2707              		.loc 3 230 42 view .LVU682
 2708 0398 4FF0010A 		mov	r10, #1
 2709              	.LVL190:
 2710              	.L126:
 2711              	.LBB750:
 2712              	.LBB741:
 2713              	.LBB738:
 357:../../libDaisy//src/dev/oled_ssd130x.h ****         else
 2714              		.loc 4 357 28 view .LVU683
 2715 039c FB08     		lsrs	r3, r7, #3
 357:../../libDaisy//src/dev/oled_ssd130x.h ****         else
 2716              		.loc 4 357 54 view .LVU684
 2717 039e 07F00701 		and	r1, r7, #7
 357:../../libDaisy//src/dev/oled_ssd130x.h ****         else
 2718              		.loc 4 357 48 view .LVU685
 2719 03a2 0122     		movs	r2, #1
 2720              	.LVL191:
 357:../../libDaisy//src/dev/oled_ssd130x.h ****         else
 2721              		.loc 4 357 42 view .LVU686
 2722 03a4 05EBC313 		add	r3, r5, r3, lsl #7
 357:../../libDaisy//src/dev/oled_ssd130x.h ****         else
 2723              		.loc 4 357 48 view .LVU687
 2724 03a8 8A40     		lsls	r2, r2, r1
 357:../../libDaisy//src/dev/oled_ssd130x.h ****         else
 2725              		.loc 4 357 42 view .LVU688
 2726 03aa 0344     		add	r3, r3, r0
 2727 03ac 93F86414 		ldrb	r1, [r3, #1124]	@ zero_extendqisi2
 2728 03b0 0A43     		orrs	r2, r2, r1
 2729 03b2 83F86424 		strb	r2, [r3, #1124]
 2730 03b6 41E7     		b	.L111
 2731              	.LVL192:
 2732              	.L182:
 357:../../libDaisy//src/dev/oled_ssd130x.h ****         else
 2733              		.loc 4 357 42 view .LVU689
 2734              	.LBE738:
 2735              	.LBE741:
 2736              	.LBE750:
 2737              	.LBE751:
 2738              	.LBE753:
ARM GAS  /var/folders/1y/_321xjh9623c014x9_qw12rr0000gn/T//cc4eHiNS.s 			page 88


 2739              	.LBB754:
 2740              	.LBB705:
 2741              	.LBB699:
  42:../../libDaisy//src/hid/disp/oled_display.h ****     {
 2742              		.loc 1 42 10 is_stmt 1 view .LVU690
 2743              	.LBB693:
 2744              	.LBB689:
 2745              	.LBB685:
 354:../../libDaisy//src/dev/oled_ssd130x.h ****             return;
 2746              		.loc 4 354 14 is_stmt 0 view .LVU691
 2747 03b8 7F2A     		cmp	r2, #127
 2748              	.LBE685:
 2749              	.LBE689:
 2750              		.loc 1 44 26 view .LVU692
 2751 03ba 00F58B64 		add	r4, r0, #1112
 2752              	.LVL193:
 2753              	.LBB690:
 352:../../libDaisy//src/dev/oled_ssd130x.h ****     {
 2754              		.loc 4 352 10 is_stmt 1 view .LVU693
 2755              	.LBE690:
 2756              	.LBE693:
 2757              	.LBE699:
 229:../../libDaisy//src/hid/disp/display.h ****         int_fast16_t signY  = ((y1 < y2) ? 1 : -1);
 2758              		.loc 3 229 42 is_stmt 0 view .LVU694
 2759 03be 4FF0FF3B 		mov	fp, #-1
 2760              	.LBB700:
 2761              	.LBB694:
 2762              	.LBB691:
 2763              	.LBB686:
 354:../../libDaisy//src/dev/oled_ssd130x.h ****             return;
 2764              		.loc 4 354 14 view .LVU695
 2765 03c2 94BF     		ite	ls
 2766 03c4 0023     		movls	r3, #0
 2767 03c6 0123     		movhi	r3, #1
 354:../../libDaisy//src/dev/oled_ssd130x.h ****             return;
 2768              		.loc 4 354 28 view .LVU696
 2769 03c8 3F2F     		cmp	r7, #63
 354:../../libDaisy//src/dev/oled_ssd130x.h ****             return;
 2770              		.loc 4 354 14 view .LVU697
 2771 03ca 0493     		str	r3, [sp, #16]
 354:../../libDaisy//src/dev/oled_ssd130x.h ****             return;
 2772              		.loc 4 354 28 view .LVU698
 2773 03cc 94BF     		ite	ls
 2774 03ce 0021     		movls	r1, #0
 2775 03d0 0121     		movhi	r1, #1
 2776 03d2 0591     		str	r1, [sp, #20]
 354:../../libDaisy//src/dev/oled_ssd130x.h ****             return;
 2777              		.loc 4 354 9 view .LVU699
 2778 03d4 8BB9     		cbnz	r3, .L86
 2779 03d6 81B9     		cbnz	r1, .L86
 2780              	.LVL194:
 2781              	.L125:
 357:../../libDaisy//src/dev/oled_ssd130x.h ****         else
 2782              		.loc 4 357 28 view .LVU700
 2783 03d8 FB08     		lsrs	r3, r7, #3
 357:../../libDaisy//src/dev/oled_ssd130x.h ****         else
 2784              		.loc 4 357 48 view .LVU701
ARM GAS  /var/folders/1y/_321xjh9623c014x9_qw12rr0000gn/T//cc4eHiNS.s 			page 89


 2785 03da 0121     		movs	r1, #1
 357:../../libDaisy//src/dev/oled_ssd130x.h ****         else
 2786              		.loc 4 357 54 view .LVU702
 2787 03dc 07F00706 		and	r6, r7, #7
 357:../../libDaisy//src/dev/oled_ssd130x.h ****         else
 2788              		.loc 4 357 42 view .LVU703
 2789 03e0 02EBC313 		add	r3, r2, r3, lsl #7
 357:../../libDaisy//src/dev/oled_ssd130x.h ****         else
 2790              		.loc 4 357 48 view .LVU704
 2791 03e4 01FA06F6 		lsl	r6, r1, r6
 357:../../libDaisy//src/dev/oled_ssd130x.h ****         else
 2792              		.loc 4 357 42 view .LVU705
 2793 03e8 0344     		add	r3, r3, r0
 2794 03ea 93F86414 		ldrb	r1, [r3, #1124]	@ zero_extendqisi2
 2795 03ee 3143     		orrs	r1, r1, r6
 2796 03f0 83F86414 		strb	r1, [r3, #1124]
 2797 03f4 0023     		movs	r3, #0
 2798 03f6 CDE90433 		strd	r3, r3, [sp, #16]
 2799              	.L86:
 2800              	.LVL195:
 357:../../libDaisy//src/dev/oled_ssd130x.h ****         else
 2801              		.loc 4 357 42 view .LVU706
 2802              	.LBE686:
 2803              	.LBE691:
 2804              	.LBE694:
 2805              	.LBE700:
 239:../../libDaisy//src/hid/disp/display.h ****         {
 2806              		.loc 3 239 26 is_stmt 1 view .LVU707
 2807 03fa 9542     		cmp	r5, r2
 2808 03fc 7FF460AE 		bne	.L88
 239:../../libDaisy//src/hid/disp/display.h ****         {
 2809              		.loc 3 239 19 is_stmt 0 view .LVU708
 2810 0400 0123     		movs	r3, #1
 2811 0402 0893     		str	r3, [sp, #32]
 2812 0404 82E6     		b	.L87
 2813              	.LVL196:
 2814              	.L136:
 239:../../libDaisy//src/hid/disp/display.h ****         {
 2815              		.loc 3 239 19 view .LVU709
 2816              	.LBE705:
 2817              	.LBE754:
 2818              	.LBB755:
 2819              	.LBB752:
 231:../../libDaisy//src/hid/disp/display.h ****         int_fast16_t error2;
 2820              		.loc 3 231 22 view .LVU710
 2821 0406 B146     		mov	r9, r6
 230:../../libDaisy//src/hid/disp/display.h ****         int_fast16_t error  = deltaX - deltaY;
 2822              		.loc 3 230 42 view .LVU711
 2823 0408 4FF0010A 		mov	r10, #1
 2824 040c 19E7     		b	.L113
 2825              	.LBE752:
 2826              	.LBE755:
 2827              	.LBE799:
 2828              		.cfi_endproc
 2829              	.LFE2590:
 2831 040e 00BF     		.section	.text._ZN5daisy5Dubby15UpdateMixerPaneEv,"ax",%progbits
 2832              		.align	1
ARM GAS  /var/folders/1y/_321xjh9623c014x9_qw12rr0000gn/T//cc4eHiNS.s 			page 90


 2833              		.p2align 2,,3
 2834              		.global	_ZN5daisy5Dubby15UpdateMixerPaneEv
 2835              		.syntax unified
 2836              		.thumb
 2837              		.thumb_func
 2839              	_ZN5daisy5Dubby15UpdateMixerPaneEv:
 2840              	.LVL197:
 2841              	.LFB2588:
 226:Dubby.cpp     ****     if(seed.system.GetNow() - screen_update_last_ > screen_update_period_)
 2842              		.loc 2 226 1 is_stmt 1 view -0
 2843              		.cfi_startproc
 2844              		@ args = 0, pretend = 0, frame = 0
 2845              		@ frame_needed = 0, uses_anonymous_args = 0
 227:Dubby.cpp     ****     {
 2846              		.loc 2 227 5 view .LVU713
 226:Dubby.cpp     ****     if(seed.system.GetNow() - screen_update_last_ > screen_update_period_)
 2847              		.loc 2 226 1 is_stmt 0 view .LVU714
 2848 0000 70B5     		push	{r4, r5, r6, lr}
 2849              		.cfi_def_cfa_offset 16
 2850              		.cfi_offset 4, -16
 2851              		.cfi_offset 5, -12
 2852              		.cfi_offset 6, -8
 2853              		.cfi_offset 14, -4
 226:Dubby.cpp     ****     if(seed.system.GetNow() - screen_update_last_ > screen_update_period_)
 2854              		.loc 2 226 1 view .LVU715
 2855 0002 0546     		mov	r5, r0
 2856              	.LBB807:
 227:Dubby.cpp     ****     {
 2857              		.loc 2 227 26 view .LVU716
 2858 0004 FFF7FEFF 		bl	_ZN5daisy6System6GetNowEv
 2859              	.LVL198:
 227:Dubby.cpp     ****     {
 2860              		.loc 2 227 31 view .LVU717
 2861 0008 05F51046 		add	r6, r5, #36864
 227:Dubby.cpp     ****     {
 2862              		.loc 2 227 29 view .LVU718
 2863 000c D6F82829 		ldr	r2, [r6, #2344]
 227:Dubby.cpp     ****     {
 2864              		.loc 2 227 5 view .LVU719
 2865 0010 D6F82C39 		ldr	r3, [r6, #2348]
 227:Dubby.cpp     ****     {
 2866              		.loc 2 227 29 view .LVU720
 2867 0014 801A     		subs	r0, r0, r2
 227:Dubby.cpp     ****     {
 2868              		.loc 2 227 5 view .LVU721
 2869 0016 9842     		cmp	r0, r3
 2870 0018 00D8     		bhi	.L190
 2871              	.LBE807:
 232:Dubby.cpp     **** 
 2872              		.loc 2 232 1 view .LVU722
 2873 001a 70BD     		pop	{r4, r5, r6, pc}
 2874              	.LVL199:
 2875              	.L190:
 2876              	.LBB808:
 2877              	.LBI808:
 225:Dubby.cpp     **** {
 2878              		.loc 2 225 6 is_stmt 1 view .LVU723
ARM GAS  /var/folders/1y/_321xjh9623c014x9_qw12rr0000gn/T//cc4eHiNS.s 			page 91


 2879              	.LBB809:
 229:Dubby.cpp     ****         for (int i = 0; i < 4; i++) UpdateBar(i);
 2880              		.loc 2 229 9 view .LVU724
 2881              	.LBB810:
 230:Dubby.cpp     ****     }
 2882              		.loc 2 230 18 is_stmt 0 view .LVU725
 2883 001c 0024     		movs	r4, #0
 2884              	.LBE810:
 229:Dubby.cpp     ****         for (int i = 0; i < 4; i++) UpdateBar(i);
 2885              		.loc 2 229 49 view .LVU726
 2886 001e FFF7FEFF 		bl	_ZN5daisy6System6GetNowEv
 2887              	.LVL200:
 229:Dubby.cpp     ****         for (int i = 0; i < 4; i++) UpdateBar(i);
 2888              		.loc 2 229 29 view .LVU727
 2889 0022 C6F82809 		str	r0, [r6, #2344]
 230:Dubby.cpp     ****     }
 2890              		.loc 2 230 9 is_stmt 1 view .LVU728
 2891              	.LVL201:
 2892              	.LBB811:
 230:Dubby.cpp     ****     }
 2893              		.loc 2 230 27 view .LVU729
 2894              	.L187:
 230:Dubby.cpp     ****     }
 2895              		.loc 2 230 37 view .LVU730
 230:Dubby.cpp     ****     }
 2896              		.loc 2 230 46 is_stmt 0 view .LVU731
 2897 0026 2146     		mov	r1, r4
 230:Dubby.cpp     ****     }
 2898              		.loc 2 230 9 view .LVU732
 2899 0028 0134     		adds	r4, r4, #1
 2900              	.LVL202:
 230:Dubby.cpp     ****     }
 2901              		.loc 2 230 46 view .LVU733
 2902 002a 2846     		mov	r0, r5
 2903 002c FFF7FEFF 		bl	_ZN5daisy5Dubby9UpdateBarEi
 2904              	.LVL203:
 230:Dubby.cpp     ****     }
 2905              		.loc 2 230 9 is_stmt 1 view .LVU734
 230:Dubby.cpp     ****     }
 2906              		.loc 2 230 27 view .LVU735
 2907 0030 042C     		cmp	r4, #4
 2908 0032 F8D1     		bne	.L187
 2909              	.LBE811:
 2910              	.LBE809:
 2911              	.LBE808:
 232:Dubby.cpp     **** 
 2912              		.loc 2 232 1 is_stmt 0 view .LVU736
 2913 0034 70BD     		pop	{r4, r5, r6, pc}
 232:Dubby.cpp     **** 
 2914              		.loc 2 232 1 view .LVU737
 2915              		.cfi_endproc
 2916              	.LFE2588:
 2918 0036 00BF     		.section	.text._ZN5daisy5Dubby11RenderScopeEv,"ax",%progbits
 2919              		.align	1
 2920              		.p2align 2,,3
 2921              		.global	_ZN5daisy5Dubby11RenderScopeEv
 2922              		.syntax unified
ARM GAS  /var/folders/1y/_321xjh9623c014x9_qw12rr0000gn/T//cc4eHiNS.s 			page 92


 2923              		.thumb
 2924              		.thumb_func
 2926              	_ZN5daisy5Dubby11RenderScopeEv:
 2927              	.LVL204:
 2928              	.LFB2591:
 264:Dubby.cpp     ****     if(seed.system.GetNow() - screen_update_last_ > screen_update_period_)
 2929              		.loc 2 264 1 is_stmt 1 view -0
 2930              		.cfi_startproc
 2931              		@ args = 0, pretend = 0, frame = 0
 2932              		@ frame_needed = 0, uses_anonymous_args = 0
 265:Dubby.cpp     ****     {
 2933              		.loc 2 265 5 view .LVU739
 264:Dubby.cpp     ****     if(seed.system.GetNow() - screen_update_last_ > screen_update_period_)
 2934              		.loc 2 264 1 is_stmt 0 view .LVU740
 2935 0000 10B5     		push	{r4, lr}
 2936              		.cfi_def_cfa_offset 8
 2937              		.cfi_offset 4, -8
 2938              		.cfi_offset 14, -4
 264:Dubby.cpp     ****     if(seed.system.GetNow() - screen_update_last_ > screen_update_period_)
 2939              		.loc 2 264 1 view .LVU741
 2940 0002 0446     		mov	r4, r0
 2941              	.LBB813:
 265:Dubby.cpp     ****     {
 2942              		.loc 2 265 26 view .LVU742
 2943 0004 FFF7FEFF 		bl	_ZN5daisy6System6GetNowEv
 2944              	.LVL205:
 265:Dubby.cpp     ****     {
 2945              		.loc 2 265 31 view .LVU743
 2946 0008 04F51043 		add	r3, r4, #36864
 265:Dubby.cpp     ****     {
 2947              		.loc 2 265 29 view .LVU744
 2948 000c D3F82829 		ldr	r2, [r3, #2344]
 265:Dubby.cpp     ****     {
 2949              		.loc 2 265 5 view .LVU745
 2950 0010 D3F82C39 		ldr	r3, [r3, #2348]
 265:Dubby.cpp     ****     {
 2951              		.loc 2 265 29 view .LVU746
 2952 0014 801A     		subs	r0, r0, r2
 265:Dubby.cpp     ****     {
 2953              		.loc 2 265 5 view .LVU747
 2954 0016 9842     		cmp	r0, r3
 2955 0018 00D8     		bhi	.L194
 2956              	.LBE813:
 288:Dubby.cpp     **** 
 2957              		.loc 2 288 1 view .LVU748
 2958 001a 10BD     		pop	{r4, pc}
 2959              	.LVL206:
 2960              	.L194:
 288:Dubby.cpp     **** 
 2961              		.loc 2 288 1 view .LVU749
 2962 001c 2046     		mov	r0, r4
 2963 001e BDE81040 		pop	{r4, lr}
 2964              		.cfi_restore 14
 2965              		.cfi_restore 4
 2966              		.cfi_def_cfa_offset 0
 2967              	.LVL207:
 288:Dubby.cpp     **** 
ARM GAS  /var/folders/1y/_321xjh9623c014x9_qw12rr0000gn/T//cc4eHiNS.s 			page 93


 2968              		.loc 2 288 1 view .LVU750
 2969 0022 FFF7FEBF 		b	_ZN5daisy5Dubby11RenderScopeEv.part.0
 2970              	.LVL208:
 288:Dubby.cpp     **** 
 2971              		.loc 2 288 1 view .LVU751
 2972              		.cfi_endproc
 2973              	.LFE2591:
 2975 0026 00BF     		.section	.text._ZN5daisy5Dubby11InitEncoderEv,"ax",%progbits
 2976              		.align	1
 2977              		.p2align 2,,3
 2978              		.global	_ZN5daisy5Dubby11InitEncoderEv
 2979              		.syntax unified
 2980              		.thumb
 2981              		.thumb_func
 2983              	_ZN5daisy5Dubby11InitEncoderEv:
 2984              	.LVL209:
 2985              	.LFB2595:
 329:Dubby.cpp     ****     encoder.Init(seed.GetPin(PIN_ENC_A),
 2986              		.loc 2 329 1 is_stmt 1 view -0
 2987              		.cfi_startproc
 2988              		@ args = 0, pretend = 0, frame = 16
 2989              		@ frame_needed = 0, uses_anonymous_args = 0
 330:Dubby.cpp     ****                 seed.GetPin(PIN_ENC_B),
 2990              		.loc 2 330 5 view .LVU753
 329:Dubby.cpp     ****     encoder.Init(seed.GetPin(PIN_ENC_A),
 2991              		.loc 2 329 1 is_stmt 0 view .LVU754
 2992 0000 10B5     		push	{r4, lr}
 2993              		.cfi_def_cfa_offset 8
 2994              		.cfi_offset 4, -8
 2995              		.cfi_offset 14, -4
 2996 0002 0446     		mov	r4, r0
 2997 0004 84B0     		sub	sp, sp, #16
 2998              		.cfi_def_cfa_offset 24
 330:Dubby.cpp     ****                 seed.GetPin(PIN_ENC_B),
 2999              		.loc 2 330 17 view .LVU755
 3000 0006 0620     		movs	r0, #6
 3001              	.LVL210:
 330:Dubby.cpp     ****                 seed.GetPin(PIN_ENC_B),
 3002              		.loc 2 330 17 view .LVU756
 3003 0008 FFF7FEFF 		bl	_ZN5daisy9DaisySeed6GetPinEh
 3004              	.LVL211:
 3005 000c 0346     		mov	r3, r0	@ movhi
 3006 000e 0520     		movs	r0, #5
 3007 0010 ADF80430 		strh	r3, [sp, #4]	@ movhi
 3008 0014 FFF7FEFF 		bl	_ZN5daisy9DaisySeed6GetPinEh
 3009              	.LVL212:
 3010 0018 0346     		mov	r3, r0	@ movhi
 3011 001a 0420     		movs	r0, #4
 3012 001c ADF80830 		strh	r3, [sp, #8]	@ movhi
 3013 0020 FFF7FEFF 		bl	_ZN5daisy9DaisySeed6GetPinEh
 3014              	.LVL213:
 3015 0024 ADF80C00 		strh	r0, [sp, #12]	@ movhi
 3016 0028 04F1F400 		add	r0, r4, #244
 3017 002c 9FED040A 		vldr.32	s0, .L197
 3018 0030 039B     		ldr	r3, [sp, #12]
 3019 0032 DDE90112 		ldrd	r1, r2, [sp, #4]
 333:Dubby.cpp     **** 
ARM GAS  /var/folders/1y/_321xjh9623c014x9_qw12rr0000gn/T//cc4eHiNS.s 			page 94


 3020              		.loc 2 333 1 view .LVU757
 3021 0036 04B0     		add	sp, sp, #16
 3022              		.cfi_def_cfa_offset 8
 3023              		@ sp needed
 3024 0038 BDE81040 		pop	{r4, lr}
 3025              		.cfi_restore 14
 3026              		.cfi_restore 4
 3027              		.cfi_def_cfa_offset 0
 3028              	.LVL214:
 330:Dubby.cpp     ****                 seed.GetPin(PIN_ENC_B),
 3029              		.loc 2 330 17 view .LVU758
 3030 003c FFF7FEBF 		b	_ZN5daisy7Encoder4InitE12dsy_gpio_pinS1_S1_f
 3031              	.LVL215:
 3032              	.L198:
 330:Dubby.cpp     ****                 seed.GetPin(PIN_ENC_B),
 3033              		.loc 2 330 17 view .LVU759
 3034              		.align	2
 3035              	.L197:
 3036 0040 00000000 		.word	0
 3037              		.cfi_endproc
 3038              	.LFE2595:
 3040              		.section	.text._ZN5daisy5Dubby18ProcessAllControlsEv,"ax",%progbits
 3041              		.align	1
 3042              		.p2align 2,,3
 3043              		.global	_ZN5daisy5Dubby18ProcessAllControlsEv
 3044              		.syntax unified
 3045              		.thumb
 3046              		.thumb_func
 3048              	_ZN5daisy5Dubby18ProcessAllControlsEv:
 3049              	.LVL216:
 3050              	.LFB2596:
 336:Dubby.cpp     ****     ProcessAnalogControls();
 3051              		.loc 2 336 1 is_stmt 1 view -0
 3052              		.cfi_startproc
 3053              		@ args = 0, pretend = 0, frame = 0
 3054              		@ frame_needed = 0, uses_anonymous_args = 0
 337:Dubby.cpp     ****     ProcessDigitalControls();
 3055              		.loc 2 337 5 view .LVU761
 336:Dubby.cpp     ****     ProcessAnalogControls();
 3056              		.loc 2 336 1 is_stmt 0 view .LVU762
 3057 0000 70B5     		push	{r4, r5, r6, lr}
 3058              		.cfi_def_cfa_offset 16
 3059              		.cfi_offset 4, -16
 3060              		.cfi_offset 5, -12
 3061              		.cfi_offset 6, -8
 3062              		.cfi_offset 14, -4
 336:Dubby.cpp     ****     ProcessAnalogControls();
 3063              		.loc 2 336 1 view .LVU763
 3064 0002 0546     		mov	r5, r0
 3065              	.LVL217:
 3066              	.LBB819:
 3067              	.LBI819:
 341:Dubby.cpp     **** {
 3068              		.loc 2 341 6 is_stmt 1 view .LVU764
 3069              	.LBE819:
 343:Dubby.cpp     ****         analogInputs[i].Process();
 3070              		.loc 2 343 5 view .LVU765
ARM GAS  /var/folders/1y/_321xjh9623c014x9_qw12rr0000gn/T//cc4eHiNS.s 			page 95


 3071              	.LBB821:
 3072              	.LBB820:
 343:Dubby.cpp     ****         analogInputs[i].Process();
 3073              		.loc 2 343 25 view .LVU766
 3074 0004 00F58E74 		add	r4, r0, #284
 3075 0008 00F5EE76 		add	r6, r0, #476
 3076              	.LVL218:
 3077              	.L200:
 344:Dubby.cpp     **** }
 3078              		.loc 2 344 9 view .LVU767
 344:Dubby.cpp     **** }
 3079              		.loc 2 344 32 is_stmt 0 view .LVU768
 3080 000c 2046     		mov	r0, r4
 343:Dubby.cpp     ****         analogInputs[i].Process();
 3081              		.loc 2 343 25 view .LVU769
 3082 000e 2034     		adds	r4, r4, #32
 344:Dubby.cpp     **** }
 3083              		.loc 2 344 32 view .LVU770
 3084 0010 FFF7FEFF 		bl	_ZN5daisy13AnalogControl7ProcessEv
 3085              	.LVL219:
 343:Dubby.cpp     ****         analogInputs[i].Process();
 3086              		.loc 2 343 5 is_stmt 1 view .LVU771
 343:Dubby.cpp     ****         analogInputs[i].Process();
 3087              		.loc 2 343 25 view .LVU772
 3088 0014 B442     		cmp	r4, r6
 3089 0016 F9D1     		bne	.L200
 3090              	.LVL220:
 343:Dubby.cpp     ****         analogInputs[i].Process();
 3091              		.loc 2 343 25 is_stmt 0 view .LVU773
 3092              	.LBE820:
 3093              	.LBE821:
 338:Dubby.cpp     **** }
 3094              		.loc 2 338 5 is_stmt 1 view .LVU774
 3095              	.LBB822:
 3096              	.LBI822:
 347:Dubby.cpp     **** {
 3097              		.loc 2 347 6 view .LVU775
 3098              	.LBB823:
 349:Dubby.cpp     **** 
 3099              		.loc 2 349 5 view .LVU776
 349:Dubby.cpp     **** 
 3100              		.loc 2 349 21 is_stmt 0 view .LVU777
 3101 0018 05F1F400 		add	r0, r5, #244
 3102 001c FFF7FEFF 		bl	_ZN5daisy7Encoder8DebounceEv
 3103              	.LVL221:
 351:Dubby.cpp     **** }
 3104              		.loc 2 351 5 is_stmt 1 view .LVU778
 3105              	.LBB824:
 351:Dubby.cpp     **** }
 3106              		.loc 2 351 23 view .LVU779
 351:Dubby.cpp     **** }
 3107              		.loc 2 351 33 view .LVU780
 351:Dubby.cpp     **** }
 3108              		.loc 2 351 52 is_stmt 0 view .LVU781
 3109 0020 05F50070 		add	r0, r5, #512
 3110 0024 FFF7FEFF 		bl	_ZN5daisy6Switch8DebounceEv
 3111              	.LVL222:
ARM GAS  /var/folders/1y/_321xjh9623c014x9_qw12rr0000gn/T//cc4eHiNS.s 			page 96


 351:Dubby.cpp     **** }
 3112              		.loc 2 351 5 is_stmt 1 view .LVU782
 351:Dubby.cpp     **** }
 3113              		.loc 2 351 23 view .LVU783
 351:Dubby.cpp     **** }
 3114              		.loc 2 351 33 view .LVU784
 351:Dubby.cpp     **** }
 3115              		.loc 2 351 52 is_stmt 0 view .LVU785
 3116 0028 05F50470 		add	r0, r5, #528
 3117 002c FFF7FEFF 		bl	_ZN5daisy6Switch8DebounceEv
 3118              	.LVL223:
 351:Dubby.cpp     **** }
 3119              		.loc 2 351 5 is_stmt 1 view .LVU786
 351:Dubby.cpp     **** }
 3120              		.loc 2 351 23 view .LVU787
 351:Dubby.cpp     **** }
 3121              		.loc 2 351 33 view .LVU788
 351:Dubby.cpp     **** }
 3122              		.loc 2 351 52 is_stmt 0 view .LVU789
 3123 0030 05F50870 		add	r0, r5, #544
 3124 0034 FFF7FEFF 		bl	_ZN5daisy6Switch8DebounceEv
 3125              	.LVL224:
 351:Dubby.cpp     **** }
 3126              		.loc 2 351 5 is_stmt 1 view .LVU790
 351:Dubby.cpp     **** }
 3127              		.loc 2 351 23 view .LVU791
 351:Dubby.cpp     **** }
 3128              		.loc 2 351 33 view .LVU792
 351:Dubby.cpp     **** }
 3129              		.loc 2 351 52 is_stmt 0 view .LVU793
 3130 0038 05F50C70 		add	r0, r5, #560
 3131              	.LBE824:
 3132              	.LBE823:
 3133              	.LBE822:
 339:Dubby.cpp     **** 
 3134              		.loc 2 339 1 view .LVU794
 3135 003c BDE87040 		pop	{r4, r5, r6, lr}
 3136              		.cfi_restore 14
 3137              		.cfi_restore 6
 3138              		.cfi_restore 5
 3139              		.cfi_restore 4
 3140              		.cfi_def_cfa_offset 0
 3141              	.LVL225:
 3142              	.LBB827:
 3143              	.LBB826:
 3144              	.LBB825:
 351:Dubby.cpp     **** }
 3145              		.loc 2 351 52 view .LVU795
 3146 0040 FFF7FEBF 		b	_ZN5daisy6Switch8DebounceEv
 3147              	.LVL226:
 351:Dubby.cpp     **** }
 3148              		.loc 2 351 52 view .LVU796
 3149              	.LBE825:
 3150              	.LBE826:
 3151              	.LBE827:
 3152              		.cfi_endproc
 3153              	.LFE2596:
ARM GAS  /var/folders/1y/_321xjh9623c014x9_qw12rr0000gn/T//cc4eHiNS.s 			page 97


 3155              		.section	.text._ZN5daisy5Dubby21ProcessAnalogControlsEv,"ax",%progbits
 3156              		.align	1
 3157              		.p2align 2,,3
 3158              		.global	_ZN5daisy5Dubby21ProcessAnalogControlsEv
 3159              		.syntax unified
 3160              		.thumb
 3161              		.thumb_func
 3163              	_ZN5daisy5Dubby21ProcessAnalogControlsEv:
 3164              	.LVL227:
 3165              	.LFB2597:
 342:Dubby.cpp     ****     for(size_t i = 0; i < CTRL_LAST; i++)
 3166              		.loc 2 342 1 is_stmt 1 view -0
 3167              		.cfi_startproc
 3168              		@ args = 0, pretend = 0, frame = 0
 3169              		@ frame_needed = 0, uses_anonymous_args = 0
 343:Dubby.cpp     ****         analogInputs[i].Process();
 3170              		.loc 2 343 5 view .LVU798
 3171              	.LBB828:
 343:Dubby.cpp     ****         analogInputs[i].Process();
 3172              		.loc 2 343 25 view .LVU799
 3173              	.LBE828:
 342:Dubby.cpp     ****     for(size_t i = 0; i < CTRL_LAST; i++)
 3174              		.loc 2 342 1 is_stmt 0 view .LVU800
 3175 0000 38B5     		push	{r3, r4, r5, lr}
 3176              		.cfi_def_cfa_offset 16
 3177              		.cfi_offset 3, -16
 3178              		.cfi_offset 4, -12
 3179              		.cfi_offset 5, -8
 3180              		.cfi_offset 14, -4
 3181 0002 00F58E74 		add	r4, r0, #284
 3182 0006 00F5EE75 		add	r5, r0, #476
 3183              	.LVL228:
 3184              	.L204:
 3185              	.LBB829:
 344:Dubby.cpp     **** }
 3186              		.loc 2 344 9 is_stmt 1 discriminator 2 view .LVU801
 344:Dubby.cpp     **** }
 3187              		.loc 2 344 32 is_stmt 0 discriminator 2 view .LVU802
 3188 000a 2046     		mov	r0, r4
 343:Dubby.cpp     ****         analogInputs[i].Process();
 3189              		.loc 2 343 25 discriminator 2 view .LVU803
 3190 000c 2034     		adds	r4, r4, #32
 344:Dubby.cpp     **** }
 3191              		.loc 2 344 32 discriminator 2 view .LVU804
 3192 000e FFF7FEFF 		bl	_ZN5daisy13AnalogControl7ProcessEv
 3193              	.LVL229:
 343:Dubby.cpp     ****         analogInputs[i].Process();
 3194              		.loc 2 343 5 is_stmt 1 discriminator 2 view .LVU805
 343:Dubby.cpp     ****         analogInputs[i].Process();
 3195              		.loc 2 343 25 discriminator 2 view .LVU806
 3196 0012 AC42     		cmp	r4, r5
 3197 0014 F9D1     		bne	.L204
 3198              	.LBE829:
 345:Dubby.cpp     **** 
 3199              		.loc 2 345 1 is_stmt 0 view .LVU807
 3200 0016 38BD     		pop	{r3, r4, r5, pc}
 345:Dubby.cpp     **** 
ARM GAS  /var/folders/1y/_321xjh9623c014x9_qw12rr0000gn/T//cc4eHiNS.s 			page 98


 3201              		.loc 2 345 1 view .LVU808
 3202              		.cfi_endproc
 3203              	.LFE2597:
 3205              		.section	.text._ZN5daisy5Dubby22ProcessDigitalControlsEv,"ax",%progbits
 3206              		.align	1
 3207              		.p2align 2,,3
 3208              		.global	_ZN5daisy5Dubby22ProcessDigitalControlsEv
 3209              		.syntax unified
 3210              		.thumb
 3211              		.thumb_func
 3213              	_ZN5daisy5Dubby22ProcessDigitalControlsEv:
 3214              	.LVL230:
 3215              	.LFB2598:
 348:Dubby.cpp     ****     encoder.Debounce();
 3216              		.loc 2 348 1 is_stmt 1 view -0
 3217              		.cfi_startproc
 3218              		@ args = 0, pretend = 0, frame = 0
 3219              		@ frame_needed = 0, uses_anonymous_args = 0
 349:Dubby.cpp     **** 
 3220              		.loc 2 349 5 view .LVU810
 348:Dubby.cpp     ****     encoder.Debounce();
 3221              		.loc 2 348 1 is_stmt 0 view .LVU811
 3222 0000 10B5     		push	{r4, lr}
 3223              		.cfi_def_cfa_offset 8
 3224              		.cfi_offset 4, -8
 3225              		.cfi_offset 14, -4
 348:Dubby.cpp     ****     encoder.Debounce();
 3226              		.loc 2 348 1 view .LVU812
 3227 0002 0446     		mov	r4, r0
 349:Dubby.cpp     **** 
 3228              		.loc 2 349 21 view .LVU813
 3229 0004 F430     		adds	r0, r0, #244
 3230              	.LVL231:
 349:Dubby.cpp     **** 
 3231              		.loc 2 349 21 view .LVU814
 3232 0006 FFF7FEFF 		bl	_ZN5daisy7Encoder8DebounceEv
 3233              	.LVL232:
 351:Dubby.cpp     **** }
 3234              		.loc 2 351 5 is_stmt 1 view .LVU815
 3235              	.LBB830:
 351:Dubby.cpp     **** }
 3236              		.loc 2 351 23 view .LVU816
 351:Dubby.cpp     **** }
 3237              		.loc 2 351 33 view .LVU817
 351:Dubby.cpp     **** }
 3238              		.loc 2 351 52 is_stmt 0 view .LVU818
 3239 000a 04F50070 		add	r0, r4, #512
 3240 000e FFF7FEFF 		bl	_ZN5daisy6Switch8DebounceEv
 3241              	.LVL233:
 351:Dubby.cpp     **** }
 3242              		.loc 2 351 5 is_stmt 1 view .LVU819
 351:Dubby.cpp     **** }
 3243              		.loc 2 351 23 view .LVU820
 351:Dubby.cpp     **** }
 3244              		.loc 2 351 33 view .LVU821
 351:Dubby.cpp     **** }
 3245              		.loc 2 351 52 is_stmt 0 view .LVU822
ARM GAS  /var/folders/1y/_321xjh9623c014x9_qw12rr0000gn/T//cc4eHiNS.s 			page 99


 3246 0012 04F50470 		add	r0, r4, #528
 3247 0016 FFF7FEFF 		bl	_ZN5daisy6Switch8DebounceEv
 3248              	.LVL234:
 351:Dubby.cpp     **** }
 3249              		.loc 2 351 5 is_stmt 1 view .LVU823
 351:Dubby.cpp     **** }
 3250              		.loc 2 351 23 view .LVU824
 351:Dubby.cpp     **** }
 3251              		.loc 2 351 33 view .LVU825
 351:Dubby.cpp     **** }
 3252              		.loc 2 351 52 is_stmt 0 view .LVU826
 3253 001a 04F50870 		add	r0, r4, #544
 3254 001e FFF7FEFF 		bl	_ZN5daisy6Switch8DebounceEv
 3255              	.LVL235:
 351:Dubby.cpp     **** }
 3256              		.loc 2 351 5 is_stmt 1 view .LVU827
 351:Dubby.cpp     **** }
 3257              		.loc 2 351 23 view .LVU828
 351:Dubby.cpp     **** }
 3258              		.loc 2 351 33 view .LVU829
 351:Dubby.cpp     **** }
 3259              		.loc 2 351 52 is_stmt 0 view .LVU830
 3260 0022 04F50C70 		add	r0, r4, #560
 3261              	.LBE830:
 352:Dubby.cpp     **** 
 3262              		.loc 2 352 1 view .LVU831
 3263 0026 BDE81040 		pop	{r4, lr}
 3264              		.cfi_restore 14
 3265              		.cfi_restore 4
 3266              		.cfi_def_cfa_offset 0
 3267              	.LVL236:
 3268              	.LBB831:
 351:Dubby.cpp     **** }
 3269              		.loc 2 351 52 view .LVU832
 3270 002a FFF7FEBF 		b	_ZN5daisy6Switch8DebounceEv
 3271              	.LVL237:
 351:Dubby.cpp     **** }
 3272              		.loc 2 351 52 view .LVU833
 3273              	.LBE831:
 3274              		.cfi_endproc
 3275              	.LFE2598:
 3277 002e 00BF     		.section	.text._ZN5daisy5Dubby12GetKnobValueENS0_4CtrlE,"ax",%progbits
 3278              		.align	1
 3279              		.p2align 2,,3
 3280              		.global	_ZN5daisy5Dubby12GetKnobValueENS0_4CtrlE
 3281              		.syntax unified
 3282              		.thumb
 3283              		.thumb_func
 3285              	_ZN5daisy5Dubby12GetKnobValueENS0_4CtrlE:
 3286              	.LVL238:
 3287              	.LFB2599:
 355:Dubby.cpp     ****     return (analogInputs[k].Value());
 3288              		.loc 2 355 1 is_stmt 1 view -0
 3289              		.cfi_startproc
 3290              		@ args = 0, pretend = 0, frame = 0
 3291              		@ frame_needed = 0, uses_anonymous_args = 0
 3292              		@ link register save eliminated.
ARM GAS  /var/folders/1y/_321xjh9623c014x9_qw12rr0000gn/T//cc4eHiNS.s 			page 100


 3293              		.loc 2 356 5 view .LVU835
 3294              	.LBB832:
 3295              	.LBI832:
 3296              		.loc 9 56 18 view .LVU836
 3297              	.LBB833:
 3298              		.loc 9 56 34 view .LVU837
 3299              		.loc 9 56 41 is_stmt 0 view .LVU838
 3300 0000 00EB4111 		add	r1, r0, r1, lsl #5
 3301              	.LVL239:
 3302              		.loc 9 56 41 view .LVU839
 3303              	.LBE833:
 3304              	.LBE832:
 357:Dubby.cpp     **** }
 3305              		.loc 2 357 1 view .LVU840
 3306 0004 91ED4A0A 		vldr.32	s0, [r1, #296]
 3307 0008 7047     		bx	lr
 3308              		.cfi_endproc
 3309              	.LFE2599:
 3311 000a 00BF     		.section	.text._ZN5daisy5Dubby9InitAudioEv,"ax",%progbits
 3312              		.align	1
 3313              		.p2align 2,,3
 3314              		.global	_ZN5daisy5Dubby9InitAudioEv
 3315              		.syntax unified
 3316              		.thumb
 3317              		.thumb_func
 3319              	_ZN5daisy5Dubby9InitAudioEv:
 3320              	.LVL240:
 3321              	.LFB2600:
 358:Dubby.cpp     **** 
 359:Dubby.cpp     **** void Dubby::InitAudio() 
 360:Dubby.cpp     **** {
 3322              		.loc 2 360 1 is_stmt 1 view -0
 3323              		.cfi_startproc
 3324              		@ args = 0, pretend = 0, frame = 136
 3325              		@ frame_needed = 0, uses_anonymous_args = 0
 361:Dubby.cpp     ****     // Handle Seed Audio as-is and then
 362:Dubby.cpp     ****     SaiHandle::Config sai_config[2];
 3326              		.loc 2 362 5 view .LVU842
 363:Dubby.cpp     ****     // Internal Codec
 364:Dubby.cpp     ****     if(seed.CheckBoardVersion() == DaisySeed::BoardVersion::DAISY_SEED_1_1)
 3327              		.loc 2 364 5 view .LVU843
 360:Dubby.cpp     ****     // Handle Seed Audio as-is and then
 3328              		.loc 2 360 1 is_stmt 0 view .LVU844
 3329 0000 2DE9F041 		push	{r4, r5, r6, r7, r8, lr}
 3330              		.cfi_def_cfa_offset 24
 3331              		.cfi_offset 4, -24
 3332              		.cfi_offset 5, -20
 3333              		.cfi_offset 6, -16
 3334              		.cfi_offset 7, -12
 3335              		.cfi_offset 8, -8
 3336              		.cfi_offset 14, -4
 3337 0004 0746     		mov	r7, r0
 3338 0006 A2B0     		sub	sp, sp, #136
 3339              		.cfi_def_cfa_offset 160
 3340              		.loc 2 364 30 view .LVU845
 3341 0008 1C30     		adds	r0, r0, #28
 3342              	.LVL241:
ARM GAS  /var/folders/1y/_321xjh9623c014x9_qw12rr0000gn/T//cc4eHiNS.s 			page 101


 365:Dubby.cpp     ****     {
 366:Dubby.cpp     ****         sai_config[0].pin_config.sa = {DSY_GPIOE, 6};
 3343              		.loc 2 366 37 view .LVU846
 3344 000a 3F4D     		ldr	r5, .L215
 364:Dubby.cpp     ****     {
 3345              		.loc 2 364 30 view .LVU847
 3346 000c FFF7FEFF 		bl	_ZN5daisy9DaisySeed17CheckBoardVersionEv
 3347              	.LVL242:
 364:Dubby.cpp     ****     {
 3348              		.loc 2 364 5 view .LVU848
 3349 0010 0128     		cmp	r0, #1
 367:Dubby.cpp     ****         sai_config[0].pin_config.sb = {DSY_GPIOE, 3};
 368:Dubby.cpp     ****         sai_config[0].a_dir         = SaiHandle::Config::Direction::RECEIVE;
 369:Dubby.cpp     ****         sai_config[0].b_dir         = SaiHandle::Config::Direction::TRANSMIT;
 3350              		.loc 2 369 37 view .LVU849
 3351 0012 4FF00001 		mov	r1, #0
 364:Dubby.cpp     ****     {
 3352              		.loc 2 364 5 view .LVU850
 3353 0016 6DD0     		beq	.L214
 370:Dubby.cpp     ****     }
 371:Dubby.cpp     ****     else
 372:Dubby.cpp     ****     {
 373:Dubby.cpp     ****         sai_config[0].pin_config.sa = {DSY_GPIOE, 6};
 3354              		.loc 2 373 9 is_stmt 1 view .LVU851
 3355              		.loc 2 373 37 is_stmt 0 view .LVU852
 3356 0018 2B88     		ldrh	r3, [r5]
 374:Dubby.cpp     ****         sai_config[0].pin_config.sb = {DSY_GPIOE, 3};
 375:Dubby.cpp     ****         sai_config[0].a_dir         = SaiHandle::Config::Direction::TRANSMIT;
 376:Dubby.cpp     ****         sai_config[0].b_dir         = SaiHandle::Config::Direction::RECEIVE;
 3357              		.loc 2 376 37 view .LVU853
 3358 001a 0122     		movs	r2, #1
 373:Dubby.cpp     ****         sai_config[0].pin_config.sb = {DSY_GPIOE, 3};
 3359              		.loc 2 373 37 view .LVU854
 3360 001c ADF84230 		strh	r3, [sp, #66]	@ movhi
 374:Dubby.cpp     ****         sai_config[0].pin_config.sb = {DSY_GPIOE, 3};
 3361              		.loc 2 374 9 is_stmt 1 view .LVU855
 374:Dubby.cpp     ****         sai_config[0].pin_config.sb = {DSY_GPIOE, 3};
 3362              		.loc 2 374 37 is_stmt 0 view .LVU856
 3363 0020 AB88     		ldrh	r3, [r5, #4]
 3364              		.loc 2 376 37 view .LVU857
 3365 0022 CDE91612 		strd	r1, r2, [sp, #88]
 374:Dubby.cpp     ****         sai_config[0].pin_config.sb = {DSY_GPIOE, 3};
 3366              		.loc 2 374 37 view .LVU858
 3367 0026 ADF84430 		strh	r3, [sp, #68]	@ movhi
 375:Dubby.cpp     ****         sai_config[0].b_dir         = SaiHandle::Config::Direction::RECEIVE;
 3368              		.loc 2 375 9 is_stmt 1 view .LVU859
 3369              		.loc 2 376 9 view .LVU860
 3370              	.L212:
 377:Dubby.cpp     ****     }
 378:Dubby.cpp     ****     sai_config[0].periph          = SaiHandle::Config::Peripheral::SAI_1;
 3371              		.loc 2 378 5 view .LVU861
 379:Dubby.cpp     ****     sai_config[0].sr              = SaiHandle::Config::SampleRate::SAI_48KHZ;
 380:Dubby.cpp     ****     sai_config[0].bit_depth       = SaiHandle::Config::BitDepth::SAI_24BIT;
 381:Dubby.cpp     ****     sai_config[0].a_sync          = SaiHandle::Config::Sync::MASTER;
 382:Dubby.cpp     ****     sai_config[0].b_sync          = SaiHandle::Config::Sync::SLAVE;
 383:Dubby.cpp     ****     sai_config[0].pin_config.fs   = {DSY_GPIOE, 4};
 3372              		.loc 2 383 35 is_stmt 0 view .LVU862
ARM GAS  /var/folders/1y/_321xjh9623c014x9_qw12rr0000gn/T//cc4eHiNS.s 			page 102


 3373 002a 2B89     		ldrh	r3, [r5, #8]
 378:Dubby.cpp     ****     sai_config[0].sr              = SaiHandle::Config::SampleRate::SAI_48KHZ;
 3374              		.loc 2 378 35 view .LVU863
 3375 002c 0024     		movs	r4, #0
 380:Dubby.cpp     ****     sai_config[0].a_sync          = SaiHandle::Config::Sync::MASTER;
 3376              		.loc 2 380 35 view .LVU864
 3377 002e 0126     		movs	r6, #1
 379:Dubby.cpp     ****     sai_config[0].sr              = SaiHandle::Config::SampleRate::SAI_48KHZ;
 3378              		.loc 2 379 35 view .LVU865
 3379 0030 4FF00308 		mov	r8, #3
 3380              		.loc 2 383 35 view .LVU866
 3381 0034 ADF83E30 		strh	r3, [sp, #62]	@ movhi
 384:Dubby.cpp     ****     sai_config[0].pin_config.mclk = {DSY_GPIOE, 2};
 385:Dubby.cpp     ****     sai_config[0].pin_config.sck  = {DSY_GPIOE, 5};
 386:Dubby.cpp     **** 
 387:Dubby.cpp     ****     // External Codec
 388:Dubby.cpp     **** 
 389:Dubby.cpp     ****     I2CHandle::Config i2c_cfg;
 390:Dubby.cpp     ****     i2c_cfg.periph         = I2CHandle::Config::Peripheral::I2C_1;
 391:Dubby.cpp     ****     i2c_cfg.mode           = I2CHandle::Config::Mode::I2C_MASTER;
 392:Dubby.cpp     ****     i2c_cfg.speed          = I2CHandle::Config::Speed::I2C_400KHZ;
 393:Dubby.cpp     ****     i2c_cfg.pin_config.scl = {DSY_GPIOB, 8};
 394:Dubby.cpp     ****     i2c_cfg.pin_config.sda = {DSY_GPIOB, 9};
 395:Dubby.cpp     **** 
 396:Dubby.cpp     ****     I2CHandle i2c2;
 397:Dubby.cpp     ****     i2c2.Init(i2c_cfg);
 3382              		.loc 2 397 14 view .LVU867
 3383 0038 09A9     		add	r1, sp, #36
 384:Dubby.cpp     ****     sai_config[0].pin_config.mclk = {DSY_GPIOE, 2};
 3384              		.loc 2 384 35 view .LVU868
 3385 003a AB89     		ldrh	r3, [r5, #12]
 3386              		.loc 2 397 14 view .LVU869
 3387 003c 6846     		mov	r0, sp
 378:Dubby.cpp     ****     sai_config[0].sr              = SaiHandle::Config::SampleRate::SAI_48KHZ;
 3388              		.loc 2 378 35 view .LVU870
 3389 003e 0E94     		str	r4, [sp, #56]
 379:Dubby.cpp     ****     sai_config[0].bit_depth       = SaiHandle::Config::BitDepth::SAI_24BIT;
 3390              		.loc 2 379 5 is_stmt 1 view .LVU871
 384:Dubby.cpp     ****     sai_config[0].pin_config.mclk = {DSY_GPIOE, 2};
 3391              		.loc 2 384 35 is_stmt 0 view .LVU872
 3392 0040 ADF83C30 		strh	r3, [sp, #60]	@ movhi
 385:Dubby.cpp     **** 
 3393              		.loc 2 385 35 view .LVU873
 3394 0044 2B8A     		ldrh	r3, [r5, #16]
 390:Dubby.cpp     ****     i2c_cfg.mode           = I2CHandle::Config::Mode::I2C_MASTER;
 3395              		.loc 2 390 28 view .LVU874
 3396 0046 0994     		str	r4, [sp, #36]
 385:Dubby.cpp     **** 
 3397              		.loc 2 385 35 view .LVU875
 3398 0048 ADF84030 		strh	r3, [sp, #64]	@ movhi
 393:Dubby.cpp     ****     i2c_cfg.pin_config.sda = {DSY_GPIOB, 9};
 3399              		.loc 2 393 28 view .LVU876
 3400 004c AB8A     		ldrh	r3, [r5, #20]
 3401              	.LBB834:
 3402              	.LBB835:
 3403              	.LBB836:
 3404              		.file 11 "../../libDaisy//src/per/i2c.h"
ARM GAS  /var/folders/1y/_321xjh9623c014x9_qw12rr0000gn/T//cc4eHiNS.s 			page 103


   1:../../libDaisy//src/per/i2c.h **** #pragma once
   2:../../libDaisy//src/per/i2c.h **** #include "daisy_core.h"
   3:../../libDaisy//src/per/i2c.h **** 
   4:../../libDaisy//src/per/i2c.h **** namespace daisy
   5:../../libDaisy//src/per/i2c.h **** {
   6:../../libDaisy//src/per/i2c.h **** /** A handle for interacting with an I2C peripheral. This is a dumb
   7:../../libDaisy//src/per/i2c.h ****  *  gateway that internally points to one of the four I2C peripherals
   8:../../libDaisy//src/per/i2c.h ****  *  after it was initialised. It can then be copied and passed around.
   9:../../libDaisy//src/per/i2c.h ****  *  Use an I2CHandle like this:
  10:../../libDaisy//src/per/i2c.h ****  *  
  11:../../libDaisy//src/per/i2c.h ****  *      // setup the configuration
  12:../../libDaisy//src/per/i2c.h ****  *      I2CHandle::Config i2c_conf;
  13:../../libDaisy//src/per/i2c.h ****  *      i2c_conf.periph = I2CHandle::Config::Peripheral::I2C_1;
  14:../../libDaisy//src/per/i2c.h ****  *      i2c_conf.speed  = I2CHandle::Config::Speed::I2C_400KHZ;
  15:../../libDaisy//src/per/i2c.h ****  *      i2c_conf.mode   = I2CHandle::Config::Mode::Master;
  16:../../libDaisy//src/per/i2c.h ****  *      i2c_conf.pin_config.scl  = {DSY_GPIOB, 8};
  17:../../libDaisy//src/per/i2c.h ****  *      i2c_conf.pin_config.sda  = {DSY_GPIOB, 9};
  18:../../libDaisy//src/per/i2c.h ****  *      // initialise the peripheral
  19:../../libDaisy//src/per/i2c.h ****  *      I2CHandle i2c;
  20:../../libDaisy//src/per/i2c.h ****  *      i2c.Init(i2c_conf);
  21:../../libDaisy//src/per/i2c.h ****  *      // now i2c points to the corresponding peripheral and can be used.
  22:../../libDaisy//src/per/i2c.h ****  *      i2c.TransmitBlocking( ... );
  23:../../libDaisy//src/per/i2c.h ****  */
  24:../../libDaisy//src/per/i2c.h **** class I2CHandle
  25:../../libDaisy//src/per/i2c.h **** {
  26:../../libDaisy//src/per/i2c.h ****   public:
  27:../../libDaisy//src/per/i2c.h ****     /** Contains settings for initialising an I2C interface. */
  28:../../libDaisy//src/per/i2c.h ****     struct Config
  29:../../libDaisy//src/per/i2c.h ****     {
  30:../../libDaisy//src/per/i2c.h ****         /** Specifies whether the interface will operate in master or slave mode. */
  31:../../libDaisy//src/per/i2c.h ****         enum class Mode
  32:../../libDaisy//src/per/i2c.h ****         {
  33:../../libDaisy//src/per/i2c.h ****             I2C_MASTER,
  34:../../libDaisy//src/per/i2c.h ****             I2C_SLAVE,
  35:../../libDaisy//src/per/i2c.h ****         };
  36:../../libDaisy//src/per/i2c.h **** 
  37:../../libDaisy//src/per/i2c.h ****         /** Specifices the internal peripheral to use (these are mapped to different pins on the ha
  38:../../libDaisy//src/per/i2c.h ****         enum class Peripheral
  39:../../libDaisy//src/per/i2c.h ****         {
  40:../../libDaisy//src/per/i2c.h ****             I2C_1 = 0, /**< & */
  41:../../libDaisy//src/per/i2c.h ****             I2C_2,     /**< & */
  42:../../libDaisy//src/per/i2c.h ****             I2C_3,     /**< & */
  43:../../libDaisy//src/per/i2c.h ****             I2C_4,     /**< & */
  44:../../libDaisy//src/per/i2c.h ****         };
  45:../../libDaisy//src/per/i2c.h **** 
  46:../../libDaisy//src/per/i2c.h ****         /** Rate at which the clock/data will be sent/received. The device being used will have max
  47:../../libDaisy//src/per/i2c.h ****          *  1MHZ Mode is currently 886kHz
  48:../../libDaisy//src/per/i2c.h ****          */
  49:../../libDaisy//src/per/i2c.h ****         enum class Speed
  50:../../libDaisy//src/per/i2c.h ****         {
  51:../../libDaisy//src/per/i2c.h ****             I2C_100KHZ, /**< & */
  52:../../libDaisy//src/per/i2c.h ****             I2C_400KHZ, /**< & */
  53:../../libDaisy//src/per/i2c.h ****             I2C_1MHZ,   /**< & */
  54:../../libDaisy//src/per/i2c.h ****         };
  55:../../libDaisy//src/per/i2c.h **** 
  56:../../libDaisy//src/per/i2c.h ****         Peripheral periph; /**< & */
  57:../../libDaisy//src/per/i2c.h ****         struct
ARM GAS  /var/folders/1y/_321xjh9623c014x9_qw12rr0000gn/T//cc4eHiNS.s 			page 104


  58:../../libDaisy//src/per/i2c.h ****         {
  59:../../libDaisy//src/per/i2c.h ****             dsy_gpio_pin scl; /**< & */
  60:../../libDaisy//src/per/i2c.h ****             dsy_gpio_pin sda; /**< & */
  61:../../libDaisy//src/per/i2c.h ****         } pin_config;         /**< & */
  62:../../libDaisy//src/per/i2c.h **** 
  63:../../libDaisy//src/per/i2c.h ****         Speed speed; /**< & */
  64:../../libDaisy//src/per/i2c.h ****         Mode  mode;  /**< & */
  65:../../libDaisy//src/per/i2c.h ****         // 0x10 is chosen as a default to avoid conflicts with reserved addresses
  66:../../libDaisy//src/per/i2c.h ****         uint8_t address = 0x10; /**< & */
  67:../../libDaisy//src/per/i2c.h ****     };
  68:../../libDaisy//src/per/i2c.h **** 
  69:../../libDaisy//src/per/i2c.h ****     /** Return values for I2C functions. */
  70:../../libDaisy//src/per/i2c.h ****     enum class Result
  71:../../libDaisy//src/per/i2c.h ****     {
  72:../../libDaisy//src/per/i2c.h ****         OK, /**< & */
  73:../../libDaisy//src/per/i2c.h ****         ERR /**< & */
  74:../../libDaisy//src/per/i2c.h ****     };
  75:../../libDaisy//src/per/i2c.h **** 
  76:../../libDaisy//src/per/i2c.h ****     enum class Direction
  77:../../libDaisy//src/per/i2c.h ****     {
  78:../../libDaisy//src/per/i2c.h ****         TRANSMIT, /**< & */
  79:../../libDaisy//src/per/i2c.h ****         RECEIVE,  /**< & */
  80:../../libDaisy//src/per/i2c.h ****     };
  81:../../libDaisy//src/per/i2c.h **** 
  82:../../libDaisy//src/per/i2c.h ****     I2CHandle() : pimpl_(nullptr) {}
 3405              		.loc 11 82 33 view .LVU877
 3406 004e 0094     		str	r4, [sp]
 3407              	.LBE836:
 3408              	.LBE835:
 3409              	.LBE834:
 393:Dubby.cpp     ****     i2c_cfg.pin_config.sda = {DSY_GPIOB, 9};
 3410              		.loc 2 393 28 view .LVU878
 3411 0050 ADF82830 		strh	r3, [sp, #40]	@ movhi
 394:Dubby.cpp     **** 
 3412              		.loc 2 394 28 view .LVU879
 3413 0054 2B8B     		ldrh	r3, [r5, #24]
 3414 0056 ADF82A30 		strh	r3, [sp, #42]	@ movhi
 3415              	.LBB837:
 3416              	.LBB838:
  28:../../libDaisy//src/per/i2c.h ****     {
 3417              		.loc 11 28 12 view .LVU880
 3418 005a 1023     		movs	r3, #16
 3419              	.LBE838:
 3420              	.LBE837:
 382:Dubby.cpp     ****     sai_config[0].pin_config.fs   = {DSY_GPIOE, 4};
 3421              		.loc 2 382 35 view .LVU881
 3422 005c CDE91446 		strd	r4, r6, [sp, #80]
 392:Dubby.cpp     ****     i2c_cfg.pin_config.scl = {DSY_GPIOB, 8};
 3423              		.loc 2 392 28 view .LVU882
 3424 0060 CDE90B64 		strd	r6, r4, [sp, #44]
 3425              	.LBB840:
 3426              	.LBB839:
  28:../../libDaisy//src/per/i2c.h ****     {
 3427              		.loc 11 28 12 view .LVU883
 3428 0064 8DF83430 		strb	r3, [sp, #52]
 3429              	.LBE839:
 3430              	.LBE840:
ARM GAS  /var/folders/1y/_321xjh9623c014x9_qw12rr0000gn/T//cc4eHiNS.s 			page 105


 379:Dubby.cpp     ****     sai_config[0].bit_depth       = SaiHandle::Config::BitDepth::SAI_24BIT;
 3431              		.loc 2 379 35 view .LVU884
 3432 0068 CDE91286 		strd	r8, r6, [sp, #72]
 380:Dubby.cpp     ****     sai_config[0].a_sync          = SaiHandle::Config::Sync::MASTER;
 3433              		.loc 2 380 5 is_stmt 1 view .LVU885
 381:Dubby.cpp     ****     sai_config[0].b_sync          = SaiHandle::Config::Sync::SLAVE;
 3434              		.loc 2 381 5 view .LVU886
 383:Dubby.cpp     ****     sai_config[0].pin_config.mclk = {DSY_GPIOE, 2};
 3435              		.loc 2 383 5 view .LVU887
 384:Dubby.cpp     ****     sai_config[0].pin_config.sck  = {DSY_GPIOE, 5};
 3436              		.loc 2 384 5 view .LVU888
 385:Dubby.cpp     **** 
 3437              		.loc 2 385 5 view .LVU889
 389:Dubby.cpp     ****     i2c_cfg.periph         = I2CHandle::Config::Peripheral::I2C_1;
 3438              		.loc 2 389 5 view .LVU890
 3439              	.LVL243:
 3440              	.LBB841:
 3441              	.LBI837:
  28:../../libDaisy//src/per/i2c.h ****     {
 3442              		.loc 11 28 12 view .LVU891
  28:../../libDaisy//src/per/i2c.h ****     {
 3443              		.loc 11 28 12 is_stmt 0 view .LVU892
 3444              	.LBE841:
 390:Dubby.cpp     ****     i2c_cfg.mode           = I2CHandle::Config::Mode::I2C_MASTER;
 3445              		.loc 2 390 5 is_stmt 1 view .LVU893
 391:Dubby.cpp     ****     i2c_cfg.speed          = I2CHandle::Config::Speed::I2C_400KHZ;
 3446              		.loc 2 391 5 view .LVU894
 392:Dubby.cpp     ****     i2c_cfg.pin_config.scl = {DSY_GPIOB, 8};
 3447              		.loc 2 392 5 view .LVU895
 393:Dubby.cpp     ****     i2c_cfg.pin_config.sda = {DSY_GPIOB, 9};
 3448              		.loc 2 393 5 view .LVU896
 394:Dubby.cpp     **** 
 3449              		.loc 2 394 5 view .LVU897
 396:Dubby.cpp     ****     i2c2.Init(i2c_cfg);
 3450              		.loc 2 396 5 view .LVU898
 3451              	.LBB842:
 3452              	.LBI834:
 3453              		.loc 11 82 5 view .LVU899
 3454              		.loc 11 82 5 is_stmt 0 view .LVU900
 3455              	.LBE842:
 3456              		.loc 2 397 5 is_stmt 1 view .LVU901
 3457              		.loc 2 397 14 is_stmt 0 view .LVU902
 3458 006c FFF7FEFF 		bl	_ZN5daisy9I2CHandle4InitERKNS0_6ConfigE
 3459              	.LVL244:
 398:Dubby.cpp     **** 
 399:Dubby.cpp     ****     // pullups must be enabled
 400:Dubby.cpp     ****     GPIOB->PUPDR &= ~((GPIO_PUPDR_PUPD8)|(GPIO_PUPDR_PUPD9)); 
 3460              		.loc 2 400 5 is_stmt 1 view .LVU903
 3461              		.loc 2 400 18 is_stmt 0 view .LVU904
 3462 0070 264B     		ldr	r3, .L215+4
 401:Dubby.cpp     ****     GPIOB->PUPDR |= ((GPIO_PUPDR_PUPD8_0)|(GPIO_PUPDR_PUPD9_0)); 
 402:Dubby.cpp     **** 
 403:Dubby.cpp     ****     Pcm3060 codec;
 404:Dubby.cpp     **** 
 405:Dubby.cpp     ****     codec.Init(i2c2);        
 3463              		.loc 2 405 15 view .LVU905
 3464 0072 0099     		ldr	r1, [sp]
ARM GAS  /var/folders/1y/_321xjh9623c014x9_qw12rr0000gn/T//cc4eHiNS.s 			page 106


 3465 0074 01A8     		add	r0, sp, #4
 400:Dubby.cpp     ****     GPIOB->PUPDR |= ((GPIO_PUPDR_PUPD8_0)|(GPIO_PUPDR_PUPD9_0)); 
 3466              		.loc 2 400 18 view .LVU906
 3467 0076 DA68     		ldr	r2, [r3, #12]
 3468 0078 22F47022 		bic	r2, r2, #983040
 3469 007c DA60     		str	r2, [r3, #12]
 401:Dubby.cpp     ****     GPIOB->PUPDR |= ((GPIO_PUPDR_PUPD8_0)|(GPIO_PUPDR_PUPD9_0)); 
 3470              		.loc 2 401 5 is_stmt 1 view .LVU907
 401:Dubby.cpp     ****     GPIOB->PUPDR |= ((GPIO_PUPDR_PUPD8_0)|(GPIO_PUPDR_PUPD9_0)); 
 3471              		.loc 2 401 18 is_stmt 0 view .LVU908
 3472 007e DA68     		ldr	r2, [r3, #12]
 3473 0080 42F4A022 		orr	r2, r2, #327680
 3474 0084 DA60     		str	r2, [r3, #12]
 403:Dubby.cpp     **** 
 3475              		.loc 2 403 5 is_stmt 1 view .LVU909
 3476              	.LVL245:
 3477              	.LBB843:
 3478              	.LBI843:
 3479              		.file 12 "../../libDaisy//src/dev/codec_pcm3060.h"
   1:../../libDaisy//src/dev/codec_pcm3060.h **** #pragma once
   2:../../libDaisy//src/dev/codec_pcm3060.h **** #ifndef DSY_CODEC_PCM3060_H
   3:../../libDaisy//src/dev/codec_pcm3060.h **** #define DSY_CODEC_PCM3060_H
   4:../../libDaisy//src/dev/codec_pcm3060.h **** #include "per/i2c.h"
   5:../../libDaisy//src/dev/codec_pcm3060.h **** namespace daisy
   6:../../libDaisy//src/dev/codec_pcm3060.h **** {
   7:../../libDaisy//src/dev/codec_pcm3060.h **** /**
   8:../../libDaisy//src/dev/codec_pcm3060.h ****  * @brief Driver for the TI PCM3060 Audio Codec.
   9:../../libDaisy//src/dev/codec_pcm3060.h ****  * @addtogroup codec
  10:../../libDaisy//src/dev/codec_pcm3060.h ****  * 
  11:../../libDaisy//src/dev/codec_pcm3060.h ****  * For now this is a limited interface that uses I2C to communicate with the PCM3060
  12:../../libDaisy//src/dev/codec_pcm3060.h ****  * The device can also be accessed with SPI, which is not yet supported.
  13:../../libDaisy//src/dev/codec_pcm3060.h ****  * 
  14:../../libDaisy//src/dev/codec_pcm3060.h ****  * For now all registers are set to their defaults, and the Init function will 
  15:../../libDaisy//src/dev/codec_pcm3060.h ****  * perform a MRST and SRST before setting the format to 24bit LJ, and disabling 
  16:../../libDaisy//src/dev/codec_pcm3060.h ****  * power save for both the ADC and DAC.
  17:../../libDaisy//src/dev/codec_pcm3060.h ****  *
  18:../../libDaisy//src/dev/codec_pcm3060.h ****  */
  19:../../libDaisy//src/dev/codec_pcm3060.h **** class Pcm3060
  20:../../libDaisy//src/dev/codec_pcm3060.h **** {
  21:../../libDaisy//src/dev/codec_pcm3060.h ****   public:
  22:../../libDaisy//src/dev/codec_pcm3060.h ****     enum class Result
  23:../../libDaisy//src/dev/codec_pcm3060.h ****     {
  24:../../libDaisy//src/dev/codec_pcm3060.h ****         OK,
  25:../../libDaisy//src/dev/codec_pcm3060.h ****         ERR,
  26:../../libDaisy//src/dev/codec_pcm3060.h ****     };
  27:../../libDaisy//src/dev/codec_pcm3060.h **** 
  28:../../libDaisy//src/dev/codec_pcm3060.h ****     Pcm3060() {}
 3480              		.loc 12 28 5 view .LVU910
 3481              	.LBB844:
 3482              	.LBB845:
 3483              	.LBI845:
 3484              		.loc 11 82 5 view .LVU911
 3485              	.LBB846:
 3486              	.LBB847:
 3487              		.loc 11 82 33 is_stmt 0 view .LVU912
 3488 0086 0194     		str	r4, [sp, #4]
 3489              	.LVL246:
ARM GAS  /var/folders/1y/_321xjh9623c014x9_qw12rr0000gn/T//cc4eHiNS.s 			page 107


 3490              		.loc 11 82 33 view .LVU913
 3491              	.LBE847:
 3492              	.LBE846:
 3493              	.LBE845:
 3494              	.LBE844:
 3495              	.LBE843:
 3496              		.loc 2 405 5 is_stmt 1 view .LVU914
 3497              		.loc 2 405 15 is_stmt 0 view .LVU915
 3498 0088 FFF7FEFF 		bl	_ZN5daisy7Pcm30604InitENS_9I2CHandleE
 3499              	.LVL247:
 406:Dubby.cpp     **** 
 407:Dubby.cpp     ****     sai_config[1].periph          = SaiHandle::Config::Peripheral::SAI_2;
 3500              		.loc 2 407 5 is_stmt 1 view .LVU916
 408:Dubby.cpp     ****     sai_config[1].sr              = SaiHandle::Config::SampleRate::SAI_48KHZ;
 3501              		.loc 2 408 5 view .LVU917
 409:Dubby.cpp     ****     sai_config[1].bit_depth       = SaiHandle::Config::BitDepth::SAI_24BIT;
 410:Dubby.cpp     ****     sai_config[1].a_sync          = SaiHandle::Config::Sync::SLAVE;
 411:Dubby.cpp     ****     sai_config[1].b_sync          = SaiHandle::Config::Sync::MASTER;
 412:Dubby.cpp     ****     sai_config[1].pin_config.fs   = {DSY_GPIOG, 9};
 3502              		.loc 2 412 35 is_stmt 0 view .LVU918
 3503 008c AB8B     		ldrh	r3, [r5, #28]
 413:Dubby.cpp     ****     sai_config[1].pin_config.mclk = {DSY_GPIOA, 1};
 414:Dubby.cpp     ****     sai_config[1].pin_config.sck  = {DSY_GPIOA, 2};
 415:Dubby.cpp     ****     sai_config[1].a_dir         = SaiHandle::Config::Direction::TRANSMIT;
 416:Dubby.cpp     ****     sai_config[1].pin_config.sa = {DSY_GPIOD, 11};
 417:Dubby.cpp     ****     sai_config[1].b_dir         = SaiHandle::Config::Direction::RECEIVE;
 418:Dubby.cpp     ****     sai_config[1].pin_config.sb = {DSY_GPIOA, 0};
 419:Dubby.cpp     **** 
 420:Dubby.cpp     ****     SaiHandle sai_handle[2];
 421:Dubby.cpp     ****     sai_handle[0].Init(sai_config[1]);
 3504              		.loc 2 421 23 view .LVU919
 3505 008e 18A9     		add	r1, sp, #96
 416:Dubby.cpp     ****     sai_config[1].b_dir         = SaiHandle::Config::Direction::RECEIVE;
 3506              		.loc 2 416 33 view .LVU920
 3507 0090 2A8C     		ldrh	r2, [r5, #32]
 3508              		.loc 2 421 23 view .LVU921
 3509 0092 03A8     		add	r0, sp, #12
 412:Dubby.cpp     ****     sai_config[1].pin_config.mclk = {DSY_GPIOA, 1};
 3510              		.loc 2 412 35 view .LVU922
 3511 0094 ADF86630 		strh	r3, [sp, #102]	@ movhi
 413:Dubby.cpp     ****     sai_config[1].pin_config.mclk = {DSY_GPIOA, 1};
 3512              		.loc 2 413 35 view .LVU923
 3513 0098 4FF48073 		mov	r3, #256
 416:Dubby.cpp     ****     sai_config[1].b_dir         = SaiHandle::Config::Direction::RECEIVE;
 3514              		.loc 2 416 33 view .LVU924
 3515 009c ADF86A20 		strh	r2, [sp, #106]	@ movhi
 413:Dubby.cpp     ****     sai_config[1].pin_config.mclk = {DSY_GPIOA, 1};
 3516              		.loc 2 413 35 view .LVU925
 3517 00a0 ADF86430 		strh	r3, [sp, #100]	@ movhi
 414:Dubby.cpp     ****     sai_config[1].a_dir         = SaiHandle::Config::Direction::TRANSMIT;
 3518              		.loc 2 414 35 view .LVU926
 3519 00a4 4FF40073 		mov	r3, #512
 418:Dubby.cpp     **** 
 3520              		.loc 2 418 33 view .LVU927
 3521 00a8 ADF86C40 		strh	r4, [sp, #108]	@ movhi
 414:Dubby.cpp     ****     sai_config[1].a_dir         = SaiHandle::Config::Direction::TRANSMIT;
 3522              		.loc 2 414 35 view .LVU928
ARM GAS  /var/folders/1y/_321xjh9623c014x9_qw12rr0000gn/T//cc4eHiNS.s 			page 108


 3523 00ac ADF86830 		strh	r3, [sp, #104]	@ movhi
 407:Dubby.cpp     ****     sai_config[1].sr              = SaiHandle::Config::SampleRate::SAI_48KHZ;
 3524              		.loc 2 407 35 view .LVU929
 3525 00b0 1896     		str	r6, [sp, #96]
 411:Dubby.cpp     ****     sai_config[1].pin_config.fs   = {DSY_GPIOG, 9};
 3526              		.loc 2 411 35 view .LVU930
 3527 00b2 CDE91E64 		strd	r6, r4, [sp, #120]
 415:Dubby.cpp     ****     sai_config[1].pin_config.sa = {DSY_GPIOD, 11};
 3528              		.loc 2 415 33 view .LVU931
 3529 00b6 CDE92046 		strd	r4, r6, [sp, #128]
 3530              	.LBB848:
 3531              	.LBB849:
 3532              	.LBB850:
 3533              		.file 13 "../../libDaisy//src/per/sai.h"
   1:../../libDaisy//src/per/sai.h **** #pragma once
   2:../../libDaisy//src/per/sai.h **** #ifndef DSY_SAI_H
   3:../../libDaisy//src/per/sai.h **** #define DSY_SAI_H
   4:../../libDaisy//src/per/sai.h **** 
   5:../../libDaisy//src/per/sai.h **** #include "daisy_core.h"
   6:../../libDaisy//src/per/sai.h **** 
   7:../../libDaisy//src/per/sai.h **** namespace daisy
   8:../../libDaisy//src/per/sai.h **** {
   9:../../libDaisy//src/per/sai.h **** /** 
  10:../../libDaisy//src/per/sai.h ****  * Support for I2S Audio Protocol with different bit-depth, samplerate options
  11:../../libDaisy//src/per/sai.h ****  * Allows for master or slave, as well as freedom of selecting direction, 
  12:../../libDaisy//src/per/sai.h ****  * and other behavior for each peripheral, and block.
  13:../../libDaisy//src/per/sai.h ****  * 
  14:../../libDaisy//src/per/sai.h ****  * DMA Transfer commands must use buffers located within non-cached memory or use cache maintenance
  15:../../libDaisy//src/per/sai.h ****  * To declare an unitialized global element in the DMA memory section:
  16:../../libDaisy//src/per/sai.h ****  *    int32_t DSY_DMA_BUFFER_SECTOR my_buffer[96];
  17:../../libDaisy//src/per/sai.h ****  *
  18:../../libDaisy//src/per/sai.h ****  * Callback functions will be called once per half of the buffer. In the above example, 
  19:../../libDaisy//src/per/sai.h ****  * the callback function would be called once for every 48 samples.
  20:../../libDaisy//src/per/sai.h ****  * 
  21:../../libDaisy//src/per/sai.h ****  * Use SAI Handle like this:
  22:../../libDaisy//src/per/sai.h ****  * 
  23:../../libDaisy//src/per/sai.h ****  *  SaiHandle::Config sai_config;
  24:../../libDaisy//src/per/sai.h ****  *  sai_config.periph          = SaiHandle::Config::Peripheral::SAI_1;
  25:../../libDaisy//src/per/sai.h ****  *  sai_config.sr              = SaiHandle::Config::SampleRate::SAI_48KHZ;
  26:../../libDaisy//src/per/sai.h ****  *  sai_config.bit_depth       = SaiHandle::Config::BitDepth::SAI_24BIT;
  27:../../libDaisy//src/per/sai.h ****  *  sai_config.a_sync          = SaiHandle::Config::Sync::MASTER;
  28:../../libDaisy//src/per/sai.h ****  *  sai_config.b_sync          = SaiHandle::Config::Sync::SLAVE;
  29:../../libDaisy//src/per/sai.h ****  *  sai_config.a_dir           = SaiHandle::Config::Direction::RECEIVE;
  30:../../libDaisy//src/per/sai.h ****  *  sai_config.b_dir           = SaiHandle::Config::Direction::TRANSMIT;
  31:../../libDaisy//src/per/sai.h ****  *  sai_config.pin_config.fs   = {DSY_GPIOE, 4};
  32:../../libDaisy//src/per/sai.h ****  *  sai_config.pin_config.mclk = {DSY_GPIOE, 2};
  33:../../libDaisy//src/per/sai.h ****  *  sai_config.pin_config.sck  = {DSY_GPIOE, 5};
  34:../../libDaisy//src/per/sai.h ****  *  sai_config.pin_config.sa   = {DSY_GPIOE, 6};
  35:../../libDaisy//src/per/sai.h ****  *  sai_config.pin_config.sb   = {DSY_GPIOE, 3};
  36:../../libDaisy//src/per/sai.h ****  *  // Then Initialize
  37:../../libDaisy//src/per/sai.h ****  *  SaiHandle sai;
  38:../../libDaisy//src/per/sai.h ****  *  sai.Init(sai_config);
  39:../../libDaisy//src/per/sai.h ****  *  // Now you can use it:
  40:../../libDaisy//src/per/sai.h ****  *  sai.StartDma(. . .);
  41:../../libDaisy//src/per/sai.h ****  */
  42:../../libDaisy//src/per/sai.h **** class SaiHandle
  43:../../libDaisy//src/per/sai.h **** {
ARM GAS  /var/folders/1y/_321xjh9623c014x9_qw12rr0000gn/T//cc4eHiNS.s 			page 109


  44:../../libDaisy//src/per/sai.h ****   public:
  45:../../libDaisy//src/per/sai.h ****     /** Contains settings for initialising an SAI Interface */
  46:../../libDaisy//src/per/sai.h ****     struct Config
  47:../../libDaisy//src/per/sai.h ****     {
  48:../../libDaisy//src/per/sai.h ****         /** Specifies the internal peripheral to use (mapped to different hardware pins) */
  49:../../libDaisy//src/per/sai.h ****         enum class Peripheral
  50:../../libDaisy//src/per/sai.h ****         {
  51:../../libDaisy//src/per/sai.h ****             SAI_1,
  52:../../libDaisy//src/per/sai.h ****             SAI_2,
  53:../../libDaisy//src/per/sai.h ****         };
  54:../../libDaisy//src/per/sai.h **** 
  55:../../libDaisy//src/per/sai.h ****         /** Rate at which samples will be streaming to/from the device. */
  56:../../libDaisy//src/per/sai.h ****         enum class SampleRate
  57:../../libDaisy//src/per/sai.h ****         {
  58:../../libDaisy//src/per/sai.h ****             SAI_8KHZ,
  59:../../libDaisy//src/per/sai.h ****             SAI_16KHZ,
  60:../../libDaisy//src/per/sai.h ****             SAI_32KHZ,
  61:../../libDaisy//src/per/sai.h ****             SAI_48KHZ,
  62:../../libDaisy//src/per/sai.h ****             SAI_96KHZ,
  63:../../libDaisy//src/per/sai.h ****         };
  64:../../libDaisy//src/per/sai.h **** 
  65:../../libDaisy//src/per/sai.h ****         /** Bit Depth that the hardware expects to be transferred to/from the device. */
  66:../../libDaisy//src/per/sai.h ****         enum class BitDepth
  67:../../libDaisy//src/per/sai.h ****         {
  68:../../libDaisy//src/per/sai.h ****             SAI_16BIT,
  69:../../libDaisy//src/per/sai.h ****             SAI_24BIT,
  70:../../libDaisy//src/per/sai.h ****             SAI_32BIT,
  71:../../libDaisy//src/per/sai.h ****         };
  72:../../libDaisy//src/per/sai.h **** 
  73:../../libDaisy//src/per/sai.h ****         /** Specifies whether a particular block is the master or the slave 
  74:../../libDaisy//src/per/sai.h ****          ** If both are set to slave, no MCLK signal will be used, and it is
  75:../../libDaisy//src/per/sai.h ****          ** expected that the codec will have its own xtal.
  76:../../libDaisy//src/per/sai.h ****          */
  77:../../libDaisy//src/per/sai.h ****         enum class Sync
  78:../../libDaisy//src/per/sai.h ****         {
  79:../../libDaisy//src/per/sai.h ****             MASTER,
  80:../../libDaisy//src/per/sai.h ****             SLAVE,
  81:../../libDaisy//src/per/sai.h ****         };
  82:../../libDaisy//src/per/sai.h **** 
  83:../../libDaisy//src/per/sai.h ****         /** Specifies the direction for each peripheral block. */
  84:../../libDaisy//src/per/sai.h ****         enum class Direction
  85:../../libDaisy//src/per/sai.h ****         {
  86:../../libDaisy//src/per/sai.h ****             TRANSMIT,
  87:../../libDaisy//src/per/sai.h ****             RECEIVE,
  88:../../libDaisy//src/per/sai.h ****         };
  89:../../libDaisy//src/per/sai.h **** 
  90:../../libDaisy//src/per/sai.h ****         Peripheral periph;
  91:../../libDaisy//src/per/sai.h ****         struct
  92:../../libDaisy//src/per/sai.h ****         {
  93:../../libDaisy//src/per/sai.h ****             dsy_gpio_pin mclk, fs, sck, sa, sb;
  94:../../libDaisy//src/per/sai.h ****         } pin_config;
  95:../../libDaisy//src/per/sai.h ****         SampleRate sr;
  96:../../libDaisy//src/per/sai.h ****         BitDepth   bit_depth;
  97:../../libDaisy//src/per/sai.h ****         Sync       a_sync, b_sync;
  98:../../libDaisy//src/per/sai.h ****         Direction  a_dir, b_dir;
  99:../../libDaisy//src/per/sai.h ****     };
 100:../../libDaisy//src/per/sai.h **** 
ARM GAS  /var/folders/1y/_321xjh9623c014x9_qw12rr0000gn/T//cc4eHiNS.s 			page 110


 101:../../libDaisy//src/per/sai.h ****     /** Return values for SAI functions */
 102:../../libDaisy//src/per/sai.h ****     enum class Result
 103:../../libDaisy//src/per/sai.h ****     {
 104:../../libDaisy//src/per/sai.h ****         OK,
 105:../../libDaisy//src/per/sai.h ****         ERR,
 106:../../libDaisy//src/per/sai.h ****     };
 107:../../libDaisy//src/per/sai.h **** 
 108:../../libDaisy//src/per/sai.h ****     SaiHandle() : pimpl_(nullptr) {}
 3534              		.loc 13 108 33 view .LVU932
 3535 00ba CDE90344 		strd	r4, r4, [sp, #12]
 3536              	.LBE850:
 3537              	.LBE849:
 3538              	.LBE848:
 409:Dubby.cpp     ****     sai_config[1].a_sync          = SaiHandle::Config::Sync::SLAVE;
 3539              		.loc 2 409 35 view .LVU933
 3540 00be CDE91C86 		strd	r8, r6, [sp, #112]
 410:Dubby.cpp     ****     sai_config[1].b_sync          = SaiHandle::Config::Sync::MASTER;
 3541              		.loc 2 410 5 is_stmt 1 view .LVU934
 412:Dubby.cpp     ****     sai_config[1].pin_config.mclk = {DSY_GPIOA, 1};
 3542              		.loc 2 412 5 view .LVU935
 413:Dubby.cpp     ****     sai_config[1].pin_config.sck  = {DSY_GPIOA, 2};
 3543              		.loc 2 413 5 view .LVU936
 414:Dubby.cpp     ****     sai_config[1].a_dir         = SaiHandle::Config::Direction::TRANSMIT;
 3544              		.loc 2 414 5 view .LVU937
 415:Dubby.cpp     ****     sai_config[1].pin_config.sa = {DSY_GPIOD, 11};
 3545              		.loc 2 415 5 view .LVU938
 416:Dubby.cpp     ****     sai_config[1].b_dir         = SaiHandle::Config::Direction::RECEIVE;
 3546              		.loc 2 416 5 view .LVU939
 417:Dubby.cpp     ****     sai_config[1].pin_config.sb = {DSY_GPIOA, 0};
 3547              		.loc 2 417 5 view .LVU940
 418:Dubby.cpp     **** 
 3548              		.loc 2 418 5 view .LVU941
 420:Dubby.cpp     ****     sai_handle[0].Init(sai_config[1]);
 3549              		.loc 2 420 5 view .LVU942
 420:Dubby.cpp     ****     sai_handle[0].Init(sai_config[1]);
 3550              		.loc 2 420 27 view .LVU943
 3551              	.LVL248:
 3552              	.LBB851:
 3553              	.LBI848:
 3554              		.loc 13 108 5 view .LVU944
 3555              		.loc 13 108 5 is_stmt 0 view .LVU945
 3556              	.LBE851:
 420:Dubby.cpp     ****     sai_handle[0].Init(sai_config[1]);
 3557              		.loc 2 420 27 is_stmt 1 view .LVU946
 420:Dubby.cpp     ****     sai_handle[0].Init(sai_config[1]);
 3558              		.loc 2 420 27 view .LVU947
 3559              	.LBB852:
 3560              		.loc 13 108 5 view .LVU948
 3561              		.loc 13 108 5 is_stmt 0 view .LVU949
 3562              	.LBE852:
 420:Dubby.cpp     ****     sai_handle[0].Init(sai_config[1]);
 3563              		.loc 2 420 27 is_stmt 1 view .LVU950
 420:Dubby.cpp     ****     sai_handle[0].Init(sai_config[1]);
 3564              		.loc 2 420 27 view .LVU951
 3565              		.loc 2 421 5 view .LVU952
 3566              		.loc 2 421 23 is_stmt 0 view .LVU953
 3567 00c2 FFF7FEFF 		bl	_ZN5daisy9SaiHandle4InitERKNS0_6ConfigE
ARM GAS  /var/folders/1y/_321xjh9623c014x9_qw12rr0000gn/T//cc4eHiNS.s 			page 111


 3568              	.LVL249:
 422:Dubby.cpp     ****     sai_handle[1].Init(sai_config[0]);
 3569              		.loc 2 422 5 is_stmt 1 view .LVU954
 3570              		.loc 2 422 23 is_stmt 0 view .LVU955
 3571 00c6 0EA9     		add	r1, sp, #56
 3572 00c8 04A8     		add	r0, sp, #16
 423:Dubby.cpp     **** 
 424:Dubby.cpp     ****     // Reinit Audio for _both_ codecs...
 425:Dubby.cpp     ****     AudioHandle::Config cfg;
 426:Dubby.cpp     ****     cfg.blocksize  = 48;
 427:Dubby.cpp     ****     cfg.samplerate = SaiHandle::Config::SampleRate::SAI_48KHZ;
 428:Dubby.cpp     ****     cfg.postgain   = 0.5f;
 3573              		.loc 2 428 20 view .LVU956
 3574 00ca 4FF07C54 		mov	r4, #1056964608
 422:Dubby.cpp     ****     sai_handle[1].Init(sai_config[0]);
 3575              		.loc 2 422 23 view .LVU957
 3576 00ce FFF7FEFF 		bl	_ZN5daisy9SaiHandle4InitERKNS0_6ConfigE
 3577              	.LVL250:
 425:Dubby.cpp     ****     cfg.blocksize  = 48;
 3578              		.loc 2 425 5 is_stmt 1 view .LVU958
 3579              	.LBB853:
 3580              	.LBI853:
 3581              		.file 14 "../../libDaisy//src/hid/audio.h"
   1:../../libDaisy//src/hid/audio.h **** #ifndef DSY_AUDIO_H
   2:../../libDaisy//src/hid/audio.h **** #define DSY_AUDIO_H /**< & */
   3:../../libDaisy//src/hid/audio.h **** 
   4:../../libDaisy//src/hid/audio.h **** #include "per/sai.h"
   5:../../libDaisy//src/hid/audio.h **** 
   6:../../libDaisy//src/hid/audio.h **** namespace daisy
   7:../../libDaisy//src/hid/audio.h **** {
   8:../../libDaisy//src/hid/audio.h **** /** @brief Audio Engine Handle
   9:../../libDaisy//src/hid/audio.h ****  *  @ingroup audio 
  10:../../libDaisy//src/hid/audio.h ****  *  @details This class allows for higher level access to an audio engine.
  11:../../libDaisy//src/hid/audio.h ****  *           If you're using a SOM like the DaisySeed or DaisyPatchSM (or any 
  12:../../libDaisy//src/hid/audio.h ****  *            board that includes one of those objects) then the intialization
  13:../../libDaisy//src/hid/audio.h ****  *            is already taken  care of.
  14:../../libDaisy//src/hid/audio.h ****  *           If you're setting up your own custom hardware, or need to make changes
  15:../../libDaisy//src/hid/audio.h ****  *           you will have to take the following steps:
  16:../../libDaisy//src/hid/audio.h ****  *             1. Create and Initialize an SaiHandle or two depending on your requirements
  17:../../libDaisy//src/hid/audio.h ****  *             2. Initialize the Audio Handle with the desired settings and the Initialized SaiHand
  18:../../libDaisy//src/hid/audio.h ****  *             3. If the connected codec requires special configuration or initialization, do so
  19:../../libDaisy//src/hid/audio.h ****  *             4. Write a callback method using either the AudioCallback or the InterleavingAudioCa
  20:../../libDaisy//src/hid/audio.h ****  *             5. Start the Audio using one of the StartAudio function
  21:../../libDaisy//src/hid/audio.h ****  */
  22:../../libDaisy//src/hid/audio.h **** class AudioHandle
  23:../../libDaisy//src/hid/audio.h **** {
  24:../../libDaisy//src/hid/audio.h ****   public:
  25:../../libDaisy//src/hid/audio.h ****     /** Manually configurable details about the Audio Engine */
  26:../../libDaisy//src/hid/audio.h ****     /** TODO: Figure out how to get samplerate in here. */
  27:../../libDaisy//src/hid/audio.h ****     struct Config
  28:../../libDaisy//src/hid/audio.h ****     {
  29:../../libDaisy//src/hid/audio.h ****         /** number of samples to process per callback */
  30:../../libDaisy//src/hid/audio.h ****         size_t blocksize;
  31:../../libDaisy//src/hid/audio.h **** 
  32:../../libDaisy//src/hid/audio.h ****         /**< Sample rate of audio */
  33:../../libDaisy//src/hid/audio.h ****         SaiHandle::Config::SampleRate samplerate;
  34:../../libDaisy//src/hid/audio.h **** 
ARM GAS  /var/folders/1y/_321xjh9623c014x9_qw12rr0000gn/T//cc4eHiNS.s 			page 112


  35:../../libDaisy//src/hid/audio.h ****         /** factor for adjustment before and after callback for hardware that may have extra headro
  36:../../libDaisy//src/hid/audio.h ****         float postgain;
  37:../../libDaisy//src/hid/audio.h **** 
  38:../../libDaisy//src/hid/audio.h ****         /** factor for additional one-sided compensation to audio path for hardware that may
  39:../../libDaisy//src/hid/audio.h ****          *  have unequal input/output ranges
  40:../../libDaisy//src/hid/audio.h ****          */
  41:../../libDaisy//src/hid/audio.h ****         float output_compensation;
  42:../../libDaisy//src/hid/audio.h **** 
  43:../../libDaisy//src/hid/audio.h ****         /** Sets default values for config struct */
  44:../../libDaisy//src/hid/audio.h ****         Config()
 3582              		.loc 14 44 9 view .LVU959
 3583              	.LBB854:
 3584              	.LBB855:
  45:../../libDaisy//src/hid/audio.h ****         : blocksize(48),
  46:../../libDaisy//src/hid/audio.h ****           samplerate(SaiHandle::Config::SampleRate::SAI_48KHZ),
  47:../../libDaisy//src/hid/audio.h ****           postgain(1.f),
  48:../../libDaisy//src/hid/audio.h ****           output_compensation(1.f)
 3585              		.loc 14 48 34 is_stmt 0 view .LVU960
 3586 00d2 3021     		movs	r1, #48
 3587 00d4 4FF07E52 		mov	r2, #1065353216
 3588              	.LBE855:
 3589              	.LBE854:
 3590              	.LBE853:
 429:Dubby.cpp     ****     seed.audio_handle.Init(cfg, sai_handle[0], sai_handle[1]);
 3591              		.loc 2 429 27 view .LVU961
 3592 00d8 049B     		ldr	r3, [sp, #16]
 3593 00da 7818     		adds	r0, r7, r1
 3594              	.LBB860:
 3595              	.LBB858:
 3596              	.LBB856:
 3597              		.loc 14 48 34 view .LVU962
 3598 00dc 0591     		str	r1, [sp, #20]
 3599 00de 0892     		str	r2, [sp, #32]	@ float
 3600              	.LVL251:
 3601              		.loc 14 48 34 view .LVU963
 3602              	.LBE856:
 3603              	.LBE858:
 3604              	.LBE860:
 426:Dubby.cpp     ****     cfg.samplerate = SaiHandle::Config::SampleRate::SAI_48KHZ;
 3605              		.loc 2 426 5 is_stmt 1 view .LVU964
 427:Dubby.cpp     ****     cfg.postgain   = 0.5f;
 3606              		.loc 2 427 5 view .LVU965
 428:Dubby.cpp     ****     seed.audio_handle.Init(cfg, sai_handle[0], sai_handle[1]);
 3607              		.loc 2 428 5 view .LVU966
 3608              		.loc 2 429 27 is_stmt 0 view .LVU967
 3609 00e0 05A9     		add	r1, sp, #20
 3610 00e2 039A     		ldr	r2, [sp, #12]
 3611              	.LBB861:
 3612              	.LBB859:
 3613              	.LBB857:
 3614              		.loc 14 48 34 view .LVU968
 3615 00e4 CDF81880 		str	r8, [sp, #24]
 3616              	.LBE857:
 3617              	.LBE859:
 3618              	.LBE861:
 428:Dubby.cpp     ****     seed.audio_handle.Init(cfg, sai_handle[0], sai_handle[1]);
 3619              		.loc 2 428 20 view .LVU969
ARM GAS  /var/folders/1y/_321xjh9623c014x9_qw12rr0000gn/T//cc4eHiNS.s 			page 113


 3620 00e8 0794     		str	r4, [sp, #28]	@ float
 3621              		.loc 2 429 5 is_stmt 1 view .LVU970
 3622              		.loc 2 429 27 is_stmt 0 view .LVU971
 3623 00ea FFF7FEFF 		bl	_ZN5daisy11AudioHandle4InitERKNS0_6ConfigENS_9SaiHandleES4_
 3624              	.LVL252:
 3625              	.LBB862:
 3626              	.LBI862:
  29:../../libDaisy//src/dev/codec_pcm3060.h ****     ~Pcm3060() {}
 3627              		.loc 12 29 5 is_stmt 1 view .LVU972
 3628              		.loc 12 29 5 is_stmt 0 view .LVU973
 3629              	.LBE862:
 430:Dubby.cpp     **** }
 3630              		.loc 2 430 1 view .LVU974
 3631 00ee 22B0     		add	sp, sp, #136
 3632              		.cfi_remember_state
 3633              		.cfi_def_cfa_offset 24
 3634              		@ sp needed
 3635 00f0 BDE8F081 		pop	{r4, r5, r6, r7, r8, pc}
 3636              	.LVL253:
 3637              	.L214:
 3638              		.cfi_restore_state
 366:Dubby.cpp     ****         sai_config[0].pin_config.sb = {DSY_GPIOE, 3};
 3639              		.loc 2 366 9 is_stmt 1 view .LVU975
 366:Dubby.cpp     ****         sai_config[0].pin_config.sb = {DSY_GPIOE, 3};
 3640              		.loc 2 366 37 is_stmt 0 view .LVU976
 3641 00f4 2A88     		ldrh	r2, [r5]
 367:Dubby.cpp     ****         sai_config[0].a_dir         = SaiHandle::Config::Direction::RECEIVE;
 3642              		.loc 2 367 37 view .LVU977
 3643 00f6 AB88     		ldrh	r3, [r5, #4]
 368:Dubby.cpp     ****         sai_config[0].b_dir         = SaiHandle::Config::Direction::TRANSMIT;
 3644              		.loc 2 368 37 view .LVU978
 3645 00f8 1690     		str	r0, [sp, #88]
 369:Dubby.cpp     ****     }
 3646              		.loc 2 369 37 view .LVU979
 3647 00fa 1791     		str	r1, [sp, #92]
 366:Dubby.cpp     ****         sai_config[0].pin_config.sb = {DSY_GPIOE, 3};
 3648              		.loc 2 366 37 view .LVU980
 3649 00fc ADF84220 		strh	r2, [sp, #66]	@ movhi
 367:Dubby.cpp     ****         sai_config[0].a_dir         = SaiHandle::Config::Direction::RECEIVE;
 3650              		.loc 2 367 9 is_stmt 1 view .LVU981
 367:Dubby.cpp     ****         sai_config[0].a_dir         = SaiHandle::Config::Direction::RECEIVE;
 3651              		.loc 2 367 37 is_stmt 0 view .LVU982
 3652 0100 ADF84430 		strh	r3, [sp, #68]	@ movhi
 368:Dubby.cpp     ****         sai_config[0].b_dir         = SaiHandle::Config::Direction::TRANSMIT;
 3653              		.loc 2 368 9 is_stmt 1 view .LVU983
 369:Dubby.cpp     ****     }
 3654              		.loc 2 369 9 view .LVU984
 3655 0104 91E7     		b	.L212
 3656              	.L216:
 3657 0106 00BF     		.align	2
 3658              	.L215:
 3659 0108 00000000 		.word	.LANCHOR1
 3660 010c 00040258 		.word	1476527104
 3661              		.cfi_endproc
 3662              	.LFE2600:
 3664              		.section	.rodata._ZN5daisy5Dubby14GetTextForEnumENS0_9MenuTypesEi.str1.4,"aMS",%progbits,1
 3665              		.align	2
ARM GAS  /var/folders/1y/_321xjh9623c014x9_qw12rr0000gn/T//cc4eHiNS.s 			page 114


 3666              	.LC16:
 3667 0000 00       		.ascii	"\000"
 3668              		.section	.text._ZN5daisy5Dubby14GetTextForEnumENS0_9MenuTypesEi,"ax",%progbits
 3669              		.align	1
 3670              		.p2align 2,,3
 3671              		.global	_ZN5daisy5Dubby14GetTextForEnumENS0_9MenuTypesEi
 3672              		.syntax unified
 3673              		.thumb
 3674              		.thumb_func
 3676              	_ZN5daisy5Dubby14GetTextForEnumENS0_9MenuTypesEi:
 3677              	.LVL254:
 3678              	.LFB2601:
 431:Dubby.cpp     **** 
 432:Dubby.cpp     **** const char * Dubby::GetTextForEnum(MenuTypes m, int enumVal)
 433:Dubby.cpp     **** {
 3679              		.loc 2 433 1 view -0
 3680              		.cfi_startproc
 3681              		@ args = 0, pretend = 0, frame = 0
 3682              		@ frame_needed = 0, uses_anonymous_args = 0
 3683              		@ link register save eliminated.
 434:Dubby.cpp     ****     switch (m)
 3684              		.loc 2 434 5 view .LVU986
 3685 0000 39B1     		cbz	r1, .L218
 3686 0002 0129     		cmp	r1, #1
 3687 0004 03D1     		bne	.L221
 435:Dubby.cpp     ****     {
 436:Dubby.cpp     ****         case MAINMENU:
 437:Dubby.cpp     ****             return MenuItemsStrings[enumVal];
 438:Dubby.cpp     ****             break;
 3688              		.loc 2 438 13 view .LVU987
 439:Dubby.cpp     ****         case PREFERENCESMENU:
 3689              		.loc 2 439 9 view .LVU988
 440:Dubby.cpp     ****             return PreferencesMenuItemsStrings[enumVal];
 3690              		.loc 2 440 13 view .LVU989
 3691              		.loc 2 440 55 is_stmt 0 view .LVU990
 3692 0006 00EB8200 		add	r0, r0, r2, lsl #2
 3693              	.LVL255:
 3694              		.loc 2 440 55 view .LVU991
 3695 000a C068     		ldr	r0, [r0, #12]
 441:Dubby.cpp     ****             break;
 442:Dubby.cpp     ****         default:
 443:Dubby.cpp     ****             return "";
 444:Dubby.cpp     ****             break;
 445:Dubby.cpp     ****     }
 446:Dubby.cpp     **** }...
 3696              		.loc 2 446 1 view .LVU992
 3697 000c 7047     		bx	lr
 3698              	.LVL256:
 3699              	.L221:
 434:Dubby.cpp     ****     switch (m)
 3700              		.loc 2 434 5 view .LVU993
 3701 000e 0248     		ldr	r0, .L222
 3702              	.LVL257:
 434:Dubby.cpp     ****     switch (m)
 3703              		.loc 2 434 5 view .LVU994
 3704 0010 7047     		bx	lr
 3705              	.LVL258:
ARM GAS  /var/folders/1y/_321xjh9623c014x9_qw12rr0000gn/T//cc4eHiNS.s 			page 115


 3706              	.L218:
 436:Dubby.cpp     ****         case MAINMENU:
 3707              		.loc 2 436 9 is_stmt 1 view .LVU995
 437:Dubby.cpp     ****             return MenuItemsStrings[enumVal];
 3708              		.loc 2 437 13 view .LVU996
 437:Dubby.cpp     ****             return MenuItemsStrings[enumVal];
 3709              		.loc 2 437 44 is_stmt 0 view .LVU997
 3710 0012 50F82200 		ldr	r0, [r0, r2, lsl #2]
 3711              	.LVL259:
 437:Dubby.cpp     ****             return MenuItemsStrings[enumVal];
 3712              		.loc 2 437 44 view .LVU998
 3713 0016 7047     		bx	lr
 3714              	.L223:
 3715              		.align	2
 3716              	.L222:
 3717 0018 00000000 		.word	.LC16
 3718              		.cfi_endproc
 3719              	.LFE2601:
 3721              		.section	.text._ZN5daisy25OneBitGraphicsDisplayImplINS_11OledDisplayINS_13SSD130xDriverILj128ELj64
 3722              		.align	1
 3723              		.p2align 2,,3
 3724              		.weak	_ZN5daisy25OneBitGraphicsDisplayImplINS_11OledDisplayINS_13SSD130xDriverILj128ELj64ENS_24SSD
 3725              		.syntax unified
 3726              		.thumb
 3727              		.thumb_func
 3729              	_ZN5daisy25OneBitGraphicsDisplayImplINS_11OledDisplayINS_13SSD130xDriverILj128ELj64ENS_24SSD130x4Wi
 3730              	.LVL260:
 3731              	.LFB2636:
 269:../../libDaisy//src/hid/disp/display.h ****                 {
 270:../../libDaisy//src/hid/disp/display.h ****                     ((ChildType*)(this))->ChildType::DrawPixel(x, y, on);
 271:../../libDaisy//src/hid/disp/display.h ****                 }
 272:../../libDaisy//src/hid/disp/display.h ****             }
 273:../../libDaisy//src/hid/disp/display.h ****         }
 274:../../libDaisy//src/hid/disp/display.h ****         else
 275:../../libDaisy//src/hid/disp/display.h ****         {
 276:../../libDaisy//src/hid/disp/display.h ****             ((ChildType*)(this))->ChildType::DrawLine(x1, y1, x2, y1, on);
 277:../../libDaisy//src/hid/disp/display.h ****             ((ChildType*)(this))->ChildType::DrawLine(x2, y1, x2, y2, on);
 278:../../libDaisy//src/hid/disp/display.h ****             ((ChildType*)(this))->ChildType::DrawLine(x2, y2, x1, y2, on);
 279:../../libDaisy//src/hid/disp/display.h ****             ((ChildType*)(this))->ChildType::DrawLine(x1, y2, x1, y1, on);
 280:../../libDaisy//src/hid/disp/display.h ****         }
 281:../../libDaisy//src/hid/disp/display.h ****     }
 282:../../libDaisy//src/hid/disp/display.h **** 
 283:../../libDaisy//src/hid/disp/display.h ****     void DrawArc(uint_fast8_t x,
 284:../../libDaisy//src/hid/disp/display.h ****                  uint_fast8_t y,
 285:../../libDaisy//src/hid/disp/display.h ****                  uint_fast8_t radius,
 286:../../libDaisy//src/hid/disp/display.h ****                  int_fast16_t start_angle,
 287:../../libDaisy//src/hid/disp/display.h ****                  int_fast16_t sweep,
 288:../../libDaisy//src/hid/disp/display.h ****                  bool         on) override
 289:../../libDaisy//src/hid/disp/display.h ****     {
 290:../../libDaisy//src/hid/disp/display.h ****         // Values to calculate the circle
 291:../../libDaisy//src/hid/disp/display.h ****         int_fast16_t t_x, t_y, err, e2;
 292:../../libDaisy//src/hid/disp/display.h **** 
 293:../../libDaisy//src/hid/disp/display.h ****         // Temporary values to speed up comparisons
 294:../../libDaisy//src/hid/disp/display.h ****         float t_sxy, t_syx, t_sxny, t_synx;
 295:../../libDaisy//src/hid/disp/display.h ****         float t_exy, t_eyx, t_exny, t_eynx;
 296:../../libDaisy//src/hid/disp/display.h **** 
 297:../../libDaisy//src/hid/disp/display.h ****         float start_angle_rad, end_angle_rad;
ARM GAS  /var/folders/1y/_321xjh9623c014x9_qw12rr0000gn/T//cc4eHiNS.s 			page 116


 298:../../libDaisy//src/hid/disp/display.h ****         float start_x, start_y, end_x, end_y;
 299:../../libDaisy//src/hid/disp/display.h **** 
 300:../../libDaisy//src/hid/disp/display.h ****         bool d1, d2, d3, d4;
 301:../../libDaisy//src/hid/disp/display.h **** 
 302:../../libDaisy//src/hid/disp/display.h ****         d1 = d2 = d3 = d4 = true;
 303:../../libDaisy//src/hid/disp/display.h **** 
 304:../../libDaisy//src/hid/disp/display.h ****         bool circle = false;
 305:../../libDaisy//src/hid/disp/display.h **** 
 306:../../libDaisy//src/hid/disp/display.h ****         if(sweep < 0)
 307:../../libDaisy//src/hid/disp/display.h ****         {
 308:../../libDaisy//src/hid/disp/display.h ****             start_angle += sweep;
 309:../../libDaisy//src/hid/disp/display.h ****             sweep = -sweep;
 310:../../libDaisy//src/hid/disp/display.h ****         }
 311:../../libDaisy//src/hid/disp/display.h **** 
 312:../../libDaisy//src/hid/disp/display.h ****         start_angle_rad = deg2rad(start_angle);
 313:../../libDaisy//src/hid/disp/display.h ****         end_angle_rad   = deg2rad(start_angle + sweep);
 314:../../libDaisy//src/hid/disp/display.h **** 
 315:../../libDaisy//src/hid/disp/display.h ****         start_x = cos(start_angle_rad) * radius;
 316:../../libDaisy//src/hid/disp/display.h ****         start_y = -sin(start_angle_rad) * radius;
 317:../../libDaisy//src/hid/disp/display.h ****         end_x   = cos(end_angle_rad) * radius;
 318:../../libDaisy//src/hid/disp/display.h ****         end_y   = -sin(end_angle_rad) * radius;
 319:../../libDaisy//src/hid/disp/display.h **** 
 320:../../libDaisy//src/hid/disp/display.h ****         // Check if start and endpoint are very near
 321:../../libDaisy//src/hid/disp/display.h ****         if((end_x - start_x) * (end_x - start_x)
 322:../../libDaisy//src/hid/disp/display.h ****                + (end_y - start_y) * (end_y - start_y)
 323:../../libDaisy//src/hid/disp/display.h ****            < 2.0f)
 324:../../libDaisy//src/hid/disp/display.h ****         {
 325:../../libDaisy//src/hid/disp/display.h ****             if(sweep > 180)
 326:../../libDaisy//src/hid/disp/display.h ****                 circle = true;
 327:../../libDaisy//src/hid/disp/display.h ****             else
 328:../../libDaisy//src/hid/disp/display.h ****                 // Nothing to draw
 329:../../libDaisy//src/hid/disp/display.h ****                 return;
 330:../../libDaisy//src/hid/disp/display.h ****         }
 331:../../libDaisy//src/hid/disp/display.h **** 
 332:../../libDaisy//src/hid/disp/display.h ****         t_x = -radius;
 333:../../libDaisy//src/hid/disp/display.h ****         t_y = 0;
 334:../../libDaisy//src/hid/disp/display.h ****         err = 2 - 2 * radius;
 335:../../libDaisy//src/hid/disp/display.h **** 
 336:../../libDaisy//src/hid/disp/display.h ****         do
 337:../../libDaisy//src/hid/disp/display.h ****         {
 338:../../libDaisy//src/hid/disp/display.h ****             if(!circle)
 339:../../libDaisy//src/hid/disp/display.h ****             {
 340:../../libDaisy//src/hid/disp/display.h ****                 t_sxy  = start_x * t_y;
 341:../../libDaisy//src/hid/disp/display.h ****                 t_syx  = start_y * t_x;
 342:../../libDaisy//src/hid/disp/display.h ****                 t_sxny = start_x * -t_y;
 343:../../libDaisy//src/hid/disp/display.h ****                 t_synx = start_y * -t_x;
 344:../../libDaisy//src/hid/disp/display.h ****                 t_exy  = end_x * t_y;
 345:../../libDaisy//src/hid/disp/display.h ****                 t_eyx  = end_y * t_x;
 346:../../libDaisy//src/hid/disp/display.h ****                 t_exny = end_x * -t_y;
 347:../../libDaisy//src/hid/disp/display.h ****                 t_eynx = end_y * -t_x;
 348:../../libDaisy//src/hid/disp/display.h **** 
 349:../../libDaisy//src/hid/disp/display.h ****                 if(sweep > 180)
 350:../../libDaisy//src/hid/disp/display.h ****                 {
 351:../../libDaisy//src/hid/disp/display.h ****                     d1 = (t_sxy - t_synx < 0 || t_exy - t_eynx > 0);
 352:../../libDaisy//src/hid/disp/display.h ****                     d2 = (t_sxy - t_syx < 0 || t_exy - t_eyx > 0);
 353:../../libDaisy//src/hid/disp/display.h ****                     d3 = (t_sxny - t_syx < 0 || t_exny - t_eyx > 0);
 354:../../libDaisy//src/hid/disp/display.h ****                     d4 = (t_sxny - t_synx < 0 || t_exny - t_eynx > 0);
ARM GAS  /var/folders/1y/_321xjh9623c014x9_qw12rr0000gn/T//cc4eHiNS.s 			page 117


 355:../../libDaisy//src/hid/disp/display.h ****                 }
 356:../../libDaisy//src/hid/disp/display.h ****                 else
 357:../../libDaisy//src/hid/disp/display.h ****                 {
 358:../../libDaisy//src/hid/disp/display.h ****                     d1 = (t_sxy - t_synx < 0 && t_exy - t_eynx > 0);
 359:../../libDaisy//src/hid/disp/display.h ****                     d2 = (t_sxy - t_syx < 0 && t_exy - t_eyx > 0);
 360:../../libDaisy//src/hid/disp/display.h ****                     d3 = (t_sxny - t_syx < 0 && t_exny - t_eyx > 0);
 361:../../libDaisy//src/hid/disp/display.h ****                     d4 = (t_sxny - t_synx < 0 && t_exny - t_eynx > 0);
 362:../../libDaisy//src/hid/disp/display.h ****                 }
 363:../../libDaisy//src/hid/disp/display.h ****             }
 364:../../libDaisy//src/hid/disp/display.h **** 
 365:../../libDaisy//src/hid/disp/display.h ****             if(d1)
 366:../../libDaisy//src/hid/disp/display.h ****                 ((ChildType*)(this))
 367:../../libDaisy//src/hid/disp/display.h ****                     ->ChildType::DrawPixel(x - t_x, y + t_y, on);
 368:../../libDaisy//src/hid/disp/display.h ****             if(d2)
 369:../../libDaisy//src/hid/disp/display.h ****                 ((ChildType*)(this))
 370:../../libDaisy//src/hid/disp/display.h ****                     ->ChildType::DrawPixel(x + t_x, y + t_y, on);
 371:../../libDaisy//src/hid/disp/display.h ****             if(d3)
 372:../../libDaisy//src/hid/disp/display.h ****                 ((ChildType*)(this))
 373:../../libDaisy//src/hid/disp/display.h ****                     ->ChildType::DrawPixel(x + t_x, y - t_y, on);
 374:../../libDaisy//src/hid/disp/display.h ****             if(d4)
 375:../../libDaisy//src/hid/disp/display.h ****                 ((ChildType*)(this))
 376:../../libDaisy//src/hid/disp/display.h ****                     ->ChildType::DrawPixel(x - t_x, y - t_y, on);
 377:../../libDaisy//src/hid/disp/display.h **** 
 378:../../libDaisy//src/hid/disp/display.h ****             e2 = err;
 379:../../libDaisy//src/hid/disp/display.h ****             if(e2 <= t_y)
 380:../../libDaisy//src/hid/disp/display.h ****             {
 381:../../libDaisy//src/hid/disp/display.h ****                 t_y++;
 382:../../libDaisy//src/hid/disp/display.h ****                 err = err + (t_y * 2 + 1);
 383:../../libDaisy//src/hid/disp/display.h ****                 if(-t_x == t_y && e2 <= t_x)
 384:../../libDaisy//src/hid/disp/display.h ****                 {
 385:../../libDaisy//src/hid/disp/display.h ****                     e2 = 0;
 386:../../libDaisy//src/hid/disp/display.h ****                 }
 387:../../libDaisy//src/hid/disp/display.h ****             }
 388:../../libDaisy//src/hid/disp/display.h ****             if(e2 > t_x)
 389:../../libDaisy//src/hid/disp/display.h ****             {
 390:../../libDaisy//src/hid/disp/display.h ****                 t_x++;
 391:../../libDaisy//src/hid/disp/display.h ****                 err = err + (t_x * 2 + 1);
 392:../../libDaisy//src/hid/disp/display.h ****             }
 393:../../libDaisy//src/hid/disp/display.h ****         } while(t_x <= 0);
 394:../../libDaisy//src/hid/disp/display.h ****     }
 395:../../libDaisy//src/hid/disp/display.h **** 
 396:../../libDaisy//src/hid/disp/display.h ****     char WriteChar(char ch, FontDef font, bool on) override
 397:../../libDaisy//src/hid/disp/display.h ****     {
 398:../../libDaisy//src/hid/disp/display.h ****         uint32_t i, b, j;
 399:../../libDaisy//src/hid/disp/display.h **** 
 400:../../libDaisy//src/hid/disp/display.h ****         // Check if character is valid
 401:../../libDaisy//src/hid/disp/display.h ****         if(ch < 32 || ch > 126)
 402:../../libDaisy//src/hid/disp/display.h ****             return 0;
 403:../../libDaisy//src/hid/disp/display.h **** 
 404:../../libDaisy//src/hid/disp/display.h ****         // Check remaining space on current line
 405:../../libDaisy//src/hid/disp/display.h ****         if(Width() < (currentX_ + font.FontWidth)
 406:../../libDaisy//src/hid/disp/display.h ****            || Height() < (currentY_ + font.FontHeight))
 407:../../libDaisy//src/hid/disp/display.h ****         {
 408:../../libDaisy//src/hid/disp/display.h ****             // Not enough space on current line
 409:../../libDaisy//src/hid/disp/display.h ****             return 0;
 410:../../libDaisy//src/hid/disp/display.h ****         }
 411:../../libDaisy//src/hid/disp/display.h **** 
ARM GAS  /var/folders/1y/_321xjh9623c014x9_qw12rr0000gn/T//cc4eHiNS.s 			page 118


 412:../../libDaisy//src/hid/disp/display.h ****         // Use the font to write
 413:../../libDaisy//src/hid/disp/display.h ****         for(i = 0; i < font.FontHeight; i++)
 414:../../libDaisy//src/hid/disp/display.h ****         {
 415:../../libDaisy//src/hid/disp/display.h ****             b = font.data[(ch - 32) * font.FontHeight + i];
 416:../../libDaisy//src/hid/disp/display.h ****             for(j = 0; j < font.FontWidth; j++)
 417:../../libDaisy//src/hid/disp/display.h ****             {
 418:../../libDaisy//src/hid/disp/display.h ****                 if((b << j) & 0x8000)
 419:../../libDaisy//src/hid/disp/display.h ****                 {
 420:../../libDaisy//src/hid/disp/display.h ****                     ((ChildType*)(this))
 421:../../libDaisy//src/hid/disp/display.h ****                         ->ChildType::DrawPixel(
 422:../../libDaisy//src/hid/disp/display.h ****                             currentX_ + j, (currentY_ + i), on);
 423:../../libDaisy//src/hid/disp/display.h ****                 }
 424:../../libDaisy//src/hid/disp/display.h ****                 else
 425:../../libDaisy//src/hid/disp/display.h ****                 {
 426:../../libDaisy//src/hid/disp/display.h ****                     ((ChildType*)(this))
 427:../../libDaisy//src/hid/disp/display.h ****                         ->ChildType::DrawPixel(
 428:../../libDaisy//src/hid/disp/display.h ****                             currentX_ + j, (currentY_ + i), !on);
 429:../../libDaisy//src/hid/disp/display.h ****                 }
 430:../../libDaisy//src/hid/disp/display.h ****             }
 431:../../libDaisy//src/hid/disp/display.h ****         }
 432:../../libDaisy//src/hid/disp/display.h **** 
 433:../../libDaisy//src/hid/disp/display.h ****         // The current space is now taken
 434:../../libDaisy//src/hid/disp/display.h ****         SetCursor(currentX_ + font.FontWidth, currentY_);
 435:../../libDaisy//src/hid/disp/display.h **** 
 436:../../libDaisy//src/hid/disp/display.h ****         // Return written char for validation
 437:../../libDaisy//src/hid/disp/display.h ****         return ch;
 438:../../libDaisy//src/hid/disp/display.h ****     }
 439:../../libDaisy//src/hid/disp/display.h **** 
 440:../../libDaisy//src/hid/disp/display.h ****     char WriteString(const char* str, FontDef font, bool on) override
 3732              		.loc 3 440 10 is_stmt 1 view -0
 3733              		.cfi_startproc
 3734              		@ args = 4, pretend = 0, frame = 32
 3735              		@ frame_needed = 0, uses_anonymous_args = 0
 3736              		.loc 3 440 10 is_stmt 0 view .LVU1000
 3737 0000 2DE9F04F 		push	{r4, r5, r6, r7, r8, r9, r10, fp, lr}
 3738              		.cfi_def_cfa_offset 36
 3739              		.cfi_offset 4, -36
 3740              		.cfi_offset 5, -32
 3741              		.cfi_offset 6, -28
 3742              		.cfi_offset 7, -24
 3743              		.cfi_offset 8, -20
 3744              		.cfi_offset 9, -16
 3745              		.cfi_offset 10, -12
 3746              		.cfi_offset 11, -8
 3747              		.cfi_offset 14, -4
 3748 0004 89B0     		sub	sp, sp, #36
 3749              		.cfi_def_cfa_offset 72
 3750              		.loc 3 440 10 view .LVU1001
 3751 0006 08AC     		add	r4, sp, #32
 3752 0008 9DF84870 		ldrb	r7, [sp, #72]	@ zero_extendqisi2
 3753 000c 0191     		str	r1, [sp, #4]
 3754 000e 04E90C00 		stmdb	r4, {r2, r3}
 441:../../libDaisy//src/hid/disp/display.h ****     {
 442:../../libDaisy//src/hid/disp/display.h ****         // Write until null-byte
 443:../../libDaisy//src/hid/disp/display.h ****         while(*str)
 3755              		.loc 3 443 9 is_stmt 1 view .LVU1002
 3756 0012 0B78     		ldrb	r3, [r1]	@ zero_extendqisi2
ARM GAS  /var/folders/1y/_321xjh9623c014x9_qw12rr0000gn/T//cc4eHiNS.s 			page 119


 3757 0014 002B     		cmp	r3, #0
 3758 0016 00F0AB80 		beq	.L248
 3759 001a 1A46     		mov	r2, r3
 3760 001c 9DF81880 		ldrb	r8, [sp, #24]	@ zero_extendqisi2
 3761 0020 9DF81930 		ldrb	r3, [sp, #25]	@ zero_extendqisi2
 3762 0024 0646     		mov	r6, r0
 3763 0026 4546     		mov	r5, r8
 3764 0028 9046     		mov	r8, r2
 3765 002a 0393     		str	r3, [sp, #12]
 3766 002c 079B     		ldr	r3, [sp, #28]
 3767 002e 0593     		str	r3, [sp, #20]
 3768              	.LVL261:
 3769              	.L249:
 3770              	.LBB891:
 3771              	.LBI891:
 396:../../libDaisy//src/hid/disp/display.h ****     {
 3772              		.loc 3 396 10 view .LVU1003
 3773              	.LBB892:
 401:../../libDaisy//src/hid/disp/display.h ****             return 0;
 3774              		.loc 3 401 20 is_stmt 0 view .LVU1004
 3775 0030 A8F12004 		sub	r4, r8, #32
 401:../../libDaisy//src/hid/disp/display.h ****             return 0;
 3776              		.loc 3 401 9 view .LVU1005
 3777 0034 E3B2     		uxtb	r3, r4
 3778 0036 5E2B     		cmp	r3, #94
 3779 0038 00F29E80 		bhi	.L230
 405:../../libDaisy//src/hid/disp/display.h ****            || Height() < (currentY_ + font.FontHeight))
 3780              		.loc 3 405 17 view .LVU1006
 3781 003c 3368     		ldr	r3, [r6]
 3782 003e 5E4A     		ldr	r2, .L270
 3783 0040 DB68     		ldr	r3, [r3, #12]
 3784 0042 9342     		cmp	r3, r2
 3785 0044 40F09B80 		bne	.L263
 3786 0048 8020     		movs	r0, #128
 3787              	.L229:
 405:../../libDaisy//src/hid/disp/display.h ****            || Height() < (currentY_ + font.FontHeight))
 3788              		.loc 3 405 23 view .LVU1007
 3789 004a B388     		ldrh	r3, [r6, #4]
 405:../../libDaisy//src/hid/disp/display.h ****            || Height() < (currentY_ + font.FontHeight))
 3790              		.loc 3 405 33 view .LVU1008
 3791 004c 2B44     		add	r3, r3, r5
 406:../../libDaisy//src/hid/disp/display.h ****         {
 3792              		.loc 3 406 12 view .LVU1009
 3793 004e 8342     		cmp	r3, r0
 3794 0050 00F39280 		bgt	.L230
 406:../../libDaisy//src/hid/disp/display.h ****         {
 3795              		.loc 3 406 21 view .LVU1010
 3796 0054 3368     		ldr	r3, [r6]
 3797 0056 594A     		ldr	r2, .L270+4
 3798 0058 9B68     		ldr	r3, [r3, #8]
 3799 005a 9342     		cmp	r3, r2
 3800 005c 40F09280 		bne	.L264
 3801 0060 4020     		movs	r0, #64
 3802              	.L231:
 406:../../libDaisy//src/hid/disp/display.h ****         {
 3803              		.loc 3 406 27 view .LVU1011
 3804 0062 F188     		ldrh	r1, [r6, #6]
ARM GAS  /var/folders/1y/_321xjh9623c014x9_qw12rr0000gn/T//cc4eHiNS.s 			page 120


 406:../../libDaisy//src/hid/disp/display.h ****         {
 3805              		.loc 3 406 37 view .LVU1012
 3806 0064 039A     		ldr	r2, [sp, #12]
 406:../../libDaisy//src/hid/disp/display.h ****         {
 3807              		.loc 3 406 27 view .LVU1013
 3808 0066 0291     		str	r1, [sp, #8]
 406:../../libDaisy//src/hid/disp/display.h ****         {
 3809              		.loc 3 406 37 view .LVU1014
 3810 0068 8B18     		adds	r3, r1, r2
 406:../../libDaisy//src/hid/disp/display.h ****         {
 3811              		.loc 3 406 12 view .LVU1015
 3812 006a 8342     		cmp	r3, r0
 3813 006c 00F38480 		bgt	.L230
 3814              	.LVL262:
 413:../../libDaisy//src/hid/disp/display.h ****         {
 3815              		.loc 3 413 22 is_stmt 1 view .LVU1016
 3816 0070 002A     		cmp	r2, #0
 3817 0072 00F09180 		beq	.L232
 415:../../libDaisy//src/hid/disp/display.h ****             for(j = 0; j < font.FontWidth; j++)
 3818              		.loc 3 415 37 is_stmt 0 view .LVU1017
 3819 0076 02FB04F4 		mul	r4, r2, r4
 3820 007a 6FF00049 		mvn	r9, #-2147483648
 3821 007e 059B     		ldr	r3, [sp, #20]
 3822 0080 A144     		add	r9, r9, r4
 3823 0082 1444     		add	r4, r4, r2
 434:../../libDaisy//src/hid/disp/display.h **** 
 3824              		.loc 3 434 19 view .LVU1018
 3825 0084 B6F804B0 		ldrh	fp, [r6, #4]
 3826 0088 03EB4909 		add	r9, r3, r9, lsl #1
 3827 008c 023B     		subs	r3, r3, #2
 3828 008e CDF81080 		str	r8, [sp, #16]
 3829 0092 03EB4403 		add	r3, r3, r4, lsl #1
 3830 0096 0C46     		mov	r4, r1
 3831 0098 9A46     		mov	r10, r3
 3832              	.LVL263:
 3833              	.L235:
 415:../../libDaisy//src/hid/disp/display.h ****             for(j = 0; j < font.FontWidth; j++)
 3834              		.loc 3 415 15 view .LVU1019
 3835 009a 39F802CF 		ldrh	ip, [r9, #2]!
 3836              	.LVL264:
 416:../../libDaisy//src/hid/disp/display.h ****             {
 3837              		.loc 3 416 26 is_stmt 1 view .LVU1020
 3838 009e A5B3     		cbz	r5, .L240
 3839              	.LBB893:
 3840              	.LBB894:
 3841              	.LBB895:
 3842              	.LBB896:
 3843              	.LBB897:
 359:../../libDaisy//src/dev/oled_ssd130x.h ****     }
 3844              		.loc 4 359 55 is_stmt 0 view .LVU1021
 3845 00a0 04F00703 		and	r3, r4, #7
 359:../../libDaisy//src/dev/oled_ssd130x.h ****     }
 3846              		.loc 4 359 49 view .LVU1022
 3847 00a4 4FF0010E 		mov	lr, #1
 359:../../libDaisy//src/dev/oled_ssd130x.h ****     }
 3848              		.loc 4 359 28 view .LVU1023
 3849 00a8 E208     		lsrs	r2, r4, #3
ARM GAS  /var/folders/1y/_321xjh9623c014x9_qw12rr0000gn/T//cc4eHiNS.s 			page 121


 3850 00aa 5946     		mov	r1, fp
 359:../../libDaisy//src/dev/oled_ssd130x.h ****     }
 3851              		.loc 4 359 49 view .LVU1024
 3852 00ac 0EFA03FE 		lsl	lr, lr, r3
 3853 00b0 0BF11403 		add	r3, fp, #20
 359:../../libDaisy//src/dev/oled_ssd130x.h ****     }
 3854              		.loc 4 359 42 view .LVU1025
 3855 00b4 4FFA8EFE 		sxtb	lr, lr
 3856 00b8 03EBC212 		add	r2, r3, r2, lsl #7
 3857              	.LBE897:
 3858              	.LBE896:
 3859              	.LBE895:
 3860              	.LBE894:
 3861              	.LBE893:
 416:../../libDaisy//src/hid/disp/display.h ****             {
 3862              		.loc 3 416 19 view .LVU1026
 3863 00bc 0023     		movs	r3, #0
 3864              	.LBB915:
 3865              	.LBB910:
 3866              	.LBB905:
 3867              	.LBB901:
 3868              	.LBB898:
 359:../../libDaisy//src/dev/oled_ssd130x.h ****     }
 3869              		.loc 4 359 42 view .LVU1027
 3870 00be 6FEA0E08 		mvn	r8, lr
 3871 00c2 3244     		add	r2, r2, r6
 3872 00c4 0DE0     		b	.L241
 3873              	.LVL265:
 3874              	.L265:
 359:../../libDaisy//src/dev/oled_ssd130x.h ****     }
 3875              		.loc 4 359 42 view .LVU1028
 3876              	.LBE898:
 3877              	.LBE901:
 3878              	.LBE905:
 3879              	.LBE910:
 3880              	.LBE915:
 3881              	.LBB916:
 3882              	.LBI916:
  42:../../libDaisy//src/hid/disp/oled_display.h ****     {
 3883              		.loc 1 42 10 is_stmt 1 view .LVU1029
 3884              	.LBB917:
 3885              	.LBI917:
 352:../../libDaisy//src/dev/oled_ssd130x.h ****     {
 3886              		.loc 4 352 10 view .LVU1030
 3887              	.LBB918:
 354:../../libDaisy//src/dev/oled_ssd130x.h ****             return;
 3888              		.loc 4 354 9 is_stmt 0 view .LVU1031
 3889 00c6 7F29     		cmp	r1, #127
 3890 00c8 06D8     		bhi	.L237
 3891 00ca 3F2C     		cmp	r4, #63
 3892 00cc 04D8     		bhi	.L237
 357:../../libDaisy//src/dev/oled_ssd130x.h ****         else
 3893              		.loc 4 357 42 view .LVU1032
 3894 00ce 1078     		ldrb	r0, [r2]	@ zero_extendqisi2
 356:../../libDaisy//src/dev/oled_ssd130x.h ****             buffer_[x + (y / 8) * width] |= (1 << (y % 8));
 3895              		.loc 4 356 9 view .LVU1033
 3896 00d0 97B1     		cbz	r7, .L239
ARM GAS  /var/folders/1y/_321xjh9623c014x9_qw12rr0000gn/T//cc4eHiNS.s 			page 122


 3897              	.L262:
 356:../../libDaisy//src/dev/oled_ssd130x.h ****             buffer_[x + (y / 8) * width] |= (1 << (y % 8));
 3898              		.loc 4 356 9 view .LVU1034
 3899              	.LBE918:
 3900              	.LBE917:
 3901              	.LBE916:
 3902              	.LBB919:
 3903              	.LBB911:
 3904              	.LBB906:
 357:../../libDaisy//src/dev/oled_ssd130x.h ****         else
 3905              		.loc 4 357 42 view .LVU1035
 3906 00d2 4EEA0000 		orr	r0, lr, r0
 3907 00d6 1070     		strb	r0, [r2]
 3908              	.L237:
 3909              	.LBE906:
 3910              	.LBE911:
 3911              	.LBE919:
 416:../../libDaisy//src/hid/disp/display.h ****             {
 3912              		.loc 3 416 13 is_stmt 1 view .LVU1036
 3913 00d8 0133     		adds	r3, r3, #1
 3914              	.LVL266:
 416:../../libDaisy//src/hid/disp/display.h ****             {
 3915              		.loc 3 416 26 view .LVU1037
 3916 00da 0132     		adds	r2, r2, #1
 3917 00dc 0131     		adds	r1, r1, #1
 3918 00de AB42     		cmp	r3, r5
 3919 00e0 13D0     		beq	.L240
 3920              	.LVL267:
 3921              	.L241:
 418:../../libDaisy//src/hid/disp/display.h ****                 {
 3922              		.loc 3 418 23 is_stmt 0 view .LVU1038
 3923 00e2 0CFA03F0 		lsl	r0, ip, r3
 418:../../libDaisy//src/hid/disp/display.h ****                 {
 3924              		.loc 3 418 17 view .LVU1039
 3925 00e6 0004     		lsls	r0, r0, #16
 3926 00e8 EDD4     		bmi	.L265
 3927              	.LVL268:
 3928              	.LBB920:
 3929              	.LBI893:
  42:../../libDaisy//src/hid/disp/oled_display.h ****     {
 3930              		.loc 1 42 10 is_stmt 1 view .LVU1040
 3931              	.LBB912:
 3932              	.LBI894:
 352:../../libDaisy//src/dev/oled_ssd130x.h ****     {
 3933              		.loc 4 352 10 view .LVU1041
 3934              	.LBB907:
 354:../../libDaisy//src/dev/oled_ssd130x.h ****             return;
 3935              		.loc 4 354 9 is_stmt 0 view .LVU1042
 3936 00ea 7F29     		cmp	r1, #127
 3937 00ec F4D8     		bhi	.L237
 3938 00ee 3F2C     		cmp	r4, #63
 3939 00f0 F2D8     		bhi	.L237
 357:../../libDaisy//src/dev/oled_ssd130x.h ****         else
 3940              		.loc 4 357 42 view .LVU1043
 3941 00f2 1078     		ldrb	r0, [r2]	@ zero_extendqisi2
 356:../../libDaisy//src/dev/oled_ssd130x.h ****             buffer_[x + (y / 8) * width] |= (1 << (y % 8));
 3942              		.loc 4 356 9 view .LVU1044
ARM GAS  /var/folders/1y/_321xjh9623c014x9_qw12rr0000gn/T//cc4eHiNS.s 			page 123


 3943 00f4 002F     		cmp	r7, #0
 3944 00f6 ECD0     		beq	.L262
 3945              	.L239:
 3946              	.LVL269:
 3947              	.LBB902:
 3948              	.LBI896:
 352:../../libDaisy//src/dev/oled_ssd130x.h ****     {
 3949              		.loc 4 352 10 is_stmt 1 view .LVU1045
 352:../../libDaisy//src/dev/oled_ssd130x.h ****     {
 3950              		.loc 4 352 10 is_stmt 0 view .LVU1046
 3951              	.LBE902:
 3952              	.LBE907:
 3953              	.LBE912:
 3954              	.LBE920:
 416:../../libDaisy//src/hid/disp/display.h ****             {
 3955              		.loc 3 416 13 view .LVU1047
 3956 00f8 0133     		adds	r3, r3, #1
 3957              	.LVL270:
 3958              	.LBB921:
 3959              	.LBB913:
 3960              	.LBB908:
 3961              	.LBB903:
 3962              	.LBB899:
 359:../../libDaisy//src/dev/oled_ssd130x.h ****     }
 3963              		.loc 4 359 42 view .LVU1048
 3964 00fa 08EA0000 		and	r0, r8, r0
 3965              	.LBE899:
 3966              	.LBE903:
 3967              	.LBE908:
 3968              	.LBE913:
 3969              	.LBE921:
 416:../../libDaisy//src/hid/disp/display.h ****             {
 3970              		.loc 3 416 26 view .LVU1049
 3971 00fe 0132     		adds	r2, r2, #1
 3972 0100 0131     		adds	r1, r1, #1
 3973 0102 AB42     		cmp	r3, r5
 3974              	.LBB922:
 3975              	.LBB914:
 3976              	.LBB909:
 3977              	.LBB904:
 3978              	.LBB900:
 359:../../libDaisy//src/dev/oled_ssd130x.h ****     }
 3979              		.loc 4 359 42 view .LVU1050
 3980 0104 02F8010C 		strb	r0, [r2, #-1]
 359:../../libDaisy//src/dev/oled_ssd130x.h ****     }
 3981              		.loc 4 359 42 view .LVU1051
 3982              	.LBE900:
 3983              	.LBE904:
 3984              	.LBE909:
 3985              	.LBE914:
 3986              	.LBE922:
 416:../../libDaisy//src/hid/disp/display.h ****             {
 3987              		.loc 3 416 13 is_stmt 1 view .LVU1052
 3988              	.LVL271:
 416:../../libDaisy//src/hid/disp/display.h ****             {
 3989              		.loc 3 416 26 view .LVU1053
 3990 0108 EBD1     		bne	.L241
ARM GAS  /var/folders/1y/_321xjh9623c014x9_qw12rr0000gn/T//cc4eHiNS.s 			page 124


 3991              	.LVL272:
 3992              	.L240:
 413:../../libDaisy//src/hid/disp/display.h ****         {
 3993              		.loc 3 413 9 view .LVU1054
 413:../../libDaisy//src/hid/disp/display.h ****         {
 3994              		.loc 3 413 22 view .LVU1055
 3995 010a D145     		cmp	r9, r10
 3996 010c 04F10104 		add	r4, r4, #1
 3997 0110 C3D1     		bne	.L235
 3998 0112 DDF81080 		ldr	r8, [sp, #16]
 3999              	.LVL273:
 4000              	.L234:
 4001              	.LBB923:
 4002              	.LBB924:
 173:../../libDaisy//src/hid/disp/display.h ****         currentY_ = (y >= Height()) ? Height() - 1 : y;
 4003              		.loc 3 173 33 is_stmt 0 view .LVU1056
 4004 0116 3268     		ldr	r2, [r6]
 4005              	.LBE924:
 4006              	.LBE923:
 434:../../libDaisy//src/hid/disp/display.h **** 
 4007              		.loc 3 434 18 view .LVU1057
 4008 0118 0BEB0504 		add	r4, fp, r5
 4009 011c 2649     		ldr	r1, .L270
 4010              	.LBB929:
 4011              	.LBB925:
 173:../../libDaisy//src/hid/disp/display.h ****         currentY_ = (y >= Height()) ? Height() - 1 : y;
 4012              		.loc 3 173 33 view .LVU1058
 4013 011e D368     		ldr	r3, [r2, #12]
 4014              	.LBE925:
 4015              	.LBE929:
 434:../../libDaisy//src/hid/disp/display.h **** 
 4016              		.loc 3 434 18 view .LVU1059
 4017 0120 A4B2     		uxth	r4, r4
 4018              	.LVL274:
 4019              	.LBB930:
 4020              	.LBI923:
 171:../../libDaisy//src/hid/disp/display.h ****     {
 4021              		.loc 3 171 10 is_stmt 1 view .LVU1060
 4022              	.LBB926:
 173:../../libDaisy//src/hid/disp/display.h ****         currentY_ = (y >= Height()) ? Height() - 1 : y;
 4023              		.loc 3 173 9 view .LVU1061
 4024 0122 8B42     		cmp	r3, r1
 4025 0124 34D1     		bne	.L266
 173:../../libDaisy//src/hid/disp/display.h ****         currentY_ = (y >= Height()) ? Height() - 1 : y;
 4026              		.loc 3 173 33 is_stmt 0 view .LVU1062
 4027 0126 8020     		movs	r0, #128
 4028              	.L242:
 173:../../libDaisy//src/hid/disp/display.h ****         currentY_ = (y >= Height()) ? Height() - 1 : y;
 4029              		.loc 3 173 19 view .LVU1063
 4030 0128 8442     		cmp	r4, r0
 4031 012a 04D3     		bcc	.L243
 173:../../libDaisy//src/hid/disp/display.h ****         currentY_ = (y >= Height()) ? Height() - 1 : y;
 4032              		.loc 3 173 44 view .LVU1064
 4033 012c D368     		ldr	r3, [r2, #12]
 4034 012e 2249     		ldr	r1, .L270
 4035 0130 8B42     		cmp	r3, r1
 4036 0132 3AD1     		bne	.L267
ARM GAS  /var/folders/1y/_321xjh9623c014x9_qw12rr0000gn/T//cc4eHiNS.s 			page 125


 4037 0134 7F24     		movs	r4, #127
 4038              	.LVL275:
 4039              	.L243:
 174:../../libDaisy//src/hid/disp/display.h ****     }
 4040              		.loc 3 174 34 view .LVU1065
 4041 0136 9368     		ldr	r3, [r2, #8]
 4042 0138 204A     		ldr	r2, .L270+4
 173:../../libDaisy//src/hid/disp/display.h ****         currentY_ = (y >= Height()) ? Height() - 1 : y;
 4043              		.loc 3 173 19 view .LVU1066
 4044 013a B480     		strh	r4, [r6, #4]	@ movhi
 174:../../libDaisy//src/hid/disp/display.h ****     }
 4045              		.loc 3 174 9 is_stmt 1 view .LVU1067
 4046 013c 9342     		cmp	r3, r2
 4047 013e 24D1     		bne	.L268
 174:../../libDaisy//src/hid/disp/display.h ****     }
 4048              		.loc 3 174 34 is_stmt 0 view .LVU1068
 4049 0140 4020     		movs	r0, #64
 4050              	.L245:
 174:../../libDaisy//src/hid/disp/display.h ****     }
 4051              		.loc 3 174 19 view .LVU1069
 4052 0142 029B     		ldr	r3, [sp, #8]
 4053 0144 8342     		cmp	r3, r0
 4054 0146 06D3     		bcc	.L246
 174:../../libDaisy//src/hid/disp/display.h ****     }
 4055              		.loc 3 174 46 view .LVU1070
 4056 0148 3368     		ldr	r3, [r6]
 4057 014a 1C4A     		ldr	r2, .L270+4
 4058 014c 9B68     		ldr	r3, [r3, #8]
 4059 014e 9342     		cmp	r3, r2
 4060 0150 25D1     		bne	.L269
 4061 0152 3F23     		movs	r3, #63
 4062 0154 0293     		str	r3, [sp, #8]
 4063              	.LVL276:
 4064              	.L246:
 174:../../libDaisy//src/hid/disp/display.h ****     }
 4065              		.loc 3 174 19 view .LVU1071
 4066 0156 029B     		ldr	r3, [sp, #8]
 4067 0158 F380     		strh	r3, [r6, #6]	@ movhi
 4068              	.LVL277:
 4069              	.L228:
 174:../../libDaisy//src/hid/disp/display.h ****     }
 4070              		.loc 3 174 19 view .LVU1072
 4071              	.LBE926:
 4072              	.LBE930:
 4073              	.LBE892:
 4074              	.LBE891:
 444:../../libDaisy//src/hid/disp/display.h ****         {
 445:../../libDaisy//src/hid/disp/display.h ****             if(((ChildType*)(this))->ChildType::WriteChar(*str, font, on)
 446:../../libDaisy//src/hid/disp/display.h ****                != *str)
 4075              		.loc 3 446 16 view .LVU1073
 4076 015a 019B     		ldr	r3, [sp, #4]
 4077 015c 1878     		ldrb	r0, [r3]	@ zero_extendqisi2
 445:../../libDaisy//src/hid/disp/display.h ****                != *str)
 4078              		.loc 3 445 13 view .LVU1074
 4079 015e 4045     		cmp	r0, r8
 4080 0160 07D1     		bne	.L226
 4081              	.LVL278:
ARM GAS  /var/folders/1y/_321xjh9623c014x9_qw12rr0000gn/T//cc4eHiNS.s 			page 126


 443:../../libDaisy//src/hid/disp/display.h ****         {
 4082              		.loc 3 443 9 is_stmt 1 view .LVU1075
 4083 0162 13F8018F 		ldrb	r8, [r3, #1]!	@ zero_extendqisi2
 4084              	.LVL279:
 443:../../libDaisy//src/hid/disp/display.h ****         {
 4085              		.loc 3 443 9 is_stmt 0 view .LVU1076
 4086 0166 0193     		str	r3, [sp, #4]
 4087 0168 B8F1000F 		cmp	r8, #0
 4088 016c 7FF460AF 		bne	.L249
 4089              	.LVL280:
 4090              	.L248:
 4091              	.LBB935:
 4092              	.LBB933:
 402:../../libDaisy//src/hid/disp/display.h **** 
 4093              		.loc 3 402 20 view .LVU1077
 4094 0170 0020     		movs	r0, #0
 4095              	.L226:
 4096              	.LBE933:
 4097              	.LBE935:
 447:../../libDaisy//src/hid/disp/display.h ****             {
 448:../../libDaisy//src/hid/disp/display.h ****                 // Char could not be written
 449:../../libDaisy//src/hid/disp/display.h ****                 return *str;
 450:../../libDaisy//src/hid/disp/display.h ****             }
 451:../../libDaisy//src/hid/disp/display.h **** 
 452:../../libDaisy//src/hid/disp/display.h ****             // Next char
 453:../../libDaisy//src/hid/disp/display.h ****             str++;
 454:../../libDaisy//src/hid/disp/display.h ****         }
 455:../../libDaisy//src/hid/disp/display.h **** 
 456:../../libDaisy//src/hid/disp/display.h ****         // Everything ok
 457:../../libDaisy//src/hid/disp/display.h ****         return *str;
 458:../../libDaisy//src/hid/disp/display.h ****     }
 4098              		.loc 3 458 5 view .LVU1078
 4099 0172 09B0     		add	sp, sp, #36
 4100              		.cfi_remember_state
 4101              		.cfi_def_cfa_offset 36
 4102              		@ sp needed
 4103 0174 BDE8F08F 		pop	{r4, r5, r6, r7, r8, r9, r10, fp, pc}
 4104              	.LVL281:
 4105              	.L230:
 4106              		.cfi_restore_state
 4107              	.LBB936:
 4108              	.LBB934:
 402:../../libDaisy//src/hid/disp/display.h **** 
 4109              		.loc 3 402 20 view .LVU1079
 4110 0178 4FF00008 		mov	r8, #0
 4111              	.LVL282:
 402:../../libDaisy//src/hid/disp/display.h **** 
 4112              		.loc 3 402 20 view .LVU1080
 4113 017c EDE7     		b	.L228
 4114              	.LVL283:
 4115              	.L263:
 405:../../libDaisy//src/hid/disp/display.h ****            || Height() < (currentY_ + font.FontHeight))
 4116              		.loc 3 405 17 view .LVU1081
 4117 017e 3046     		mov	r0, r6
 4118 0180 9847     		blx	r3
 4119              	.LVL284:
 4120 0182 62E7     		b	.L229
ARM GAS  /var/folders/1y/_321xjh9623c014x9_qw12rr0000gn/T//cc4eHiNS.s 			page 127


 4121              	.L264:
 406:../../libDaisy//src/hid/disp/display.h ****         {
 4122              		.loc 3 406 21 view .LVU1082
 4123 0184 3046     		mov	r0, r6
 4124 0186 9847     		blx	r3
 4125              	.LVL285:
 4126 0188 6BE7     		b	.L231
 4127              	.LVL286:
 4128              	.L268:
 4129              	.LBB931:
 4130              	.LBB927:
 174:../../libDaisy//src/hid/disp/display.h ****     }
 4131              		.loc 3 174 33 view .LVU1083
 4132 018a 3046     		mov	r0, r6
 4133 018c 9847     		blx	r3
 4134              	.LVL287:
 4135 018e D8E7     		b	.L245
 4136              	.LVL288:
 4137              	.L266:
 173:../../libDaisy//src/hid/disp/display.h ****         currentY_ = (y >= Height()) ? Height() - 1 : y;
 4138              		.loc 3 173 32 view .LVU1084
 4139 0190 3046     		mov	r0, r6
 4140 0192 9847     		blx	r3
 4141              	.LVL289:
 173:../../libDaisy//src/hid/disp/display.h ****         currentY_ = (y >= Height()) ? Height() - 1 : y;
 4142              		.loc 3 173 44 view .LVU1085
 4143 0194 3268     		ldr	r2, [r6]
 4144 0196 C7E7     		b	.L242
 4145              	.LVL290:
 4146              	.L232:
 173:../../libDaisy//src/hid/disp/display.h ****         currentY_ = (y >= Height()) ? Height() - 1 : y;
 4147              		.loc 3 173 44 view .LVU1086
 4148              	.LBE927:
 4149              	.LBE931:
 434:../../libDaisy//src/hid/disp/display.h **** 
 4150              		.loc 3 434 19 view .LVU1087
 4151 0198 B6F804B0 		ldrh	fp, [r6, #4]
 4152 019c BBE7     		b	.L234
 4153              	.LVL291:
 4154              	.L269:
 4155              	.LBB932:
 4156              	.LBB928:
 174:../../libDaisy//src/hid/disp/display.h ****     }
 4157              		.loc 3 174 45 view .LVU1088
 4158 019e 3046     		mov	r0, r6
 4159 01a0 9847     		blx	r3
 4160              	.LVL292:
 174:../../libDaisy//src/hid/disp/display.h ****     }
 4161              		.loc 3 174 19 view .LVU1089
 4162 01a2 0138     		subs	r0, r0, #1
 4163 01a4 83B2     		uxth	r3, r0
 4164 01a6 0293     		str	r3, [sp, #8]
 4165              	.LVL293:
 174:../../libDaisy//src/hid/disp/display.h ****     }
 4166              		.loc 3 174 19 view .LVU1090
 4167 01a8 D5E7     		b	.L246
 4168              	.LVL294:
ARM GAS  /var/folders/1y/_321xjh9623c014x9_qw12rr0000gn/T//cc4eHiNS.s 			page 128


 4169              	.L267:
 173:../../libDaisy//src/hid/disp/display.h ****         currentY_ = (y >= Height()) ? Height() - 1 : y;
 4170              		.loc 3 173 43 view .LVU1091
 4171 01aa 3046     		mov	r0, r6
 4172 01ac 9847     		blx	r3
 4173              	.LVL295:
 173:../../libDaisy//src/hid/disp/display.h ****         currentY_ = (y >= Height()) ? Height() - 1 : y;
 4174              		.loc 3 173 19 view .LVU1092
 4175 01ae 0138     		subs	r0, r0, #1
 174:../../libDaisy//src/hid/disp/display.h ****     }
 4176              		.loc 3 174 34 view .LVU1093
 4177 01b0 3268     		ldr	r2, [r6]
 173:../../libDaisy//src/hid/disp/display.h ****         currentY_ = (y >= Height()) ? Height() - 1 : y;
 4178              		.loc 3 173 19 view .LVU1094
 4179 01b2 84B2     		uxth	r4, r0
 4180              	.LVL296:
 173:../../libDaisy//src/hid/disp/display.h ****         currentY_ = (y >= Height()) ? Height() - 1 : y;
 4181              		.loc 3 173 19 view .LVU1095
 4182 01b4 BFE7     		b	.L243
 4183              	.L271:
 4184 01b6 00BF     		.align	2
 4185              	.L270:
 4186 01b8 00000000 		.word	_ZNK5daisy11OledDisplayINS_13SSD130xDriverILj128ELj64ENS_24SSD130x4WireSpiTransportEEEE5Widt
 4187 01bc 00000000 		.word	_ZNK5daisy11OledDisplayINS_13SSD130xDriverILj128ELj64ENS_24SSD130x4WireSpiTransportEEEE6Heig
 4188              	.LBE928:
 4189              	.LBE932:
 4190              	.LBE934:
 4191              	.LBE936:
 4192              		.cfi_endproc
 4193              	.LFE2636:
 4195              		.section	.text._ZN5daisy5Dubby18HightlightMenuItemEv,"ax",%progbits
 4196              		.align	1
 4197              		.p2align 2,,3
 4198              		.global	_ZN5daisy5Dubby18HightlightMenuItemEv
 4199              		.syntax unified
 4200              		.thumb
 4201              		.thumb_func
 4203              	_ZN5daisy5Dubby18HightlightMenuItemEv:
 4204              	.LVL297:
 4205              	.LFB2586:
 197:Dubby.cpp     **** {
 4206              		.loc 2 197 1 is_stmt 1 view -0
 4207              		.cfi_startproc
 4208              		@ args = 0, pretend = 0, frame = 8
 4209              		@ frame_needed = 0, uses_anonymous_args = 0
 198:Dubby.cpp     ****     display.DrawRect(menuBoxBounding[menuItemSelected][0], menuBoxBounding[menuItemSelected][1], me
 4210              		.loc 2 198 5 view .LVU1097
 197:Dubby.cpp     **** {
 4211              		.loc 2 197 1 is_stmt 0 view .LVU1098
 4212 0000 2DE9F043 		push	{r4, r5, r6, r7, r8, r9, lr}
 4213              		.cfi_def_cfa_offset 28
 4214              		.cfi_offset 4, -28
 4215              		.cfi_offset 5, -24
 4216              		.cfi_offset 6, -20
 4217              		.cfi_offset 7, -16
 4218              		.cfi_offset 8, -12
 4219              		.cfi_offset 9, -8
ARM GAS  /var/folders/1y/_321xjh9623c014x9_qw12rr0000gn/T//cc4eHiNS.s 			page 129


 4220              		.cfi_offset 14, -4
 198:Dubby.cpp     ****     display.DrawRect(menuBoxBounding[menuItemSelected][0], menuBoxBounding[menuItemSelected][1], me
 4221              		.loc 2 198 38 view .LVU1099
 4222 0004 90F858E0 		ldrb	lr, [r0, #88]	@ zero_extendqisi2
 197:Dubby.cpp     **** {
 4223              		.loc 2 197 1 view .LVU1100
 4224 0008 0446     		mov	r4, r0
 198:Dubby.cpp     ****     display.DrawRect(menuBoxBounding[menuItemSelected][0], menuBoxBounding[menuItemSelected][1], me
 4225              		.loc 2 198 21 view .LVU1101
 4226 000a 00F58A65 		add	r5, r0, #1104
 197:Dubby.cpp     **** {
 4227              		.loc 2 197 1 view .LVU1102
 4228 000e 85B0     		sub	sp, sp, #20
 4229              		.cfi_def_cfa_offset 48
 198:Dubby.cpp     ****     display.DrawRect(menuBoxBounding[menuItemSelected][0], menuBoxBounding[menuItemSelected][1], me
 4230              		.loc 2 198 95 view .LVU1103
 4231 0010 00EB0E13 		add	r3, r0, lr, lsl #4
 198:Dubby.cpp     ****     display.DrawRect(menuBoxBounding[menuItemSelected][0], menuBoxBounding[menuItemSelected][1], me
 4232              		.loc 2 198 21 view .LVU1104
 4233 0014 586F     		ldr	r0, [r3, #116]
 4234              	.LVL298:
 198:Dubby.cpp     ****     display.DrawRect(menuBoxBounding[menuItemSelected][0], menuBoxBounding[menuItemSelected][1], me
 4235              		.loc 2 198 21 view .LVU1105
 4236 0016 D3F88060 		ldr	r6, [r3, #128]
 4237              	.LVL299:
 198:Dubby.cpp     ****     display.DrawRect(menuBoxBounding[menuItemSelected][0], menuBoxBounding[menuItemSelected][1], me
 4238              		.loc 2 198 21 view .LVU1106
 4239 001a D3E91EC8 		ldrd	ip, r8, [r3, #120]
 4240              	.LVL300:
 4241              	.LBB1044:
 4242              	.LBI1044:
 257:../../libDaisy//src/hid/disp/display.h ****                   uint_fast8_t y1,
 4243              		.loc 3 257 10 is_stmt 1 view .LVU1107
 4244              	.LBB1045:
 4245              	.LBI1045:
 257:../../libDaisy//src/hid/disp/display.h ****                   uint_fast8_t y1,
 4246              		.loc 3 257 10 view .LVU1108
 4247              	.LBB1046:
 266:../../libDaisy//src/hid/disp/display.h ****             {
 4248              		.loc 3 266 40 view .LVU1109
 4249 001e 4045     		cmp	r0, r8
 4250 0020 1ED8     		bhi	.L276
 4251              	.LVL301:
 4252              	.L273:
 4253              	.LBB1047:
 268:../../libDaisy//src/hid/disp/display.h ****                 {
 4254              		.loc 3 268 44 view .LVU1110
 4255 0022 B445     		cmp	ip, r6
 4256 0024 19D8     		bhi	.L278
 4257              	.LBB1048:
 4258              	.LBB1049:
 4259              	.LBB1050:
 354:../../libDaisy//src/dev/oled_ssd130x.h ****             return;
 4260              		.loc 4 354 14 is_stmt 0 view .LVU1111
 4261 0026 7F28     		cmp	r0, #127
 4262 0028 6346     		mov	r3, ip
 4263 002a 94BF     		ite	ls
ARM GAS  /var/folders/1y/_321xjh9623c014x9_qw12rr0000gn/T//cc4eHiNS.s 			page 130


 4264 002c 0027     		movls	r7, #0
 4265 002e 0127     		movhi	r7, #1
 4266              	.LVL302:
 4267              	.L279:
 354:../../libDaisy//src/dev/oled_ssd130x.h ****             return;
 4268              		.loc 4 354 14 view .LVU1112
 4269              	.LBE1050:
 4270              	.LBE1049:
 4271              	.LBI1048:
  42:../../libDaisy//src/hid/disp/oled_display.h ****     {
 4272              		.loc 1 42 10 is_stmt 1 view .LVU1113
 4273              	.LBB1054:
 4274              	.LBI1049:
 352:../../libDaisy//src/dev/oled_ssd130x.h ****     {
 4275              		.loc 4 352 10 view .LVU1114
 352:../../libDaisy//src/dev/oled_ssd130x.h ****     {
 4276              		.loc 4 352 10 is_stmt 0 view .LVU1115
 4277              	.LBE1054:
 4278              	.LBE1048:
 268:../../libDaisy//src/hid/disp/display.h ****                 {
 4279              		.loc 3 268 17 is_stmt 1 view .LVU1116
 4280              	.LBB1058:
 4281              	.LBB1055:
 4282              	.LBB1051:
 357:../../libDaisy//src/dev/oled_ssd130x.h ****         else
 4283              		.loc 4 357 28 is_stmt 0 view .LVU1117
 4284 0030 DA08     		lsrs	r2, r3, #3
 357:../../libDaisy//src/dev/oled_ssd130x.h ****         else
 4285              		.loc 4 357 54 view .LVU1118
 4286 0032 03F00709 		and	r9, r3, #7
 357:../../libDaisy//src/dev/oled_ssd130x.h ****         else
 4287              		.loc 4 357 48 view .LVU1119
 4288 0036 0121     		movs	r1, #1
 354:../../libDaisy//src/dev/oled_ssd130x.h ****             return;
 4289              		.loc 4 354 9 view .LVU1120
 4290 0038 3F2B     		cmp	r3, #63
 357:../../libDaisy//src/dev/oled_ssd130x.h ****         else
 4291              		.loc 4 357 42 view .LVU1121
 4292 003a 00EBC212 		add	r2, r0, r2, lsl #7
 4293              	.LBE1051:
 4294              	.LBE1055:
 4295              	.LBE1058:
 268:../../libDaisy//src/hid/disp/display.h ****                 {
 4296              		.loc 3 268 17 view .LVU1122
 4297 003e 0B44     		add	r3, r3, r1
 4298              	.LVL303:
 268:../../libDaisy//src/hid/disp/display.h ****                 {
 4299              		.loc 3 268 44 is_stmt 1 view .LVU1123
 4300              	.LBB1059:
 4301              	.LBB1056:
 4302              	.LBB1052:
 357:../../libDaisy//src/dev/oled_ssd130x.h ****         else
 4303              		.loc 4 357 48 is_stmt 0 view .LVU1124
 4304 0040 01FA09F1 		lsl	r1, r1, r9
 354:../../libDaisy//src/dev/oled_ssd130x.h ****             return;
 4305              		.loc 4 354 9 view .LVU1125
 4306 0044 07D8     		bhi	.L277
ARM GAS  /var/folders/1y/_321xjh9623c014x9_qw12rr0000gn/T//cc4eHiNS.s 			page 131


 357:../../libDaisy//src/dev/oled_ssd130x.h ****         else
 4307              		.loc 4 357 42 view .LVU1126
 4308 0046 2244     		add	r2, r2, r4
 354:../../libDaisy//src/dev/oled_ssd130x.h ****             return;
 4309              		.loc 4 354 9 view .LVU1127
 4310 0048 2FB9     		cbnz	r7, .L277
 357:../../libDaisy//src/dev/oled_ssd130x.h ****         else
 4311              		.loc 4 357 42 view .LVU1128
 4312 004a 92F86494 		ldrb	r9, [r2, #1124]	@ zero_extendqisi2
 4313 004e 41EA0901 		orr	r1, r1, r9
 4314 0052 82F86414 		strb	r1, [r2, #1124]
 4315              	.L277:
 357:../../libDaisy//src/dev/oled_ssd130x.h ****         else
 4316              		.loc 4 357 42 view .LVU1129
 4317              	.LBE1052:
 4318              	.LBE1056:
 4319              	.LBE1059:
 268:../../libDaisy//src/hid/disp/display.h ****                 {
 4320              		.loc 3 268 44 view .LVU1130
 4321 0056 9E42     		cmp	r6, r3
 4322 0058 EAD2     		bcs	.L279
 4323              	.LVL304:
 4324              	.L278:
 268:../../libDaisy//src/hid/disp/display.h ****                 {
 4325              		.loc 3 268 44 view .LVU1131
 4326              	.LBE1047:
 266:../../libDaisy//src/hid/disp/display.h ****             {
 4327              		.loc 3 266 13 is_stmt 1 view .LVU1132
 4328 005a 0130     		adds	r0, r0, #1
 4329              	.LVL305:
 266:../../libDaisy//src/hid/disp/display.h ****             {
 4330              		.loc 3 266 40 view .LVU1133
 4331 005c 8045     		cmp	r8, r0
 4332 005e E0D2     		bcs	.L273
 4333              	.L276:
 4334              	.LBB1061:
 4335              	.LBB1060:
 4336              	.LBB1057:
 4337              	.LBB1053:
 354:../../libDaisy//src/dev/oled_ssd130x.h ****             return;
 4338              		.loc 4 354 14 is_stmt 0 view .LVU1134
 4339 0060 2746     		mov	r7, r4
 4340              	.LBE1053:
 4341              	.LBE1057:
 4342              	.LBE1060:
 4343              	.LBE1061:
 4344              	.LBE1046:
 4345              	.LBE1045:
 4346              	.LBE1044:
 4347              	.LBB1062:
 200:Dubby.cpp     ****     for (int i = 0; i < 3; i++) 
 4348              		.loc 2 200 14 view .LVU1135
 4349 0062 0026     		movs	r6, #0
 4350              	.LVL306:
 200:Dubby.cpp     ****     for (int i = 0; i < 3; i++) 
 4351              		.loc 2 200 14 view .LVU1136
 4352 0064 DFF88481 		ldr	r8, .L296
ARM GAS  /var/folders/1y/_321xjh9623c014x9_qw12rr0000gn/T//cc4eHiNS.s 			page 132


 4353              	.LVL307:
 4354              	.L274:
 202:Dubby.cpp     ****         display.SetCursor(menuTextCursors[i][0], menuTextCursors[i][1]);
 4355              		.loc 2 202 9 is_stmt 1 discriminator 2 view .LVU1137
 4356              	.LBB1063:
 4357              	.LBB1064:
 173:../../libDaisy//src/hid/disp/display.h ****         currentY_ = (y >= Height()) ? Height() - 1 : y;
 4358              		.loc 3 173 19 is_stmt 0 discriminator 2 view .LVU1138
 4359 0068 B7F85C90 		ldrh	r9, [r7, #92]
 4360              	.LBE1064:
 4361              	.LBE1063:
 203:Dubby.cpp     ****         display.WriteString(GetTextForEnum(MAINMENU, i), Font_6x8, i == menuItemSelected ? false : 
 4362              		.loc 2 203 28 discriminator 2 view .LVU1139
 4363 006c BEEB060E 		subs	lr, lr, r6
 202:Dubby.cpp     ****         display.SetCursor(menuTextCursors[i][0], menuTextCursors[i][1]);
 4364              		.loc 2 202 26 discriminator 2 view .LVU1140
 4365 0070 B7F860C0 		ldrh	ip, [r7, #96]
 4366              	.LVL308:
 4367              	.LBB1070:
 4368              	.LBI1063:
 171:../../libDaisy//src/hid/disp/display.h ****     {
 4369              		.loc 3 171 10 is_stmt 1 discriminator 2 view .LVU1141
 4370              	.LBB1065:
 173:../../libDaisy//src/hid/disp/display.h ****         currentY_ = (y >= Height()) ? Height() - 1 : y;
 4371              		.loc 3 173 9 discriminator 2 view .LVU1142
 4372              	.LBE1065:
 4373              	.LBE1070:
 203:Dubby.cpp     ****         display.WriteString(GetTextForEnum(MAINMENU, i), Font_6x8, i == menuItemSelected ? false : 
 4374              		.loc 2 203 28 is_stmt 0 discriminator 2 view .LVU1143
 4375 0074 2846     		mov	r0, r5
 4376 0076 18BF     		it	ne
 4377 0078 4FF0010E 		movne	lr, #1
 4378              	.LBB1071:
 4379              	.LBB1066:
 173:../../libDaisy//src/hid/disp/display.h ****         currentY_ = (y >= Height()) ? Height() - 1 : y;
 4380              		.loc 3 173 19 discriminator 2 view .LVU1144
 4381 007c B9F17F0F 		cmp	r9, #127
 4382              	.LBE1066:
 4383              	.LBE1071:
 203:Dubby.cpp     ****         display.WriteString(GetTextForEnum(MAINMENU, i), Font_6x8, i == menuItemSelected ? false : 
 4384              		.loc 2 203 28 discriminator 2 view .LVU1145
 4385 0080 54F82610 		ldr	r1, [r4, r6, lsl #2]
 200:Dubby.cpp     ****     for (int i = 0; i < 3; i++) 
 4386              		.loc 2 200 5 discriminator 2 view .LVU1146
 4387 0084 06F10106 		add	r6, r6, #1
 4388              	.LVL309:
 4389              	.LBB1072:
 4390              	.LBB1067:
 173:../../libDaisy//src/hid/disp/display.h ****         currentY_ = (y >= Height()) ? Height() - 1 : y;
 4391              		.loc 3 173 19 discriminator 2 view .LVU1147
 4392 0088 28BF     		it	cs
 4393 008a 4FF07F09 		movcs	r9, #127
 174:../../libDaisy//src/hid/disp/display.h ****     }
 4394              		.loc 3 174 19 discriminator 2 view .LVU1148
 4395 008e BCF13F0F 		cmp	ip, #63
 4396              	.LBE1067:
 4397              	.LBE1072:
ARM GAS  /var/folders/1y/_321xjh9623c014x9_qw12rr0000gn/T//cc4eHiNS.s 			page 133


 200:Dubby.cpp     ****     for (int i = 0; i < 3; i++) 
 4398              		.loc 2 200 23 discriminator 2 view .LVU1149
 4399 0092 07F10807 		add	r7, r7, #8
 4400              	.LVL310:
 4401              	.LBB1073:
 4402              	.LBB1068:
 174:../../libDaisy//src/hid/disp/display.h ****     }
 4403              		.loc 3 174 19 discriminator 2 view .LVU1150
 4404 0096 28BF     		it	cs
 4405 0098 4FF03F0C 		movcs	ip, #63
 4406              	.LVL311:
 173:../../libDaisy//src/hid/disp/display.h ****         currentY_ = (y >= Height()) ? Height() - 1 : y;
 4407              		.loc 3 173 19 discriminator 2 view .LVU1151
 4408 009c A4F85494 		strh	r9, [r4, #1108]	@ movhi
 174:../../libDaisy//src/hid/disp/display.h ****     }
 4409              		.loc 3 174 9 is_stmt 1 discriminator 2 view .LVU1152
 4410              	.LBE1068:
 4411              	.LBE1073:
 203:Dubby.cpp     ****         display.WriteString(GetTextForEnum(MAINMENU, i), Font_6x8, i == menuItemSelected ? false : 
 4412              		.loc 2 203 28 is_stmt 0 discriminator 2 view .LVU1153
 4413 00a0 98E80C00 		ldm	r8, {r2, r3}
 4414              	.LBB1074:
 4415              	.LBB1069:
 174:../../libDaisy//src/hid/disp/display.h ****     }
 4416              		.loc 3 174 19 discriminator 2 view .LVU1154
 4417 00a4 A4F856C4 		strh	ip, [r4, #1110]	@ movhi
 4418              	.LVL312:
 174:../../libDaisy//src/hid/disp/display.h ****     }
 4419              		.loc 3 174 19 discriminator 2 view .LVU1155
 4420              	.LBE1069:
 4421              	.LBE1074:
 203:Dubby.cpp     ****         display.WriteString(GetTextForEnum(MAINMENU, i), Font_6x8, i == menuItemSelected ? false : 
 4422              		.loc 2 203 9 is_stmt 1 discriminator 2 view .LVU1156
 4423              	.LBB1075:
 4424              	.LBI1075:
 432:Dubby.cpp     **** const char * Dubby::GetTextForEnum(MenuTypes m, int enumVal)
 4425              		.loc 2 432 14 discriminator 2 view .LVU1157
 4426              	.LBB1076:
 434:Dubby.cpp     ****     switch (m)
 4427              		.loc 2 434 5 discriminator 2 view .LVU1158
 436:Dubby.cpp     ****         case MAINMENU:
 4428              		.loc 2 436 9 discriminator 2 view .LVU1159
 437:Dubby.cpp     ****             return MenuItemsStrings[enumVal];
 4429              		.loc 2 437 13 discriminator 2 view .LVU1160
 437:Dubby.cpp     ****             return MenuItemsStrings[enumVal];
 4430              		.loc 2 437 13 is_stmt 0 discriminator 2 view .LVU1161
 4431              	.LBE1076:
 4432              	.LBE1075:
 203:Dubby.cpp     ****         display.WriteString(GetTextForEnum(MAINMENU, i), Font_6x8, i == menuItemSelected ? false : 
 4433              		.loc 2 203 28 discriminator 2 view .LVU1162
 4434 00a8 CDF800E0 		str	lr, [sp]
 4435 00ac FFF7FEFF 		bl	_ZN5daisy25OneBitGraphicsDisplayImplINS_11OledDisplayINS_13SSD130xDriverILj128ELj64ENS_24SSD130
 4436              	.LVL313:
 200:Dubby.cpp     ****     for (int i = 0; i < 3; i++) 
 4437              		.loc 2 200 5 is_stmt 1 discriminator 2 view .LVU1163
 200:Dubby.cpp     ****     for (int i = 0; i < 3; i++) 
 4438              		.loc 2 200 23 discriminator 2 view .LVU1164
ARM GAS  /var/folders/1y/_321xjh9623c014x9_qw12rr0000gn/T//cc4eHiNS.s 			page 134


 4439 00b0 032E     		cmp	r6, #3
 4440 00b2 02D0     		beq	.L280
 203:Dubby.cpp     ****         display.WriteString(GetTextForEnum(MAINMENU, i), Font_6x8, i == menuItemSelected ? false : 
 4441              		.loc 2 203 73 is_stmt 0 view .LVU1165
 4442 00b4 94F858E0 		ldrb	lr, [r4, #88]	@ zero_extendqisi2
 4443 00b8 D6E7     		b	.L274
 4444              	.L280:
 4445              	.LBE1062:
 206:Dubby.cpp     ****     display.DrawRect(PANE_X_START - 1, PANE_Y_START - 1, PANE_X_END + 1, PANE_Y_END + 1, true);
 4446              		.loc 2 206 5 is_stmt 1 view .LVU1166
 4447              	.LVL314:
 4448              	.LBB1077:
 4449              	.LBI1077:
 257:../../libDaisy//src/hid/disp/display.h ****                   uint_fast8_t y1,
 4450              		.loc 3 257 10 view .LVU1167
 4451              	.LBB1078:
 4452              	.LBI1078:
 221:../../libDaisy//src/hid/disp/display.h ****                   uint_fast8_t y1,
 4453              		.loc 3 221 10 view .LVU1168
 4454              	.LBB1079:
 4455              	.LBB1080:
 4456              	.LBI1080:
  42:../../libDaisy//src/hid/disp/oled_display.h ****     {
 4457              		.loc 1 42 10 view .LVU1169
 4458              	.LBB1081:
 4459              	.LBB1082:
 4460              	.LBB1083:
 357:../../libDaisy//src/dev/oled_ssd130x.h ****         else
 4461              		.loc 4 357 42 is_stmt 0 view .LVU1170
 4462 00ba 94F8E324 		ldrb	r2, [r4, #1251]	@ zero_extendqisi2
 4463              	.LBE1083:
 4464              	.LBE1082:
 4465              		.loc 1 44 26 view .LVU1171
 4466 00be 04F58B66 		add	r6, r4, #1112
 4467              	.LVL315:
 4468              	.LBB1085:
 4469              	.LBI1082:
 352:../../libDaisy//src/dev/oled_ssd130x.h ****     {
 4470              		.loc 4 352 10 is_stmt 1 view .LVU1172
 4471 00c2 04F26441 		addw	r1, r4, #1124
 4472 00c6 04F26343 		addw	r3, r4, #1123
 4473              	.LBB1084:
 357:../../libDaisy//src/dev/oled_ssd130x.h ****         else
 4474              		.loc 4 357 42 is_stmt 0 view .LVU1173
 4475 00ca 42F00102 		orr	r2, r2, #1
 4476 00ce 04F2E240 		addw	r0, r4, #1250
 4477 00d2 84F8E324 		strb	r2, [r4, #1251]
 4478              	.LVL316:
 357:../../libDaisy//src/dev/oled_ssd130x.h ****         else
 4479              		.loc 4 357 42 view .LVU1174
 4480              	.LBE1084:
 4481              	.LBE1085:
 4482              	.LBE1081:
 4483              	.LBE1080:
 239:../../libDaisy//src/hid/disp/display.h ****         {
 4484              		.loc 3 239 26 is_stmt 1 view .LVU1175
 4485              	.L281:
ARM GAS  /var/folders/1y/_321xjh9623c014x9_qw12rr0000gn/T//cc4eHiNS.s 			page 135


 4486              	.LBB1086:
 4487              	.LBI1086:
  42:../../libDaisy//src/hid/disp/oled_display.h ****     {
 4488              		.loc 1 42 10 view .LVU1176
 4489              	.LBB1087:
 4490              	.LBI1087:
 352:../../libDaisy//src/dev/oled_ssd130x.h ****     {
 4491              		.loc 4 352 10 view .LVU1177
 4492              	.LBB1088:
 357:../../libDaisy//src/dev/oled_ssd130x.h ****         else
 4493              		.loc 4 357 42 is_stmt 0 view .LVU1178
 4494 00d6 13F8012F 		ldrb	r2, [r3, #1]!	@ zero_extendqisi2
 4495              	.LVL317:
 357:../../libDaisy//src/dev/oled_ssd130x.h ****         else
 4496              		.loc 4 357 42 view .LVU1179
 4497 00da 42F00102 		orr	r2, r2, #1
 4498              	.LBE1088:
 4499              	.LBE1087:
 4500              	.LBE1086:
 239:../../libDaisy//src/hid/disp/display.h ****         {
 4501              		.loc 3 239 26 view .LVU1180
 4502 00de 9842     		cmp	r0, r3
 4503              	.LBB1091:
 4504              	.LBB1090:
 4505              	.LBB1089:
 357:../../libDaisy//src/dev/oled_ssd130x.h ****         else
 4506              		.loc 4 357 42 view .LVU1181
 4507 00e0 1A70     		strb	r2, [r3]
 4508              	.LVL318:
 357:../../libDaisy//src/dev/oled_ssd130x.h ****         else
 4509              		.loc 4 357 42 view .LVU1182
 4510              	.LBE1089:
 4511              	.LBE1090:
 4512              	.LBE1091:
 239:../../libDaisy//src/hid/disp/display.h ****         {
 4513              		.loc 3 239 26 is_stmt 1 view .LVU1183
 4514 00e2 F8D1     		bne	.L281
 4515              	.LVL319:
 239:../../libDaisy//src/hid/disp/display.h ****         {
 4516              		.loc 3 239 26 is_stmt 0 view .LVU1184
 4517              	.LBE1079:
 4518              	.LBE1078:
 4519              	.LBB1092:
 4520              	.LBI1092:
 221:../../libDaisy//src/hid/disp/display.h ****                   uint_fast8_t y1,
 4521              		.loc 3 221 10 is_stmt 1 view .LVU1185
 4522              	.LBB1093:
 4523              	.LBB1094:
 4524              	.LBI1094:
  42:../../libDaisy//src/hid/disp/oled_display.h ****     {
 4525              		.loc 1 42 10 view .LVU1186
 4526              	.LBB1095:
 4527              	.LBI1095:
 352:../../libDaisy//src/dev/oled_ssd130x.h ****     {
 4528              		.loc 4 352 10 view .LVU1187
 4529              	.LBB1096:
 357:../../libDaisy//src/dev/oled_ssd130x.h ****         else
ARM GAS  /var/folders/1y/_321xjh9623c014x9_qw12rr0000gn/T//cc4eHiNS.s 			page 136


 4530              		.loc 4 357 42 is_stmt 0 view .LVU1188
 4531 00e4 94F8E327 		ldrb	r2, [r4, #2019]	@ zero_extendqisi2
 4532 00e8 0023     		movs	r3, #0
 4533 00ea 42F01002 		orr	r2, r2, #16
 4534 00ee 84F8E327 		strb	r2, [r4, #2019]
 4535              	.LVL320:
 357:../../libDaisy//src/dev/oled_ssd130x.h ****         else
 4536              		.loc 4 357 42 view .LVU1189
 4537              	.LBE1096:
 4538              	.LBE1095:
 4539              	.LBE1094:
 239:../../libDaisy//src/hid/disp/display.h ****         {
 4540              		.loc 3 239 26 is_stmt 1 view .LVU1190
 4541              	.L282:
 4542              	.LBB1097:
 4543              	.LBI1097:
  42:../../libDaisy//src/hid/disp/oled_display.h ****     {
 4544              		.loc 1 42 10 view .LVU1191
 4545              	.LBB1098:
 4546              	.LBI1098:
 352:../../libDaisy//src/dev/oled_ssd130x.h ****     {
 4547              		.loc 4 352 10 view .LVU1192
 4548              	.LBB1099:
 357:../../libDaisy//src/dev/oled_ssd130x.h ****         else
 4549              		.loc 4 357 42 is_stmt 0 view .LVU1193
 4550 00f2 1A01     		lsls	r2, r3, #4
 357:../../libDaisy//src/dev/oled_ssd130x.h ****         else
 4551              		.loc 4 357 54 view .LVU1194
 4552 00f4 03F00705 		and	r5, r3, #7
 357:../../libDaisy//src/dev/oled_ssd130x.h ****         else
 4553              		.loc 4 357 48 view .LVU1195
 4554 00f8 0120     		movs	r0, #1
 357:../../libDaisy//src/dev/oled_ssd130x.h ****         else
 4555              		.loc 4 357 42 view .LVU1196
 4556 00fa 42F07F02 		orr	r2, r2, #127
 4557              	.LBE1099:
 4558              	.LBE1098:
 4559              	.LBE1097:
 252:../../libDaisy//src/hid/disp/display.h ****             }
 4560              		.loc 3 252 20 view .LVU1197
 4561 00fe 0344     		add	r3, r3, r0
 4562              	.LVL321:
 4563              	.LBB1104:
 4564              	.LBB1102:
 4565              	.LBB1100:
 357:../../libDaisy//src/dev/oled_ssd130x.h ****         else
 4566              		.loc 4 357 48 view .LVU1198
 4567 0100 A840     		lsls	r0, r0, r5
 357:../../libDaisy//src/dev/oled_ssd130x.h ****         else
 4568              		.loc 4 357 42 view .LVU1199
 4569 0102 2244     		add	r2, r2, r4
 4570              	.LBE1100:
 4571              	.LBE1102:
 4572              	.LBE1104:
 239:../../libDaisy//src/hid/disp/display.h ****         {
 4573              		.loc 3 239 26 view .LVU1200
 4574 0104 342B     		cmp	r3, #52
ARM GAS  /var/folders/1y/_321xjh9623c014x9_qw12rr0000gn/T//cc4eHiNS.s 			page 137


 4575              	.LBB1105:
 4576              	.LBB1103:
 4577              	.LBB1101:
 357:../../libDaisy//src/dev/oled_ssd130x.h ****         else
 4578              		.loc 4 357 42 view .LVU1201
 4579 0106 92F86454 		ldrb	r5, [r2, #1124]	@ zero_extendqisi2
 4580 010a 40EA0500 		orr	r0, r0, r5
 4581 010e 82F86404 		strb	r0, [r2, #1124]
 4582              	.LVL322:
 357:../../libDaisy//src/dev/oled_ssd130x.h ****         else
 4583              		.loc 4 357 42 view .LVU1202
 4584              	.LBE1101:
 4585              	.LBE1103:
 4586              	.LBE1105:
 239:../../libDaisy//src/hid/disp/display.h ****         {
 4587              		.loc 3 239 26 is_stmt 1 view .LVU1203
 4588 0112 EED1     		bne	.L282
 4589              	.LVL323:
 239:../../libDaisy//src/hid/disp/display.h ****         {
 4590              		.loc 3 239 26 is_stmt 0 view .LVU1204
 4591              	.LBE1093:
 4592              	.LBE1092:
 4593              	.LBB1106:
 4594              	.LBI1106:
 221:../../libDaisy//src/hid/disp/display.h ****                   uint_fast8_t y1,
 4595              		.loc 3 221 10 is_stmt 1 view .LVU1205
 4596              	.LBB1107:
 4597              	.LBB1108:
 4598              	.LBI1108:
  42:../../libDaisy//src/hid/disp/oled_display.h ****     {
 4599              		.loc 1 42 10 view .LVU1206
 4600              	.LBB1109:
 4601              	.LBI1109:
 352:../../libDaisy//src/dev/oled_ssd130x.h ****     {
 4602              		.loc 4 352 10 view .LVU1207
 4603              	.LBB1110:
 357:../../libDaisy//src/dev/oled_ssd130x.h ****         else
 4604              		.loc 4 357 42 is_stmt 0 view .LVU1208
 4605 0114 94F86427 		ldrb	r2, [r4, #1892]	@ zero_extendqisi2
 4606 0118 04F2E470 		addw	r0, r4, #2020
 4607 011c 42F01007 		orr	r7, r2, #16
 4608 0120 04F26572 		addw	r2, r4, #1893
 4609 0124 84F86477 		strb	r7, [r4, #1892]
 4610              	.LVL324:
 357:../../libDaisy//src/dev/oled_ssd130x.h ****         else
 4611              		.loc 4 357 42 view .LVU1209
 4612              	.LBE1110:
 4613              	.LBE1109:
 4614              	.LBE1108:
 239:../../libDaisy//src/hid/disp/display.h ****         {
 4615              		.loc 3 239 26 is_stmt 1 view .LVU1210
 4616              	.L283:
 4617              	.LBB1111:
 4618              	.LBI1111:
  42:../../libDaisy//src/hid/disp/oled_display.h ****     {
 4619              		.loc 1 42 10 view .LVU1211
 4620              	.LBB1112:
ARM GAS  /var/folders/1y/_321xjh9623c014x9_qw12rr0000gn/T//cc4eHiNS.s 			page 138


 4621              	.LBI1112:
 352:../../libDaisy//src/dev/oled_ssd130x.h ****     {
 4622              		.loc 4 352 10 view .LVU1212
 4623              	.LBB1113:
 357:../../libDaisy//src/dev/oled_ssd130x.h ****         else
 4624              		.loc 4 357 42 is_stmt 0 view .LVU1213
 4625 0128 10F8015D 		ldrb	r5, [r0, #-1]!	@ zero_extendqisi2
 4626              	.LVL325:
 357:../../libDaisy//src/dev/oled_ssd130x.h ****         else
 4627              		.loc 4 357 42 view .LVU1214
 4628 012c 45F01005 		orr	r5, r5, #16
 4629              	.LBE1113:
 4630              	.LBE1112:
 4631              	.LBE1111:
 239:../../libDaisy//src/hid/disp/display.h ****         {
 4632              		.loc 3 239 26 view .LVU1215
 4633 0130 8242     		cmp	r2, r0
 4634              	.LBB1116:
 4635              	.LBB1115:
 4636              	.LBB1114:
 357:../../libDaisy//src/dev/oled_ssd130x.h ****         else
 4637              		.loc 4 357 42 view .LVU1216
 4638 0132 0570     		strb	r5, [r0]
 4639              	.LVL326:
 357:../../libDaisy//src/dev/oled_ssd130x.h ****         else
 4640              		.loc 4 357 42 view .LVU1217
 4641              	.LBE1114:
 4642              	.LBE1115:
 4643              	.LBE1116:
 239:../../libDaisy//src/hid/disp/display.h ****         {
 4644              		.loc 3 239 26 is_stmt 1 view .LVU1218
 4645 0134 F8D1     		bne	.L283
 4646              	.LVL327:
 239:../../libDaisy//src/hid/disp/display.h ****         {
 4647              		.loc 3 239 26 is_stmt 0 view .LVU1219
 4648              	.LBE1107:
 4649              	.LBE1106:
 4650              	.LBB1117:
 4651              	.LBI1117:
 221:../../libDaisy//src/hid/disp/display.h ****                   uint_fast8_t y1,
 4652              		.loc 3 221 10 is_stmt 1 view .LVU1220
 4653              	.LBB1118:
 4654              	.LBB1119:
 4655              	.LBI1119:
  42:../../libDaisy//src/hid/disp/oled_display.h ****     {
 4656              		.loc 1 42 10 view .LVU1221
 4657              	.LBB1120:
 4658              	.LBI1120:
 352:../../libDaisy//src/dev/oled_ssd130x.h ****     {
 4659              		.loc 4 352 10 view .LVU1222
 4660              	.LBB1121:
 357:../../libDaisy//src/dev/oled_ssd130x.h ****         else
 4661              		.loc 4 357 42 is_stmt 0 view .LVU1223
 4662 0136 94F86424 		ldrb	r2, [r4, #1124]	@ zero_extendqisi2
 4663 013a 0620     		movs	r0, #6
 4664 013c 42F00102 		orr	r2, r2, #1
 4665 0140 84F86424 		strb	r2, [r4, #1124]
ARM GAS  /var/folders/1y/_321xjh9623c014x9_qw12rr0000gn/T//cc4eHiNS.s 			page 139


 4666              	.LVL328:
 357:../../libDaisy//src/dev/oled_ssd130x.h ****         else
 4667              		.loc 4 357 42 view .LVU1224
 4668              	.LBE1121:
 4669              	.LBE1120:
 4670              	.LBE1119:
 239:../../libDaisy//src/hid/disp/display.h ****         {
 4671              		.loc 3 239 26 is_stmt 1 view .LVU1225
 4672 0144 03E0     		b	.L285
 4673              	.LVL329:
 4674              	.L295:
 4675              	.LBB1122:
 4676              	.LBB1123:
 4677              	.LBB1124:
 357:../../libDaisy//src/dev/oled_ssd130x.h ****         else
 4678              		.loc 4 357 42 is_stmt 0 view .LVU1226
 4679 0146 04EBC012 		add	r2, r4, r0, lsl #7
 4680 014a 92F86474 		ldrb	r7, [r2, #1124]	@ zero_extendqisi2
 4681              	.LVL330:
 4682              	.L285:
 357:../../libDaisy//src/dev/oled_ssd130x.h ****         else
 4683              		.loc 4 357 42 view .LVU1227
 4684              	.LBE1124:
 4685              	.LBE1123:
 4686              	.LBI1122:
  42:../../libDaisy//src/hid/disp/oled_display.h ****     {
 4687              		.loc 1 42 10 is_stmt 1 view .LVU1228
 4688              	.LBB1128:
 4689              	.LBI1123:
 352:../../libDaisy//src/dev/oled_ssd130x.h ****     {
 4690              		.loc 4 352 10 view .LVU1229
 4691              	.LBB1125:
 357:../../libDaisy//src/dev/oled_ssd130x.h ****         else
 4692              		.loc 4 357 54 is_stmt 0 view .LVU1230
 4693 014e 03F00705 		and	r5, r3, #7
 357:../../libDaisy//src/dev/oled_ssd130x.h ****         else
 4694              		.loc 4 357 48 view .LVU1231
 4695 0152 0122     		movs	r2, #1
 357:../../libDaisy//src/dev/oled_ssd130x.h ****         else
 4696              		.loc 4 357 42 view .LVU1232
 4697 0154 04EBC010 		add	r0, r4, r0, lsl #7
 4698              	.LBE1125:
 4699              	.LBE1128:
 4700              	.LBE1122:
 239:../../libDaisy//src/hid/disp/display.h ****         {
 4701              		.loc 3 239 26 view .LVU1233
 4702 0158 013B     		subs	r3, r3, #1
 4703              	.LVL331:
 4704              	.LBB1131:
 4705              	.LBB1129:
 4706              	.LBB1126:
 357:../../libDaisy//src/dev/oled_ssd130x.h ****         else
 4707              		.loc 4 357 48 view .LVU1234
 4708 015a 02FA05F2 		lsl	r2, r2, r5
 357:../../libDaisy//src/dev/oled_ssd130x.h ****         else
 4709              		.loc 4 357 42 view .LVU1235
 4710 015e 42EA0702 		orr	r2, r2, r7
ARM GAS  /var/folders/1y/_321xjh9623c014x9_qw12rr0000gn/T//cc4eHiNS.s 			page 140


 4711 0162 80F86424 		strb	r2, [r0, #1124]
 4712              	.LVL332:
 357:../../libDaisy//src/dev/oled_ssd130x.h ****         else
 4713              		.loc 4 357 42 view .LVU1236
 4714              	.LBE1126:
 4715              	.LBE1129:
 4716              	.LBE1131:
 239:../../libDaisy//src/hid/disp/display.h ****         {
 4717              		.loc 3 239 26 is_stmt 1 view .LVU1237
 4718              	.LBB1132:
 4719              	.LBB1130:
 4720              	.LBB1127:
 357:../../libDaisy//src/dev/oled_ssd130x.h ****         else
 4721              		.loc 4 357 28 is_stmt 0 view .LVU1238
 4722 0166 4FEAD300 		lsr	r0, r3, #3
 4723              	.LBE1127:
 4724              	.LBE1130:
 4725              	.LBE1132:
 239:../../libDaisy//src/hid/disp/display.h ****         {
 4726              		.loc 3 239 26 view .LVU1239
 4727 016a ECD1     		bne	.L295
 4728              	.LBE1118:
 4729              	.LBE1117:
 4730              	.LBE1077:
 4731              	.LBB1133:
 4732              	.LBB1134:
 4733              	.LBB1135:
 4734              	.LBB1136:
 4735              	.LBB1137:
 124:../../libDaisy//src/dev/oled_ssd130x.h ****         spi_.BlockingTransmit(&cmd, 1);
 4736              		.loc 4 124 24 view .LVU1240
 4737 016c 04F58C64 		add	r4, r4, #1120
 4738              	.LVL333:
 124:../../libDaisy//src/dev/oled_ssd130x.h ****         spi_.BlockingTransmit(&cmd, 1);
 4739              		.loc 4 124 24 view .LVU1241
 4740 0170 8846     		mov	r8, r1
 4741 0172 B025     		movs	r5, #176
 4742              	.LVL334:
 4743              	.L286:
 124:../../libDaisy//src/dev/oled_ssd130x.h ****         spi_.BlockingTransmit(&cmd, 1);
 4744              		.loc 4 124 24 view .LVU1242
 4745 0174 0027     		movs	r7, #0
 124:../../libDaisy//src/dev/oled_ssd130x.h ****         spi_.BlockingTransmit(&cmd, 1);
 4746              		.loc 4 124 23 view .LVU1243
 4747 0176 2046     		mov	r0, r4
 4748 0178 8DF80F50 		strb	r5, [sp, #15]
 4749              	.LVL335:
 124:../../libDaisy//src/dev/oled_ssd130x.h ****         spi_.BlockingTransmit(&cmd, 1);
 4750              		.loc 4 124 23 view .LVU1244
 4751              	.LBE1137:
 4752              	.LBI1136:
 122:../../libDaisy//src/dev/oled_ssd130x.h ****     {
 4753              		.loc 4 122 10 is_stmt 1 view .LVU1245
 4754              	.LBB1138:
 124:../../libDaisy//src/dev/oled_ssd130x.h ****         spi_.BlockingTransmit(&cmd, 1);
 4755              		.loc 4 124 9 view .LVU1246
 4756              	.LBE1138:
ARM GAS  /var/folders/1y/_321xjh9623c014x9_qw12rr0000gn/T//cc4eHiNS.s 			page 141


 4757              	.LBE1136:
 4758              		.loc 4 383 22 is_stmt 0 view .LVU1247
 4759 017c 0135     		adds	r5, r5, #1
 4760              	.LVL336:
 4761              	.LBB1141:
 4762              	.LBB1139:
 124:../../libDaisy//src/dev/oled_ssd130x.h ****         spi_.BlockingTransmit(&cmd, 1);
 4763              		.loc 4 124 23 view .LVU1248
 4764 017e 3946     		mov	r1, r7
 4765 0180 FFF7FEFF 		bl	dsy_gpio_write
 4766              	.LVL337:
 125:../../libDaisy//src/dev/oled_ssd130x.h ****     };
 4767              		.loc 4 125 9 is_stmt 1 view .LVU1249
 125:../../libDaisy//src/dev/oled_ssd130x.h ****     };
 4768              		.loc 4 125 30 is_stmt 0 view .LVU1250
 4769 0184 6423     		movs	r3, #100
 4770 0186 0122     		movs	r2, #1
 4771 0188 0DF10F01 		add	r1, sp, #15
 4772 018c 3046     		mov	r0, r6
 4773              	.LBE1139:
 4774              	.LBE1141:
 4775              		.loc 4 383 22 view .LVU1251
 4776 018e EDB2     		uxtb	r5, r5
 4777              	.LBB1142:
 4778              	.LBB1140:
 125:../../libDaisy//src/dev/oled_ssd130x.h ****     };
 4779              		.loc 4 125 30 view .LVU1252
 4780 0190 FFF7FEFF 		bl	_ZN5daisy9SpiHandle16BlockingTransmitEPhjm
 4781              	.LVL338:
 125:../../libDaisy//src/dev/oled_ssd130x.h ****     };
 4782              		.loc 4 125 30 view .LVU1253
 4783              	.LBE1140:
 4784              	.LBE1142:
 4785              	.LBB1143:
 4786              	.LBB1144:
 124:../../libDaisy//src/dev/oled_ssd130x.h ****         spi_.BlockingTransmit(&cmd, 1);
 4787              		.loc 4 124 23 view .LVU1254
 4788 0194 3946     		mov	r1, r7
 4789 0196 2046     		mov	r0, r4
 4790 0198 8DF80F70 		strb	r7, [sp, #15]
 4791              	.LVL339:
 124:../../libDaisy//src/dev/oled_ssd130x.h ****         spi_.BlockingTransmit(&cmd, 1);
 4792              		.loc 4 124 23 view .LVU1255
 4793              	.LBE1144:
 4794              	.LBI1143:
 122:../../libDaisy//src/dev/oled_ssd130x.h ****     {
 4795              		.loc 4 122 10 is_stmt 1 view .LVU1256
 4796              	.LBB1145:
 124:../../libDaisy//src/dev/oled_ssd130x.h ****         spi_.BlockingTransmit(&cmd, 1);
 4797              		.loc 4 124 9 view .LVU1257
 124:../../libDaisy//src/dev/oled_ssd130x.h ****         spi_.BlockingTransmit(&cmd, 1);
 4798              		.loc 4 124 23 is_stmt 0 view .LVU1258
 4799 019c FFF7FEFF 		bl	dsy_gpio_write
 4800              	.LVL340:
 125:../../libDaisy//src/dev/oled_ssd130x.h ****     };
 4801              		.loc 4 125 9 is_stmt 1 view .LVU1259
 125:../../libDaisy//src/dev/oled_ssd130x.h ****     };
ARM GAS  /var/folders/1y/_321xjh9623c014x9_qw12rr0000gn/T//cc4eHiNS.s 			page 142


 4802              		.loc 4 125 30 is_stmt 0 view .LVU1260
 4803 01a0 0122     		movs	r2, #1
 4804 01a2 6423     		movs	r3, #100
 4805 01a4 0DF10F01 		add	r1, sp, #15
 4806 01a8 3046     		mov	r0, r6
 4807 01aa FFF7FEFF 		bl	_ZN5daisy9SpiHandle16BlockingTransmitEPhjm
 4808              	.LVL341:
 125:../../libDaisy//src/dev/oled_ssd130x.h ****     };
 4809              		.loc 4 125 30 view .LVU1261
 4810 01ae 1023     		movs	r3, #16
 4811              	.LBE1145:
 4812              	.LBE1143:
 4813              	.LBB1146:
 4814              	.LBB1147:
 124:../../libDaisy//src/dev/oled_ssd130x.h ****         spi_.BlockingTransmit(&cmd, 1);
 4815              		.loc 4 124 23 view .LVU1262
 4816 01b0 3946     		mov	r1, r7
 4817 01b2 2046     		mov	r0, r4
 4818 01b4 8DF80F30 		strb	r3, [sp, #15]
 4819              	.LVL342:
 124:../../libDaisy//src/dev/oled_ssd130x.h ****         spi_.BlockingTransmit(&cmd, 1);
 4820              		.loc 4 124 23 view .LVU1263
 4821              	.LBE1147:
 4822              	.LBI1146:
 122:../../libDaisy//src/dev/oled_ssd130x.h ****     {
 4823              		.loc 4 122 10 is_stmt 1 view .LVU1264
 4824              	.LBB1148:
 124:../../libDaisy//src/dev/oled_ssd130x.h ****         spi_.BlockingTransmit(&cmd, 1);
 4825              		.loc 4 124 9 view .LVU1265
 124:../../libDaisy//src/dev/oled_ssd130x.h ****         spi_.BlockingTransmit(&cmd, 1);
 4826              		.loc 4 124 23 is_stmt 0 view .LVU1266
 4827 01b8 FFF7FEFF 		bl	dsy_gpio_write
 4828              	.LVL343:
 125:../../libDaisy//src/dev/oled_ssd130x.h ****     };
 4829              		.loc 4 125 9 is_stmt 1 view .LVU1267
 125:../../libDaisy//src/dev/oled_ssd130x.h ****     };
 4830              		.loc 4 125 30 is_stmt 0 view .LVU1268
 4831 01bc 6423     		movs	r3, #100
 4832 01be 0122     		movs	r2, #1
 4833 01c0 0DF10F01 		add	r1, sp, #15
 4834 01c4 3046     		mov	r0, r6
 4835 01c6 FFF7FEFF 		bl	_ZN5daisy9SpiHandle16BlockingTransmitEPhjm
 4836              	.LVL344:
 125:../../libDaisy//src/dev/oled_ssd130x.h ****     };
 4837              		.loc 4 125 30 view .LVU1269
 4838              	.LBE1148:
 4839              	.LBE1146:
 4840              	.LBB1149:
 4841              	.LBI1149:
 128:../../libDaisy//src/dev/oled_ssd130x.h ****     {
 4842              		.loc 4 128 10 is_stmt 1 view .LVU1270
 4843              	.LBB1150:
 130:../../libDaisy//src/dev/oled_ssd130x.h ****         spi_.BlockingTransmit(buff, size);
 4844              		.loc 4 130 9 view .LVU1271
 130:../../libDaisy//src/dev/oled_ssd130x.h ****         spi_.BlockingTransmit(buff, size);
 4845              		.loc 4 130 23 is_stmt 0 view .LVU1272
 4846 01ca 0121     		movs	r1, #1
ARM GAS  /var/folders/1y/_321xjh9623c014x9_qw12rr0000gn/T//cc4eHiNS.s 			page 143


 4847 01cc 2046     		mov	r0, r4
 4848 01ce FFF7FEFF 		bl	dsy_gpio_write
 4849              	.LVL345:
 131:../../libDaisy//src/dev/oled_ssd130x.h ****     };
 4850              		.loc 4 131 9 is_stmt 1 view .LVU1273
 131:../../libDaisy//src/dev/oled_ssd130x.h ****     };
 4851              		.loc 4 131 30 is_stmt 0 view .LVU1274
 4852 01d2 8022     		movs	r2, #128
 4853 01d4 4146     		mov	r1, r8
 4854 01d6 6423     		movs	r3, #100
 4855 01d8 3046     		mov	r0, r6
 4856              	.LBE1150:
 4857              	.LBE1149:
 4858              		.loc 4 383 22 view .LVU1275
 4859 01da 9044     		add	r8, r8, r2
 4860              	.LVL346:
 4861              	.LBB1152:
 4862              	.LBB1151:
 131:../../libDaisy//src/dev/oled_ssd130x.h ****     };
 4863              		.loc 4 131 30 view .LVU1276
 4864 01dc FFF7FEFF 		bl	_ZN5daisy9SpiHandle16BlockingTransmitEPhjm
 4865              	.LVL347:
 131:../../libDaisy//src/dev/oled_ssd130x.h ****     };
 4866              		.loc 4 131 30 view .LVU1277
 4867              	.LBE1151:
 4868              	.LBE1152:
 4869              		.loc 4 383 9 is_stmt 1 view .LVU1278
 4870              		.loc 4 383 22 view .LVU1279
 4871 01e0 B82D     		cmp	r5, #184
 4872 01e2 C7D1     		bne	.L286
 4873              	.LBE1135:
 4874              	.LBE1134:
 4875              	.LBE1133:
 209:Dubby.cpp     **** }
 4876              		.loc 2 209 1 is_stmt 0 view .LVU1280
 4877 01e4 05B0     		add	sp, sp, #20
 4878              		.cfi_def_cfa_offset 28
 4879              		@ sp needed
 4880 01e6 BDE8F083 		pop	{r4, r5, r6, r7, r8, r9, pc}
 4881              	.LVL348:
 4882              	.L297:
 209:Dubby.cpp     **** }
 4883              		.loc 2 209 1 view .LVU1281
 4884 01ea 00BF     		.align	2
 4885              	.L296:
 4886 01ec 00000000 		.word	Font_6x8
 4887              		.cfi_endproc
 4888              	.LFE2586:
 4890              		.section	.text._ZN5daisy5Dubby11ReleaseMenuEv,"ax",%progbits
 4891              		.align	1
 4892              		.p2align 2,,3
 4893              		.global	_ZN5daisy5Dubby11ReleaseMenuEv
 4894              		.syntax unified
 4895              		.thumb
 4896              		.thumb_func
 4898              	_ZN5daisy5Dubby11ReleaseMenuEv:
 4899              	.LVL349:
ARM GAS  /var/folders/1y/_321xjh9623c014x9_qw12rr0000gn/T//cc4eHiNS.s 			page 144


 4900              	.LFB2587:
 212:Dubby.cpp     **** {        
 4901              		.loc 2 212 1 is_stmt 1 view -0
 4902              		.cfi_startproc
 4903              		@ args = 0, pretend = 0, frame = 40
 4904              		@ frame_needed = 0, uses_anonymous_args = 0
 213:Dubby.cpp     ****     display.Fill(false);
 4905              		.loc 2 213 5 view .LVU1283
 4906              	.LBB1252:
 4907              	.LBI1252:
  34:../../libDaisy//src/hid/disp/oled_display.h **** 
 4908              		.loc 1 34 10 view .LVU1284
 4909              	.LBB1253:
 4910              	.LBI1253:
 362:../../libDaisy//src/dev/oled_ssd130x.h ****     {
 4911              		.loc 4 362 10 view .LVU1285
 4912              	.LBB1254:
 364:../../libDaisy//src/dev/oled_ssd130x.h ****         {
 4913              		.loc 4 364 29 view .LVU1286
 4914              	.LBE1254:
 4915              	.LBE1253:
 4916              	.LBE1252:
 212:Dubby.cpp     **** {        
 4917              		.loc 2 212 1 is_stmt 0 view .LVU1287
 4918 0000 2DE9F04F 		push	{r4, r5, r6, r7, r8, r9, r10, fp, lr}
 4919              		.cfi_def_cfa_offset 36
 4920              		.cfi_offset 4, -36
 4921              		.cfi_offset 5, -32
 4922              		.cfi_offset 6, -28
 4923              		.cfi_offset 7, -24
 4924              		.cfi_offset 8, -20
 4925              		.cfi_offset 9, -16
 4926              		.cfi_offset 10, -12
 4927              		.cfi_offset 11, -8
 4928              		.cfi_offset 14, -4
 4929 0004 0446     		mov	r4, r0
 4930              	.LBB1259:
 4931              	.LBB1257:
 4932              	.LBB1255:
 366:../../libDaisy//src/dev/oled_ssd130x.h ****         }
 4933              		.loc 4 366 24 view .LVU1288
 4934 0006 4FF48062 		mov	r2, #1024
 4935 000a 0021     		movs	r1, #0
 4936 000c 00F26440 		addw	r0, r0, #1124
 4937              	.LVL350:
 366:../../libDaisy//src/dev/oled_ssd130x.h ****         }
 4938              		.loc 4 366 24 view .LVU1289
 4939              	.LBE1255:
 4940              	.LBE1257:
 4941              	.LBE1259:
 214:Dubby.cpp     ****     display.DrawRect(menuBoxBounding[menuItemSelected][0], menuBoxBounding[menuItemSelected][1], me
 4942              		.loc 2 214 21 view .LVU1290
 4943 0010 04F58A63 		add	r3, r4, #1104
 212:Dubby.cpp     **** {        
 4944              		.loc 2 212 1 view .LVU1291
 4945 0014 2DED028B 		vpush.64	{d8}
 4946              		.cfi_def_cfa_offset 44
ARM GAS  /var/folders/1y/_321xjh9623c014x9_qw12rr0000gn/T//cc4eHiNS.s 			page 145


 4947              		.cfi_offset 80, -44
 4948              		.cfi_offset 81, -40
 4949 0018 8DB0     		sub	sp, sp, #52
 4950              		.cfi_def_cfa_offset 96
 214:Dubby.cpp     ****     display.DrawRect(menuBoxBounding[menuItemSelected][0], menuBoxBounding[menuItemSelected][1], me
 4951              		.loc 2 214 21 view .LVU1292
 4952 001a 08EE103A 		vmov	s16, r3	@ int
 4953              	.LBB1260:
 4954              	.LBB1258:
 4955              	.LBB1256:
 366:../../libDaisy//src/dev/oled_ssd130x.h ****         }
 4956              		.loc 4 366 24 view .LVU1293
 4957 001e FFF7FEFF 		bl	memset
 4958              	.LVL351:
 366:../../libDaisy//src/dev/oled_ssd130x.h ****         }
 4959              		.loc 4 366 24 view .LVU1294
 4960              	.LBE1256:
 4961              	.LBE1258:
 4962              	.LBE1260:
 214:Dubby.cpp     ****     display.DrawRect(menuBoxBounding[menuItemSelected][0], menuBoxBounding[menuItemSelected][1], me
 4963              		.loc 2 214 5 is_stmt 1 view .LVU1295
 214:Dubby.cpp     ****     display.DrawRect(menuBoxBounding[menuItemSelected][0], menuBoxBounding[menuItemSelected][1], me
 4964              		.loc 2 214 38 is_stmt 0 view .LVU1296
 4965 0022 94F85830 		ldrb	r3, [r4, #88]	@ zero_extendqisi2
 214:Dubby.cpp     ****     display.DrawRect(menuBoxBounding[menuItemSelected][0], menuBoxBounding[menuItemSelected][1], me
 4966              		.loc 2 214 95 view .LVU1297
 4967 0026 04EB0312 		add	r2, r4, r3, lsl #4
 4968 002a D2E91D73 		ldrd	r7, r3, [r2, #116]
 214:Dubby.cpp     ****     display.DrawRect(menuBoxBounding[menuItemSelected][0], menuBoxBounding[menuItemSelected][1], me
 4969              		.loc 2 214 171 view .LVU1298
 4970 002e D2E91F62 		ldrd	r6, r2, [r2, #124]
 214:Dubby.cpp     ****     display.DrawRect(menuBoxBounding[menuItemSelected][0], menuBoxBounding[menuItemSelected][1], me
 4971              		.loc 2 214 95 view .LVU1299
 4972 0032 0393     		str	r3, [sp, #12]
 4973              	.LBB1261:
 4974              	.LBB1262:
 4975              	.LBB1263:
 227:../../libDaisy//src/hid/disp/display.h ****         int_fast16_t deltaY = abs((int_fast16_t)y2 - (int_fast16_t)y1);
 4976              		.loc 3 227 52 view .LVU1300
 4977 0034 A6EB0709 		sub	r9, r6, r7
 4978              	.LBE1263:
 4979              	.LBE1262:
 4980              	.LBE1261:
 214:Dubby.cpp     ****     display.DrawRect(menuBoxBounding[menuItemSelected][0], menuBoxBounding[menuItemSelected][1], me
 4981              		.loc 2 214 21 view .LVU1301
 4982 0038 3046     		mov	r0, r6
 4983              	.LVL352:
 4984              	.LBB1356:
 4985              	.LBI1261:
 257:../../libDaisy//src/hid/disp/display.h ****                   uint_fast8_t y1,
 4986              		.loc 3 257 10 is_stmt 1 view .LVU1302
 4987              	.LBB1289:
 4988              	.LBI1262:
 221:../../libDaisy//src/hid/disp/display.h ****                   uint_fast8_t y1,
 4989              		.loc 3 221 10 view .LVU1303
 4990              	.LBE1289:
 4991              	.LBE1356:
ARM GAS  /var/folders/1y/_321xjh9623c014x9_qw12rr0000gn/T//cc4eHiNS.s 			page 146


 214:Dubby.cpp     ****     display.DrawRect(menuBoxBounding[menuItemSelected][0], menuBoxBounding[menuItemSelected][1], me
 4992              		.loc 2 214 171 is_stmt 0 view .LVU1304
 4993 003a 0492     		str	r2, [sp, #16]
 4994              	.LBB1357:
 4995              	.LBB1290:
 4996              	.LBB1285:
 227:../../libDaisy//src/hid/disp/display.h ****         int_fast16_t deltaY = abs((int_fast16_t)y2 - (int_fast16_t)y1);
 4997              		.loc 3 227 22 view .LVU1305
 4998 003c B9F1000F 		cmp	r9, #0
 4999 0040 B8BF     		it	lt
 5000 0042 C9F10009 		rsblt	r9, r9, #0
 5001              	.LVL353:
 229:../../libDaisy//src/hid/disp/display.h ****         int_fast16_t signY  = ((y1 < y2) ? 1 : -1);
 5002              		.loc 3 229 42 view .LVU1306
 5003 0046 B742     		cmp	r7, r6
 5004 0048 C0F0BB81 		bcc	.L299
 5005              	.LVL354:
 5006              	.LBB1264:
 5007              	.LBI1264:
  42:../../libDaisy//src/hid/disp/oled_display.h ****     {
 5008              		.loc 1 42 10 is_stmt 1 view .LVU1307
 5009              	.LBB1265:
 5010              	.LBB1266:
 5011              	.LBB1267:
 354:../../libDaisy//src/dev/oled_ssd130x.h ****             return;
 5012              		.loc 4 354 14 is_stmt 0 view .LVU1308
 5013 004c 7F2E     		cmp	r6, #127
 5014              	.LBE1267:
 5015              	.LBE1266:
 5016              		.loc 1 44 26 view .LVU1309
 5017 004e 04F58B65 		add	r5, r4, #1112
 5018              	.LVL355:
 5019              	.LBB1271:
 5020              	.LBI1266:
 352:../../libDaisy//src/dev/oled_ssd130x.h ****     {
 5021              		.loc 4 352 10 is_stmt 1 view .LVU1310
 5022              	.LBE1271:
 5023              	.LBE1265:
 5024              	.LBE1264:
 229:../../libDaisy//src/hid/disp/display.h ****         int_fast16_t signY  = ((y1 < y2) ? 1 : -1);
 5025              		.loc 3 229 42 is_stmt 0 view .LVU1311
 5026 0052 4FF0FF3B 		mov	fp, #-1
 5027              	.LBB1279:
 5028              	.LBB1276:
 5029              	.LBB1272:
 5030              	.LBB1268:
 354:../../libDaisy//src/dev/oled_ssd130x.h ****             return;
 5031              		.loc 4 354 14 view .LVU1312
 5032 0056 94BF     		ite	ls
 5033 0058 0021     		movls	r1, #0
 5034 005a 0121     		movhi	r1, #1
 354:../../libDaisy//src/dev/oled_ssd130x.h ****             return;
 5035              		.loc 4 354 28 view .LVU1313
 5036 005c 3F2B     		cmp	r3, #63
 354:../../libDaisy//src/dev/oled_ssd130x.h ****             return;
 5037              		.loc 4 354 14 view .LVU1314
 5038 005e 0691     		str	r1, [sp, #24]
ARM GAS  /var/folders/1y/_321xjh9623c014x9_qw12rr0000gn/T//cc4eHiNS.s 			page 147


 354:../../libDaisy//src/dev/oled_ssd130x.h ****             return;
 5039              		.loc 4 354 28 view .LVU1315
 5040 0060 94BF     		ite	ls
 5041 0062 0023     		movls	r3, #0
 5042              	.LVL356:
 354:../../libDaisy//src/dev/oled_ssd130x.h ****             return;
 5043              		.loc 4 354 28 view .LVU1316
 5044 0064 0123     		movhi	r3, #1
 5045 0066 0893     		str	r3, [sp, #32]
 354:../../libDaisy//src/dev/oled_ssd130x.h ****             return;
 5046              		.loc 4 354 9 view .LVU1317
 5047 0068 99B9     		cbnz	r1, .L300
 5048 006a 93B9     		cbnz	r3, .L300
 5049              	.LVL357:
 5050              	.L336:
 357:../../libDaisy//src/dev/oled_ssd130x.h ****         else
 5051              		.loc 4 357 28 view .LVU1318
 5052 006c 0399     		ldr	r1, [sp, #12]
 5053 006e CB08     		lsrs	r3, r1, #3
 357:../../libDaisy//src/dev/oled_ssd130x.h ****         else
 5054              		.loc 4 357 54 view .LVU1319
 5055 0070 01F0070C 		and	ip, r1, #7
 357:../../libDaisy//src/dev/oled_ssd130x.h ****         else
 5056              		.loc 4 357 48 view .LVU1320
 5057 0074 0121     		movs	r1, #1
 357:../../libDaisy//src/dev/oled_ssd130x.h ****         else
 5058              		.loc 4 357 42 view .LVU1321
 5059 0076 06EBC313 		add	r3, r6, r3, lsl #7
 357:../../libDaisy//src/dev/oled_ssd130x.h ****         else
 5060              		.loc 4 357 48 view .LVU1322
 5061 007a 01FA0CF1 		lsl	r1, r1, ip
 357:../../libDaisy//src/dev/oled_ssd130x.h ****         else
 5062              		.loc 4 357 42 view .LVU1323
 5063 007e 2344     		add	r3, r3, r4
 5064 0080 93F864C4 		ldrb	ip, [r3, #1124]	@ zero_extendqisi2
 5065 0084 41EA0C01 		orr	r1, r1, ip
 5066 0088 83F86414 		strb	r1, [r3, #1124]
 5067              	.LVL358:
 357:../../libDaisy//src/dev/oled_ssd130x.h ****         else
 5068              		.loc 4 357 42 view .LVU1324
 5069 008c 0023     		movs	r3, #0
 5070 008e 0893     		str	r3, [sp, #32]
 5071 0090 0693     		str	r3, [sp, #24]
 5072              	.L300:
 5073              	.LVL359:
 357:../../libDaisy//src/dev/oled_ssd130x.h ****         else
 5074              		.loc 4 357 42 view .LVU1325
 5075              	.LBE1268:
 5076              	.LBE1272:
 5077              	.LBE1276:
 5078              	.LBE1279:
 239:../../libDaisy//src/hid/disp/display.h ****         {
 5079              		.loc 3 239 26 is_stmt 1 view .LVU1326
 5080 0092 B742     		cmp	r7, r6
 5081 0094 00F0C881 		beq	.L379
 5082              	.L302:
 5083              	.LVL360:
ARM GAS  /var/folders/1y/_321xjh9623c014x9_qw12rr0000gn/T//cc4eHiNS.s 			page 148


 227:../../libDaisy//src/hid/disp/display.h ****         int_fast16_t deltaY = abs((int_fast16_t)y2 - (int_fast16_t)y1);
 5084              		.loc 3 227 22 is_stmt 0 view .LVU1327
 5085 0098 C846     		mov	r8, r9
 5086              	.LBE1285:
 5087              	.LBE1290:
 5088              	.LBE1357:
 214:Dubby.cpp     ****     display.DrawRect(menuBoxBounding[menuItemSelected][0], menuBoxBounding[menuItemSelected][1], me
 5089              		.loc 2 214 21 view .LVU1328
 5090 009a DDF80CC0 		ldr	ip, [sp, #12]
 5091 009e BE46     		mov	lr, r7
 5092              	.L304:
 5093              	.LVL361:
 5094              	.LBB1358:
 5095              	.LBB1291:
 5096              	.LBB1286:
 5097              	.LBB1280:
 5098              	.LBI1280:
  42:../../libDaisy//src/hid/disp/oled_display.h ****     {
 5099              		.loc 1 42 10 is_stmt 1 view .LVU1329
 5100              	.LBB1281:
 5101              	.LBI1281:
 352:../../libDaisy//src/dev/oled_ssd130x.h ****     {
 5102              		.loc 4 352 10 view .LVU1330
 5103              	.LBB1282:
 357:../../libDaisy//src/dev/oled_ssd130x.h ****         else
 5104              		.loc 4 357 28 is_stmt 0 view .LVU1331
 5105 00a0 4FEADC03 		lsr	r3, ip, #3
 357:../../libDaisy//src/dev/oled_ssd130x.h ****         else
 5106              		.loc 4 357 54 view .LVU1332
 5107 00a4 0CF00701 		and	r1, ip, #7
 357:../../libDaisy//src/dev/oled_ssd130x.h ****         else
 5108              		.loc 4 357 48 view .LVU1333
 5109 00a8 4FF0010A 		mov	r10, #1
 354:../../libDaisy//src/dev/oled_ssd130x.h ****             return;
 5110              		.loc 4 354 9 view .LVU1334
 5111 00ac BEF17F0F 		cmp	lr, #127
 357:../../libDaisy//src/dev/oled_ssd130x.h ****         else
 5112              		.loc 4 357 42 view .LVU1335
 5113 00b0 0EEBC313 		add	r3, lr, r3, lsl #7
 357:../../libDaisy//src/dev/oled_ssd130x.h ****         else
 5114              		.loc 4 357 48 view .LVU1336
 5115 00b4 0AFA01F1 		lsl	r1, r10, r1
 354:../../libDaisy//src/dev/oled_ssd130x.h ****             return;
 5116              		.loc 4 354 9 view .LVU1337
 5117 00b8 09D8     		bhi	.L305
 5118 00ba BCF13F0F 		cmp	ip, #63
 357:../../libDaisy//src/dev/oled_ssd130x.h ****         else
 5119              		.loc 4 357 42 view .LVU1338
 5120 00be 2344     		add	r3, r3, r4
 354:../../libDaisy//src/dev/oled_ssd130x.h ****             return;
 5121              		.loc 4 354 9 view .LVU1339
 5122 00c0 05D8     		bhi	.L305
 357:../../libDaisy//src/dev/oled_ssd130x.h ****         else
 5123              		.loc 4 357 42 view .LVU1340
 5124 00c2 93F864A4 		ldrb	r10, [r3, #1124]	@ zero_extendqisi2
 5125 00c6 41EA0A01 		orr	r1, r1, r10
 5126 00ca 83F86414 		strb	r1, [r3, #1124]
ARM GAS  /var/folders/1y/_321xjh9623c014x9_qw12rr0000gn/T//cc4eHiNS.s 			page 149


 5127              	.L305:
 357:../../libDaisy//src/dev/oled_ssd130x.h ****         else
 5128              		.loc 4 357 42 view .LVU1341
 5129              	.LBE1282:
 5130              	.LBE1281:
 5131              	.LBE1280:
 243:../../libDaisy//src/hid/disp/display.h ****             {
 5132              		.loc 3 243 13 view .LVU1342
 5133 00ce 5FEA4803 		lsls	r3, r8, #1
 246:../../libDaisy//src/hid/disp/display.h ****             }
 5134              		.loc 3 246 20 view .LVU1343
 5135 00d2 18BF     		it	ne
 5136 00d4 DE44     		addne	lr, lr, fp
 5137              	.LVL362:
 249:../../libDaisy//src/hid/disp/display.h ****             {
 5138              		.loc 3 249 13 view .LVU1344
 5139 00d6 9945     		cmp	r9, r3
 5140 00d8 02DD     		ble	.L307
 251:../../libDaisy//src/hid/disp/display.h ****                 y1 += signY;
 5141              		.loc 3 251 23 view .LVU1345
 5142 00da C844     		add	r8, r8, r9
 5143              	.LVL363:
 252:../../libDaisy//src/hid/disp/display.h ****             }
 5144              		.loc 3 252 20 view .LVU1346
 5145 00dc 0CF1FF3C 		add	ip, ip, #-1
 5146              	.LVL364:
 5147              	.L307:
 239:../../libDaisy//src/hid/disp/display.h ****         {
 5148              		.loc 3 239 26 is_stmt 1 view .LVU1347
 5149 00e0 7645     		cmp	r6, lr
 5150 00e2 DDD1     		bne	.L304
 239:../../libDaisy//src/hid/disp/display.h ****         {
 5151              		.loc 3 239 26 is_stmt 0 view .LVU1348
 5152 00e4 039B     		ldr	r3, [sp, #12]
 5153 00e6 6345     		cmp	r3, ip
 5154 00e8 DAD1     		bne	.L304
 5155 00ea 0023     		movs	r3, #0
 5156 00ec 0993     		str	r3, [sp, #36]
 5157              	.LVL365:
 5158              	.L301:
 239:../../libDaisy//src/hid/disp/display.h ****         {
 5159              		.loc 3 239 26 view .LVU1349
 5160              	.LBE1286:
 5161              	.LBE1291:
 5162              	.LBB1292:
 5163              	.LBI1292:
 221:../../libDaisy//src/hid/disp/display.h ****                   uint_fast8_t y1,
 5164              		.loc 3 221 10 is_stmt 1 view .LVU1350
 5165              	.LBB1293:
 228:../../libDaisy//src/hid/disp/display.h ****         int_fast16_t signX  = ((x1 < x2) ? 1 : -1);
 5166              		.loc 3 228 52 is_stmt 0 view .LVU1351
 5167 00ee DDE90331 		ldrd	r3, r1, [sp, #12]
 5168 00f2 CB1A     		subs	r3, r1, r3
 228:../../libDaisy//src/hid/disp/display.h ****         int_fast16_t signX  = ((x1 < x2) ? 1 : -1);
 5169              		.loc 3 228 22 view .LVU1352
 5170 00f4 83EAE37C 		eor	ip, r3, r3, asr #31
 5171 00f8 ACEBE37C 		sub	ip, ip, r3, asr #31
ARM GAS  /var/folders/1y/_321xjh9623c014x9_qw12rr0000gn/T//cc4eHiNS.s 			page 150


 230:../../libDaisy//src/hid/disp/display.h ****         int_fast16_t error  = deltaX - deltaY;
 5172              		.loc 3 230 42 view .LVU1353
 5173 00fc 039B     		ldr	r3, [sp, #12]
 5174 00fe 8B42     		cmp	r3, r1
 228:../../libDaisy//src/hid/disp/display.h ****         int_fast16_t signX  = ((x1 < x2) ? 1 : -1);
 5175              		.loc 3 228 22 view .LVU1354
 5176 0100 CDF814C0 		str	ip, [sp, #20]
 5177              	.LVL366:
 230:../../libDaisy//src/hid/disp/display.h ****         int_fast16_t error  = deltaX - deltaY;
 5178              		.loc 3 230 42 view .LVU1355
 5179 0104 C0F07381 		bcc	.L308
 5180              	.LVL367:
 5181              	.LBB1294:
 5182              	.LBB1295:
 5183              	.LBB1296:
 354:../../libDaisy//src/dev/oled_ssd130x.h ****             return;
 5184              		.loc 4 354 28 view .LVU1356
 5185 0108 3F29     		cmp	r1, #63
 5186              	.LBE1296:
 5187              	.LBE1295:
 5188              	.LBE1294:
 231:../../libDaisy//src/hid/disp/display.h ****         int_fast16_t error2;
 5189              		.loc 3 231 22 view .LVU1357
 5190 010a 6346     		mov	r3, ip
 5191              	.LBB1309:
 5192              	.LBB1303:
 5193              	.LBB1297:
 354:../../libDaisy//src/dev/oled_ssd130x.h ****             return;
 5194              		.loc 4 354 9 view .LVU1358
 5195 010c 0699     		ldr	r1, [sp, #24]
 5196              	.LBE1297:
 5197              	.LBE1303:
 5198              	.LBE1309:
 231:../../libDaisy//src/hid/disp/display.h ****         int_fast16_t error2;
 5199              		.loc 3 231 22 view .LVU1359
 5200 010e CCF1000A 		rsb	r10, ip, #0
 5201              	.LVL368:
 5202              	.LBB1310:
 5203              	.LBI1294:
  42:../../libDaisy//src/hid/disp/oled_display.h ****     {
 5204              		.loc 1 42 10 is_stmt 1 view .LVU1360
 5205              	.LBB1304:
 5206              	.LBI1295:
 352:../../libDaisy//src/dev/oled_ssd130x.h ****     {
 5207              		.loc 4 352 10 view .LVU1361
 5208              	.LBB1298:
 354:../../libDaisy//src/dev/oled_ssd130x.h ****             return;
 5209              		.loc 4 354 28 is_stmt 0 view .LVU1362
 5210 0112 94BF     		ite	ls
 5211 0114 0023     		movls	r3, #0
 5212 0116 0123     		movhi	r3, #1
 5213 0118 0793     		str	r3, [sp, #28]
 354:../../libDaisy//src/dev/oled_ssd130x.h ****             return;
 5214              		.loc 4 354 9 view .LVU1363
 5215 011a 0029     		cmp	r1, #0
 5216 011c 40F07981 		bne	.L340
 5217 0120 002B     		cmp	r3, #0
ARM GAS  /var/folders/1y/_321xjh9623c014x9_qw12rr0000gn/T//cc4eHiNS.s 			page 151


 5218 0122 40F07681 		bne	.L340
 5219              	.LBE1298:
 5220              	.LBE1304:
 5221              	.LBE1310:
 230:../../libDaisy//src/hid/disp/display.h ****         int_fast16_t error  = deltaX - deltaY;
 5222              		.loc 3 230 42 view .LVU1364
 5223 0126 4FF0FF33 		mov	r3, #-1
 5224 012a 0693     		str	r3, [sp, #24]
 5225              	.LVL369:
 5226              	.L335:
 5227              	.LBB1311:
 5228              	.LBB1305:
 5229              	.LBB1299:
 357:../../libDaisy//src/dev/oled_ssd130x.h ****         else
 5230              		.loc 4 357 28 view .LVU1365
 5231 012c 0499     		ldr	r1, [sp, #16]
 357:../../libDaisy//src/dev/oled_ssd130x.h ****         else
 5232              		.loc 4 357 48 view .LVU1366
 5233 012e 4FF0010C 		mov	ip, #1
 357:../../libDaisy//src/dev/oled_ssd130x.h ****         else
 5234              		.loc 4 357 28 view .LVU1367
 5235 0132 CB08     		lsrs	r3, r1, #3
 357:../../libDaisy//src/dev/oled_ssd130x.h ****         else
 5236              		.loc 4 357 54 view .LVU1368
 5237 0134 01F00701 		and	r1, r1, #7
 357:../../libDaisy//src/dev/oled_ssd130x.h ****         else
 5238              		.loc 4 357 42 view .LVU1369
 5239 0138 06EBC313 		add	r3, r6, r3, lsl #7
 357:../../libDaisy//src/dev/oled_ssd130x.h ****         else
 5240              		.loc 4 357 48 view .LVU1370
 5241 013c 0CFA01F1 		lsl	r1, ip, r1
 357:../../libDaisy//src/dev/oled_ssd130x.h ****         else
 5242              		.loc 4 357 42 view .LVU1371
 5243 0140 2344     		add	r3, r3, r4
 5244 0142 93F864C4 		ldrb	ip, [r3, #1124]	@ zero_extendqisi2
 5245 0146 41EA0C01 		orr	r1, r1, ip
 5246 014a 83F86414 		strb	r1, [r3, #1124]
 5247 014e 0023     		movs	r3, #0
 5248 0150 0793     		str	r3, [sp, #28]
 5249              	.LVL370:
 357:../../libDaisy//src/dev/oled_ssd130x.h ****         else
 5250              		.loc 4 357 42 view .LVU1372
 5251              	.LBE1299:
 5252              	.LBE1305:
 5253              	.LBE1311:
 239:../../libDaisy//src/hid/disp/display.h ****         {
 5254              		.loc 3 239 26 is_stmt 1 view .LVU1373
 5255 0152 DDE90331 		ldrd	r3, r1, [sp, #12]
 5256 0156 8B42     		cmp	r3, r1
 5257 0158 00F06381 		beq	.L380
 5258              	.L311:
 5259              	.LVL371:
 230:../../libDaisy//src/hid/disp/display.h ****         int_fast16_t error  = deltaX - deltaY;
 5260              		.loc 3 230 42 is_stmt 0 view .LVU1374
 5261 015c D646     		mov	lr, r10
 5262              	.LBE1293:
 5263              	.LBE1292:
ARM GAS  /var/folders/1y/_321xjh9623c014x9_qw12rr0000gn/T//cc4eHiNS.s 			page 152


 5264              	.LBE1358:
 214:Dubby.cpp     ****     display.DrawRect(menuBoxBounding[menuItemSelected][0], menuBoxBounding[menuItemSelected][1], me
 5265              		.loc 2 214 21 view .LVU1375
 5266 015e 0399     		ldr	r1, [sp, #12]
 5267 0160 B446     		mov	ip, r6
 5268              	.L313:
 5269              	.LVL372:
 5270              	.LBB1359:
 5271              	.LBB1323:
 5272              	.LBB1321:
 5273              	.LBB1312:
 5274              	.LBI1312:
  42:../../libDaisy//src/hid/disp/oled_display.h ****     {
 5275              		.loc 1 42 10 is_stmt 1 view .LVU1376
 5276              	.LBB1313:
 5277              	.LBI1313:
 352:../../libDaisy//src/dev/oled_ssd130x.h ****     {
 5278              		.loc 4 352 10 view .LVU1377
 5279              	.LBB1314:
 357:../../libDaisy//src/dev/oled_ssd130x.h ****         else
 5280              		.loc 4 357 48 is_stmt 0 view .LVU1378
 5281 0162 4FF0010B 		mov	fp, #1
 357:../../libDaisy//src/dev/oled_ssd130x.h ****         else
 5282              		.loc 4 357 28 view .LVU1379
 5283 0166 CB08     		lsrs	r3, r1, #3
 357:../../libDaisy//src/dev/oled_ssd130x.h ****         else
 5284              		.loc 4 357 54 view .LVU1380
 5285 0168 01F00708 		and	r8, r1, #7
 354:../../libDaisy//src/dev/oled_ssd130x.h ****             return;
 5286              		.loc 4 354 9 view .LVU1381
 5287 016c BCF17F0F 		cmp	ip, #127
 357:../../libDaisy//src/dev/oled_ssd130x.h ****         else
 5288              		.loc 4 357 42 view .LVU1382
 5289 0170 0CEBC313 		add	r3, ip, r3, lsl #7
 5290              	.LBE1314:
 5291              	.LBE1313:
 5292              	.LBE1312:
 242:../../libDaisy//src/hid/disp/display.h ****             if(error2 > -deltaY)
 5293              		.loc 3 242 20 view .LVU1383
 5294 0174 0EFA0BF9 		lsl	r9, lr, fp
 5295              	.LVL373:
 5296              	.LBB1317:
 5297              	.LBB1316:
 5298              	.LBB1315:
 357:../../libDaisy//src/dev/oled_ssd130x.h ****         else
 5299              		.loc 4 357 48 view .LVU1384
 5300 0178 0BFA08F8 		lsl	r8, fp, r8
 354:../../libDaisy//src/dev/oled_ssd130x.h ****             return;
 5301              		.loc 4 354 9 view .LVU1385
 5302 017c 08D8     		bhi	.L314
 5303 017e 3F29     		cmp	r1, #63
 357:../../libDaisy//src/dev/oled_ssd130x.h ****         else
 5304              		.loc 4 357 42 view .LVU1386
 5305 0180 2344     		add	r3, r3, r4
 354:../../libDaisy//src/dev/oled_ssd130x.h ****             return;
 5306              		.loc 4 354 9 view .LVU1387
 5307 0182 05D8     		bhi	.L314
ARM GAS  /var/folders/1y/_321xjh9623c014x9_qw12rr0000gn/T//cc4eHiNS.s 			page 153


 357:../../libDaisy//src/dev/oled_ssd130x.h ****         else
 5308              		.loc 4 357 42 view .LVU1388
 5309 0184 93F864B4 		ldrb	fp, [r3, #1124]	@ zero_extendqisi2
 5310 0188 48EA0B08 		orr	r8, r8, fp
 5311 018c 83F86484 		strb	r8, [r3, #1124]
 5312              	.L314:
 357:../../libDaisy//src/dev/oled_ssd130x.h ****         else
 5313              		.loc 4 357 42 view .LVU1389
 5314              	.LBE1315:
 5315              	.LBE1316:
 5316              	.LBE1317:
 243:../../libDaisy//src/hid/disp/display.h ****             {
 5317              		.loc 3 243 13 view .LVU1390
 5318 0190 BAEB4E0F 		cmp	r10, lr, lsl #1
 5319 0194 04DA     		bge	.L315
 245:../../libDaisy//src/hid/disp/display.h ****                 x1 += signX;
 5320              		.loc 3 245 23 view .LVU1391
 5321 0196 059B     		ldr	r3, [sp, #20]
 246:../../libDaisy//src/hid/disp/display.h ****             }
 5322              		.loc 3 246 20 view .LVU1392
 5323 0198 0CF1FF3C 		add	ip, ip, #-1
 5324              	.LVL374:
 245:../../libDaisy//src/hid/disp/display.h ****                 x1 += signX;
 5325              		.loc 3 245 23 view .LVU1393
 5326 019c AEEB030E 		sub	lr, lr, r3
 5327              	.LVL375:
 5328              	.L315:
 249:../../libDaisy//src/hid/disp/display.h ****             {
 5329              		.loc 3 249 13 view .LVU1394
 5330 01a0 B9F1000F 		cmp	r9, #0
 5331 01a4 01D0     		beq	.L316
 252:../../libDaisy//src/hid/disp/display.h ****             }
 5332              		.loc 3 252 20 view .LVU1395
 5333 01a6 069B     		ldr	r3, [sp, #24]
 5334 01a8 1944     		add	r1, r1, r3
 5335              	.LVL376:
 5336              	.L316:
 239:../../libDaisy//src/hid/disp/display.h ****         {
 5337              		.loc 3 239 26 is_stmt 1 view .LVU1396
 5338 01aa 6645     		cmp	r6, ip
 5339 01ac D9D1     		bne	.L313
 239:../../libDaisy//src/hid/disp/display.h ****         {
 5340              		.loc 3 239 26 is_stmt 0 view .LVU1397
 5341 01ae 049B     		ldr	r3, [sp, #16]
 5342 01b0 8B42     		cmp	r3, r1
 5343 01b2 D6D1     		bne	.L313
 5344 01b4 4FF0000B 		mov	fp, #0
 5345              	.LVL377:
 5346              	.L310:
 239:../../libDaisy//src/hid/disp/display.h ****         {
 5347              		.loc 3 239 26 view .LVU1398
 5348              	.LBE1321:
 5349              	.LBE1323:
 5350              	.LBB1324:
 5351              	.LBI1324:
 221:../../libDaisy//src/hid/disp/display.h ****                   uint_fast8_t y1,
 5352              		.loc 3 221 10 is_stmt 1 view .LVU1399
ARM GAS  /var/folders/1y/_321xjh9623c014x9_qw12rr0000gn/T//cc4eHiNS.s 			page 154


 5353              	.LBB1325:
 227:../../libDaisy//src/hid/disp/display.h ****         int_fast16_t deltaY = abs((int_fast16_t)y2 - (int_fast16_t)y1);
 5354              		.loc 3 227 52 is_stmt 0 view .LVU1400
 5355 01b8 A7EB060E 		sub	lr, r7, r6
 229:../../libDaisy//src/hid/disp/display.h ****         int_fast16_t signY  = ((y1 < y2) ? 1 : -1);
 5356              		.loc 3 229 42 view .LVU1401
 5357 01bc B742     		cmp	r7, r6
 5358 01be 8CBF     		ite	hi
 5359 01c0 0126     		movhi	r6, #1
 5360 01c2 4FF0FF36 		movls	r6, #-1
 5361              	.LBB1326:
 5362              	.LBB1327:
 5363              	.LBB1328:
 354:../../libDaisy//src/dev/oled_ssd130x.h ****             return;
 5364              		.loc 4 354 9 view .LVU1402
 5365 01c6 079B     		ldr	r3, [sp, #28]
 5366              	.LBE1328:
 5367              	.LBE1327:
 5368              	.LBE1326:
 227:../../libDaisy//src/hid/disp/display.h ****         int_fast16_t deltaY = abs((int_fast16_t)y2 - (int_fast16_t)y1);
 5369              		.loc 3 227 22 view .LVU1403
 5370 01c8 BEF1000F 		cmp	lr, #0
 5371 01cc B8BF     		it	lt
 5372 01ce CEF1000E 		rsblt	lr, lr, #0
 5373              	.LVL378:
 5374              	.LBB1331:
 5375              	.LBI1326:
  42:../../libDaisy//src/hid/disp/oled_display.h ****     {
 5376              		.loc 1 42 10 is_stmt 1 view .LVU1404
 5377              	.LBB1330:
 5378              	.LBI1327:
 352:../../libDaisy//src/dev/oled_ssd130x.h ****     {
 5379              		.loc 4 352 10 view .LVU1405
 5380              	.LBB1329:
 354:../../libDaisy//src/dev/oled_ssd130x.h ****             return;
 5381              		.loc 4 354 14 is_stmt 0 view .LVU1406
 5382 01d2 7F2F     		cmp	r7, #127
 5383 01d4 94BF     		ite	ls
 5384 01d6 4FF0000A 		movls	r10, #0
 5385 01da 4FF0010A 		movhi	r10, #1
 354:../../libDaisy//src/dev/oled_ssd130x.h ****             return;
 5386              		.loc 4 354 9 view .LVU1407
 5387 01de 9BB9     		cbnz	r3, .L318
 5388 01e0 BAF1000F 		cmp	r10, #0
 5389 01e4 10D1     		bne	.L318
 357:../../libDaisy//src/dev/oled_ssd130x.h ****         else
 5390              		.loc 4 357 28 view .LVU1408
 5391 01e6 0499     		ldr	r1, [sp, #16]
 357:../../libDaisy//src/dev/oled_ssd130x.h ****         else
 5392              		.loc 4 357 48 view .LVU1409
 5393 01e8 4FF0010C 		mov	ip, #1
 357:../../libDaisy//src/dev/oled_ssd130x.h ****         else
 5394              		.loc 4 357 28 view .LVU1410
 5395 01ec CB08     		lsrs	r3, r1, #3
 357:../../libDaisy//src/dev/oled_ssd130x.h ****         else
 5396              		.loc 4 357 54 view .LVU1411
 5397 01ee 01F00701 		and	r1, r1, #7
ARM GAS  /var/folders/1y/_321xjh9623c014x9_qw12rr0000gn/T//cc4eHiNS.s 			page 155


 357:../../libDaisy//src/dev/oled_ssd130x.h ****         else
 5398              		.loc 4 357 42 view .LVU1412
 5399 01f2 07EBC313 		add	r3, r7, r3, lsl #7
 357:../../libDaisy//src/dev/oled_ssd130x.h ****         else
 5400              		.loc 4 357 48 view .LVU1413
 5401 01f6 0CFA01F1 		lsl	r1, ip, r1
 357:../../libDaisy//src/dev/oled_ssd130x.h ****         else
 5402              		.loc 4 357 42 view .LVU1414
 5403 01fa 2344     		add	r3, r3, r4
 5404 01fc 93F864C4 		ldrb	ip, [r3, #1124]	@ zero_extendqisi2
 5405 0200 41EA0C01 		orr	r1, r1, ip
 5406 0204 83F86414 		strb	r1, [r3, #1124]
 5407              	.L318:
 5408              	.LVL379:
 357:../../libDaisy//src/dev/oled_ssd130x.h ****         else
 5409              		.loc 4 357 42 view .LVU1415
 5410              	.LBE1329:
 5411              	.LBE1330:
 5412              	.LBE1331:
 239:../../libDaisy//src/hid/disp/display.h ****         {
 5413              		.loc 3 239 26 is_stmt 1 view .LVU1416
 5414 0208 099B     		ldr	r3, [sp, #36]
 5415 020a 33BB     		cbnz	r3, .L319
 227:../../libDaisy//src/hid/disp/display.h ****         int_fast16_t deltaY = abs((int_fast16_t)y2 - (int_fast16_t)y1);
 5416              		.loc 3 227 22 is_stmt 0 view .LVU1417
 5417 020c F046     		mov	r8, lr
 5418              	.LBE1325:
 5419              	.LBE1324:
 5420              	.LBE1359:
 214:Dubby.cpp     ****     display.DrawRect(menuBoxBounding[menuItemSelected][0], menuBoxBounding[menuItemSelected][1], me
 5421              		.loc 2 214 21 view .LVU1418
 5422 020e DDF810C0 		ldr	ip, [sp, #16]
 5423              	.LVL380:
 5424              	.L320:
 5425              	.LBB1360:
 5426              	.LBB1336:
 5427              	.LBB1335:
 5428              	.LBB1332:
 5429              	.LBI1332:
  42:../../libDaisy//src/hid/disp/oled_display.h ****     {
 5430              		.loc 1 42 10 is_stmt 1 view .LVU1419
 5431              	.LBB1333:
 5432              	.LBI1333:
 352:../../libDaisy//src/dev/oled_ssd130x.h ****     {
 5433              		.loc 4 352 10 view .LVU1420
 5434              	.LBB1334:
 357:../../libDaisy//src/dev/oled_ssd130x.h ****         else
 5435              		.loc 4 357 28 is_stmt 0 view .LVU1421
 5436 0212 4FEADC03 		lsr	r3, ip, #3
 357:../../libDaisy//src/dev/oled_ssd130x.h ****         else
 5437              		.loc 4 357 54 view .LVU1422
 5438 0216 0CF00701 		and	r1, ip, #7
 357:../../libDaisy//src/dev/oled_ssd130x.h ****         else
 5439              		.loc 4 357 48 view .LVU1423
 5440 021a 4FF00109 		mov	r9, #1
 354:../../libDaisy//src/dev/oled_ssd130x.h ****             return;
 5441              		.loc 4 354 9 view .LVU1424
ARM GAS  /var/folders/1y/_321xjh9623c014x9_qw12rr0000gn/T//cc4eHiNS.s 			page 156


 5442 021e 7F28     		cmp	r0, #127
 357:../../libDaisy//src/dev/oled_ssd130x.h ****         else
 5443              		.loc 4 357 42 view .LVU1425
 5444 0220 00EBC313 		add	r3, r0, r3, lsl #7
 357:../../libDaisy//src/dev/oled_ssd130x.h ****         else
 5445              		.loc 4 357 48 view .LVU1426
 5446 0224 09FA01F1 		lsl	r1, r9, r1
 354:../../libDaisy//src/dev/oled_ssd130x.h ****             return;
 5447              		.loc 4 354 9 view .LVU1427
 5448 0228 09D8     		bhi	.L322
 354:../../libDaisy//src/dev/oled_ssd130x.h ****             return;
 5449              		.loc 4 354 9 view .LVU1428
 5450 022a BCF13F0F 		cmp	ip, #63
 357:../../libDaisy//src/dev/oled_ssd130x.h ****         else
 5451              		.loc 4 357 42 view .LVU1429
 5452 022e 2344     		add	r3, r3, r4
 354:../../libDaisy//src/dev/oled_ssd130x.h ****             return;
 5453              		.loc 4 354 9 view .LVU1430
 5454 0230 05D8     		bhi	.L322
 357:../../libDaisy//src/dev/oled_ssd130x.h ****         else
 5455              		.loc 4 357 42 view .LVU1431
 5456 0232 93F86494 		ldrb	r9, [r3, #1124]	@ zero_extendqisi2
 5457 0236 41EA0901 		orr	r1, r1, r9
 5458 023a 83F86414 		strb	r1, [r3, #1124]
 5459              	.L322:
 357:../../libDaisy//src/dev/oled_ssd130x.h ****         else
 5460              		.loc 4 357 42 view .LVU1432
 5461              	.LBE1334:
 5462              	.LBE1333:
 5463              	.LBE1332:
 243:../../libDaisy//src/hid/disp/display.h ****             {
 5464              		.loc 3 243 13 view .LVU1433
 5465 023e 5FEA4803 		lsls	r3, r8, #1
 246:../../libDaisy//src/hid/disp/display.h ****             }
 5466              		.loc 3 246 20 view .LVU1434
 5467 0242 18BF     		it	ne
 5468 0244 8019     		addne	r0, r0, r6
 5469              	.LVL381:
 249:../../libDaisy//src/hid/disp/display.h ****             {
 5470              		.loc 3 249 13 view .LVU1435
 5471 0246 9E45     		cmp	lr, r3
 5472 0248 02DD     		ble	.L324
 251:../../libDaisy//src/hid/disp/display.h ****                 y1 += signY;
 5473              		.loc 3 251 23 view .LVU1436
 5474 024a F044     		add	r8, r8, lr
 5475              	.LVL382:
 252:../../libDaisy//src/hid/disp/display.h ****             }
 5476              		.loc 3 252 20 view .LVU1437
 5477 024c 0CF1FF3C 		add	ip, ip, #-1
 5478              	.LVL383:
 5479              	.L324:
 239:../../libDaisy//src/hid/disp/display.h ****         {
 5480              		.loc 3 239 26 is_stmt 1 view .LVU1438
 5481 0250 8742     		cmp	r7, r0
 5482 0252 DED1     		bne	.L320
 239:../../libDaisy//src/hid/disp/display.h ****         {
 5483              		.loc 3 239 26 is_stmt 0 view .LVU1439
ARM GAS  /var/folders/1y/_321xjh9623c014x9_qw12rr0000gn/T//cc4eHiNS.s 			page 157


 5484 0254 049B     		ldr	r3, [sp, #16]
 5485 0256 6345     		cmp	r3, ip
 5486 0258 DBD1     		bne	.L320
 5487              	.LVL384:
 5488              	.L319:
 239:../../libDaisy//src/hid/disp/display.h ****         {
 5489              		.loc 3 239 26 view .LVU1440
 5490              	.LBE1335:
 5491              	.LBE1336:
 5492              	.LBB1337:
 5493              	.LBI1337:
 221:../../libDaisy//src/hid/disp/display.h ****                   uint_fast8_t y1,
 5494              		.loc 3 221 10 is_stmt 1 view .LVU1441
 5495              	.LBB1338:
 228:../../libDaisy//src/hid/disp/display.h ****         int_fast16_t signX  = ((x1 < x2) ? 1 : -1);
 5496              		.loc 3 228 52 is_stmt 0 view .LVU1442
 5497 025a DDE90331 		ldrd	r3, r1, [sp, #12]
 5498 025e A3EB010E 		sub	lr, r3, r1
 230:../../libDaisy//src/hid/disp/display.h ****         int_fast16_t error  = deltaX - deltaY;
 5499              		.loc 3 230 42 view .LVU1443
 5500 0262 8B42     		cmp	r3, r1
 5501 0264 8CBF     		ite	hi
 5502 0266 4FF00108 		movhi	r8, #1
 5503 026a 4FF0FF38 		movls	r8, #-1
 5504              	.LBB1339:
 5505              	.LBB1340:
 5506              	.LBB1341:
 354:../../libDaisy//src/dev/oled_ssd130x.h ****             return;
 5507              		.loc 4 354 9 view .LVU1444
 5508 026e 0899     		ldr	r1, [sp, #32]
 5509              	.LBE1341:
 5510              	.LBE1340:
 5511              	.LBE1339:
 228:../../libDaisy//src/hid/disp/display.h ****         int_fast16_t signX  = ((x1 < x2) ? 1 : -1);
 5512              		.loc 3 228 22 view .LVU1445
 5513 0270 BEF1000F 		cmp	lr, #0
 5514 0274 B8BF     		it	lt
 5515 0276 CEF1000E 		rsblt	lr, lr, #0
 5516              	.LVL385:
 231:../../libDaisy//src/hid/disp/display.h ****         int_fast16_t error2;
 5517              		.loc 3 231 22 view .LVU1446
 5518 027a CEF1000C 		rsb	ip, lr, #0
 5519              	.LVL386:
 5520              	.LBB1344:
 5521              	.LBI1339:
  42:../../libDaisy//src/hid/disp/oled_display.h ****     {
 5522              		.loc 1 42 10 is_stmt 1 view .LVU1447
 5523              	.LBB1343:
 5524              	.LBI1340:
 352:../../libDaisy//src/dev/oled_ssd130x.h ****     {
 5525              		.loc 4 352 10 view .LVU1448
 5526              	.LBB1342:
 354:../../libDaisy//src/dev/oled_ssd130x.h ****             return;
 5527              		.loc 4 354 9 is_stmt 0 view .LVU1449
 5528 027e 81B9     		cbnz	r1, .L326
 5529 0280 BAF1000F 		cmp	r10, #0
 5530 0284 0DD1     		bne	.L326
ARM GAS  /var/folders/1y/_321xjh9623c014x9_qw12rr0000gn/T//cc4eHiNS.s 			page 158


 357:../../libDaisy//src/dev/oled_ssd130x.h ****         else
 5531              		.loc 4 357 28 view .LVU1450
 5532 0286 1946     		mov	r1, r3
 5533 0288 DB08     		lsrs	r3, r3, #3
 357:../../libDaisy//src/dev/oled_ssd130x.h ****         else
 5534              		.loc 4 357 42 view .LVU1451
 5535 028a 07EBC313 		add	r3, r7, r3, lsl #7
 357:../../libDaisy//src/dev/oled_ssd130x.h ****         else
 5536              		.loc 4 357 54 view .LVU1452
 5537 028e 01F00700 		and	r0, r1, #7
 357:../../libDaisy//src/dev/oled_ssd130x.h ****         else
 5538              		.loc 4 357 48 view .LVU1453
 5539 0292 0121     		movs	r1, #1
 357:../../libDaisy//src/dev/oled_ssd130x.h ****         else
 5540              		.loc 4 357 42 view .LVU1454
 5541 0294 2344     		add	r3, r3, r4
 357:../../libDaisy//src/dev/oled_ssd130x.h ****         else
 5542              		.loc 4 357 48 view .LVU1455
 5543 0296 8140     		lsls	r1, r1, r0
 357:../../libDaisy//src/dev/oled_ssd130x.h ****         else
 5544              		.loc 4 357 42 view .LVU1456
 5545 0298 93F86404 		ldrb	r0, [r3, #1124]	@ zero_extendqisi2
 5546 029c 0143     		orrs	r1, r1, r0
 5547 029e 83F86414 		strb	r1, [r3, #1124]
 5548              	.L326:
 5549              	.LVL387:
 357:../../libDaisy//src/dev/oled_ssd130x.h ****         else
 5550              		.loc 4 357 42 view .LVU1457
 5551              	.LBE1342:
 5552              	.LBE1343:
 5553              	.LBE1344:
 239:../../libDaisy//src/hid/disp/display.h ****         {
 5554              		.loc 3 239 26 is_stmt 1 view .LVU1458
 5555 02a2 BBF1000F 		cmp	fp, #0
 5556 02a6 25D1     		bne	.L327
 5557 02a8 6046     		mov	r0, ip
 5558              	.LBE1338:
 5559              	.LBE1337:
 5560              	.LBE1360:
 214:Dubby.cpp     ****     display.DrawRect(menuBoxBounding[menuItemSelected][0], menuBoxBounding[menuItemSelected][1], me
 5561              		.loc 2 214 21 is_stmt 0 view .LVU1459
 5562 02aa 3946     		mov	r1, r7
 5563              	.LVL388:
 5564              	.L328:
 5565              	.LBB1361:
 5566              	.LBB1352:
 5567              	.LBB1351:
 5568              	.LBB1345:
 5569              	.LBI1345:
  42:../../libDaisy//src/hid/disp/oled_display.h ****     {
 5570              		.loc 1 42 10 is_stmt 1 view .LVU1460
 5571              	.LBB1346:
 5572              	.LBI1346:
 352:../../libDaisy//src/dev/oled_ssd130x.h ****     {
 5573              		.loc 4 352 10 view .LVU1461
 5574              	.LBB1347:
 357:../../libDaisy//src/dev/oled_ssd130x.h ****         else
ARM GAS  /var/folders/1y/_321xjh9623c014x9_qw12rr0000gn/T//cc4eHiNS.s 			page 159


 5575              		.loc 4 357 48 is_stmt 0 view .LVU1462
 5576 02ac 0126     		movs	r6, #1
 357:../../libDaisy//src/dev/oled_ssd130x.h ****         else
 5577              		.loc 4 357 28 view .LVU1463
 5578 02ae D308     		lsrs	r3, r2, #3
 357:../../libDaisy//src/dev/oled_ssd130x.h ****         else
 5579              		.loc 4 357 54 view .LVU1464
 5580 02b0 02F0070A 		and	r10, r2, #7
 354:../../libDaisy//src/dev/oled_ssd130x.h ****             return;
 5581              		.loc 4 354 9 view .LVU1465
 5582 02b4 7F29     		cmp	r1, #127
 5583              	.LBE1347:
 5584              	.LBE1346:
 5585              	.LBE1345:
 242:../../libDaisy//src/hid/disp/display.h ****             if(error2 > -deltaY)
 5586              		.loc 3 242 20 view .LVU1466
 5587 02b6 00FA06F9 		lsl	r9, r0, r6
 5588              	.LVL389:
 5589              	.LBB1350:
 5590              	.LBB1349:
 5591              	.LBB1348:
 357:../../libDaisy//src/dev/oled_ssd130x.h ****         else
 5592              		.loc 4 357 42 view .LVU1467
 5593 02ba 01EBC313 		add	r3, r1, r3, lsl #7
 357:../../libDaisy//src/dev/oled_ssd130x.h ****         else
 5594              		.loc 4 357 48 view .LVU1468
 5595 02be 06FA0AF6 		lsl	r6, r6, r10
 354:../../libDaisy//src/dev/oled_ssd130x.h ****             return;
 5596              		.loc 4 354 9 view .LVU1469
 5597 02c2 08D8     		bhi	.L330
 354:../../libDaisy//src/dev/oled_ssd130x.h ****             return;
 5598              		.loc 4 354 9 view .LVU1470
 5599 02c4 3F2A     		cmp	r2, #63
 357:../../libDaisy//src/dev/oled_ssd130x.h ****         else
 5600              		.loc 4 357 42 view .LVU1471
 5601 02c6 2344     		add	r3, r3, r4
 354:../../libDaisy//src/dev/oled_ssd130x.h ****             return;
 5602              		.loc 4 354 9 view .LVU1472
 5603 02c8 05D8     		bhi	.L330
 357:../../libDaisy//src/dev/oled_ssd130x.h ****         else
 5604              		.loc 4 357 42 view .LVU1473
 5605 02ca 93F864A4 		ldrb	r10, [r3, #1124]	@ zero_extendqisi2
 5606 02ce 46EA0A06 		orr	r6, r6, r10
 5607 02d2 83F86464 		strb	r6, [r3, #1124]
 5608              	.L330:
 357:../../libDaisy//src/dev/oled_ssd130x.h ****         else
 5609              		.loc 4 357 42 view .LVU1474
 5610              	.LBE1348:
 5611              	.LBE1349:
 5612              	.LBE1350:
 243:../../libDaisy//src/hid/disp/display.h ****             {
 5613              		.loc 3 243 13 view .LVU1475
 5614 02d6 BCEB400F 		cmp	ip, r0, lsl #1
 5615 02da 02DA     		bge	.L331
 246:../../libDaisy//src/hid/disp/display.h ****             }
 5616              		.loc 3 246 20 view .LVU1476
 5617 02dc 0139     		subs	r1, r1, #1
ARM GAS  /var/folders/1y/_321xjh9623c014x9_qw12rr0000gn/T//cc4eHiNS.s 			page 160


 5618              	.LVL390:
 245:../../libDaisy//src/hid/disp/display.h ****                 x1 += signX;
 5619              		.loc 3 245 23 view .LVU1477
 5620 02de A0EB0E00 		sub	r0, r0, lr
 5621              	.LVL391:
 5622              	.L331:
 249:../../libDaisy//src/hid/disp/display.h ****             {
 5623              		.loc 3 249 13 view .LVU1478
 5624 02e2 B9F1000F 		cmp	r9, #0
 5625 02e6 00D0     		beq	.L332
 252:../../libDaisy//src/hid/disp/display.h ****             }
 5626              		.loc 3 252 20 view .LVU1479
 5627 02e8 4244     		add	r2, r2, r8
 5628              	.LVL392:
 5629              	.L332:
 239:../../libDaisy//src/hid/disp/display.h ****         {
 5630              		.loc 3 239 26 is_stmt 1 view .LVU1480
 5631 02ea 8F42     		cmp	r7, r1
 5632 02ec DED1     		bne	.L328
 239:../../libDaisy//src/hid/disp/display.h ****         {
 5633              		.loc 3 239 26 is_stmt 0 view .LVU1481
 5634 02ee 039B     		ldr	r3, [sp, #12]
 5635 02f0 9342     		cmp	r3, r2
 5636 02f2 DBD1     		bne	.L328
 5637              	.LVL393:
 5638              	.L327:
 239:../../libDaisy//src/hid/disp/display.h ****         {
 5639              		.loc 3 239 26 view .LVU1482
 5640 02f4 2646     		mov	r6, r4
 5641 02f6 A4F10408 		sub	r8, r4, #4
 5642              	.LVL394:
 239:../../libDaisy//src/hid/disp/display.h ****         {
 5643              		.loc 3 239 26 view .LVU1483
 5644 02fa 04F11809 		add	r9, r4, #24
 5645 02fe 4C4F     		ldr	r7, .L381
 5646              	.LVL395:
 239:../../libDaisy//src/hid/disp/display.h ****         {
 5647              		.loc 3 239 26 view .LVU1484
 5648 0300 18EE10AA 		vmov	r10, s16	@ int
 5649              	.LVL396:
 5650              	.L333:
 239:../../libDaisy//src/hid/disp/display.h ****         {
 5651              		.loc 3 239 26 view .LVU1485
 5652              	.LBE1351:
 5653              	.LBE1352:
 5654              	.LBE1361:
 5655              	.LBB1362:
 218:Dubby.cpp     ****         display.SetCursor(menuTextCursors[i][0], menuTextCursors[i][1]);
 5656              		.loc 2 218 9 is_stmt 1 discriminator 2 view .LVU1486
 5657              	.LBB1363:
 5658              	.LBB1364:
 173:../../libDaisy//src/hid/disp/display.h ****         currentY_ = (y >= Height()) ? Height() - 1 : y;
 5659              		.loc 3 173 19 is_stmt 0 discriminator 2 view .LVU1487
 5660 0304 B6F85C00 		ldrh	r0, [r6, #92]
 5661              	.LBE1364:
 5662              	.LBE1363:
 219:Dubby.cpp     ****         display.WriteString(GetTextForEnum(MAINMENU, i), Font_6x8, true);
ARM GAS  /var/folders/1y/_321xjh9623c014x9_qw12rr0000gn/T//cc4eHiNS.s 			page 161


 5663              		.loc 2 219 28 discriminator 2 view .LVU1488
 5664 0308 0123     		movs	r3, #1
 218:Dubby.cpp     ****         display.SetCursor(menuTextCursors[i][0], menuTextCursors[i][1]);
 5665              		.loc 2 218 26 discriminator 2 view .LVU1489
 5666 030a B6F86010 		ldrh	r1, [r6, #96]
 5667              	.LVL397:
 5668              	.LBB1369:
 5669              	.LBI1363:
 171:../../libDaisy//src/hid/disp/display.h ****     {
 5670              		.loc 3 171 10 is_stmt 1 discriminator 2 view .LVU1490
 5671              	.LBB1365:
 173:../../libDaisy//src/hid/disp/display.h ****         currentY_ = (y >= Height()) ? Height() - 1 : y;
 5672              		.loc 3 173 9 discriminator 2 view .LVU1491
 5673              	.LBE1365:
 5674              	.LBE1369:
 216:Dubby.cpp     ****     for (int i = 0; i < MENU_LAST; i++) 
 5675              		.loc 2 216 23 is_stmt 0 discriminator 2 view .LVU1492
 5676 030e 0836     		adds	r6, r6, #8
 5677              	.LVL398:
 5678              	.LBB1370:
 5679              	.LBB1366:
 173:../../libDaisy//src/hid/disp/display.h ****         currentY_ = (y >= Height()) ? Height() - 1 : y;
 5680              		.loc 3 173 19 discriminator 2 view .LVU1493
 5681 0310 7F28     		cmp	r0, #127
 5682              	.LBE1366:
 5683              	.LBE1370:
 219:Dubby.cpp     ****         display.WriteString(GetTextForEnum(MAINMENU, i), Font_6x8, true);
 5684              		.loc 2 219 28 discriminator 2 view .LVU1494
 5685 0312 0093     		str	r3, [sp]
 5686              	.LVL399:
 5687              	.LBB1371:
 5688              	.LBB1367:
 173:../../libDaisy//src/hid/disp/display.h ****         currentY_ = (y >= Height()) ? Height() - 1 : y;
 5689              		.loc 3 173 19 discriminator 2 view .LVU1495
 5690 0314 28BF     		it	cs
 5691 0316 7F20     		movcs	r0, #127
 5692              	.LVL400:
 174:../../libDaisy//src/hid/disp/display.h ****     }
 5693              		.loc 3 174 19 discriminator 2 view .LVU1496
 5694 0318 3F29     		cmp	r1, #63
 5695 031a 28BF     		it	cs
 5696 031c 3F21     		movcs	r1, #63
 5697              	.LVL401:
 173:../../libDaisy//src/hid/disp/display.h ****         currentY_ = (y >= Height()) ? Height() - 1 : y;
 5698              		.loc 3 173 19 discriminator 2 view .LVU1497
 5699 031e A4F85404 		strh	r0, [r4, #1108]	@ movhi
 174:../../libDaisy//src/hid/disp/display.h ****     }
 5700              		.loc 3 174 9 is_stmt 1 discriminator 2 view .LVU1498
 5701              	.LBE1367:
 5702              	.LBE1371:
 219:Dubby.cpp     ****         display.WriteString(GetTextForEnum(MAINMENU, i), Font_6x8, true);
 5703              		.loc 2 219 28 is_stmt 0 discriminator 2 view .LVU1499
 5704 0322 5046     		mov	r0, r10
 5705              	.LBB1372:
 5706              	.LBB1368:
 174:../../libDaisy//src/hid/disp/display.h ****     }
 5707              		.loc 3 174 19 discriminator 2 view .LVU1500
ARM GAS  /var/folders/1y/_321xjh9623c014x9_qw12rr0000gn/T//cc4eHiNS.s 			page 162


 5708 0324 A4F85614 		strh	r1, [r4, #1110]	@ movhi
 5709              	.LVL402:
 174:../../libDaisy//src/hid/disp/display.h ****     }
 5710              		.loc 3 174 19 discriminator 2 view .LVU1501
 5711              	.LBE1368:
 5712              	.LBE1372:
 219:Dubby.cpp     ****         display.WriteString(GetTextForEnum(MAINMENU, i), Font_6x8, true);
 5713              		.loc 2 219 9 is_stmt 1 discriminator 2 view .LVU1502
 5714              	.LBB1373:
 5715              	.LBI1373:
 432:Dubby.cpp     **** const char * Dubby::GetTextForEnum(MenuTypes m, int enumVal)
 5716              		.loc 2 432 14 discriminator 2 view .LVU1503
 5717              	.LBB1374:
 434:Dubby.cpp     ****     switch (m)
 5718              		.loc 2 434 5 discriminator 2 view .LVU1504
 436:Dubby.cpp     ****         case MAINMENU:
 5719              		.loc 2 436 9 discriminator 2 view .LVU1505
 437:Dubby.cpp     ****             return MenuItemsStrings[enumVal];
 5720              		.loc 2 437 13 discriminator 2 view .LVU1506
 437:Dubby.cpp     ****             return MenuItemsStrings[enumVal];
 5721              		.loc 2 437 13 is_stmt 0 discriminator 2 view .LVU1507
 5722              	.LBE1374:
 5723              	.LBE1373:
 219:Dubby.cpp     ****         display.WriteString(GetTextForEnum(MAINMENU, i), Font_6x8, true);
 5724              		.loc 2 219 28 discriminator 2 view .LVU1508
 5725 0328 58F8041F 		ldr	r1, [r8, #4]!
 5726 032c 97E80C00 		ldm	r7, {r2, r3}
 5727 0330 FFF7FEFF 		bl	_ZN5daisy25OneBitGraphicsDisplayImplINS_11OledDisplayINS_13SSD130xDriverILj128ELj64ENS_24SSD130
 5728              	.LVL403:
 216:Dubby.cpp     ****     for (int i = 0; i < MENU_LAST; i++) 
 5729              		.loc 2 216 5 is_stmt 1 discriminator 2 view .LVU1509
 216:Dubby.cpp     ****     for (int i = 0; i < MENU_LAST; i++) 
 5730              		.loc 2 216 23 discriminator 2 view .LVU1510
 5731 0334 B145     		cmp	r9, r6
 5732 0336 E5D1     		bne	.L333
 5733              	.LBE1362:
 5734              	.LBB1375:
 5735              	.LBB1376:
 5736              	.LBB1377:
 5737              	.LBB1378:
 5738              	.LBB1379:
 124:../../libDaisy//src/dev/oled_ssd130x.h ****         spi_.BlockingTransmit(&cmd, 1);
 5739              		.loc 4 124 24 is_stmt 0 view .LVU1511
 5740 0338 04F58C64 		add	r4, r4, #1120
 5741              	.LVL404:
 124:../../libDaisy//src/dev/oled_ssd130x.h ****         spi_.BlockingTransmit(&cmd, 1);
 5742              		.loc 4 124 24 view .LVU1512
 5743 033c 05F10C07 		add	r7, r5, #12
 5744 0340 05F20C49 		addw	r9, r5, #1036
 5745              	.LVL405:
 124:../../libDaisy//src/dev/oled_ssd130x.h ****         spi_.BlockingTransmit(&cmd, 1);
 5746              		.loc 4 124 24 view .LVU1513
 5747 0344 B026     		movs	r6, #176
 5748              	.L334:
 5749              	.LVL406:
 124:../../libDaisy//src/dev/oled_ssd130x.h ****         spi_.BlockingTransmit(&cmd, 1);
 5750              		.loc 4 124 24 view .LVU1514
ARM GAS  /var/folders/1y/_321xjh9623c014x9_qw12rr0000gn/T//cc4eHiNS.s 			page 163


 5751 0346 4FF00008 		mov	r8, #0
 124:../../libDaisy//src/dev/oled_ssd130x.h ****         spi_.BlockingTransmit(&cmd, 1);
 5752              		.loc 4 124 23 view .LVU1515
 5753 034a 2046     		mov	r0, r4
 5754 034c 8DF82F60 		strb	r6, [sp, #47]
 5755              	.LVL407:
 124:../../libDaisy//src/dev/oled_ssd130x.h ****         spi_.BlockingTransmit(&cmd, 1);
 5756              		.loc 4 124 23 view .LVU1516
 5757              	.LBE1379:
 5758              	.LBI1378:
 122:../../libDaisy//src/dev/oled_ssd130x.h ****     {
 5759              		.loc 4 122 10 is_stmt 1 view .LVU1517
 5760              	.LBB1380:
 124:../../libDaisy//src/dev/oled_ssd130x.h ****         spi_.BlockingTransmit(&cmd, 1);
 5761              		.loc 4 124 9 view .LVU1518
 5762              	.LBE1380:
 5763              	.LBE1378:
 5764              		.loc 4 383 22 is_stmt 0 view .LVU1519
 5765 0350 0136     		adds	r6, r6, #1
 5766              	.LVL408:
 5767              	.LBB1383:
 5768              	.LBB1381:
 124:../../libDaisy//src/dev/oled_ssd130x.h ****         spi_.BlockingTransmit(&cmd, 1);
 5769              		.loc 4 124 23 view .LVU1520
 5770 0352 4146     		mov	r1, r8
 5771 0354 FFF7FEFF 		bl	dsy_gpio_write
 5772              	.LVL409:
 125:../../libDaisy//src/dev/oled_ssd130x.h ****     };
 5773              		.loc 4 125 9 is_stmt 1 view .LVU1521
 125:../../libDaisy//src/dev/oled_ssd130x.h ****     };
 5774              		.loc 4 125 30 is_stmt 0 view .LVU1522
 5775 0358 6423     		movs	r3, #100
 5776 035a 0122     		movs	r2, #1
 5777 035c 0DF12F01 		add	r1, sp, #47
 5778 0360 2846     		mov	r0, r5
 5779              	.LBE1381:
 5780              	.LBE1383:
 5781              		.loc 4 383 22 view .LVU1523
 5782 0362 F6B2     		uxtb	r6, r6
 5783              	.LBB1384:
 5784              	.LBB1382:
 125:../../libDaisy//src/dev/oled_ssd130x.h ****     };
 5785              		.loc 4 125 30 view .LVU1524
 5786 0364 FFF7FEFF 		bl	_ZN5daisy9SpiHandle16BlockingTransmitEPhjm
 5787              	.LVL410:
 125:../../libDaisy//src/dev/oled_ssd130x.h ****     };
 5788              		.loc 4 125 30 view .LVU1525
 5789              	.LBE1382:
 5790              	.LBE1384:
 5791              	.LBB1385:
 5792              	.LBB1386:
 124:../../libDaisy//src/dev/oled_ssd130x.h ****         spi_.BlockingTransmit(&cmd, 1);
 5793              		.loc 4 124 23 view .LVU1526
 5794 0368 4146     		mov	r1, r8
 5795 036a 2046     		mov	r0, r4
 5796 036c 8DF82F80 		strb	r8, [sp, #47]
 5797              	.LVL411:
ARM GAS  /var/folders/1y/_321xjh9623c014x9_qw12rr0000gn/T//cc4eHiNS.s 			page 164


 124:../../libDaisy//src/dev/oled_ssd130x.h ****         spi_.BlockingTransmit(&cmd, 1);
 5798              		.loc 4 124 23 view .LVU1527
 5799              	.LBE1386:
 5800              	.LBI1385:
 122:../../libDaisy//src/dev/oled_ssd130x.h ****     {
 5801              		.loc 4 122 10 is_stmt 1 view .LVU1528
 5802              	.LBB1387:
 124:../../libDaisy//src/dev/oled_ssd130x.h ****         spi_.BlockingTransmit(&cmd, 1);
 5803              		.loc 4 124 9 view .LVU1529
 124:../../libDaisy//src/dev/oled_ssd130x.h ****         spi_.BlockingTransmit(&cmd, 1);
 5804              		.loc 4 124 23 is_stmt 0 view .LVU1530
 5805 0370 FFF7FEFF 		bl	dsy_gpio_write
 5806              	.LVL412:
 125:../../libDaisy//src/dev/oled_ssd130x.h ****     };
 5807              		.loc 4 125 9 is_stmt 1 view .LVU1531
 125:../../libDaisy//src/dev/oled_ssd130x.h ****     };
 5808              		.loc 4 125 30 is_stmt 0 view .LVU1532
 5809 0374 0122     		movs	r2, #1
 5810 0376 6423     		movs	r3, #100
 5811 0378 0DF12F01 		add	r1, sp, #47
 5812 037c 2846     		mov	r0, r5
 5813 037e FFF7FEFF 		bl	_ZN5daisy9SpiHandle16BlockingTransmitEPhjm
 5814              	.LVL413:
 125:../../libDaisy//src/dev/oled_ssd130x.h ****     };
 5815              		.loc 4 125 30 view .LVU1533
 5816 0382 1023     		movs	r3, #16
 5817              	.LBE1387:
 5818              	.LBE1385:
 5819              	.LBB1388:
 5820              	.LBB1389:
 124:../../libDaisy//src/dev/oled_ssd130x.h ****         spi_.BlockingTransmit(&cmd, 1);
 5821              		.loc 4 124 23 view .LVU1534
 5822 0384 4146     		mov	r1, r8
 5823 0386 2046     		mov	r0, r4
 5824 0388 8DF82F30 		strb	r3, [sp, #47]
 5825              	.LVL414:
 124:../../libDaisy//src/dev/oled_ssd130x.h ****         spi_.BlockingTransmit(&cmd, 1);
 5826              		.loc 4 124 23 view .LVU1535
 5827              	.LBE1389:
 5828              	.LBI1388:
 122:../../libDaisy//src/dev/oled_ssd130x.h ****     {
 5829              		.loc 4 122 10 is_stmt 1 view .LVU1536
 5830              	.LBB1390:
 124:../../libDaisy//src/dev/oled_ssd130x.h ****         spi_.BlockingTransmit(&cmd, 1);
 5831              		.loc 4 124 9 view .LVU1537
 124:../../libDaisy//src/dev/oled_ssd130x.h ****         spi_.BlockingTransmit(&cmd, 1);
 5832              		.loc 4 124 23 is_stmt 0 view .LVU1538
 5833 038c FFF7FEFF 		bl	dsy_gpio_write
 5834              	.LVL415:
 125:../../libDaisy//src/dev/oled_ssd130x.h ****     };
 5835              		.loc 4 125 9 is_stmt 1 view .LVU1539
 125:../../libDaisy//src/dev/oled_ssd130x.h ****     };
 5836              		.loc 4 125 30 is_stmt 0 view .LVU1540
 5837 0390 6423     		movs	r3, #100
 5838 0392 0122     		movs	r2, #1
 5839 0394 0DF12F01 		add	r1, sp, #47
 5840 0398 2846     		mov	r0, r5
ARM GAS  /var/folders/1y/_321xjh9623c014x9_qw12rr0000gn/T//cc4eHiNS.s 			page 165


 5841 039a FFF7FEFF 		bl	_ZN5daisy9SpiHandle16BlockingTransmitEPhjm
 5842              	.LVL416:
 125:../../libDaisy//src/dev/oled_ssd130x.h ****     };
 5843              		.loc 4 125 30 view .LVU1541
 5844              	.LBE1390:
 5845              	.LBE1388:
 5846              	.LBB1391:
 5847              	.LBI1391:
 128:../../libDaisy//src/dev/oled_ssd130x.h ****     {
 5848              		.loc 4 128 10 is_stmt 1 view .LVU1542
 5849              	.LBB1392:
 130:../../libDaisy//src/dev/oled_ssd130x.h ****         spi_.BlockingTransmit(buff, size);
 5850              		.loc 4 130 9 view .LVU1543
 130:../../libDaisy//src/dev/oled_ssd130x.h ****         spi_.BlockingTransmit(buff, size);
 5851              		.loc 4 130 23 is_stmt 0 view .LVU1544
 5852 039e 0121     		movs	r1, #1
 5853 03a0 2046     		mov	r0, r4
 5854 03a2 FFF7FEFF 		bl	dsy_gpio_write
 5855              	.LVL417:
 131:../../libDaisy//src/dev/oled_ssd130x.h ****     };
 5856              		.loc 4 131 9 is_stmt 1 view .LVU1545
 131:../../libDaisy//src/dev/oled_ssd130x.h ****     };
 5857              		.loc 4 131 30 is_stmt 0 view .LVU1546
 5858 03a6 8022     		movs	r2, #128
 5859 03a8 3946     		mov	r1, r7
 5860 03aa 6423     		movs	r3, #100
 5861              	.LBE1392:
 5862              	.LBE1391:
 5863              		.loc 4 383 22 view .LVU1547
 5864 03ac 1744     		add	r7, r7, r2
 5865              	.LVL418:
 5866              	.LBB1394:
 5867              	.LBB1393:
 131:../../libDaisy//src/dev/oled_ssd130x.h ****     };
 5868              		.loc 4 131 30 view .LVU1548
 5869 03ae 2846     		mov	r0, r5
 5870 03b0 FFF7FEFF 		bl	_ZN5daisy9SpiHandle16BlockingTransmitEPhjm
 5871              	.LVL419:
 131:../../libDaisy//src/dev/oled_ssd130x.h ****     };
 5872              		.loc 4 131 30 view .LVU1549
 5873              	.LBE1393:
 5874              	.LBE1394:
 5875              		.loc 4 383 9 is_stmt 1 view .LVU1550
 5876              		.loc 4 383 22 view .LVU1551
 5877 03b4 4F45     		cmp	r7, r9
 5878 03b6 C6D1     		bne	.L334
 5879              	.LBE1377:
 5880              	.LBE1376:
 5881              	.LBE1375:
 223:Dubby.cpp     **** }
 5882              		.loc 2 223 1 is_stmt 0 view .LVU1552
 5883 03b8 0DB0     		add	sp, sp, #52
 5884              		.cfi_remember_state
 5885              		.cfi_def_cfa_offset 44
 5886              		@ sp needed
 5887 03ba BDEC028B 		vldm	sp!, {d8}
 5888              		.cfi_restore 80
ARM GAS  /var/folders/1y/_321xjh9623c014x9_qw12rr0000gn/T//cc4eHiNS.s 			page 166


 5889              		.cfi_restore 81
 5890              		.cfi_def_cfa_offset 36
 5891 03be BDE8F08F 		pop	{r4, r5, r6, r7, r8, r9, r10, fp, pc}
 5892              	.LVL420:
 5893              	.L299:
 5894              		.cfi_restore_state
 5895              	.LBB1395:
 5896              	.LBB1353:
 5897              	.LBB1287:
 5898              	.LBB1283:
  42:../../libDaisy//src/hid/disp/oled_display.h ****     {
 5899              		.loc 1 42 10 is_stmt 1 view .LVU1553
 5900              	.LBB1277:
 5901              	.LBB1273:
 5902              	.LBB1269:
 354:../../libDaisy//src/dev/oled_ssd130x.h ****             return;
 5903              		.loc 4 354 28 is_stmt 0 view .LVU1554
 5904 03c2 039B     		ldr	r3, [sp, #12]
 5905              	.LVL421:
 354:../../libDaisy//src/dev/oled_ssd130x.h ****             return;
 5906              		.loc 4 354 28 view .LVU1555
 5907              	.LBE1269:
 5908              	.LBE1273:
 5909              		.loc 1 44 26 view .LVU1556
 5910 03c4 04F58B65 		add	r5, r4, #1112
 5911              	.LVL422:
 5912              	.LBB1274:
 352:../../libDaisy//src/dev/oled_ssd130x.h ****     {
 5913              		.loc 4 352 10 is_stmt 1 view .LVU1557
 5914              	.LBE1274:
 5915              	.LBE1277:
 5916              	.LBE1283:
 229:../../libDaisy//src/hid/disp/display.h ****         int_fast16_t signY  = ((y1 < y2) ? 1 : -1);
 5917              		.loc 3 229 42 is_stmt 0 view .LVU1558
 5918 03c8 4FF0010B 		mov	fp, #1
 5919              	.LBB1284:
 5920              	.LBB1278:
 5921              	.LBB1275:
 5922              	.LBB1270:
 354:../../libDaisy//src/dev/oled_ssd130x.h ****             return;
 5923              		.loc 4 354 28 view .LVU1559
 5924 03cc 3F2B     		cmp	r3, #63
 5925 03ce 94BF     		ite	ls
 5926 03d0 0023     		movls	r3, #0
 5927 03d2 0123     		movhi	r3, #1
 354:../../libDaisy//src/dev/oled_ssd130x.h ****             return;
 5928              		.loc 4 354 14 view .LVU1560
 5929 03d4 7F2E     		cmp	r6, #127
 354:../../libDaisy//src/dev/oled_ssd130x.h ****             return;
 5930              		.loc 4 354 28 view .LVU1561
 5931 03d6 0893     		str	r3, [sp, #32]
 354:../../libDaisy//src/dev/oled_ssd130x.h ****             return;
 5932              		.loc 4 354 14 view .LVU1562
 5933 03d8 94BF     		ite	ls
 5934 03da 0021     		movls	r1, #0
 5935 03dc 0121     		movhi	r1, #1
 5936 03de 0691     		str	r1, [sp, #24]
ARM GAS  /var/folders/1y/_321xjh9623c014x9_qw12rr0000gn/T//cc4eHiNS.s 			page 167


 354:../../libDaisy//src/dev/oled_ssd130x.h ****             return;
 5937              		.loc 4 354 9 view .LVU1563
 5938 03e0 002B     		cmp	r3, #0
 5939 03e2 7FF459AE 		bne	.L302
 5940 03e6 0029     		cmp	r1, #0
 5941 03e8 3FF440AE 		beq	.L336
 5942 03ec 54E6     		b	.L302
 5943              	.LVL423:
 5944              	.L308:
 354:../../libDaisy//src/dev/oled_ssd130x.h ****             return;
 5945              		.loc 4 354 9 view .LVU1564
 5946              	.LBE1270:
 5947              	.LBE1275:
 5948              	.LBE1278:
 5949              	.LBE1284:
 5950              	.LBE1287:
 5951              	.LBE1353:
 5952              	.LBB1354:
 5953              	.LBB1322:
 5954              	.LBB1318:
 5955              	.LBB1306:
 5956              	.LBB1300:
 354:../../libDaisy//src/dev/oled_ssd130x.h ****             return;
 5957              		.loc 4 354 28 view .LVU1565
 5958 03ee 049B     		ldr	r3, [sp, #16]
 5959              	.LVL424:
 354:../../libDaisy//src/dev/oled_ssd130x.h ****             return;
 5960              		.loc 4 354 28 view .LVU1566
 5961              	.LBE1300:
 5962              	.LBE1306:
 5963              	.LBE1318:
 231:../../libDaisy//src/hid/disp/display.h ****         int_fast16_t error2;
 5964              		.loc 3 231 22 view .LVU1567
 5965 03f0 0599     		ldr	r1, [sp, #20]
 5966              	.LBB1319:
 5967              	.LBB1307:
 5968              	.LBB1301:
 354:../../libDaisy//src/dev/oled_ssd130x.h ****             return;
 5969              		.loc 4 354 28 view .LVU1568
 5970 03f2 3F2B     		cmp	r3, #63
 5971              	.LBE1301:
 5972              	.LBE1307:
 5973              	.LBE1319:
 231:../../libDaisy//src/hid/disp/display.h ****         int_fast16_t error2;
 5974              		.loc 3 231 22 view .LVU1569
 5975 03f4 C1F1000A 		rsb	r10, r1, #0
 5976              	.LVL425:
 5977              	.LBB1320:
  42:../../libDaisy//src/hid/disp/oled_display.h ****     {
 5978              		.loc 1 42 10 is_stmt 1 view .LVU1570
 5979              	.LBB1308:
 352:../../libDaisy//src/dev/oled_ssd130x.h ****     {
 5980              		.loc 4 352 10 view .LVU1571
 5981              	.LBB1302:
 354:../../libDaisy//src/dev/oled_ssd130x.h ****             return;
 5982              		.loc 4 354 28 is_stmt 0 view .LVU1572
 5983 03f8 94BF     		ite	ls
ARM GAS  /var/folders/1y/_321xjh9623c014x9_qw12rr0000gn/T//cc4eHiNS.s 			page 168


 5984 03fa 0023     		movls	r3, #0
 5985 03fc 0123     		movhi	r3, #1
 5986 03fe 0793     		str	r3, [sp, #28]
 354:../../libDaisy//src/dev/oled_ssd130x.h ****             return;
 5987              		.loc 4 354 9 view .LVU1573
 5988 0400 23B9     		cbnz	r3, .L345
 5989 0402 069B     		ldr	r3, [sp, #24]
 5990 0404 13B9     		cbnz	r3, .L345
 5991              	.LBE1302:
 5992              	.LBE1308:
 5993              	.LBE1320:
 230:../../libDaisy//src/hid/disp/display.h ****         int_fast16_t error  = deltaX - deltaY;
 5994              		.loc 3 230 42 view .LVU1574
 5995 0406 0123     		movs	r3, #1
 5996 0408 0693     		str	r3, [sp, #24]
 5997 040a 8FE6     		b	.L335
 5998              	.L345:
 5999 040c 0123     		movs	r3, #1
 6000 040e 0693     		str	r3, [sp, #24]
 6001 0410 A4E6     		b	.L311
 6002              	.LVL426:
 6003              	.L340:
 230:../../libDaisy//src/hid/disp/display.h ****         int_fast16_t error  = deltaX - deltaY;
 6004              		.loc 3 230 42 view .LVU1575
 6005 0412 4FF0FF33 		mov	r3, #-1
 6006 0416 0693     		str	r3, [sp, #24]
 6007              	.LVL427:
 239:../../libDaisy//src/hid/disp/display.h ****         {
 6008              		.loc 3 239 26 is_stmt 1 view .LVU1576
 6009 0418 DDE90331 		ldrd	r3, r1, [sp, #12]
 6010 041c 8B42     		cmp	r3, r1
 6011 041e 7FF49DAE 		bne	.L311
 6012              	.LVL428:
 6013              	.L380:
 239:../../libDaisy//src/hid/disp/display.h ****         {
 6014              		.loc 3 239 33 is_stmt 0 view .LVU1577
 6015 0422 4FF0010B 		mov	fp, #1
 6016 0426 C7E6     		b	.L310
 6017              	.LVL429:
 6018              	.L379:
 239:../../libDaisy//src/hid/disp/display.h ****         {
 6019              		.loc 3 239 33 view .LVU1578
 6020              	.LBE1322:
 6021              	.LBE1354:
 6022              	.LBB1355:
 6023              	.LBB1288:
 239:../../libDaisy//src/hid/disp/display.h ****         {
 6024              		.loc 3 239 19 view .LVU1579
 6025 0428 0123     		movs	r3, #1
 6026 042a 0993     		str	r3, [sp, #36]
 6027 042c 5FE6     		b	.L301
 6028              	.L382:
 6029 042e 00BF     		.align	2
 6030              	.L381:
 6031 0430 00000000 		.word	Font_6x8
 6032              	.LBE1288:
 6033              	.LBE1355:
ARM GAS  /var/folders/1y/_321xjh9623c014x9_qw12rr0000gn/T//cc4eHiNS.s 			page 169


 6034              	.LBE1395:
 6035              		.cfi_endproc
 6036              	.LFE2587:
 6038              		.section	.text._ZN5daisy5Dubby22DisplayPreferencesMenuEv,"ax",%progbits
 6039              		.align	1
 6040              		.p2align 2,,3
 6041              		.global	_ZN5daisy5Dubby22DisplayPreferencesMenuEv
 6042              		.syntax unified
 6043              		.thumb
 6044              		.thumb_func
 6046              	_ZN5daisy5Dubby22DisplayPreferencesMenuEv:
 6047              	.LVL430:
 6048              	.LFB2592:
 291:Dubby.cpp     **** {
 6049              		.loc 2 291 1 is_stmt 1 view -0
 6050              		.cfi_startproc
 6051              		@ args = 0, pretend = 0, frame = 48
 6052              		@ frame_needed = 0, uses_anonymous_args = 0
 292:Dubby.cpp     ****     display.DrawRect(PANE_X_START, PANE_Y_START, PANE_X_END, PANE_Y_END, false, true);
 6053              		.loc 2 292 5 view .LVU1581
 292:Dubby.cpp     ****     display.DrawRect(PANE_X_START, PANE_Y_START, PANE_X_END, PANE_Y_END, false, true);
 6054              		.loc 2 292 21 is_stmt 0 view .LVU1582
 6055 0000 00F58A63 		add	r3, r0, #1104
 291:Dubby.cpp     **** {
 6056              		.loc 2 291 1 view .LVU1583
 6057 0004 2DE9F04F 		push	{r4, r5, r6, r7, r8, r9, r10, fp, lr}
 6058              		.cfi_def_cfa_offset 36
 6059              		.cfi_offset 4, -36
 6060              		.cfi_offset 5, -32
 6061              		.cfi_offset 6, -28
 6062              		.cfi_offset 7, -24
 6063              		.cfi_offset 8, -20
 6064              		.cfi_offset 9, -16
 6065              		.cfi_offset 10, -12
 6066              		.cfi_offset 11, -8
 6067              		.cfi_offset 14, -4
 6068              	.LBB1505:
 6069              	.LBB1506:
 6070              	.LBB1507:
 266:../../libDaisy//src/hid/disp/display.h ****             {
 6071              		.loc 3 266 30 view .LVU1584
 6072 0008 0124     		movs	r4, #1
 6073              	.LBE1507:
 6074              	.LBE1506:
 6075              	.LBE1505:
 291:Dubby.cpp     **** {
 6076              		.loc 2 291 1 view .LVU1585
 6077 000a 0546     		mov	r5, r0
 6078 000c 2DED028B 		vpush.64	{d8}
 6079              		.cfi_def_cfa_offset 44
 6080              		.cfi_offset 80, -44
 6081              		.cfi_offset 81, -40
 292:Dubby.cpp     ****     display.DrawRect(PANE_X_START, PANE_Y_START, PANE_X_END, PANE_Y_END, false, true);
 6082              		.loc 2 292 21 view .LVU1586
 6083 0010 08EE103A 		vmov	s16, r3	@ int
 6084              	.LVL431:
 6085              	.LBB1525:
ARM GAS  /var/folders/1y/_321xjh9623c014x9_qw12rr0000gn/T//cc4eHiNS.s 			page 170


 6086              	.LBI1505:
 257:../../libDaisy//src/hid/disp/display.h ****                   uint_fast8_t y1,
 6087              		.loc 3 257 10 is_stmt 1 view .LVU1587
 6088              	.LBB1523:
 6089              	.LBI1506:
 257:../../libDaisy//src/hid/disp/display.h ****                   uint_fast8_t y1,
 6090              		.loc 3 257 10 view .LVU1588
 6091              	.LBB1521:
 266:../../libDaisy//src/hid/disp/display.h ****             {
 6092              		.loc 3 266 40 view .LVU1589
 6093              	.LBE1521:
 6094              	.LBE1523:
 6095              	.LBE1525:
 291:Dubby.cpp     **** {
 6096              		.loc 2 291 1 is_stmt 0 view .LVU1590
 6097 0014 8FB0     		sub	sp, sp, #60
 6098              		.cfi_def_cfa_offset 104
 6099              	.LVL432:
 6100              	.L385:
 6101              	.LBB1526:
 6102              	.LBB1524:
 6103              	.LBB1522:
 6104              	.LBB1508:
 268:../../libDaisy//src/hid/disp/display.h ****                 {
 6105              		.loc 3 268 44 is_stmt 1 view .LVU1591
 268:../../libDaisy//src/hid/disp/display.h ****                 {
 6106              		.loc 3 268 34 is_stmt 0 view .LVU1592
 6107 0016 0122     		movs	r2, #1
 6108              	.LVL433:
 6109              	.L384:
 6110              	.LBB1509:
 6111              	.LBI1509:
  42:../../libDaisy//src/hid/disp/oled_display.h ****     {
 6112              		.loc 1 42 10 is_stmt 1 view .LVU1593
 6113              	.LBB1510:
 6114              	.LBI1510:
 352:../../libDaisy//src/dev/oled_ssd130x.h ****     {
 6115              		.loc 4 352 10 view .LVU1594
 6116              	.LBB1511:
 6117              	.LBI1511:
 352:../../libDaisy//src/dev/oled_ssd130x.h ****     {
 6118              		.loc 4 352 10 view .LVU1595
 6119              	.LBB1512:
 359:../../libDaisy//src/dev/oled_ssd130x.h ****     }
 6120              		.loc 4 359 28 is_stmt 0 view .LVU1596
 6121 0018 D308     		lsrs	r3, r2, #3
 359:../../libDaisy//src/dev/oled_ssd130x.h ****     }
 6122              		.loc 4 359 49 view .LVU1597
 6123 001a 0121     		movs	r1, #1
 359:../../libDaisy//src/dev/oled_ssd130x.h ****     }
 6124              		.loc 4 359 55 view .LVU1598
 6125 001c 02F00700 		and	r0, r2, #7
 359:../../libDaisy//src/dev/oled_ssd130x.h ****     }
 6126              		.loc 4 359 42 view .LVU1599
 6127 0020 04EBC313 		add	r3, r4, r3, lsl #7
 6128              	.LBE1512:
 6129              	.LBE1511:
ARM GAS  /var/folders/1y/_321xjh9623c014x9_qw12rr0000gn/T//cc4eHiNS.s 			page 171


 6130              	.LBE1510:
 6131              	.LBE1509:
 268:../../libDaisy//src/hid/disp/display.h ****                 {
 6132              		.loc 3 268 17 view .LVU1600
 6133 0024 0A44     		add	r2, r2, r1
 6134              	.LVL434:
 6135              	.LBB1519:
 6136              	.LBB1517:
 6137              	.LBB1515:
 6138              	.LBB1513:
 359:../../libDaisy//src/dev/oled_ssd130x.h ****     }
 6139              		.loc 4 359 49 view .LVU1601
 6140 0026 01FA00F0 		lsl	r0, r1, r0
 359:../../libDaisy//src/dev/oled_ssd130x.h ****     }
 6141              		.loc 4 359 42 view .LVU1602
 6142 002a 2B44     		add	r3, r3, r5
 6143              	.LBE1513:
 6144              	.LBE1515:
 6145              	.LBE1517:
 6146              	.LBE1519:
 268:../../libDaisy//src/hid/disp/display.h ****                 {
 6147              		.loc 3 268 44 view .LVU1603
 6148 002c 342A     		cmp	r2, #52
 6149              	.LBB1520:
 6150              	.LBB1518:
 6151              	.LBB1516:
 6152              	.LBB1514:
 359:../../libDaisy//src/dev/oled_ssd130x.h ****     }
 6153              		.loc 4 359 42 view .LVU1604
 6154 002e 93F86414 		ldrb	r1, [r3, #1124]	@ zero_extendqisi2
 6155 0032 21EA0001 		bic	r1, r1, r0
 6156 0036 83F86414 		strb	r1, [r3, #1124]
 6157              	.LVL435:
 359:../../libDaisy//src/dev/oled_ssd130x.h ****     }
 6158              		.loc 4 359 42 view .LVU1605
 6159              	.LBE1514:
 6160              	.LBE1516:
 6161              	.LBE1518:
 6162              	.LBE1520:
 268:../../libDaisy//src/hid/disp/display.h ****                 {
 6163              		.loc 3 268 17 is_stmt 1 view .LVU1606
 268:../../libDaisy//src/hid/disp/display.h ****                 {
 6164              		.loc 3 268 44 view .LVU1607
 6165 003a EDD1     		bne	.L384
 6166              	.LBE1508:
 266:../../libDaisy//src/hid/disp/display.h ****             {
 6167              		.loc 3 266 13 view .LVU1608
 6168 003c 0134     		adds	r4, r4, #1
 6169              	.LVL436:
 266:../../libDaisy//src/hid/disp/display.h ****             {
 6170              		.loc 3 266 40 view .LVU1609
 6171 003e 7F2C     		cmp	r4, #127
 6172 0040 E9D1     		bne	.L385
 6173 0042 05F10C03 		add	r3, r5, #12
 6174              	.LBE1522:
 6175              	.LBE1524:
 6176              	.LBE1526:
ARM GAS  /var/folders/1y/_321xjh9623c014x9_qw12rr0000gn/T//cc4eHiNS.s 			page 172


 6177              	.LBB1527:
 294:Dubby.cpp     ****     for (int i = 0; i < PREFERENCESMENU_LAST; i++)
 6178              		.loc 2 294 14 is_stmt 0 view .LVU1610
 6179 0046 0322     		movs	r2, #3
 6180              	.LVL437:
 294:Dubby.cpp     ****     for (int i = 0; i < PREFERENCESMENU_LAST; i++)
 6181              		.loc 2 294 14 view .LVU1611
 6182 0048 CDE90553 		strd	r5, r3, [sp, #20]
 6183 004c 0023     		movs	r3, #0
 6184 004e CDE90232 		strd	r3, r2, [sp, #8]
 6185              	.LVL438:
 6186              	.L420:
 296:Dubby.cpp     ****         display.SetCursor(5, 3 + (i * 10));
 6187              		.loc 2 296 9 is_stmt 1 view .LVU1612
 6188              	.LBB1528:
 6189              	.LBI1528:
 171:../../libDaisy//src/hid/disp/display.h ****     {
 6190              		.loc 3 171 10 view .LVU1613
 6191              	.LBB1529:
 173:../../libDaisy//src/hid/disp/display.h ****         currentY_ = (y >= Height()) ? Height() - 1 : y;
 6192              		.loc 3 173 9 view .LVU1614
 174:../../libDaisy//src/hid/disp/display.h ****     }
 6193              		.loc 3 174 19 is_stmt 0 view .LVU1615
 6194 0052 0398     		ldr	r0, [sp, #12]
 173:../../libDaisy//src/hid/disp/display.h ****         currentY_ = (y >= Height()) ? Height() - 1 : y;
 6195              		.loc 3 173 19 view .LVU1616
 6196 0054 0521     		movs	r1, #5
 6197              	.LBE1529:
 6198              	.LBE1528:
 297:Dubby.cpp     ****         display.WriteString(GetTextForEnum(PREFERENCESMENU, i), Font_6x8, true);
 6199              		.loc 2 297 28 view .LVU1617
 6200 0056 0124     		movs	r4, #1
 6201 0058 324B     		ldr	r3, .L471
 6202              	.LBB1532:
 6203              	.LBB1530:
 174:../../libDaisy//src/hid/disp/display.h ****     }
 6204              		.loc 3 174 19 view .LVU1618
 6205 005a A5F85604 		strh	r0, [r5, #1110]	@ movhi
 6206              	.LBE1530:
 6207              	.LBE1532:
 297:Dubby.cpp     ****         display.WriteString(GetTextForEnum(PREFERENCESMENU, i), Font_6x8, true);
 6208              		.loc 2 297 28 view .LVU1619
 6209 005e 0698     		ldr	r0, [sp, #24]
 6210              	.LBB1533:
 6211              	.LBB1531:
 173:../../libDaisy//src/hid/disp/display.h ****         currentY_ = (y >= Height()) ? Height() - 1 : y;
 6212              		.loc 3 173 19 view .LVU1620
 6213 0060 A5F85414 		strh	r1, [r5, #1108]	@ movhi
 174:../../libDaisy//src/hid/disp/display.h ****     }
 6214              		.loc 3 174 9 is_stmt 1 view .LVU1621
 6215              	.LVL439:
 174:../../libDaisy//src/hid/disp/display.h ****     }
 6216              		.loc 3 174 9 is_stmt 0 view .LVU1622
 6217              	.LBE1531:
 6218              	.LBE1533:
 297:Dubby.cpp     ****         display.WriteString(GetTextForEnum(PREFERENCESMENU, i), Font_6x8, true);
 6219              		.loc 2 297 9 is_stmt 1 view .LVU1623
ARM GAS  /var/folders/1y/_321xjh9623c014x9_qw12rr0000gn/T//cc4eHiNS.s 			page 173


 6220              	.LBB1534:
 6221              	.LBI1534:
 432:Dubby.cpp     **** const char * Dubby::GetTextForEnum(MenuTypes m, int enumVal)
 6222              		.loc 2 432 14 view .LVU1624
 6223              	.LBB1535:
 434:Dubby.cpp     ****     switch (m)
 6224              		.loc 2 434 5 view .LVU1625
 438:Dubby.cpp     ****             break;
 6225              		.loc 2 438 13 view .LVU1626
 439:Dubby.cpp     ****         case PREFERENCESMENU:
 6226              		.loc 2 439 9 view .LVU1627
 440:Dubby.cpp     ****             return PreferencesMenuItemsStrings[enumVal];
 6227              		.loc 2 440 13 view .LVU1628
 440:Dubby.cpp     ****             return PreferencesMenuItemsStrings[enumVal];
 6228              		.loc 2 440 13 is_stmt 0 view .LVU1629
 6229              	.LBE1535:
 6230              	.LBE1534:
 297:Dubby.cpp     ****         display.WriteString(GetTextForEnum(PREFERENCESMENU, i), Font_6x8, true);
 6231              		.loc 2 297 28 view .LVU1630
 6232 0064 50F8041B 		ldr	r1, [r0], #4
 6233 0068 0CCB     		ldm	r3, {r2, r3}
 6234 006a 0690     		str	r0, [sp, #24]
 6235 006c 18EE100A 		vmov	r0, s16	@ int
 6236 0070 0094     		str	r4, [sp]
 6237 0072 FFF7FEFF 		bl	_ZN5daisy25OneBitGraphicsDisplayImplINS_11OledDisplayINS_13SSD130xDriverILj128ELj64ENS_24SSD130
 6238              	.LVL440:
 299:Dubby.cpp     ****         if (preferencesMenuItemSelected == i)
 6239              		.loc 2 299 9 is_stmt 1 view .LVU1631
 299:Dubby.cpp     ****         if (preferencesMenuItemSelected == i)
 6240              		.loc 2 299 13 is_stmt 0 view .LVU1632
 6241 0076 95F85930 		ldrb	r3, [r5, #89]	@ zero_extendqisi2
 299:Dubby.cpp     ****         if (preferencesMenuItemSelected == i)
 6242              		.loc 2 299 9 view .LVU1633
 6243 007a 029A     		ldr	r2, [sp, #8]
 6244 007c 9342     		cmp	r3, r2
 6245 007e 53D0     		beq	.L468
 6246              	.L386:
 294:Dubby.cpp     ****     for (int i = 0; i < PREFERENCESMENU_LAST; i++)
 6247              		.loc 2 294 5 is_stmt 1 view .LVU1634
 294:Dubby.cpp     ****     for (int i = 0; i < PREFERENCESMENU_LAST; i++)
 6248              		.loc 2 294 23 is_stmt 0 view .LVU1635
 6249 0080 039B     		ldr	r3, [sp, #12]
 294:Dubby.cpp     ****     for (int i = 0; i < PREFERENCESMENU_LAST; i++)
 6250              		.loc 2 294 5 view .LVU1636
 6251 0082 029A     		ldr	r2, [sp, #8]
 294:Dubby.cpp     ****     for (int i = 0; i < PREFERENCESMENU_LAST; i++)
 6252              		.loc 2 294 23 view .LVU1637
 6253 0084 0599     		ldr	r1, [sp, #20]
 6254 0086 0A33     		adds	r3, r3, #10
 294:Dubby.cpp     ****     for (int i = 0; i < PREFERENCESMENU_LAST; i++)
 6255              		.loc 2 294 5 view .LVU1638
 6256 0088 0132     		adds	r2, r2, #1
 294:Dubby.cpp     ****     for (int i = 0; i < PREFERENCESMENU_LAST; i++)
 6257              		.loc 2 294 23 view .LVU1639
 6258 008a 1031     		adds	r1, r1, #16
 6259 008c 9BB2     		uxth	r3, r3
 6260 008e 042A     		cmp	r2, #4
ARM GAS  /var/folders/1y/_321xjh9623c014x9_qw12rr0000gn/T//cc4eHiNS.s 			page 174


 294:Dubby.cpp     ****     for (int i = 0; i < PREFERENCESMENU_LAST; i++)
 6261              		.loc 2 294 5 view .LVU1640
 6262 0090 0292     		str	r2, [sp, #8]
 6263              	.LVL441:
 294:Dubby.cpp     ****     for (int i = 0; i < PREFERENCESMENU_LAST; i++)
 6264              		.loc 2 294 23 is_stmt 1 view .LVU1641
 6265 0092 0591     		str	r1, [sp, #20]
 6266 0094 0393     		str	r3, [sp, #12]
 6267 0096 DCD1     		bne	.L420
 6268              	.LBE1527:
 6269              	.LBB1625:
 6270              	.LBB1626:
 6271              	.LBB1627:
 6272              	.LBB1628:
 6273              	.LBB1629:
 124:../../libDaisy//src/dev/oled_ssd130x.h ****         spi_.BlockingTransmit(&cmd, 1);
 6274              		.loc 4 124 24 is_stmt 0 view .LVU1642
 6275 0098 05F58B67 		add	r7, r5, #1112
 6276 009c 05F58C66 		add	r6, r5, #1120
 6277 00a0 05F26444 		addw	r4, r5, #1124
 125:../../libDaisy//src/dev/oled_ssd130x.h ****     };
 6278              		.loc 4 125 30 view .LVU1643
 6279 00a4 B025     		movs	r5, #176
 6280              	.LVL442:
 6281              	.L421:
 125:../../libDaisy//src/dev/oled_ssd130x.h ****     };
 6282              		.loc 4 125 30 view .LVU1644
 6283 00a6 4FF00008 		mov	r8, #0
 124:../../libDaisy//src/dev/oled_ssd130x.h ****         spi_.BlockingTransmit(&cmd, 1);
 6284              		.loc 4 124 23 view .LVU1645
 6285 00aa 3046     		mov	r0, r6
 6286 00ac 8DF83750 		strb	r5, [sp, #55]
 6287              	.LVL443:
 124:../../libDaisy//src/dev/oled_ssd130x.h ****         spi_.BlockingTransmit(&cmd, 1);
 6288              		.loc 4 124 23 view .LVU1646
 6289              	.LBE1629:
 6290              	.LBI1628:
 122:../../libDaisy//src/dev/oled_ssd130x.h ****     {
 6291              		.loc 4 122 10 is_stmt 1 view .LVU1647
 6292              	.LBB1630:
 124:../../libDaisy//src/dev/oled_ssd130x.h ****         spi_.BlockingTransmit(&cmd, 1);
 6293              		.loc 4 124 9 view .LVU1648
 6294              	.LBE1630:
 6295              	.LBE1628:
 6296              		.loc 4 383 22 is_stmt 0 view .LVU1649
 6297 00b0 0135     		adds	r5, r5, #1
 6298              	.LVL444:
 6299              	.LBB1633:
 6300              	.LBB1631:
 124:../../libDaisy//src/dev/oled_ssd130x.h ****         spi_.BlockingTransmit(&cmd, 1);
 6301              		.loc 4 124 23 view .LVU1650
 6302 00b2 4146     		mov	r1, r8
 6303 00b4 FFF7FEFF 		bl	dsy_gpio_write
 6304              	.LVL445:
 125:../../libDaisy//src/dev/oled_ssd130x.h ****     };
 6305              		.loc 4 125 9 is_stmt 1 view .LVU1651
 125:../../libDaisy//src/dev/oled_ssd130x.h ****     };
ARM GAS  /var/folders/1y/_321xjh9623c014x9_qw12rr0000gn/T//cc4eHiNS.s 			page 175


 6306              		.loc 4 125 30 is_stmt 0 view .LVU1652
 6307 00b8 6423     		movs	r3, #100
 6308 00ba 0122     		movs	r2, #1
 6309 00bc 0DF13701 		add	r1, sp, #55
 6310 00c0 3846     		mov	r0, r7
 6311              	.LBE1631:
 6312              	.LBE1633:
 6313              		.loc 4 383 22 view .LVU1653
 6314 00c2 EDB2     		uxtb	r5, r5
 6315              	.LBB1634:
 6316              	.LBB1632:
 125:../../libDaisy//src/dev/oled_ssd130x.h ****     };
 6317              		.loc 4 125 30 view .LVU1654
 6318 00c4 FFF7FEFF 		bl	_ZN5daisy9SpiHandle16BlockingTransmitEPhjm
 6319              	.LVL446:
 125:../../libDaisy//src/dev/oled_ssd130x.h ****     };
 6320              		.loc 4 125 30 view .LVU1655
 6321              	.LBE1632:
 6322              	.LBE1634:
 6323              	.LBB1635:
 6324              	.LBB1636:
 124:../../libDaisy//src/dev/oled_ssd130x.h ****         spi_.BlockingTransmit(&cmd, 1);
 6325              		.loc 4 124 23 view .LVU1656
 6326 00c8 4146     		mov	r1, r8
 6327 00ca 3046     		mov	r0, r6
 6328 00cc 8DF83780 		strb	r8, [sp, #55]
 6329              	.LVL447:
 124:../../libDaisy//src/dev/oled_ssd130x.h ****         spi_.BlockingTransmit(&cmd, 1);
 6330              		.loc 4 124 23 view .LVU1657
 6331              	.LBE1636:
 6332              	.LBI1635:
 122:../../libDaisy//src/dev/oled_ssd130x.h ****     {
 6333              		.loc 4 122 10 is_stmt 1 view .LVU1658
 6334              	.LBB1637:
 124:../../libDaisy//src/dev/oled_ssd130x.h ****         spi_.BlockingTransmit(&cmd, 1);
 6335              		.loc 4 124 9 view .LVU1659
 124:../../libDaisy//src/dev/oled_ssd130x.h ****         spi_.BlockingTransmit(&cmd, 1);
 6336              		.loc 4 124 23 is_stmt 0 view .LVU1660
 6337 00d0 FFF7FEFF 		bl	dsy_gpio_write
 6338              	.LVL448:
 125:../../libDaisy//src/dev/oled_ssd130x.h ****     };
 6339              		.loc 4 125 9 is_stmt 1 view .LVU1661
 125:../../libDaisy//src/dev/oled_ssd130x.h ****     };
 6340              		.loc 4 125 30 is_stmt 0 view .LVU1662
 6341 00d4 0122     		movs	r2, #1
 6342 00d6 6423     		movs	r3, #100
 6343 00d8 0DF13701 		add	r1, sp, #55
 6344 00dc 3846     		mov	r0, r7
 6345 00de FFF7FEFF 		bl	_ZN5daisy9SpiHandle16BlockingTransmitEPhjm
 6346              	.LVL449:
 125:../../libDaisy//src/dev/oled_ssd130x.h ****     };
 6347              		.loc 4 125 30 view .LVU1663
 6348 00e2 1023     		movs	r3, #16
 6349              	.LBE1637:
 6350              	.LBE1635:
 6351              	.LBB1638:
 6352              	.LBB1639:
ARM GAS  /var/folders/1y/_321xjh9623c014x9_qw12rr0000gn/T//cc4eHiNS.s 			page 176


 124:../../libDaisy//src/dev/oled_ssd130x.h ****         spi_.BlockingTransmit(&cmd, 1);
 6353              		.loc 4 124 23 view .LVU1664
 6354 00e4 4146     		mov	r1, r8
 6355 00e6 3046     		mov	r0, r6
 6356 00e8 8DF83730 		strb	r3, [sp, #55]
 6357              	.LVL450:
 124:../../libDaisy//src/dev/oled_ssd130x.h ****         spi_.BlockingTransmit(&cmd, 1);
 6358              		.loc 4 124 23 view .LVU1665
 6359              	.LBE1639:
 6360              	.LBI1638:
 122:../../libDaisy//src/dev/oled_ssd130x.h ****     {
 6361              		.loc 4 122 10 is_stmt 1 view .LVU1666
 6362              	.LBB1640:
 124:../../libDaisy//src/dev/oled_ssd130x.h ****         spi_.BlockingTransmit(&cmd, 1);
 6363              		.loc 4 124 9 view .LVU1667
 124:../../libDaisy//src/dev/oled_ssd130x.h ****         spi_.BlockingTransmit(&cmd, 1);
 6364              		.loc 4 124 23 is_stmt 0 view .LVU1668
 6365 00ec FFF7FEFF 		bl	dsy_gpio_write
 6366              	.LVL451:
 125:../../libDaisy//src/dev/oled_ssd130x.h ****     };
 6367              		.loc 4 125 9 is_stmt 1 view .LVU1669
 125:../../libDaisy//src/dev/oled_ssd130x.h ****     };
 6368              		.loc 4 125 30 is_stmt 0 view .LVU1670
 6369 00f0 6423     		movs	r3, #100
 6370 00f2 0122     		movs	r2, #1
 6371 00f4 0DF13701 		add	r1, sp, #55
 6372 00f8 3846     		mov	r0, r7
 6373 00fa FFF7FEFF 		bl	_ZN5daisy9SpiHandle16BlockingTransmitEPhjm
 6374              	.LVL452:
 125:../../libDaisy//src/dev/oled_ssd130x.h ****     };
 6375              		.loc 4 125 30 view .LVU1671
 6376              	.LBE1640:
 6377              	.LBE1638:
 6378              	.LBB1641:
 6379              	.LBI1641:
 128:../../libDaisy//src/dev/oled_ssd130x.h ****     {
 6380              		.loc 4 128 10 is_stmt 1 view .LVU1672
 6381              	.LBB1642:
 130:../../libDaisy//src/dev/oled_ssd130x.h ****         spi_.BlockingTransmit(buff, size);
 6382              		.loc 4 130 9 view .LVU1673
 130:../../libDaisy//src/dev/oled_ssd130x.h ****         spi_.BlockingTransmit(buff, size);
 6383              		.loc 4 130 23 is_stmt 0 view .LVU1674
 6384 00fe 0121     		movs	r1, #1
 6385 0100 3046     		mov	r0, r6
 6386 0102 FFF7FEFF 		bl	dsy_gpio_write
 6387              	.LVL453:
 131:../../libDaisy//src/dev/oled_ssd130x.h ****     };
 6388              		.loc 4 131 9 is_stmt 1 view .LVU1675
 131:../../libDaisy//src/dev/oled_ssd130x.h ****     };
 6389              		.loc 4 131 30 is_stmt 0 view .LVU1676
 6390 0106 8022     		movs	r2, #128
 6391 0108 2146     		mov	r1, r4
 6392 010a 6423     		movs	r3, #100
 6393 010c 3846     		mov	r0, r7
 6394              	.LBE1642:
 6395              	.LBE1641:
 6396              		.loc 4 383 22 view .LVU1677
ARM GAS  /var/folders/1y/_321xjh9623c014x9_qw12rr0000gn/T//cc4eHiNS.s 			page 177


 6397 010e 1444     		add	r4, r4, r2
 6398              	.LVL454:
 6399              	.LBB1644:
 6400              	.LBB1643:
 131:../../libDaisy//src/dev/oled_ssd130x.h ****     };
 6401              		.loc 4 131 30 view .LVU1678
 6402 0110 FFF7FEFF 		bl	_ZN5daisy9SpiHandle16BlockingTransmitEPhjm
 6403              	.LVL455:
 131:../../libDaisy//src/dev/oled_ssd130x.h ****     };
 6404              		.loc 4 131 30 view .LVU1679
 6405              	.LBE1643:
 6406              	.LBE1644:
 6407              		.loc 4 383 9 is_stmt 1 view .LVU1680
 6408              		.loc 4 383 22 view .LVU1681
 6409 0114 B82D     		cmp	r5, #184
 6410 0116 C6D1     		bne	.L421
 6411              	.LBE1627:
 6412              	.LBE1626:
 6413              	.LBE1625:
 304:Dubby.cpp     **** }
 6414              		.loc 2 304 1 is_stmt 0 view .LVU1682
 6415 0118 0FB0     		add	sp, sp, #60
 6416              		.cfi_remember_state
 6417              		.cfi_def_cfa_offset 44
 6418              		@ sp needed
 6419 011a BDEC028B 		vldm	sp!, {d8}
 6420              		.cfi_restore 80
 6421              		.cfi_restore 81
 6422              		.cfi_def_cfa_offset 36
 6423 011e BDE8F08F 		pop	{r4, r5, r6, r7, r8, r9, r10, fp, pc}
 6424              	.LVL456:
 6425              	.L472:
 304:Dubby.cpp     **** }
 6426              		.loc 2 304 1 view .LVU1683
 6427 0122 00BF     		.align	2
 6428              	.L471:
 6429 0124 00000000 		.word	Font_6x8
 6430              	.LVL457:
 6431              	.L468:
 6432              		.cfi_restore_state
 6433              	.LBB1645:
 300:Dubby.cpp     ****             display.DrawRect(submenuBoxBounding[i][0], submenuBoxBounding[i][1], submenuBoxBounding
 6434              		.loc 2 300 13 is_stmt 1 view .LVU1684
 300:Dubby.cpp     ****             display.DrawRect(submenuBoxBounding[i][0], submenuBoxBounding[i][1], submenuBoxBounding
 6435              		.loc 2 300 105 is_stmt 0 view .LVU1685
 6436 0128 059B     		ldr	r3, [sp, #20]
 6437 012a D3F8AC60 		ldr	r6, [r3, #172]
 300:Dubby.cpp     ****             display.DrawRect(submenuBoxBounding[i][0], submenuBoxBounding[i][1], submenuBoxBounding
 6438              		.loc 2 300 53 view .LVU1686
 6439 012e D3F8A470 		ldr	r7, [r3, #164]
 300:Dubby.cpp     ****             display.DrawRect(submenuBoxBounding[i][0], submenuBoxBounding[i][1], submenuBoxBounding
 6440              		.loc 2 300 131 view .LVU1687
 6441 0132 D3F8B0C0 		ldr	ip, [r3, #176]
 300:Dubby.cpp     ****             display.DrawRect(submenuBoxBounding[i][0], submenuBoxBounding[i][1], submenuBoxBounding
 6442              		.loc 2 300 29 view .LVU1688
 6443 0136 3046     		mov	r0, r6
 6444              	.LBB1536:
ARM GAS  /var/folders/1y/_321xjh9623c014x9_qw12rr0000gn/T//cc4eHiNS.s 			page 178


 6445              	.LBB1537:
 6446              	.LBB1538:
 227:../../libDaisy//src/hid/disp/display.h ****         int_fast16_t deltaY = abs((int_fast16_t)y2 - (int_fast16_t)y1);
 6447              		.loc 3 227 52 view .LVU1689
 6448 0138 A6EB0709 		sub	r9, r6, r7
 6449              	.LBE1538:
 6450              	.LBE1537:
 6451              	.LBE1536:
 300:Dubby.cpp     ****             display.DrawRect(submenuBoxBounding[i][0], submenuBoxBounding[i][1], submenuBoxBounding
 6452              		.loc 2 300 79 view .LVU1690
 6453 013c D3F8A830 		ldr	r3, [r3, #168]
 300:Dubby.cpp     ****             display.DrawRect(submenuBoxBounding[i][0], submenuBoxBounding[i][1], submenuBoxBounding
 6454              		.loc 2 300 29 view .LVU1691
 6455 0140 6246     		mov	r2, ip
 6456              	.LBB1619:
 6457              	.LBB1556:
 6458              	.LBB1551:
 227:../../libDaisy//src/hid/disp/display.h ****         int_fast16_t deltaY = abs((int_fast16_t)y2 - (int_fast16_t)y1);
 6459              		.loc 3 227 22 view .LVU1692
 6460 0142 B9F1000F 		cmp	r9, #0
 6461              	.LBE1551:
 6462              	.LBE1556:
 6463              	.LBE1619:
 300:Dubby.cpp     ****             display.DrawRect(submenuBoxBounding[i][0], submenuBoxBounding[i][1], submenuBoxBounding
 6464              		.loc 2 300 79 view .LVU1693
 6465 0146 0493     		str	r3, [sp, #16]
 6466              	.LVL458:
 6467              	.LBB1620:
 6468              	.LBI1536:
 257:../../libDaisy//src/hid/disp/display.h ****                   uint_fast8_t y1,
 6469              		.loc 3 257 10 is_stmt 1 view .LVU1694
 6470              	.LBB1557:
 6471              	.LBI1537:
 221:../../libDaisy//src/hid/disp/display.h ****                   uint_fast8_t y1,
 6472              		.loc 3 221 10 view .LVU1695
 6473              	.LBB1552:
 227:../../libDaisy//src/hid/disp/display.h ****         int_fast16_t deltaY = abs((int_fast16_t)y2 - (int_fast16_t)y1);
 6474              		.loc 3 227 22 is_stmt 0 view .LVU1696
 6475 0148 B8BF     		it	lt
 6476 014a C9F10009 		rsblt	r9, r9, #0
 6477              	.LVL459:
 229:../../libDaisy//src/hid/disp/display.h ****         int_fast16_t signY  = ((y1 < y2) ? 1 : -1);
 6478              		.loc 3 229 42 view .LVU1697
 6479 014e B742     		cmp	r7, r6
 6480 0150 C0F03E81 		bcc	.L387
 6481              	.LVL460:
 6482              	.LBB1539:
 6483              	.LBI1539:
  42:../../libDaisy//src/hid/disp/oled_display.h ****     {
 6484              		.loc 1 42 10 is_stmt 1 view .LVU1698
 6485              	.LBB1540:
 6486              	.LBI1540:
 352:../../libDaisy//src/dev/oled_ssd130x.h ****     {
 6487              		.loc 4 352 10 view .LVU1699
 6488              	.LBB1541:
 354:../../libDaisy//src/dev/oled_ssd130x.h ****             return;
 6489              		.loc 4 354 14 is_stmt 0 view .LVU1700
ARM GAS  /var/folders/1y/_321xjh9623c014x9_qw12rr0000gn/T//cc4eHiNS.s 			page 179


 6490 0154 7F2E     		cmp	r6, #127
 6491              	.LBE1541:
 6492              	.LBE1540:
 6493              	.LBE1539:
 229:../../libDaisy//src/hid/disp/display.h ****         int_fast16_t signY  = ((y1 < y2) ? 1 : -1);
 6494              		.loc 3 229 42 view .LVU1701
 6495 0156 4FF0FF3B 		mov	fp, #-1
 6496              	.LBB1546:
 6497              	.LBB1544:
 6498              	.LBB1542:
 354:../../libDaisy//src/dev/oled_ssd130x.h ****             return;
 6499              		.loc 4 354 14 view .LVU1702
 6500 015a 94BF     		ite	ls
 6501 015c 0021     		movls	r1, #0
 6502 015e 0121     		movhi	r1, #1
 354:../../libDaisy//src/dev/oled_ssd130x.h ****             return;
 6503              		.loc 4 354 28 view .LVU1703
 6504 0160 3F2B     		cmp	r3, #63
 354:../../libDaisy//src/dev/oled_ssd130x.h ****             return;
 6505              		.loc 4 354 14 view .LVU1704
 6506 0162 0891     		str	r1, [sp, #32]
 354:../../libDaisy//src/dev/oled_ssd130x.h ****             return;
 6507              		.loc 4 354 28 view .LVU1705
 6508 0164 94BF     		ite	ls
 6509 0166 0023     		movls	r3, #0
 6510              	.LVL461:
 354:../../libDaisy//src/dev/oled_ssd130x.h ****             return;
 6511              		.loc 4 354 28 view .LVU1706
 6512 0168 0123     		movhi	r3, #1
 6513 016a 0993     		str	r3, [sp, #36]
 354:../../libDaisy//src/dev/oled_ssd130x.h ****             return;
 6514              		.loc 4 354 9 view .LVU1707
 6515 016c 91B9     		cbnz	r1, .L388
 6516 016e 8BB9     		cbnz	r3, .L388
 6517              	.LVL462:
 6518              	.L423:
 357:../../libDaisy//src/dev/oled_ssd130x.h ****         else
 6519              		.loc 4 357 28 view .LVU1708
 6520 0170 0499     		ldr	r1, [sp, #16]
 357:../../libDaisy//src/dev/oled_ssd130x.h ****         else
 6521              		.loc 4 357 48 view .LVU1709
 6522 0172 0124     		movs	r4, #1
 357:../../libDaisy//src/dev/oled_ssd130x.h ****         else
 6523              		.loc 4 357 28 view .LVU1710
 6524 0174 CB08     		lsrs	r3, r1, #3
 357:../../libDaisy//src/dev/oled_ssd130x.h ****         else
 6525              		.loc 4 357 54 view .LVU1711
 6526 0176 01F00701 		and	r1, r1, #7
 357:../../libDaisy//src/dev/oled_ssd130x.h ****         else
 6527              		.loc 4 357 42 view .LVU1712
 6528 017a 06EBC313 		add	r3, r6, r3, lsl #7
 357:../../libDaisy//src/dev/oled_ssd130x.h ****         else
 6529              		.loc 4 357 48 view .LVU1713
 6530 017e 04FA01F1 		lsl	r1, r4, r1
 357:../../libDaisy//src/dev/oled_ssd130x.h ****         else
 6531              		.loc 4 357 42 view .LVU1714
 6532 0182 2B44     		add	r3, r3, r5
ARM GAS  /var/folders/1y/_321xjh9623c014x9_qw12rr0000gn/T//cc4eHiNS.s 			page 180


 6533 0184 93F86444 		ldrb	r4, [r3, #1124]	@ zero_extendqisi2
 6534 0188 2143     		orrs	r1, r1, r4
 6535 018a 83F86414 		strb	r1, [r3, #1124]
 6536              	.LVL463:
 357:../../libDaisy//src/dev/oled_ssd130x.h ****         else
 6537              		.loc 4 357 42 view .LVU1715
 6538 018e 0023     		movs	r3, #0
 6539 0190 CDE90833 		strd	r3, r3, [sp, #32]
 6540              	.L388:
 6541              	.LVL464:
 357:../../libDaisy//src/dev/oled_ssd130x.h ****         else
 6542              		.loc 4 357 42 view .LVU1716
 6543              	.LBE1542:
 6544              	.LBE1544:
 6545              	.LBE1546:
 239:../../libDaisy//src/hid/disp/display.h ****         {
 6546              		.loc 3 239 26 is_stmt 1 view .LVU1717
 6547 0194 B742     		cmp	r7, r6
 6548 0196 00F04381 		beq	.L469
 6549              	.L390:
 6550              	.LVL465:
 227:../../libDaisy//src/hid/disp/display.h ****         int_fast16_t deltaY = abs((int_fast16_t)y2 - (int_fast16_t)y1);
 6551              		.loc 3 227 22 is_stmt 0 view .LVU1718
 6552 019a C846     		mov	r8, r9
 6553              	.LBE1552:
 6554              	.LBE1557:
 6555              	.LBE1620:
 300:Dubby.cpp     ****             display.DrawRect(submenuBoxBounding[i][0], submenuBoxBounding[i][1], submenuBoxBounding
 6556              		.loc 2 300 29 view .LVU1719
 6557 019c 049C     		ldr	r4, [sp, #16]
 6558 019e BE46     		mov	lr, r7
 6559              	.L392:
 6560              	.LVL466:
 6561              	.LBB1621:
 6562              	.LBB1558:
 6563              	.LBB1553:
 6564              	.LBB1547:
 6565              	.LBI1547:
  42:../../libDaisy//src/hid/disp/oled_display.h ****     {
 6566              		.loc 1 42 10 is_stmt 1 view .LVU1720
 6567              	.LBB1548:
 6568              	.LBI1548:
 352:../../libDaisy//src/dev/oled_ssd130x.h ****     {
 6569              		.loc 4 352 10 view .LVU1721
 6570              	.LBB1549:
 357:../../libDaisy//src/dev/oled_ssd130x.h ****         else
 6571              		.loc 4 357 28 is_stmt 0 view .LVU1722
 6572 01a0 E308     		lsrs	r3, r4, #3
 357:../../libDaisy//src/dev/oled_ssd130x.h ****         else
 6573              		.loc 4 357 54 view .LVU1723
 6574 01a2 04F00701 		and	r1, r4, #7
 357:../../libDaisy//src/dev/oled_ssd130x.h ****         else
 6575              		.loc 4 357 48 view .LVU1724
 6576 01a6 4FF0010A 		mov	r10, #1
 354:../../libDaisy//src/dev/oled_ssd130x.h ****             return;
 6577              		.loc 4 354 9 view .LVU1725
 6578 01aa BEF17F0F 		cmp	lr, #127
ARM GAS  /var/folders/1y/_321xjh9623c014x9_qw12rr0000gn/T//cc4eHiNS.s 			page 181


 357:../../libDaisy//src/dev/oled_ssd130x.h ****         else
 6579              		.loc 4 357 42 view .LVU1726
 6580 01ae 0EEBC313 		add	r3, lr, r3, lsl #7
 357:../../libDaisy//src/dev/oled_ssd130x.h ****         else
 6581              		.loc 4 357 48 view .LVU1727
 6582 01b2 0AFA01F1 		lsl	r1, r10, r1
 354:../../libDaisy//src/dev/oled_ssd130x.h ****             return;
 6583              		.loc 4 354 9 view .LVU1728
 6584 01b6 08D8     		bhi	.L393
 6585 01b8 3F2C     		cmp	r4, #63
 357:../../libDaisy//src/dev/oled_ssd130x.h ****         else
 6586              		.loc 4 357 42 view .LVU1729
 6587 01ba 2B44     		add	r3, r3, r5
 354:../../libDaisy//src/dev/oled_ssd130x.h ****             return;
 6588              		.loc 4 354 9 view .LVU1730
 6589 01bc 05D8     		bhi	.L393
 357:../../libDaisy//src/dev/oled_ssd130x.h ****         else
 6590              		.loc 4 357 42 view .LVU1731
 6591 01be 93F864A4 		ldrb	r10, [r3, #1124]	@ zero_extendqisi2
 6592 01c2 41EA0A01 		orr	r1, r1, r10
 6593 01c6 83F86414 		strb	r1, [r3, #1124]
 6594              	.L393:
 357:../../libDaisy//src/dev/oled_ssd130x.h ****         else
 6595              		.loc 4 357 42 view .LVU1732
 6596              	.LBE1549:
 6597              	.LBE1548:
 6598              	.LBE1547:
 243:../../libDaisy//src/hid/disp/display.h ****             {
 6599              		.loc 3 243 13 view .LVU1733
 6600 01ca 5FEA4803 		lsls	r3, r8, #1
 246:../../libDaisy//src/hid/disp/display.h ****             }
 6601              		.loc 3 246 20 view .LVU1734
 6602 01ce 18BF     		it	ne
 6603 01d0 DE44     		addne	lr, lr, fp
 6604              	.LVL467:
 249:../../libDaisy//src/hid/disp/display.h ****             {
 6605              		.loc 3 249 13 view .LVU1735
 6606 01d2 9945     		cmp	r9, r3
 6607 01d4 01DD     		ble	.L395
 251:../../libDaisy//src/hid/disp/display.h ****                 y1 += signY;
 6608              		.loc 3 251 23 view .LVU1736
 6609 01d6 C844     		add	r8, r8, r9
 6610              	.LVL468:
 252:../../libDaisy//src/hid/disp/display.h ****             }
 6611              		.loc 3 252 20 view .LVU1737
 6612 01d8 013C     		subs	r4, r4, #1
 6613              	.LVL469:
 6614              	.L395:
 239:../../libDaisy//src/hid/disp/display.h ****         {
 6615              		.loc 3 239 26 is_stmt 1 view .LVU1738
 6616 01da 7645     		cmp	r6, lr
 6617 01dc E0D1     		bne	.L392
 239:../../libDaisy//src/hid/disp/display.h ****         {
 6618              		.loc 3 239 26 is_stmt 0 view .LVU1739
 6619 01de 049B     		ldr	r3, [sp, #16]
 6620 01e0 A342     		cmp	r3, r4
 6621 01e2 DDD1     		bne	.L392
ARM GAS  /var/folders/1y/_321xjh9623c014x9_qw12rr0000gn/T//cc4eHiNS.s 			page 182


 6622 01e4 0023     		movs	r3, #0
 6623 01e6 0B93     		str	r3, [sp, #44]
 6624              	.LVL470:
 6625              	.L389:
 239:../../libDaisy//src/hid/disp/display.h ****         {
 6626              		.loc 3 239 26 view .LVU1740
 6627              	.LBE1553:
 6628              	.LBE1558:
 6629              	.LBB1559:
 6630              	.LBI1559:
 221:../../libDaisy//src/hid/disp/display.h ****                   uint_fast8_t y1,
 6631              		.loc 3 221 10 is_stmt 1 view .LVU1741
 6632              	.LBB1560:
 228:../../libDaisy//src/hid/disp/display.h ****         int_fast16_t signX  = ((x1 < x2) ? 1 : -1);
 6633              		.loc 3 228 52 is_stmt 0 view .LVU1742
 6634 01e8 0499     		ldr	r1, [sp, #16]
 6635 01ea ACEB0103 		sub	r3, ip, r1
 230:../../libDaisy//src/hid/disp/display.h ****         int_fast16_t error  = deltaX - deltaY;
 6636              		.loc 3 230 42 view .LVU1743
 6637 01ee 6145     		cmp	r1, ip
 228:../../libDaisy//src/hid/disp/display.h ****         int_fast16_t signX  = ((x1 < x2) ? 1 : -1);
 6638              		.loc 3 228 22 view .LVU1744
 6639 01f0 83EAE374 		eor	r4, r3, r3, asr #31
 6640 01f4 A4EBE374 		sub	r4, r4, r3, asr #31
 6641 01f8 2346     		mov	r3, r4
 6642 01fa 0794     		str	r4, [sp, #28]
 6643              	.LVL471:
 230:../../libDaisy//src/hid/disp/display.h ****         int_fast16_t error  = deltaX - deltaY;
 6644              		.loc 3 230 42 view .LVU1745
 6645 01fc C0F0F780 		bcc	.L396
 6646              	.LVL472:
 6647              	.LBB1561:
 6648              	.LBB1562:
 6649              	.LBB1563:
 354:../../libDaisy//src/dev/oled_ssd130x.h ****             return;
 6650              		.loc 4 354 28 view .LVU1746
 6651 0200 BCF13F0F 		cmp	ip, #63
 354:../../libDaisy//src/dev/oled_ssd130x.h ****             return;
 6652              		.loc 4 354 9 view .LVU1747
 6653 0204 0899     		ldr	r1, [sp, #32]
 6654              	.LBE1563:
 6655              	.LBE1562:
 6656              	.LBE1561:
 231:../../libDaisy//src/hid/disp/display.h ****         int_fast16_t error2;
 6657              		.loc 3 231 22 view .LVU1748
 6658 0206 C4F1000A 		rsb	r10, r4, #0
 6659              	.LVL473:
 6660              	.LBB1572:
 6661              	.LBI1561:
  42:../../libDaisy//src/hid/disp/oled_display.h ****     {
 6662              		.loc 1 42 10 is_stmt 1 view .LVU1749
 6663              	.LBB1568:
 6664              	.LBI1562:
 352:../../libDaisy//src/dev/oled_ssd130x.h ****     {
 6665              		.loc 4 352 10 view .LVU1750
 6666              	.LBB1564:
 354:../../libDaisy//src/dev/oled_ssd130x.h ****             return;
ARM GAS  /var/folders/1y/_321xjh9623c014x9_qw12rr0000gn/T//cc4eHiNS.s 			page 183


 6667              		.loc 4 354 28 is_stmt 0 view .LVU1751
 6668 020a 94BF     		ite	ls
 6669 020c 0023     		movls	r3, #0
 6670              	.LVL474:
 354:../../libDaisy//src/dev/oled_ssd130x.h ****             return;
 6671              		.loc 4 354 28 view .LVU1752
 6672 020e 0123     		movhi	r3, #1
 6673 0210 0A93     		str	r3, [sp, #40]
 354:../../libDaisy//src/dev/oled_ssd130x.h ****             return;
 6674              		.loc 4 354 9 view .LVU1753
 6675 0212 0029     		cmp	r1, #0
 6676 0214 40F0FA80 		bne	.L427
 6677 0218 002B     		cmp	r3, #0
 6678 021a 40F0F780 		bne	.L427
 6679              	.LBE1564:
 6680              	.LBE1568:
 6681              	.LBE1572:
 230:../../libDaisy//src/hid/disp/display.h ****         int_fast16_t error  = deltaX - deltaY;
 6682              		.loc 3 230 42 view .LVU1754
 6683 021e 4FF0FF33 		mov	r3, #-1
 6684 0222 0893     		str	r3, [sp, #32]
 6685              	.LVL475:
 6686              	.L422:
 6687              	.LBB1573:
 6688              	.LBB1569:
 6689              	.LBB1565:
 357:../../libDaisy//src/dev/oled_ssd130x.h ****         else
 6690              		.loc 4 357 28 view .LVU1755
 6691 0224 4FEADC03 		lsr	r3, ip, #3
 357:../../libDaisy//src/dev/oled_ssd130x.h ****         else
 6692              		.loc 4 357 48 view .LVU1756
 6693 0228 0124     		movs	r4, #1
 6694              	.LVL476:
 357:../../libDaisy//src/dev/oled_ssd130x.h ****         else
 6695              		.loc 4 357 54 view .LVU1757
 6696 022a 0CF00701 		and	r1, ip, #7
 357:../../libDaisy//src/dev/oled_ssd130x.h ****         else
 6697              		.loc 4 357 42 view .LVU1758
 6698 022e 06EBC313 		add	r3, r6, r3, lsl #7
 357:../../libDaisy//src/dev/oled_ssd130x.h ****         else
 6699              		.loc 4 357 48 view .LVU1759
 6700 0232 04FA01F1 		lsl	r1, r4, r1
 357:../../libDaisy//src/dev/oled_ssd130x.h ****         else
 6701              		.loc 4 357 42 view .LVU1760
 6702 0236 2B44     		add	r3, r3, r5
 6703 0238 93F86444 		ldrb	r4, [r3, #1124]	@ zero_extendqisi2
 6704 023c 2143     		orrs	r1, r1, r4
 6705 023e 83F86414 		strb	r1, [r3, #1124]
 6706 0242 0023     		movs	r3, #0
 6707 0244 0A93     		str	r3, [sp, #40]
 6708              	.L397:
 6709              	.LVL477:
 357:../../libDaisy//src/dev/oled_ssd130x.h ****         else
 6710              		.loc 4 357 42 view .LVU1761
 6711              	.LBE1565:
 6712              	.LBE1569:
 6713              	.LBE1573:
ARM GAS  /var/folders/1y/_321xjh9623c014x9_qw12rr0000gn/T//cc4eHiNS.s 			page 184


 239:../../libDaisy//src/hid/disp/display.h ****         {
 6714              		.loc 3 239 26 is_stmt 1 view .LVU1762
 6715 0246 049B     		ldr	r3, [sp, #16]
 6716 0248 6345     		cmp	r3, ip
 6717 024a 00F0EC80 		beq	.L470
 6718              	.L399:
 6719              	.LVL478:
 230:../../libDaisy//src/hid/disp/display.h ****         int_fast16_t error  = deltaX - deltaY;
 6720              		.loc 3 230 42 is_stmt 0 view .LVU1763
 6721 024e D646     		mov	lr, r10
 6722              	.LBE1560:
 6723              	.LBE1559:
 6724              	.LBE1621:
 300:Dubby.cpp     ****             display.DrawRect(submenuBoxBounding[i][0], submenuBoxBounding[i][1], submenuBoxBounding
 6725              		.loc 2 300 29 view .LVU1764
 6726 0250 0499     		ldr	r1, [sp, #16]
 6727 0252 3446     		mov	r4, r6
 6728              	.L401:
 6729              	.LVL479:
 6730              	.LBB1622:
 6731              	.LBB1585:
 6732              	.LBB1582:
 6733              	.LBB1574:
 6734              	.LBI1574:
  42:../../libDaisy//src/hid/disp/oled_display.h ****     {
 6735              		.loc 1 42 10 is_stmt 1 view .LVU1765
 6736              	.LBB1575:
 6737              	.LBI1575:
 352:../../libDaisy//src/dev/oled_ssd130x.h ****     {
 6738              		.loc 4 352 10 view .LVU1766
 6739              	.LBB1576:
 357:../../libDaisy//src/dev/oled_ssd130x.h ****         else
 6740              		.loc 4 357 48 is_stmt 0 view .LVU1767
 6741 0254 4FF00109 		mov	r9, #1
 357:../../libDaisy//src/dev/oled_ssd130x.h ****         else
 6742              		.loc 4 357 28 view .LVU1768
 6743 0258 CB08     		lsrs	r3, r1, #3
 357:../../libDaisy//src/dev/oled_ssd130x.h ****         else
 6744              		.loc 4 357 54 view .LVU1769
 6745 025a 01F00708 		and	r8, r1, #7
 354:../../libDaisy//src/dev/oled_ssd130x.h ****             return;
 6746              		.loc 4 354 9 view .LVU1770
 6747 025e 7F2C     		cmp	r4, #127
 357:../../libDaisy//src/dev/oled_ssd130x.h ****         else
 6748              		.loc 4 357 42 view .LVU1771
 6749 0260 04EBC313 		add	r3, r4, r3, lsl #7
 6750              	.LBE1576:
 6751              	.LBE1575:
 6752              	.LBE1574:
 242:../../libDaisy//src/hid/disp/display.h ****             if(error2 > -deltaY)
 6753              		.loc 3 242 20 view .LVU1772
 6754 0264 0EFA09FB 		lsl	fp, lr, r9
 6755              	.LVL480:
 6756              	.LBB1579:
 6757              	.LBB1578:
 6758              	.LBB1577:
 357:../../libDaisy//src/dev/oled_ssd130x.h ****         else
ARM GAS  /var/folders/1y/_321xjh9623c014x9_qw12rr0000gn/T//cc4eHiNS.s 			page 185


 6759              		.loc 4 357 48 view .LVU1773
 6760 0268 09FA08F8 		lsl	r8, r9, r8
 354:../../libDaisy//src/dev/oled_ssd130x.h ****             return;
 6761              		.loc 4 354 9 view .LVU1774
 6762 026c 08D8     		bhi	.L402
 6763 026e 3F29     		cmp	r1, #63
 357:../../libDaisy//src/dev/oled_ssd130x.h ****         else
 6764              		.loc 4 357 42 view .LVU1775
 6765 0270 2B44     		add	r3, r3, r5
 354:../../libDaisy//src/dev/oled_ssd130x.h ****             return;
 6766              		.loc 4 354 9 view .LVU1776
 6767 0272 05D8     		bhi	.L402
 357:../../libDaisy//src/dev/oled_ssd130x.h ****         else
 6768              		.loc 4 357 42 view .LVU1777
 6769 0274 93F86494 		ldrb	r9, [r3, #1124]	@ zero_extendqisi2
 6770 0278 48EA0908 		orr	r8, r8, r9
 6771 027c 83F86484 		strb	r8, [r3, #1124]
 6772              	.L402:
 357:../../libDaisy//src/dev/oled_ssd130x.h ****         else
 6773              		.loc 4 357 42 view .LVU1778
 6774              	.LBE1577:
 6775              	.LBE1578:
 6776              	.LBE1579:
 243:../../libDaisy//src/hid/disp/display.h ****             {
 6777              		.loc 3 243 13 view .LVU1779
 6778 0280 BAEB4E0F 		cmp	r10, lr, lsl #1
 6779 0284 03DA     		bge	.L403
 245:../../libDaisy//src/hid/disp/display.h ****                 x1 += signX;
 6780              		.loc 3 245 23 view .LVU1780
 6781 0286 079B     		ldr	r3, [sp, #28]
 246:../../libDaisy//src/hid/disp/display.h ****             }
 6782              		.loc 3 246 20 view .LVU1781
 6783 0288 013C     		subs	r4, r4, #1
 6784              	.LVL481:
 245:../../libDaisy//src/hid/disp/display.h ****                 x1 += signX;
 6785              		.loc 3 245 23 view .LVU1782
 6786 028a AEEB030E 		sub	lr, lr, r3
 6787              	.LVL482:
 6788              	.L403:
 249:../../libDaisy//src/hid/disp/display.h ****             {
 6789              		.loc 3 249 13 view .LVU1783
 6790 028e BBF1000F 		cmp	fp, #0
 6791 0292 01D0     		beq	.L404
 252:../../libDaisy//src/hid/disp/display.h ****             }
 6792              		.loc 3 252 20 view .LVU1784
 6793 0294 089B     		ldr	r3, [sp, #32]
 6794 0296 1944     		add	r1, r1, r3
 6795              	.LVL483:
 6796              	.L404:
 239:../../libDaisy//src/hid/disp/display.h ****         {
 6797              		.loc 3 239 26 is_stmt 1 view .LVU1785
 6798 0298 A642     		cmp	r6, r4
 6799 029a DBD1     		bne	.L401
 239:../../libDaisy//src/hid/disp/display.h ****         {
 6800              		.loc 3 239 26 is_stmt 0 view .LVU1786
 6801 029c 8C45     		cmp	ip, r1
 6802 029e D9D1     		bne	.L401
ARM GAS  /var/folders/1y/_321xjh9623c014x9_qw12rr0000gn/T//cc4eHiNS.s 			page 186


 6803 02a0 4FF0000B 		mov	fp, #0
 6804              	.LVL484:
 6805              	.L398:
 239:../../libDaisy//src/hid/disp/display.h ****         {
 6806              		.loc 3 239 26 view .LVU1787
 6807              	.LBE1582:
 6808              	.LBE1585:
 6809              	.LBB1586:
 6810              	.LBI1586:
 221:../../libDaisy//src/hid/disp/display.h ****                   uint_fast8_t y1,
 6811              		.loc 3 221 10 is_stmt 1 view .LVU1788
 6812              	.LBB1587:
 227:../../libDaisy//src/hid/disp/display.h ****         int_fast16_t deltaY = abs((int_fast16_t)y2 - (int_fast16_t)y1);
 6813              		.loc 3 227 52 is_stmt 0 view .LVU1789
 6814 02a4 A7EB0608 		sub	r8, r7, r6
 229:../../libDaisy//src/hid/disp/display.h ****         int_fast16_t signY  = ((y1 < y2) ? 1 : -1);
 6815              		.loc 3 229 42 view .LVU1790
 6816 02a8 B742     		cmp	r7, r6
 6817 02aa 8CBF     		ite	hi
 6818 02ac 0126     		movhi	r6, #1
 6819 02ae 4FF0FF36 		movls	r6, #-1
 6820              	.LBB1588:
 6821              	.LBB1589:
 6822              	.LBB1590:
 354:../../libDaisy//src/dev/oled_ssd130x.h ****             return;
 6823              		.loc 4 354 9 view .LVU1791
 6824 02b2 0A9B     		ldr	r3, [sp, #40]
 6825              	.LBE1590:
 6826              	.LBE1589:
 6827              	.LBE1588:
 227:../../libDaisy//src/hid/disp/display.h ****         int_fast16_t deltaY = abs((int_fast16_t)y2 - (int_fast16_t)y1);
 6828              		.loc 3 227 22 view .LVU1792
 6829 02b4 B8F1000F 		cmp	r8, #0
 6830 02b8 B8BF     		it	lt
 6831 02ba C8F10008 		rsblt	r8, r8, #0
 6832              	.LVL485:
 6833              	.LBB1593:
 6834              	.LBI1588:
  42:../../libDaisy//src/hid/disp/oled_display.h ****     {
 6835              		.loc 1 42 10 is_stmt 1 view .LVU1793
 6836              	.LBB1592:
 6837              	.LBI1589:
 352:../../libDaisy//src/dev/oled_ssd130x.h ****     {
 6838              		.loc 4 352 10 view .LVU1794
 6839              	.LBB1591:
 354:../../libDaisy//src/dev/oled_ssd130x.h ****             return;
 6840              		.loc 4 354 14 is_stmt 0 view .LVU1795
 6841 02be 7F2F     		cmp	r7, #127
 6842 02c0 94BF     		ite	ls
 6843 02c2 4FF0000A 		movls	r10, #0
 6844 02c6 4FF0010A 		movhi	r10, #1
 354:../../libDaisy//src/dev/oled_ssd130x.h ****             return;
 6845              		.loc 4 354 9 view .LVU1796
 6846 02ca 8BB9     		cbnz	r3, .L406
 6847 02cc BAF1000F 		cmp	r10, #0
 6848 02d0 0ED1     		bne	.L406
 357:../../libDaisy//src/dev/oled_ssd130x.h ****         else
ARM GAS  /var/folders/1y/_321xjh9623c014x9_qw12rr0000gn/T//cc4eHiNS.s 			page 187


 6849              		.loc 4 357 28 view .LVU1797
 6850 02d2 4FEADC03 		lsr	r3, ip, #3
 357:../../libDaisy//src/dev/oled_ssd130x.h ****         else
 6851              		.loc 4 357 48 view .LVU1798
 6852 02d6 0124     		movs	r4, #1
 357:../../libDaisy//src/dev/oled_ssd130x.h ****         else
 6853              		.loc 4 357 54 view .LVU1799
 6854 02d8 0CF00701 		and	r1, ip, #7
 357:../../libDaisy//src/dev/oled_ssd130x.h ****         else
 6855              		.loc 4 357 42 view .LVU1800
 6856 02dc 07EBC313 		add	r3, r7, r3, lsl #7
 357:../../libDaisy//src/dev/oled_ssd130x.h ****         else
 6857              		.loc 4 357 48 view .LVU1801
 6858 02e0 04FA01F1 		lsl	r1, r4, r1
 357:../../libDaisy//src/dev/oled_ssd130x.h ****         else
 6859              		.loc 4 357 42 view .LVU1802
 6860 02e4 2B44     		add	r3, r3, r5
 6861 02e6 93F86444 		ldrb	r4, [r3, #1124]	@ zero_extendqisi2
 6862 02ea 2143     		orrs	r1, r1, r4
 6863 02ec 83F86414 		strb	r1, [r3, #1124]
 6864              	.L406:
 6865              	.LVL486:
 357:../../libDaisy//src/dev/oled_ssd130x.h ****         else
 6866              		.loc 4 357 42 view .LVU1803
 6867              	.LBE1591:
 6868              	.LBE1592:
 6869              	.LBE1593:
 239:../../libDaisy//src/hid/disp/display.h ****         {
 6870              		.loc 3 239 26 is_stmt 1 view .LVU1804
 6871 02f0 0B9B     		ldr	r3, [sp, #44]
 6872 02f2 0BBB     		cbnz	r3, .L407
 227:../../libDaisy//src/hid/disp/display.h ****         int_fast16_t deltaY = abs((int_fast16_t)y2 - (int_fast16_t)y1);
 6873              		.loc 3 227 22 is_stmt 0 view .LVU1805
 6874 02f4 C646     		mov	lr, r8
 6875              	.LBE1587:
 6876              	.LBE1586:
 6877              	.LBE1622:
 300:Dubby.cpp     ****             display.DrawRect(submenuBoxBounding[i][0], submenuBoxBounding[i][1], submenuBoxBounding
 6878              		.loc 2 300 29 view .LVU1806
 6879 02f6 6446     		mov	r4, ip
 6880              	.LVL487:
 6881              	.L408:
 6882              	.LBB1623:
 6883              	.LBB1598:
 6884              	.LBB1597:
 6885              	.LBB1594:
 6886              	.LBI1594:
  42:../../libDaisy//src/hid/disp/oled_display.h ****     {
 6887              		.loc 1 42 10 is_stmt 1 view .LVU1807
 6888              	.LBB1595:
 6889              	.LBI1595:
 352:../../libDaisy//src/dev/oled_ssd130x.h ****     {
 6890              		.loc 4 352 10 view .LVU1808
 6891              	.LBB1596:
 357:../../libDaisy//src/dev/oled_ssd130x.h ****         else
 6892              		.loc 4 357 28 is_stmt 0 view .LVU1809
 6893 02f8 E308     		lsrs	r3, r4, #3
ARM GAS  /var/folders/1y/_321xjh9623c014x9_qw12rr0000gn/T//cc4eHiNS.s 			page 188


 357:../../libDaisy//src/dev/oled_ssd130x.h ****         else
 6894              		.loc 4 357 54 view .LVU1810
 6895 02fa 04F00701 		and	r1, r4, #7
 357:../../libDaisy//src/dev/oled_ssd130x.h ****         else
 6896              		.loc 4 357 48 view .LVU1811
 6897 02fe 4FF00109 		mov	r9, #1
 354:../../libDaisy//src/dev/oled_ssd130x.h ****             return;
 6898              		.loc 4 354 9 view .LVU1812
 6899 0302 7F28     		cmp	r0, #127
 357:../../libDaisy//src/dev/oled_ssd130x.h ****         else
 6900              		.loc 4 357 42 view .LVU1813
 6901 0304 00EBC313 		add	r3, r0, r3, lsl #7
 357:../../libDaisy//src/dev/oled_ssd130x.h ****         else
 6902              		.loc 4 357 48 view .LVU1814
 6903 0308 09FA01F1 		lsl	r1, r9, r1
 354:../../libDaisy//src/dev/oled_ssd130x.h ****             return;
 6904              		.loc 4 354 9 view .LVU1815
 6905 030c 08D8     		bhi	.L410
 354:../../libDaisy//src/dev/oled_ssd130x.h ****             return;
 6906              		.loc 4 354 9 view .LVU1816
 6907 030e 3F2C     		cmp	r4, #63
 357:../../libDaisy//src/dev/oled_ssd130x.h ****         else
 6908              		.loc 4 357 42 view .LVU1817
 6909 0310 2B44     		add	r3, r3, r5
 354:../../libDaisy//src/dev/oled_ssd130x.h ****             return;
 6910              		.loc 4 354 9 view .LVU1818
 6911 0312 05D8     		bhi	.L410
 357:../../libDaisy//src/dev/oled_ssd130x.h ****         else
 6912              		.loc 4 357 42 view .LVU1819
 6913 0314 93F86494 		ldrb	r9, [r3, #1124]	@ zero_extendqisi2
 6914 0318 41EA0901 		orr	r1, r1, r9
 6915 031c 83F86414 		strb	r1, [r3, #1124]
 6916              	.L410:
 357:../../libDaisy//src/dev/oled_ssd130x.h ****         else
 6917              		.loc 4 357 42 view .LVU1820
 6918              	.LBE1596:
 6919              	.LBE1595:
 6920              	.LBE1594:
 243:../../libDaisy//src/hid/disp/display.h ****             {
 6921              		.loc 3 243 13 view .LVU1821
 6922 0320 5FEA4E03 		lsls	r3, lr, #1
 246:../../libDaisy//src/hid/disp/display.h ****             }
 6923              		.loc 3 246 20 view .LVU1822
 6924 0324 18BF     		it	ne
 6925 0326 8019     		addne	r0, r0, r6
 6926              	.LVL488:
 249:../../libDaisy//src/hid/disp/display.h ****             {
 6927              		.loc 3 249 13 view .LVU1823
 6928 0328 9845     		cmp	r8, r3
 6929 032a 01DD     		ble	.L412
 251:../../libDaisy//src/hid/disp/display.h ****                 y1 += signY;
 6930              		.loc 3 251 23 view .LVU1824
 6931 032c C644     		add	lr, lr, r8
 6932              	.LVL489:
 252:../../libDaisy//src/hid/disp/display.h ****             }
 6933              		.loc 3 252 20 view .LVU1825
 6934 032e 013C     		subs	r4, r4, #1
ARM GAS  /var/folders/1y/_321xjh9623c014x9_qw12rr0000gn/T//cc4eHiNS.s 			page 189


 6935              	.LVL490:
 6936              	.L412:
 239:../../libDaisy//src/hid/disp/display.h ****         {
 6937              		.loc 3 239 26 is_stmt 1 view .LVU1826
 6938 0330 8742     		cmp	r7, r0
 6939 0332 E1D1     		bne	.L408
 239:../../libDaisy//src/hid/disp/display.h ****         {
 6940              		.loc 3 239 26 is_stmt 0 view .LVU1827
 6941 0334 A445     		cmp	ip, r4
 6942 0336 DFD1     		bne	.L408
 6943              	.LVL491:
 6944              	.L407:
 239:../../libDaisy//src/hid/disp/display.h ****         {
 6945              		.loc 3 239 26 view .LVU1828
 6946              	.LBE1597:
 6947              	.LBE1598:
 6948              	.LBB1599:
 6949              	.LBI1599:
 221:../../libDaisy//src/hid/disp/display.h ****                   uint_fast8_t y1,
 6950              		.loc 3 221 10 is_stmt 1 view .LVU1829
 6951              	.LBB1600:
 228:../../libDaisy//src/hid/disp/display.h ****         int_fast16_t signX  = ((x1 < x2) ? 1 : -1);
 6952              		.loc 3 228 52 is_stmt 0 view .LVU1830
 6953 0338 0499     		ldr	r1, [sp, #16]
 6954              	.LBB1601:
 6955              	.LBB1602:
 6956              	.LBB1603:
 354:../../libDaisy//src/dev/oled_ssd130x.h ****             return;
 6957              		.loc 4 354 9 view .LVU1831
 6958 033a 099B     		ldr	r3, [sp, #36]
 6959              	.LBE1603:
 6960              	.LBE1602:
 6961              	.LBE1601:
 228:../../libDaisy//src/hid/disp/display.h ****         int_fast16_t signX  = ((x1 < x2) ? 1 : -1);
 6962              		.loc 3 228 52 view .LVU1832
 6963 033c A1EB0C08 		sub	r8, r1, ip
 230:../../libDaisy//src/hid/disp/display.h ****         int_fast16_t error  = deltaX - deltaY;
 6964              		.loc 3 230 42 view .LVU1833
 6965 0340 6145     		cmp	r1, ip
 6966 0342 8CBF     		ite	hi
 6967 0344 4FF0010C 		movhi	ip, #1
 6968 0348 4FF0FF3C 		movls	ip, #-1
 228:../../libDaisy//src/hid/disp/display.h ****         int_fast16_t signX  = ((x1 < x2) ? 1 : -1);
 6969              		.loc 3 228 22 view .LVU1834
 6970 034c B8F1000F 		cmp	r8, #0
 6971 0350 B8BF     		it	lt
 6972 0352 C8F10008 		rsblt	r8, r8, #0
 6973              	.LVL492:
 231:../../libDaisy//src/hid/disp/display.h ****         int_fast16_t error2;
 6974              		.loc 3 231 22 view .LVU1835
 6975 0356 C8F1000E 		rsb	lr, r8, #0
 6976              	.LVL493:
 6977              	.LBB1606:
 6978              	.LBI1601:
  42:../../libDaisy//src/hid/disp/oled_display.h ****     {
 6979              		.loc 1 42 10 is_stmt 1 view .LVU1836
 6980              	.LBB1605:
ARM GAS  /var/folders/1y/_321xjh9623c014x9_qw12rr0000gn/T//cc4eHiNS.s 			page 190


 6981              	.LBI1602:
 352:../../libDaisy//src/dev/oled_ssd130x.h ****     {
 6982              		.loc 4 352 10 view .LVU1837
 6983              	.LBB1604:
 354:../../libDaisy//src/dev/oled_ssd130x.h ****             return;
 6984              		.loc 4 354 9 is_stmt 0 view .LVU1838
 6985 035a 83B9     		cbnz	r3, .L414
 6986 035c BAF1000F 		cmp	r10, #0
 6987 0360 0DD1     		bne	.L414
 357:../../libDaisy//src/dev/oled_ssd130x.h ****         else
 6988              		.loc 4 357 28 view .LVU1839
 6989 0362 CB08     		lsrs	r3, r1, #3
 357:../../libDaisy//src/dev/oled_ssd130x.h ****         else
 6990              		.loc 4 357 48 view .LVU1840
 6991 0364 0120     		movs	r0, #1
 357:../../libDaisy//src/dev/oled_ssd130x.h ****         else
 6992              		.loc 4 357 54 view .LVU1841
 6993 0366 01F00701 		and	r1, r1, #7
 357:../../libDaisy//src/dev/oled_ssd130x.h ****         else
 6994              		.loc 4 357 42 view .LVU1842
 6995 036a 07EBC313 		add	r3, r7, r3, lsl #7
 357:../../libDaisy//src/dev/oled_ssd130x.h ****         else
 6996              		.loc 4 357 48 view .LVU1843
 6997 036e 00FA01F1 		lsl	r1, r0, r1
 357:../../libDaisy//src/dev/oled_ssd130x.h ****         else
 6998              		.loc 4 357 42 view .LVU1844
 6999 0372 2B44     		add	r3, r3, r5
 7000 0374 93F86404 		ldrb	r0, [r3, #1124]	@ zero_extendqisi2
 7001 0378 0143     		orrs	r1, r1, r0
 7002 037a 83F86414 		strb	r1, [r3, #1124]
 7003              	.L414:
 7004              	.LVL494:
 357:../../libDaisy//src/dev/oled_ssd130x.h ****         else
 7005              		.loc 4 357 42 view .LVU1845
 7006              	.LBE1604:
 7007              	.LBE1605:
 7008              	.LBE1606:
 239:../../libDaisy//src/hid/disp/display.h ****         {
 7009              		.loc 3 239 26 is_stmt 1 view .LVU1846
 7010 037e BBF1000F 		cmp	fp, #0
 7011 0382 7FF47DAE 		bne	.L386
 7012 0386 7046     		mov	r0, lr
 7013              	.LBE1600:
 7014              	.LBE1599:
 7015              	.LBE1623:
 300:Dubby.cpp     ****             display.DrawRect(submenuBoxBounding[i][0], submenuBoxBounding[i][1], submenuBoxBounding
 7016              		.loc 2 300 29 is_stmt 0 view .LVU1847
 7017 0388 3946     		mov	r1, r7
 7018              	.LVL495:
 7019              	.L415:
 7020              	.LBB1624:
 7021              	.LBB1614:
 7022              	.LBB1613:
 7023              	.LBB1607:
 7024              	.LBI1607:
  42:../../libDaisy//src/hid/disp/oled_display.h ****     {
 7025              		.loc 1 42 10 is_stmt 1 view .LVU1848
ARM GAS  /var/folders/1y/_321xjh9623c014x9_qw12rr0000gn/T//cc4eHiNS.s 			page 191


 7026              	.LBB1608:
 7027              	.LBI1608:
 352:../../libDaisy//src/dev/oled_ssd130x.h ****     {
 7028              		.loc 4 352 10 view .LVU1849
 7029              	.LBB1609:
 357:../../libDaisy//src/dev/oled_ssd130x.h ****         else
 7030              		.loc 4 357 48 is_stmt 0 view .LVU1850
 7031 038a 0124     		movs	r4, #1
 357:../../libDaisy//src/dev/oled_ssd130x.h ****         else
 7032              		.loc 4 357 28 view .LVU1851
 7033 038c D308     		lsrs	r3, r2, #3
 357:../../libDaisy//src/dev/oled_ssd130x.h ****         else
 7034              		.loc 4 357 54 view .LVU1852
 7035 038e 02F00709 		and	r9, r2, #7
 354:../../libDaisy//src/dev/oled_ssd130x.h ****             return;
 7036              		.loc 4 354 9 view .LVU1853
 7037 0392 7F29     		cmp	r1, #127
 7038              	.LBE1609:
 7039              	.LBE1608:
 7040              	.LBE1607:
 242:../../libDaisy//src/hid/disp/display.h ****             if(error2 > -deltaY)
 7041              		.loc 3 242 20 view .LVU1854
 7042 0394 00FA04F6 		lsl	r6, r0, r4
 7043              	.LVL496:
 7044              	.LBB1612:
 7045              	.LBB1611:
 7046              	.LBB1610:
 357:../../libDaisy//src/dev/oled_ssd130x.h ****         else
 7047              		.loc 4 357 42 view .LVU1855
 7048 0398 01EBC313 		add	r3, r1, r3, lsl #7
 357:../../libDaisy//src/dev/oled_ssd130x.h ****         else
 7049              		.loc 4 357 48 view .LVU1856
 7050 039c 04FA09F4 		lsl	r4, r4, r9
 354:../../libDaisy//src/dev/oled_ssd130x.h ****             return;
 7051              		.loc 4 354 9 view .LVU1857
 7052 03a0 08D8     		bhi	.L417
 354:../../libDaisy//src/dev/oled_ssd130x.h ****             return;
 7053              		.loc 4 354 9 view .LVU1858
 7054 03a2 3F2A     		cmp	r2, #63
 357:../../libDaisy//src/dev/oled_ssd130x.h ****         else
 7055              		.loc 4 357 42 view .LVU1859
 7056 03a4 2B44     		add	r3, r3, r5
 354:../../libDaisy//src/dev/oled_ssd130x.h ****             return;
 7057              		.loc 4 354 9 view .LVU1860
 7058 03a6 05D8     		bhi	.L417
 357:../../libDaisy//src/dev/oled_ssd130x.h ****         else
 7059              		.loc 4 357 42 view .LVU1861
 7060 03a8 93F86494 		ldrb	r9, [r3, #1124]	@ zero_extendqisi2
 7061 03ac 44EA0904 		orr	r4, r4, r9
 7062 03b0 83F86444 		strb	r4, [r3, #1124]
 7063              	.L417:
 357:../../libDaisy//src/dev/oled_ssd130x.h ****         else
 7064              		.loc 4 357 42 view .LVU1862
 7065              	.LBE1610:
 7066              	.LBE1611:
 7067              	.LBE1612:
 243:../../libDaisy//src/hid/disp/display.h ****             {
ARM GAS  /var/folders/1y/_321xjh9623c014x9_qw12rr0000gn/T//cc4eHiNS.s 			page 192


 7068              		.loc 3 243 13 view .LVU1863
 7069 03b4 BEEB400F 		cmp	lr, r0, lsl #1
 7070 03b8 02DA     		bge	.L418
 246:../../libDaisy//src/hid/disp/display.h ****             }
 7071              		.loc 3 246 20 view .LVU1864
 7072 03ba 0139     		subs	r1, r1, #1
 7073              	.LVL497:
 245:../../libDaisy//src/hid/disp/display.h ****                 x1 += signX;
 7074              		.loc 3 245 23 view .LVU1865
 7075 03bc A0EB0800 		sub	r0, r0, r8
 7076              	.LVL498:
 7077              	.L418:
 249:../../libDaisy//src/hid/disp/display.h ****             {
 7078              		.loc 3 249 13 view .LVU1866
 7079 03c0 06B1     		cbz	r6, .L419
 252:../../libDaisy//src/hid/disp/display.h ****             }
 7080              		.loc 3 252 20 view .LVU1867
 7081 03c2 6244     		add	r2, r2, ip
 7082              	.LVL499:
 7083              	.L419:
 239:../../libDaisy//src/hid/disp/display.h ****         {
 7084              		.loc 3 239 26 is_stmt 1 view .LVU1868
 7085 03c4 8F42     		cmp	r7, r1
 7086 03c6 E0D1     		bne	.L415
 239:../../libDaisy//src/hid/disp/display.h ****         {
 7087              		.loc 3 239 26 is_stmt 0 view .LVU1869
 7088 03c8 049B     		ldr	r3, [sp, #16]
 7089 03ca 9342     		cmp	r3, r2
 7090 03cc DDD1     		bne	.L415
 7091 03ce 57E6     		b	.L386
 7092              	.LVL500:
 7093              	.L387:
 239:../../libDaisy//src/hid/disp/display.h ****         {
 7094              		.loc 3 239 26 view .LVU1870
 7095              	.LBE1613:
 7096              	.LBE1614:
 7097              	.LBB1615:
 7098              	.LBB1554:
 7099              	.LBB1550:
  42:../../libDaisy//src/hid/disp/oled_display.h ****     {
 7100              		.loc 1 42 10 is_stmt 1 view .LVU1871
 7101              	.LBB1545:
 352:../../libDaisy//src/dev/oled_ssd130x.h ****     {
 7102              		.loc 4 352 10 view .LVU1872
 7103              	.LBB1543:
 354:../../libDaisy//src/dev/oled_ssd130x.h ****             return;
 7104              		.loc 4 354 28 is_stmt 0 view .LVU1873
 7105 03d0 0499     		ldr	r1, [sp, #16]
 354:../../libDaisy//src/dev/oled_ssd130x.h ****             return;
 7106              		.loc 4 354 14 view .LVU1874
 7107 03d2 7F2E     		cmp	r6, #127
 7108 03d4 94BF     		ite	ls
 7109 03d6 0023     		movls	r3, #0
 7110              	.LVL501:
 354:../../libDaisy//src/dev/oled_ssd130x.h ****             return;
 7111              		.loc 4 354 14 view .LVU1875
 7112 03d8 0123     		movhi	r3, #1
ARM GAS  /var/folders/1y/_321xjh9623c014x9_qw12rr0000gn/T//cc4eHiNS.s 			page 193


 354:../../libDaisy//src/dev/oled_ssd130x.h ****             return;
 7113              		.loc 4 354 28 view .LVU1876
 7114 03da 3F29     		cmp	r1, #63
 354:../../libDaisy//src/dev/oled_ssd130x.h ****             return;
 7115              		.loc 4 354 14 view .LVU1877
 7116 03dc 0893     		str	r3, [sp, #32]
 354:../../libDaisy//src/dev/oled_ssd130x.h ****             return;
 7117              		.loc 4 354 28 view .LVU1878
 7118 03de 94BF     		ite	ls
 7119 03e0 0021     		movls	r1, #0
 7120 03e2 0121     		movhi	r1, #1
 7121 03e4 0991     		str	r1, [sp, #36]
 354:../../libDaisy//src/dev/oled_ssd130x.h ****             return;
 7122              		.loc 4 354 9 view .LVU1879
 7123 03e6 C3B9     		cbnz	r3, .L433
 7124 03e8 B9B9     		cbnz	r1, .L433
 7125              	.LBE1543:
 7126              	.LBE1545:
 7127              	.LBE1550:
 229:../../libDaisy//src/hid/disp/display.h ****         int_fast16_t signY  = ((y1 < y2) ? 1 : -1);
 7128              		.loc 3 229 42 view .LVU1880
 7129 03ea A346     		mov	fp, r4
 7130 03ec C0E6     		b	.L423
 7131              	.LVL502:
 7132              	.L396:
 229:../../libDaisy//src/hid/disp/display.h ****         int_fast16_t signY  = ((y1 < y2) ? 1 : -1);
 7133              		.loc 3 229 42 view .LVU1881
 7134              	.LBE1554:
 7135              	.LBE1615:
 7136              	.LBB1616:
 7137              	.LBB1583:
 231:../../libDaisy//src/hid/disp/display.h ****         int_fast16_t error2;
 7138              		.loc 3 231 22 view .LVU1882
 7139 03ee 079B     		ldr	r3, [sp, #28]
 7140              	.LVL503:
 7141              	.LBB1580:
 7142              	.LBB1570:
 7143              	.LBB1566:
 354:../../libDaisy//src/dev/oled_ssd130x.h ****             return;
 7144              		.loc 4 354 28 view .LVU1883
 7145 03f0 BCF13F0F 		cmp	ip, #63
 354:../../libDaisy//src/dev/oled_ssd130x.h ****             return;
 7146              		.loc 4 354 9 view .LVU1884
 7147 03f4 0899     		ldr	r1, [sp, #32]
 7148              	.LVL504:
 354:../../libDaisy//src/dev/oled_ssd130x.h ****             return;
 7149              		.loc 4 354 9 view .LVU1885
 7150              	.LBE1566:
 7151              	.LBE1570:
 7152              	.LBE1580:
 231:../../libDaisy//src/hid/disp/display.h ****         int_fast16_t error2;
 7153              		.loc 3 231 22 view .LVU1886
 7154 03f6 C3F1000A 		rsb	r10, r3, #0
 7155              	.LVL505:
 7156              	.LBB1581:
  42:../../libDaisy//src/hid/disp/oled_display.h ****     {
 7157              		.loc 1 42 10 is_stmt 1 view .LVU1887
ARM GAS  /var/folders/1y/_321xjh9623c014x9_qw12rr0000gn/T//cc4eHiNS.s 			page 194


 7158              	.LBB1571:
 352:../../libDaisy//src/dev/oled_ssd130x.h ****     {
 7159              		.loc 4 352 10 view .LVU1888
 7160              	.LBB1567:
 354:../../libDaisy//src/dev/oled_ssd130x.h ****             return;
 7161              		.loc 4 354 28 is_stmt 0 view .LVU1889
 7162 03fa 94BF     		ite	ls
 7163 03fc 0023     		movls	r3, #0
 7164 03fe 0123     		movhi	r3, #1
 7165 0400 0A93     		str	r3, [sp, #40]
 354:../../libDaisy//src/dev/oled_ssd130x.h ****             return;
 7166              		.loc 4 354 9 view .LVU1890
 7167 0402 39B9     		cbnz	r1, .L432
 7168 0404 33B9     		cbnz	r3, .L432
 7169              	.LBE1567:
 7170              	.LBE1571:
 7171              	.LBE1581:
 230:../../libDaisy//src/hid/disp/display.h ****         int_fast16_t error  = deltaX - deltaY;
 7172              		.loc 3 230 42 view .LVU1891
 7173 0406 0123     		movs	r3, #1
 7174 0408 0893     		str	r3, [sp, #32]
 7175 040a 0BE7     		b	.L422
 7176              	.LVL506:
 7177              	.L427:
 230:../../libDaisy//src/hid/disp/display.h ****         int_fast16_t error  = deltaX - deltaY;
 7178              		.loc 3 230 42 view .LVU1892
 7179 040c 4FF0FF33 		mov	r3, #-1
 7180 0410 0893     		str	r3, [sp, #32]
 7181 0412 18E7     		b	.L397
 7182              	.LVL507:
 7183              	.L432:
 230:../../libDaisy//src/hid/disp/display.h ****         int_fast16_t error  = deltaX - deltaY;
 7184              		.loc 3 230 42 view .LVU1893
 7185 0414 0123     		movs	r3, #1
 7186 0416 0893     		str	r3, [sp, #32]
 7187 0418 19E7     		b	.L399
 7188              	.LVL508:
 7189              	.L433:
 230:../../libDaisy//src/hid/disp/display.h ****         int_fast16_t error  = deltaX - deltaY;
 7190              		.loc 3 230 42 view .LVU1894
 7191              	.LBE1583:
 7192              	.LBE1616:
 7193              	.LBB1617:
 7194              	.LBB1555:
 229:../../libDaisy//src/hid/disp/display.h ****         int_fast16_t signY  = ((y1 < y2) ? 1 : -1);
 7195              		.loc 3 229 42 view .LVU1895
 7196 041a 4FF0010B 		mov	fp, #1
 7197 041e BCE6     		b	.L390
 7198              	.LVL509:
 7199              	.L469:
 239:../../libDaisy//src/hid/disp/display.h ****         {
 7200              		.loc 3 239 19 view .LVU1896
 7201 0420 0123     		movs	r3, #1
 7202 0422 0B93     		str	r3, [sp, #44]
 7203 0424 E0E6     		b	.L389
 7204              	.LVL510:
 7205              	.L470:
ARM GAS  /var/folders/1y/_321xjh9623c014x9_qw12rr0000gn/T//cc4eHiNS.s 			page 195


 239:../../libDaisy//src/hid/disp/display.h ****         {
 7206              		.loc 3 239 19 view .LVU1897
 7207              	.LBE1555:
 7208              	.LBE1617:
 7209              	.LBB1618:
 7210              	.LBB1584:
 239:../../libDaisy//src/hid/disp/display.h ****         {
 7211              		.loc 3 239 33 view .LVU1898
 7212 0426 4FF0010B 		mov	fp, #1
 7213 042a 3BE7     		b	.L398
 7214              	.LBE1584:
 7215              	.LBE1618:
 7216              	.LBE1624:
 7217              	.LBE1645:
 7218              		.cfi_endproc
 7219              	.LFE2592:
 7221              		.section	.text._ZN5daisy5Dubby13UpdateSubmenuEv,"ax",%progbits
 7222              		.align	1
 7223              		.p2align 2,,3
 7224              		.global	_ZN5daisy5Dubby13UpdateSubmenuEv
 7225              		.syntax unified
 7226              		.thumb
 7227              		.thumb_func
 7229              	_ZN5daisy5Dubby13UpdateSubmenuEv:
 7230              	.LVL511:
 7231              	.LFB2589:
 235:Dubby.cpp     **** {
 7232              		.loc 2 235 1 is_stmt 1 view -0
 7233              		.cfi_startproc
 7234              		@ args = 0, pretend = 0, frame = 8
 7235              		@ frame_needed = 0, uses_anonymous_args = 0
 236:Dubby.cpp     ****     switch(menuItemSelected) 
 7236              		.loc 2 236 5 view .LVU1900
 236:Dubby.cpp     ****     switch(menuItemSelected) 
 7237              		.loc 2 236 12 is_stmt 0 view .LVU1901
 7238 0000 90F85830 		ldrb	r3, [r0, #88]	@ zero_extendqisi2
 235:Dubby.cpp     **** {
 7239              		.loc 2 235 1 view .LVU1902
 7240 0004 2DE9F041 		push	{r4, r5, r6, r7, r8, lr}
 7241              		.cfi_def_cfa_offset 24
 7242              		.cfi_offset 4, -24
 7243              		.cfi_offset 5, -20
 7244              		.cfi_offset 6, -16
 7245              		.cfi_offset 7, -12
 7246              		.cfi_offset 8, -8
 7247              		.cfi_offset 14, -4
 7248 0008 0746     		mov	r7, r0
 7249 000a 82B0     		sub	sp, sp, #8
 7250              		.cfi_def_cfa_offset 32
 236:Dubby.cpp     ****     switch(menuItemSelected) 
 7251              		.loc 2 236 5 view .LVU1903
 7252 000c 002B     		cmp	r3, #0
 7253 000e 46D0     		beq	.L474
 7254 0010 022B     		cmp	r3, #2
 7255 0012 01D1     		bne	.L476
 244:Dubby.cpp     ****         case MENU3:
 7256              		.loc 2 244 9 is_stmt 1 view .LVU1904
ARM GAS  /var/folders/1y/_321xjh9623c014x9_qw12rr0000gn/T//cc4eHiNS.s 			page 196


 245:Dubby.cpp     ****             DisplayPreferencesMenu();
 7257              		.loc 2 245 13 view .LVU1905
 245:Dubby.cpp     ****             DisplayPreferencesMenu();
 7258              		.loc 2 245 35 is_stmt 0 view .LVU1906
 7259 0014 FFF7FEFF 		bl	_ZN5daisy5Dubby22DisplayPreferencesMenuEv
 7260              	.LVL512:
 246:Dubby.cpp     ****             break;
 7261              		.loc 2 246 13 is_stmt 1 view .LVU1907
 7262              	.L476:
 7263              	.LBB1661:
 7264              	.LBB1662:
 7265              	.LBB1663:
 7266              	.LBB1664:
 7267              	.LBB1665:
 124:../../libDaisy//src/dev/oled_ssd130x.h ****         spi_.BlockingTransmit(&cmd, 1);
 7268              		.loc 4 124 24 is_stmt 0 view .LVU1908
 7269 0018 07F58B66 		add	r6, r7, #1112
 7270 001c 07F58C65 		add	r5, r7, #1120
 125:../../libDaisy//src/dev/oled_ssd130x.h ****     };
 7271              		.loc 4 125 30 view .LVU1909
 7272 0020 B024     		movs	r4, #176
 7273 0022 07F26447 		addw	r7, r7, #1124
 7274              	.LVL513:
 7275              	.L477:
 125:../../libDaisy//src/dev/oled_ssd130x.h ****     };
 7276              		.loc 4 125 30 view .LVU1910
 7277 0026 4FF00008 		mov	r8, #0
 124:../../libDaisy//src/dev/oled_ssd130x.h ****         spi_.BlockingTransmit(&cmd, 1);
 7278              		.loc 4 124 23 view .LVU1911
 7279 002a 2846     		mov	r0, r5
 7280 002c 8DF80740 		strb	r4, [sp, #7]
 7281              	.LVL514:
 124:../../libDaisy//src/dev/oled_ssd130x.h ****         spi_.BlockingTransmit(&cmd, 1);
 7282              		.loc 4 124 23 view .LVU1912
 7283              	.LBE1665:
 7284              	.LBI1664:
 122:../../libDaisy//src/dev/oled_ssd130x.h ****     {
 7285              		.loc 4 122 10 is_stmt 1 view .LVU1913
 7286              	.LBB1666:
 124:../../libDaisy//src/dev/oled_ssd130x.h ****         spi_.BlockingTransmit(&cmd, 1);
 7287              		.loc 4 124 9 view .LVU1914
 7288              	.LBE1666:
 7289              	.LBE1664:
 7290              		.loc 4 383 22 is_stmt 0 view .LVU1915
 7291 0030 0134     		adds	r4, r4, #1
 7292              	.LVL515:
 7293              	.LBB1669:
 7294              	.LBB1667:
 124:../../libDaisy//src/dev/oled_ssd130x.h ****         spi_.BlockingTransmit(&cmd, 1);
 7295              		.loc 4 124 23 view .LVU1916
 7296 0032 4146     		mov	r1, r8
 7297 0034 FFF7FEFF 		bl	dsy_gpio_write
 7298              	.LVL516:
 125:../../libDaisy//src/dev/oled_ssd130x.h ****     };
 7299              		.loc 4 125 9 is_stmt 1 view .LVU1917
 125:../../libDaisy//src/dev/oled_ssd130x.h ****     };
 7300              		.loc 4 125 30 is_stmt 0 view .LVU1918
ARM GAS  /var/folders/1y/_321xjh9623c014x9_qw12rr0000gn/T//cc4eHiNS.s 			page 197


 7301 0038 6423     		movs	r3, #100
 7302 003a 0122     		movs	r2, #1
 7303 003c 0DF10701 		add	r1, sp, #7
 7304 0040 3046     		mov	r0, r6
 7305              	.LBE1667:
 7306              	.LBE1669:
 7307              		.loc 4 383 22 view .LVU1919
 7308 0042 E4B2     		uxtb	r4, r4
 7309              	.LBB1670:
 7310              	.LBB1668:
 125:../../libDaisy//src/dev/oled_ssd130x.h ****     };
 7311              		.loc 4 125 30 view .LVU1920
 7312 0044 FFF7FEFF 		bl	_ZN5daisy9SpiHandle16BlockingTransmitEPhjm
 7313              	.LVL517:
 125:../../libDaisy//src/dev/oled_ssd130x.h ****     };
 7314              		.loc 4 125 30 view .LVU1921
 7315              	.LBE1668:
 7316              	.LBE1670:
 7317              	.LBB1671:
 7318              	.LBB1672:
 124:../../libDaisy//src/dev/oled_ssd130x.h ****         spi_.BlockingTransmit(&cmd, 1);
 7319              		.loc 4 124 23 view .LVU1922
 7320 0048 4146     		mov	r1, r8
 7321 004a 2846     		mov	r0, r5
 7322 004c 8DF80780 		strb	r8, [sp, #7]
 7323              	.LVL518:
 124:../../libDaisy//src/dev/oled_ssd130x.h ****         spi_.BlockingTransmit(&cmd, 1);
 7324              		.loc 4 124 23 view .LVU1923
 7325              	.LBE1672:
 7326              	.LBI1671:
 122:../../libDaisy//src/dev/oled_ssd130x.h ****     {
 7327              		.loc 4 122 10 is_stmt 1 view .LVU1924
 7328              	.LBB1673:
 124:../../libDaisy//src/dev/oled_ssd130x.h ****         spi_.BlockingTransmit(&cmd, 1);
 7329              		.loc 4 124 9 view .LVU1925
 124:../../libDaisy//src/dev/oled_ssd130x.h ****         spi_.BlockingTransmit(&cmd, 1);
 7330              		.loc 4 124 23 is_stmt 0 view .LVU1926
 7331 0050 FFF7FEFF 		bl	dsy_gpio_write
 7332              	.LVL519:
 125:../../libDaisy//src/dev/oled_ssd130x.h ****     };
 7333              		.loc 4 125 9 is_stmt 1 view .LVU1927
 125:../../libDaisy//src/dev/oled_ssd130x.h ****     };
 7334              		.loc 4 125 30 is_stmt 0 view .LVU1928
 7335 0054 0122     		movs	r2, #1
 7336 0056 6423     		movs	r3, #100
 7337 0058 0DF10701 		add	r1, sp, #7
 7338 005c 3046     		mov	r0, r6
 7339 005e FFF7FEFF 		bl	_ZN5daisy9SpiHandle16BlockingTransmitEPhjm
 7340              	.LVL520:
 125:../../libDaisy//src/dev/oled_ssd130x.h ****     };
 7341              		.loc 4 125 30 view .LVU1929
 7342 0062 1023     		movs	r3, #16
 7343              	.LBE1673:
 7344              	.LBE1671:
 7345              	.LBB1674:
 7346              	.LBB1675:
 124:../../libDaisy//src/dev/oled_ssd130x.h ****         spi_.BlockingTransmit(&cmd, 1);
ARM GAS  /var/folders/1y/_321xjh9623c014x9_qw12rr0000gn/T//cc4eHiNS.s 			page 198


 7347              		.loc 4 124 23 view .LVU1930
 7348 0064 4146     		mov	r1, r8
 7349 0066 2846     		mov	r0, r5
 7350 0068 8DF80730 		strb	r3, [sp, #7]
 7351              	.LVL521:
 124:../../libDaisy//src/dev/oled_ssd130x.h ****         spi_.BlockingTransmit(&cmd, 1);
 7352              		.loc 4 124 23 view .LVU1931
 7353              	.LBE1675:
 7354              	.LBI1674:
 122:../../libDaisy//src/dev/oled_ssd130x.h ****     {
 7355              		.loc 4 122 10 is_stmt 1 view .LVU1932
 7356              	.LBB1676:
 124:../../libDaisy//src/dev/oled_ssd130x.h ****         spi_.BlockingTransmit(&cmd, 1);
 7357              		.loc 4 124 9 view .LVU1933
 124:../../libDaisy//src/dev/oled_ssd130x.h ****         spi_.BlockingTransmit(&cmd, 1);
 7358              		.loc 4 124 23 is_stmt 0 view .LVU1934
 7359 006c FFF7FEFF 		bl	dsy_gpio_write
 7360              	.LVL522:
 125:../../libDaisy//src/dev/oled_ssd130x.h ****     };
 7361              		.loc 4 125 9 is_stmt 1 view .LVU1935
 125:../../libDaisy//src/dev/oled_ssd130x.h ****     };
 7362              		.loc 4 125 30 is_stmt 0 view .LVU1936
 7363 0070 6423     		movs	r3, #100
 7364 0072 0122     		movs	r2, #1
 7365 0074 0DF10701 		add	r1, sp, #7
 7366 0078 3046     		mov	r0, r6
 7367 007a FFF7FEFF 		bl	_ZN5daisy9SpiHandle16BlockingTransmitEPhjm
 7368              	.LVL523:
 125:../../libDaisy//src/dev/oled_ssd130x.h ****     };
 7369              		.loc 4 125 30 view .LVU1937
 7370              	.LBE1676:
 7371              	.LBE1674:
 7372              	.LBB1677:
 7373              	.LBI1677:
 128:../../libDaisy//src/dev/oled_ssd130x.h ****     {
 7374              		.loc 4 128 10 is_stmt 1 view .LVU1938
 7375              	.LBB1678:
 130:../../libDaisy//src/dev/oled_ssd130x.h ****         spi_.BlockingTransmit(buff, size);
 7376              		.loc 4 130 9 view .LVU1939
 130:../../libDaisy//src/dev/oled_ssd130x.h ****         spi_.BlockingTransmit(buff, size);
 7377              		.loc 4 130 23 is_stmt 0 view .LVU1940
 7378 007e 0121     		movs	r1, #1
 7379 0080 2846     		mov	r0, r5
 7380 0082 FFF7FEFF 		bl	dsy_gpio_write
 7381              	.LVL524:
 131:../../libDaisy//src/dev/oled_ssd130x.h ****     };
 7382              		.loc 4 131 9 is_stmt 1 view .LVU1941
 131:../../libDaisy//src/dev/oled_ssd130x.h ****     };
 7383              		.loc 4 131 30 is_stmt 0 view .LVU1942
 7384 0086 8022     		movs	r2, #128
 7385 0088 3946     		mov	r1, r7
 7386 008a 6423     		movs	r3, #100
 7387 008c 3046     		mov	r0, r6
 7388              	.LBE1678:
 7389              	.LBE1677:
 7390              		.loc 4 383 22 view .LVU1943
 7391 008e 1744     		add	r7, r7, r2
ARM GAS  /var/folders/1y/_321xjh9623c014x9_qw12rr0000gn/T//cc4eHiNS.s 			page 199


 7392              	.LVL525:
 7393              	.LBB1680:
 7394              	.LBB1679:
 131:../../libDaisy//src/dev/oled_ssd130x.h ****     };
 7395              		.loc 4 131 30 view .LVU1944
 7396 0090 FFF7FEFF 		bl	_ZN5daisy9SpiHandle16BlockingTransmitEPhjm
 7397              	.LVL526:
 131:../../libDaisy//src/dev/oled_ssd130x.h ****     };
 7398              		.loc 4 131 30 view .LVU1945
 7399              	.LBE1679:
 7400              	.LBE1680:
 7401              		.loc 4 383 9 is_stmt 1 view .LVU1946
 7402              		.loc 4 383 22 view .LVU1947
 7403 0094 B82C     		cmp	r4, #184
 7404 0096 C6D1     		bne	.L477
 7405              	.LBE1663:
 7406              	.LBE1662:
 7407              	.LBE1661:
 252:Dubby.cpp     **** }
 7408              		.loc 2 252 1 is_stmt 0 view .LVU1948
 7409 0098 02B0     		add	sp, sp, #8
 7410              		.cfi_remember_state
 7411              		.cfi_def_cfa_offset 24
 7412              		@ sp needed
 7413 009a BDE8F081 		pop	{r4, r5, r6, r7, r8, pc}
 7414              	.LVL527:
 7415              	.L474:
 7416              		.cfi_restore_state
 238:Dubby.cpp     ****         case MENU1:
 7417              		.loc 2 238 9 is_stmt 1 view .LVU1949
 239:Dubby.cpp     ****             RenderScope();
 7418              		.loc 2 239 13 view .LVU1950
 7419              	.LBB1681:
 7420              	.LBI1681:
 263:Dubby.cpp     **** void Dubby::RenderScope()
 7421              		.loc 2 263 6 view .LVU1951
 7422              	.LBB1682:
 265:Dubby.cpp     ****     if(seed.system.GetNow() - screen_update_last_ > screen_update_period_)
 7423              		.loc 2 265 5 view .LVU1952
 7424              	.LBB1683:
 265:Dubby.cpp     ****     if(seed.system.GetNow() - screen_update_last_ > screen_update_period_)
 7425              		.loc 2 265 26 is_stmt 0 view .LVU1953
 7426 009e FFF7FEFF 		bl	_ZN5daisy6System6GetNowEv
 7427              	.LVL528:
 265:Dubby.cpp     ****     if(seed.system.GetNow() - screen_update_last_ > screen_update_period_)
 7428              		.loc 2 265 31 view .LVU1954
 7429 00a2 07F51043 		add	r3, r7, #36864
 265:Dubby.cpp     ****     if(seed.system.GetNow() - screen_update_last_ > screen_update_period_)
 7430              		.loc 2 265 29 view .LVU1955
 7431 00a6 D3F82829 		ldr	r2, [r3, #2344]
 265:Dubby.cpp     ****     if(seed.system.GetNow() - screen_update_last_ > screen_update_period_)
 7432              		.loc 2 265 5 view .LVU1956
 7433 00aa D3F82C39 		ldr	r3, [r3, #2348]
 265:Dubby.cpp     ****     if(seed.system.GetNow() - screen_update_last_ > screen_update_period_)
 7434              		.loc 2 265 29 view .LVU1957
 7435 00ae 801A     		subs	r0, r0, r2
 265:Dubby.cpp     ****     if(seed.system.GetNow() - screen_update_last_ > screen_update_period_)
ARM GAS  /var/folders/1y/_321xjh9623c014x9_qw12rr0000gn/T//cc4eHiNS.s 			page 200


 7436              		.loc 2 265 5 view .LVU1958
 7437 00b0 9842     		cmp	r0, r3
 7438 00b2 B1D9     		bls	.L476
 7439              	.LBE1683:
 7440 00b4 3846     		mov	r0, r7
 7441 00b6 FFF7FEFF 		bl	_ZN5daisy5Dubby11RenderScopeEv.part.0
 7442              	.LVL529:
 7443 00ba ADE7     		b	.L476
 7444              	.LBE1682:
 7445              	.LBE1681:
 7446              		.cfi_endproc
 7447              	.LFE2589:
 7449              		.section	.text._ZN5daisy5Dubby10UpdateMenuEib,"ax",%progbits
 7450              		.align	1
 7451              		.p2align 2,,3
 7452              		.global	_ZN5daisy5Dubby10UpdateMenuEib
 7453              		.syntax unified
 7454              		.thumb
 7455              		.thumb_func
 7457              	_ZN5daisy5Dubby10UpdateMenuEib:
 7458              	.LVL530:
 7459              	.LFB2585:
 182:Dubby.cpp     **** {
 7460              		.loc 2 182 1 is_stmt 1 view -0
 7461              		.cfi_startproc
 7462              		@ args = 0, pretend = 0, frame = 8
 7463              		@ frame_needed = 0, uses_anonymous_args = 0
 183:Dubby.cpp     ****     if ((menuItemSelected >= 0 && increment == 1 && menuItemSelected < 2) || (increment != 1 && men
 7464              		.loc 2 183 5 view .LVU1960
 7465 0000 0129     		cmp	r1, #1
 183:Dubby.cpp     ****     if ((menuItemSelected >= 0 && increment == 1 && menuItemSelected < 2) || (increment != 1 && men
 7466              		.loc 2 183 53 is_stmt 0 view .LVU1961
 7467 0002 90F85830 		ldrb	r3, [r0, #88]	@ zero_extendqisi2
 182:Dubby.cpp     **** {
 7468              		.loc 2 182 1 view .LVU1962
 7469 0006 2DE9F041 		push	{r4, r5, r6, r7, r8, lr}
 7470              		.cfi_def_cfa_offset 24
 7471              		.cfi_offset 4, -24
 7472              		.cfi_offset 5, -20
 7473              		.cfi_offset 6, -16
 7474              		.cfi_offset 7, -12
 7475              		.cfi_offset 8, -8
 7476              		.cfi_offset 14, -4
 7477 000a 0746     		mov	r7, r0
 7478 000c 82B0     		sub	sp, sp, #8
 7479              		.cfi_def_cfa_offset 32
 182:Dubby.cpp     **** {
 7480              		.loc 2 182 1 view .LVU1963
 7481 000e 1446     		mov	r4, r2
 183:Dubby.cpp     ****     if ((menuItemSelected >= 0 && increment == 1 && menuItemSelected < 2) || (increment != 1 && men
 7482              		.loc 2 183 5 view .LVU1964
 7483 0010 54D0     		beq	.L492
 183:Dubby.cpp     ****     if ((menuItemSelected >= 0 && increment == 1 && menuItemSelected < 2) || (increment != 1 && men
 7484              		.loc 2 183 94 discriminator 4 view .LVU1965
 7485 0012 002B     		cmp	r3, #0
 7486 0014 54D1     		bne	.L482
 7487              	.L483:
ARM GAS  /var/folders/1y/_321xjh9623c014x9_qw12rr0000gn/T//cc4eHiNS.s 			page 201


 7488 0016 07F26448 		addw	r8, r7, #1124
 7489              	.LBB1699:
 7490              	.LBB1700:
 7491              	.LBB1701:
 366:../../libDaisy//src/dev/oled_ssd130x.h ****         }
 7492              		.loc 4 366 24 view .LVU1966
 7493 001a 4FF48062 		mov	r2, #1024
 7494              	.LVL531:
 366:../../libDaisy//src/dev/oled_ssd130x.h ****         }
 7495              		.loc 4 366 24 view .LVU1967
 7496 001e 0021     		movs	r1, #0
 7497              	.LVL532:
 366:../../libDaisy//src/dev/oled_ssd130x.h ****         }
 7498              		.loc 4 366 24 view .LVU1968
 7499 0020 4046     		mov	r0, r8
 7500              	.LVL533:
 366:../../libDaisy//src/dev/oled_ssd130x.h ****         }
 7501              		.loc 4 366 24 view .LVU1969
 7502 0022 FFF7FEFF 		bl	memset
 7503              	.LVL534:
 7504              	.LBE1701:
 7505              	.LBE1700:
 7506              	.LBE1699:
 188:Dubby.cpp     ****     if (higlight) HightlightMenuItem();
 7507              		.loc 2 188 5 is_stmt 1 view .LVU1970
 188:Dubby.cpp     ****     if (higlight) HightlightMenuItem();
 7508              		.loc 2 188 37 is_stmt 0 view .LVU1971
 7509 0026 3846     		mov	r0, r7
 188:Dubby.cpp     ****     if (higlight) HightlightMenuItem();
 7510              		.loc 2 188 5 view .LVU1972
 7511 0028 002C     		cmp	r4, #0
 7512 002a 44D0     		beq	.L484
 7513              	.LVL535:
 188:Dubby.cpp     ****     if (higlight) HightlightMenuItem();
 7514              		.loc 2 188 19 is_stmt 1 discriminator 1 view .LVU1973
 188:Dubby.cpp     ****     if (higlight) HightlightMenuItem();
 7515              		.loc 2 188 37 is_stmt 0 discriminator 1 view .LVU1974
 7516 002c FFF7FEFF 		bl	_ZN5daisy5Dubby18HightlightMenuItemEv
 7517              	.LVL536:
 7518              	.L485:
 191:Dubby.cpp     ****     UpdateSubmenu();
 7519              		.loc 2 191 5 is_stmt 1 view .LVU1975
 191:Dubby.cpp     ****     UpdateSubmenu();
 7520              		.loc 2 191 18 is_stmt 0 view .LVU1976
 7521 0030 3846     		mov	r0, r7
 7522              	.LBB1702:
 7523              	.LBB1703:
 7524              	.LBB1704:
 7525              	.LBB1705:
 7526              	.LBB1706:
 124:../../libDaisy//src/dev/oled_ssd130x.h ****         spi_.BlockingTransmit(&cmd, 1);
 7527              		.loc 4 124 24 view .LVU1977
 7528 0032 07F58B66 		add	r6, r7, #1112
 7529 0036 07F58C65 		add	r5, r7, #1120
 125:../../libDaisy//src/dev/oled_ssd130x.h ****     };
 7530              		.loc 4 125 30 view .LVU1978
 7531 003a B024     		movs	r4, #176
ARM GAS  /var/folders/1y/_321xjh9623c014x9_qw12rr0000gn/T//cc4eHiNS.s 			page 202


 7532              	.LBE1706:
 7533              	.LBE1705:
 7534              	.LBE1704:
 7535              	.LBE1703:
 7536              	.LBE1702:
 191:Dubby.cpp     ****     UpdateSubmenu();
 7537              		.loc 2 191 18 view .LVU1979
 7538 003c FFF7FEFF 		bl	_ZN5daisy5Dubby13UpdateSubmenuEv
 7539              	.LVL537:
 193:Dubby.cpp     ****     display.Update();
 7540              		.loc 2 193 5 is_stmt 1 view .LVU1980
 7541              	.LBB1726:
 7542              	.LBI1702:
  45:../../libDaisy//src/hid/disp/oled_display.h ****     }
  46:../../libDaisy//src/hid/disp/oled_display.h **** 
  47:../../libDaisy//src/hid/disp/oled_display.h ****     /** 
  48:../../libDaisy//src/hid/disp/oled_display.h ****     Writes the current display buffer to the OLED device using SPI or I2C depending on 
  49:../../libDaisy//src/hid/disp/oled_display.h ****     how the object was initialized.
  50:../../libDaisy//src/hid/disp/oled_display.h ****     */
  51:../../libDaisy//src/hid/disp/oled_display.h ****     void Update() override { driver_.Update(); }
 7543              		.loc 1 51 10 view .LVU1981
 7544              	.LBB1725:
 7545              	.LBI1703:
 373:../../libDaisy//src/dev/oled_ssd130x.h ****     {
 7546              		.loc 4 373 10 view .LVU1982
 7547              	.LBB1724:
 7548              		.loc 4 383 22 view .LVU1983
 7549              	.L486:
 7550              		.loc 4 383 22 is_stmt 0 view .LVU1984
 7551 0040 0027     		movs	r7, #0
 7552              	.LBB1711:
 7553              	.LBB1707:
 124:../../libDaisy//src/dev/oled_ssd130x.h ****         spi_.BlockingTransmit(&cmd, 1);
 7554              		.loc 4 124 23 view .LVU1985
 7555 0042 2846     		mov	r0, r5
 7556 0044 8DF80740 		strb	r4, [sp, #7]
 7557              	.LVL538:
 124:../../libDaisy//src/dev/oled_ssd130x.h ****         spi_.BlockingTransmit(&cmd, 1);
 7558              		.loc 4 124 23 view .LVU1986
 7559              	.LBE1707:
 7560              	.LBI1705:
 122:../../libDaisy//src/dev/oled_ssd130x.h ****     {
 7561              		.loc 4 122 10 is_stmt 1 view .LVU1987
 7562              	.LBB1708:
 124:../../libDaisy//src/dev/oled_ssd130x.h ****         spi_.BlockingTransmit(&cmd, 1);
 7563              		.loc 4 124 9 view .LVU1988
 7564              	.LBE1708:
 7565              	.LBE1711:
 7566              		.loc 4 383 22 is_stmt 0 view .LVU1989
 7567 0048 0134     		adds	r4, r4, #1
 7568              	.LVL539:
 7569              	.LBB1712:
 7570              	.LBB1709:
 124:../../libDaisy//src/dev/oled_ssd130x.h ****         spi_.BlockingTransmit(&cmd, 1);
 7571              		.loc 4 124 23 view .LVU1990
 7572 004a 3946     		mov	r1, r7
 7573 004c FFF7FEFF 		bl	dsy_gpio_write
ARM GAS  /var/folders/1y/_321xjh9623c014x9_qw12rr0000gn/T//cc4eHiNS.s 			page 203


 7574              	.LVL540:
 125:../../libDaisy//src/dev/oled_ssd130x.h ****     };
 7575              		.loc 4 125 9 is_stmt 1 view .LVU1991
 125:../../libDaisy//src/dev/oled_ssd130x.h ****     };
 7576              		.loc 4 125 30 is_stmt 0 view .LVU1992
 7577 0050 6423     		movs	r3, #100
 7578 0052 0122     		movs	r2, #1
 7579 0054 0DF10701 		add	r1, sp, #7
 7580 0058 3046     		mov	r0, r6
 7581              	.LBE1709:
 7582              	.LBE1712:
 7583              		.loc 4 383 22 view .LVU1993
 7584 005a E4B2     		uxtb	r4, r4
 7585              	.LBB1713:
 7586              	.LBB1710:
 125:../../libDaisy//src/dev/oled_ssd130x.h ****     };
 7587              		.loc 4 125 30 view .LVU1994
 7588 005c FFF7FEFF 		bl	_ZN5daisy9SpiHandle16BlockingTransmitEPhjm
 7589              	.LVL541:
 125:../../libDaisy//src/dev/oled_ssd130x.h ****     };
 7590              		.loc 4 125 30 view .LVU1995
 7591              	.LBE1710:
 7592              	.LBE1713:
 7593              	.LBB1714:
 7594              	.LBB1715:
 124:../../libDaisy//src/dev/oled_ssd130x.h ****         spi_.BlockingTransmit(&cmd, 1);
 7595              		.loc 4 124 23 view .LVU1996
 7596 0060 3946     		mov	r1, r7
 7597 0062 2846     		mov	r0, r5
 7598 0064 8DF80770 		strb	r7, [sp, #7]
 7599              	.LVL542:
 124:../../libDaisy//src/dev/oled_ssd130x.h ****         spi_.BlockingTransmit(&cmd, 1);
 7600              		.loc 4 124 23 view .LVU1997
 7601              	.LBE1715:
 7602              	.LBI1714:
 122:../../libDaisy//src/dev/oled_ssd130x.h ****     {
 7603              		.loc 4 122 10 is_stmt 1 view .LVU1998
 7604              	.LBB1716:
 124:../../libDaisy//src/dev/oled_ssd130x.h ****         spi_.BlockingTransmit(&cmd, 1);
 7605              		.loc 4 124 9 view .LVU1999
 124:../../libDaisy//src/dev/oled_ssd130x.h ****         spi_.BlockingTransmit(&cmd, 1);
 7606              		.loc 4 124 23 is_stmt 0 view .LVU2000
 7607 0068 FFF7FEFF 		bl	dsy_gpio_write
 7608              	.LVL543:
 125:../../libDaisy//src/dev/oled_ssd130x.h ****     };
 7609              		.loc 4 125 9 is_stmt 1 view .LVU2001
 125:../../libDaisy//src/dev/oled_ssd130x.h ****     };
 7610              		.loc 4 125 30 is_stmt 0 view .LVU2002
 7611 006c 0122     		movs	r2, #1
 7612 006e 6423     		movs	r3, #100
 7613 0070 0DF10701 		add	r1, sp, #7
 7614 0074 3046     		mov	r0, r6
 7615 0076 FFF7FEFF 		bl	_ZN5daisy9SpiHandle16BlockingTransmitEPhjm
 7616              	.LVL544:
 125:../../libDaisy//src/dev/oled_ssd130x.h ****     };
 7617              		.loc 4 125 30 view .LVU2003
 7618 007a 1023     		movs	r3, #16
ARM GAS  /var/folders/1y/_321xjh9623c014x9_qw12rr0000gn/T//cc4eHiNS.s 			page 204


 7619              	.LBE1716:
 7620              	.LBE1714:
 7621              	.LBB1717:
 7622              	.LBB1718:
 124:../../libDaisy//src/dev/oled_ssd130x.h ****         spi_.BlockingTransmit(&cmd, 1);
 7623              		.loc 4 124 23 view .LVU2004
 7624 007c 3946     		mov	r1, r7
 7625 007e 2846     		mov	r0, r5
 7626 0080 8DF80730 		strb	r3, [sp, #7]
 7627              	.LVL545:
 124:../../libDaisy//src/dev/oled_ssd130x.h ****         spi_.BlockingTransmit(&cmd, 1);
 7628              		.loc 4 124 23 view .LVU2005
 7629              	.LBE1718:
 7630              	.LBI1717:
 122:../../libDaisy//src/dev/oled_ssd130x.h ****     {
 7631              		.loc 4 122 10 is_stmt 1 view .LVU2006
 7632              	.LBB1719:
 124:../../libDaisy//src/dev/oled_ssd130x.h ****         spi_.BlockingTransmit(&cmd, 1);
 7633              		.loc 4 124 9 view .LVU2007
 124:../../libDaisy//src/dev/oled_ssd130x.h ****         spi_.BlockingTransmit(&cmd, 1);
 7634              		.loc 4 124 23 is_stmt 0 view .LVU2008
 7635 0084 FFF7FEFF 		bl	dsy_gpio_write
 7636              	.LVL546:
 125:../../libDaisy//src/dev/oled_ssd130x.h ****     };
 7637              		.loc 4 125 9 is_stmt 1 view .LVU2009
 125:../../libDaisy//src/dev/oled_ssd130x.h ****     };
 7638              		.loc 4 125 30 is_stmt 0 view .LVU2010
 7639 0088 6423     		movs	r3, #100
 7640 008a 0122     		movs	r2, #1
 7641 008c 0DF10701 		add	r1, sp, #7
 7642 0090 3046     		mov	r0, r6
 7643 0092 FFF7FEFF 		bl	_ZN5daisy9SpiHandle16BlockingTransmitEPhjm
 7644              	.LVL547:
 125:../../libDaisy//src/dev/oled_ssd130x.h ****     };
 7645              		.loc 4 125 30 view .LVU2011
 7646              	.LBE1719:
 7647              	.LBE1717:
 7648              	.LBB1720:
 7649              	.LBI1720:
 128:../../libDaisy//src/dev/oled_ssd130x.h ****     {
 7650              		.loc 4 128 10 is_stmt 1 view .LVU2012
 7651              	.LBB1721:
 130:../../libDaisy//src/dev/oled_ssd130x.h ****         spi_.BlockingTransmit(buff, size);
 7652              		.loc 4 130 9 view .LVU2013
 130:../../libDaisy//src/dev/oled_ssd130x.h ****         spi_.BlockingTransmit(buff, size);
 7653              		.loc 4 130 23 is_stmt 0 view .LVU2014
 7654 0096 0121     		movs	r1, #1
 7655 0098 2846     		mov	r0, r5
 7656 009a FFF7FEFF 		bl	dsy_gpio_write
 7657              	.LVL548:
 131:../../libDaisy//src/dev/oled_ssd130x.h ****     };
 7658              		.loc 4 131 9 is_stmt 1 view .LVU2015
 131:../../libDaisy//src/dev/oled_ssd130x.h ****     };
 7659              		.loc 4 131 30 is_stmt 0 view .LVU2016
 7660 009e 8022     		movs	r2, #128
 7661 00a0 4146     		mov	r1, r8
 7662 00a2 6423     		movs	r3, #100
ARM GAS  /var/folders/1y/_321xjh9623c014x9_qw12rr0000gn/T//cc4eHiNS.s 			page 205


 7663 00a4 3046     		mov	r0, r6
 7664              	.LBE1721:
 7665              	.LBE1720:
 7666              		.loc 4 383 22 view .LVU2017
 7667 00a6 9044     		add	r8, r8, r2
 7668              	.LVL549:
 7669              	.LBB1723:
 7670              	.LBB1722:
 131:../../libDaisy//src/dev/oled_ssd130x.h ****     };
 7671              		.loc 4 131 30 view .LVU2018
 7672 00a8 FFF7FEFF 		bl	_ZN5daisy9SpiHandle16BlockingTransmitEPhjm
 7673              	.LVL550:
 131:../../libDaisy//src/dev/oled_ssd130x.h ****     };
 7674              		.loc 4 131 30 view .LVU2019
 7675              	.LBE1722:
 7676              	.LBE1723:
 7677              		.loc 4 383 9 is_stmt 1 view .LVU2020
 7678              		.loc 4 383 22 view .LVU2021
 7679 00ac B82C     		cmp	r4, #184
 7680 00ae C7D1     		bne	.L486
 7681              	.LBE1724:
 7682              	.LBE1725:
 7683              	.LBE1726:
 194:Dubby.cpp     **** }
 7684              		.loc 2 194 1 is_stmt 0 view .LVU2022
 7685 00b0 02B0     		add	sp, sp, #8
 7686              		.cfi_remember_state
 7687              		.cfi_def_cfa_offset 24
 7688              		@ sp needed
 7689 00b2 BDE8F081 		pop	{r4, r5, r6, r7, r8, pc}
 7690              	.LVL551:
 7691              	.L484:
 7692              		.cfi_restore_state
 189:Dubby.cpp     ****     else ReleaseMenu();
 7693              		.loc 2 189 10 is_stmt 1 view .LVU2023
 189:Dubby.cpp     ****     else ReleaseMenu();
 7694              		.loc 2 189 21 is_stmt 0 view .LVU2024
 7695 00b6 FFF7FEFF 		bl	_ZN5daisy5Dubby11ReleaseMenuEv
 7696              	.LVL552:
 189:Dubby.cpp     ****     else ReleaseMenu();
 7697              		.loc 2 189 21 view .LVU2025
 7698 00ba B9E7     		b	.L485
 7699              	.LVL553:
 7700              	.L492:
 183:Dubby.cpp     ****     if ((menuItemSelected >= 0 && increment == 1 && menuItemSelected < 2) || (increment != 1 && men
 7701              		.loc 2 183 50 discriminator 1 view .LVU2026
 7702 00bc 012B     		cmp	r3, #1
 7703 00be AAD8     		bhi	.L483
 7704              	.L482:
 184:Dubby.cpp     ****         menuItemSelected = (MenuItems)(menuItemSelected + increment);
 7705              		.loc 2 184 9 is_stmt 1 view .LVU2027
 184:Dubby.cpp     ****         menuItemSelected = (MenuItems)(menuItemSelected + increment);
 7706              		.loc 2 184 57 is_stmt 0 view .LVU2028
 7707 00c0 0B44     		add	r3, r3, r1
 184:Dubby.cpp     ****         menuItemSelected = (MenuItems)(menuItemSelected + increment);
 7708              		.loc 2 184 26 view .LVU2029
 7709 00c2 87F85830 		strb	r3, [r7, #88]
ARM GAS  /var/folders/1y/_321xjh9623c014x9_qw12rr0000gn/T//cc4eHiNS.s 			page 206


 7710 00c6 A6E7     		b	.L483
 7711              		.cfi_endproc
 7712              	.LFE2585:
 7714              		.section	.text._ZN5daisy5Dubby21UpdatePreferencesMenuEi,"ax",%progbits
 7715              		.align	1
 7716              		.p2align 2,,3
 7717              		.global	_ZN5daisy5Dubby21UpdatePreferencesMenuEi
 7718              		.syntax unified
 7719              		.thumb
 7720              		.thumb_func
 7722              	_ZN5daisy5Dubby21UpdatePreferencesMenuEi:
 7723              	.LVL554:
 7724              	.LFB2593:
 307:Dubby.cpp     **** {
 7725              		.loc 2 307 1 is_stmt 1 view -0
 7726              		.cfi_startproc
 7727              		@ args = 0, pretend = 0, frame = 0
 7728              		@ frame_needed = 0, uses_anonymous_args = 0
 7729              		@ link register save eliminated.
 308:Dubby.cpp     ****     if (((preferencesMenuItemSelected >= 0 && increment == 1 && preferencesMenuItemSelected < PREFE
 7730              		.loc 2 308 5 view .LVU2031
 7731 0000 0129     		cmp	r1, #1
 308:Dubby.cpp     ****     if (((preferencesMenuItemSelected >= 0 && increment == 1 && preferencesMenuItemSelected < PREFE
 7732              		.loc 2 308 65 is_stmt 0 view .LVU2032
 7733 0002 90F85930 		ldrb	r3, [r0, #89]	@ zero_extendqisi2
 308:Dubby.cpp     ****     if (((preferencesMenuItemSelected >= 0 && increment == 1 && preferencesMenuItemSelected < PREFE
 7734              		.loc 2 308 5 view .LVU2033
 7735 0006 06D0     		beq	.L500
 308:Dubby.cpp     ****     if (((preferencesMenuItemSelected >= 0 && increment == 1 && preferencesMenuItemSelected < PREFE
 7736              		.loc 2 308 140 discriminator 4 view .LVU2034
 7737 0008 23B1     		cbz	r3, .L493
 7738              	.L495:
 7739              	.LVL555:
 7740              	.LBB1729:
 7741              	.LBI1729:
 306:Dubby.cpp     **** void Dubby::UpdatePreferencesMenu(int increment) 
 7742              		.loc 2 306 6 is_stmt 1 view .LVU2035
 7743              	.LBB1730:
 310:Dubby.cpp     ****         preferencesMenuItemSelected = (PreferenesMenuItems)(preferencesMenuItemSelected + increment
 7744              		.loc 2 310 9 view .LVU2036
 310:Dubby.cpp     ****         preferencesMenuItemSelected = (PreferenesMenuItems)(preferencesMenuItemSelected + increment
 7745              		.loc 2 310 89 is_stmt 0 view .LVU2037
 7746 000a 1944     		add	r1, r1, r3
 7747              	.LVL556:
 310:Dubby.cpp     ****         preferencesMenuItemSelected = (PreferenesMenuItems)(preferencesMenuItemSelected + increment
 7748              		.loc 2 310 37 view .LVU2038
 7749 000c 80F85910 		strb	r1, [r0, #89]
 312:Dubby.cpp     ****         DisplayPreferencesMenu();
 7750              		.loc 2 312 9 is_stmt 1 view .LVU2039
 312:Dubby.cpp     ****         DisplayPreferencesMenu();
 7751              		.loc 2 312 31 is_stmt 0 view .LVU2040
 7752 0010 FFF7FEBF 		b	_ZN5daisy5Dubby22DisplayPreferencesMenuEv
 7753              	.LVL557:
 7754              	.L493:
 312:Dubby.cpp     ****         DisplayPreferencesMenu();
 7755              		.loc 2 312 31 view .LVU2041
 7756              	.LBE1730:
ARM GAS  /var/folders/1y/_321xjh9623c014x9_qw12rr0000gn/T//cc4eHiNS.s 			page 207


 7757              	.LBE1729:
 314:Dubby.cpp     **** }
 7758              		.loc 2 314 1 view .LVU2042
 7759 0014 7047     		bx	lr
 7760              	.L500:
 308:Dubby.cpp     ****     if (((preferencesMenuItemSelected >= 0 && increment == 1 && preferencesMenuItemSelected < PREFE
 7761              		.loc 2 308 62 discriminator 1 view .LVU2043
 7762 0016 022B     		cmp	r3, #2
 7763 0018 F7D9     		bls	.L495
 7764 001a 7047     		bx	lr
 7765              		.cfi_endproc
 7766              	.LFE2593:
 7768              		.section	.rodata._ZN5daisy5Dubby17ResetToBootloaderEv.str1.4,"aMS",%progbits,1
 7769              		.align	2
 7770              	.LC17:
 7771 0000 4649524D 		.ascii	"FIRMWARE UPDATE\000"
 7771      57415245 
 7771      20555044 
 7771      41544500 
 7772              		.section	.text._ZN5daisy5Dubby17ResetToBootloaderEv,"ax",%progbits
 7773              		.align	1
 7774              		.p2align 2,,3
 7775              		.global	_ZN5daisy5Dubby17ResetToBootloaderEv
 7776              		.syntax unified
 7777              		.thumb
 7778              		.thumb_func
 7780              	_ZN5daisy5Dubby17ResetToBootloaderEv:
 7781              	.LVL558:
 7782              	.LFB2594:
 317:Dubby.cpp     **** {
 7783              		.loc 2 317 1 is_stmt 1 view -0
 7784              		.cfi_startproc
 7785              		@ args = 0, pretend = 0, frame = 8
 7786              		@ frame_needed = 0, uses_anonymous_args = 0
 318:Dubby.cpp     ****     DrawBitmap(1);
 7787              		.loc 2 318 5 view .LVU2045
 317:Dubby.cpp     **** {
 7788              		.loc 2 317 1 is_stmt 0 view .LVU2046
 7789 0000 2DE9F041 		push	{r4, r5, r6, r7, r8, lr}
 7790              		.cfi_def_cfa_offset 24
 7791              		.cfi_offset 4, -24
 7792              		.cfi_offset 5, -20
 7793              		.cfi_offset 6, -16
 7794              		.cfi_offset 7, -12
 7795              		.cfi_offset 8, -8
 7796              		.cfi_offset 14, -4
 318:Dubby.cpp     ****     DrawBitmap(1);
 7797              		.loc 2 318 15 view .LVU2047
 7798 0004 0121     		movs	r1, #1
 317:Dubby.cpp     **** {
 7799              		.loc 2 317 1 view .LVU2048
 7800 0006 84B0     		sub	sp, sp, #16
 7801              		.cfi_def_cfa_offset 40
 317:Dubby.cpp     **** {
 7802              		.loc 2 317 1 view .LVU2049
 7803 0008 0546     		mov	r5, r0
 7804              	.LBB1753:
ARM GAS  /var/folders/1y/_321xjh9623c014x9_qw12rr0000gn/T//cc4eHiNS.s 			page 208


 7805              	.LBB1754:
 173:../../libDaisy//src/hid/disp/display.h ****         currentY_ = (y >= Height()) ? Height() - 1 : y;
 7806              		.loc 3 173 19 view .LVU2050
 7807 000a 294C     		ldr	r4, .L505
 7808              	.LBE1754:
 7809              	.LBE1753:
 318:Dubby.cpp     ****     DrawBitmap(1);
 7810              		.loc 2 318 15 view .LVU2051
 7811 000c FFF7FEFF 		bl	_ZN5daisy5Dubby10DrawBitmapEi
 7812              	.LVL559:
 320:Dubby.cpp     ****     display.SetCursor(20, 55);
 7813              		.loc 2 320 5 is_stmt 1 view .LVU2052
 7814              	.LBB1757:
 7815              	.LBI1753:
 171:../../libDaisy//src/hid/disp/display.h ****     {
 7816              		.loc 3 171 10 view .LVU2053
 7817              	.LBB1755:
 173:../../libDaisy//src/hid/disp/display.h ****         currentY_ = (y >= Height()) ? Height() - 1 : y;
 7818              		.loc 3 173 9 view .LVU2054
 174:../../libDaisy//src/hid/disp/display.h ****     }
 7819              		.loc 3 174 9 view .LVU2055
 7820              	.LBE1755:
 7821              	.LBE1757:
 321:Dubby.cpp     ****     display.WriteString("FIRMWARE UPDATE", Font_6x8, true);
 7822              		.loc 2 321 24 is_stmt 0 view .LVU2056
 7823 0010 0120     		movs	r0, #1
 7824 0012 284B     		ldr	r3, .L505+4
 7825              	.LBB1758:
 7826              	.LBB1759:
 7827              	.LBB1760:
 7828              	.LBB1761:
 7829              	.LBB1762:
 124:../../libDaisy//src/dev/oled_ssd130x.h ****         spi_.BlockingTransmit(&cmd, 1);
 7830              		.loc 4 124 24 view .LVU2057
 7831 0014 05F58B67 		add	r7, r5, #1112
 7832              	.LBE1762:
 7833              	.LBE1761:
 7834              	.LBE1760:
 7835              	.LBE1759:
 7836              	.LBE1758:
 7837              	.LBB1786:
 7838              	.LBB1756:
 173:../../libDaisy//src/hid/disp/display.h ****         currentY_ = (y >= Height()) ? Height() - 1 : y;
 7839              		.loc 3 173 19 view .LVU2058
 7840 0018 C5F85444 		str	r4, [r5, #1108]
 7841              	.LVL560:
 173:../../libDaisy//src/hid/disp/display.h ****         currentY_ = (y >= Height()) ? Height() - 1 : y;
 7842              		.loc 3 173 19 view .LVU2059
 7843              	.LBE1756:
 7844              	.LBE1786:
 321:Dubby.cpp     ****     display.WriteString("FIRMWARE UPDATE", Font_6x8, true);
 7845              		.loc 2 321 5 is_stmt 1 view .LVU2060
 7846              	.LBB1787:
 7847              	.LBB1784:
 7848              	.LBB1782:
 7849              	.LBB1768:
 7850              	.LBB1763:
ARM GAS  /var/folders/1y/_321xjh9623c014x9_qw12rr0000gn/T//cc4eHiNS.s 			page 209


 124:../../libDaisy//src/dev/oled_ssd130x.h ****         spi_.BlockingTransmit(&cmd, 1);
 7851              		.loc 4 124 24 is_stmt 0 view .LVU2061
 7852 001c 05F58C66 		add	r6, r5, #1120
 125:../../libDaisy//src/dev/oled_ssd130x.h ****     };
 7853              		.loc 4 125 30 view .LVU2062
 7854 0020 B024     		movs	r4, #176
 7855              	.LBE1763:
 7856              	.LBE1768:
 7857              	.LBE1782:
 7858              	.LBE1784:
 7859              	.LBE1787:
 321:Dubby.cpp     ****     display.WriteString("FIRMWARE UPDATE", Font_6x8, true);
 7860              		.loc 2 321 24 view .LVU2063
 7861 0022 2549     		ldr	r1, .L505+8
 7862 0024 0CCB     		ldm	r3, {r2, r3}
 7863 0026 0090     		str	r0, [sp]
 7864 0028 05F58A60 		add	r0, r5, #1104
 7865 002c 05F26445 		addw	r5, r5, #1124
 7866              	.LVL561:
 321:Dubby.cpp     ****     display.WriteString("FIRMWARE UPDATE", Font_6x8, true);
 7867              		.loc 2 321 24 view .LVU2064
 7868 0030 FFF7FEFF 		bl	_ZN5daisy25OneBitGraphicsDisplayImplINS_11OledDisplayINS_13SSD130xDriverILj128ELj64ENS_24SSD130
 7869              	.LVL562:
 323:Dubby.cpp     ****     display.Update();
 7870              		.loc 2 323 5 is_stmt 1 view .LVU2065
 7871              	.LBB1788:
 7872              	.LBI1758:
 7873              		.loc 1 51 10 view .LVU2066
 7874              	.LBB1785:
 7875              	.LBI1759:
 373:../../libDaisy//src/dev/oled_ssd130x.h ****     {
 7876              		.loc 4 373 10 view .LVU2067
 7877              	.LBB1783:
 7878              		.loc 4 383 22 view .LVU2068
 7879              	.L502:
 7880              		.loc 4 383 22 is_stmt 0 view .LVU2069
 7881 0034 4FF00008 		mov	r8, #0
 7882              	.LBB1769:
 7883              	.LBB1764:
 124:../../libDaisy//src/dev/oled_ssd130x.h ****         spi_.BlockingTransmit(&cmd, 1);
 7884              		.loc 4 124 23 view .LVU2070
 7885 0038 3046     		mov	r0, r6
 7886 003a 8DF80F40 		strb	r4, [sp, #15]
 7887              	.LVL563:
 124:../../libDaisy//src/dev/oled_ssd130x.h ****         spi_.BlockingTransmit(&cmd, 1);
 7888              		.loc 4 124 23 view .LVU2071
 7889              	.LBE1764:
 7890              	.LBI1761:
 122:../../libDaisy//src/dev/oled_ssd130x.h ****     {
 7891              		.loc 4 122 10 is_stmt 1 view .LVU2072
 7892              	.LBB1765:
 124:../../libDaisy//src/dev/oled_ssd130x.h ****         spi_.BlockingTransmit(&cmd, 1);
 7893              		.loc 4 124 9 view .LVU2073
 7894              	.LBE1765:
 7895              	.LBE1769:
 7896              		.loc 4 383 22 is_stmt 0 view .LVU2074
 7897 003e 0134     		adds	r4, r4, #1
ARM GAS  /var/folders/1y/_321xjh9623c014x9_qw12rr0000gn/T//cc4eHiNS.s 			page 210


 7898              	.LVL564:
 7899              	.LBB1770:
 7900              	.LBB1766:
 124:../../libDaisy//src/dev/oled_ssd130x.h ****         spi_.BlockingTransmit(&cmd, 1);
 7901              		.loc 4 124 23 view .LVU2075
 7902 0040 4146     		mov	r1, r8
 7903 0042 FFF7FEFF 		bl	dsy_gpio_write
 7904              	.LVL565:
 125:../../libDaisy//src/dev/oled_ssd130x.h ****     };
 7905              		.loc 4 125 9 is_stmt 1 view .LVU2076
 125:../../libDaisy//src/dev/oled_ssd130x.h ****     };
 7906              		.loc 4 125 30 is_stmt 0 view .LVU2077
 7907 0046 6423     		movs	r3, #100
 7908 0048 0122     		movs	r2, #1
 7909 004a 0DF10F01 		add	r1, sp, #15
 7910 004e 3846     		mov	r0, r7
 7911              	.LBE1766:
 7912              	.LBE1770:
 7913              		.loc 4 383 22 view .LVU2078
 7914 0050 E4B2     		uxtb	r4, r4
 7915              	.LBB1771:
 7916              	.LBB1767:
 125:../../libDaisy//src/dev/oled_ssd130x.h ****     };
 7917              		.loc 4 125 30 view .LVU2079
 7918 0052 FFF7FEFF 		bl	_ZN5daisy9SpiHandle16BlockingTransmitEPhjm
 7919              	.LVL566:
 125:../../libDaisy//src/dev/oled_ssd130x.h ****     };
 7920              		.loc 4 125 30 view .LVU2080
 7921              	.LBE1767:
 7922              	.LBE1771:
 7923              	.LBB1772:
 7924              	.LBB1773:
 124:../../libDaisy//src/dev/oled_ssd130x.h ****         spi_.BlockingTransmit(&cmd, 1);
 7925              		.loc 4 124 23 view .LVU2081
 7926 0056 4146     		mov	r1, r8
 7927 0058 3046     		mov	r0, r6
 7928 005a 8DF80F80 		strb	r8, [sp, #15]
 7929              	.LVL567:
 124:../../libDaisy//src/dev/oled_ssd130x.h ****         spi_.BlockingTransmit(&cmd, 1);
 7930              		.loc 4 124 23 view .LVU2082
 7931              	.LBE1773:
 7932              	.LBI1772:
 122:../../libDaisy//src/dev/oled_ssd130x.h ****     {
 7933              		.loc 4 122 10 is_stmt 1 view .LVU2083
 7934              	.LBB1774:
 124:../../libDaisy//src/dev/oled_ssd130x.h ****         spi_.BlockingTransmit(&cmd, 1);
 7935              		.loc 4 124 9 view .LVU2084
 124:../../libDaisy//src/dev/oled_ssd130x.h ****         spi_.BlockingTransmit(&cmd, 1);
 7936              		.loc 4 124 23 is_stmt 0 view .LVU2085
 7937 005e FFF7FEFF 		bl	dsy_gpio_write
 7938              	.LVL568:
 125:../../libDaisy//src/dev/oled_ssd130x.h ****     };
 7939              		.loc 4 125 9 is_stmt 1 view .LVU2086
 125:../../libDaisy//src/dev/oled_ssd130x.h ****     };
 7940              		.loc 4 125 30 is_stmt 0 view .LVU2087
 7941 0062 0122     		movs	r2, #1
 7942 0064 6423     		movs	r3, #100
ARM GAS  /var/folders/1y/_321xjh9623c014x9_qw12rr0000gn/T//cc4eHiNS.s 			page 211


 7943 0066 0DF10F01 		add	r1, sp, #15
 7944 006a 3846     		mov	r0, r7
 7945 006c FFF7FEFF 		bl	_ZN5daisy9SpiHandle16BlockingTransmitEPhjm
 7946              	.LVL569:
 125:../../libDaisy//src/dev/oled_ssd130x.h ****     };
 7947              		.loc 4 125 30 view .LVU2088
 7948 0070 1023     		movs	r3, #16
 7949              	.LBE1774:
 7950              	.LBE1772:
 7951              	.LBB1775:
 7952              	.LBB1776:
 124:../../libDaisy//src/dev/oled_ssd130x.h ****         spi_.BlockingTransmit(&cmd, 1);
 7953              		.loc 4 124 23 view .LVU2089
 7954 0072 4146     		mov	r1, r8
 7955 0074 3046     		mov	r0, r6
 7956 0076 8DF80F30 		strb	r3, [sp, #15]
 7957              	.LVL570:
 124:../../libDaisy//src/dev/oled_ssd130x.h ****         spi_.BlockingTransmit(&cmd, 1);
 7958              		.loc 4 124 23 view .LVU2090
 7959              	.LBE1776:
 7960              	.LBI1775:
 122:../../libDaisy//src/dev/oled_ssd130x.h ****     {
 7961              		.loc 4 122 10 is_stmt 1 view .LVU2091
 7962              	.LBB1777:
 124:../../libDaisy//src/dev/oled_ssd130x.h ****         spi_.BlockingTransmit(&cmd, 1);
 7963              		.loc 4 124 9 view .LVU2092
 124:../../libDaisy//src/dev/oled_ssd130x.h ****         spi_.BlockingTransmit(&cmd, 1);
 7964              		.loc 4 124 23 is_stmt 0 view .LVU2093
 7965 007a FFF7FEFF 		bl	dsy_gpio_write
 7966              	.LVL571:
 125:../../libDaisy//src/dev/oled_ssd130x.h ****     };
 7967              		.loc 4 125 9 is_stmt 1 view .LVU2094
 125:../../libDaisy//src/dev/oled_ssd130x.h ****     };
 7968              		.loc 4 125 30 is_stmt 0 view .LVU2095
 7969 007e 6423     		movs	r3, #100
 7970 0080 0122     		movs	r2, #1
 7971 0082 0DF10F01 		add	r1, sp, #15
 7972 0086 3846     		mov	r0, r7
 7973 0088 FFF7FEFF 		bl	_ZN5daisy9SpiHandle16BlockingTransmitEPhjm
 7974              	.LVL572:
 125:../../libDaisy//src/dev/oled_ssd130x.h ****     };
 7975              		.loc 4 125 30 view .LVU2096
 7976              	.LBE1777:
 7977              	.LBE1775:
 7978              	.LBB1778:
 7979              	.LBI1778:
 128:../../libDaisy//src/dev/oled_ssd130x.h ****     {
 7980              		.loc 4 128 10 is_stmt 1 view .LVU2097
 7981              	.LBB1779:
 130:../../libDaisy//src/dev/oled_ssd130x.h ****         spi_.BlockingTransmit(buff, size);
 7982              		.loc 4 130 9 view .LVU2098
 130:../../libDaisy//src/dev/oled_ssd130x.h ****         spi_.BlockingTransmit(buff, size);
 7983              		.loc 4 130 23 is_stmt 0 view .LVU2099
 7984 008c 0121     		movs	r1, #1
 7985 008e 3046     		mov	r0, r6
 7986 0090 FFF7FEFF 		bl	dsy_gpio_write
 7987              	.LVL573:
ARM GAS  /var/folders/1y/_321xjh9623c014x9_qw12rr0000gn/T//cc4eHiNS.s 			page 212


 131:../../libDaisy//src/dev/oled_ssd130x.h ****     };
 7988              		.loc 4 131 9 is_stmt 1 view .LVU2100
 131:../../libDaisy//src/dev/oled_ssd130x.h ****     };
 7989              		.loc 4 131 30 is_stmt 0 view .LVU2101
 7990 0094 8022     		movs	r2, #128
 7991 0096 2946     		mov	r1, r5
 7992 0098 6423     		movs	r3, #100
 7993 009a 3846     		mov	r0, r7
 7994              	.LBE1779:
 7995              	.LBE1778:
 7996              		.loc 4 383 22 view .LVU2102
 7997 009c 1544     		add	r5, r5, r2
 7998              	.LVL574:
 7999              	.LBB1781:
 8000              	.LBB1780:
 131:../../libDaisy//src/dev/oled_ssd130x.h ****     };
 8001              		.loc 4 131 30 view .LVU2103
 8002 009e FFF7FEFF 		bl	_ZN5daisy9SpiHandle16BlockingTransmitEPhjm
 8003              	.LVL575:
 131:../../libDaisy//src/dev/oled_ssd130x.h ****     };
 8004              		.loc 4 131 30 view .LVU2104
 8005              	.LBE1780:
 8006              	.LBE1781:
 8007              		.loc 4 383 9 is_stmt 1 view .LVU2105
 8008              		.loc 4 383 22 view .LVU2106
 8009 00a2 B82C     		cmp	r4, #184
 8010 00a4 C6D1     		bne	.L502
 8011              	.LVL576:
 8012              		.loc 4 383 22 is_stmt 0 view .LVU2107
 8013              	.LBE1783:
 8014              	.LBE1785:
 8015              	.LBE1788:
 325:Dubby.cpp     ****     System::ResetToBootloader();
 8016              		.loc 2 325 5 is_stmt 1 view .LVU2108
 326:Dubby.cpp     **** }
 8017              		.loc 2 326 1 is_stmt 0 view .LVU2109
 8018 00a6 04B0     		add	sp, sp, #16
 8019              		.cfi_def_cfa_offset 24
 8020              		@ sp needed
 8021 00a8 BDE8F041 		pop	{r4, r5, r6, r7, r8, lr}
 8022              		.cfi_restore 14
 8023              		.cfi_restore 8
 8024              		.cfi_restore 7
 8025              		.cfi_restore 6
 8026              		.cfi_restore 5
 8027              		.cfi_restore 4
 8028              		.cfi_def_cfa_offset 0
 8029              	.LVL577:
 325:Dubby.cpp     ****     System::ResetToBootloader();
 8030              		.loc 2 325 30 view .LVU2110
 8031 00ac FFF7FEBF 		b	_ZN5daisy6System17ResetToBootloaderEv
 8032              	.LVL578:
 8033              	.L506:
 8034              		.align	2
 8035              	.L505:
 8036 00b0 14003700 		.word	3604500
 8037 00b4 00000000 		.word	Font_6x8
ARM GAS  /var/folders/1y/_321xjh9623c014x9_qw12rr0000gn/T//cc4eHiNS.s 			page 213


 8038 00b8 00000000 		.word	.LC17
 8039              		.cfi_endproc
 8040              	.LFE2594:
 8042              		.section	.text._ZN5daisy5Dubby13UpdateDisplayEv,"ax",%progbits
 8043              		.align	1
 8044              		.p2align 2,,3
 8045              		.global	_ZN5daisy5Dubby13UpdateDisplayEv
 8046              		.syntax unified
 8047              		.thumb
 8048              		.thumb_func
 8050              	_ZN5daisy5Dubby13UpdateDisplayEv:
 8051              	.LVL579:
 8052              	.LFB2582:
 110:Dubby.cpp     **** {
 8053              		.loc 2 110 1 is_stmt 1 view -0
 8054              		.cfi_startproc
 8055              		@ args = 0, pretend = 0, frame = 0
 8056              		@ frame_needed = 0, uses_anonymous_args = 0
 111:Dubby.cpp     ****     if (encoder.TimeHeldMs() > 300) 
 8057              		.loc 2 111 5 view .LVU2112
 110:Dubby.cpp     **** {
 8058              		.loc 2 110 1 is_stmt 0 view .LVU2113
 8059 0000 70B5     		push	{r4, r5, r6, lr}
 8060              		.cfi_def_cfa_offset 16
 8061              		.cfi_offset 4, -16
 8062              		.cfi_offset 5, -12
 8063              		.cfi_offset 6, -8
 8064              		.cfi_offset 14, -4
 8065              	.LBB1830:
 8066              	.LBB1831:
 8067              	.LBB1832:
 8068              		.file 15 "../../libDaisy//src/hid/switch.h"
   1:../../libDaisy//src/hid/switch.h **** #pragma once
   2:../../libDaisy//src/hid/switch.h **** #ifndef DSY_SWITCH_H
   3:../../libDaisy//src/hid/switch.h **** #define DSY_SWITCH_H
   4:../../libDaisy//src/hid/switch.h **** #include "daisy_core.h"
   5:../../libDaisy//src/hid/switch.h **** #include "per/gpio.h"
   6:../../libDaisy//src/hid/switch.h **** #include "sys/system.h"
   7:../../libDaisy//src/hid/switch.h **** 
   8:../../libDaisy//src/hid/switch.h **** namespace daisy
   9:../../libDaisy//src/hid/switch.h **** {
  10:../../libDaisy//src/hid/switch.h **** /** 
  11:../../libDaisy//src/hid/switch.h ****     Generic Class for handling momentary/latching switches \n 
  12:../../libDaisy//src/hid/switch.h ****     Inspired/influenced by Mutable Instruments (pichenettes) Switch classes
  13:../../libDaisy//src/hid/switch.h ****     @author Stephen Hensley
  14:../../libDaisy//src/hid/switch.h ****     @date December 2019
  15:../../libDaisy//src/hid/switch.h ****     @ingroup controls
  16:../../libDaisy//src/hid/switch.h **** */
  17:../../libDaisy//src/hid/switch.h **** class Switch
  18:../../libDaisy//src/hid/switch.h **** {
  19:../../libDaisy//src/hid/switch.h ****   public:
  20:../../libDaisy//src/hid/switch.h ****     /** Specifies the expected behavior of the switch */
  21:../../libDaisy//src/hid/switch.h ****     enum Type
  22:../../libDaisy//src/hid/switch.h ****     {
  23:../../libDaisy//src/hid/switch.h ****         TYPE_TOGGLE,    /**< & */
  24:../../libDaisy//src/hid/switch.h ****         TYPE_MOMENTARY, /**< & */
  25:../../libDaisy//src/hid/switch.h ****     };
ARM GAS  /var/folders/1y/_321xjh9623c014x9_qw12rr0000gn/T//cc4eHiNS.s 			page 214


  26:../../libDaisy//src/hid/switch.h ****     /** Specifies whether the pressed is HIGH or LOW. */
  27:../../libDaisy//src/hid/switch.h ****     enum Polarity
  28:../../libDaisy//src/hid/switch.h ****     {
  29:../../libDaisy//src/hid/switch.h ****         POLARITY_NORMAL,   /**< & */
  30:../../libDaisy//src/hid/switch.h ****         POLARITY_INVERTED, /**< & */
  31:../../libDaisy//src/hid/switch.h ****     };
  32:../../libDaisy//src/hid/switch.h **** 
  33:../../libDaisy//src/hid/switch.h ****     /** Specifies whether to use built-in Pull Up/Down resistors to hold button at a given state wh
  34:../../libDaisy//src/hid/switch.h ****     enum Pull
  35:../../libDaisy//src/hid/switch.h ****     {
  36:../../libDaisy//src/hid/switch.h ****         PULL_UP,   /**< & */
  37:../../libDaisy//src/hid/switch.h ****         PULL_DOWN, /**< & */
  38:../../libDaisy//src/hid/switch.h ****         PULL_NONE, /**< & */
  39:../../libDaisy//src/hid/switch.h ****     };
  40:../../libDaisy//src/hid/switch.h **** 
  41:../../libDaisy//src/hid/switch.h ****     Switch() {}
  42:../../libDaisy//src/hid/switch.h ****     ~Switch() {}
  43:../../libDaisy//src/hid/switch.h **** 
  44:../../libDaisy//src/hid/switch.h ****     /** 
  45:../../libDaisy//src/hid/switch.h ****     Initializes the switch object with a given port/pin combo.
  46:../../libDaisy//src/hid/switch.h ****     \param pin port/pin object to tell the switch which hardware pin to use.
  47:../../libDaisy//src/hid/switch.h ****     \param update_rate Does nothing. Backwards compatibility until next breaking update.
  48:../../libDaisy//src/hid/switch.h ****     \param t switch type -- Default: TYPE_MOMENTARY
  49:../../libDaisy//src/hid/switch.h ****     \param pol switch polarity -- Default: POLARITY_INVERTED
  50:../../libDaisy//src/hid/switch.h ****     \param pu switch pull up/down -- Default: PULL_UP
  51:../../libDaisy//src/hid/switch.h ****     */
  52:../../libDaisy//src/hid/switch.h ****     void
  53:../../libDaisy//src/hid/switch.h ****     Init(dsy_gpio_pin pin, float update_rate, Type t, Polarity pol, Pull pu);
  54:../../libDaisy//src/hid/switch.h **** 
  55:../../libDaisy//src/hid/switch.h ****     /**
  56:../../libDaisy//src/hid/switch.h ****        Simplified Init.
  57:../../libDaisy//src/hid/switch.h ****        \param pin port/pin object to tell the switch which hardware pin to use.
  58:../../libDaisy//src/hid/switch.h ****        \param update_rate Left for backwards compatibility until next breaking change.
  59:../../libDaisy//src/hid/switch.h ****     */
  60:../../libDaisy//src/hid/switch.h ****     void Init(dsy_gpio_pin pin, float update_rate = 0.f);
  61:../../libDaisy//src/hid/switch.h **** 
  62:../../libDaisy//src/hid/switch.h ****     /** 
  63:../../libDaisy//src/hid/switch.h ****     Called at update_rate to debounce and handle timing for the switch.
  64:../../libDaisy//src/hid/switch.h ****     In order for events not to be missed, its important that the Edge/Pressed checks
  65:../../libDaisy//src/hid/switch.h ****     be made at the same rate as the debounce function is being called.
  66:../../libDaisy//src/hid/switch.h ****     */
  67:../../libDaisy//src/hid/switch.h ****     void Debounce();
  68:../../libDaisy//src/hid/switch.h **** 
  69:../../libDaisy//src/hid/switch.h ****     /** \return true if a button was just pressed. */
  70:../../libDaisy//src/hid/switch.h ****     inline bool RisingEdge() const { return updated_ ? state_ == 0x7f : false; }
  71:../../libDaisy//src/hid/switch.h **** 
  72:../../libDaisy//src/hid/switch.h ****     /** \return true if the button was just released */
  73:../../libDaisy//src/hid/switch.h ****     inline bool FallingEdge() const
  74:../../libDaisy//src/hid/switch.h ****     {
  75:../../libDaisy//src/hid/switch.h ****         return updated_ ? state_ == 0x80 : false;
  76:../../libDaisy//src/hid/switch.h ****     }
  77:../../libDaisy//src/hid/switch.h **** 
  78:../../libDaisy//src/hid/switch.h ****     /** \return true if the button is held down (or if the toggle is on) */
  79:../../libDaisy//src/hid/switch.h ****     inline bool Pressed() const { return state_ == 0xff; }
  80:../../libDaisy//src/hid/switch.h **** 
  81:../../libDaisy//src/hid/switch.h ****     /** \return true if the button is held down, without debouncing */
  82:../../libDaisy//src/hid/switch.h ****     inline bool RawState()
ARM GAS  /var/folders/1y/_321xjh9623c014x9_qw12rr0000gn/T//cc4eHiNS.s 			page 215


  83:../../libDaisy//src/hid/switch.h ****     {
  84:../../libDaisy//src/hid/switch.h ****         return flip_ ? !dsy_gpio_read(&hw_gpio_) : dsy_gpio_read(&hw_gpio_);
  85:../../libDaisy//src/hid/switch.h ****     }
  86:../../libDaisy//src/hid/switch.h **** 
  87:../../libDaisy//src/hid/switch.h ****     /** \return the time in milliseconds that the button has been held (or toggle has been on) */
  88:../../libDaisy//src/hid/switch.h ****     inline float TimeHeldMs() const
  89:../../libDaisy//src/hid/switch.h ****     {
  90:../../libDaisy//src/hid/switch.h ****         return Pressed() ? System::GetNow() - rising_edge_time_ : 0;
 8069              		.loc 15 90 26 view .LVU2114
 8070 0002 90F80631 		ldrb	r3, [r0, #262]	@ zero_extendqisi2
 8071              	.LBE1832:
 8072              	.LBE1831:
 8073              	.LBE1830:
 110:Dubby.cpp     **** {
 8074              		.loc 2 110 1 view .LVU2115
 8075 0006 0446     		mov	r4, r0
 8076              	.LVL580:
 8077              	.LBB1845:
 8078              	.LBI1830:
 8079              		.file 16 "../../libDaisy//src/hid/encoder.h"
   1:../../libDaisy//src/hid/encoder.h **** #pragma once
   2:../../libDaisy//src/hid/encoder.h **** #ifndef DSY_ENCODER_H
   3:../../libDaisy//src/hid/encoder.h **** #define DSY_ENCODER_H
   4:../../libDaisy//src/hid/encoder.h **** #include "daisy_core.h"
   5:../../libDaisy//src/hid/encoder.h **** #include "per/gpio.h"
   6:../../libDaisy//src/hid/encoder.h **** #include "hid/switch.h"
   7:../../libDaisy//src/hid/encoder.h **** 
   8:../../libDaisy//src/hid/encoder.h **** namespace daisy
   9:../../libDaisy//src/hid/encoder.h **** {
  10:../../libDaisy//src/hid/encoder.h **** /** 
  11:../../libDaisy//src/hid/encoder.h ****     @brief Generic Class for handling Quadrature Encoders \n 
  12:../../libDaisy//src/hid/encoder.h ****     Inspired/influenced by Mutable Instruments (pichenettes) Encoder classes
  13:../../libDaisy//src/hid/encoder.h ****     @author Stephen Hensley
  14:../../libDaisy//src/hid/encoder.h ****     @date December 2019
  15:../../libDaisy//src/hid/encoder.h ****     @ingroup controls
  16:../../libDaisy//src/hid/encoder.h **** */
  17:../../libDaisy//src/hid/encoder.h **** class Encoder
  18:../../libDaisy//src/hid/encoder.h **** {
  19:../../libDaisy//src/hid/encoder.h ****   public:
  20:../../libDaisy//src/hid/encoder.h ****     Encoder() {}
  21:../../libDaisy//src/hid/encoder.h ****     ~Encoder() {}
  22:../../libDaisy//src/hid/encoder.h **** 
  23:../../libDaisy//src/hid/encoder.h ****     /** Initializes the encoder with the specified hardware pins.
  24:../../libDaisy//src/hid/encoder.h ****      * Update rate is to be deprecated in a future release
  25:../../libDaisy//src/hid/encoder.h ****      */
  26:../../libDaisy//src/hid/encoder.h ****     void Init(dsy_gpio_pin a,
  27:../../libDaisy//src/hid/encoder.h ****               dsy_gpio_pin b,
  28:../../libDaisy//src/hid/encoder.h ****               dsy_gpio_pin click,
  29:../../libDaisy//src/hid/encoder.h ****               float        update_rate = 0.f);
  30:../../libDaisy//src/hid/encoder.h ****     /** Called at update_rate to debounce and handle timing for the switch.
  31:../../libDaisy//src/hid/encoder.h ****      * In order for events not to be missed, its important that the Edge/Pressed checks be made at 
  32:../../libDaisy//src/hid/encoder.h ****      */
  33:../../libDaisy//src/hid/encoder.h ****     void Debounce();
  34:../../libDaisy//src/hid/encoder.h **** 
  35:../../libDaisy//src/hid/encoder.h ****     /** Returns +1 if the encoder was turned clockwise, -1 if it was turned counter-clockwise, or 0
  36:../../libDaisy//src/hid/encoder.h ****     inline int32_t Increment() const { return updated_ ? inc_ : 0; }
  37:../../libDaisy//src/hid/encoder.h **** 
ARM GAS  /var/folders/1y/_321xjh9623c014x9_qw12rr0000gn/T//cc4eHiNS.s 			page 216


  38:../../libDaisy//src/hid/encoder.h ****     /** Returns true if the encoder was just pressed. */
  39:../../libDaisy//src/hid/encoder.h ****     inline bool RisingEdge() const { return sw_.RisingEdge(); }
  40:../../libDaisy//src/hid/encoder.h **** 
  41:../../libDaisy//src/hid/encoder.h ****     /** Returns true if the encoder was just released. */
  42:../../libDaisy//src/hid/encoder.h ****     inline bool FallingEdge() const { return sw_.FallingEdge(); }
  43:../../libDaisy//src/hid/encoder.h **** 
  44:../../libDaisy//src/hid/encoder.h ****     /** Returns true while the encoder is held down.*/
  45:../../libDaisy//src/hid/encoder.h ****     inline bool Pressed() const { return sw_.Pressed(); }
  46:../../libDaisy//src/hid/encoder.h **** 
  47:../../libDaisy//src/hid/encoder.h ****     /** Returns the time in milliseconds that the encoder has been held down. */
  48:../../libDaisy//src/hid/encoder.h ****     inline float TimeHeldMs() const { return sw_.TimeHeldMs(); }
 8080              		.loc 16 48 18 is_stmt 1 view .LVU2116
 8081              	.LBE1845:
 8082              		.loc 16 48 39 view .LVU2117
 8083              	.LBB1846:
 8084              	.LBB1842:
 8085              	.LBI1831:
  88:../../libDaisy//src/hid/switch.h ****     {
 8086              		.loc 15 88 18 view .LVU2118
 8087              	.LBB1839:
 8088              		.loc 15 90 9 view .LVU2119
 8089              	.LBB1833:
 8090              	.LBI1833:
  79:../../libDaisy//src/hid/switch.h **** 
 8091              		.loc 15 79 17 view .LVU2120
 8092              	.LBB1834:
  79:../../libDaisy//src/hid/switch.h **** 
 8093              		.loc 15 79 35 view .LVU2121
  79:../../libDaisy//src/hid/switch.h **** 
 8094              		.loc 15 79 35 is_stmt 0 view .LVU2122
 8095              	.LBE1834:
 8096              	.LBE1833:
 8097              		.loc 15 90 26 view .LVU2123
 8098 0008 FF2B     		cmp	r3, #255
 8099 000a 0ED0     		beq	.L578
 8100              	.LVL581:
 8101              		.loc 15 90 26 view .LVU2124
 8102              	.LBE1839:
 8103              	.LBE1842:
 8104              	.LBE1846:
 122:Dubby.cpp     ****     switch(menuItemSelected) 
 8105              		.loc 2 122 5 is_stmt 1 view .LVU2125
 122:Dubby.cpp     ****     switch(menuItemSelected) 
 8106              		.loc 2 122 12 is_stmt 0 view .LVU2126
 8107 000c 90F85830 		ldrb	r3, [r0, #88]	@ zero_extendqisi2
 122:Dubby.cpp     ****     switch(menuItemSelected) 
 8108              		.loc 2 122 5 view .LVU2127
 8109 0010 012B     		cmp	r3, #1
 8110 0012 5FD0     		beq	.L513
 8111 0014 022B     		cmp	r3, #2
 8112 0016 00F09F80 		beq	.L519
 8113 001a 002B     		cmp	r3, #0
 8114 001c 4BD0     		beq	.L532
 8115              	.LVL582:
 8116              	.L526:
 138:Dubby.cpp     ****     if (encoder.TimeHeldMs() < 300 && menuActive)
 8117              		.loc 2 138 39 discriminator 1 view .LVU2128
ARM GAS  /var/folders/1y/_321xjh9623c014x9_qw12rr0000gn/T//cc4eHiNS.s 			page 217


 8118 001e 04F51043 		add	r3, r4, #36864
 138:Dubby.cpp     ****     if (encoder.TimeHeldMs() < 300 && menuActive)
 8119              		.loc 2 138 36 discriminator 1 view .LVU2129
 8120 0022 93F82429 		ldrb	r2, [r3, #2340]	@ zero_extendqisi2
 8121 0026 DABB     		cbnz	r2, .L530
 145:Dubby.cpp     **** }
 8122              		.loc 2 145 1 view .LVU2130
 8123 0028 70BD     		pop	{r4, r5, r6, pc}
 8124              	.LVL583:
 8125              	.L578:
 8126              	.LBB1847:
 8127              	.LBB1843:
 8128              	.LBB1840:
 8129              	.LBB1835:
 8130              	.LBI1835:
  88:../../libDaisy//src/hid/switch.h ****     {
 8131              		.loc 15 88 18 is_stmt 1 view .LVU2131
 8132              	.LBB1836:
 8133              		.loc 15 90 42 is_stmt 0 view .LVU2132
 8134 002a FFF7FEFF 		bl	_ZN5daisy6System6GetNowEv
 8135              	.LVL584:
 8136              		.loc 15 90 45 view .LVU2133
 8137 002e 07EE900A 		vmov	s15, r0	@ int
 8138              		.loc 15 90 26 view .LVU2134
 8139 0032 D4ED426A 		vldr.32	s13, [r4, #264]
 8140              		.loc 15 90 45 view .LVU2135
 8141 0036 F8EE677A 		vcvt.f32.u32	s15, s15
 8142              	.LBE1836:
 8143              	.LBE1835:
 8144              	.LBE1840:
 8145              	.LBE1843:
 8146              	.LBE1847:
 111:Dubby.cpp     ****     if (encoder.TimeHeldMs() > 300) 
 8147              		.loc 2 111 5 view .LVU2136
 8148 003a 9FED587A 		vldr.32	s14, .L585
 8149              	.LBB1848:
 8150              	.LBB1844:
 8151              	.LBB1841:
 8152              	.LBB1838:
 8153              	.LBB1837:
 8154              		.loc 15 90 26 view .LVU2137
 8155 003e 77EEE67A 		vsub.f32	s15, s15, s13
 8156              	.LBE1837:
 8157              	.LBE1838:
 8158              	.LBE1841:
 8159              	.LBE1844:
 8160              	.LBE1848:
 111:Dubby.cpp     ****     if (encoder.TimeHeldMs() > 300) 
 8161              		.loc 2 111 5 view .LVU2138
 8162 0042 F4EEC77A 		vcmpe.f32	s15, s14
 8163 0046 F1EE10FA 		vmrs	APSR_nzcv, FPSCR
 8164 004a 0CDD     		ble	.L510
 113:Dubby.cpp     ****         if (!menuActive) 
 8165              		.loc 2 113 9 is_stmt 1 view .LVU2139
 113:Dubby.cpp     ****         if (!menuActive) 
 8166              		.loc 2 113 14 is_stmt 0 view .LVU2140
 8167 004c 04F51045 		add	r5, r4, #36864
ARM GAS  /var/folders/1y/_321xjh9623c014x9_qw12rr0000gn/T//cc4eHiNS.s 			page 218


 113:Dubby.cpp     ****         if (!menuActive) 
 8168              		.loc 2 113 9 view .LVU2141
 8169 0050 95F82439 		ldrb	r3, [r5, #2340]	@ zero_extendqisi2
 8170 0054 002B     		cmp	r3, #0
 8171 0056 55D0     		beq	.L579
 119:Dubby.cpp     ****         if (encoder.Increment()) UpdateMenu(encoder.Increment(), true);
 8172              		.loc 2 119 9 is_stmt 1 view .LVU2142
 8173              	.LVL585:
 8174              	.LBB1849:
 8175              	.LBI1849:
  36:../../libDaisy//src/hid/encoder.h **** 
 8176              		.loc 16 36 20 view .LVU2143
 8177              	.LBB1850:
  36:../../libDaisy//src/hid/encoder.h **** 
 8178              		.loc 16 36 40 view .LVU2144
  36:../../libDaisy//src/hid/encoder.h **** 
 8179              		.loc 16 36 56 is_stmt 0 view .LVU2145
 8180 0058 94F8F830 		ldrb	r3, [r4, #248]	@ zero_extendqisi2
 8181 005c 1BB1     		cbz	r3, .L510
 8182              	.LVL586:
 8183              	.L581:
  36:../../libDaisy//src/hid/encoder.h **** 
 8184              		.loc 16 36 56 view .LVU2146
 8185 005e D4F81811 		ldr	r1, [r4, #280]
  36:../../libDaisy//src/hid/encoder.h **** 
 8186              		.loc 16 36 56 view .LVU2147
 8187              	.LBE1850:
 8188              	.LBE1849:
 119:Dubby.cpp     ****         if (encoder.Increment()) UpdateMenu(encoder.Increment(), true);
 8189              		.loc 2 119 9 view .LVU2148
 8190 0062 0029     		cmp	r1, #0
 8191 0064 59D1     		bne	.L580
 8192              	.L510:
 122:Dubby.cpp     ****     switch(menuItemSelected) 
 8193              		.loc 2 122 5 is_stmt 1 view .LVU2149
 122:Dubby.cpp     ****     switch(menuItemSelected) 
 8194              		.loc 2 122 12 is_stmt 0 view .LVU2150
 8195 0066 94F85830 		ldrb	r3, [r4, #88]	@ zero_extendqisi2
 122:Dubby.cpp     ****     switch(menuItemSelected) 
 8196              		.loc 2 122 5 view .LVU2151
 8197 006a 012B     		cmp	r3, #1
 8198 006c 32D0     		beq	.L513
 8199 006e 022B     		cmp	r3, #2
 8200 0070 58D0     		beq	.L514
 8201 0072 03B3     		cbz	r3, .L532
 8202              	.L515:
 138:Dubby.cpp     ****     if (encoder.TimeHeldMs() < 300 && menuActive)
 8203              		.loc 2 138 5 is_stmt 1 view .LVU2152
 8204              	.LVL587:
 8205              	.LBB1852:
 8206              	.LBI1852:
 8207              		.loc 16 48 18 view .LVU2153
 8208              	.LBE1852:
 8209              		.loc 16 48 39 view .LVU2154
 8210              	.LBB1871:
 8211              	.LBB1853:
 8212              	.LBI1853:
ARM GAS  /var/folders/1y/_321xjh9623c014x9_qw12rr0000gn/T//cc4eHiNS.s 			page 219


  88:../../libDaisy//src/hid/switch.h ****     {
 8213              		.loc 15 88 18 view .LVU2155
 8214              	.LBB1854:
 8215              		.loc 15 90 9 view .LVU2156
 8216              	.LBB1855:
 8217              	.LBI1855:
  79:../../libDaisy//src/hid/switch.h **** 
 8218              		.loc 15 79 17 view .LVU2157
 8219              	.LBB1856:
  79:../../libDaisy//src/hid/switch.h **** 
 8220              		.loc 15 79 35 view .LVU2158
  79:../../libDaisy//src/hid/switch.h **** 
 8221              		.loc 15 79 35 is_stmt 0 view .LVU2159
 8222              	.LBE1856:
 8223              	.LBE1855:
 8224              		.loc 15 90 26 view .LVU2160
 8225 0074 94F80631 		ldrb	r3, [r4, #262]	@ zero_extendqisi2
 8226 0078 FF2B     		cmp	r3, #255
 8227 007a D0D1     		bne	.L526
 8228              	.LVL588:
 8229              	.L525:
 8230              	.LBB1859:
 8231              	.LBI1859:
  88:../../libDaisy//src/hid/switch.h ****     {
 8232              		.loc 15 88 18 is_stmt 1 view .LVU2161
 8233              	.LBB1860:
 8234              		.loc 15 90 42 is_stmt 0 view .LVU2162
 8235 007c FFF7FEFF 		bl	_ZN5daisy6System6GetNowEv
 8236              	.LVL589:
 8237              		.loc 15 90 45 view .LVU2163
 8238 0080 07EE900A 		vmov	s15, r0	@ int
 8239              		.loc 15 90 26 view .LVU2164
 8240 0084 D4ED426A 		vldr.32	s13, [r4, #264]
 8241              		.loc 15 90 45 view .LVU2165
 8242 0088 F8EE677A 		vcvt.f32.u32	s15, s15
 8243              	.LBE1860:
 8244              	.LBE1859:
 8245              	.LBE1854:
 8246              	.LBE1853:
 8247              	.LBE1871:
 138:Dubby.cpp     ****     if (encoder.TimeHeldMs() < 300 && menuActive)
 8248              		.loc 2 138 36 view .LVU2166
 8249 008c 9FED437A 		vldr.32	s14, .L585
 8250              	.LBB1872:
 8251              	.LBB1868:
 8252              	.LBB1865:
 8253              	.LBB1862:
 8254              	.LBB1861:
 8255              		.loc 15 90 26 view .LVU2167
 8256 0090 77EEE67A 		vsub.f32	s15, s15, s13
 8257              	.LBE1861:
 8258              	.LBE1862:
 8259              	.LBE1865:
 8260              	.LBE1868:
 8261              	.LBE1872:
 138:Dubby.cpp     ****     if (encoder.TimeHeldMs() < 300 && menuActive)
 8262              		.loc 2 138 36 view .LVU2168
ARM GAS  /var/folders/1y/_321xjh9623c014x9_qw12rr0000gn/T//cc4eHiNS.s 			page 220


 8263 0094 F4EEC77A 		vcmpe.f32	s15, s14
 8264 0098 F1EE10FA 		vmrs	APSR_nzcv, FPSCR
 8265 009c BFD4     		bmi	.L526
 145:Dubby.cpp     **** }
 8266              		.loc 2 145 1 view .LVU2169
 8267 009e 70BD     		pop	{r4, r5, r6, pc}
 8268              	.LVL590:
 8269              	.L530:
 140:Dubby.cpp     ****         menuActive = false;
 8270              		.loc 2 140 9 is_stmt 1 view .LVU2170
 140:Dubby.cpp     ****         menuActive = false;
 8271              		.loc 2 140 20 is_stmt 0 view .LVU2171
 8272 00a0 0022     		movs	r2, #0
 142:Dubby.cpp     ****         ReleaseMenu();
 8273              		.loc 2 142 20 view .LVU2172
 8274 00a2 2046     		mov	r0, r4
 140:Dubby.cpp     ****         menuActive = false;
 8275              		.loc 2 140 20 view .LVU2173
 8276 00a4 83F82429 		strb	r2, [r3, #2340]
 142:Dubby.cpp     ****         ReleaseMenu();
 8277              		.loc 2 142 9 is_stmt 1 view .LVU2174
 142:Dubby.cpp     ****         ReleaseMenu();
 8278              		.loc 2 142 20 is_stmt 0 view .LVU2175
 8279 00a8 FFF7FEFF 		bl	_ZN5daisy5Dubby11ReleaseMenuEv
 8280              	.LVL591:
 143:Dubby.cpp     ****         UpdateSubmenu();
 8281              		.loc 2 143 9 is_stmt 1 view .LVU2176
 143:Dubby.cpp     ****         UpdateSubmenu();
 8282              		.loc 2 143 22 is_stmt 0 view .LVU2177
 8283 00ac 2046     		mov	r0, r4
 145:Dubby.cpp     **** }
 8284              		.loc 2 145 1 view .LVU2178
 8285 00ae BDE87040 		pop	{r4, r5, r6, lr}
 8286              		.cfi_remember_state
 8287              		.cfi_restore 14
 8288              		.cfi_restore 6
 8289              		.cfi_restore 5
 8290              		.cfi_restore 4
 8291              		.cfi_def_cfa_offset 0
 8292              	.LVL592:
 143:Dubby.cpp     ****         UpdateSubmenu();
 8293              		.loc 2 143 22 view .LVU2179
 8294 00b2 FFF7FEBF 		b	_ZN5daisy5Dubby13UpdateSubmenuEv
 8295              	.LVL593:
 8296              	.L532:
 8297              		.cfi_restore_state
 124:Dubby.cpp     ****         case MENU1:
 8298              		.loc 2 124 9 is_stmt 1 view .LVU2180
 125:Dubby.cpp     ****             RenderScope();
 8299              		.loc 2 125 13 view .LVU2181
 8300              	.LBB1873:
 8301              	.LBI1873:
 263:Dubby.cpp     **** void Dubby::RenderScope()
 8302              		.loc 2 263 6 view .LVU2182
 8303              	.LBB1874:
 265:Dubby.cpp     ****     if(seed.system.GetNow() - screen_update_last_ > screen_update_period_)
 8304              		.loc 2 265 5 view .LVU2183
ARM GAS  /var/folders/1y/_321xjh9623c014x9_qw12rr0000gn/T//cc4eHiNS.s 			page 221


 8305              	.LBB1875:
 265:Dubby.cpp     ****     if(seed.system.GetNow() - screen_update_last_ > screen_update_period_)
 8306              		.loc 2 265 26 is_stmt 0 view .LVU2184
 8307 00b6 FFF7FEFF 		bl	_ZN5daisy6System6GetNowEv
 8308              	.LVL594:
 265:Dubby.cpp     ****     if(seed.system.GetNow() - screen_update_last_ > screen_update_period_)
 8309              		.loc 2 265 31 view .LVU2185
 8310 00ba 04F51043 		add	r3, r4, #36864
 265:Dubby.cpp     ****     if(seed.system.GetNow() - screen_update_last_ > screen_update_period_)
 8311              		.loc 2 265 29 view .LVU2186
 8312 00be D3F82829 		ldr	r2, [r3, #2344]
 265:Dubby.cpp     ****     if(seed.system.GetNow() - screen_update_last_ > screen_update_period_)
 8313              		.loc 2 265 5 view .LVU2187
 8314 00c2 D3F82C39 		ldr	r3, [r3, #2348]
 265:Dubby.cpp     ****     if(seed.system.GetNow() - screen_update_last_ > screen_update_period_)
 8315              		.loc 2 265 29 view .LVU2188
 8316 00c6 801A     		subs	r0, r0, r2
 265:Dubby.cpp     ****     if(seed.system.GetNow() - screen_update_last_ > screen_update_period_)
 8317              		.loc 2 265 5 view .LVU2189
 8318 00c8 9842     		cmp	r0, r3
 8319 00ca D3D9     		bls	.L515
 8320              	.LBE1875:
 8321 00cc 2046     		mov	r0, r4
 8322 00ce FFF7FEFF 		bl	_ZN5daisy5Dubby11RenderScopeEv.part.0
 8323              	.LVL595:
 8324 00d2 CFE7     		b	.L515
 8325              	.LVL596:
 8326              	.L513:
 265:Dubby.cpp     ****     if(seed.system.GetNow() - screen_update_last_ > screen_update_period_)
 8327              		.loc 2 265 5 view .LVU2190
 8328              	.LBE1874:
 8329              	.LBE1873:
 127:Dubby.cpp     ****         case MENU2:
 8330              		.loc 2 127 9 is_stmt 1 view .LVU2191
 128:Dubby.cpp     ****             UpdateMixerPane();
 8331              		.loc 2 128 13 view .LVU2192
 8332              	.LBB1876:
 8333              	.LBI1876:
 225:Dubby.cpp     **** void Dubby::UpdateMixerPane() 
 8334              		.loc 2 225 6 view .LVU2193
 8335              	.LBE1876:
 227:Dubby.cpp     ****     if(seed.system.GetNow() - screen_update_last_ > screen_update_period_)
 8336              		.loc 2 227 5 view .LVU2194
 8337              	.LBB1882:
 8338              	.LBB1877:
 227:Dubby.cpp     ****     if(seed.system.GetNow() - screen_update_last_ > screen_update_period_)
 8339              		.loc 2 227 31 is_stmt 0 view .LVU2195
 8340 00d4 04F51046 		add	r6, r4, #36864
 227:Dubby.cpp     ****     if(seed.system.GetNow() - screen_update_last_ > screen_update_period_)
 8341              		.loc 2 227 26 view .LVU2196
 8342 00d8 FFF7FEFF 		bl	_ZN5daisy6System6GetNowEv
 8343              	.LVL597:
 227:Dubby.cpp     ****     if(seed.system.GetNow() - screen_update_last_ > screen_update_period_)
 8344              		.loc 2 227 29 view .LVU2197
 8345 00dc D6F82829 		ldr	r2, [r6, #2344]
 227:Dubby.cpp     ****     if(seed.system.GetNow() - screen_update_last_ > screen_update_period_)
 8346              		.loc 2 227 5 view .LVU2198
ARM GAS  /var/folders/1y/_321xjh9623c014x9_qw12rr0000gn/T//cc4eHiNS.s 			page 222


 8347 00e0 D6F82C39 		ldr	r3, [r6, #2348]
 227:Dubby.cpp     ****     if(seed.system.GetNow() - screen_update_last_ > screen_update_period_)
 8348              		.loc 2 227 29 view .LVU2199
 8349 00e4 801A     		subs	r0, r0, r2
 227:Dubby.cpp     ****     if(seed.system.GetNow() - screen_update_last_ > screen_update_period_)
 8350              		.loc 2 227 5 view .LVU2200
 8351 00e6 9842     		cmp	r0, r3
 8352 00e8 C4D9     		bls	.L515
 8353              	.LVL598:
 227:Dubby.cpp     ****     if(seed.system.GetNow() - screen_update_last_ > screen_update_period_)
 8354              		.loc 2 227 5 view .LVU2201
 8355              	.LBE1877:
 8356              	.LBB1878:
 8357              	.LBI1878:
 225:Dubby.cpp     **** void Dubby::UpdateMixerPane() 
 8358              		.loc 2 225 6 is_stmt 1 view .LVU2202
 8359              	.LBB1879:
 229:Dubby.cpp     ****         screen_update_last_ = seed.system.GetNow();
 8360              		.loc 2 229 9 view .LVU2203
 8361              	.LBB1880:
 230:Dubby.cpp     ****         for (int i = 0; i < 4; i++) UpdateBar(i);
 8362              		.loc 2 230 18 is_stmt 0 view .LVU2204
 8363 00ea 0025     		movs	r5, #0
 8364              	.LBE1880:
 229:Dubby.cpp     ****         screen_update_last_ = seed.system.GetNow();
 8365              		.loc 2 229 49 view .LVU2205
 8366 00ec FFF7FEFF 		bl	_ZN5daisy6System6GetNowEv
 8367              	.LVL599:
 229:Dubby.cpp     ****         screen_update_last_ = seed.system.GetNow();
 8368              		.loc 2 229 29 view .LVU2206
 8369 00f0 C6F82809 		str	r0, [r6, #2344]
 230:Dubby.cpp     ****         for (int i = 0; i < 4; i++) UpdateBar(i);
 8370              		.loc 2 230 9 is_stmt 1 view .LVU2207
 8371              	.LVL600:
 8372              	.LBB1881:
 230:Dubby.cpp     ****         for (int i = 0; i < 4; i++) UpdateBar(i);
 8373              		.loc 2 230 27 view .LVU2208
 8374              	.L518:
 230:Dubby.cpp     ****         for (int i = 0; i < 4; i++) UpdateBar(i);
 8375              		.loc 2 230 37 view .LVU2209
 230:Dubby.cpp     ****         for (int i = 0; i < 4; i++) UpdateBar(i);
 8376              		.loc 2 230 46 is_stmt 0 view .LVU2210
 8377 00f4 2946     		mov	r1, r5
 230:Dubby.cpp     ****         for (int i = 0; i < 4; i++) UpdateBar(i);
 8378              		.loc 2 230 9 view .LVU2211
 8379 00f6 0135     		adds	r5, r5, #1
 8380              	.LVL601:
 230:Dubby.cpp     ****         for (int i = 0; i < 4; i++) UpdateBar(i);
 8381              		.loc 2 230 46 view .LVU2212
 8382 00f8 2046     		mov	r0, r4
 8383 00fa FFF7FEFF 		bl	_ZN5daisy5Dubby9UpdateBarEi
 8384              	.LVL602:
 230:Dubby.cpp     ****         for (int i = 0; i < 4; i++) UpdateBar(i);
 8385              		.loc 2 230 9 is_stmt 1 view .LVU2213
 230:Dubby.cpp     ****         for (int i = 0; i < 4; i++) UpdateBar(i);
 8386              		.loc 2 230 27 view .LVU2214
 8387 00fe 042D     		cmp	r5, #4
ARM GAS  /var/folders/1y/_321xjh9623c014x9_qw12rr0000gn/T//cc4eHiNS.s 			page 223


 8388 0100 F8D1     		bne	.L518
 8389 0102 B7E7     		b	.L515
 8390              	.LVL603:
 8391              	.L579:
 230:Dubby.cpp     ****         for (int i = 0; i < 4; i++) UpdateBar(i);
 8392              		.loc 2 230 27 is_stmt 0 view .LVU2215
 8393              	.LBE1881:
 8394              	.LBE1879:
 8395              	.LBE1878:
 8396              	.LBE1882:
 115:Dubby.cpp     ****             HightlightMenuItem();
 8397              		.loc 2 115 13 is_stmt 1 view .LVU2216
 115:Dubby.cpp     ****             HightlightMenuItem();
 8398              		.loc 2 115 31 is_stmt 0 view .LVU2217
 8399 0104 2046     		mov	r0, r4
 8400 0106 FFF7FEFF 		bl	_ZN5daisy5Dubby18HightlightMenuItemEv
 8401              	.LVL604:
 116:Dubby.cpp     ****             menuActive = true;
 8402              		.loc 2 116 13 is_stmt 1 view .LVU2218
 116:Dubby.cpp     ****             menuActive = true;
 8403              		.loc 2 116 24 is_stmt 0 view .LVU2219
 8404 010a 0123     		movs	r3, #1
 8405 010c 85F82439 		strb	r3, [r5, #2340]
 119:Dubby.cpp     ****         if (encoder.Increment()) UpdateMenu(encoder.Increment(), true);
 8406              		.loc 2 119 9 is_stmt 1 view .LVU2220
 8407              	.LVL605:
 8408              	.LBB1883:
  36:../../libDaisy//src/hid/encoder.h **** 
 8409              		.loc 16 36 20 view .LVU2221
 8410              	.LBB1851:
  36:../../libDaisy//src/hid/encoder.h **** 
 8411              		.loc 16 36 40 view .LVU2222
  36:../../libDaisy//src/hid/encoder.h **** 
 8412              		.loc 16 36 56 is_stmt 0 view .LVU2223
 8413 0110 94F8F830 		ldrb	r3, [r4, #248]	@ zero_extendqisi2
 8414 0114 002B     		cmp	r3, #0
 8415 0116 A6D0     		beq	.L510
 8416 0118 A1E7     		b	.L581
 8417              	.LVL606:
 8418              	.L580:
  36:../../libDaisy//src/hid/encoder.h **** 
 8419              		.loc 16 36 56 view .LVU2224
 8420              	.LBE1851:
 8421              	.LBE1883:
 119:Dubby.cpp     ****         if (encoder.Increment()) UpdateMenu(encoder.Increment(), true);
 8422              		.loc 2 119 34 is_stmt 1 view .LVU2225
  36:../../libDaisy//src/hid/encoder.h **** 
 8423              		.loc 16 36 40 view .LVU2226
 119:Dubby.cpp     ****         if (encoder.Increment()) UpdateMenu(encoder.Increment(), true);
 8424              		.loc 2 119 44 is_stmt 0 view .LVU2227
 8425 011a 0122     		movs	r2, #1
 8426 011c 2046     		mov	r0, r4
 8427 011e FFF7FEFF 		bl	_ZN5daisy5Dubby10UpdateMenuEib
 8428              	.LVL607:
 8429 0122 A0E7     		b	.L510
 8430              	.L514:
 130:Dubby.cpp     ****         case MENU3:
ARM GAS  /var/folders/1y/_321xjh9623c014x9_qw12rr0000gn/T//cc4eHiNS.s 			page 224


 8431              		.loc 2 130 9 is_stmt 1 view .LVU2228
 131:Dubby.cpp     ****             if (encoder.Pressed() && preferencesMenuItemSelected == OPTION4) ResetToBootloader();
 8432              		.loc 2 131 13 view .LVU2229
 8433              	.LVL608:
 8434              	.LBB1884:
 8435              	.LBI1884:
  45:../../libDaisy//src/hid/encoder.h **** 
 8436              		.loc 16 45 17 view .LVU2230
 8437              	.LBE1884:
  45:../../libDaisy//src/hid/encoder.h **** 
 8438              		.loc 16 45 35 view .LVU2231
 8439              	.LBB1887:
 8440              	.LBB1885:
 8441              	.LBI1885:
  79:../../libDaisy//src/hid/switch.h **** 
 8442              		.loc 15 79 17 view .LVU2232
 8443              	.LBB1886:
  79:../../libDaisy//src/hid/switch.h **** 
 8444              		.loc 15 79 35 view .LVU2233
  79:../../libDaisy//src/hid/switch.h **** 
 8445              		.loc 15 79 35 is_stmt 0 view .LVU2234
 8446              	.LBE1886:
 8447              	.LBE1885:
 8448              	.LBE1887:
 131:Dubby.cpp     ****             if (encoder.Pressed() && preferencesMenuItemSelected == OPTION4) ResetToBootloader();
 8449              		.loc 2 131 35 view .LVU2235
 8450 0124 94F80631 		ldrb	r3, [r4, #262]	@ zero_extendqisi2
 8451 0128 FF2B     		cmp	r3, #255
 8452 012a 15D1     		bne	.L519
 131:Dubby.cpp     ****             if (encoder.Pressed() && preferencesMenuItemSelected == OPTION4) ResetToBootloader();
 8453              		.loc 2 131 35 discriminator 1 view .LVU2236
 8454 012c 94F85930 		ldrb	r3, [r4, #89]	@ zero_extendqisi2
 8455 0130 032B     		cmp	r3, #3
 8456 0132 23D0     		beq	.L582
 132:Dubby.cpp     ****             if (encoder.Increment() && !menuActive) UpdatePreferencesMenu(encoder.Increment());
 8457              		.loc 2 132 13 is_stmt 1 view .LVU2237
 8458              	.LVL609:
 8459              	.LBB1888:
 8460              	.LBI1888:
  36:../../libDaisy//src/hid/encoder.h **** 
 8461              		.loc 16 36 20 view .LVU2238
 8462              	.LBB1889:
  36:../../libDaisy//src/hid/encoder.h **** 
 8463              		.loc 16 36 40 view .LVU2239
  36:../../libDaisy//src/hid/encoder.h **** 
 8464              		.loc 16 36 56 is_stmt 0 view .LVU2240
 8465 0134 94F8F830 		ldrb	r3, [r4, #248]	@ zero_extendqisi2
 8466 0138 002B     		cmp	r3, #0
 8467 013a 9FD0     		beq	.L525
 8468              	.LVL610:
 8469              	.L531:
  36:../../libDaisy//src/hid/encoder.h **** 
 8470              		.loc 16 36 56 view .LVU2241
 8471 013c D4F81821 		ldr	r2, [r4, #280]
  36:../../libDaisy//src/hid/encoder.h **** 
 8472              		.loc 16 36 56 view .LVU2242
 8473              	.LBE1889:
ARM GAS  /var/folders/1y/_321xjh9623c014x9_qw12rr0000gn/T//cc4eHiNS.s 			page 225


 8474              	.LBE1888:
 132:Dubby.cpp     ****             if (encoder.Increment() && !menuActive) UpdatePreferencesMenu(encoder.Increment());
 8475              		.loc 2 132 37 view .LVU2243
 8476 0140 002A     		cmp	r2, #0
 8477 0142 97D0     		beq	.L515
 132:Dubby.cpp     ****             if (encoder.Increment() && !menuActive) UpdatePreferencesMenu(encoder.Increment());
 8478              		.loc 2 132 41 discriminator 1 view .LVU2244
 8479 0144 04F51043 		add	r3, r4, #36864
 132:Dubby.cpp     ****             if (encoder.Increment() && !menuActive) UpdatePreferencesMenu(encoder.Increment());
 8480              		.loc 2 132 37 discriminator 1 view .LVU2245
 8481 0148 93F82419 		ldrb	r1, [r3, #2340]	@ zero_extendqisi2
 8482 014c 51B1     		cbz	r1, .L583
 138:Dubby.cpp     ****     if (encoder.TimeHeldMs() < 300 && menuActive)
 8483              		.loc 2 138 5 is_stmt 1 view .LVU2246
 8484              	.LVL611:
 8485              	.LBB1892:
 8486              		.loc 16 48 18 view .LVU2247
 8487              	.LBE1892:
 8488              		.loc 16 48 39 view .LVU2248
 8489              	.LBB1893:
 8490              	.LBB1869:
  88:../../libDaisy//src/hid/switch.h ****     {
 8491              		.loc 15 88 18 view .LVU2249
 8492              	.LBB1866:
 8493              		.loc 15 90 9 view .LVU2250
 8494              	.LBB1863:
  79:../../libDaisy//src/hid/switch.h **** 
 8495              		.loc 15 79 17 view .LVU2251
 8496              	.LBB1857:
  79:../../libDaisy//src/hid/switch.h **** 
 8497              		.loc 15 79 35 view .LVU2252
  79:../../libDaisy//src/hid/switch.h **** 
 8498              		.loc 15 79 35 is_stmt 0 view .LVU2253
 8499              	.LBE1857:
 8500              	.LBE1863:
 8501              		.loc 15 90 26 view .LVU2254
 8502 014e 94F80621 		ldrb	r2, [r4, #262]	@ zero_extendqisi2
 8503 0152 FF2A     		cmp	r2, #255
 8504 0154 A4D1     		bne	.L530
 8505 0156 91E7     		b	.L525
 8506              	.LVL612:
 8507              	.L519:
 8508              		.loc 15 90 26 view .LVU2255
 8509              	.LBE1866:
 8510              	.LBE1869:
 8511              	.LBE1893:
 132:Dubby.cpp     ****             if (encoder.Increment() && !menuActive) UpdatePreferencesMenu(encoder.Increment());
 8512              		.loc 2 132 13 is_stmt 1 view .LVU2256
 8513              	.LBB1894:
  36:../../libDaisy//src/hid/encoder.h **** 
 8514              		.loc 16 36 20 view .LVU2257
 8515              	.LBB1890:
  36:../../libDaisy//src/hid/encoder.h **** 
 8516              		.loc 16 36 40 view .LVU2258
  36:../../libDaisy//src/hid/encoder.h **** 
 8517              		.loc 16 36 56 is_stmt 0 view .LVU2259
 8518 0158 94F8F830 		ldrb	r3, [r4, #248]	@ zero_extendqisi2
ARM GAS  /var/folders/1y/_321xjh9623c014x9_qw12rr0000gn/T//cc4eHiNS.s 			page 226


 8519 015c 002B     		cmp	r3, #0
 8520 015e 3FF45EAF 		beq	.L526
 8521 0162 EBE7     		b	.L531
 8522              	.LVL613:
 8523              	.L583:
  36:../../libDaisy//src/hid/encoder.h **** 
 8524              		.loc 16 36 56 view .LVU2260
 8525              	.LBE1890:
 8526              	.LBE1894:
 132:Dubby.cpp     ****             if (encoder.Increment() && !menuActive) UpdatePreferencesMenu(encoder.Increment());
 8527              		.loc 2 132 53 is_stmt 1 view .LVU2261
  36:../../libDaisy//src/hid/encoder.h **** 
 8528              		.loc 16 36 40 view .LVU2262
 8529              	.LBB1895:
 8530              	.LBI1895:
 306:Dubby.cpp     **** void Dubby::UpdatePreferencesMenu(int increment) 
 8531              		.loc 2 306 6 view .LVU2263
 8532              	.LBB1896:
 308:Dubby.cpp     ****     if (((preferencesMenuItemSelected >= 0 && increment == 1 && preferencesMenuItemSelected < PREFE
 8533              		.loc 2 308 5 view .LVU2264
 8534 0164 012A     		cmp	r2, #1
 308:Dubby.cpp     ****     if (((preferencesMenuItemSelected >= 0 && increment == 1 && preferencesMenuItemSelected < PREFE
 8535              		.loc 2 308 65 is_stmt 0 view .LVU2265
 8536 0166 94F85930 		ldrb	r3, [r4, #89]	@ zero_extendqisi2
 308:Dubby.cpp     ****     if (((preferencesMenuItemSelected >= 0 && increment == 1 && preferencesMenuItemSelected < PREFE
 8537              		.loc 2 308 5 view .LVU2266
 8538 016a 0FD0     		beq	.L584
 308:Dubby.cpp     ****     if (((preferencesMenuItemSelected >= 0 && increment == 1 && preferencesMenuItemSelected < PREFE
 8539              		.loc 2 308 140 view .LVU2267
 8540 016c 83B1     		cbz	r3, .L524
 8541              	.L523:
 8542              	.LVL614:
 8543              	.LBB1897:
 8544              	.LBI1897:
 306:Dubby.cpp     **** void Dubby::UpdatePreferencesMenu(int increment) 
 8545              		.loc 2 306 6 is_stmt 1 view .LVU2268
 8546              	.LBB1898:
 310:Dubby.cpp     ****         preferencesMenuItemSelected = (PreferenesMenuItems)(preferencesMenuItemSelected + increment
 8547              		.loc 2 310 9 view .LVU2269
 310:Dubby.cpp     ****         preferencesMenuItemSelected = (PreferenesMenuItems)(preferencesMenuItemSelected + increment
 8548              		.loc 2 310 89 is_stmt 0 view .LVU2270
 8549 016e 1344     		add	r3, r3, r2
 312:Dubby.cpp     ****         DisplayPreferencesMenu();
 8550              		.loc 2 312 31 view .LVU2271
 8551 0170 2046     		mov	r0, r4
 310:Dubby.cpp     ****         preferencesMenuItemSelected = (PreferenesMenuItems)(preferencesMenuItemSelected + increment
 8552              		.loc 2 310 37 view .LVU2272
 8553 0172 84F85930 		strb	r3, [r4, #89]
 312:Dubby.cpp     ****         DisplayPreferencesMenu();
 8554              		.loc 2 312 9 is_stmt 1 view .LVU2273
 312:Dubby.cpp     ****         DisplayPreferencesMenu();
 8555              		.loc 2 312 31 is_stmt 0 view .LVU2274
 8556 0176 FFF7FEFF 		bl	_ZN5daisy5Dubby22DisplayPreferencesMenuEv
 8557              	.LVL615:
 314:Dubby.cpp     **** }
 8558              		.loc 2 314 1 view .LVU2275
 8559 017a 7BE7     		b	.L515
ARM GAS  /var/folders/1y/_321xjh9623c014x9_qw12rr0000gn/T//cc4eHiNS.s 			page 227


 8560              	.LVL616:
 8561              	.L582:
 314:Dubby.cpp     **** }
 8562              		.loc 2 314 1 view .LVU2276
 8563              	.LBE1898:
 8564              	.LBE1897:
 8565              	.LBE1896:
 8566              	.LBE1895:
 131:Dubby.cpp     ****             if (encoder.Pressed() && preferencesMenuItemSelected == OPTION4) ResetToBootloader();
 8567              		.loc 2 131 78 is_stmt 1 view .LVU2277
 131:Dubby.cpp     ****             if (encoder.Pressed() && preferencesMenuItemSelected == OPTION4) ResetToBootloader();
 8568              		.loc 2 131 95 is_stmt 0 view .LVU2278
 8569 017c 2046     		mov	r0, r4
 8570 017e FFF7FEFF 		bl	_ZN5daisy5Dubby17ResetToBootloaderEv
 8571              	.LVL617:
 132:Dubby.cpp     ****             if (encoder.Increment() && !menuActive) UpdatePreferencesMenu(encoder.Increment());
 8572              		.loc 2 132 13 is_stmt 1 view .LVU2279
 8573              	.LBB1900:
  36:../../libDaisy//src/hid/encoder.h **** 
 8574              		.loc 16 36 20 view .LVU2280
 8575              	.LBB1891:
  36:../../libDaisy//src/hid/encoder.h **** 
 8576              		.loc 16 36 40 view .LVU2281
  36:../../libDaisy//src/hid/encoder.h **** 
 8577              		.loc 16 36 56 is_stmt 0 view .LVU2282
 8578 0182 94F8F830 		ldrb	r3, [r4, #248]	@ zero_extendqisi2
 8579 0186 002B     		cmp	r3, #0
 8580 0188 D8D1     		bne	.L531
 8581 018a 73E7     		b	.L515
 8582              	.LVL618:
 8583              	.L584:
  36:../../libDaisy//src/hid/encoder.h **** 
 8584              		.loc 16 36 56 view .LVU2283
 8585              	.LBE1891:
 8586              	.LBE1900:
 8587              	.LBB1901:
 8588              	.LBB1899:
 308:Dubby.cpp     ****     if (((preferencesMenuItemSelected >= 0 && increment == 1 && preferencesMenuItemSelected < PREFE
 8589              		.loc 2 308 62 view .LVU2284
 8590 018c 022B     		cmp	r3, #2
 8591 018e EED9     		bls	.L523
 8592              	.L524:
 8593              	.LVL619:
 308:Dubby.cpp     ****     if (((preferencesMenuItemSelected >= 0 && increment == 1 && preferencesMenuItemSelected < PREFE
 8594              		.loc 2 308 62 view .LVU2285
 8595              	.LBE1899:
 8596              	.LBE1901:
 138:Dubby.cpp     ****     if (encoder.TimeHeldMs() < 300 && menuActive)
 8597              		.loc 2 138 5 is_stmt 1 view .LVU2286
 8598              	.LBB1902:
 8599              		.loc 16 48 18 view .LVU2287
 8600              	.LBE1902:
 8601              		.loc 16 48 39 view .LVU2288
 8602              	.LBB1903:
 8603              	.LBB1870:
  88:../../libDaisy//src/hid/switch.h ****     {
 8604              		.loc 15 88 18 view .LVU2289
ARM GAS  /var/folders/1y/_321xjh9623c014x9_qw12rr0000gn/T//cc4eHiNS.s 			page 228


 8605              	.LBB1867:
 8606              		.loc 15 90 9 view .LVU2290
 8607              	.LBB1864:
  79:../../libDaisy//src/hid/switch.h **** 
 8608              		.loc 15 79 17 view .LVU2291
 8609              	.LBB1858:
  79:../../libDaisy//src/hid/switch.h **** 
 8610              		.loc 15 79 35 view .LVU2292
  79:../../libDaisy//src/hid/switch.h **** 
 8611              		.loc 15 79 35 is_stmt 0 view .LVU2293
 8612              	.LBE1858:
 8613              	.LBE1864:
 8614              		.loc 15 90 26 view .LVU2294
 8615 0190 94F80631 		ldrb	r3, [r4, #262]	@ zero_extendqisi2
 8616 0194 FF2B     		cmp	r3, #255
 8617 0196 3FF471AF 		beq	.L525
 8618              	.LBE1867:
 8619              	.LBE1870:
 8620              	.LBE1903:
 145:Dubby.cpp     **** }
 8621              		.loc 2 145 1 view .LVU2295
 8622 019a 70BD     		pop	{r4, r5, r6, pc}
 8623              	.LVL620:
 8624              	.L586:
 145:Dubby.cpp     **** }
 8625              		.loc 2 145 1 view .LVU2296
 8626              		.align	2
 8627              	.L585:
 8628 019c 00009643 		.word	1133903872
 8629              		.cfi_endproc
 8630              	.LFE2582:
 8632              		.section	.text._ZN5daisy13SSD130xDriverILj128ELj64ENS_24SSD130x4WireSpiTransportEE4InitENS2_6Confi
 8633              		.align	1
 8634              		.p2align 2,,3
 8635              		.weak	_ZN5daisy13SSD130xDriverILj128ELj64ENS_24SSD130x4WireSpiTransportEE4InitENS2_6ConfigE
 8636              		.syntax unified
 8637              		.thumb
 8638              		.thumb_func
 8640              	_ZN5daisy13SSD130xDriverILj128ELj64ENS_24SSD130x4WireSpiTransportEE4InitENS2_6ConfigE:
 8641              	.LVL621:
 8642              	.LFB2655:
 253:../../libDaisy//src/dev/oled_ssd130x.h ****     {
 8643              		.loc 4 253 10 is_stmt 1 view -0
 8644              		.cfi_startproc
 8645              		@ args = 48, pretend = 16, frame = 8
 8646              		@ frame_needed = 0, uses_anonymous_args = 0
 253:../../libDaisy//src/dev/oled_ssd130x.h ****     {
 8647              		.loc 4 253 10 is_stmt 0 view .LVU2298
 8648 0000 84B0     		sub	sp, sp, #16
 8649              		.cfi_def_cfa_offset 16
 8650 0002 2DE9F041 		push	{r4, r5, r6, r7, r8, lr}
 8651              		.cfi_def_cfa_offset 40
 8652              		.cfi_offset 4, -40
 8653              		.cfi_offset 5, -36
 8654              		.cfi_offset 6, -32
 8655              		.cfi_offset 7, -28
 8656              		.cfi_offset 8, -24
ARM GAS  /var/folders/1y/_321xjh9623c014x9_qw12rr0000gn/T//cc4eHiNS.s 			page 229


 8657              		.cfi_offset 14, -20
 8658 0006 82B0     		sub	sp, sp, #8
 8659              		.cfi_def_cfa_offset 48
 8660              	.LBB1952:
 8661              	.LBB1953:
 106:../../libDaisy//src/dev/oled_ssd130x.h ****         pin_dc_.pin  = config.pin_config.dc;
 8662              		.loc 4 106 22 view .LVU2299
 8663 0008 0125     		movs	r5, #1
 107:../../libDaisy//src/dev/oled_ssd130x.h ****         dsy_gpio_init(&pin_dc_);
 8664              		.loc 4 107 22 view .LVU2300
 8665 000a 0646     		mov	r6, r0
 8666              	.LBE1953:
 8667              	.LBE1952:
 253:../../libDaisy//src/dev/oled_ssd130x.h ****     {
 8668              		.loc 4 253 10 view .LVU2301
 8669 000c 0446     		mov	r4, r0
 8670              	.LVL622:
 8671              	.LBB1957:
 8672              	.LBI1952:
 103:../../libDaisy//src/dev/oled_ssd130x.h ****     {
 8673              		.loc 4 103 10 is_stmt 1 view .LVU2302
 8674              	.LBB1954:
 106:../../libDaisy//src/dev/oled_ssd130x.h ****         pin_dc_.pin  = config.pin_config.dc;
 8675              		.loc 4 106 9 view .LVU2303
 8676              	.LBE1954:
 8677              	.LBE1957:
 253:../../libDaisy//src/dev/oled_ssd130x.h ****     {
 8678              		.loc 4 253 10 is_stmt 0 view .LVU2304
 8679 000e 0DF12408 		add	r8, sp, #36
 8680              	.LBB1958:
 8681              	.LBB1955:
 106:../../libDaisy//src/dev/oled_ssd130x.h ****         pin_dc_.pin  = config.pin_config.dc;
 8682              		.loc 4 106 22 view .LVU2305
 8683 0012 8572     		strb	r5, [r0, #10]
 107:../../libDaisy//src/dev/oled_ssd130x.h ****         dsy_gpio_init(&pin_dc_);
 8684              		.loc 4 107 9 is_stmt 1 view .LVU2306
 110:../../libDaisy//src/dev/oled_ssd130x.h ****         dsy_gpio_init(&pin_reset_);
 8685              		.loc 4 110 25 is_stmt 0 view .LVU2307
 8686 0014 2746     		mov	r7, r4
 8687              	.LBE1955:
 8688              	.LBE1958:
 253:../../libDaisy//src/dev/oled_ssd130x.h ****     {
 8689              		.loc 4 253 10 view .LVU2308
 8690 0016 88E80E00 		stm	r8, {r1, r2, r3}
 8691              	.LBB1959:
 8692              	.LBB1956:
 107:../../libDaisy//src/dev/oled_ssd130x.h ****         dsy_gpio_init(&pin_dc_);
 8693              		.loc 4 107 22 view .LVU2309
 8694 001a BDF84C30 		ldrh	r3, [sp, #76]
 8695 001e 26F8083F 		strh	r3, [r6, #8]!	@ movhi
 108:../../libDaisy//src/dev/oled_ssd130x.h ****         pin_reset_.mode = DSY_GPIO_MODE_OUTPUT_PP;
 8696              		.loc 4 108 9 is_stmt 1 view .LVU2310
 108:../../libDaisy//src/dev/oled_ssd130x.h ****         pin_reset_.mode = DSY_GPIO_MODE_OUTPUT_PP;
 8697              		.loc 4 108 22 is_stmt 0 view .LVU2311
 8698 0022 3046     		mov	r0, r6
 8699              	.LVL623:
 108:../../libDaisy//src/dev/oled_ssd130x.h ****         pin_reset_.mode = DSY_GPIO_MODE_OUTPUT_PP;
ARM GAS  /var/folders/1y/_321xjh9623c014x9_qw12rr0000gn/T//cc4eHiNS.s 			page 230


 8700              		.loc 4 108 22 view .LVU2312
 8701 0024 FFF7FEFF 		bl	dsy_gpio_init
 8702              	.LVL624:
 109:../../libDaisy//src/dev/oled_ssd130x.h ****         pin_reset_.pin  = config.pin_config.reset;
 8703              		.loc 4 109 9 is_stmt 1 view .LVU2313
 110:../../libDaisy//src/dev/oled_ssd130x.h ****         dsy_gpio_init(&pin_reset_);
 8704              		.loc 4 110 25 is_stmt 0 view .LVU2314
 8705 0028 BDF84E30 		ldrh	r3, [sp, #78]
 109:../../libDaisy//src/dev/oled_ssd130x.h ****         pin_reset_.pin  = config.pin_config.reset;
 8706              		.loc 4 109 25 view .LVU2315
 8707 002c A571     		strb	r5, [r4, #6]
 110:../../libDaisy//src/dev/oled_ssd130x.h ****         dsy_gpio_init(&pin_reset_);
 8708              		.loc 4 110 9 is_stmt 1 view .LVU2316
 110:../../libDaisy//src/dev/oled_ssd130x.h ****         dsy_gpio_init(&pin_reset_);
 8709              		.loc 4 110 25 is_stmt 0 view .LVU2317
 8710 002e 27F8043F 		strh	r3, [r7, #4]!	@ movhi
 111:../../libDaisy//src/dev/oled_ssd130x.h **** 
 8711              		.loc 4 111 9 is_stmt 1 view .LVU2318
 111:../../libDaisy//src/dev/oled_ssd130x.h **** 
 8712              		.loc 4 111 22 is_stmt 0 view .LVU2319
 8713 0032 3846     		mov	r0, r7
 8714 0034 FFF7FEFF 		bl	dsy_gpio_init
 8715              	.LVL625:
 114:../../libDaisy//src/dev/oled_ssd130x.h **** 
 8716              		.loc 4 114 9 is_stmt 1 view .LVU2320
 114:../../libDaisy//src/dev/oled_ssd130x.h **** 
 8717              		.loc 4 114 18 is_stmt 0 view .LVU2321
 8718 0038 4146     		mov	r1, r8
 8719 003a 2046     		mov	r0, r4
 8720 003c FFF7FEFF 		bl	_ZN5daisy9SpiHandle4InitERKNS0_6ConfigE
 8721              	.LVL626:
 117:../../libDaisy//src/dev/oled_ssd130x.h ****         System::Delay(10);
 8722              		.loc 4 117 9 is_stmt 1 view .LVU2322
 117:../../libDaisy//src/dev/oled_ssd130x.h ****         System::Delay(10);
 8723              		.loc 4 117 23 is_stmt 0 view .LVU2323
 8724 0040 0021     		movs	r1, #0
 8725 0042 3846     		mov	r0, r7
 8726 0044 FFF7FEFF 		bl	dsy_gpio_write
 8727              	.LVL627:
 118:../../libDaisy//src/dev/oled_ssd130x.h ****         dsy_gpio_write(&pin_reset_, 1);
 8728              		.loc 4 118 9 is_stmt 1 view .LVU2324
 118:../../libDaisy//src/dev/oled_ssd130x.h ****         dsy_gpio_write(&pin_reset_, 1);
 8729              		.loc 4 118 22 is_stmt 0 view .LVU2325
 8730 0048 0A20     		movs	r0, #10
 8731 004a FFF7FEFF 		bl	_ZN5daisy6System5DelayEm
 8732              	.LVL628:
 119:../../libDaisy//src/dev/oled_ssd130x.h ****         System::Delay(10);
 8733              		.loc 4 119 9 is_stmt 1 view .LVU2326
 119:../../libDaisy//src/dev/oled_ssd130x.h ****         System::Delay(10);
 8734              		.loc 4 119 23 is_stmt 0 view .LVU2327
 8735 004e 2946     		mov	r1, r5
 8736 0050 3846     		mov	r0, r7
 8737 0052 FFF7FEFF 		bl	dsy_gpio_write
 8738              	.LVL629:
 120:../../libDaisy//src/dev/oled_ssd130x.h ****     };
 8739              		.loc 4 120 9 is_stmt 1 view .LVU2328
 120:../../libDaisy//src/dev/oled_ssd130x.h ****     };
ARM GAS  /var/folders/1y/_321xjh9623c014x9_qw12rr0000gn/T//cc4eHiNS.s 			page 231


 8740              		.loc 4 120 22 is_stmt 0 view .LVU2329
 8741 0056 0A20     		movs	r0, #10
 8742 0058 FFF7FEFF 		bl	_ZN5daisy6System5DelayEm
 8743              	.LVL630:
 120:../../libDaisy//src/dev/oled_ssd130x.h ****     };
 8744              		.loc 4 120 22 view .LVU2330
 8745 005c AE23     		movs	r3, #174
 8746              	.LBE1956:
 8747              	.LBE1959:
 8748              	.LBB1960:
 8749              	.LBB1961:
 124:../../libDaisy//src/dev/oled_ssd130x.h ****         spi_.BlockingTransmit(&cmd, 1);
 8750              		.loc 4 124 23 view .LVU2331
 8751 005e 3046     		mov	r0, r6
 8752 0060 0021     		movs	r1, #0
 8753 0062 8DF80730 		strb	r3, [sp, #7]
 8754              	.LVL631:
 124:../../libDaisy//src/dev/oled_ssd130x.h ****         spi_.BlockingTransmit(&cmd, 1);
 8755              		.loc 4 124 23 view .LVU2332
 8756              	.LBE1961:
 8757              	.LBI1960:
 122:../../libDaisy//src/dev/oled_ssd130x.h ****     {
 8758              		.loc 4 122 10 is_stmt 1 view .LVU2333
 8759              	.LBB1962:
 124:../../libDaisy//src/dev/oled_ssd130x.h ****         spi_.BlockingTransmit(&cmd, 1);
 8760              		.loc 4 124 9 view .LVU2334
 124:../../libDaisy//src/dev/oled_ssd130x.h ****         spi_.BlockingTransmit(&cmd, 1);
 8761              		.loc 4 124 23 is_stmt 0 view .LVU2335
 8762 0066 FFF7FEFF 		bl	dsy_gpio_write
 8763              	.LVL632:
 125:../../libDaisy//src/dev/oled_ssd130x.h ****     };
 8764              		.loc 4 125 9 is_stmt 1 view .LVU2336
 125:../../libDaisy//src/dev/oled_ssd130x.h ****     };
 8765              		.loc 4 125 30 is_stmt 0 view .LVU2337
 8766 006a 2A46     		mov	r2, r5
 8767 006c 0DF10701 		add	r1, sp, #7
 8768 0070 6423     		movs	r3, #100
 8769 0072 2046     		mov	r0, r4
 8770 0074 FFF7FEFF 		bl	_ZN5daisy9SpiHandle16BlockingTransmitEPhjm
 8771              	.LVL633:
 125:../../libDaisy//src/dev/oled_ssd130x.h ****     };
 8772              		.loc 4 125 30 view .LVU2338
 8773 0078 D523     		movs	r3, #213
 8774              	.LBE1962:
 8775              	.LBE1960:
 8776              	.LBB1963:
 8777              	.LBB1964:
 124:../../libDaisy//src/dev/oled_ssd130x.h ****         spi_.BlockingTransmit(&cmd, 1);
 8778              		.loc 4 124 23 view .LVU2339
 8779 007a 3046     		mov	r0, r6
 8780 007c 0021     		movs	r1, #0
 8781 007e 8DF80730 		strb	r3, [sp, #7]
 8782              	.LVL634:
 124:../../libDaisy//src/dev/oled_ssd130x.h ****         spi_.BlockingTransmit(&cmd, 1);
 8783              		.loc 4 124 23 view .LVU2340
 8784              	.LBE1964:
 8785              	.LBI1963:
ARM GAS  /var/folders/1y/_321xjh9623c014x9_qw12rr0000gn/T//cc4eHiNS.s 			page 232


 122:../../libDaisy//src/dev/oled_ssd130x.h ****     {
 8786              		.loc 4 122 10 is_stmt 1 view .LVU2341
 8787              	.LBB1965:
 124:../../libDaisy//src/dev/oled_ssd130x.h ****         spi_.BlockingTransmit(&cmd, 1);
 8788              		.loc 4 124 9 view .LVU2342
 124:../../libDaisy//src/dev/oled_ssd130x.h ****         spi_.BlockingTransmit(&cmd, 1);
 8789              		.loc 4 124 23 is_stmt 0 view .LVU2343
 8790 0082 FFF7FEFF 		bl	dsy_gpio_write
 8791              	.LVL635:
 125:../../libDaisy//src/dev/oled_ssd130x.h ****     };
 8792              		.loc 4 125 9 is_stmt 1 view .LVU2344
 125:../../libDaisy//src/dev/oled_ssd130x.h ****     };
 8793              		.loc 4 125 30 is_stmt 0 view .LVU2345
 8794 0086 2A46     		mov	r2, r5
 8795 0088 0DF10701 		add	r1, sp, #7
 8796 008c 6423     		movs	r3, #100
 8797 008e 2046     		mov	r0, r4
 8798 0090 FFF7FEFF 		bl	_ZN5daisy9SpiHandle16BlockingTransmitEPhjm
 8799              	.LVL636:
 125:../../libDaisy//src/dev/oled_ssd130x.h ****     };
 8800              		.loc 4 125 30 view .LVU2346
 8801 0094 8023     		movs	r3, #128
 8802              	.LBE1965:
 8803              	.LBE1963:
 8804              	.LBB1966:
 8805              	.LBB1967:
 124:../../libDaisy//src/dev/oled_ssd130x.h ****         spi_.BlockingTransmit(&cmd, 1);
 8806              		.loc 4 124 23 view .LVU2347
 8807 0096 3046     		mov	r0, r6
 8808 0098 0021     		movs	r1, #0
 8809 009a 8DF80730 		strb	r3, [sp, #7]
 8810              	.LVL637:
 124:../../libDaisy//src/dev/oled_ssd130x.h ****         spi_.BlockingTransmit(&cmd, 1);
 8811              		.loc 4 124 23 view .LVU2348
 8812              	.LBE1967:
 8813              	.LBI1966:
 122:../../libDaisy//src/dev/oled_ssd130x.h ****     {
 8814              		.loc 4 122 10 is_stmt 1 view .LVU2349
 8815              	.LBB1968:
 124:../../libDaisy//src/dev/oled_ssd130x.h ****         spi_.BlockingTransmit(&cmd, 1);
 8816              		.loc 4 124 9 view .LVU2350
 124:../../libDaisy//src/dev/oled_ssd130x.h ****         spi_.BlockingTransmit(&cmd, 1);
 8817              		.loc 4 124 23 is_stmt 0 view .LVU2351
 8818 009e FFF7FEFF 		bl	dsy_gpio_write
 8819              	.LVL638:
 125:../../libDaisy//src/dev/oled_ssd130x.h ****     };
 8820              		.loc 4 125 9 is_stmt 1 view .LVU2352
 125:../../libDaisy//src/dev/oled_ssd130x.h ****     };
 8821              		.loc 4 125 30 is_stmt 0 view .LVU2353
 8822 00a2 2A46     		mov	r2, r5
 8823 00a4 0DF10701 		add	r1, sp, #7
 8824 00a8 6423     		movs	r3, #100
 8825 00aa 2046     		mov	r0, r4
 8826 00ac FFF7FEFF 		bl	_ZN5daisy9SpiHandle16BlockingTransmitEPhjm
 8827              	.LVL639:
 125:../../libDaisy//src/dev/oled_ssd130x.h ****     };
 8828              		.loc 4 125 30 view .LVU2354
ARM GAS  /var/folders/1y/_321xjh9623c014x9_qw12rr0000gn/T//cc4eHiNS.s 			page 233


 8829 00b0 A823     		movs	r3, #168
 8830              	.LBE1968:
 8831              	.LBE1966:
 8832              	.LBB1969:
 8833              	.LBB1970:
 124:../../libDaisy//src/dev/oled_ssd130x.h ****         spi_.BlockingTransmit(&cmd, 1);
 8834              		.loc 4 124 23 view .LVU2355
 8835 00b2 3046     		mov	r0, r6
 8836 00b4 0021     		movs	r1, #0
 8837 00b6 8DF80730 		strb	r3, [sp, #7]
 8838              	.LVL640:
 124:../../libDaisy//src/dev/oled_ssd130x.h ****         spi_.BlockingTransmit(&cmd, 1);
 8839              		.loc 4 124 23 view .LVU2356
 8840              	.LBE1970:
 8841              	.LBI1969:
 122:../../libDaisy//src/dev/oled_ssd130x.h ****     {
 8842              		.loc 4 122 10 is_stmt 1 view .LVU2357
 8843              	.LBB1971:
 124:../../libDaisy//src/dev/oled_ssd130x.h ****         spi_.BlockingTransmit(&cmd, 1);
 8844              		.loc 4 124 9 view .LVU2358
 124:../../libDaisy//src/dev/oled_ssd130x.h ****         spi_.BlockingTransmit(&cmd, 1);
 8845              		.loc 4 124 23 is_stmt 0 view .LVU2359
 8846 00ba FFF7FEFF 		bl	dsy_gpio_write
 8847              	.LVL641:
 125:../../libDaisy//src/dev/oled_ssd130x.h ****     };
 8848              		.loc 4 125 9 is_stmt 1 view .LVU2360
 125:../../libDaisy//src/dev/oled_ssd130x.h ****     };
 8849              		.loc 4 125 30 is_stmt 0 view .LVU2361
 8850 00be 2A46     		mov	r2, r5
 8851 00c0 0DF10701 		add	r1, sp, #7
 8852 00c4 6423     		movs	r3, #100
 8853 00c6 2046     		mov	r0, r4
 8854 00c8 FFF7FEFF 		bl	_ZN5daisy9SpiHandle16BlockingTransmitEPhjm
 8855              	.LVL642:
 125:../../libDaisy//src/dev/oled_ssd130x.h ****     };
 8856              		.loc 4 125 30 view .LVU2362
 8857 00cc 3F23     		movs	r3, #63
 8858              	.LBE1971:
 8859              	.LBE1969:
 8860              	.LBB1972:
 8861              	.LBB1973:
 124:../../libDaisy//src/dev/oled_ssd130x.h ****         spi_.BlockingTransmit(&cmd, 1);
 8862              		.loc 4 124 23 view .LVU2363
 8863 00ce 3046     		mov	r0, r6
 8864 00d0 0021     		movs	r1, #0
 8865 00d2 8DF80730 		strb	r3, [sp, #7]
 8866              	.LVL643:
 124:../../libDaisy//src/dev/oled_ssd130x.h ****         spi_.BlockingTransmit(&cmd, 1);
 8867              		.loc 4 124 23 view .LVU2364
 8868              	.LBE1973:
 8869              	.LBI1972:
 122:../../libDaisy//src/dev/oled_ssd130x.h ****     {
 8870              		.loc 4 122 10 is_stmt 1 view .LVU2365
 8871              	.LBB1974:
 124:../../libDaisy//src/dev/oled_ssd130x.h ****         spi_.BlockingTransmit(&cmd, 1);
 8872              		.loc 4 124 9 view .LVU2366
 124:../../libDaisy//src/dev/oled_ssd130x.h ****         spi_.BlockingTransmit(&cmd, 1);
ARM GAS  /var/folders/1y/_321xjh9623c014x9_qw12rr0000gn/T//cc4eHiNS.s 			page 234


 8873              		.loc 4 124 23 is_stmt 0 view .LVU2367
 8874 00d6 FFF7FEFF 		bl	dsy_gpio_write
 8875              	.LVL644:
 125:../../libDaisy//src/dev/oled_ssd130x.h ****     };
 8876              		.loc 4 125 9 is_stmt 1 view .LVU2368
 125:../../libDaisy//src/dev/oled_ssd130x.h ****     };
 8877              		.loc 4 125 30 is_stmt 0 view .LVU2369
 8878 00da 2A46     		mov	r2, r5
 8879 00dc 0DF10701 		add	r1, sp, #7
 8880 00e0 6423     		movs	r3, #100
 8881 00e2 2046     		mov	r0, r4
 8882 00e4 FFF7FEFF 		bl	_ZN5daisy9SpiHandle16BlockingTransmitEPhjm
 8883              	.LVL645:
 125:../../libDaisy//src/dev/oled_ssd130x.h ****     };
 8884              		.loc 4 125 30 view .LVU2370
 8885 00e8 DA23     		movs	r3, #218
 8886              	.LBE1974:
 8887              	.LBE1972:
 8888              	.LBB1975:
 8889              	.LBB1976:
 124:../../libDaisy//src/dev/oled_ssd130x.h ****         spi_.BlockingTransmit(&cmd, 1);
 8890              		.loc 4 124 23 view .LVU2371
 8891 00ea 3046     		mov	r0, r6
 8892 00ec 0021     		movs	r1, #0
 8893 00ee 8DF80730 		strb	r3, [sp, #7]
 8894              	.LVL646:
 124:../../libDaisy//src/dev/oled_ssd130x.h ****         spi_.BlockingTransmit(&cmd, 1);
 8895              		.loc 4 124 23 view .LVU2372
 8896              	.LBE1976:
 8897              	.LBI1975:
 122:../../libDaisy//src/dev/oled_ssd130x.h ****     {
 8898              		.loc 4 122 10 is_stmt 1 view .LVU2373
 8899              	.LBB1977:
 124:../../libDaisy//src/dev/oled_ssd130x.h ****         spi_.BlockingTransmit(&cmd, 1);
 8900              		.loc 4 124 9 view .LVU2374
 124:../../libDaisy//src/dev/oled_ssd130x.h ****         spi_.BlockingTransmit(&cmd, 1);
 8901              		.loc 4 124 23 is_stmt 0 view .LVU2375
 8902 00f2 FFF7FEFF 		bl	dsy_gpio_write
 8903              	.LVL647:
 125:../../libDaisy//src/dev/oled_ssd130x.h ****     };
 8904              		.loc 4 125 9 is_stmt 1 view .LVU2376
 125:../../libDaisy//src/dev/oled_ssd130x.h ****     };
 8905              		.loc 4 125 30 is_stmt 0 view .LVU2377
 8906 00f6 2A46     		mov	r2, r5
 8907 00f8 0DF10701 		add	r1, sp, #7
 8908 00fc 6423     		movs	r3, #100
 8909 00fe 2046     		mov	r0, r4
 8910 0100 FFF7FEFF 		bl	_ZN5daisy9SpiHandle16BlockingTransmitEPhjm
 8911              	.LVL648:
 125:../../libDaisy//src/dev/oled_ssd130x.h ****     };
 8912              		.loc 4 125 30 view .LVU2378
 8913 0104 1223     		movs	r3, #18
 8914              	.LBE1977:
 8915              	.LBE1975:
 8916              	.LBB1978:
 8917              	.LBB1979:
 124:../../libDaisy//src/dev/oled_ssd130x.h ****         spi_.BlockingTransmit(&cmd, 1);
ARM GAS  /var/folders/1y/_321xjh9623c014x9_qw12rr0000gn/T//cc4eHiNS.s 			page 235


 8918              		.loc 4 124 23 view .LVU2379
 8919 0106 3046     		mov	r0, r6
 8920 0108 0021     		movs	r1, #0
 8921 010a 8DF80730 		strb	r3, [sp, #7]
 8922              	.LVL649:
 124:../../libDaisy//src/dev/oled_ssd130x.h ****         spi_.BlockingTransmit(&cmd, 1);
 8923              		.loc 4 124 23 view .LVU2380
 8924              	.LBE1979:
 8925              	.LBI1978:
 122:../../libDaisy//src/dev/oled_ssd130x.h ****     {
 8926              		.loc 4 122 10 is_stmt 1 view .LVU2381
 8927              	.LBB1980:
 124:../../libDaisy//src/dev/oled_ssd130x.h ****         spi_.BlockingTransmit(&cmd, 1);
 8928              		.loc 4 124 9 view .LVU2382
 124:../../libDaisy//src/dev/oled_ssd130x.h ****         spi_.BlockingTransmit(&cmd, 1);
 8929              		.loc 4 124 23 is_stmt 0 view .LVU2383
 8930 010e FFF7FEFF 		bl	dsy_gpio_write
 8931              	.LVL650:
 125:../../libDaisy//src/dev/oled_ssd130x.h ****     };
 8932              		.loc 4 125 9 is_stmt 1 view .LVU2384
 125:../../libDaisy//src/dev/oled_ssd130x.h ****     };
 8933              		.loc 4 125 30 is_stmt 0 view .LVU2385
 8934 0112 2A46     		mov	r2, r5
 8935 0114 0DF10701 		add	r1, sp, #7
 8936 0118 6423     		movs	r3, #100
 8937 011a 2046     		mov	r0, r4
 8938 011c FFF7FEFF 		bl	_ZN5daisy9SpiHandle16BlockingTransmitEPhjm
 8939              	.LVL651:
 125:../../libDaisy//src/dev/oled_ssd130x.h ****     };
 8940              		.loc 4 125 30 view .LVU2386
 8941              	.LBE1980:
 8942              	.LBE1978:
 8943              	.LBB1981:
 8944              	.LBB1982:
 124:../../libDaisy//src/dev/oled_ssd130x.h ****         spi_.BlockingTransmit(&cmd, 1);
 8945              		.loc 4 124 23 view .LVU2387
 8946 0120 0021     		movs	r1, #0
 8947 0122 D323     		movs	r3, #211
 8948 0124 3046     		mov	r0, r6
 8949 0126 0F46     		mov	r7, r1
 8950 0128 8DF80730 		strb	r3, [sp, #7]
 8951              	.LVL652:
 124:../../libDaisy//src/dev/oled_ssd130x.h ****         spi_.BlockingTransmit(&cmd, 1);
 8952              		.loc 4 124 23 view .LVU2388
 8953              	.LBE1982:
 8954              	.LBI1981:
 122:../../libDaisy//src/dev/oled_ssd130x.h ****     {
 8955              		.loc 4 122 10 is_stmt 1 view .LVU2389
 8956              	.LBB1983:
 124:../../libDaisy//src/dev/oled_ssd130x.h ****         spi_.BlockingTransmit(&cmd, 1);
 8957              		.loc 4 124 9 view .LVU2390
 124:../../libDaisy//src/dev/oled_ssd130x.h ****         spi_.BlockingTransmit(&cmd, 1);
 8958              		.loc 4 124 23 is_stmt 0 view .LVU2391
 8959 012c FFF7FEFF 		bl	dsy_gpio_write
 8960              	.LVL653:
 125:../../libDaisy//src/dev/oled_ssd130x.h ****     };
 8961              		.loc 4 125 9 is_stmt 1 view .LVU2392
ARM GAS  /var/folders/1y/_321xjh9623c014x9_qw12rr0000gn/T//cc4eHiNS.s 			page 236


 125:../../libDaisy//src/dev/oled_ssd130x.h ****     };
 8962              		.loc 4 125 30 is_stmt 0 view .LVU2393
 8963 0130 2A46     		mov	r2, r5
 8964 0132 6423     		movs	r3, #100
 8965 0134 0DF10701 		add	r1, sp, #7
 8966 0138 2046     		mov	r0, r4
 8967 013a FFF7FEFF 		bl	_ZN5daisy9SpiHandle16BlockingTransmitEPhjm
 8968              	.LVL654:
 125:../../libDaisy//src/dev/oled_ssd130x.h ****     };
 8969              		.loc 4 125 30 view .LVU2394
 8970              	.LBE1983:
 8971              	.LBE1981:
 8972              	.LBB1984:
 8973              	.LBB1985:
 124:../../libDaisy//src/dev/oled_ssd130x.h ****         spi_.BlockingTransmit(&cmd, 1);
 8974              		.loc 4 124 23 view .LVU2395
 8975 013e 3946     		mov	r1, r7
 8976 0140 3046     		mov	r0, r6
 8977 0142 8DF80770 		strb	r7, [sp, #7]
 8978              	.LVL655:
 124:../../libDaisy//src/dev/oled_ssd130x.h ****         spi_.BlockingTransmit(&cmd, 1);
 8979              		.loc 4 124 23 view .LVU2396
 8980              	.LBE1985:
 8981              	.LBI1984:
 122:../../libDaisy//src/dev/oled_ssd130x.h ****     {
 8982              		.loc 4 122 10 is_stmt 1 view .LVU2397
 8983              	.LBB1986:
 124:../../libDaisy//src/dev/oled_ssd130x.h ****         spi_.BlockingTransmit(&cmd, 1);
 8984              		.loc 4 124 9 view .LVU2398
 124:../../libDaisy//src/dev/oled_ssd130x.h ****         spi_.BlockingTransmit(&cmd, 1);
 8985              		.loc 4 124 23 is_stmt 0 view .LVU2399
 8986 0146 FFF7FEFF 		bl	dsy_gpio_write
 8987              	.LVL656:
 125:../../libDaisy//src/dev/oled_ssd130x.h ****     };
 8988              		.loc 4 125 9 is_stmt 1 view .LVU2400
 125:../../libDaisy//src/dev/oled_ssd130x.h ****     };
 8989              		.loc 4 125 30 is_stmt 0 view .LVU2401
 8990 014a 2A46     		mov	r2, r5
 8991 014c 0DF10701 		add	r1, sp, #7
 8992 0150 6423     		movs	r3, #100
 8993 0152 2046     		mov	r0, r4
 8994 0154 FFF7FEFF 		bl	_ZN5daisy9SpiHandle16BlockingTransmitEPhjm
 8995              	.LVL657:
 125:../../libDaisy//src/dev/oled_ssd130x.h ****     };
 8996              		.loc 4 125 30 view .LVU2402
 8997 0158 4023     		movs	r3, #64
 8998              	.LBE1986:
 8999              	.LBE1984:
 9000              	.LBB1987:
 9001              	.LBB1988:
 124:../../libDaisy//src/dev/oled_ssd130x.h ****         spi_.BlockingTransmit(&cmd, 1);
 9002              		.loc 4 124 23 view .LVU2403
 9003 015a 3946     		mov	r1, r7
 9004 015c 3046     		mov	r0, r6
 9005 015e 8DF80730 		strb	r3, [sp, #7]
 9006              	.LVL658:
 124:../../libDaisy//src/dev/oled_ssd130x.h ****         spi_.BlockingTransmit(&cmd, 1);
ARM GAS  /var/folders/1y/_321xjh9623c014x9_qw12rr0000gn/T//cc4eHiNS.s 			page 237


 9007              		.loc 4 124 23 view .LVU2404
 9008              	.LBE1988:
 9009              	.LBI1987:
 122:../../libDaisy//src/dev/oled_ssd130x.h ****     {
 9010              		.loc 4 122 10 is_stmt 1 view .LVU2405
 9011              	.LBB1989:
 124:../../libDaisy//src/dev/oled_ssd130x.h ****         spi_.BlockingTransmit(&cmd, 1);
 9012              		.loc 4 124 9 view .LVU2406
 124:../../libDaisy//src/dev/oled_ssd130x.h ****         spi_.BlockingTransmit(&cmd, 1);
 9013              		.loc 4 124 23 is_stmt 0 view .LVU2407
 9014 0162 FFF7FEFF 		bl	dsy_gpio_write
 9015              	.LVL659:
 125:../../libDaisy//src/dev/oled_ssd130x.h ****     };
 9016              		.loc 4 125 9 is_stmt 1 view .LVU2408
 125:../../libDaisy//src/dev/oled_ssd130x.h ****     };
 9017              		.loc 4 125 30 is_stmt 0 view .LVU2409
 9018 0166 2A46     		mov	r2, r5
 9019 0168 0DF10701 		add	r1, sp, #7
 9020 016c 6423     		movs	r3, #100
 9021 016e 2046     		mov	r0, r4
 9022 0170 FFF7FEFF 		bl	_ZN5daisy9SpiHandle16BlockingTransmitEPhjm
 9023              	.LVL660:
 125:../../libDaisy//src/dev/oled_ssd130x.h ****     };
 9024              		.loc 4 125 30 view .LVU2410
 9025 0174 A623     		movs	r3, #166
 9026              	.LBE1989:
 9027              	.LBE1987:
 9028              	.LBB1990:
 9029              	.LBB1991:
 124:../../libDaisy//src/dev/oled_ssd130x.h ****         spi_.BlockingTransmit(&cmd, 1);
 9030              		.loc 4 124 23 view .LVU2411
 9031 0176 3946     		mov	r1, r7
 9032 0178 3046     		mov	r0, r6
 9033 017a 8DF80730 		strb	r3, [sp, #7]
 9034              	.LVL661:
 124:../../libDaisy//src/dev/oled_ssd130x.h ****         spi_.BlockingTransmit(&cmd, 1);
 9035              		.loc 4 124 23 view .LVU2412
 9036              	.LBE1991:
 9037              	.LBI1990:
 122:../../libDaisy//src/dev/oled_ssd130x.h ****     {
 9038              		.loc 4 122 10 is_stmt 1 view .LVU2413
 9039              	.LBB1992:
 124:../../libDaisy//src/dev/oled_ssd130x.h ****         spi_.BlockingTransmit(&cmd, 1);
 9040              		.loc 4 124 9 view .LVU2414
 124:../../libDaisy//src/dev/oled_ssd130x.h ****         spi_.BlockingTransmit(&cmd, 1);
 9041              		.loc 4 124 23 is_stmt 0 view .LVU2415
 9042 017e FFF7FEFF 		bl	dsy_gpio_write
 9043              	.LVL662:
 125:../../libDaisy//src/dev/oled_ssd130x.h ****     };
 9044              		.loc 4 125 9 is_stmt 1 view .LVU2416
 125:../../libDaisy//src/dev/oled_ssd130x.h ****     };
 9045              		.loc 4 125 30 is_stmt 0 view .LVU2417
 9046 0182 2A46     		mov	r2, r5
 9047 0184 0DF10701 		add	r1, sp, #7
 9048 0188 6423     		movs	r3, #100
 9049 018a 2046     		mov	r0, r4
 9050 018c FFF7FEFF 		bl	_ZN5daisy9SpiHandle16BlockingTransmitEPhjm
ARM GAS  /var/folders/1y/_321xjh9623c014x9_qw12rr0000gn/T//cc4eHiNS.s 			page 238


 9051              	.LVL663:
 125:../../libDaisy//src/dev/oled_ssd130x.h ****     };
 9052              		.loc 4 125 30 view .LVU2418
 9053 0190 A423     		movs	r3, #164
 9054              	.LBE1992:
 9055              	.LBE1990:
 9056              	.LBB1993:
 9057              	.LBB1994:
 124:../../libDaisy//src/dev/oled_ssd130x.h ****         spi_.BlockingTransmit(&cmd, 1);
 9058              		.loc 4 124 23 view .LVU2419
 9059 0192 3946     		mov	r1, r7
 9060 0194 3046     		mov	r0, r6
 9061 0196 8DF80730 		strb	r3, [sp, #7]
 9062              	.LVL664:
 124:../../libDaisy//src/dev/oled_ssd130x.h ****         spi_.BlockingTransmit(&cmd, 1);
 9063              		.loc 4 124 23 view .LVU2420
 9064              	.LBE1994:
 9065              	.LBI1993:
 122:../../libDaisy//src/dev/oled_ssd130x.h ****     {
 9066              		.loc 4 122 10 is_stmt 1 view .LVU2421
 9067              	.LBB1995:
 124:../../libDaisy//src/dev/oled_ssd130x.h ****         spi_.BlockingTransmit(&cmd, 1);
 9068              		.loc 4 124 9 view .LVU2422
 124:../../libDaisy//src/dev/oled_ssd130x.h ****         spi_.BlockingTransmit(&cmd, 1);
 9069              		.loc 4 124 23 is_stmt 0 view .LVU2423
 9070 019a FFF7FEFF 		bl	dsy_gpio_write
 9071              	.LVL665:
 125:../../libDaisy//src/dev/oled_ssd130x.h ****     };
 9072              		.loc 4 125 9 is_stmt 1 view .LVU2424
 125:../../libDaisy//src/dev/oled_ssd130x.h ****     };
 9073              		.loc 4 125 30 is_stmt 0 view .LVU2425
 9074 019e 2A46     		mov	r2, r5
 9075 01a0 0DF10701 		add	r1, sp, #7
 9076 01a4 6423     		movs	r3, #100
 9077 01a6 2046     		mov	r0, r4
 9078 01a8 FFF7FEFF 		bl	_ZN5daisy9SpiHandle16BlockingTransmitEPhjm
 9079              	.LVL666:
 125:../../libDaisy//src/dev/oled_ssd130x.h ****     };
 9080              		.loc 4 125 30 view .LVU2426
 9081 01ac 8D23     		movs	r3, #141
 9082              	.LBE1995:
 9083              	.LBE1993:
 9084              	.LBB1996:
 9085              	.LBB1997:
 124:../../libDaisy//src/dev/oled_ssd130x.h ****         spi_.BlockingTransmit(&cmd, 1);
 9086              		.loc 4 124 23 view .LVU2427
 9087 01ae 3946     		mov	r1, r7
 9088 01b0 3046     		mov	r0, r6
 9089 01b2 8DF80730 		strb	r3, [sp, #7]
 9090              	.LVL667:
 124:../../libDaisy//src/dev/oled_ssd130x.h ****         spi_.BlockingTransmit(&cmd, 1);
 9091              		.loc 4 124 23 view .LVU2428
 9092              	.LBE1997:
 9093              	.LBI1996:
 122:../../libDaisy//src/dev/oled_ssd130x.h ****     {
 9094              		.loc 4 122 10 is_stmt 1 view .LVU2429
 9095              	.LBB1998:
ARM GAS  /var/folders/1y/_321xjh9623c014x9_qw12rr0000gn/T//cc4eHiNS.s 			page 239


 124:../../libDaisy//src/dev/oled_ssd130x.h ****         spi_.BlockingTransmit(&cmd, 1);
 9096              		.loc 4 124 9 view .LVU2430
 124:../../libDaisy//src/dev/oled_ssd130x.h ****         spi_.BlockingTransmit(&cmd, 1);
 9097              		.loc 4 124 23 is_stmt 0 view .LVU2431
 9098 01b6 FFF7FEFF 		bl	dsy_gpio_write
 9099              	.LVL668:
 125:../../libDaisy//src/dev/oled_ssd130x.h ****     };
 9100              		.loc 4 125 9 is_stmt 1 view .LVU2432
 125:../../libDaisy//src/dev/oled_ssd130x.h ****     };
 9101              		.loc 4 125 30 is_stmt 0 view .LVU2433
 9102 01ba 2A46     		mov	r2, r5
 9103 01bc 0DF10701 		add	r1, sp, #7
 9104 01c0 6423     		movs	r3, #100
 9105 01c2 2046     		mov	r0, r4
 9106 01c4 FFF7FEFF 		bl	_ZN5daisy9SpiHandle16BlockingTransmitEPhjm
 9107              	.LVL669:
 125:../../libDaisy//src/dev/oled_ssd130x.h ****     };
 9108              		.loc 4 125 30 view .LVU2434
 9109 01c8 1423     		movs	r3, #20
 9110              	.LBE1998:
 9111              	.LBE1996:
 9112              	.LBB1999:
 9113              	.LBB2000:
 124:../../libDaisy//src/dev/oled_ssd130x.h ****         spi_.BlockingTransmit(&cmd, 1);
 9114              		.loc 4 124 23 view .LVU2435
 9115 01ca 3946     		mov	r1, r7
 9116 01cc 3046     		mov	r0, r6
 9117 01ce 8DF80730 		strb	r3, [sp, #7]
 9118              	.LVL670:
 124:../../libDaisy//src/dev/oled_ssd130x.h ****         spi_.BlockingTransmit(&cmd, 1);
 9119              		.loc 4 124 23 view .LVU2436
 9120              	.LBE2000:
 9121              	.LBI1999:
 122:../../libDaisy//src/dev/oled_ssd130x.h ****     {
 9122              		.loc 4 122 10 is_stmt 1 view .LVU2437
 9123              	.LBB2001:
 124:../../libDaisy//src/dev/oled_ssd130x.h ****         spi_.BlockingTransmit(&cmd, 1);
 9124              		.loc 4 124 9 view .LVU2438
 124:../../libDaisy//src/dev/oled_ssd130x.h ****         spi_.BlockingTransmit(&cmd, 1);
 9125              		.loc 4 124 23 is_stmt 0 view .LVU2439
 9126 01d2 FFF7FEFF 		bl	dsy_gpio_write
 9127              	.LVL671:
 125:../../libDaisy//src/dev/oled_ssd130x.h ****     };
 9128              		.loc 4 125 9 is_stmt 1 view .LVU2440
 125:../../libDaisy//src/dev/oled_ssd130x.h ****     };
 9129              		.loc 4 125 30 is_stmt 0 view .LVU2441
 9130 01d6 2A46     		mov	r2, r5
 9131 01d8 0DF10701 		add	r1, sp, #7
 9132 01dc 6423     		movs	r3, #100
 9133 01de 2046     		mov	r0, r4
 9134 01e0 FFF7FEFF 		bl	_ZN5daisy9SpiHandle16BlockingTransmitEPhjm
 9135              	.LVL672:
 125:../../libDaisy//src/dev/oled_ssd130x.h ****     };
 9136              		.loc 4 125 30 view .LVU2442
 9137 01e4 A123     		movs	r3, #161
 9138              	.LBE2001:
 9139              	.LBE1999:
ARM GAS  /var/folders/1y/_321xjh9623c014x9_qw12rr0000gn/T//cc4eHiNS.s 			page 240


 9140              	.LBB2002:
 9141              	.LBB2003:
 124:../../libDaisy//src/dev/oled_ssd130x.h ****         spi_.BlockingTransmit(&cmd, 1);
 9142              		.loc 4 124 23 view .LVU2443
 9143 01e6 3946     		mov	r1, r7
 9144 01e8 3046     		mov	r0, r6
 9145 01ea 8DF80730 		strb	r3, [sp, #7]
 9146              	.LVL673:
 124:../../libDaisy//src/dev/oled_ssd130x.h ****         spi_.BlockingTransmit(&cmd, 1);
 9147              		.loc 4 124 23 view .LVU2444
 9148              	.LBE2003:
 9149              	.LBI2002:
 122:../../libDaisy//src/dev/oled_ssd130x.h ****     {
 9150              		.loc 4 122 10 is_stmt 1 view .LVU2445
 9151              	.LBB2004:
 124:../../libDaisy//src/dev/oled_ssd130x.h ****         spi_.BlockingTransmit(&cmd, 1);
 9152              		.loc 4 124 9 view .LVU2446
 124:../../libDaisy//src/dev/oled_ssd130x.h ****         spi_.BlockingTransmit(&cmd, 1);
 9153              		.loc 4 124 23 is_stmt 0 view .LVU2447
 9154 01ee FFF7FEFF 		bl	dsy_gpio_write
 9155              	.LVL674:
 125:../../libDaisy//src/dev/oled_ssd130x.h ****     };
 9156              		.loc 4 125 9 is_stmt 1 view .LVU2448
 125:../../libDaisy//src/dev/oled_ssd130x.h ****     };
 9157              		.loc 4 125 30 is_stmt 0 view .LVU2449
 9158 01f2 2A46     		mov	r2, r5
 9159 01f4 0DF10701 		add	r1, sp, #7
 9160 01f8 6423     		movs	r3, #100
 9161 01fa 2046     		mov	r0, r4
 9162 01fc FFF7FEFF 		bl	_ZN5daisy9SpiHandle16BlockingTransmitEPhjm
 9163              	.LVL675:
 125:../../libDaisy//src/dev/oled_ssd130x.h ****     };
 9164              		.loc 4 125 30 view .LVU2450
 9165 0200 C823     		movs	r3, #200
 9166              	.LBE2004:
 9167              	.LBE2002:
 9168              	.LBB2005:
 9169              	.LBB2006:
 124:../../libDaisy//src/dev/oled_ssd130x.h ****         spi_.BlockingTransmit(&cmd, 1);
 9170              		.loc 4 124 23 view .LVU2451
 9171 0202 3946     		mov	r1, r7
 9172 0204 3046     		mov	r0, r6
 9173 0206 8DF80730 		strb	r3, [sp, #7]
 9174              	.LVL676:
 124:../../libDaisy//src/dev/oled_ssd130x.h ****         spi_.BlockingTransmit(&cmd, 1);
 9175              		.loc 4 124 23 view .LVU2452
 9176              	.LBE2006:
 9177              	.LBI2005:
 122:../../libDaisy//src/dev/oled_ssd130x.h ****     {
 9178              		.loc 4 122 10 is_stmt 1 view .LVU2453
 9179              	.LBB2007:
 124:../../libDaisy//src/dev/oled_ssd130x.h ****         spi_.BlockingTransmit(&cmd, 1);
 9180              		.loc 4 124 9 view .LVU2454
 124:../../libDaisy//src/dev/oled_ssd130x.h ****         spi_.BlockingTransmit(&cmd, 1);
 9181              		.loc 4 124 23 is_stmt 0 view .LVU2455
 9182 020a FFF7FEFF 		bl	dsy_gpio_write
 9183              	.LVL677:
ARM GAS  /var/folders/1y/_321xjh9623c014x9_qw12rr0000gn/T//cc4eHiNS.s 			page 241


 125:../../libDaisy//src/dev/oled_ssd130x.h ****     };
 9184              		.loc 4 125 9 is_stmt 1 view .LVU2456
 125:../../libDaisy//src/dev/oled_ssd130x.h ****     };
 9185              		.loc 4 125 30 is_stmt 0 view .LVU2457
 9186 020e 2A46     		mov	r2, r5
 9187 0210 0DF10701 		add	r1, sp, #7
 9188 0214 6423     		movs	r3, #100
 9189 0216 2046     		mov	r0, r4
 9190 0218 FFF7FEFF 		bl	_ZN5daisy9SpiHandle16BlockingTransmitEPhjm
 9191              	.LVL678:
 125:../../libDaisy//src/dev/oled_ssd130x.h ****     };
 9192              		.loc 4 125 30 view .LVU2458
 9193 021c 8123     		movs	r3, #129
 9194              	.LBE2007:
 9195              	.LBE2005:
 9196              	.LBB2008:
 9197              	.LBB2009:
 124:../../libDaisy//src/dev/oled_ssd130x.h ****         spi_.BlockingTransmit(&cmd, 1);
 9198              		.loc 4 124 23 view .LVU2459
 9199 021e 3946     		mov	r1, r7
 9200 0220 3046     		mov	r0, r6
 9201 0222 8DF80730 		strb	r3, [sp, #7]
 9202              	.LVL679:
 124:../../libDaisy//src/dev/oled_ssd130x.h ****         spi_.BlockingTransmit(&cmd, 1);
 9203              		.loc 4 124 23 view .LVU2460
 9204              	.LBE2009:
 9205              	.LBI2008:
 122:../../libDaisy//src/dev/oled_ssd130x.h ****     {
 9206              		.loc 4 122 10 is_stmt 1 view .LVU2461
 9207              	.LBB2010:
 124:../../libDaisy//src/dev/oled_ssd130x.h ****         spi_.BlockingTransmit(&cmd, 1);
 9208              		.loc 4 124 9 view .LVU2462
 124:../../libDaisy//src/dev/oled_ssd130x.h ****         spi_.BlockingTransmit(&cmd, 1);
 9209              		.loc 4 124 23 is_stmt 0 view .LVU2463
 9210 0226 FFF7FEFF 		bl	dsy_gpio_write
 9211              	.LVL680:
 125:../../libDaisy//src/dev/oled_ssd130x.h ****     };
 9212              		.loc 4 125 9 is_stmt 1 view .LVU2464
 125:../../libDaisy//src/dev/oled_ssd130x.h ****     };
 9213              		.loc 4 125 30 is_stmt 0 view .LVU2465
 9214 022a 2A46     		mov	r2, r5
 9215 022c 0DF10701 		add	r1, sp, #7
 9216 0230 6423     		movs	r3, #100
 9217 0232 2046     		mov	r0, r4
 9218 0234 FFF7FEFF 		bl	_ZN5daisy9SpiHandle16BlockingTransmitEPhjm
 9219              	.LVL681:
 125:../../libDaisy//src/dev/oled_ssd130x.h ****     };
 9220              		.loc 4 125 30 view .LVU2466
 9221 0238 8F23     		movs	r3, #143
 9222              	.LBE2010:
 9223              	.LBE2008:
 9224              	.LBB2011:
 9225              	.LBB2012:
 124:../../libDaisy//src/dev/oled_ssd130x.h ****         spi_.BlockingTransmit(&cmd, 1);
 9226              		.loc 4 124 23 view .LVU2467
 9227 023a 3946     		mov	r1, r7
 9228 023c 3046     		mov	r0, r6
ARM GAS  /var/folders/1y/_321xjh9623c014x9_qw12rr0000gn/T//cc4eHiNS.s 			page 242


 9229 023e 8DF80730 		strb	r3, [sp, #7]
 9230              	.LVL682:
 124:../../libDaisy//src/dev/oled_ssd130x.h ****         spi_.BlockingTransmit(&cmd, 1);
 9231              		.loc 4 124 23 view .LVU2468
 9232              	.LBE2012:
 9233              	.LBI2011:
 122:../../libDaisy//src/dev/oled_ssd130x.h ****     {
 9234              		.loc 4 122 10 is_stmt 1 view .LVU2469
 9235              	.LBB2013:
 124:../../libDaisy//src/dev/oled_ssd130x.h ****         spi_.BlockingTransmit(&cmd, 1);
 9236              		.loc 4 124 9 view .LVU2470
 124:../../libDaisy//src/dev/oled_ssd130x.h ****         spi_.BlockingTransmit(&cmd, 1);
 9237              		.loc 4 124 23 is_stmt 0 view .LVU2471
 9238 0242 FFF7FEFF 		bl	dsy_gpio_write
 9239              	.LVL683:
 125:../../libDaisy//src/dev/oled_ssd130x.h ****     };
 9240              		.loc 4 125 9 is_stmt 1 view .LVU2472
 125:../../libDaisy//src/dev/oled_ssd130x.h ****     };
 9241              		.loc 4 125 30 is_stmt 0 view .LVU2473
 9242 0246 2A46     		mov	r2, r5
 9243 0248 0DF10701 		add	r1, sp, #7
 9244 024c 6423     		movs	r3, #100
 9245 024e 2046     		mov	r0, r4
 9246 0250 FFF7FEFF 		bl	_ZN5daisy9SpiHandle16BlockingTransmitEPhjm
 9247              	.LVL684:
 125:../../libDaisy//src/dev/oled_ssd130x.h ****     };
 9248              		.loc 4 125 30 view .LVU2474
 9249 0254 D923     		movs	r3, #217
 9250              	.LBE2013:
 9251              	.LBE2011:
 9252              	.LBB2014:
 9253              	.LBB2015:
 124:../../libDaisy//src/dev/oled_ssd130x.h ****         spi_.BlockingTransmit(&cmd, 1);
 9254              		.loc 4 124 23 view .LVU2475
 9255 0256 3946     		mov	r1, r7
 9256 0258 3046     		mov	r0, r6
 9257 025a 8DF80730 		strb	r3, [sp, #7]
 9258              	.LVL685:
 124:../../libDaisy//src/dev/oled_ssd130x.h ****         spi_.BlockingTransmit(&cmd, 1);
 9259              		.loc 4 124 23 view .LVU2476
 9260              	.LBE2015:
 9261              	.LBI2014:
 122:../../libDaisy//src/dev/oled_ssd130x.h ****     {
 9262              		.loc 4 122 10 is_stmt 1 view .LVU2477
 9263              	.LBB2016:
 124:../../libDaisy//src/dev/oled_ssd130x.h ****         spi_.BlockingTransmit(&cmd, 1);
 9264              		.loc 4 124 9 view .LVU2478
 124:../../libDaisy//src/dev/oled_ssd130x.h ****         spi_.BlockingTransmit(&cmd, 1);
 9265              		.loc 4 124 23 is_stmt 0 view .LVU2479
 9266 025e FFF7FEFF 		bl	dsy_gpio_write
 9267              	.LVL686:
 125:../../libDaisy//src/dev/oled_ssd130x.h ****     };
 9268              		.loc 4 125 9 is_stmt 1 view .LVU2480
 125:../../libDaisy//src/dev/oled_ssd130x.h ****     };
 9269              		.loc 4 125 30 is_stmt 0 view .LVU2481
 9270 0262 2A46     		mov	r2, r5
 9271 0264 0DF10701 		add	r1, sp, #7
ARM GAS  /var/folders/1y/_321xjh9623c014x9_qw12rr0000gn/T//cc4eHiNS.s 			page 243


 9272 0268 6423     		movs	r3, #100
 9273 026a 2046     		mov	r0, r4
 9274 026c FFF7FEFF 		bl	_ZN5daisy9SpiHandle16BlockingTransmitEPhjm
 9275              	.LVL687:
 125:../../libDaisy//src/dev/oled_ssd130x.h ****     };
 9276              		.loc 4 125 30 view .LVU2482
 9277 0270 2523     		movs	r3, #37
 9278              	.LBE2016:
 9279              	.LBE2014:
 9280              	.LBB2017:
 9281              	.LBB2018:
 124:../../libDaisy//src/dev/oled_ssd130x.h ****         spi_.BlockingTransmit(&cmd, 1);
 9282              		.loc 4 124 23 view .LVU2483
 9283 0272 3946     		mov	r1, r7
 9284 0274 3046     		mov	r0, r6
 9285 0276 8DF80730 		strb	r3, [sp, #7]
 9286              	.LVL688:
 124:../../libDaisy//src/dev/oled_ssd130x.h ****         spi_.BlockingTransmit(&cmd, 1);
 9287              		.loc 4 124 23 view .LVU2484
 9288              	.LBE2018:
 9289              	.LBI2017:
 122:../../libDaisy//src/dev/oled_ssd130x.h ****     {
 9290              		.loc 4 122 10 is_stmt 1 view .LVU2485
 9291              	.LBB2019:
 124:../../libDaisy//src/dev/oled_ssd130x.h ****         spi_.BlockingTransmit(&cmd, 1);
 9292              		.loc 4 124 9 view .LVU2486
 124:../../libDaisy//src/dev/oled_ssd130x.h ****         spi_.BlockingTransmit(&cmd, 1);
 9293              		.loc 4 124 23 is_stmt 0 view .LVU2487
 9294 027a FFF7FEFF 		bl	dsy_gpio_write
 9295              	.LVL689:
 125:../../libDaisy//src/dev/oled_ssd130x.h ****     };
 9296              		.loc 4 125 9 is_stmt 1 view .LVU2488
 125:../../libDaisy//src/dev/oled_ssd130x.h ****     };
 9297              		.loc 4 125 30 is_stmt 0 view .LVU2489
 9298 027e 2A46     		mov	r2, r5
 9299 0280 0DF10701 		add	r1, sp, #7
 9300 0284 6423     		movs	r3, #100
 9301 0286 2046     		mov	r0, r4
 9302 0288 FFF7FEFF 		bl	_ZN5daisy9SpiHandle16BlockingTransmitEPhjm
 9303              	.LVL690:
 125:../../libDaisy//src/dev/oled_ssd130x.h ****     };
 9304              		.loc 4 125 30 view .LVU2490
 9305 028c DB23     		movs	r3, #219
 9306              	.LBE2019:
 9307              	.LBE2017:
 9308              	.LBB2020:
 9309              	.LBB2021:
 124:../../libDaisy//src/dev/oled_ssd130x.h ****         spi_.BlockingTransmit(&cmd, 1);
 9310              		.loc 4 124 23 view .LVU2491
 9311 028e 3946     		mov	r1, r7
 9312 0290 3046     		mov	r0, r6
 9313 0292 8DF80730 		strb	r3, [sp, #7]
 9314              	.LVL691:
 124:../../libDaisy//src/dev/oled_ssd130x.h ****         spi_.BlockingTransmit(&cmd, 1);
 9315              		.loc 4 124 23 view .LVU2492
 9316              	.LBE2021:
 9317              	.LBI2020:
ARM GAS  /var/folders/1y/_321xjh9623c014x9_qw12rr0000gn/T//cc4eHiNS.s 			page 244


 122:../../libDaisy//src/dev/oled_ssd130x.h ****     {
 9318              		.loc 4 122 10 is_stmt 1 view .LVU2493
 9319              	.LBB2022:
 124:../../libDaisy//src/dev/oled_ssd130x.h ****         spi_.BlockingTransmit(&cmd, 1);
 9320              		.loc 4 124 9 view .LVU2494
 124:../../libDaisy//src/dev/oled_ssd130x.h ****         spi_.BlockingTransmit(&cmd, 1);
 9321              		.loc 4 124 23 is_stmt 0 view .LVU2495
 9322 0296 FFF7FEFF 		bl	dsy_gpio_write
 9323              	.LVL692:
 125:../../libDaisy//src/dev/oled_ssd130x.h ****     };
 9324              		.loc 4 125 9 is_stmt 1 view .LVU2496
 125:../../libDaisy//src/dev/oled_ssd130x.h ****     };
 9325              		.loc 4 125 30 is_stmt 0 view .LVU2497
 9326 029a 2A46     		mov	r2, r5
 9327 029c 0DF10701 		add	r1, sp, #7
 9328 02a0 6423     		movs	r3, #100
 9329 02a2 2046     		mov	r0, r4
 9330 02a4 FFF7FEFF 		bl	_ZN5daisy9SpiHandle16BlockingTransmitEPhjm
 9331              	.LVL693:
 125:../../libDaisy//src/dev/oled_ssd130x.h ****     };
 9332              		.loc 4 125 30 view .LVU2498
 9333 02a8 3423     		movs	r3, #52
 9334              	.LBE2022:
 9335              	.LBE2020:
 9336              	.LBB2023:
 9337              	.LBB2024:
 124:../../libDaisy//src/dev/oled_ssd130x.h ****         spi_.BlockingTransmit(&cmd, 1);
 9338              		.loc 4 124 23 view .LVU2499
 9339 02aa 3946     		mov	r1, r7
 9340 02ac 3046     		mov	r0, r6
 9341 02ae 8DF80730 		strb	r3, [sp, #7]
 9342              	.LVL694:
 124:../../libDaisy//src/dev/oled_ssd130x.h ****         spi_.BlockingTransmit(&cmd, 1);
 9343              		.loc 4 124 23 view .LVU2500
 9344              	.LBE2024:
 9345              	.LBI2023:
 122:../../libDaisy//src/dev/oled_ssd130x.h ****     {
 9346              		.loc 4 122 10 is_stmt 1 view .LVU2501
 9347              	.LBB2025:
 124:../../libDaisy//src/dev/oled_ssd130x.h ****         spi_.BlockingTransmit(&cmd, 1);
 9348              		.loc 4 124 9 view .LVU2502
 124:../../libDaisy//src/dev/oled_ssd130x.h ****         spi_.BlockingTransmit(&cmd, 1);
 9349              		.loc 4 124 23 is_stmt 0 view .LVU2503
 9350 02b2 FFF7FEFF 		bl	dsy_gpio_write
 9351              	.LVL695:
 125:../../libDaisy//src/dev/oled_ssd130x.h ****     };
 9352              		.loc 4 125 9 is_stmt 1 view .LVU2504
 125:../../libDaisy//src/dev/oled_ssd130x.h ****     };
 9353              		.loc 4 125 30 is_stmt 0 view .LVU2505
 9354 02b6 2A46     		mov	r2, r5
 9355 02b8 0DF10701 		add	r1, sp, #7
 9356 02bc 6423     		movs	r3, #100
 9357 02be 2046     		mov	r0, r4
 9358 02c0 FFF7FEFF 		bl	_ZN5daisy9SpiHandle16BlockingTransmitEPhjm
 9359              	.LVL696:
 125:../../libDaisy//src/dev/oled_ssd130x.h ****     };
 9360              		.loc 4 125 30 view .LVU2506
ARM GAS  /var/folders/1y/_321xjh9623c014x9_qw12rr0000gn/T//cc4eHiNS.s 			page 245


 9361 02c4 AF23     		movs	r3, #175
 9362              	.LBE2025:
 9363              	.LBE2023:
 9364              	.LBB2026:
 9365              	.LBB2027:
 124:../../libDaisy//src/dev/oled_ssd130x.h ****         spi_.BlockingTransmit(&cmd, 1);
 9366              		.loc 4 124 23 view .LVU2507
 9367 02c6 3946     		mov	r1, r7
 9368 02c8 3046     		mov	r0, r6
 9369 02ca 8DF80730 		strb	r3, [sp, #7]
 9370              	.LVL697:
 124:../../libDaisy//src/dev/oled_ssd130x.h ****         spi_.BlockingTransmit(&cmd, 1);
 9371              		.loc 4 124 23 view .LVU2508
 9372              	.LBE2027:
 9373              	.LBI2026:
 122:../../libDaisy//src/dev/oled_ssd130x.h ****     {
 9374              		.loc 4 122 10 is_stmt 1 view .LVU2509
 9375              	.LBB2028:
 124:../../libDaisy//src/dev/oled_ssd130x.h ****         spi_.BlockingTransmit(&cmd, 1);
 9376              		.loc 4 124 9 view .LVU2510
 124:../../libDaisy//src/dev/oled_ssd130x.h ****         spi_.BlockingTransmit(&cmd, 1);
 9377              		.loc 4 124 23 is_stmt 0 view .LVU2511
 9378 02ce FFF7FEFF 		bl	dsy_gpio_write
 9379              	.LVL698:
 125:../../libDaisy//src/dev/oled_ssd130x.h ****     };
 9380              		.loc 4 125 9 is_stmt 1 view .LVU2512
 125:../../libDaisy//src/dev/oled_ssd130x.h ****     };
 9381              		.loc 4 125 30 is_stmt 0 view .LVU2513
 9382 02d2 6423     		movs	r3, #100
 9383 02d4 2A46     		mov	r2, r5
 9384 02d6 0DF10701 		add	r1, sp, #7
 9385 02da 2046     		mov	r0, r4
 9386 02dc FFF7FEFF 		bl	_ZN5daisy9SpiHandle16BlockingTransmitEPhjm
 9387              	.LVL699:
 125:../../libDaisy//src/dev/oled_ssd130x.h ****     };
 9388              		.loc 4 125 30 view .LVU2514
 9389              	.LBE2028:
 9390              	.LBE2026:
 347:../../libDaisy//src/dev/oled_ssd130x.h **** 
 9391              		.loc 4 347 5 view .LVU2515
 9392 02e0 02B0     		add	sp, sp, #8
 9393              		.cfi_def_cfa_offset 40
 9394              		@ sp needed
 9395 02e2 BDE8F041 		pop	{r4, r5, r6, r7, r8, lr}
 9396              		.cfi_restore 14
 9397              		.cfi_restore 8
 9398              		.cfi_restore 7
 9399              		.cfi_restore 6
 9400              		.cfi_restore 5
 9401              		.cfi_restore 4
 9402              		.cfi_def_cfa_offset 16
 9403              	.LVL700:
 347:../../libDaisy//src/dev/oled_ssd130x.h **** 
 9404              		.loc 4 347 5 view .LVU2516
 9405 02e6 04B0     		add	sp, sp, #16
 9406              		.cfi_def_cfa_offset 0
 9407 02e8 7047     		bx	lr
ARM GAS  /var/folders/1y/_321xjh9623c014x9_qw12rr0000gn/T//cc4eHiNS.s 			page 246


 9408              		.cfi_endproc
 9409              	.LFE2655:
 9411 02ea 00BF     		.section	.text._ZN5daisy5Dubby11InitDisplayEv,"ax",%progbits
 9412              		.align	1
 9413              		.p2align 2,,3
 9414              		.global	_ZN5daisy5Dubby11InitDisplayEv
 9415              		.syntax unified
 9416              		.thumb
 9417              		.thumb_func
 9419              	_ZN5daisy5Dubby11InitDisplayEv:
 9420              	.LVL701:
 9421              	.LFB2575:
 100:Dubby.cpp     **** {
 9422              		.loc 2 100 1 is_stmt 1 view -0
 9423              		.cfi_startproc
 9424              		@ args = 0, pretend = 0, frame = 88
 9425              		@ frame_needed = 0, uses_anonymous_args = 0
 102:Dubby.cpp     ****     OledDisplay<SSD130x4WireSpi128x64Driver>::Config disp_cfg;
 9426              		.loc 2 102 5 view .LVU2518
 100:Dubby.cpp     **** {
 9427              		.loc 2 100 1 is_stmt 0 view .LVU2519
 9428 0000 F0B5     		push	{r4, r5, r6, r7, lr}
 9429              		.cfi_def_cfa_offset 20
 9430              		.cfi_offset 4, -20
 9431              		.cfi_offset 5, -16
 9432              		.cfi_offset 6, -12
 9433              		.cfi_offset 7, -8
 9434              		.cfi_offset 14, -4
 9435              	.LBB2041:
 9436              	.LBB2042:
 9437              	.LBB2043:
 9438              	.LBB2044:
  71:../../libDaisy//src/dev/oled_ssd130x.h ****             // Initialize using defaults
 9439              		.loc 4 71 9 view .LVU2520
 9440 0002 40F60632 		movw	r2, #2822
 9441              	.LBE2044:
 9442              	.LBE2043:
 9443              	.LBE2042:
 9444              	.LBE2041:
 100:Dubby.cpp     **** {
 9445              		.loc 2 100 1 view .LVU2521
 9446 0006 9FB0     		sub	sp, sp, #124
 9447              		.cfi_def_cfa_offset 144
 9448              	.LVL702:
 9449              	.LBB2059:
 9450              	.LBI2041:
  20:../../libDaisy//src/hid/disp/oled_display.h ****     {
 9451              		.loc 1 20 12 is_stmt 1 view .LVU2522
 9452              	.LBB2055:
 9453              	.LBI2042:
 248:../../libDaisy//src/dev/oled_ssd130x.h ****     {
 9454              		.loc 4 248 12 view .LVU2523
 9455              	.LBB2051:
 9456              	.LBI2043:
  70:../../libDaisy//src/dev/oled_ssd130x.h ****         {
 9457              		.loc 4 70 9 view .LVU2524
 9458              	.LBB2047:
ARM GAS  /var/folders/1y/_321xjh9623c014x9_qw12rr0000gn/T//cc4eHiNS.s 			page 247


 9459              	.LBB2045:
 9460              	.LBI2045:
 9461              		.file 17 "../../libDaisy//src/per/spi.h"
   1:../../libDaisy//src/per/spi.h **** #pragma once
   2:../../libDaisy//src/per/spi.h **** #ifndef DSY_SPI_H
   3:../../libDaisy//src/per/spi.h **** #define DSY_SPI_H
   4:../../libDaisy//src/per/spi.h **** 
   5:../../libDaisy//src/per/spi.h **** #include "daisy_core.h"
   6:../../libDaisy//src/per/spi.h **** 
   7:../../libDaisy//src/per/spi.h **** /* TODO:
   8:../../libDaisy//src/per/spi.h **** - Add documentation
   9:../../libDaisy//src/per/spi.h **** - Add IT
  10:../../libDaisy//src/per/spi.h **** */
  11:../../libDaisy//src/per/spi.h **** 
  12:../../libDaisy//src/per/spi.h **** namespace daisy
  13:../../libDaisy//src/per/spi.h **** {
  14:../../libDaisy//src/per/spi.h **** /** @addtogroup serial
  15:../../libDaisy//src/per/spi.h **** @{
  16:../../libDaisy//src/per/spi.h **** */
  17:../../libDaisy//src/per/spi.h **** 
  18:../../libDaisy//src/per/spi.h **** /**  Handler for serial peripheral interface */
  19:../../libDaisy//src/per/spi.h **** class SpiHandle
  20:../../libDaisy//src/per/spi.h **** {
  21:../../libDaisy//src/per/spi.h ****   public:
  22:../../libDaisy//src/per/spi.h ****     struct Config
  23:../../libDaisy//src/per/spi.h ****     {
  24:../../libDaisy//src/per/spi.h ****         enum class Peripheral
  25:../../libDaisy//src/per/spi.h ****         {
  26:../../libDaisy//src/per/spi.h ****             SPI_1,
  27:../../libDaisy//src/per/spi.h ****             SPI_2,
  28:../../libDaisy//src/per/spi.h ****             SPI_3,
  29:../../libDaisy//src/per/spi.h ****             SPI_4,
  30:../../libDaisy//src/per/spi.h ****             SPI_5,
  31:../../libDaisy//src/per/spi.h ****             SPI_6,
  32:../../libDaisy//src/per/spi.h ****         };
  33:../../libDaisy//src/per/spi.h **** 
  34:../../libDaisy//src/per/spi.h ****         enum class Mode
  35:../../libDaisy//src/per/spi.h ****         {
  36:../../libDaisy//src/per/spi.h ****             MASTER,
  37:../../libDaisy//src/per/spi.h ****             SLAVE,
  38:../../libDaisy//src/per/spi.h ****         };
  39:../../libDaisy//src/per/spi.h **** 
  40:../../libDaisy//src/per/spi.h ****         enum class Direction
  41:../../libDaisy//src/per/spi.h ****         {
  42:../../libDaisy//src/per/spi.h ****             TWO_LINES,
  43:../../libDaisy//src/per/spi.h ****             TWO_LINES_TX_ONLY,
  44:../../libDaisy//src/per/spi.h ****             TWO_LINES_RX_ONLY,
  45:../../libDaisy//src/per/spi.h ****             ONE_LINE,
  46:../../libDaisy//src/per/spi.h ****         };
  47:../../libDaisy//src/per/spi.h **** 
  48:../../libDaisy//src/per/spi.h ****         enum class ClockPolarity
  49:../../libDaisy//src/per/spi.h ****         {
  50:../../libDaisy//src/per/spi.h ****             LOW,
  51:../../libDaisy//src/per/spi.h ****             HIGH,
  52:../../libDaisy//src/per/spi.h ****         };
  53:../../libDaisy//src/per/spi.h **** 
  54:../../libDaisy//src/per/spi.h ****         enum class ClockPhase
ARM GAS  /var/folders/1y/_321xjh9623c014x9_qw12rr0000gn/T//cc4eHiNS.s 			page 248


  55:../../libDaisy//src/per/spi.h ****         {
  56:../../libDaisy//src/per/spi.h ****             ONE_EDGE,
  57:../../libDaisy//src/per/spi.h ****             TWO_EDGE,
  58:../../libDaisy//src/per/spi.h ****         };
  59:../../libDaisy//src/per/spi.h **** 
  60:../../libDaisy//src/per/spi.h ****         enum class NSS
  61:../../libDaisy//src/per/spi.h ****         {
  62:../../libDaisy//src/per/spi.h ****             SOFT,
  63:../../libDaisy//src/per/spi.h ****             HARD_INPUT,
  64:../../libDaisy//src/per/spi.h ****             HARD_OUTPUT,
  65:../../libDaisy//src/per/spi.h ****         };
  66:../../libDaisy//src/per/spi.h **** 
  67:../../libDaisy//src/per/spi.h ****         enum class BaudPrescaler
  68:../../libDaisy//src/per/spi.h ****         {
  69:../../libDaisy//src/per/spi.h ****             PS_2,
  70:../../libDaisy//src/per/spi.h ****             PS_4,
  71:../../libDaisy//src/per/spi.h ****             PS_8,
  72:../../libDaisy//src/per/spi.h ****             PS_16,
  73:../../libDaisy//src/per/spi.h ****             PS_32,
  74:../../libDaisy//src/per/spi.h ****             PS_64,
  75:../../libDaisy//src/per/spi.h ****             PS_128,
  76:../../libDaisy//src/per/spi.h ****             PS_256,
  77:../../libDaisy//src/per/spi.h ****         };
  78:../../libDaisy//src/per/spi.h **** 
  79:../../libDaisy//src/per/spi.h ****         struct
  80:../../libDaisy//src/per/spi.h ****         {
  81:../../libDaisy//src/per/spi.h ****             dsy_gpio_pin sclk; /**< & */
  82:../../libDaisy//src/per/spi.h ****             dsy_gpio_pin miso; /**< & */
  83:../../libDaisy//src/per/spi.h ****             dsy_gpio_pin mosi; /**< & */
  84:../../libDaisy//src/per/spi.h ****             dsy_gpio_pin nss;  /**< & */
  85:../../libDaisy//src/per/spi.h ****         } pin_config;
  86:../../libDaisy//src/per/spi.h **** 
  87:../../libDaisy//src/per/spi.h ****         Config()
 9462              		.loc 17 87 9 view .LVU2525
 9463              	.LBE2045:
 9464              	.LBE2047:
 9465              	.LBE2051:
 9466              	.LBE2055:
 9467              	.LBE2059:
  88:../../libDaisy//src/per/spi.h ****         {
  89:../../libDaisy//src/per/spi.h ****             // user must specify periph, mode, direction, nss, and pin_config
  90:../../libDaisy//src/per/spi.h ****             datasize       = 8;
 9468              		.loc 17 90 13 view .LVU2526
  91:../../libDaisy//src/per/spi.h ****             clock_polarity = ClockPolarity::LOW;
 9469              		.loc 17 91 13 view .LVU2527
  92:../../libDaisy//src/per/spi.h ****             clock_phase    = ClockPhase::ONE_EDGE;
 9470              		.loc 17 92 13 view .LVU2528
  93:../../libDaisy//src/per/spi.h ****             baud_prescaler = BaudPrescaler::PS_8;
 9471              		.loc 17 93 13 view .LVU2529
  73:../../libDaisy//src/dev/oled_ssd130x.h ****         }
 9472              		.loc 4 73 13 view .LVU2530
 9473              	.LBB2060:
 9474              	.LBB2056:
 9475              	.LBB2052:
 9476              	.LBB2048:
 9477              	.LBB2046:
 9478              	.LBI2046:
ARM GAS  /var/folders/1y/_321xjh9623c014x9_qw12rr0000gn/T//cc4eHiNS.s 			page 249


  81:../../libDaisy//src/dev/oled_ssd130x.h ****         {
 9479              		.loc 4 81 14 view .LVU2531
 9480              	.LBE2046:
 9481              	.LBE2048:
 9482              	.LBE2052:
 9483              	.LBE2056:
 9484              	.LBE2060:
  84:../../libDaisy//src/dev/oled_ssd130x.h ****             spi_config.mode   = SpiHandle::Config::Mode::MASTER;
 9485              		.loc 4 84 13 view .LVU2532
  85:../../libDaisy//src/dev/oled_ssd130x.h ****             spi_config.direction
 9486              		.loc 4 85 13 view .LVU2533
  86:../../libDaisy//src/dev/oled_ssd130x.h ****                 = SpiHandle::Config::Direction::TWO_LINES_TX_ONLY;
 9487              		.loc 4 86 13 view .LVU2534
  88:../../libDaisy//src/dev/oled_ssd130x.h ****             spi_config.clock_polarity = SpiHandle::Config::ClockPolarity::LOW;
 9488              		.loc 4 88 13 view .LVU2535
  89:../../libDaisy//src/dev/oled_ssd130x.h ****             spi_config.clock_phase    = SpiHandle::Config::ClockPhase::ONE_EDGE;
 9489              		.loc 4 89 13 view .LVU2536
  90:../../libDaisy//src/dev/oled_ssd130x.h ****             spi_config.nss            = SpiHandle::Config::NSS::HARD_OUTPUT;
 9490              		.loc 4 90 13 view .LVU2537
  91:../../libDaisy//src/dev/oled_ssd130x.h ****             spi_config.baud_prescaler = SpiHandle::Config::BaudPrescaler::PS_8;
 9491              		.loc 4 91 13 view .LVU2538
  92:../../libDaisy//src/dev/oled_ssd130x.h ****             // SPI pin config
 9492              		.loc 4 92 13 view .LVU2539
  94:../../libDaisy//src/dev/oled_ssd130x.h ****             spi_config.pin_config.miso = {DSY_GPIOX, 0};
 9493              		.loc 4 94 13 view .LVU2540
  95:../../libDaisy//src/dev/oled_ssd130x.h ****             spi_config.pin_config.mosi = {DSY_GPIOB, 5};
 9494              		.loc 4 95 13 view .LVU2541
  96:../../libDaisy//src/dev/oled_ssd130x.h ****             spi_config.pin_config.nss  = {DSY_GPIOG, 10};
 9495              		.loc 4 96 13 view .LVU2542
  97:../../libDaisy//src/dev/oled_ssd130x.h ****             // SSD130x control pin config
 9496              		.loc 4 97 13 view .LVU2543
 9497              	.LBB2061:
 9498              	.LBB2057:
 9499              	.LBB2053:
 9500              	.LBB2049:
  71:../../libDaisy//src/dev/oled_ssd130x.h ****             // Initialize using defaults
 9501              		.loc 4 71 9 is_stmt 0 view .LVU2544
 9502 0008 1F4B     		ldr	r3, .L591
 9503              	.LBE2049:
 9504              	.LBE2053:
 9505              	.LBE2057:
 9506              	.LBE2061:
 100:Dubby.cpp     **** {
 9507              		.loc 2 100 1 view .LVU2545
 9508 000a 0646     		mov	r6, r0
 103:Dubby.cpp     ****     disp_cfg.driver_config.transport_config.pin_config.dc    = seed.GetPin(9);
 9509              		.loc 2 103 77 view .LVU2546
 9510 000c 0920     		movs	r0, #9
 9511              	.LVL703:
 9512              	.LBB2062:
 9513              	.LBB2063:
  25:../../libDaisy//src/hid/disp/oled_display.h **** 
 9514              		.loc 1 25 44 view .LVU2547
 9515 000e 16AD     		add	r5, sp, #88
 9516 0010 6C46     		mov	r4, sp
 9517              	.LBE2063:
 9518              	.LBE2062:
ARM GAS  /var/folders/1y/_321xjh9623c014x9_qw12rr0000gn/T//cc4eHiNS.s 			page 250


 9519              	.LBB2066:
 9520              	.LBB2058:
 9521              	.LBB2054:
 9522              	.LBB2050:
  71:../../libDaisy//src/dev/oled_ssd130x.h ****             // Initialize using defaults
 9523              		.loc 4 71 9 view .LVU2548
 9524 0012 CDE90823 		strd	r2, r3, [sp, #32]
 9525              	.LBE2050:
 9526              	.LBE2054:
 9527              	.LBE2058:
 9528              	.LBE2066:
  99:../../libDaisy//src/dev/oled_ssd130x.h ****             pin_config.reset = {DSY_GPIOB, 15};
 9529              		.loc 4 99 13 is_stmt 1 view .LVU2549
 100:../../libDaisy//src/dev/oled_ssd130x.h ****         }
 9530              		.loc 4 100 13 view .LVU2550
 9531              	.LVL704:
 103:Dubby.cpp     ****     disp_cfg.driver_config.transport_config.pin_config.dc    = seed.GetPin(9);
 9532              		.loc 2 103 5 view .LVU2551
 103:Dubby.cpp     ****     disp_cfg.driver_config.transport_config.pin_config.dc    = seed.GetPin(9);
 9533              		.loc 2 103 77 is_stmt 0 view .LVU2552
 9534 0016 FFF7FEFF 		bl	_ZN5daisy9DaisySeed6GetPinEh
 9535              	.LVL705:
 9536 001a 0346     		mov	r3, r0	@ movhi
 104:Dubby.cpp     ****     disp_cfg.driver_config.transport_config.pin_config.reset = seed.GetPin(31);
 9537              		.loc 2 104 78 view .LVU2553
 9538 001c 1F20     		movs	r0, #31
 103:Dubby.cpp     ****     disp_cfg.driver_config.transport_config.pin_config.dc    = seed.GetPin(9);
 9539              		.loc 2 103 77 view .LVU2554
 9540 001e ADF84830 		strh	r3, [sp, #72]	@ movhi
 104:Dubby.cpp     ****     disp_cfg.driver_config.transport_config.pin_config.reset = seed.GetPin(31);
 9541              		.loc 2 104 5 is_stmt 1 view .LVU2555
 104:Dubby.cpp     ****     disp_cfg.driver_config.transport_config.pin_config.reset = seed.GetPin(31);
 9542              		.loc 2 104 78 is_stmt 0 view .LVU2556
 9543 0022 FFF7FEFF 		bl	_ZN5daisy9DaisySeed6GetPinEh
 9544              	.LVL706:
 9545 0026 0222     		movs	r2, #2
 9546 0028 0B21     		movs	r1, #11
 9547 002a 0023     		movs	r3, #0
 9548 002c 0DF1200E 		add	lr, sp, #32
 9549 0030 ADF82210 		strh	r1, [sp, #34]	@ movhi
 9550 0034 0121     		movs	r1, #1
 9551 0036 ADF84A00 		strh	r0, [sp, #74]	@ movhi
 106:Dubby.cpp     ****     display.Init(disp_cfg);
 9552              		.loc 2 106 5 is_stmt 1 view .LVU2557
 9553              	.LVL707:
 106:Dubby.cpp     ****     display.Init(disp_cfg);
 9554              		.loc 2 106 5 is_stmt 0 view .LVU2558
 9555 003a 0DF14C0C 		add	ip, sp, #76
 9556 003e 0A93     		str	r3, [sp, #40]
 9557              	.LBB2067:
 9558              	.LBB2064:
  25:../../libDaisy//src/hid/disp/oled_display.h **** 
 9559              		.loc 1 25 44 view .LVU2559
 9560 0040 6746     		mov	r7, ip
 9561 0042 CDE91022 		strd	r2, r2, [sp, #64]
 9562 0046 0822     		movs	r2, #8
 9563 0048 CDE90E33 		strd	r3, r3, [sp, #56]
ARM GAS  /var/folders/1y/_321xjh9623c014x9_qw12rr0000gn/T//cc4eHiNS.s 			page 251


 9564 004c CDE90B31 		strd	r3, r1, [sp, #44]
 9565 0050 0D92     		str	r2, [sp, #52]
 9566 0052 BEE80F00 		ldmia	lr!, {r0, r1, r2, r3}
 9567 0056 ACE80F00 		stmia	ip!, {r0, r1, r2, r3}
 9568 005a BEE80F00 		ldmia	lr!, {r0, r1, r2, r3}
 9569 005e ACE80F00 		stmia	ip!, {r0, r1, r2, r3}
 9570 0062 9EE80700 		ldm	lr, {r0, r1, r2}
 9571 0066 8CE80700 		stm	ip, {r0, r1, r2}
 9572              	.LBE2064:
 9573              	.LBI2062:
  25:../../libDaisy//src/hid/disp/oled_display.h **** 
 9574              		.loc 1 25 10 is_stmt 1 view .LVU2560
 9575              	.LBB2065:
  25:../../libDaisy//src/hid/disp/oled_display.h **** 
 9576              		.loc 1 25 44 is_stmt 0 view .LVU2561
 9577 006a 0FCD     		ldmia	r5!, {r0, r1, r2, r3}
 9578 006c 0FC4     		stmia	r4!, {r0, r1, r2, r3}
 9579 006e 95E80F00 		ldm	r5, {r0, r1, r2, r3}
 9580 0072 84E80F00 		stm	r4, {r0, r1, r2, r3}
 9581 0076 06F58B60 		add	r0, r6, #1112
 9582 007a 97E80E00 		ldm	r7, {r1, r2, r3}
 9583 007e FFF7FEFF 		bl	_ZN5daisy13SSD130xDriverILj128ELj64ENS_24SSD130x4WireSpiTransportEE4InitENS2_6ConfigE
 9584              	.LVL708:
  25:../../libDaisy//src/hid/disp/oled_display.h **** 
 9585              		.loc 1 25 44 view .LVU2562
 9586              	.LBE2065:
 9587              	.LBE2067:
 107:Dubby.cpp     **** }
 9588              		.loc 2 107 1 view .LVU2563
 9589 0082 1FB0     		add	sp, sp, #124
 9590              		.cfi_def_cfa_offset 20
 9591              		@ sp needed
 9592 0084 F0BD     		pop	{r4, r5, r6, r7, pc}
 9593              	.LVL709:
 9594              	.L592:
 107:Dubby.cpp     **** }
 9595              		.loc 2 107 1 view .LVU2564
 9596 0086 00BF     		.align	2
 9597              	.L591:
 9598 0088 0105060A 		.word	168166657
 9599              		.cfi_endproc
 9600              	.LFE2575:
 9602              		.section	.text._ZN5daisy5Dubby4InitEv,"ax",%progbits
 9603              		.align	1
 9604              		.p2align 2,,3
 9605              		.global	_ZN5daisy5Dubby4InitEv
 9606              		.syntax unified
 9607              		.thumb
 9608              		.thumb_func
 9610              	_ZN5daisy5Dubby4InitEv:
 9611              	.LVL710:
 9612              	.LFB2568:
  39:Dubby.cpp     **** {
 9613              		.loc 2 39 1 is_stmt 1 view -0
 9614              		.cfi_startproc
 9615              		@ args = 0, pretend = 0, frame = 16
 9616              		@ frame_needed = 0, uses_anonymous_args = 0
ARM GAS  /var/folders/1y/_321xjh9623c014x9_qw12rr0000gn/T//cc4eHiNS.s 			page 252


  40:Dubby.cpp     ****     InitControls();
 9617              		.loc 2 40 5 view .LVU2566
  39:Dubby.cpp     **** {
 9618              		.loc 2 39 1 is_stmt 0 view .LVU2567
 9619 0000 30B5     		push	{r4, r5, lr}
 9620              		.cfi_def_cfa_offset 12
 9621              		.cfi_offset 4, -12
 9622              		.cfi_offset 5, -8
 9623              		.cfi_offset 14, -4
 9624 0002 0546     		mov	r5, r0
 9625 0004 85B0     		sub	sp, sp, #20
 9626              		.cfi_def_cfa_offset 32
  40:Dubby.cpp     ****     InitControls();
 9627              		.loc 2 40 17 view .LVU2568
 9628 0006 FFF7FEFF 		bl	_ZN5daisy5Dubby12InitControlsEv
 9629              	.LVL711:
  41:Dubby.cpp     ****     InitButtons();
 9630              		.loc 2 41 5 is_stmt 1 view .LVU2569
  41:Dubby.cpp     ****     InitButtons();
 9631              		.loc 2 41 16 is_stmt 0 view .LVU2570
 9632 000a 2846     		mov	r0, r5
  43:Dubby.cpp     ****     screen_update_period_ = 17; // roughly 60Hz
 9633              		.loc 2 43 27 view .LVU2571
 9634 000c 05F51044 		add	r4, r5, #36864
  41:Dubby.cpp     ****     InitButtons();
 9635              		.loc 2 41 16 view .LVU2572
 9636 0010 FFF7FEFF 		bl	_ZN5daisy5Dubby11InitButtonsEv
 9637              	.LVL712:
  43:Dubby.cpp     ****     screen_update_period_ = 17; // roughly 60Hz
 9638              		.loc 2 43 5 is_stmt 1 view .LVU2573
  43:Dubby.cpp     ****     screen_update_period_ = 17; // roughly 60Hz
 9639              		.loc 2 43 27 is_stmt 0 view .LVU2574
 9640 0014 1123     		movs	r3, #17
 9641 0016 C4F82C39 		str	r3, [r4, #2348]
  44:Dubby.cpp     ****     screen_update_last_   = seed.system.GetNow();
 9642              		.loc 2 44 5 is_stmt 1 view .LVU2575
  44:Dubby.cpp     ****     screen_update_last_   = seed.system.GetNow();
 9643              		.loc 2 44 47 is_stmt 0 view .LVU2576
 9644 001a FFF7FEFF 		bl	_ZN5daisy6System6GetNowEv
 9645              	.LVL713:
 9646 001e 2B46     		mov	r3, r5
  44:Dubby.cpp     ****     screen_update_last_   = seed.system.GetNow();
 9647              		.loc 2 44 27 view .LVU2577
 9648 0020 0122     		movs	r2, #1
 9649 0022 C4F82809 		str	r0, [r4, #2344]
  46:Dubby.cpp     ****     for (int i = 0; i < 5; i++) 
 9650              		.loc 2 46 5 is_stmt 1 view .LVU2578
 9651              	.LVL714:
 9652              	.LBB2071:
  46:Dubby.cpp     ****     for (int i = 0; i < 5; i++) 
 9653              		.loc 2 46 23 view .LVU2579
 9654              	.L594:
  48:Dubby.cpp     ****         submenuBoxBounding[i][0] = SUBMENU_X_START;
 9655              		.loc 2 48 9 discriminator 2 view .LVU2580
  49:Dubby.cpp     ****         submenuBoxBounding[i][1] = SUBMENU_Y_START + i * 10;
 9656              		.loc 2 49 34 is_stmt 0 discriminator 2 view .LVU2581
 9657 0026 C3F8A820 		str	r2, [r3, #168]
ARM GAS  /var/folders/1y/_321xjh9623c014x9_qw12rr0000gn/T//cc4eHiNS.s 			page 253


  48:Dubby.cpp     ****         submenuBoxBounding[i][0] = SUBMENU_X_START;
 9658              		.loc 2 48 34 discriminator 2 view .LVU2582
 9659 002a 0124     		movs	r4, #1
 9660 002c 0A32     		adds	r2, r2, #10
  50:Dubby.cpp     ****         submenuBoxBounding[i][2] = SUBMENU_X_END;
 9661              		.loc 2 50 34 discriminator 2 view .LVU2583
 9662 002e 3F21     		movs	r1, #63
  48:Dubby.cpp     ****         submenuBoxBounding[i][0] = SUBMENU_X_START;
 9663              		.loc 2 48 34 discriminator 2 view .LVU2584
 9664 0030 C3F8A440 		str	r4, [r3, #164]
  49:Dubby.cpp     ****         submenuBoxBounding[i][1] = SUBMENU_Y_START + i * 10;
 9665              		.loc 2 49 9 is_stmt 1 discriminator 2 view .LVU2585
  50:Dubby.cpp     ****         submenuBoxBounding[i][2] = SUBMENU_X_END;
 9666              		.loc 2 50 9 discriminator 2 view .LVU2586
  46:Dubby.cpp     ****     for (int i = 0; i < 5; i++) 
 9667              		.loc 2 46 23 is_stmt 0 discriminator 2 view .LVU2587
 9668 0034 1033     		adds	r3, r3, #16
 9669 0036 332A     		cmp	r2, #51
  51:Dubby.cpp     ****         submenuBoxBounding[i][3] = SUBMENU_Y_END + i * 10;
 9670              		.loc 2 51 34 discriminator 2 view .LVU2588
 9671 0038 C3E92712 		strd	r1, r2, [r3, #156]
  46:Dubby.cpp     ****     for (int i = 0; i < 5; i++) 
 9672              		.loc 2 46 5 is_stmt 1 discriminator 2 view .LVU2589
  46:Dubby.cpp     ****     for (int i = 0; i < 5; i++) 
 9673              		.loc 2 46 23 discriminator 2 view .LVU2590
 9674 003c F3D1     		bne	.L594
 9675              	.LBE2071:
  54:Dubby.cpp     ****     InitDisplay();
 9676              		.loc 2 54 5 view .LVU2591
  54:Dubby.cpp     ****     InitDisplay();
 9677              		.loc 2 54 16 is_stmt 0 view .LVU2592
 9678 003e 2846     		mov	r0, r5
 9679 0040 FFF7FEFF 		bl	_ZN5daisy5Dubby11InitDisplayEv
 9680              	.LVL715:
  55:Dubby.cpp     ****     InitEncoder();
 9681              		.loc 2 55 5 is_stmt 1 view .LVU2593
 9682              	.LBB2072:
 9683              	.LBI2072:
 328:Dubby.cpp     **** void Dubby::InitEncoder()
 9684              		.loc 2 328 6 view .LVU2594
 9685              	.LBB2073:
 330:Dubby.cpp     ****     encoder.Init(seed.GetPin(PIN_ENC_A),
 9686              		.loc 2 330 5 view .LVU2595
 330:Dubby.cpp     ****     encoder.Init(seed.GetPin(PIN_ENC_A),
 9687              		.loc 2 330 17 is_stmt 0 view .LVU2596
 9688 0044 0620     		movs	r0, #6
 9689 0046 FFF7FEFF 		bl	_ZN5daisy9DaisySeed6GetPinEh
 9690              	.LVL716:
 9691 004a 0346     		mov	r3, r0	@ movhi
 9692 004c 0520     		movs	r0, #5
 9693 004e ADF80430 		strh	r3, [sp, #4]	@ movhi
 9694 0052 FFF7FEFF 		bl	_ZN5daisy9DaisySeed6GetPinEh
 9695              	.LVL717:
 9696 0056 0346     		mov	r3, r0	@ movhi
 9697 0058 0420     		movs	r0, #4
 9698 005a ADF80830 		strh	r3, [sp, #8]	@ movhi
 9699 005e FFF7FEFF 		bl	_ZN5daisy9DaisySeed6GetPinEh
ARM GAS  /var/folders/1y/_321xjh9623c014x9_qw12rr0000gn/T//cc4eHiNS.s 			page 254


 9700              	.LVL718:
 9701 0062 ADF80C00 		strh	r0, [sp, #12]	@ movhi
 9702 0066 05F1F400 		add	r0, r5, #244
 9703 006a 9FED080A 		vldr.32	s0, .L597
 9704 006e 039B     		ldr	r3, [sp, #12]
 9705 0070 DDE90112 		ldrd	r1, r2, [sp, #4]
 9706 0074 FFF7FEFF 		bl	_ZN5daisy7Encoder4InitE12dsy_gpio_pinS1_S1_f
 9707              	.LVL719:
 330:Dubby.cpp     ****     encoder.Init(seed.GetPin(PIN_ENC_A),
 9708              		.loc 2 330 17 view .LVU2597
 9709              	.LBE2073:
 9710              	.LBE2072:
  56:Dubby.cpp     ****     InitAudio();
 9711              		.loc 2 56 5 is_stmt 1 view .LVU2598
  56:Dubby.cpp     ****     InitAudio();
 9712              		.loc 2 56 14 is_stmt 0 view .LVU2599
 9713 0078 2846     		mov	r0, r5
 9714 007a FFF7FEFF 		bl	_ZN5daisy5Dubby9InitAudioEv
 9715              	.LVL720:
  57:Dubby.cpp     ****     InitMidi();
 9716              		.loc 2 57 5 is_stmt 1 view .LVU2600
  57:Dubby.cpp     ****     InitMidi();
 9717              		.loc 2 57 13 is_stmt 0 view .LVU2601
 9718 007e 2846     		mov	r0, r5
  58:Dubby.cpp     **** }
 9719              		.loc 2 58 1 view .LVU2602
 9720 0080 05B0     		add	sp, sp, #20
 9721              		.cfi_def_cfa_offset 12
 9722              		@ sp needed
 9723 0082 BDE83040 		pop	{r4, r5, lr}
 9724              		.cfi_restore 14
 9725              		.cfi_restore 5
 9726              		.cfi_restore 4
 9727              		.cfi_def_cfa_offset 0
 9728              	.LVL721:
  57:Dubby.cpp     ****     InitMidi();
 9729              		.loc 2 57 13 view .LVU2603
 9730 0086 FFF7FEBF 		b	_ZN5daisy5Dubby8InitMidiEv
 9731              	.LVL722:
 9732              	.L598:
  57:Dubby.cpp     ****     InitMidi();
 9733              		.loc 2 57 13 view .LVU2604
 9734 008a 00BF     		.align	2
 9735              	.L597:
 9736 008c 00000000 		.word	0
 9737              		.cfi_endproc
 9738              	.LFE2568:
 9740              		.section	.rodata
 9741              		.align	2
 9742              		.set	.LANCHOR1,. + 0
 9743              	.LC7:
 9744 0000 04       		.byte	4
 9745 0001 06       		.byte	6
 9746 0002 0000     		.space	2
 9747              	.LC8:
 9748 0004 04       		.byte	4
 9749 0005 03       		.byte	3
ARM GAS  /var/folders/1y/_321xjh9623c014x9_qw12rr0000gn/T//cc4eHiNS.s 			page 255


 9750 0006 0000     		.space	2
 9751              	.LC9:
 9752 0008 04       		.byte	4
 9753 0009 04       		.byte	4
 9754 000a 0000     		.space	2
 9755              	.LC10:
 9756 000c 04       		.byte	4
 9757 000d 02       		.byte	2
 9758 000e 0000     		.space	2
 9759              	.LC11:
 9760 0010 04       		.byte	4
 9761 0011 05       		.byte	5
 9762 0012 0000     		.space	2
 9763              	.LC12:
 9764 0014 01       		.byte	1
 9765 0015 08       		.byte	8
 9766 0016 0000     		.space	2
 9767              	.LC13:
 9768 0018 01       		.byte	1
 9769 0019 09       		.byte	9
 9770 001a 0000     		.space	2
 9771              	.LC14:
 9772 001c 06       		.byte	6
 9773 001d 09       		.byte	9
 9774 001e 0000     		.space	2
 9775              	.LC15:
 9776 0020 03       		.byte	3
 9777 0021 0B       		.byte	11
 9778              		.section	.rodata._ZL7bitmaps,"a"
 9779              		.align	2
 9780              		.set	.LANCHOR0,. + 0
 9783              	_ZL7bitmaps:
 9784 0000 00000000 		.ascii	"\000\000\000\000\000\000\000\000\000\000\000\000\000"
 9784      00000000 
 9784      00000000 
 9784      00
 9785 000d 00000000 		.ascii	"\000\000\000\000\000\000\000\000\000\000\004\000\000"
 9785      00000000 
 9785      00000400 
 9785      00
 9786 001a 00000000 		.ascii	"\000\000\000\000\000\000\000\000\000\000\000\000\000"
 9786      00000000 
 9786      00000000 
 9786      00
 9787 0027 FE000000 		.ascii	"\376\000\000\000\000\000\000\000\000\000\000\000\000"
 9787      00000000 
 9787      00000000 
 9787      00
 9788 0034 000007FF 		.ascii	"\000\000\007\377\000\000\000\000\000\000\000\000\000"
 9788      00000000 
 9788      00000000 
 9788      00
 9789 0041 00000000 		.ascii	"\000\000\000\000\000\037\377\200\000\000\000\000\000"
 9789      001FFF80 
 9789      00000000 
 9789      00
 9790 004e 00000000 		.ascii	"\000\000\000\000\000\000\000\000?\377\300\000\000\000"
ARM GAS  /var/folders/1y/_321xjh9623c014x9_qw12rr0000gn/T//cc4eHiNS.s 			page 256


 9790      00000000 
 9790      3FFFC000 
 9790      0000
 9791 005c 00000000 		.ascii	"\000\000\000\000\000\000\000\000\000\000?\377\340\000"
 9791      00000000 
 9791      00003FFF 
 9791      E000
 9792 006a 00000000 		.ascii	"\000\000\000\000\000\000\000\000\000\000\000\000?\377"
 9792      00000000 
 9792      00000000 
 9792      3FFF
 9793 0078 F0000000 		.ascii	"\360\000\000\000\000\000\000\000\000\000\000\000\000"
 9793      00000000 
 9793      00000000 
 9793      00
 9794 0085 003FFFF8 		.ascii	"\000?\377\370\000\000\000\000\000\000\000\000\000\000"
 9794      00000000 
 9794      00000000 
 9794      0000
 9795 0093 0000007F 		.ascii	"\000\000\000\177\377\370\000\000\000\000\000\000\000"
 9795      FFF80000 
 9795      00000000 
 9795      00
 9796 00a0 00000000 		.ascii	"\000\000\000\000\000\000\177\377\370\000\000\000\000"
 9796      00007FFF 
 9796      F8000000 
 9796      00
 9797 00ad 00000000 		.ascii	"\000\000\000\000\000\000\000\000\000\177\377\370\000"
 9797      00000000 
 9797      007FFFF8 
 9797      00
 9798 00ba 00000000 		.ascii	"\000\000\000\000\000\000\000\000\000\000\000\000\177"
 9798      00000000 
 9798      00000000 
 9798      7F
 9799 00c7 FFF80000 		.ascii	"\377\370\000\000\000\000\000\000\000\000\000\000\000"
 9799      00000000 
 9799      00000000 
 9799      00
 9800 00d4 0000FFFF 		.ascii	"\000\000\377\377\360\000\000\000\000\000\000\000\000"
 9800      F0000000 
 9800      00000000 
 9800      00
 9801 00e1 00000000 		.ascii	"\000\000\000\000\000\377\377\360\000\000\000\000\000"
 9801      00FFFFF0 
 9801      00000000 
 9801      00
 9802 00ee 00000000 		.ascii	"\000\000\000\000\000\000\000\000\177\377\360\000\000"
 9802      00000000 
 9802      7FFFF000 
 9802      00
 9803 00fb 00000000 		.ascii	"\000\000\000\000\000\000\000\000\000\000\006?\377\360"
 9803      00000000 
 9803      0000063F 
 9803      FFF0
 9804 0109 00000000 		.ascii	"\000\000\000\000\000\000\000\000\000\000\000\000??\377"
 9804      00000000 
ARM GAS  /var/folders/1y/_321xjh9623c014x9_qw12rr0000gn/T//cc4eHiNS.s 			page 257


 9804      00000000 
 9804      3F3FFF
 9805 0118 E0000000 		.ascii	"\340\000\000\000\000\000\000\000\000\000\000\000\007"
 9805      00000000 
 9805      00000000 
 9805      07
 9806 0125 FFCFFFE0 		.ascii	"\377\317\377\340\000\000\000\000\000\000\000\000\000"
 9806      00000000 
 9806      00000000 
 9806      00
 9807 0132 00000FFF 		.ascii	"\000\000\017\377\307\377\340\000\000\000\000\000\000"
 9807      C7FFE000 
 9807      00000000 
 9807      00
 9808 013f 00000000 		.ascii	"\000\000\000\000\000\037\377\343\376\000\000\000\000"
 9808      001FFFE3 
 9808      FE000000 
 9808      00
 9809 014c 00000000 		.ascii	"\000\000\000\000\000\000\000\000\037\377\361\360\000"
 9809      00000000 
 9809      1FFFF1F0 
 9809      00
 9810 0159 00000000 		.ascii	"\000\000\000\000\000\000\000\000\000\000\000\037\377"
 9810      00000000 
 9810      0000001F 
 9810      FF
 9811 0166 F8000000 		.ascii	"\370\000\000\000\000\000\000\000\000\000\000\000\000"
 9811      00000000 
 9811      00000000 
 9811      00
 9812 0173 001FFFFC 		.ascii	"\000\037\377\374\000\000\000\000\000\000\000\000\000"
 9812      00000000 
 9812      00000000 
 9812      00
 9813 0180 00000000 		.ascii	"\000\000\000\000?\377\376\000\000\000\000\000\000\000"
 9813      3FFFFE00 
 9813      00000000 
 9813      0000
 9814 018e 00000000 		.ascii	"\000\000\000\000\000\000?\377\376\000\000\000\000\000"
 9814      00003FFF 
 9814      FE000000 
 9814      0000
 9815 019c 00000000 		.ascii	"\000\000\000\000\000\000\000\000?\377\374\000\000\000"
 9815      00000000 
 9815      3FFFFC00 
 9815      0000
 9816 01aa 00000000 		.ascii	"\000\000\000\000\000\000\000\000\000\000?\377\374\000"
 9816      00000000 
 9816      00003FFF 
 9816      FC00
 9817 01b8 00000700 		.ascii	"\000\000\007\000\000\000\000\000\000\000\000\000?\377"
 9817      00000000 
 9817      00000000 
 9817      3FFF
 9818 01c6 FC000000 		.ascii	"\374\000\000\000\177\200\000\000\000\000\000\000\000"
 9818      7F800000 
 9818      00000000 
ARM GAS  /var/folders/1y/_321xjh9623c014x9_qw12rr0000gn/T//cc4eHiNS.s 			page 258


 9818      00
 9819 01d3 003FFFF8 		.ascii	"\000?\377\370\000\000\007\377\340\000\000\000\000\000"
 9819      000007FF 
 9819      E0000000 
 9819      0000
 9820 01e1 0000003F 		.ascii	"\000\000\000?\377\370\000\000\017\377\360\000\000\000"
 9820      FFF80000 
 9820      0FFFF000 
 9820      0000
 9821 01ef 00000000 		.ascii	"\000\000\000\000\000\037\377\370\000\000\017\377\370"
 9821      001FFFF8 
 9821      00000FFF 
 9821      F8
 9822 01fc 00000000 		.ascii	"\000\000\000\000\000\000\000\000\017\377\370\000\000"
 9822      00000000 
 9822      0FFFF800 
 9822      00
 9823 0209 0FFFFC00 		.ascii	"\017\377\374\000\000\000\000\000\000\000\000\007\377"
 9823      00000000 
 9823      00000007 
 9823      FF
 9824 0216 F000000F 		.ascii	"\360\000\000\017\377\374\000\000\000\000\000\000\000"
 9824      FFFC0000 
 9824      00000000 
 9824      00
 9825 0223 0003FFF0 		.ascii	"\000\003\377\360\000\000\037\377\376\000\000\000\000"
 9825      00001FFF 
 9825      FE000000 
 9825      00
 9826 0230 00000000 		.ascii	"\000\000\000\000\001\377\000\000\000\037\377\376\000"
 9826      01FF0000 
 9826      001FFFFE 
 9826      00
 9827 023d 00000000 		.ascii	"\000\000\000\000\000\000\000\000\370\030\000\000\037"
 9827      00000000 
 9827      F8180000 
 9827      1F
 9828 024a FFFE0000 		.ascii	"\377\376\000\000\000\000\000\000\000\000\000\000\374"
 9828      00000000 
 9828      00000000 
 9828      FC
 9829 0257 00003FFF 		.ascii	"\000\000?\377\376\000\000\000\000\000\000\000\000\000"
 9829      FE000000 
 9829      00000000 
 9829      0000
 9830 0265 07FE0000 		.ascii	"\007\376\000\000?\377\374\000\000\000\000\000\000\000"
 9830      3FFFFC00 
 9830      00000000 
 9830      0000
 9831 0273 00003FFF 		.ascii	"\000\000?\377\000\000?\377\374\000\000\000\000\000\000"
 9831      00003FFF 
 9831      FC000000 
 9831      000000
 9832 0282 0000007F 		.ascii	"\000\000\000\177\377\200\000?\377\374\000\000\000\000"
 9832      FF80003F 
 9832      FFFC0000 
 9832      0000
ARM GAS  /var/folders/1y/_321xjh9623c014x9_qw12rr0000gn/T//cc4eHiNS.s 			page 259


 9833 0290 00000000 		.ascii	"\000\000\000\000\000\177\377\300\000\037\377\374\000"
 9833      007FFFC0 
 9833      001FFFFC 
 9833      00
 9834 029d 00000000 		.ascii	"\000\000\000\000\000\000\000\000\177\377\340\007\317"
 9834      00000000 
 9834      7FFFE007 
 9834      CF
 9835 02aa FFFC0000 		.ascii	"\377\374\000\000\000\000\000\000\000\000\000\377\377"
 9835      00000000 
 9835      000000FF 
 9835      FF
 9836 02b7 F03FE7FF 		.ascii	"\360?\347\377\370\000\000\000\000\000\000\000\000\000"
 9836      F8000000 
 9836      00000000 
 9836      0000
 9837 02c5 FFFFF3FF 		.ascii	"\377\377\363\377\363\377\370\000\000\000\000\000\000"
 9837      F3FFF800 
 9837      00000000 
 9837      00
 9838 02d2 000000FF 		.ascii	"\000\000\000\377\377\367\377\371\377\360\000\000\000"
 9838      FFF7FFF9 
 9838      FFF00000 
 9838      00
 9839 02df 00000000 		.ascii	"\000\000\000\000\000\000\377\377\367\377\374\376\000"
 9839      0000FFFF 
 9839      F7FFFCFE 
 9839      00
 9840 02ec 00000000 		.ascii	"\000\000\000\000\000\000\000\000\001\377\377\367\377"
 9840      00000000 
 9840      01FFFFF7 
 9840      FF
 9841 02f9 FE700000 		.ascii	"\376p\000\000\000\000\000\000\000\000\000\001\377\377"
 9841      00000000 
 9841      00000001 
 9841      FFFF
 9842 0307 E7FFFF00 		.ascii	"\347\377\377\000\000\000\000\000\000\000\000\000\000"
 9842      00000000 
 9842      00000000 
 9842      00
 9843 0314 01FFFFE7 		.ascii	"\001\377\377\347\377\377\200\000\000\000\000\000\000"
 9843      FFFF8000 
 9843      00000000 
 9843      00
 9844 0321 00000001 		.ascii	"\000\000\000\001\377\377\357\377\377\000\000\000\000"
 9844      FFFFEFFF 
 9844      FF000000 
 9844      00
 9845 032e 00000000 		.ascii	"\000\000\000\000\000\000\000\377\377\317\377\377\000"
 9845      000000FF 
 9845      FFCFFFFF 
 9845      00
 9846 033b 00000000 		.ascii	"\000\000\000\000\000\000\000\000\000\000\177\377\317"
 9846      00000000 
 9846      00007FFF 
 9846      CF
 9847 0348 FFFF0000 		.ascii	"\377\377\000\000\000\000\000\000\000\000\000\000\000"
ARM GAS  /var/folders/1y/_321xjh9623c014x9_qw12rr0000gn/T//cc4eHiNS.s 			page 260


 9847      00000000 
 9847      00000000 
 9847      00
 9848 0355 3FFFDFFF 		.ascii	"?\377\337\377\377\000\000\000\000\000\000\000\000\000"
 9848      FF000000 
 9848      00000000 
 9848      0000
 9849 0363 00001FFF 		.ascii	"\000\000\037\377\237\377\376\000\000\000\000\000\000"
 9849      9FFFFE00 
 9849      00000000 
 9849      00
 9850 0370 00000000 		.ascii	"\000\000\000\000\000\017\376\037\377\376\000\000\000"
 9850      000FFE1F 
 9850      FFFE0000 
 9850      00
 9851 037d 00000000 		.ascii	"\000\000\000\000\000\000\000\000\007\300\007\377\376"
 9851      00000000 
 9851      07C007FF 
 9851      FE
 9852 038a 00000000 		.ascii	"\000\000\000\000\000\000\000\000\000\000\000\000\000"
 9852      00000000 
 9852      00000000 
 9852      00
 9853 0397 07FFFC00 		.ascii	"\007\377\374\000\000\000\000\000\000\000\000\000\000"
 9853      00000000 
 9853      00000000 
 9853      00
 9854 03a4 00000003 		.ascii	"\000\000\000\003\377\374\000\000\000\000\000\000\000"
 9854      FFFC0000 
 9854      00000000 
 9854      00
 9855 03b1 00000000 		.ascii	"\000\000\000\000\000\000\001\377\374\000\000\000\000"
 9855      000001FF 
 9855      FC000000 
 9855      00
 9856 03be 00000000 		.ascii	"\000\000\000\000\000\000\000\000\000\000\377\360\000"
 9856      00000000 
 9856      0000FFF0 
 9856      00
 9857 03cb 00000000 		.ascii	"\000\000\000\000\000\000\000\000\000\000\000\000\000"
 9857      00000000 
 9857      00000000 
 9857      00
 9858 03d8 7F800000 		.ascii	"\177\200\000\000\000\000\000\000\000\000\000\000\000"
 9858      00000000 
 9858      00000000 
 9858      00
 9859 03e5 00000010 		.ascii	"\000\000\000\020\000\000\000\000\000\000\000\000\000"
 9859      00000000 
 9859      00000000 
 9859      00
 9860 03f2 00000000 		.ascii	"\000\000\000\000\000\000\000\000\000\000\000\000\000"
 9860      00000000 
 9860      00000000 
 9860      00
 9861 03ff 00       		.ascii	"\000"
 9862 0400 00000000 		.ascii	"\000\000\000\000\000\000\000\000\000\000\000\000\000"
ARM GAS  /var/folders/1y/_321xjh9623c014x9_qw12rr0000gn/T//cc4eHiNS.s 			page 261


 9862      00000000 
 9862      00000000 
 9862      00
 9863 040d 00000000 		.ascii	"\000\000\000\000\000\000\000\000\000\000\000\000\000"
 9863      00000000 
 9863      00000000 
 9863      00
 9864 041a 00000000 		.ascii	"\000\000\000\000\000\000\000\000\000\000\000\000\000"
 9864      00000000 
 9864      00000000 
 9864      00
 9865 0427 00000000 		.ascii	"\000\000\000\000\000\000\000\000\000\000\000\000\000"
 9865      00000000 
 9865      00000000 
 9865      00
 9866 0434 0001FC00 		.ascii	"\000\001\374\000\000?\200\000\000\000\000\000\000\000"
 9866      003F8000 
 9866      00000000 
 9866      0000
 9867 0442 00000007 		.ascii	"\000\000\000\007\377\000\000\377\300\000\000\000\000"
 9867      FF0000FF 
 9867      C0000000 
 9867      00
 9868 044f 00000000 		.ascii	"\000\000\000\000\000\000\017\377\000\000\377\300\000"
 9868      00000FFF 
 9868      0000FFC0 
 9868      00
 9869 045c 00000000 		.ascii	"\000\000\000\000\000\000\000\000\000\036\007\300\003"
 9869      00000000 
 9869      001E07C0 
 9869      03
 9870 0469 E3C00000 		.ascii	"\343\300\000\000\000\000\000\000\000\000\000\000<\001"
 9870      00000000 
 9870      00000000 
 9870      3C01
 9871 0477 E0078780 		.ascii	"\340\007\207\200\000\000\000\000\000\000\000\000\000"
 9871      00000000 
 9871      00000000 
 9871      00
 9872 0484 003830E0 		.ascii	"\00080\340\007\016\034\000\000\000\000\000\000\000\000"
 9872      070E1C00 
 9872      00000000 
 9872      000000
 9873 0493 000071F8 		.ascii	"\000\000q\370\340\007\014>\000\000\000\000\000\000\000"
 9873      E0070C3E 
 9873      00000000 
 9873      000000
 9874 04a2 00000071 		.ascii	"\000\000\000q\374p\016\014>\000\000\000\000\000\000"
 9874      FC700E0C 
 9874      3E000000 
 9874      000000
 9875 04b1 00000000 		.ascii	"\000\000\000\000s\236p\016\014~\000\000\000\000\000"
 9875      739E700E 
 9875      0C7E0000 
 9875      000000
 9876 04c0 00000000 		.ascii	"\000\000\000\000\000s\216p\016\017\356\000\000\000\000"
 9876      00738E70 
ARM GAS  /var/folders/1y/_321xjh9623c014x9_qw12rr0000gn/T//cc4eHiNS.s 			page 262


 9876      0E0FEE00 
 9876      000000
 9877 04cf 00000000 		.ascii	"\000\000\000\000\000\000s\334p\016\007\316\000\000\000"
 9877      000073DC 
 9877      700E07CE 
 9877      000000
 9878 04de 00000000 		.ascii	"\000\000\000\000\000\000\000q\374p\016\000\016\000\000"
 9878      00000071 
 9878      FC700E00 
 9878      0E0000
 9879 04ed 00000000 		.ascii	"\000\000\000\000\000\000\000\000y\374x\036\000\036\000"
 9879      00000000 
 9879      79FC781E 
 9879      001E00
 9880 04fc 00000000 		.ascii	"\000\000\000\000\000\000\000\000\0008`<<\000\034\000"
 9880      00000000 
 9880      0038603C 
 9880      3C001C00 
 9881 050c 00000000 		.ascii	"\000\000\000\000\000\000\000\000\000<\000\036x\000<"
 9881      00000000 
 9881      003C001E 
 9881      78003C
 9882 051b 00000000 		.ascii	"\000\000\000\000\000\000\000\000\000\000\017\000\017"
 9882      00000000 
 9882      00000F00 
 9882      0F
 9883 0528 F000F000 		.ascii	"\360\000\360\000\000\000\000\000\000\000\000\000\000"
 9883      00000000 
 9883      00000000 
 9883      00
 9884 0535 0FFC07E0 		.ascii	"\017\374\007\340?\360\000\000\000\000\000\000\000\000"
 9884      3FF00000 
 9884      00000000 
 9884      0000
 9885 0543 000007FE 		.ascii	"\000\000\007\376\003\300\177\340\000\000\000\000\000"
 9885      03C07FE0 
 9885      00000000 
 9885      00
 9886 0550 00000000 		.ascii	"\000\000\000\000\000\000\377\007\200\377\000\000\000"
 9886      0000FF07 
 9886      80FF0000 
 9886      00
 9887 055d 00000000 		.ascii	"\000\000\000\000\000\000\000\000\000\007\217\001\340"
 9887      00000000 
 9887      00078F01 
 9887      E0
 9888 056a 00000000 		.ascii	"\000\000\000\000\000\000\000\000\000\000\000\000\003"
 9888      00000000 
 9888      00000000 
 9888      03
 9889 0577 DE03C000 		.ascii	"\336\003\300\000\000\000\000\000\000\000\000\000\000"
 9889      00000000 
 9889      00000000 
 9889      00
 9890 0584 000001FC 		.ascii	"\000\000\001\374\007\200\000\000\000\000\000\000\000"
 9890      07800000 
 9890      00000000 
ARM GAS  /var/folders/1y/_321xjh9623c014x9_qw12rr0000gn/T//cc4eHiNS.s 			page 263


 9890      00
 9891 0591 00000000 		.ascii	"\000\000\000\000\000\000\370\017\000\000\000\000\000"
 9891      0000F80F 
 9891      00000000 
 9891      00
 9892 059e 00000000 		.ascii	"\000\000\000\000\000\000\000\000\000\360\037\000\000"
 9892      00000000 
 9892      00F01F00 
 9892      00
 9893 05ab 00000000 		.ascii	"\000\000\000\000\000\000\000\000\000\000\000\001\340"
 9893      00000000 
 9893      00000001 
 9893      E0
 9894 05b8 3F800000 		.ascii	"?\200\000\000\000\000\000\000\000\000\000\000\000\000"
 9894      00000000 
 9894      00000000 
 9894      0000
 9895 05c6 03C07BC0 		.ascii	"\003\300{\300\000\000\000\000\000\000\000\000\000\000"
 9895      00000000 
 9895      00000000 
 9895      0000
 9896 05d4 00000780 		.ascii	"\000\000\007\200\361\340\000\000\000\000\000\000\000"
 9896      F1E00000 
 9896      00000000 
 9896      00
 9897 05e1 00000000 		.ascii	"\000\000\000\000\000\377\001\340\377\000\000\000\000"
 9897      00FF01E0 
 9897      FF000000 
 9897      00
 9898 05ee 00000000 		.ascii	"\000\000\000\000\000\000\000\007\376\003\300\177\300"
 9898      00000007 
 9898      FE03C07F 
 9898      C0
 9899 05fb 00000000 		.ascii	"\000\000\000\000\000\000\000\000\000\000\017\374\007"
 9899      00000000 
 9899      00000FFC 
 9899      07
 9900 0608 E03FF000 		.ascii	"\340?\360\000\000\000\000\000\000\000\000\000\000\017"
 9900      00000000 
 9900      00000000 
 9900      000F
 9901 0616 000FF000 		.ascii	"\000\017\360\000\360\000\000\000\000\000\000\000\000"
 9901      F0000000 
 9901      00000000 
 9901      00
 9902 0623 00003C00 		.ascii	"\000\000<\000\036x\000<\000\000\000\000\000\000\000"
 9902      1E78003C 
 9902      00000000 
 9902      000000
 9903 0632 00000038 		.ascii	"\000\000\0008\000<<\002\034\000\000\000\000\000\000"
 9903      003C3C02 
 9903      1C000000 
 9903      000000
 9904 0641 00000000 		.ascii	"\000\000\000\000x\000x\036\037\036\000\000\000\000\000"
 9904      7800781E 
 9904      1F1E0000 
 9904      000000
ARM GAS  /var/folders/1y/_321xjh9623c014x9_qw12rr0000gn/T//cc4eHiNS.s 			page 264


 9905 0650 00000000 		.ascii	"\000\000\000\000\000q\300p\016?\216\000\000\000\000"
 9905      0071C070 
 9905      0E3F8E00 
 9905      000000
 9906 065f 00000000 		.ascii	"\000\000\000\000\000\000s\340p\016?\316\000\000\000"
 9906      000073E0 
 9906      700E3FCE 
 9906      000000
 9907 066e 00000000 		.ascii	"\000\000\000\000\000\000\000w\360p\0161\316\000\000"
 9907      00000077 
 9907      F0700E31 
 9907      CE0000
 9908 067d 00000000 		.ascii	"\000\000\000\000\000\000\000\000~8p\016y\316\000\000"
 9908      00000000 
 9908      7E38700E 
 9908      79CE0000 
 9909 068d 00000000 		.ascii	"\000\000\000\000\000\000\000\000|8p\016?\216\000\000"
 9909      00000000 
 9909      7C38700E 
 9909      3F8E0000 
 9910 069d 00000000 		.ascii	"\000\000\000\000\000\000\000\000|8\340\007\037\216\000"
 9910      00000000 
 9910      7C38E007 
 9910      1F8E00
 9911 06ac 00000000 		.ascii	"\000\000\000\000\000\000\000\000\0008p\340\007\016\034"
 9911      00000000 
 9911      003870E0 
 9911      070E1C
 9912 06bb 00000000 		.ascii	"\000\000\000\000\000\000\000\000\000\000\001\341\340"
 9912      00000000 
 9912      000001E1 
 9912      E0
 9913 06c8 03803C00 		.ascii	"\003\200<\000\000\000\000\000\000\000\000\000\000\003"
 9913      00000000 
 9913      00000000 
 9913      0003
 9914 06d6 C7C003E0 		.ascii	"\307\300\003\340x\000\000\000\000\000\000\000\000\000"
 9914      78000000 
 9914      00000000 
 9914      0000
 9915 06e4 0003FF00 		.ascii	"\000\003\377\000\000\377\360\000\000\000\000\000\000"
 9915      00FFF000 
 9915      00000000 
 9915      00
 9916 06f1 00000000 		.ascii	"\000\000\000\000\003\377\000\000\377\340\000\000\000"
 9916      03FF0000 
 9916      FFE00000 
 9916      00
 9917 06fe 00000000 		.ascii	"\000\000\000\000\000\000\000\001\374\000\000?\200\000"
 9917      00000001 
 9917      FC00003F 
 9917      8000
 9918 070c 00000000 		.ascii	"\000\000\000\000\000\000\000\000\000\000\000\000\000"
 9918      00000000 
 9918      00000000 
 9918      00
 9919 0719 00000000 		.ascii	"\000\000\000\000\000\000\000\000\000\000\000\000\000"
ARM GAS  /var/folders/1y/_321xjh9623c014x9_qw12rr0000gn/T//cc4eHiNS.s 			page 265


 9919      00000000 
 9919      00000000 
 9919      00
 9920 0726 00000000 		.ascii	"\000\000\000\000\000\000\000\000\000\000\000\000\000"
 9920      00000000 
 9920      00000000 
 9920      00
 9921 0733 00000000 		.ascii	"\000\000\000\000\000\000\000\000\000\000\000\000\000"
 9921      00000000 
 9921      00000000 
 9921      00
 9922 0740 00000000 		.ascii	"\000\000\000\000\000\000\000\000\000\000\000\000\000"
 9922      00000000 
 9922      00000000 
 9922      00
 9923 074d 00000000 		.ascii	"\000\000\000\000\000\000\000\000\000\000\000\000\000"
 9923      00000000 
 9923      00000000 
 9923      00
 9924 075a 00000000 		.ascii	"\000\000\000\000\000\000\000\000\000\000\000\000\000"
 9924      00000000 
 9924      00000000 
 9924      00
 9925 0767 00000000 		.ascii	"\000\000\000\000\000\000\000\000\000\000\000\000\000"
 9925      00000000 
 9925      00000000 
 9925      00
 9926 0774 00000000 		.ascii	"\000\000\000\000\000\000\000\000\000\000\000\000\000"
 9926      00000000 
 9926      00000000 
 9926      00
 9927 0781 00000000 		.ascii	"\000\000\000\000\000\000\000\000\000\000\000\000\000"
 9927      00000000 
 9927      00000000 
 9927      00
 9928 078e 00000000 		.ascii	"\000\000\000\000\000\000\000\000\000\000\000\000\000"
 9928      00000000 
 9928      00000000 
 9928      00
 9929 079b 00000000 		.ascii	"\000\000\000\000\000\000\000\000\000\000\000\000\000"
 9929      00000000 
 9929      00000000 
 9929      00
 9930 07a8 00000000 		.ascii	"\000\000\000\000\000\000\000\000\000\000\000\000\000"
 9930      00000000 
 9930      00000000 
 9930      00
 9931 07b5 00000000 		.ascii	"\000\000\000\000\000\000\000\000\000\000\000\000\000"
 9931      00000000 
 9931      00000000 
 9931      00
 9932 07c2 00000000 		.ascii	"\000\000\000\000\000\000\000\000\000\000\000\000\000"
 9932      00000000 
 9932      00000000 
 9932      00
 9933 07cf 00000000 		.ascii	"\000\000\000\000\000\000\000\000\000\000\000\000\000"
 9933      00000000 
ARM GAS  /var/folders/1y/_321xjh9623c014x9_qw12rr0000gn/T//cc4eHiNS.s 			page 266


 9933      00000000 
 9933      00
 9934 07dc 00000000 		.ascii	"\000\000\000\000\000\000\000\000\000\000\000\000\000"
 9934      00000000 
 9934      00000000 
 9934      00
 9935 07e9 00000000 		.ascii	"\000\000\000\000\000\000\000\000\000\000\000\000\000"
 9935      00000000 
 9935      00000000 
 9935      00
 9936 07f6 00000000 		.ascii	"\000\000\000\000\000\000\000\000\000\000"
 9936      00000000 
 9936      0000
 9937              		.text
 9938              	.Letext0:
 9939              		.file 18 "/Library/DaisyToolchain/0.2.0/arm/arm-none-eabi/include/machine/_default_types.h"
 9940              		.file 19 "/Library/DaisyToolchain/0.2.0/arm/arm-none-eabi/include/sys/_stdint.h"
 9941              		.file 20 "/Library/DaisyToolchain/0.2.0/arm/arm-none-eabi/include/stdint.h"
 9942              		.file 21 "../../libDaisy//Drivers/CMSIS/Device/ST/STM32H7xx/Include/stm32h750xx.h"
 9943              		.file 22 "/Library/DaisyToolchain/0.2.0/arm/lib/gcc/arm-none-eabi/10.3.1/include/stddef.h"
 9944              		.file 23 "/Library/DaisyToolchain/0.2.0/arm/arm-none-eabi/include/c++/10.3.1/cmath"
 9945              		.file 24 "/Library/DaisyToolchain/0.2.0/arm/arm-none-eabi/include/c++/10.3.1/cstdlib"
 9946              		.file 25 "/Library/DaisyToolchain/0.2.0/arm/arm-none-eabi/include/c++/10.3.1/cstdint"
 9947              		.file 26 "/Library/DaisyToolchain/0.2.0/arm/arm-none-eabi/include/c++/10.3.1/type_traits"
 9948              		.file 27 "/Library/DaisyToolchain/0.2.0/arm/arm-none-eabi/include/c++/10.3.1/debug/debug.h"
 9949              		.file 28 "/Library/DaisyToolchain/0.2.0/arm/arm-none-eabi/include/c++/10.3.1/arm-none-eabi/thumb/v
 9950              		.file 29 "/Library/DaisyToolchain/0.2.0/arm/arm-none-eabi/include/c++/10.3.1/bits/algorithmfwd.h"
 9951              		.file 30 "/Library/DaisyToolchain/0.2.0/arm/arm-none-eabi/include/c++/10.3.1/bits/exception_ptr.h"
 9952              		.file 31 "/Library/DaisyToolchain/0.2.0/arm/arm-none-eabi/include/c++/10.3.1/bits/stl_pair.h"
 9953              		.file 32 "/Library/DaisyToolchain/0.2.0/arm/arm-none-eabi/include/c++/10.3.1/cstdarg"
 9954              		.file 33 "/Library/DaisyToolchain/0.2.0/arm/arm-none-eabi/include/c++/10.3.1/cstdio"
 9955              		.file 34 "/Library/DaisyToolchain/0.2.0/arm/arm-none-eabi/include/c++/10.3.1/cstring"
 9956              		.file 35 "/Library/DaisyToolchain/0.2.0/arm/arm-none-eabi/include/c++/10.3.1/bits/predefined_ops.h
 9957              		.file 36 "/Library/DaisyToolchain/0.2.0/arm/arm-none-eabi/include/sys/_types.h"
 9958              		.file 37 "/Library/DaisyToolchain/0.2.0/arm/arm-none-eabi/include/sys/reent.h"
 9959              		.file 38 "/Library/DaisyToolchain/0.2.0/arm/arm-none-eabi/include/sys/lock.h"
 9960              		.file 39 "/Library/DaisyToolchain/0.2.0/arm/arm-none-eabi/include/math.h"
 9961              		.file 40 "/Library/DaisyToolchain/0.2.0/arm/arm-none-eabi/include/stdlib.h"
 9962              		.file 41 "/Library/DaisyToolchain/0.2.0/arm/arm-none-eabi/include/c++/10.3.1/math.h"
 9963              		.file 42 "/Library/DaisyToolchain/0.2.0/arm/arm-none-eabi/include/c++/10.3.1/stdlib.h"
 9964              		.file 43 "../../libDaisy//src/daisy_core.h"
 9965              		.file 44 "../../libDaisy//src/per/tim.h"
 9966              		.file 45 "../../libDaisy//src/sys/system.h"
 9967              		.file 46 "../../libDaisy//src/per/qspi.h"
 9968              		.file 47 "../../libDaisy//src/per/dac.h"
 9969              		.file 48 "../../libDaisy//src/per/adc.h"
 9970              		.file 49 "../../libDaisy//src/hid/MidiEvent.h"
 9971              		.file 50 "../../libDaisy//src/hid/usb.h"
 9972              		.file 51 "../../libDaisy//src/hid/gatein.h"
 9973              		.file 52 "../../libDaisy//src/hid/disp/graphics_common.h"
 9974              		.file 53 "../../libDaisy//src/util/wav_format.h"
 9975              		.file 54 "../../libDaisy//src/dev/max11300.h"
 9976              		.file 55 "../../libDaisy//src/daisy_seed.h"
 9977              		.file 56 "Dubby.h"
 9978              		.file 57 "../../libDaisy//src/per/gpio.h"
 9979              		.file 58 "../../libDaisy//src/dev/sdram.h"
 9980              		.file 59 "/Library/DaisyToolchain/0.2.0/arm/lib/gcc/arm-none-eabi/10.3.1/include/stdarg.h"
ARM GAS  /var/folders/1y/_321xjh9623c014x9_qw12rr0000gn/T//cc4eHiNS.s 			page 267


 9981              		.file 60 "/Library/DaisyToolchain/0.2.0/arm/arm-none-eabi/include/stdio.h"
 9982              		.file 61 "../../libDaisy//src/util/oled_fonts.h"
 9983              		.file 62 "/Library/DaisyToolchain/0.2.0/arm/arm-none-eabi/include/string.h"
 9984              		.file 63 "../../libDaisy//src/dev/sr_595.h"
 9985              		.file 64 "./bitmaps/bmps.h"
 9986              		.file 65 "<built-in>"
ARM GAS  /var/folders/1y/_321xjh9623c014x9_qw12rr0000gn/T//cc4eHiNS.s 			page 268


DEFINED SYMBOLS
                            *ABS*:0000000000000000 Dubby.cpp
/var/folders/1y/_321xjh9623c014x9_qw12rr0000gn/T//cc4eHiNS.s:19     .text._ZNK5daisy11OledDisplayINS_13SSD130xDriverILj128ELj64ENS_24SSD130x4WireSpiTransportEEEE6HeightEv:0000000000000000 $t
/var/folders/1y/_321xjh9623c014x9_qw12rr0000gn/T//cc4eHiNS.s:26     .text._ZNK5daisy11OledDisplayINS_13SSD130xDriverILj128ELj64ENS_24SSD130x4WireSpiTransportEEEE6HeightEv:0000000000000000 _ZNK5daisy11OledDisplayINS_13SSD130xDriverILj128ELj64ENS_24SSD130x4WireSpiTransportEEEE6HeightEv
/var/folders/1y/_321xjh9623c014x9_qw12rr0000gn/T//cc4eHiNS.s:44     .text._ZNK5daisy11OledDisplayINS_13SSD130xDriverILj128ELj64ENS_24SSD130x4WireSpiTransportEEEE5WidthEv:0000000000000000 $t
/var/folders/1y/_321xjh9623c014x9_qw12rr0000gn/T//cc4eHiNS.s:51     .text._ZNK5daisy11OledDisplayINS_13SSD130xDriverILj128ELj64ENS_24SSD130x4WireSpiTransportEEEE5WidthEv:0000000000000000 _ZNK5daisy11OledDisplayINS_13SSD130xDriverILj128ELj64ENS_24SSD130x4WireSpiTransportEEEE5WidthEv
/var/folders/1y/_321xjh9623c014x9_qw12rr0000gn/T//cc4eHiNS.s:68     .text._ZN5daisy5Dubby11RenderScopeEv.part.0:0000000000000000 $t
/var/folders/1y/_321xjh9623c014x9_qw12rr0000gn/T//cc4eHiNS.s:74     .text._ZN5daisy5Dubby11RenderScopeEv.part.0:0000000000000000 _ZN5daisy5Dubby11RenderScopeEv.part.0
/var/folders/1y/_321xjh9623c014x9_qw12rr0000gn/T//cc4eHiNS.s:665    .text._ZN5daisy5Dubby11RenderScopeEv.part.0:00000000000001e8 $d
/var/folders/1y/_321xjh9623c014x9_qw12rr0000gn/T//cc4eHiNS.s:675    .text._ZN5daisy5Dubby12InitControlsEv:0000000000000000 $t
/var/folders/1y/_321xjh9623c014x9_qw12rr0000gn/T//cc4eHiNS.s:682    .text._ZN5daisy5Dubby12InitControlsEv:0000000000000000 _ZN5daisy5Dubby12InitControlsEv
/var/folders/1y/_321xjh9623c014x9_qw12rr0000gn/T//cc4eHiNS.s:841    .text._ZN5daisy5Dubby12InitControlsEv:00000000000000d4 $d
/var/folders/1y/_321xjh9623c014x9_qw12rr0000gn/T//cc4eHiNS.s:846    .text._ZN5daisy5Dubby11InitButtonsEv:0000000000000000 $t
/var/folders/1y/_321xjh9623c014x9_qw12rr0000gn/T//cc4eHiNS.s:853    .text._ZN5daisy5Dubby11InitButtonsEv:0000000000000000 _ZN5daisy5Dubby11InitButtonsEv
/var/folders/1y/_321xjh9623c014x9_qw12rr0000gn/T//cc4eHiNS.s:942    .text._ZN5daisy5Dubby11InitButtonsEv:0000000000000080 $d
/var/folders/1y/_321xjh9623c014x9_qw12rr0000gn/T//cc4eHiNS.s:947    .text._ZN5daisy5Dubby8InitMidiEv:0000000000000000 $t
/var/folders/1y/_321xjh9623c014x9_qw12rr0000gn/T//cc4eHiNS.s:954    .text._ZN5daisy5Dubby8InitMidiEv:0000000000000000 _ZN5daisy5Dubby8InitMidiEv
/var/folders/1y/_321xjh9623c014x9_qw12rr0000gn/T//cc4eHiNS.s:1147   .text._ZN5daisy5Dubby8InitMidiEv:0000000000000050 $d
/var/folders/1y/_321xjh9623c014x9_qw12rr0000gn/T//cc4eHiNS.s:1153   .text._ZN5daisy5Dubby10DrawBitmapEi:0000000000000000 $t
/var/folders/1y/_321xjh9623c014x9_qw12rr0000gn/T//cc4eHiNS.s:1160   .text._ZN5daisy5Dubby10DrawBitmapEi:0000000000000000 _ZN5daisy5Dubby10DrawBitmapEi
/var/folders/1y/_321xjh9623c014x9_qw12rr0000gn/T//cc4eHiNS.s:1591   .text._ZN5daisy5Dubby10DrawBitmapEi:0000000000000124 $d
/var/folders/1y/_321xjh9623c014x9_qw12rr0000gn/T//cc4eHiNS.s:1604   .text._ZN5daisy5Dubby8DrawLogoEv:0000000000000000 $t
/var/folders/1y/_321xjh9623c014x9_qw12rr0000gn/T//cc4eHiNS.s:1611   .text._ZN5daisy5Dubby8DrawLogoEv:0000000000000000 _ZN5daisy5Dubby8DrawLogoEv
/var/folders/1y/_321xjh9623c014x9_qw12rr0000gn/T//cc4eHiNS.s:1629   .text._ZN5daisy5Dubby9UpdateBarEi:0000000000000000 $t
/var/folders/1y/_321xjh9623c014x9_qw12rr0000gn/T//cc4eHiNS.s:1636   .text._ZN5daisy5Dubby9UpdateBarEi:0000000000000000 _ZN5daisy5Dubby9UpdateBarEi
/var/folders/1y/_321xjh9623c014x9_qw12rr0000gn/T//cc4eHiNS.s:2687   .text._ZN5daisy5Dubby9UpdateBarEi:000000000000038c $d
/var/folders/1y/_321xjh9623c014x9_qw12rr0000gn/T//cc4eHiNS.s:2700   .text._ZN5daisy5Dubby9UpdateBarEi:0000000000000390 $t
/var/folders/1y/_321xjh9623c014x9_qw12rr0000gn/T//cc4eHiNS.s:2832   .text._ZN5daisy5Dubby15UpdateMixerPaneEv:0000000000000000 $t
/var/folders/1y/_321xjh9623c014x9_qw12rr0000gn/T//cc4eHiNS.s:2839   .text._ZN5daisy5Dubby15UpdateMixerPaneEv:0000000000000000 _ZN5daisy5Dubby15UpdateMixerPaneEv
/var/folders/1y/_321xjh9623c014x9_qw12rr0000gn/T//cc4eHiNS.s:2919   .text._ZN5daisy5Dubby11RenderScopeEv:0000000000000000 $t
/var/folders/1y/_321xjh9623c014x9_qw12rr0000gn/T//cc4eHiNS.s:2926   .text._ZN5daisy5Dubby11RenderScopeEv:0000000000000000 _ZN5daisy5Dubby11RenderScopeEv
/var/folders/1y/_321xjh9623c014x9_qw12rr0000gn/T//cc4eHiNS.s:2976   .text._ZN5daisy5Dubby11InitEncoderEv:0000000000000000 $t
/var/folders/1y/_321xjh9623c014x9_qw12rr0000gn/T//cc4eHiNS.s:2983   .text._ZN5daisy5Dubby11InitEncoderEv:0000000000000000 _ZN5daisy5Dubby11InitEncoderEv
/var/folders/1y/_321xjh9623c014x9_qw12rr0000gn/T//cc4eHiNS.s:3036   .text._ZN5daisy5Dubby11InitEncoderEv:0000000000000040 $d
/var/folders/1y/_321xjh9623c014x9_qw12rr0000gn/T//cc4eHiNS.s:3041   .text._ZN5daisy5Dubby18ProcessAllControlsEv:0000000000000000 $t
/var/folders/1y/_321xjh9623c014x9_qw12rr0000gn/T//cc4eHiNS.s:3048   .text._ZN5daisy5Dubby18ProcessAllControlsEv:0000000000000000 _ZN5daisy5Dubby18ProcessAllControlsEv
/var/folders/1y/_321xjh9623c014x9_qw12rr0000gn/T//cc4eHiNS.s:3156   .text._ZN5daisy5Dubby21ProcessAnalogControlsEv:0000000000000000 $t
/var/folders/1y/_321xjh9623c014x9_qw12rr0000gn/T//cc4eHiNS.s:3163   .text._ZN5daisy5Dubby21ProcessAnalogControlsEv:0000000000000000 _ZN5daisy5Dubby21ProcessAnalogControlsEv
/var/folders/1y/_321xjh9623c014x9_qw12rr0000gn/T//cc4eHiNS.s:3206   .text._ZN5daisy5Dubby22ProcessDigitalControlsEv:0000000000000000 $t
/var/folders/1y/_321xjh9623c014x9_qw12rr0000gn/T//cc4eHiNS.s:3213   .text._ZN5daisy5Dubby22ProcessDigitalControlsEv:0000000000000000 _ZN5daisy5Dubby22ProcessDigitalControlsEv
/var/folders/1y/_321xjh9623c014x9_qw12rr0000gn/T//cc4eHiNS.s:3278   .text._ZN5daisy5Dubby12GetKnobValueENS0_4CtrlE:0000000000000000 $t
/var/folders/1y/_321xjh9623c014x9_qw12rr0000gn/T//cc4eHiNS.s:3285   .text._ZN5daisy5Dubby12GetKnobValueENS0_4CtrlE:0000000000000000 _ZN5daisy5Dubby12GetKnobValueENS0_4CtrlE
/var/folders/1y/_321xjh9623c014x9_qw12rr0000gn/T//cc4eHiNS.s:3312   .text._ZN5daisy5Dubby9InitAudioEv:0000000000000000 $t
/var/folders/1y/_321xjh9623c014x9_qw12rr0000gn/T//cc4eHiNS.s:3319   .text._ZN5daisy5Dubby9InitAudioEv:0000000000000000 _ZN5daisy5Dubby9InitAudioEv
/var/folders/1y/_321xjh9623c014x9_qw12rr0000gn/T//cc4eHiNS.s:3659   .text._ZN5daisy5Dubby9InitAudioEv:0000000000000108 $d
/var/folders/1y/_321xjh9623c014x9_qw12rr0000gn/T//cc4eHiNS.s:3665   .rodata._ZN5daisy5Dubby14GetTextForEnumENS0_9MenuTypesEi.str1.4:0000000000000000 $d
/var/folders/1y/_321xjh9623c014x9_qw12rr0000gn/T//cc4eHiNS.s:3669   .text._ZN5daisy5Dubby14GetTextForEnumENS0_9MenuTypesEi:0000000000000000 $t
/var/folders/1y/_321xjh9623c014x9_qw12rr0000gn/T//cc4eHiNS.s:3676   .text._ZN5daisy5Dubby14GetTextForEnumENS0_9MenuTypesEi:0000000000000000 _ZN5daisy5Dubby14GetTextForEnumENS0_9MenuTypesEi
/var/folders/1y/_321xjh9623c014x9_qw12rr0000gn/T//cc4eHiNS.s:3717   .text._ZN5daisy5Dubby14GetTextForEnumENS0_9MenuTypesEi:0000000000000018 $d
/var/folders/1y/_321xjh9623c014x9_qw12rr0000gn/T//cc4eHiNS.s:3722   .text._ZN5daisy25OneBitGraphicsDisplayImplINS_11OledDisplayINS_13SSD130xDriverILj128ELj64ENS_24SSD130x4WireSpiTransportEEEEEE11WriteStringEPKc7FontDefb:0000000000000000 $t
/var/folders/1y/_321xjh9623c014x9_qw12rr0000gn/T//cc4eHiNS.s:3729   .text._ZN5daisy25OneBitGraphicsDisplayImplINS_11OledDisplayINS_13SSD130xDriverILj128ELj64ENS_24SSD130x4WireSpiTransportEEEEEE11WriteStringEPKc7FontDefb:0000000000000000 _ZN5daisy25OneBitGraphicsDisplayImplINS_11OledDisplayINS_13SSD130xDriverILj128ELj64ENS_24SSD130x4WireSpiTransportEEEEEE11WriteStringEPKc7FontDefb
/var/folders/1y/_321xjh9623c014x9_qw12rr0000gn/T//cc4eHiNS.s:4186   .text._ZN5daisy25OneBitGraphicsDisplayImplINS_11OledDisplayINS_13SSD130xDriverILj128ELj64ENS_24SSD130x4WireSpiTransportEEEEEE11WriteStringEPKc7FontDefb:00000000000001b8 $d
/var/folders/1y/_321xjh9623c014x9_qw12rr0000gn/T//cc4eHiNS.s:4196   .text._ZN5daisy5Dubby18HightlightMenuItemEv:0000000000000000 $t
/var/folders/1y/_321xjh9623c014x9_qw12rr0000gn/T//cc4eHiNS.s:4203   .text._ZN5daisy5Dubby18HightlightMenuItemEv:0000000000000000 _ZN5daisy5Dubby18HightlightMenuItemEv
/var/folders/1y/_321xjh9623c014x9_qw12rr0000gn/T//cc4eHiNS.s:4886   .text._ZN5daisy5Dubby18HightlightMenuItemEv:00000000000001ec $d
/var/folders/1y/_321xjh9623c014x9_qw12rr0000gn/T//cc4eHiNS.s:4891   .text._ZN5daisy5Dubby11ReleaseMenuEv:0000000000000000 $t
/var/folders/1y/_321xjh9623c014x9_qw12rr0000gn/T//cc4eHiNS.s:4898   .text._ZN5daisy5Dubby11ReleaseMenuEv:0000000000000000 _ZN5daisy5Dubby11ReleaseMenuEv
ARM GAS  /var/folders/1y/_321xjh9623c014x9_qw12rr0000gn/T//cc4eHiNS.s 			page 269


/var/folders/1y/_321xjh9623c014x9_qw12rr0000gn/T//cc4eHiNS.s:6031   .text._ZN5daisy5Dubby11ReleaseMenuEv:0000000000000430 $d
/var/folders/1y/_321xjh9623c014x9_qw12rr0000gn/T//cc4eHiNS.s:6039   .text._ZN5daisy5Dubby22DisplayPreferencesMenuEv:0000000000000000 $t
/var/folders/1y/_321xjh9623c014x9_qw12rr0000gn/T//cc4eHiNS.s:6046   .text._ZN5daisy5Dubby22DisplayPreferencesMenuEv:0000000000000000 _ZN5daisy5Dubby22DisplayPreferencesMenuEv
/var/folders/1y/_321xjh9623c014x9_qw12rr0000gn/T//cc4eHiNS.s:6429   .text._ZN5daisy5Dubby22DisplayPreferencesMenuEv:0000000000000124 $d
/var/folders/1y/_321xjh9623c014x9_qw12rr0000gn/T//cc4eHiNS.s:6436   .text._ZN5daisy5Dubby22DisplayPreferencesMenuEv:0000000000000128 $t
/var/folders/1y/_321xjh9623c014x9_qw12rr0000gn/T//cc4eHiNS.s:7222   .text._ZN5daisy5Dubby13UpdateSubmenuEv:0000000000000000 $t
/var/folders/1y/_321xjh9623c014x9_qw12rr0000gn/T//cc4eHiNS.s:7229   .text._ZN5daisy5Dubby13UpdateSubmenuEv:0000000000000000 _ZN5daisy5Dubby13UpdateSubmenuEv
/var/folders/1y/_321xjh9623c014x9_qw12rr0000gn/T//cc4eHiNS.s:7450   .text._ZN5daisy5Dubby10UpdateMenuEib:0000000000000000 $t
/var/folders/1y/_321xjh9623c014x9_qw12rr0000gn/T//cc4eHiNS.s:7457   .text._ZN5daisy5Dubby10UpdateMenuEib:0000000000000000 _ZN5daisy5Dubby10UpdateMenuEib
/var/folders/1y/_321xjh9623c014x9_qw12rr0000gn/T//cc4eHiNS.s:7715   .text._ZN5daisy5Dubby21UpdatePreferencesMenuEi:0000000000000000 $t
/var/folders/1y/_321xjh9623c014x9_qw12rr0000gn/T//cc4eHiNS.s:7722   .text._ZN5daisy5Dubby21UpdatePreferencesMenuEi:0000000000000000 _ZN5daisy5Dubby21UpdatePreferencesMenuEi
/var/folders/1y/_321xjh9623c014x9_qw12rr0000gn/T//cc4eHiNS.s:7769   .rodata._ZN5daisy5Dubby17ResetToBootloaderEv.str1.4:0000000000000000 $d
/var/folders/1y/_321xjh9623c014x9_qw12rr0000gn/T//cc4eHiNS.s:7773   .text._ZN5daisy5Dubby17ResetToBootloaderEv:0000000000000000 $t
/var/folders/1y/_321xjh9623c014x9_qw12rr0000gn/T//cc4eHiNS.s:7780   .text._ZN5daisy5Dubby17ResetToBootloaderEv:0000000000000000 _ZN5daisy5Dubby17ResetToBootloaderEv
/var/folders/1y/_321xjh9623c014x9_qw12rr0000gn/T//cc4eHiNS.s:8036   .text._ZN5daisy5Dubby17ResetToBootloaderEv:00000000000000b0 $d
/var/folders/1y/_321xjh9623c014x9_qw12rr0000gn/T//cc4eHiNS.s:8043   .text._ZN5daisy5Dubby13UpdateDisplayEv:0000000000000000 $t
/var/folders/1y/_321xjh9623c014x9_qw12rr0000gn/T//cc4eHiNS.s:8050   .text._ZN5daisy5Dubby13UpdateDisplayEv:0000000000000000 _ZN5daisy5Dubby13UpdateDisplayEv
/var/folders/1y/_321xjh9623c014x9_qw12rr0000gn/T//cc4eHiNS.s:8628   .text._ZN5daisy5Dubby13UpdateDisplayEv:000000000000019c $d
/var/folders/1y/_321xjh9623c014x9_qw12rr0000gn/T//cc4eHiNS.s:8633   .text._ZN5daisy13SSD130xDriverILj128ELj64ENS_24SSD130x4WireSpiTransportEE4InitENS2_6ConfigE:0000000000000000 $t
/var/folders/1y/_321xjh9623c014x9_qw12rr0000gn/T//cc4eHiNS.s:8640   .text._ZN5daisy13SSD130xDriverILj128ELj64ENS_24SSD130x4WireSpiTransportEE4InitENS2_6ConfigE:0000000000000000 _ZN5daisy13SSD130xDriverILj128ELj64ENS_24SSD130x4WireSpiTransportEE4InitENS2_6ConfigE
/var/folders/1y/_321xjh9623c014x9_qw12rr0000gn/T//cc4eHiNS.s:9412   .text._ZN5daisy5Dubby11InitDisplayEv:0000000000000000 $t
/var/folders/1y/_321xjh9623c014x9_qw12rr0000gn/T//cc4eHiNS.s:9419   .text._ZN5daisy5Dubby11InitDisplayEv:0000000000000000 _ZN5daisy5Dubby11InitDisplayEv
/var/folders/1y/_321xjh9623c014x9_qw12rr0000gn/T//cc4eHiNS.s:9598   .text._ZN5daisy5Dubby11InitDisplayEv:0000000000000088 $d
/var/folders/1y/_321xjh9623c014x9_qw12rr0000gn/T//cc4eHiNS.s:9603   .text._ZN5daisy5Dubby4InitEv:0000000000000000 $t
/var/folders/1y/_321xjh9623c014x9_qw12rr0000gn/T//cc4eHiNS.s:9610   .text._ZN5daisy5Dubby4InitEv:0000000000000000 _ZN5daisy5Dubby4InitEv
/var/folders/1y/_321xjh9623c014x9_qw12rr0000gn/T//cc4eHiNS.s:9736   .text._ZN5daisy5Dubby4InitEv:000000000000008c $d
/var/folders/1y/_321xjh9623c014x9_qw12rr0000gn/T//cc4eHiNS.s:9741   .rodata:0000000000000000 $d
/var/folders/1y/_321xjh9623c014x9_qw12rr0000gn/T//cc4eHiNS.s:9779   .rodata._ZL7bitmaps:0000000000000000 $d
/var/folders/1y/_321xjh9623c014x9_qw12rr0000gn/T//cc4eHiNS.s:9783   .rodata._ZL7bitmaps:0000000000000000 _ZL7bitmaps

UNDEFINED SYMBOLS
_ZN5daisy6System6GetNowEv
dsy_gpio_write
_ZN5daisy9SpiHandle16BlockingTransmitEPhjm
_ZN5daisy9DaisySeed6GetPinEh
_ZN5daisy16AdcChannelConfig10InitSingleE12dsy_gpio_pin
_ZN5daisy9AdcHandle4InitEPNS_16AdcChannelConfigEjNS0_12OverSamplingE
_ZNK5daisy9AdcHandle6GetPtrEh
_ZNK5daisy9DaisySeed17AudioCallbackRateEv
_ZN5daisy13AnalogControl4InitEPtfbbf
_ZN5daisy9AdcHandle5StartEv
_ZN5daisy6Switch4InitE12dsy_gpio_pinf
_ZN5daisy11UartHandler4InitERKNS0_6ConfigE
memset
_ZN5daisy7Encoder4InitE12dsy_gpio_pinS1_S1_f
_ZN5daisy13AnalogControl7ProcessEv
_ZN5daisy7Encoder8DebounceEv
_ZN5daisy6Switch8DebounceEv
_ZN5daisy9DaisySeed17CheckBoardVersionEv
_ZN5daisy9I2CHandle4InitERKNS0_6ConfigE
_ZN5daisy7Pcm30604InitENS_9I2CHandleE
_ZN5daisy9SaiHandle4InitERKNS0_6ConfigE
_ZN5daisy11AudioHandle4InitERKNS0_6ConfigENS_9SaiHandleES4_
Font_6x8
_ZN5daisy6System17ResetToBootloaderEv
dsy_gpio_init
_ZN5daisy9SpiHandle4InitERKNS0_6ConfigE
ARM GAS  /var/folders/1y/_321xjh9623c014x9_qw12rr0000gn/T//cc4eHiNS.s 			page 270


_ZN5daisy6System5DelayEm
