ARM GAS  /var/folders/1y/_321xjh9623c014x9_qw12rr0000gn/T//cc1ZQ1Ea.s 			page 1


   1              		.cpu cortex-m7
   2              		.arch armv7e-m
   3              		.fpu fpv5-d16
   4              		.eabi_attribute 28, 1
   5              		.eabi_attribute 20, 1
   6              		.eabi_attribute 21, 1
   7              		.eabi_attribute 23, 3
   8              		.eabi_attribute 24, 1
   9              		.eabi_attribute 25, 1
  10              		.eabi_attribute 26, 1
  11              		.eabi_attribute 30, 2
  12              		.eabi_attribute 34, 1
  13              		.eabi_attribute 18, 4
  14              		.file	"DubbyPlayground.cpp"
  15              		.section	.rodata.str1.4,"aMS",%progbits,1
  16              		.align	2
  17              	.LC0:
  18 0000 53434F50 		.ascii	"SCOPE\000"
  18      4500
  19 0006 0000     		.align	2
  20              	.LC1:
  21 0008 4D495845 		.ascii	"MIXER\000"
  21      5200
  22 000e 0000     		.align	2
  23              	.LC2:
  24 0010 50524546 		.ascii	"PREFS\000"
  24      5300
  25 0016 0000     		.align	2
  26              	.LC4:
  27 0018 526F7574 		.ascii	"Routing\000"
  27      696E6700 
  28              		.align	2
  29              	.LC5:
  30 0020 50617261 		.ascii	"Params\000"
  30      6D7300
  31 0027 00       		.align	2
  32              	.LC6:
  33 0028 456C656D 		.ascii	"Elements\000"
  33      656E7473 
  33      00
  34 0031 000000   		.align	2
  35              	.LC7:
  36 0034 44465520 		.ascii	"DFU Mode\000"
  36      4D6F6465 
  36      00
  37              		.text
  38              	.Ltext0:
  39              		.cfi_sections	.debug_frame
  40              		.section	.text._ZN5daisy5DubbyD2Ev,"axG",%progbits,_ZN5daisy5DubbyD5Ev,comdat
  41              		.align	1
  42              		.p2align 2,,3
  43              		.weak	_ZN5daisy5DubbyD2Ev
  44              		.syntax unified
  45              		.thumb
  46              		.thumb_func
  48              	_ZN5daisy5DubbyD2Ev:
  49              	.LVL0:
ARM GAS  /var/folders/1y/_321xjh9623c014x9_qw12rr0000gn/T//cc1ZQ1Ea.s 			page 2


  50              	.LFB4821:
  51              		.file 1 "Dubby.h"
   1:Dubby.h       **** 
   2:Dubby.h       **** #pragma once
   3:Dubby.h       **** #include "daisy_seed.h"
   4:Dubby.h       **** #include "dev/oled_ssd130x.h"
   5:Dubby.h       **** 
   6:Dubby.h       **** 
   7:Dubby.h       **** #include "./bitmaps/bmps.h"
   8:Dubby.h       **** 
   9:Dubby.h       **** #define AUDIO_BLOCK_SIZE 128 
  10:Dubby.h       **** 
  11:Dubby.h       **** namespace daisy
  12:Dubby.h       **** {
  13:Dubby.h       **** class Dubby
  14:Dubby.h       **** {
  15:Dubby.h       ****   public:
  16:Dubby.h       **** 
  17:Dubby.h       ****     enum MenuItems 
  18:Dubby.h       ****     { 
  19:Dubby.h       ****         MENU1, 
  20:Dubby.h       ****         MENU2, 
  21:Dubby.h       ****         MENU3,
  22:Dubby.h       ****         MENU_LAST // used to know the size of enum
  23:Dubby.h       ****     };
  24:Dubby.h       ****     
  25:Dubby.h       ****     const char * MenuItemsStrings[MENU_LAST] = 
  26:Dubby.h       ****     { 
  27:Dubby.h       ****         "SCOPE", 
  28:Dubby.h       ****         "MIXER", 
  29:Dubby.h       ****         "PREFS" 
  30:Dubby.h       ****     };
  31:Dubby.h       ****     
  32:Dubby.h       ****     enum PreferenesMenuItems 
  33:Dubby.h       ****     { 
  34:Dubby.h       ****         OPTION1, 
  35:Dubby.h       ****         OPTION2,
  36:Dubby.h       ****         OPTION3,
  37:Dubby.h       ****         OPTION4,
  38:Dubby.h       ****         PREFERENCESMENU_LAST // used to know the size of enum
  39:Dubby.h       ****     };
  40:Dubby.h       ****     
  41:Dubby.h       ****     const char * PreferencesMenuItemsStrings[PREFERENCESMENU_LAST] = 
  42:Dubby.h       ****     { 
  43:Dubby.h       ****         "Routing", 
  44:Dubby.h       ****         "Params",
  45:Dubby.h       ****         "Elements",
  46:Dubby.h       ****         "DFU Mode"
  47:Dubby.h       ****     };
  48:Dubby.h       **** 
  49:Dubby.h       ****     enum MenuTypes 
  50:Dubby.h       ****     {
  51:Dubby.h       ****         MAINMENU,
  52:Dubby.h       ****         PREFERENCESMENU
  53:Dubby.h       ****     };
  54:Dubby.h       **** 
  55:Dubby.h       ****     enum Ctrl
ARM GAS  /var/folders/1y/_321xjh9623c014x9_qw12rr0000gn/T//cc1ZQ1Ea.s 			page 3


  56:Dubby.h       ****     {
  57:Dubby.h       ****         CTRL_1,   // knob 1
  58:Dubby.h       ****         CTRL_2,   // knob 2
  59:Dubby.h       ****         CTRL_3,   // knob 3
  60:Dubby.h       ****         CTRL_4,   // knob 4
  61:Dubby.h       ****         CTRL_5,   // joystick horizontal
  62:Dubby.h       ****         CTRL_6,   // joystick vertical
  63:Dubby.h       ****         CTRL_LAST
  64:Dubby.h       ****     };
  65:Dubby.h       **** 
  66:Dubby.h       ****     enum GateInput
  67:Dubby.h       ****     {
  68:Dubby.h       ****         GATE_IN_1,  // button 1
  69:Dubby.h       ****         GATE_IN_2,  // button 2
  70:Dubby.h       ****         GATE_IN_3,  // button 3
  71:Dubby.h       ****         GATE_IN_4,  // button 4
  72:Dubby.h       ****         GATE_IN_5,  // joystick button
  73:Dubby.h       ****         GATE_IN_LAST,
  74:Dubby.h       ****     };
  75:Dubby.h       **** 
  76:Dubby.h       ****     Dubby() {}
  77:Dubby.h       **** 
  78:Dubby.h       ****     ~Dubby() {}
  52              		.loc 1 78 5 view -0
  53              		.cfi_startproc
  54              		@ args = 0, pretend = 0, frame = 0
  55              		@ frame_needed = 0, uses_anonymous_args = 0
  56              		@ link register save eliminated.
  57              	.LBB400:
  58              	.LBI400:
  59              		.file 2 "../../libDaisy//src/hid/midi.h"
   1:../../libDaisy//src/hid/midi.h **** #pragma once
   2:../../libDaisy//src/hid/midi.h **** #ifndef DSY_MIDI_H
   3:../../libDaisy//src/hid/midi.h **** #define DSY_MIDI_H
   4:../../libDaisy//src/hid/midi.h **** 
   5:../../libDaisy//src/hid/midi.h **** // TODO: make this adjustable
   6:../../libDaisy//src/hid/midi.h **** #define SYSEX_BUFFER_LEN 128
   7:../../libDaisy//src/hid/midi.h **** 
   8:../../libDaisy//src/hid/midi.h **** #include <stdint.h>
   9:../../libDaisy//src/hid/midi.h **** #include <stdlib.h>
  10:../../libDaisy//src/hid/midi.h **** #include "per/uart.h"
  11:../../libDaisy//src/hid/midi.h **** #include "util/ringbuffer.h"
  12:../../libDaisy//src/hid/midi.h **** #include "hid/MidiEvent.h"
  13:../../libDaisy//src/hid/midi.h **** #include "hid/usb_midi.h"
  14:../../libDaisy//src/hid/midi.h **** #include "sys/system.h"
  15:../../libDaisy//src/hid/midi.h **** 
  16:../../libDaisy//src/hid/midi.h **** namespace daisy
  17:../../libDaisy//src/hid/midi.h **** {
  18:../../libDaisy//src/hid/midi.h **** /** @brief   Transport layer for sending and receiving MIDI data over UART 
  19:../../libDaisy//src/hid/midi.h ****  *  @details This is the mode of communication used for TRS and DIN MIDI
  20:../../libDaisy//src/hid/midi.h ****  *  @ingroup midi
  21:../../libDaisy//src/hid/midi.h **** */
  22:../../libDaisy//src/hid/midi.h **** class MidiUartTransport
  23:../../libDaisy//src/hid/midi.h **** {
  24:../../libDaisy//src/hid/midi.h ****   public:
  25:../../libDaisy//src/hid/midi.h ****     MidiUartTransport() {}
  26:../../libDaisy//src/hid/midi.h ****     ~MidiUartTransport() {}
ARM GAS  /var/folders/1y/_321xjh9623c014x9_qw12rr0000gn/T//cc1ZQ1Ea.s 			page 4


  27:../../libDaisy//src/hid/midi.h **** 
  28:../../libDaisy//src/hid/midi.h ****     struct Config
  29:../../libDaisy//src/hid/midi.h ****     {
  30:../../libDaisy//src/hid/midi.h ****         UartHandler::Config::Peripheral periph;
  31:../../libDaisy//src/hid/midi.h ****         dsy_gpio_pin                    rx;
  32:../../libDaisy//src/hid/midi.h ****         dsy_gpio_pin                    tx;
  33:../../libDaisy//src/hid/midi.h **** 
  34:../../libDaisy//src/hid/midi.h ****         Config()
  35:../../libDaisy//src/hid/midi.h ****         {
  36:../../libDaisy//src/hid/midi.h ****             periph = UartHandler::Config::Peripheral::USART_1;
  37:../../libDaisy//src/hid/midi.h ****             rx     = {DSY_GPIOB, 7};
  38:../../libDaisy//src/hid/midi.h ****             tx     = {DSY_GPIOB, 6};
  39:../../libDaisy//src/hid/midi.h ****         }
  40:../../libDaisy//src/hid/midi.h ****     };
  41:../../libDaisy//src/hid/midi.h **** 
  42:../../libDaisy//src/hid/midi.h ****     inline void Init(Config config)
  43:../../libDaisy//src/hid/midi.h ****     {
  44:../../libDaisy//src/hid/midi.h ****         UartHandler::Config uart_config;
  45:../../libDaisy//src/hid/midi.h **** 
  46:../../libDaisy//src/hid/midi.h ****         //defaults
  47:../../libDaisy//src/hid/midi.h ****         uart_config.baudrate   = 31250;
  48:../../libDaisy//src/hid/midi.h ****         uart_config.stopbits   = UartHandler::Config::StopBits::BITS_1;
  49:../../libDaisy//src/hid/midi.h ****         uart_config.parity     = UartHandler::Config::Parity::NONE;
  50:../../libDaisy//src/hid/midi.h ****         uart_config.mode       = UartHandler::Config::Mode::TX_RX;
  51:../../libDaisy//src/hid/midi.h ****         uart_config.wordlength = UartHandler::Config::WordLength::BITS_8;
  52:../../libDaisy//src/hid/midi.h **** 
  53:../../libDaisy//src/hid/midi.h ****         //user settings
  54:../../libDaisy//src/hid/midi.h ****         uart_config.periph        = config.periph;
  55:../../libDaisy//src/hid/midi.h ****         uart_config.pin_config.rx = config.rx;
  56:../../libDaisy//src/hid/midi.h ****         uart_config.pin_config.tx = config.tx;
  57:../../libDaisy//src/hid/midi.h **** 
  58:../../libDaisy//src/hid/midi.h ****         uart_.Init(uart_config);
  59:../../libDaisy//src/hid/midi.h ****     }
  60:../../libDaisy//src/hid/midi.h **** 
  61:../../libDaisy//src/hid/midi.h ****     inline void    StartRx() { uart_.StartRx(); }
  62:../../libDaisy//src/hid/midi.h ****     inline size_t  Readable() { return uart_.Readable(); }
  63:../../libDaisy//src/hid/midi.h ****     inline uint8_t Rx() { return uart_.PopRx(); }
  64:../../libDaisy//src/hid/midi.h ****     inline bool    RxActive() { return uart_.RxActive(); }
  65:../../libDaisy//src/hid/midi.h ****     inline void    FlushRx() { uart_.FlushRx(); }
  66:../../libDaisy//src/hid/midi.h ****     inline void    Tx(uint8_t* buff, size_t size) { uart_.PollTx(buff, size); }
  67:../../libDaisy//src/hid/midi.h **** 
  68:../../libDaisy//src/hid/midi.h ****   private:
  69:../../libDaisy//src/hid/midi.h ****     UartHandler uart_;
  70:../../libDaisy//src/hid/midi.h **** };
  71:../../libDaisy//src/hid/midi.h **** 
  72:../../libDaisy//src/hid/midi.h **** /** 
  73:../../libDaisy//src/hid/midi.h ****     @brief Simple MIDI Handler \n 
  74:../../libDaisy//src/hid/midi.h ****     Parses bytes from an input into valid MidiEvents. \n 
  75:../../libDaisy//src/hid/midi.h ****     The MidiEvents fill a FIFO queue that the user can pop messages from.
  76:../../libDaisy//src/hid/midi.h ****     @author shensley
  77:../../libDaisy//src/hid/midi.h ****     @date March 2020
  78:../../libDaisy//src/hid/midi.h ****     @ingroup midi
  79:../../libDaisy//src/hid/midi.h **** */
  80:../../libDaisy//src/hid/midi.h **** template <typename Transport>
  81:../../libDaisy//src/hid/midi.h **** class MidiHandler
  82:../../libDaisy//src/hid/midi.h **** {
  83:../../libDaisy//src/hid/midi.h ****   public:
ARM GAS  /var/folders/1y/_321xjh9623c014x9_qw12rr0000gn/T//cc1ZQ1Ea.s 			page 5


  84:../../libDaisy//src/hid/midi.h ****     MidiHandler() {}
  85:../../libDaisy//src/hid/midi.h ****     ~MidiHandler() {}
  60              		.loc 2 85 5 view .LVU1
  61              	.LBB401:
  62              	.LBI401:
  26:../../libDaisy//src/hid/midi.h **** 
  63              		.loc 2 26 5 view .LVU2
  26:../../libDaisy//src/hid/midi.h **** 
  64              		.loc 2 26 5 is_stmt 0 view .LVU3
  65              	.LBE401:
  66              	.LBE400:
  67              	.LBB402:
  68              	.LBI402:
  69              		.file 3 "../../libDaisy//src/hid/disp/oled_display.h"
   1:../../libDaisy//src/hid/disp/oled_display.h **** #pragma once
   2:../../libDaisy//src/hid/disp/oled_display.h **** #ifndef DSY_OLED_DISPLAY_H
   3:../../libDaisy//src/hid/disp/oled_display.h **** #define DSY_OLED_DISPLAY_H /**< Macro */
   4:../../libDaisy//src/hid/disp/oled_display.h **** 
   5:../../libDaisy//src/hid/disp/oled_display.h **** #include "display.h"
   6:../../libDaisy//src/hid/disp/oled_display.h **** 
   7:../../libDaisy//src/hid/disp/oled_display.h **** namespace daisy
   8:../../libDaisy//src/hid/disp/oled_display.h **** {
   9:../../libDaisy//src/hid/disp/oled_display.h **** /** 
  10:../../libDaisy//src/hid/disp/oled_display.h ****  * This class is for drawing to a monochrome OLED display. 
  11:../../libDaisy//src/hid/disp/oled_display.h ****  * @ingroup device
  12:../../libDaisy//src/hid/disp/oled_display.h **** */
  13:../../libDaisy//src/hid/disp/oled_display.h **** template <typename DisplayDriver>
  14:../../libDaisy//src/hid/disp/oled_display.h **** class OledDisplay : public OneBitGraphicsDisplayImpl<OledDisplay<DisplayDriver>>
  15:../../libDaisy//src/hid/disp/oled_display.h **** {
  16:../../libDaisy//src/hid/disp/oled_display.h ****   public:
  17:../../libDaisy//src/hid/disp/oled_display.h ****     OledDisplay() {}
  18:../../libDaisy//src/hid/disp/oled_display.h ****     virtual ~OledDisplay() {}
  70              		.loc 3 18 13 is_stmt 1 view .LVU4
  71              	.LBB403:
  72              	.LBI403:
  73              		.file 4 "../../libDaisy//src/hid/disp/display.h"
   1:../../libDaisy//src/hid/disp/display.h **** #pragma once
   2:../../libDaisy//src/hid/disp/display.h **** #ifndef DSY_DISPLAY_H
   3:../../libDaisy//src/hid/disp/display.h **** #define DSY_DISPLAY_H /**< Macro */
   4:../../libDaisy//src/hid/disp/display.h **** #include <cmath>
   5:../../libDaisy//src/hid/disp/display.h **** #include "util/oled_fonts.h"
   6:../../libDaisy//src/hid/disp/display.h **** #include "daisy_core.h"
   7:../../libDaisy//src/hid/disp/display.h **** #include "graphics_common.h"
   8:../../libDaisy//src/hid/disp/display.h **** 
   9:../../libDaisy//src/hid/disp/display.h **** #ifndef deg2rad
  10:../../libDaisy//src/hid/disp/display.h **** #define deg2rad(deg) ((deg)*3.141592 / 180.0)
  11:../../libDaisy//src/hid/disp/display.h **** #endif
  12:../../libDaisy//src/hid/disp/display.h **** 
  13:../../libDaisy//src/hid/disp/display.h **** namespace daisy
  14:../../libDaisy//src/hid/disp/display.h **** {
  15:../../libDaisy//src/hid/disp/display.h **** /** 
  16:../../libDaisy//src/hid/disp/display.h ****  * This interface is used as a base class for all types of 1bit-per-pixel
  17:../../libDaisy//src/hid/disp/display.h ****  * graphics displays.
  18:../../libDaisy//src/hid/disp/display.h **** */
  19:../../libDaisy//src/hid/disp/display.h **** class OneBitGraphicsDisplay
  20:../../libDaisy//src/hid/disp/display.h **** {
  21:../../libDaisy//src/hid/disp/display.h ****   public:
ARM GAS  /var/folders/1y/_321xjh9623c014x9_qw12rr0000gn/T//cc1ZQ1Ea.s 			page 6


  22:../../libDaisy//src/hid/disp/display.h ****     OneBitGraphicsDisplay() {}
  23:../../libDaisy//src/hid/disp/display.h ****     virtual ~OneBitGraphicsDisplay() {}
  24:../../libDaisy//src/hid/disp/display.h **** 
  25:../../libDaisy//src/hid/disp/display.h ****     virtual uint16_t Height() const = 0;
  26:../../libDaisy//src/hid/disp/display.h ****     virtual uint16_t Width() const  = 0;
  27:../../libDaisy//src/hid/disp/display.h **** 
  28:../../libDaisy//src/hid/disp/display.h ****     Rectangle GetBounds() const
  29:../../libDaisy//src/hid/disp/display.h ****     {
  30:../../libDaisy//src/hid/disp/display.h ****         return Rectangle(int16_t(Width()), int16_t(Height()));
  31:../../libDaisy//src/hid/disp/display.h ****     }
  32:../../libDaisy//src/hid/disp/display.h **** 
  33:../../libDaisy//src/hid/disp/display.h **** 
  34:../../libDaisy//src/hid/disp/display.h ****     size_t CurrentX() { return currentX_; };
  35:../../libDaisy//src/hid/disp/display.h ****     size_t CurrentY() { return currentY_; };
  36:../../libDaisy//src/hid/disp/display.h **** 
  37:../../libDaisy//src/hid/disp/display.h ****     /** 
  38:../../libDaisy//src/hid/disp/display.h ****     Fills the entire display with either on/off.
  39:../../libDaisy//src/hid/disp/display.h ****     \param on Sets on or off.
  40:../../libDaisy//src/hid/disp/display.h ****     */
  41:../../libDaisy//src/hid/disp/display.h ****     virtual void Fill(bool on) = 0;
  42:../../libDaisy//src/hid/disp/display.h **** 
  43:../../libDaisy//src/hid/disp/display.h ****     /**
  44:../../libDaisy//src/hid/disp/display.h ****     Sets the pixel at the specified coordinate to be on/off.
  45:../../libDaisy//src/hid/disp/display.h ****     \param x   x Coordinate
  46:../../libDaisy//src/hid/disp/display.h ****     \param y   y coordinate
  47:../../libDaisy//src/hid/disp/display.h ****     \param on  on or off
  48:../../libDaisy//src/hid/disp/display.h ****     */
  49:../../libDaisy//src/hid/disp/display.h ****     virtual void DrawPixel(uint_fast8_t x, uint_fast8_t y, bool on) = 0;
  50:../../libDaisy//src/hid/disp/display.h **** 
  51:../../libDaisy//src/hid/disp/display.h ****     /**
  52:../../libDaisy//src/hid/disp/display.h ****     Draws a line from (x1, y1) to (y1, y2)
  53:../../libDaisy//src/hid/disp/display.h ****     \param x1  x Coordinate of the starting point
  54:../../libDaisy//src/hid/disp/display.h ****     \param y1  y Coordinate of the starting point
  55:../../libDaisy//src/hid/disp/display.h ****     \param x2  x Coordinate of the ending point
  56:../../libDaisy//src/hid/disp/display.h ****     \param y2  y Coordinate of the ending point
  57:../../libDaisy//src/hid/disp/display.h ****     \param on  on or off
  58:../../libDaisy//src/hid/disp/display.h ****     */
  59:../../libDaisy//src/hid/disp/display.h ****     virtual void DrawLine(uint_fast8_t x1,
  60:../../libDaisy//src/hid/disp/display.h ****                           uint_fast8_t y1,
  61:../../libDaisy//src/hid/disp/display.h ****                           uint_fast8_t x2,
  62:../../libDaisy//src/hid/disp/display.h ****                           uint_fast8_t y2,
  63:../../libDaisy//src/hid/disp/display.h ****                           bool         on)
  64:../../libDaisy//src/hid/disp/display.h ****         = 0;
  65:../../libDaisy//src/hid/disp/display.h **** 
  66:../../libDaisy//src/hid/disp/display.h ****     /**
  67:../../libDaisy//src/hid/disp/display.h ****     Draws a rectangle based on two coordinates.
  68:../../libDaisy//src/hid/disp/display.h ****     \param x1 x Coordinate of the first point
  69:../../libDaisy//src/hid/disp/display.h ****     \param y1 y Coordinate of the first point
  70:../../libDaisy//src/hid/disp/display.h ****     \param x2 x Coordinate of the second point
  71:../../libDaisy//src/hid/disp/display.h ****     \param y2 y Coordinate of the second point
  72:../../libDaisy//src/hid/disp/display.h ****     \param on on or off
  73:../../libDaisy//src/hid/disp/display.h ****     \param fill fill the rectangle or draw only the outline
  74:../../libDaisy//src/hid/disp/display.h ****     */
  75:../../libDaisy//src/hid/disp/display.h ****     virtual void DrawRect(uint_fast8_t x1,
  76:../../libDaisy//src/hid/disp/display.h ****                           uint_fast8_t y1,
  77:../../libDaisy//src/hid/disp/display.h ****                           uint_fast8_t x2,
  78:../../libDaisy//src/hid/disp/display.h ****                           uint_fast8_t y2,
ARM GAS  /var/folders/1y/_321xjh9623c014x9_qw12rr0000gn/T//cc1ZQ1Ea.s 			page 7


  79:../../libDaisy//src/hid/disp/display.h ****                           bool         on,
  80:../../libDaisy//src/hid/disp/display.h ****                           bool         fill = false)
  81:../../libDaisy//src/hid/disp/display.h ****         = 0;
  82:../../libDaisy//src/hid/disp/display.h **** 
  83:../../libDaisy//src/hid/disp/display.h ****     /**
  84:../../libDaisy//src/hid/disp/display.h ****     Draws a rectangle.
  85:../../libDaisy//src/hid/disp/display.h ****     \param rect the rectangle
  86:../../libDaisy//src/hid/disp/display.h ****     \param on   on or off
  87:../../libDaisy//src/hid/disp/display.h ****     \param fill fill the rectangle or draw only the outline
  88:../../libDaisy//src/hid/disp/display.h ****     */
  89:../../libDaisy//src/hid/disp/display.h ****     void DrawRect(const Rectangle& rect, bool on, bool fill = false)
  90:../../libDaisy//src/hid/disp/display.h ****     {
  91:../../libDaisy//src/hid/disp/display.h ****         DrawRect(rect.GetX(),
  92:../../libDaisy//src/hid/disp/display.h ****                  rect.GetY(),
  93:../../libDaisy//src/hid/disp/display.h ****                  rect.GetRight(),
  94:../../libDaisy//src/hid/disp/display.h ****                  rect.GetBottom(),
  95:../../libDaisy//src/hid/disp/display.h ****                  on,
  96:../../libDaisy//src/hid/disp/display.h ****                  fill);
  97:../../libDaisy//src/hid/disp/display.h ****     }
  98:../../libDaisy//src/hid/disp/display.h **** 
  99:../../libDaisy//src/hid/disp/display.h ****     /**
 100:../../libDaisy//src/hid/disp/display.h ****     Draws an arc around the specified coordinate
 101:../../libDaisy//src/hid/disp/display.h ****     \param x           x Coordinate of the center of the arc
 102:../../libDaisy//src/hid/disp/display.h ****     \param y           y Coordinate of the center of the arc
 103:../../libDaisy//src/hid/disp/display.h ****     \param radius      radius of the arc
 104:../../libDaisy//src/hid/disp/display.h ****     \param start_angle angle where to start the arc
 105:../../libDaisy//src/hid/disp/display.h ****     \param sweep       total angle of the arc
 106:../../libDaisy//src/hid/disp/display.h ****     \param on  on or off
 107:../../libDaisy//src/hid/disp/display.h ****     */
 108:../../libDaisy//src/hid/disp/display.h ****     virtual void DrawArc(uint_fast8_t x,
 109:../../libDaisy//src/hid/disp/display.h ****                          uint_fast8_t y,
 110:../../libDaisy//src/hid/disp/display.h ****                          uint_fast8_t radius,
 111:../../libDaisy//src/hid/disp/display.h ****                          int_fast16_t start_angle,
 112:../../libDaisy//src/hid/disp/display.h ****                          int_fast16_t sweep,
 113:../../libDaisy//src/hid/disp/display.h ****                          bool         on)
 114:../../libDaisy//src/hid/disp/display.h ****         = 0;
 115:../../libDaisy//src/hid/disp/display.h **** 
 116:../../libDaisy//src/hid/disp/display.h ****     /**
 117:../../libDaisy//src/hid/disp/display.h ****     Draws a circle around the specified coordinate
 118:../../libDaisy//src/hid/disp/display.h ****     \param x           x Coordinate of the center of the circle
 119:../../libDaisy//src/hid/disp/display.h ****     \param y           y Coordinate of the center of the circle
 120:../../libDaisy//src/hid/disp/display.h ****     \param radius      radius of the circle
 121:../../libDaisy//src/hid/disp/display.h ****     \param on  on or off
 122:../../libDaisy//src/hid/disp/display.h ****     */
 123:../../libDaisy//src/hid/disp/display.h ****     void
 124:../../libDaisy//src/hid/disp/display.h ****     DrawCircle(uint_fast8_t x, uint_fast8_t y, uint_fast8_t radius, bool on)
 125:../../libDaisy//src/hid/disp/display.h ****     {
 126:../../libDaisy//src/hid/disp/display.h ****         DrawArc(x, y, radius, 0, 360, on);
 127:../../libDaisy//src/hid/disp/display.h ****     };
 128:../../libDaisy//src/hid/disp/display.h **** 
 129:../../libDaisy//src/hid/disp/display.h ****     /** 
 130:../../libDaisy//src/hid/disp/display.h ****     Writes the character with the specific FontDef
 131:../../libDaisy//src/hid/disp/display.h ****     to the display buffer at the current Cursor position.
 132:../../libDaisy//src/hid/disp/display.h ****     \param ch character to be written
 133:../../libDaisy//src/hid/disp/display.h ****     \param font font to be written in
 134:../../libDaisy//src/hid/disp/display.h ****     \param on    on or off
 135:../../libDaisy//src/hid/disp/display.h ****     \return &
ARM GAS  /var/folders/1y/_321xjh9623c014x9_qw12rr0000gn/T//cc1ZQ1Ea.s 			page 8


 136:../../libDaisy//src/hid/disp/display.h ****     */
 137:../../libDaisy//src/hid/disp/display.h ****     virtual char WriteChar(char ch, FontDef font, bool on) = 0;
 138:../../libDaisy//src/hid/disp/display.h **** 
 139:../../libDaisy//src/hid/disp/display.h ****     /** 
 140:../../libDaisy//src/hid/disp/display.h ****     Similar to WriteChar, except it will handle an entire String.
 141:../../libDaisy//src/hid/disp/display.h ****     Wrapping does not happen automatically, so the width
 142:../../libDaisy//src/hid/disp/display.h ****     of the string must be kept within the dimensions of the screen.
 143:../../libDaisy//src/hid/disp/display.h ****     \param str string to be written
 144:../../libDaisy//src/hid/disp/display.h ****     \param font font to use
 145:../../libDaisy//src/hid/disp/display.h ****     \param on  on or off
 146:../../libDaisy//src/hid/disp/display.h ****     \return &
 147:../../libDaisy//src/hid/disp/display.h ****     */
 148:../../libDaisy//src/hid/disp/display.h ****     virtual char WriteString(const char* str, FontDef font, bool on) = 0;
 149:../../libDaisy//src/hid/disp/display.h **** 
 150:../../libDaisy//src/hid/disp/display.h ****     /** 
 151:../../libDaisy//src/hid/disp/display.h ****     Similar to WriteString but justified within a bounding box.
 152:../../libDaisy//src/hid/disp/display.h ****     \param str          string to be written
 153:../../libDaisy//src/hid/disp/display.h ****     \param font         font to use
 154:../../libDaisy//src/hid/disp/display.h ****     \param boundingBox  the bounding box to draw the text in
 155:../../libDaisy//src/hid/disp/display.h ****     \param alignment    the alignment to use
 156:../../libDaisy//src/hid/disp/display.h ****     \param on           on or off
 157:../../libDaisy//src/hid/disp/display.h ****     \return The rectangle that was drawn to
 158:../../libDaisy//src/hid/disp/display.h ****     */
 159:../../libDaisy//src/hid/disp/display.h ****     virtual Rectangle WriteStringAligned(const char*    str,
 160:../../libDaisy//src/hid/disp/display.h ****                                          const FontDef& font,
 161:../../libDaisy//src/hid/disp/display.h ****                                          Rectangle      boundingBox,
 162:../../libDaisy//src/hid/disp/display.h ****                                          Alignment      alignment,
 163:../../libDaisy//src/hid/disp/display.h ****                                          bool           on)
 164:../../libDaisy//src/hid/disp/display.h ****         = 0;
 165:../../libDaisy//src/hid/disp/display.h **** 
 166:../../libDaisy//src/hid/disp/display.h ****     /** 
 167:../../libDaisy//src/hid/disp/display.h ****     Moves the 'Cursor' position used for WriteChar, and WriteStr to the specified coordinate.
 168:../../libDaisy//src/hid/disp/display.h ****     \param x x pos
 169:../../libDaisy//src/hid/disp/display.h ****     \param y y pos
 170:../../libDaisy//src/hid/disp/display.h ****     */
 171:../../libDaisy//src/hid/disp/display.h ****     void SetCursor(uint16_t x, uint16_t y)
 172:../../libDaisy//src/hid/disp/display.h ****     {
 173:../../libDaisy//src/hid/disp/display.h ****         currentX_ = (x >= Width()) ? Width() - 1 : x;
 174:../../libDaisy//src/hid/disp/display.h ****         currentY_ = (y >= Height()) ? Height() - 1 : y;
 175:../../libDaisy//src/hid/disp/display.h ****     }
 176:../../libDaisy//src/hid/disp/display.h **** 
 177:../../libDaisy//src/hid/disp/display.h ****     /** 
 178:../../libDaisy//src/hid/disp/display.h ****     Writes the current display buffer to the OLED device using SPI or I2C depending on 
 179:../../libDaisy//src/hid/disp/display.h ****     how the object was initialized.
 180:../../libDaisy//src/hid/disp/display.h ****     */
 181:../../libDaisy//src/hid/disp/display.h ****     virtual void Update() = 0;
 182:../../libDaisy//src/hid/disp/display.h **** 
 183:../../libDaisy//src/hid/disp/display.h ****   protected:
 184:../../libDaisy//src/hid/disp/display.h ****     uint16_t currentX_;
 185:../../libDaisy//src/hid/disp/display.h ****     uint16_t currentY_;
 186:../../libDaisy//src/hid/disp/display.h **** };
 187:../../libDaisy//src/hid/disp/display.h **** 
 188:../../libDaisy//src/hid/disp/display.h **** /** This class is intended as a intermediary class for your actual implementation of the OneBitGrap
 189:../../libDaisy//src/hid/disp/display.h ****  *  interface. It uses the CRTP design pattern where the template argument is the child class. It p
 190:../../libDaisy//src/hid/disp/display.h ****  *  implementations for most of the functions, except DrawPixel(), Update() and Fill(), which you'l
 191:../../libDaisy//src/hid/disp/display.h ****  *  to provide in your child class.
 192:../../libDaisy//src/hid/disp/display.h ****  *  The main goal of this class is to provide common drawing functions without relying on massive a
ARM GAS  /var/folders/1y/_321xjh9623c014x9_qw12rr0000gn/T//cc1ZQ1Ea.s 			page 9


 193:../../libDaisy//src/hid/disp/display.h ****  *  virtual function calls that would result in a performance loss. To achieve this, any drawing fu
 194:../../libDaisy//src/hid/disp/display.h ****  *  is implemented here and internally calls other drawing functions (e.g. DrawRect() which interna
 195:../../libDaisy//src/hid/disp/display.h ****  *  DrawPixel() and DrawLine()) makes these calls via the qualified name of these functions to expl
 196:../../libDaisy//src/hid/disp/display.h ****  *  suppress the virtual dispatch mechanism like this:
 197:../../libDaisy//src/hid/disp/display.h ****  * 
 198:../../libDaisy//src/hid/disp/display.h ****  *      ChildType::DrawPixel(...); // no virtual function call; direct call into the child class fu
 199:../../libDaisy//src/hid/disp/display.h ****  *  
 200:../../libDaisy//src/hid/disp/display.h ****  *  To create a custom OneBitGraphicsDisplay implementation, you can 
 201:../../libDaisy//src/hid/disp/display.h ****  *  A) inherit from OneBitGraphicsDisplay directly and provide all the drawing functions yourself
 202:../../libDaisy//src/hid/disp/display.h ****  *  B) Inherit from OneBitGraphicsDisplayImpl and only provide DrawPixel(), Fill() and Update()
 203:../../libDaisy//src/hid/disp/display.h ****  *     like this:
 204:../../libDaisy//src/hid/disp/display.h ****  *  
 205:../../libDaisy//src/hid/disp/display.h ****  *      class MyDisplayClass : public OneBitGraphicsDisplayImpl<MyDisplayClass> 
 206:../../libDaisy//src/hid/disp/display.h ****  *      {
 207:../../libDaisy//src/hid/disp/display.h ****  *      public:
 208:../../libDaisy//src/hid/disp/display.h ****  *          void Fill() override { ... };
 209:../../libDaisy//src/hid/disp/display.h ****  *          void DrawPixel(uint_fast8_t x, uint_fast8_t y, bool on) override { ... };
 210:../../libDaisy//src/hid/disp/display.h ****  *          void Update() override { ... }
 211:../../libDaisy//src/hid/disp/display.h ****  *      };
 212:../../libDaisy//src/hid/disp/display.h ****  *  
 213:../../libDaisy//src/hid/disp/display.h ****  */
 214:../../libDaisy//src/hid/disp/display.h **** template <class ChildType>
 215:../../libDaisy//src/hid/disp/display.h **** class OneBitGraphicsDisplayImpl : public OneBitGraphicsDisplay
 216:../../libDaisy//src/hid/disp/display.h **** {
 217:../../libDaisy//src/hid/disp/display.h ****   public:
 218:../../libDaisy//src/hid/disp/display.h ****     OneBitGraphicsDisplayImpl() {}
 219:../../libDaisy//src/hid/disp/display.h ****     virtual ~OneBitGraphicsDisplayImpl() {}
  74              		.loc 4 219 13 view .LVU5
  75              	.LBB404:
  76              	.LBI404:
  23:../../libDaisy//src/hid/disp/display.h **** 
  77              		.loc 4 23 13 view .LVU6
  23:../../libDaisy//src/hid/disp/display.h **** 
  78              		.loc 4 23 13 is_stmt 0 view .LVU7
  79              	.LBE404:
  80              	.LBE403:
  81              	.LBE402:
  82              	.LBB405:
  83              	.LBI405:
  84              		.file 5 "../../libDaisy//src/hid/encoder.h"
   1:../../libDaisy//src/hid/encoder.h **** #pragma once
   2:../../libDaisy//src/hid/encoder.h **** #ifndef DSY_ENCODER_H
   3:../../libDaisy//src/hid/encoder.h **** #define DSY_ENCODER_H
   4:../../libDaisy//src/hid/encoder.h **** #include "daisy_core.h"
   5:../../libDaisy//src/hid/encoder.h **** #include "per/gpio.h"
   6:../../libDaisy//src/hid/encoder.h **** #include "hid/switch.h"
   7:../../libDaisy//src/hid/encoder.h **** 
   8:../../libDaisy//src/hid/encoder.h **** namespace daisy
   9:../../libDaisy//src/hid/encoder.h **** {
  10:../../libDaisy//src/hid/encoder.h **** /** 
  11:../../libDaisy//src/hid/encoder.h ****     @brief Generic Class for handling Quadrature Encoders \n 
  12:../../libDaisy//src/hid/encoder.h ****     Inspired/influenced by Mutable Instruments (pichenettes) Encoder classes
  13:../../libDaisy//src/hid/encoder.h ****     @author Stephen Hensley
  14:../../libDaisy//src/hid/encoder.h ****     @date December 2019
  15:../../libDaisy//src/hid/encoder.h ****     @ingroup controls
  16:../../libDaisy//src/hid/encoder.h **** */
  17:../../libDaisy//src/hid/encoder.h **** class Encoder
ARM GAS  /var/folders/1y/_321xjh9623c014x9_qw12rr0000gn/T//cc1ZQ1Ea.s 			page 10


  18:../../libDaisy//src/hid/encoder.h **** {
  19:../../libDaisy//src/hid/encoder.h ****   public:
  20:../../libDaisy//src/hid/encoder.h ****     Encoder() {}
  21:../../libDaisy//src/hid/encoder.h ****     ~Encoder() {}
  85              		.loc 5 21 5 is_stmt 1 view .LVU8
  86              	.LBB406:
  87              	.LBI406:
  88              		.file 6 "../../libDaisy//src/hid/switch.h"
   1:../../libDaisy//src/hid/switch.h **** #pragma once
   2:../../libDaisy//src/hid/switch.h **** #ifndef DSY_SWITCH_H
   3:../../libDaisy//src/hid/switch.h **** #define DSY_SWITCH_H
   4:../../libDaisy//src/hid/switch.h **** #include "daisy_core.h"
   5:../../libDaisy//src/hid/switch.h **** #include "per/gpio.h"
   6:../../libDaisy//src/hid/switch.h **** #include "sys/system.h"
   7:../../libDaisy//src/hid/switch.h **** 
   8:../../libDaisy//src/hid/switch.h **** namespace daisy
   9:../../libDaisy//src/hid/switch.h **** {
  10:../../libDaisy//src/hid/switch.h **** /** 
  11:../../libDaisy//src/hid/switch.h ****     Generic Class for handling momentary/latching switches \n 
  12:../../libDaisy//src/hid/switch.h ****     Inspired/influenced by Mutable Instruments (pichenettes) Switch classes
  13:../../libDaisy//src/hid/switch.h ****     @author Stephen Hensley
  14:../../libDaisy//src/hid/switch.h ****     @date December 2019
  15:../../libDaisy//src/hid/switch.h ****     @ingroup controls
  16:../../libDaisy//src/hid/switch.h **** */
  17:../../libDaisy//src/hid/switch.h **** class Switch
  18:../../libDaisy//src/hid/switch.h **** {
  19:../../libDaisy//src/hid/switch.h ****   public:
  20:../../libDaisy//src/hid/switch.h ****     /** Specifies the expected behavior of the switch */
  21:../../libDaisy//src/hid/switch.h ****     enum Type
  22:../../libDaisy//src/hid/switch.h ****     {
  23:../../libDaisy//src/hid/switch.h ****         TYPE_TOGGLE,    /**< & */
  24:../../libDaisy//src/hid/switch.h ****         TYPE_MOMENTARY, /**< & */
  25:../../libDaisy//src/hid/switch.h ****     };
  26:../../libDaisy//src/hid/switch.h ****     /** Specifies whether the pressed is HIGH or LOW. */
  27:../../libDaisy//src/hid/switch.h ****     enum Polarity
  28:../../libDaisy//src/hid/switch.h ****     {
  29:../../libDaisy//src/hid/switch.h ****         POLARITY_NORMAL,   /**< & */
  30:../../libDaisy//src/hid/switch.h ****         POLARITY_INVERTED, /**< & */
  31:../../libDaisy//src/hid/switch.h ****     };
  32:../../libDaisy//src/hid/switch.h **** 
  33:../../libDaisy//src/hid/switch.h ****     /** Specifies whether to use built-in Pull Up/Down resistors to hold button at a given state wh
  34:../../libDaisy//src/hid/switch.h ****     enum Pull
  35:../../libDaisy//src/hid/switch.h ****     {
  36:../../libDaisy//src/hid/switch.h ****         PULL_UP,   /**< & */
  37:../../libDaisy//src/hid/switch.h ****         PULL_DOWN, /**< & */
  38:../../libDaisy//src/hid/switch.h ****         PULL_NONE, /**< & */
  39:../../libDaisy//src/hid/switch.h ****     };
  40:../../libDaisy//src/hid/switch.h **** 
  41:../../libDaisy//src/hid/switch.h ****     Switch() {}
  42:../../libDaisy//src/hid/switch.h ****     ~Switch() {}
  89              		.loc 6 42 5 view .LVU9
  90              		.loc 6 42 5 is_stmt 0 view .LVU10
  91              	.LBE406:
  92              	.LBE405:
  93              	.LBB407:
  94              	.LBI407:
  95              		.file 7 "../../libDaisy//src/daisy_seed.h"
ARM GAS  /var/folders/1y/_321xjh9623c014x9_qw12rr0000gn/T//cc1ZQ1Ea.s 			page 11


   1:../../libDaisy//src/daisy_seed.h **** #pragma once
   2:../../libDaisy//src/daisy_seed.h **** #ifndef DSY_SEED_H
   3:../../libDaisy//src/daisy_seed.h **** #define DSY_SEED_H
   4:../../libDaisy//src/daisy_seed.h **** 
   5:../../libDaisy//src/daisy_seed.h **** #include "daisy.h"
   6:../../libDaisy//src/daisy_seed.h **** 
   7:../../libDaisy//src/daisy_seed.h **** //Uncomment this out if you're still using the rev2 hardware
   8:../../libDaisy//src/daisy_seed.h **** //#define SEED_REV2
   9:../../libDaisy//src/daisy_seed.h **** 
  10:../../libDaisy//src/daisy_seed.h **** namespace daisy
  11:../../libDaisy//src/daisy_seed.h **** {
  12:../../libDaisy//src/daisy_seed.h **** /**
  13:../../libDaisy//src/daisy_seed.h ****    @brief This is the higher-level interface for the Daisy board. \n 
  14:../../libDaisy//src/daisy_seed.h ****     All basic peripheral configuration/initialization is setup here. \n
  15:../../libDaisy//src/daisy_seed.h **** 
  16:../../libDaisy//src/daisy_seed.h ****    @ingroup boards
  17:../../libDaisy//src/daisy_seed.h **** */
  18:../../libDaisy//src/daisy_seed.h **** class DaisySeed
  19:../../libDaisy//src/daisy_seed.h **** {
  20:../../libDaisy//src/daisy_seed.h ****   public:
  21:../../libDaisy//src/daisy_seed.h ****     DaisySeed() {}
  22:../../libDaisy//src/daisy_seed.h ****     ~DaisySeed() {}
  96              		.loc 7 22 5 is_stmt 1 view .LVU11
  97              	.LBB408:
  98              	.LBI408:
  99              		.file 8 "../../libDaisy//src/sys/system.h"
   1:../../libDaisy//src/sys/system.h **** #ifndef DSY_SYSTEM_H
   2:../../libDaisy//src/sys/system.h **** #define DSY_SYSTEM_H
   3:../../libDaisy//src/sys/system.h **** 
   4:../../libDaisy//src/sys/system.h **** #ifndef UNIT_TEST // for unit tests, a dummy implementation is provided below
   5:../../libDaisy//src/sys/system.h **** 
   6:../../libDaisy//src/sys/system.h **** #include <cstdint>
   7:../../libDaisy//src/sys/system.h **** #include "per/tim.h"
   8:../../libDaisy//src/sys/system.h **** 
   9:../../libDaisy//src/sys/system.h **** namespace daisy
  10:../../libDaisy//src/sys/system.h **** {
  11:../../libDaisy//src/sys/system.h **** /** A handle for interacting with the Core System. 
  12:../../libDaisy//src/sys/system.h ****  ** This includes the Clock tree, MPU, global DMA initialization,
  13:../../libDaisy//src/sys/system.h ****  ** cache handling, and any other necessary global initiailzation
  14:../../libDaisy//src/sys/system.h ****  **
  15:../../libDaisy//src/sys/system.h ****  ** @author shensley
  16:../../libDaisy//src/sys/system.h ****  ** @ingroup system
  17:../../libDaisy//src/sys/system.h ****  */
  18:../../libDaisy//src/sys/system.h **** class System
  19:../../libDaisy//src/sys/system.h **** {
  20:../../libDaisy//src/sys/system.h ****   public:
  21:../../libDaisy//src/sys/system.h ****     /** Contains settings for initializing the System */
  22:../../libDaisy//src/sys/system.h ****     struct Config
  23:../../libDaisy//src/sys/system.h ****     {
  24:../../libDaisy//src/sys/system.h ****         /** Specifies the system clock frequency that feeds APB/AHB clocks, etc. */
  25:../../libDaisy//src/sys/system.h ****         enum class SysClkFreq
  26:../../libDaisy//src/sys/system.h ****         {
  27:../../libDaisy//src/sys/system.h ****             FREQ_400MHZ,
  28:../../libDaisy//src/sys/system.h ****             FREQ_480MHZ,
  29:../../libDaisy//src/sys/system.h ****         };
  30:../../libDaisy//src/sys/system.h **** 
  31:../../libDaisy//src/sys/system.h ****         /** Method to call on the struct to set to defaults
ARM GAS  /var/folders/1y/_321xjh9623c014x9_qw12rr0000gn/T//cc1ZQ1Ea.s 			page 12


  32:../../libDaisy//src/sys/system.h ****          ** CPU Freq set to 400MHz
  33:../../libDaisy//src/sys/system.h ****          ** Cache Enabled 
  34:../../libDaisy//src/sys/system.h ****          ** */
  35:../../libDaisy//src/sys/system.h ****         void Defaults()
  36:../../libDaisy//src/sys/system.h ****         {
  37:../../libDaisy//src/sys/system.h ****             cpu_freq    = SysClkFreq::FREQ_400MHZ;
  38:../../libDaisy//src/sys/system.h ****             use_dcache  = true;
  39:../../libDaisy//src/sys/system.h ****             use_icache  = true;
  40:../../libDaisy//src/sys/system.h ****             skip_clocks = false;
  41:../../libDaisy//src/sys/system.h ****         }
  42:../../libDaisy//src/sys/system.h **** 
  43:../../libDaisy//src/sys/system.h ****         /** Method to call on the struct to set to boost mode:
  44:../../libDaisy//src/sys/system.h ****          ** CPU Freq set to 480MHz
  45:../../libDaisy//src/sys/system.h ****          ** Cache Enabled 
  46:../../libDaisy//src/sys/system.h ****          ** */
  47:../../libDaisy//src/sys/system.h ****         void Boost()
  48:../../libDaisy//src/sys/system.h ****         {
  49:../../libDaisy//src/sys/system.h ****             cpu_freq    = SysClkFreq::FREQ_480MHZ;
  50:../../libDaisy//src/sys/system.h ****             use_dcache  = true;
  51:../../libDaisy//src/sys/system.h ****             use_icache  = true;
  52:../../libDaisy//src/sys/system.h ****             skip_clocks = false;
  53:../../libDaisy//src/sys/system.h ****         }
  54:../../libDaisy//src/sys/system.h **** 
  55:../../libDaisy//src/sys/system.h ****         SysClkFreq cpu_freq;
  56:../../libDaisy//src/sys/system.h ****         bool       use_dcache;
  57:../../libDaisy//src/sys/system.h ****         bool       use_icache;
  58:../../libDaisy//src/sys/system.h ****         bool       skip_clocks;
  59:../../libDaisy//src/sys/system.h ****     };
  60:../../libDaisy//src/sys/system.h **** 
  61:../../libDaisy//src/sys/system.h ****     /** Describes the different regions of memory available to the Daisy
  62:../../libDaisy//src/sys/system.h ****      * 
  63:../../libDaisy//src/sys/system.h ****      */
  64:../../libDaisy//src/sys/system.h ****     enum MemoryRegion
  65:../../libDaisy//src/sys/system.h ****     {
  66:../../libDaisy//src/sys/system.h ****         INTERNAL_FLASH = 0,
  67:../../libDaisy//src/sys/system.h ****         ITCMRAM,
  68:../../libDaisy//src/sys/system.h ****         DTCMRAM,
  69:../../libDaisy//src/sys/system.h ****         SRAM_D1,
  70:../../libDaisy//src/sys/system.h ****         SRAM_D2,
  71:../../libDaisy//src/sys/system.h ****         SRAM_D3,
  72:../../libDaisy//src/sys/system.h ****         SDRAM,
  73:../../libDaisy//src/sys/system.h ****         QSPI,
  74:../../libDaisy//src/sys/system.h ****         INVALID_ADDRESS,
  75:../../libDaisy//src/sys/system.h ****     };
  76:../../libDaisy//src/sys/system.h **** 
  77:../../libDaisy//src/sys/system.h ****     System() {}
  78:../../libDaisy//src/sys/system.h ****     ~System() {}
 100              		.loc 8 78 5 view .LVU12
 101              		.loc 8 78 5 is_stmt 0 view .LVU13
 102              	.LBE408:
 103              	.LBB409:
 104              	.LBI409:
 105              		.file 9 "../../libDaisy//src/hid/usb.h"
   1:../../libDaisy//src/hid/usb.h **** #pragma once
   2:../../libDaisy//src/hid/usb.h **** #ifndef DSY_HID_USB_H
   3:../../libDaisy//src/hid/usb.h **** #define DSY_HID_USB_H
   4:../../libDaisy//src/hid/usb.h **** #include <stdint.h>
ARM GAS  /var/folders/1y/_321xjh9623c014x9_qw12rr0000gn/T//cc1ZQ1Ea.s 			page 13


   5:../../libDaisy//src/hid/usb.h **** #include <stdlib.h>
   6:../../libDaisy//src/hid/usb.h **** 
   7:../../libDaisy//src/hid/usb.h **** namespace daisy
   8:../../libDaisy//src/hid/usb.h **** /** @addtogroup human_interface
   9:../../libDaisy//src/hid/usb.h ****     @{
  10:../../libDaisy//src/hid/usb.h **** */
  11:../../libDaisy//src/hid/usb.h **** 
  12:../../libDaisy//src/hid/usb.h **** {
  13:../../libDaisy//src/hid/usb.h **** /** 
  14:../../libDaisy//src/hid/usb.h ****     @brief Interface for initializing and using the USB Peripherals on the daisy
  15:../../libDaisy//src/hid/usb.h ****     @author Stephen Hensley
  16:../../libDaisy//src/hid/usb.h ****     @date December 2019
  17:../../libDaisy//src/hid/usb.h **** */
  18:../../libDaisy//src/hid/usb.h **** class UsbHandle
  19:../../libDaisy//src/hid/usb.h **** {
  20:../../libDaisy//src/hid/usb.h ****   public:
  21:../../libDaisy//src/hid/usb.h ****     /** Return values for USBHandle Functions */
  22:../../libDaisy//src/hid/usb.h ****     enum class Result
  23:../../libDaisy//src/hid/usb.h ****     {
  24:../../libDaisy//src/hid/usb.h ****         OK,
  25:../../libDaisy//src/hid/usb.h ****         ERR,
  26:../../libDaisy//src/hid/usb.h ****     };
  27:../../libDaisy//src/hid/usb.h **** 
  28:../../libDaisy//src/hid/usb.h ****     /** Specified which of the two USB Peripherals to initialize. */
  29:../../libDaisy//src/hid/usb.h ****     enum UsbPeriph
  30:../../libDaisy//src/hid/usb.h ****     {
  31:../../libDaisy//src/hid/usb.h ****         FS_INTERNAL, /**< Internal pin */
  32:../../libDaisy//src/hid/usb.h ****         FS_EXTERNAL, /**< FS External D+ pin is Pin 38 (GPIO32). FS External D- pin is Pin 37 (GPIO
  33:../../libDaisy//src/hid/usb.h ****         FS_BOTH,     /**< Both */
  34:../../libDaisy//src/hid/usb.h ****     };
  35:../../libDaisy//src/hid/usb.h **** 
  36:../../libDaisy//src/hid/usb.h **** 
  37:../../libDaisy//src/hid/usb.h ****     /** Function called upon reception of a buffer */
  38:../../libDaisy//src/hid/usb.h ****     typedef void (*ReceiveCallback)(uint8_t* buff, uint32_t* len);
  39:../../libDaisy//src/hid/usb.h **** 
  40:../../libDaisy//src/hid/usb.h ****     UsbHandle() {}
  41:../../libDaisy//src/hid/usb.h **** 
  42:../../libDaisy//src/hid/usb.h ****     ~UsbHandle() {}
 106              		.loc 9 42 5 is_stmt 1 view .LVU14
 107              		.loc 9 42 5 is_stmt 0 view .LVU15
 108              	.LBE409:
 109              	.LBB410:
 110              	.LBI410:
 111              		.file 10 "../../libDaisy//src/per/adc.h"
   1:../../libDaisy//src/per/adc.h **** #pragma once
   2:../../libDaisy//src/per/adc.h **** #ifndef DSY_ADC_H
   3:../../libDaisy//src/per/adc.h **** #define DSY_ADC_H /**< Macro */
   4:../../libDaisy//src/per/adc.h **** #include <stdint.h>
   5:../../libDaisy//src/per/adc.h **** #include <stdlib.h>
   6:../../libDaisy//src/per/adc.h **** #include "daisy_core.h"
   7:../../libDaisy//src/per/adc.h **** #include "per/gpio.h"
   8:../../libDaisy//src/per/adc.h **** 
   9:../../libDaisy//src/per/adc.h **** #define DSY_ADC_MAX_CHANNELS 16 /**< Maximum number of ADC channels */
  10:../../libDaisy//src/per/adc.h **** 
  11:../../libDaisy//src/per/adc.h **** namespace daisy
  12:../../libDaisy//src/per/adc.h **** {
  13:../../libDaisy//src/per/adc.h **** /** @addtogroup per_analog
ARM GAS  /var/folders/1y/_321xjh9623c014x9_qw12rr0000gn/T//cc1ZQ1Ea.s 			page 14


  14:../../libDaisy//src/per/adc.h ****     @{
  15:../../libDaisy//src/per/adc.h **** */
  16:../../libDaisy//src/per/adc.h **** 
  17:../../libDaisy//src/per/adc.h **** /* While there may not be many configuration options here,
  18:../../libDaisy//src/per/adc.h **** using a struct like this allows us to add more configuration
  19:../../libDaisy//src/per/adc.h **** later without breaking existing functionality.
  20:../../libDaisy//src/per/adc.h **** */
  21:../../libDaisy//src/per/adc.h **** 
  22:../../libDaisy//src/per/adc.h **** /** @brief   Configuration Structure for an ADC Channel 
  23:../../libDaisy//src/per/adc.h ****  *  @details This can be used to configure a a single input, 
  24:../../libDaisy//src/per/adc.h ****  *           or a multiplexed input, allowing up to 8 inputs on 
  25:../../libDaisy//src/per/adc.h ****  *           one channel.
  26:../../libDaisy//src/per/adc.h ****  *  @note    Sharing data lines to multiple muxes _is_ possible, but
  27:../../libDaisy//src/per/adc.h ****  *           each channel sharing data lines must be set to the maximum
  28:../../libDaisy//src/per/adc.h ****  *           number of channels, even if some multiplexers have fewer
  29:../../libDaisy//src/per/adc.h ****  *           inputs connected.
  30:../../libDaisy//src/per/adc.h **** */
  31:../../libDaisy//src/per/adc.h **** struct AdcChannelConfig
  32:../../libDaisy//src/per/adc.h **** {
  33:../../libDaisy//src/per/adc.h ****     /** Which pin to use for multiplexing */
  34:../../libDaisy//src/per/adc.h ****     enum MuxPin
  35:../../libDaisy//src/per/adc.h ****     {
  36:../../libDaisy//src/per/adc.h ****         MUX_SEL_0,    /**< & */
  37:../../libDaisy//src/per/adc.h ****         MUX_SEL_1,    /**< & */
  38:../../libDaisy//src/per/adc.h ****         MUX_SEL_2,    /**< & */
  39:../../libDaisy//src/per/adc.h ****         MUX_SEL_LAST, /**< & */
  40:../../libDaisy//src/per/adc.h ****     };
  41:../../libDaisy//src/per/adc.h **** 
  42:../../libDaisy//src/per/adc.h ****     /** Initializes a single ADC pin as an ADC. 
  43:../../libDaisy//src/per/adc.h ****     \param pin Pin to init.
  44:../../libDaisy//src/per/adc.h ****      */
  45:../../libDaisy//src/per/adc.h ****     void InitSingle(dsy_gpio_pin pin);
  46:../../libDaisy//src/per/adc.h **** 
  47:../../libDaisy//src/per/adc.h ****     /** 
  48:../../libDaisy//src/per/adc.h ****     Initializes a single ADC pin as a Multiplexed ADC.
  49:../../libDaisy//src/per/adc.h ****     Requires a CD405X Multiplexer connected to the pin.
  50:../../libDaisy//src/per/adc.h ****     You only need to supply the mux pins that are required,
  51:../../libDaisy//src/per/adc.h ****     e.g. a 4052 mux would only require mux_0 and mux_1.
  52:../../libDaisy//src/per/adc.h ****     Internal Callbacks handle the pin addressing.
  53:../../libDaisy//src/per/adc.h ****     \param mux_channels must be 1-8
  54:../../libDaisy//src/per/adc.h ****     \param mux_0 First mux pin
  55:../../libDaisy//src/per/adc.h ****     \param mux_1 Second mux pin
  56:../../libDaisy//src/per/adc.h ****     \param mux_2 Third mux pin
  57:../../libDaisy//src/per/adc.h ****     \param adc_pin &
  58:../../libDaisy//src/per/adc.h ****     */
  59:../../libDaisy//src/per/adc.h ****     void InitMux(dsy_gpio_pin adc_pin,
  60:../../libDaisy//src/per/adc.h ****                  size_t       mux_channels,
  61:../../libDaisy//src/per/adc.h ****                  dsy_gpio_pin mux_0,
  62:../../libDaisy//src/per/adc.h ****                  dsy_gpio_pin mux_1 = {DSY_GPIOX, 0},
  63:../../libDaisy//src/per/adc.h ****                  dsy_gpio_pin mux_2 = {DSY_GPIOX, 0});
  64:../../libDaisy//src/per/adc.h **** 
  65:../../libDaisy//src/per/adc.h ****     dsy_gpio pin_;                   /**< & */
  66:../../libDaisy//src/per/adc.h ****     dsy_gpio mux_pin_[MUX_SEL_LAST]; /**< & */
  67:../../libDaisy//src/per/adc.h ****     uint8_t  mux_channels_;          /**< & */
  68:../../libDaisy//src/per/adc.h **** };
  69:../../libDaisy//src/per/adc.h **** 
  70:../../libDaisy//src/per/adc.h **** /**
ARM GAS  /var/folders/1y/_321xjh9623c014x9_qw12rr0000gn/T//cc1ZQ1Ea.s 			page 15


  71:../../libDaisy//src/per/adc.h ****    @brief Handler for analog to digital conversion
  72:../../libDaisy//src/per/adc.h **** */
  73:../../libDaisy//src/per/adc.h **** class AdcHandle
  74:../../libDaisy//src/per/adc.h **** {
  75:../../libDaisy//src/per/adc.h ****   public:
  76:../../libDaisy//src/per/adc.h ****     /** Supported oversampling amounts */
  77:../../libDaisy//src/per/adc.h ****     enum OverSampling
  78:../../libDaisy//src/per/adc.h ****     {
  79:../../libDaisy//src/per/adc.h ****         OVS_NONE, /**< & */
  80:../../libDaisy//src/per/adc.h ****         OVS_4,    /**< & */
  81:../../libDaisy//src/per/adc.h ****         OVS_8,    /**< & */
  82:../../libDaisy//src/per/adc.h ****         OVS_16,   /**< & */
  83:../../libDaisy//src/per/adc.h ****         OVS_32,   /**< & */
  84:../../libDaisy//src/per/adc.h ****         OVS_64,   /**< & */
  85:../../libDaisy//src/per/adc.h ****         OVS_128,  /**< & */
  86:../../libDaisy//src/per/adc.h ****         OVS_256,  /**< & */
  87:../../libDaisy//src/per/adc.h ****         OVS_512,  /**< & */
  88:../../libDaisy//src/per/adc.h ****         OVS_1024, /**< & */
  89:../../libDaisy//src/per/adc.h ****         OVS_LAST, /**< & */
  90:../../libDaisy//src/per/adc.h ****     };
  91:../../libDaisy//src/per/adc.h **** 
  92:../../libDaisy//src/per/adc.h ****     AdcHandle() {}
  93:../../libDaisy//src/per/adc.h ****     ~AdcHandle() {}
 112              		.loc 10 93 5 is_stmt 1 view .LVU16
 113              		.loc 10 93 5 is_stmt 0 view .LVU17
 114              	.LBE410:
 115              	.LBB411:
 116              	.LBI411:
 117              		.file 11 "../../libDaisy//src/hid/audio.h"
   1:../../libDaisy//src/hid/audio.h **** #ifndef DSY_AUDIO_H
   2:../../libDaisy//src/hid/audio.h **** #define DSY_AUDIO_H /**< & */
   3:../../libDaisy//src/hid/audio.h **** 
   4:../../libDaisy//src/hid/audio.h **** #include "per/sai.h"
   5:../../libDaisy//src/hid/audio.h **** 
   6:../../libDaisy//src/hid/audio.h **** namespace daisy
   7:../../libDaisy//src/hid/audio.h **** {
   8:../../libDaisy//src/hid/audio.h **** /** @brief Audio Engine Handle
   9:../../libDaisy//src/hid/audio.h ****  *  @ingroup audio 
  10:../../libDaisy//src/hid/audio.h ****  *  @details This class allows for higher level access to an audio engine.
  11:../../libDaisy//src/hid/audio.h ****  *           If you're using a SOM like the DaisySeed or DaisyPatchSM (or any 
  12:../../libDaisy//src/hid/audio.h ****  *            board that includes one of those objects) then the intialization
  13:../../libDaisy//src/hid/audio.h ****  *            is already taken  care of.
  14:../../libDaisy//src/hid/audio.h ****  *           If you're setting up your own custom hardware, or need to make changes
  15:../../libDaisy//src/hid/audio.h ****  *           you will have to take the following steps:
  16:../../libDaisy//src/hid/audio.h ****  *             1. Create and Initialize an SaiHandle or two depending on your requirements
  17:../../libDaisy//src/hid/audio.h ****  *             2. Initialize the Audio Handle with the desired settings and the Initialized SaiHand
  18:../../libDaisy//src/hid/audio.h ****  *             3. If the connected codec requires special configuration or initialization, do so
  19:../../libDaisy//src/hid/audio.h ****  *             4. Write a callback method using either the AudioCallback or the InterleavingAudioCa
  20:../../libDaisy//src/hid/audio.h ****  *             5. Start the Audio using one of the StartAudio function
  21:../../libDaisy//src/hid/audio.h ****  */
  22:../../libDaisy//src/hid/audio.h **** class AudioHandle
  23:../../libDaisy//src/hid/audio.h **** {
  24:../../libDaisy//src/hid/audio.h ****   public:
  25:../../libDaisy//src/hid/audio.h ****     /** Manually configurable details about the Audio Engine */
  26:../../libDaisy//src/hid/audio.h ****     /** TODO: Figure out how to get samplerate in here. */
  27:../../libDaisy//src/hid/audio.h ****     struct Config
  28:../../libDaisy//src/hid/audio.h ****     {
ARM GAS  /var/folders/1y/_321xjh9623c014x9_qw12rr0000gn/T//cc1ZQ1Ea.s 			page 16


  29:../../libDaisy//src/hid/audio.h ****         /** number of samples to process per callback */
  30:../../libDaisy//src/hid/audio.h ****         size_t blocksize;
  31:../../libDaisy//src/hid/audio.h **** 
  32:../../libDaisy//src/hid/audio.h ****         /**< Sample rate of audio */
  33:../../libDaisy//src/hid/audio.h ****         SaiHandle::Config::SampleRate samplerate;
  34:../../libDaisy//src/hid/audio.h **** 
  35:../../libDaisy//src/hid/audio.h ****         /** factor for adjustment before and after callback for hardware that may have extra headro
  36:../../libDaisy//src/hid/audio.h ****         float postgain;
  37:../../libDaisy//src/hid/audio.h **** 
  38:../../libDaisy//src/hid/audio.h ****         /** factor for additional one-sided compensation to audio path for hardware that may
  39:../../libDaisy//src/hid/audio.h ****          *  have unequal input/output ranges
  40:../../libDaisy//src/hid/audio.h ****          */
  41:../../libDaisy//src/hid/audio.h ****         float output_compensation;
  42:../../libDaisy//src/hid/audio.h **** 
  43:../../libDaisy//src/hid/audio.h ****         /** Sets default values for config struct */
  44:../../libDaisy//src/hid/audio.h ****         Config()
  45:../../libDaisy//src/hid/audio.h ****         : blocksize(48),
  46:../../libDaisy//src/hid/audio.h ****           samplerate(SaiHandle::Config::SampleRate::SAI_48KHZ),
  47:../../libDaisy//src/hid/audio.h ****           postgain(1.f),
  48:../../libDaisy//src/hid/audio.h ****           output_compensation(1.f)
  49:../../libDaisy//src/hid/audio.h ****         {
  50:../../libDaisy//src/hid/audio.h ****         }
  51:../../libDaisy//src/hid/audio.h ****     };
  52:../../libDaisy//src/hid/audio.h **** 
  53:../../libDaisy//src/hid/audio.h ****     enum class Result
  54:../../libDaisy//src/hid/audio.h ****     {
  55:../../libDaisy//src/hid/audio.h ****         OK,
  56:../../libDaisy//src/hid/audio.h ****         ERR,
  57:../../libDaisy//src/hid/audio.h ****     };
  58:../../libDaisy//src/hid/audio.h **** 
  59:../../libDaisy//src/hid/audio.h ****     /** Non-Interleaving input buffer
  60:../../libDaisy//src/hid/audio.h ****      * Buffer arranged by float[chn][sample] 
  61:../../libDaisy//src/hid/audio.h ****      * const so that the user can't modify the input
  62:../../libDaisy//src/hid/audio.h ****      */
  63:../../libDaisy//src/hid/audio.h ****     typedef const float* const* InputBuffer;
  64:../../libDaisy//src/hid/audio.h **** 
  65:../../libDaisy//src/hid/audio.h ****     /** Non-Interleaving output buffer
  66:../../libDaisy//src/hid/audio.h ****      * Arranged by float[chn][sample] 
  67:../../libDaisy//src/hid/audio.h ****      */
  68:../../libDaisy//src/hid/audio.h ****     typedef float** OutputBuffer;
  69:../../libDaisy//src/hid/audio.h **** 
  70:../../libDaisy//src/hid/audio.h ****     /** Type for a Non-Interleaving audio callback 
  71:../../libDaisy//src/hid/audio.h ****      * Non-Interleaving audio callbacks in daisy will be of this type
  72:../../libDaisy//src/hid/audio.h ****      */
  73:../../libDaisy//src/hid/audio.h ****     typedef void (*AudioCallback)(InputBuffer  in,
  74:../../libDaisy//src/hid/audio.h ****                                   OutputBuffer out,
  75:../../libDaisy//src/hid/audio.h ****                                   size_t       size);
  76:../../libDaisy//src/hid/audio.h **** 
  77:../../libDaisy//src/hid/audio.h ****     /** Interleaving Input buffer
  78:../../libDaisy//src/hid/audio.h ****      ** audio is prepared as { L0, R0, L1, R1, . . . LN, RN }]
  79:../../libDaisy//src/hid/audio.h ****      ** this is const, as the user shouldn't modify it
  80:../../libDaisy//src/hid/audio.h ****     */
  81:../../libDaisy//src/hid/audio.h ****     typedef const float* InterleavingInputBuffer;
  82:../../libDaisy//src/hid/audio.h **** 
  83:../../libDaisy//src/hid/audio.h ****     /** Interleaving Output buffer 
  84:../../libDaisy//src/hid/audio.h ****      ** audio is prepared as { L0, R0, L1, R1, . . . LN, RN }
  85:../../libDaisy//src/hid/audio.h ****     */
ARM GAS  /var/folders/1y/_321xjh9623c014x9_qw12rr0000gn/T//cc1ZQ1Ea.s 			page 17


  86:../../libDaisy//src/hid/audio.h ****     typedef float* InterleavingOutputBuffer;
  87:../../libDaisy//src/hid/audio.h **** 
  88:../../libDaisy//src/hid/audio.h ****     /** Interleaving Audio Callback 
  89:../../libDaisy//src/hid/audio.h ****      * Interleaving audio callbacks in daisy must be of this type
  90:../../libDaisy//src/hid/audio.h ****      */
  91:../../libDaisy//src/hid/audio.h ****     typedef void (*InterleavingAudioCallback)(InterleavingInputBuffer  in,
  92:../../libDaisy//src/hid/audio.h ****                                               InterleavingOutputBuffer out,
  93:../../libDaisy//src/hid/audio.h ****                                               size_t                   size);
  94:../../libDaisy//src/hid/audio.h **** 
  95:../../libDaisy//src/hid/audio.h ****     AudioHandle() : pimpl_(nullptr) {}
  96:../../libDaisy//src/hid/audio.h ****     ~AudioHandle() {}
 118              		.loc 11 96 5 is_stmt 1 view .LVU18
 119              		.loc 11 96 5 is_stmt 0 view .LVU19
 120              	.LBE411:
 121              	.LBE407:
 122              		.loc 1 78 15 view .LVU20
 123 0000 7047     		bx	lr
 124              		.cfi_endproc
 125              	.LFE4821:
 127              		.weak	_ZN5daisy5DubbyD1Ev
 128              		.thumb_set _ZN5daisy5DubbyD1Ev,_ZN5daisy5DubbyD2Ev
 129 0002 00BF     		.section	.text._ZN5daisy11OledDisplayINS_13SSD130xDriverILj128ELj64ENS_24SSD130x4WireSpiTransportE
 130              		.align	1
 131              		.p2align 2,,3
 132              		.weak	_ZN5daisy11OledDisplayINS_13SSD130xDriverILj128ELj64ENS_24SSD130x4WireSpiTransportEEEED2Ev
 133              		.syntax unified
 134              		.thumb
 135              		.thumb_func
 137              	_ZN5daisy11OledDisplayINS_13SSD130xDriverILj128ELj64ENS_24SSD130x4WireSpiTransportEEEED2Ev:
 138              	.LVL1:
 139              	.LFB5142:
 140              		.loc 3 18 13 is_stmt 1 view -0
 141              		.cfi_startproc
 142              		@ args = 0, pretend = 0, frame = 0
 143              		@ frame_needed = 0, uses_anonymous_args = 0
 144              		@ link register save eliminated.
 145              	.LBB412:
 146              	.LBI412:
 147              		.loc 4 219 13 view .LVU22
 148              	.LBB413:
 149              	.LBI413:
  23:../../libDaisy//src/hid/disp/display.h **** 
 150              		.loc 4 23 13 view .LVU23
  23:../../libDaisy//src/hid/disp/display.h **** 
 151              		.loc 4 23 13 is_stmt 0 view .LVU24
 152              	.LBE413:
 153              	.LBE412:
 154              		.loc 3 18 29 view .LVU25
 155 0000 7047     		bx	lr
 156              		.cfi_endproc
 157              	.LFE5142:
 159              		.weak	_ZN5daisy11OledDisplayINS_13SSD130xDriverILj128ELj64ENS_24SSD130x4WireSpiTransportEEEED1Ev
 160              		.thumb_set _ZN5daisy11OledDisplayINS_13SSD130xDriverILj128ELj64ENS_24SSD130x4WireSpiTransportEEEED
 161 0002 00BF     		.section	.text._ZNK5daisy11OledDisplayINS_13SSD130xDriverILj128ELj64ENS_24SSD130x4WireSpiTransport
 162              		.align	1
 163              		.p2align 2,,3
 164              		.weak	_ZNK5daisy11OledDisplayINS_13SSD130xDriverILj128ELj64ENS_24SSD130x4WireSpiTransportEEEE6Heig
ARM GAS  /var/folders/1y/_321xjh9623c014x9_qw12rr0000gn/T//cc1ZQ1Ea.s 			page 18


 165              		.syntax unified
 166              		.thumb
 167              		.thumb_func
 169              	_ZNK5daisy11OledDisplayINS_13SSD130xDriverILj128ELj64ENS_24SSD130x4WireSpiTransportEEEE6HeightEv:
 170              	.LVL2:
 171              	.LFB5431:
  19:../../libDaisy//src/hid/disp/oled_display.h **** 
  20:../../libDaisy//src/hid/disp/oled_display.h ****     struct Config
  21:../../libDaisy//src/hid/disp/oled_display.h ****     {
  22:../../libDaisy//src/hid/disp/oled_display.h ****         typename DisplayDriver::Config driver_config;
  23:../../libDaisy//src/hid/disp/oled_display.h ****     };
  24:../../libDaisy//src/hid/disp/oled_display.h **** 
  25:../../libDaisy//src/hid/disp/oled_display.h ****     void Init(Config config) { driver_.Init(config.driver_config); }
  26:../../libDaisy//src/hid/disp/oled_display.h **** 
  27:../../libDaisy//src/hid/disp/oled_display.h ****     uint16_t Height() const override { return driver_.Height(); }
 172              		.loc 3 27 14 is_stmt 1 view -0
 173              		.cfi_startproc
 174              		@ args = 0, pretend = 0, frame = 0
 175              		@ frame_needed = 0, uses_anonymous_args = 0
 176              		@ link register save eliminated.
 177              		.loc 3 27 65 is_stmt 0 view .LVU27
 178 0000 4020     		movs	r0, #64
 179              	.LVL3:
 180              		.loc 3 27 65 view .LVU28
 181 0002 7047     		bx	lr
 182              		.cfi_endproc
 183              	.LFE5431:
 185              		.section	.text._ZNK5daisy11OledDisplayINS_13SSD130xDriverILj128ELj64ENS_24SSD130x4WireSpiTransport
 186              		.align	1
 187              		.p2align 2,,3
 188              		.weak	_ZNK5daisy11OledDisplayINS_13SSD130xDriverILj128ELj64ENS_24SSD130x4WireSpiTransportEEEE5Widt
 189              		.syntax unified
 190              		.thumb
 191              		.thumb_func
 193              	_ZNK5daisy11OledDisplayINS_13SSD130xDriverILj128ELj64ENS_24SSD130x4WireSpiTransportEEEE5WidthEv:
 194              	.LVL4:
 195              	.LFB5432:
  28:../../libDaisy//src/hid/disp/oled_display.h ****     uint16_t Width() const override { return driver_.Width(); }
 196              		.loc 3 28 14 is_stmt 1 view -0
 197              		.cfi_startproc
 198              		@ args = 0, pretend = 0, frame = 0
 199              		@ frame_needed = 0, uses_anonymous_args = 0
 200              		@ link register save eliminated.
 201              		.loc 3 28 63 is_stmt 0 view .LVU30
 202 0000 8020     		movs	r0, #128
 203              	.LVL5:
 204              		.loc 3 28 63 view .LVU31
 205 0002 7047     		bx	lr
 206              		.cfi_endproc
 207              	.LFE5432:
 209              		.section	.text._ZN5daisy11OledDisplayINS_13SSD130xDriverILj128ELj64ENS_24SSD130x4WireSpiTransportE
 210              		.align	1
 211              		.p2align 2,,3
 212              		.weak	_ZN5daisy11OledDisplayINS_13SSD130xDriverILj128ELj64ENS_24SSD130x4WireSpiTransportEEEE4FillE
 213              		.syntax unified
 214              		.thumb
 215              		.thumb_func
ARM GAS  /var/folders/1y/_321xjh9623c014x9_qw12rr0000gn/T//cc1ZQ1Ea.s 			page 19


 217              	_ZN5daisy11OledDisplayINS_13SSD130xDriverILj128ELj64ENS_24SSD130x4WireSpiTransportEEEE4FillEb:
 218              	.LVL6:
 219              	.LFB5433:
  29:../../libDaisy//src/hid/disp/oled_display.h **** 
  30:../../libDaisy//src/hid/disp/oled_display.h ****     /** 
  31:../../libDaisy//src/hid/disp/oled_display.h ****     Fills the entire display with either on/off.
  32:../../libDaisy//src/hid/disp/oled_display.h ****     \param on Sets on or off.
  33:../../libDaisy//src/hid/disp/oled_display.h ****     */
  34:../../libDaisy//src/hid/disp/oled_display.h ****     void Fill(bool on) override { driver_.Fill(on); }
 220              		.loc 3 34 10 is_stmt 1 view -0
 221              		.cfi_startproc
 222              		@ args = 0, pretend = 0, frame = 0
 223              		@ frame_needed = 0, uses_anonymous_args = 0
 224              		@ link register save eliminated.
 225              	.LBB414:
 226              	.LBI414:
 227              		.file 12 "../../libDaisy//src/dev/oled_ssd130x.h"
   1:../../libDaisy//src/dev/oled_ssd130x.h **** #pragma once
   2:../../libDaisy//src/dev/oled_ssd130x.h **** #ifndef SA_OLED_SSD130X_H
   3:../../libDaisy//src/dev/oled_ssd130x.h **** #define SA_OLED_SSD130X_H /**< & */
   4:../../libDaisy//src/dev/oled_ssd130x.h **** 
   5:../../libDaisy//src/dev/oled_ssd130x.h **** #include "per/i2c.h"
   6:../../libDaisy//src/dev/oled_ssd130x.h **** #include "per/spi.h"
   7:../../libDaisy//src/dev/oled_ssd130x.h **** #include "per/gpio.h"
   8:../../libDaisy//src/dev/oled_ssd130x.h **** #include "sys/system.h"
   9:../../libDaisy//src/dev/oled_ssd130x.h **** 
  10:../../libDaisy//src/dev/oled_ssd130x.h **** namespace daisy
  11:../../libDaisy//src/dev/oled_ssd130x.h **** {
  12:../../libDaisy//src/dev/oled_ssd130x.h **** /**
  13:../../libDaisy//src/dev/oled_ssd130x.h ****  * I2C Transport for SSD1306 / SSD1309 OLED display devices
  14:../../libDaisy//src/dev/oled_ssd130x.h ****  */
  15:../../libDaisy//src/dev/oled_ssd130x.h **** class SSD130xI2CTransport
  16:../../libDaisy//src/dev/oled_ssd130x.h **** {
  17:../../libDaisy//src/dev/oled_ssd130x.h ****   public:
  18:../../libDaisy//src/dev/oled_ssd130x.h ****     struct Config
  19:../../libDaisy//src/dev/oled_ssd130x.h ****     {
  20:../../libDaisy//src/dev/oled_ssd130x.h ****         Config()
  21:../../libDaisy//src/dev/oled_ssd130x.h ****         {
  22:../../libDaisy//src/dev/oled_ssd130x.h ****             // Intialize using defaults
  23:../../libDaisy//src/dev/oled_ssd130x.h ****             Defaults();
  24:../../libDaisy//src/dev/oled_ssd130x.h ****         }
  25:../../libDaisy//src/dev/oled_ssd130x.h ****         I2CHandle::Config i2c_config;
  26:../../libDaisy//src/dev/oled_ssd130x.h ****         uint8_t           i2c_address;
  27:../../libDaisy//src/dev/oled_ssd130x.h ****         void              Defaults()
  28:../../libDaisy//src/dev/oled_ssd130x.h ****         {
  29:../../libDaisy//src/dev/oled_ssd130x.h ****             i2c_config.periph         = I2CHandle::Config::Peripheral::I2C_1;
  30:../../libDaisy//src/dev/oled_ssd130x.h ****             i2c_config.speed          = I2CHandle::Config::Speed::I2C_1MHZ;
  31:../../libDaisy//src/dev/oled_ssd130x.h ****             i2c_config.mode           = I2CHandle::Config::Mode::I2C_MASTER;
  32:../../libDaisy//src/dev/oled_ssd130x.h ****             i2c_config.pin_config.scl = {DSY_GPIOB, 8};
  33:../../libDaisy//src/dev/oled_ssd130x.h ****             i2c_config.pin_config.sda = {DSY_GPIOB, 9};
  34:../../libDaisy//src/dev/oled_ssd130x.h ****             i2c_address               = 0x3C;
  35:../../libDaisy//src/dev/oled_ssd130x.h ****         }
  36:../../libDaisy//src/dev/oled_ssd130x.h ****     };
  37:../../libDaisy//src/dev/oled_ssd130x.h ****     void Init(const Config& config)
  38:../../libDaisy//src/dev/oled_ssd130x.h ****     {
  39:../../libDaisy//src/dev/oled_ssd130x.h ****         i2c_address_ = config.i2c_address;
  40:../../libDaisy//src/dev/oled_ssd130x.h ****         i2c_.Init(config.i2c_config);
ARM GAS  /var/folders/1y/_321xjh9623c014x9_qw12rr0000gn/T//cc1ZQ1Ea.s 			page 20


  41:../../libDaisy//src/dev/oled_ssd130x.h ****     };
  42:../../libDaisy//src/dev/oled_ssd130x.h ****     void SendCommand(uint8_t cmd)
  43:../../libDaisy//src/dev/oled_ssd130x.h ****     {
  44:../../libDaisy//src/dev/oled_ssd130x.h ****         uint8_t buf[2] = {0X00, cmd};
  45:../../libDaisy//src/dev/oled_ssd130x.h ****         i2c_.TransmitBlocking(i2c_address_, buf, 2, 1000);
  46:../../libDaisy//src/dev/oled_ssd130x.h ****     };
  47:../../libDaisy//src/dev/oled_ssd130x.h **** 
  48:../../libDaisy//src/dev/oled_ssd130x.h ****     void SendData(uint8_t* buff, size_t size)
  49:../../libDaisy//src/dev/oled_ssd130x.h ****     {
  50:../../libDaisy//src/dev/oled_ssd130x.h ****         for(size_t i = 0; i < size; i++)
  51:../../libDaisy//src/dev/oled_ssd130x.h ****         {
  52:../../libDaisy//src/dev/oled_ssd130x.h ****             uint8_t buf[2] = {0X40, buff[i]};
  53:../../libDaisy//src/dev/oled_ssd130x.h ****             i2c_.TransmitBlocking(i2c_address_, buf, 2, 1000);
  54:../../libDaisy//src/dev/oled_ssd130x.h ****         }
  55:../../libDaisy//src/dev/oled_ssd130x.h ****     };
  56:../../libDaisy//src/dev/oled_ssd130x.h **** 
  57:../../libDaisy//src/dev/oled_ssd130x.h ****   private:
  58:../../libDaisy//src/dev/oled_ssd130x.h ****     daisy::I2CHandle i2c_;
  59:../../libDaisy//src/dev/oled_ssd130x.h ****     uint8_t          i2c_address_;
  60:../../libDaisy//src/dev/oled_ssd130x.h **** };
  61:../../libDaisy//src/dev/oled_ssd130x.h **** 
  62:../../libDaisy//src/dev/oled_ssd130x.h **** /**
  63:../../libDaisy//src/dev/oled_ssd130x.h ****  * 4 Wire SPI Transport for SSD1306 / SSD1309 OLED display devices
  64:../../libDaisy//src/dev/oled_ssd130x.h ****  */
  65:../../libDaisy//src/dev/oled_ssd130x.h **** class SSD130x4WireSpiTransport
  66:../../libDaisy//src/dev/oled_ssd130x.h **** {
  67:../../libDaisy//src/dev/oled_ssd130x.h ****   public:
  68:../../libDaisy//src/dev/oled_ssd130x.h ****     struct Config
  69:../../libDaisy//src/dev/oled_ssd130x.h ****     {
  70:../../libDaisy//src/dev/oled_ssd130x.h ****         Config()
  71:../../libDaisy//src/dev/oled_ssd130x.h ****         {
  72:../../libDaisy//src/dev/oled_ssd130x.h ****             // Initialize using defaults
  73:../../libDaisy//src/dev/oled_ssd130x.h ****             Defaults();
  74:../../libDaisy//src/dev/oled_ssd130x.h ****         }
  75:../../libDaisy//src/dev/oled_ssd130x.h ****         SpiHandle::Config spi_config;
  76:../../libDaisy//src/dev/oled_ssd130x.h ****         struct
  77:../../libDaisy//src/dev/oled_ssd130x.h ****         {
  78:../../libDaisy//src/dev/oled_ssd130x.h ****             dsy_gpio_pin dc;    /**< & */
  79:../../libDaisy//src/dev/oled_ssd130x.h ****             dsy_gpio_pin reset; /**< & */
  80:../../libDaisy//src/dev/oled_ssd130x.h ****         } pin_config;
  81:../../libDaisy//src/dev/oled_ssd130x.h ****         void Defaults()
  82:../../libDaisy//src/dev/oled_ssd130x.h ****         {
  83:../../libDaisy//src/dev/oled_ssd130x.h ****             // SPI peripheral config
  84:../../libDaisy//src/dev/oled_ssd130x.h ****             spi_config.periph = SpiHandle::Config::Peripheral::SPI_1;
  85:../../libDaisy//src/dev/oled_ssd130x.h ****             spi_config.mode   = SpiHandle::Config::Mode::MASTER;
  86:../../libDaisy//src/dev/oled_ssd130x.h ****             spi_config.direction
  87:../../libDaisy//src/dev/oled_ssd130x.h ****                 = SpiHandle::Config::Direction::TWO_LINES_TX_ONLY;
  88:../../libDaisy//src/dev/oled_ssd130x.h ****             spi_config.datasize       = 8;
  89:../../libDaisy//src/dev/oled_ssd130x.h ****             spi_config.clock_polarity = SpiHandle::Config::ClockPolarity::LOW;
  90:../../libDaisy//src/dev/oled_ssd130x.h ****             spi_config.clock_phase    = SpiHandle::Config::ClockPhase::ONE_EDGE;
  91:../../libDaisy//src/dev/oled_ssd130x.h ****             spi_config.nss            = SpiHandle::Config::NSS::HARD_OUTPUT;
  92:../../libDaisy//src/dev/oled_ssd130x.h ****             spi_config.baud_prescaler = SpiHandle::Config::BaudPrescaler::PS_8;
  93:../../libDaisy//src/dev/oled_ssd130x.h ****             // SPI pin config
  94:../../libDaisy//src/dev/oled_ssd130x.h ****             spi_config.pin_config.sclk = {DSY_GPIOG, 11};
  95:../../libDaisy//src/dev/oled_ssd130x.h ****             spi_config.pin_config.miso = {DSY_GPIOX, 0};
  96:../../libDaisy//src/dev/oled_ssd130x.h ****             spi_config.pin_config.mosi = {DSY_GPIOB, 5};
  97:../../libDaisy//src/dev/oled_ssd130x.h ****             spi_config.pin_config.nss  = {DSY_GPIOG, 10};
ARM GAS  /var/folders/1y/_321xjh9623c014x9_qw12rr0000gn/T//cc1ZQ1Ea.s 			page 21


  98:../../libDaisy//src/dev/oled_ssd130x.h ****             // SSD130x control pin config
  99:../../libDaisy//src/dev/oled_ssd130x.h ****             pin_config.dc    = {DSY_GPIOB, 4};
 100:../../libDaisy//src/dev/oled_ssd130x.h ****             pin_config.reset = {DSY_GPIOB, 15};
 101:../../libDaisy//src/dev/oled_ssd130x.h ****         }
 102:../../libDaisy//src/dev/oled_ssd130x.h ****     };
 103:../../libDaisy//src/dev/oled_ssd130x.h ****     void Init(const Config& config)
 104:../../libDaisy//src/dev/oled_ssd130x.h ****     {
 105:../../libDaisy//src/dev/oled_ssd130x.h ****         // Initialize both GPIO
 106:../../libDaisy//src/dev/oled_ssd130x.h ****         pin_dc_.mode = DSY_GPIO_MODE_OUTPUT_PP;
 107:../../libDaisy//src/dev/oled_ssd130x.h ****         pin_dc_.pin  = config.pin_config.dc;
 108:../../libDaisy//src/dev/oled_ssd130x.h ****         dsy_gpio_init(&pin_dc_);
 109:../../libDaisy//src/dev/oled_ssd130x.h ****         pin_reset_.mode = DSY_GPIO_MODE_OUTPUT_PP;
 110:../../libDaisy//src/dev/oled_ssd130x.h ****         pin_reset_.pin  = config.pin_config.reset;
 111:../../libDaisy//src/dev/oled_ssd130x.h ****         dsy_gpio_init(&pin_reset_);
 112:../../libDaisy//src/dev/oled_ssd130x.h **** 
 113:../../libDaisy//src/dev/oled_ssd130x.h ****         // Initialize SPI
 114:../../libDaisy//src/dev/oled_ssd130x.h ****         spi_.Init(config.spi_config);
 115:../../libDaisy//src/dev/oled_ssd130x.h **** 
 116:../../libDaisy//src/dev/oled_ssd130x.h ****         // Reset and Configure OLED.
 117:../../libDaisy//src/dev/oled_ssd130x.h ****         dsy_gpio_write(&pin_reset_, 0);
 118:../../libDaisy//src/dev/oled_ssd130x.h ****         System::Delay(10);
 119:../../libDaisy//src/dev/oled_ssd130x.h ****         dsy_gpio_write(&pin_reset_, 1);
 120:../../libDaisy//src/dev/oled_ssd130x.h ****         System::Delay(10);
 121:../../libDaisy//src/dev/oled_ssd130x.h ****     };
 122:../../libDaisy//src/dev/oled_ssd130x.h ****     void SendCommand(uint8_t cmd)
 123:../../libDaisy//src/dev/oled_ssd130x.h ****     {
 124:../../libDaisy//src/dev/oled_ssd130x.h ****         dsy_gpio_write(&pin_dc_, 0);
 125:../../libDaisy//src/dev/oled_ssd130x.h ****         spi_.BlockingTransmit(&cmd, 1);
 126:../../libDaisy//src/dev/oled_ssd130x.h ****     };
 127:../../libDaisy//src/dev/oled_ssd130x.h **** 
 128:../../libDaisy//src/dev/oled_ssd130x.h ****     void SendData(uint8_t* buff, size_t size)
 129:../../libDaisy//src/dev/oled_ssd130x.h ****     {
 130:../../libDaisy//src/dev/oled_ssd130x.h ****         dsy_gpio_write(&pin_dc_, 1);
 131:../../libDaisy//src/dev/oled_ssd130x.h ****         spi_.BlockingTransmit(buff, size);
 132:../../libDaisy//src/dev/oled_ssd130x.h ****     };
 133:../../libDaisy//src/dev/oled_ssd130x.h **** 
 134:../../libDaisy//src/dev/oled_ssd130x.h ****   private:
 135:../../libDaisy//src/dev/oled_ssd130x.h ****     SpiHandle spi_;
 136:../../libDaisy//src/dev/oled_ssd130x.h ****     dsy_gpio  pin_reset_;
 137:../../libDaisy//src/dev/oled_ssd130x.h ****     dsy_gpio  pin_dc_;
 138:../../libDaisy//src/dev/oled_ssd130x.h **** };
 139:../../libDaisy//src/dev/oled_ssd130x.h **** 
 140:../../libDaisy//src/dev/oled_ssd130x.h **** /**
 141:../../libDaisy//src/dev/oled_ssd130x.h ****  * Soft SPI Transport for SSD1306 / SSD1309 OLED display devices
 142:../../libDaisy//src/dev/oled_ssd130x.h ****  */
 143:../../libDaisy//src/dev/oled_ssd130x.h **** class SSD130x4WireSoftSpiTransport
 144:../../libDaisy//src/dev/oled_ssd130x.h **** {
 145:../../libDaisy//src/dev/oled_ssd130x.h ****   public:
 146:../../libDaisy//src/dev/oled_ssd130x.h ****     struct Config
 147:../../libDaisy//src/dev/oled_ssd130x.h ****     {
 148:../../libDaisy//src/dev/oled_ssd130x.h ****         Config()
 149:../../libDaisy//src/dev/oled_ssd130x.h ****         {
 150:../../libDaisy//src/dev/oled_ssd130x.h ****             // Initialize using defaults
 151:../../libDaisy//src/dev/oled_ssd130x.h ****             Defaults();
 152:../../libDaisy//src/dev/oled_ssd130x.h ****         }
 153:../../libDaisy//src/dev/oled_ssd130x.h ****         struct
 154:../../libDaisy//src/dev/oled_ssd130x.h ****         {
ARM GAS  /var/folders/1y/_321xjh9623c014x9_qw12rr0000gn/T//cc1ZQ1Ea.s 			page 22


 155:../../libDaisy//src/dev/oled_ssd130x.h ****             uint32_t     sclk_delay;
 156:../../libDaisy//src/dev/oled_ssd130x.h ****             dsy_gpio_pin sclk;
 157:../../libDaisy//src/dev/oled_ssd130x.h ****             dsy_gpio_pin mosi;
 158:../../libDaisy//src/dev/oled_ssd130x.h ****             dsy_gpio_pin dc;
 159:../../libDaisy//src/dev/oled_ssd130x.h ****             dsy_gpio_pin reset;
 160:../../libDaisy//src/dev/oled_ssd130x.h ****         } pin_config;
 161:../../libDaisy//src/dev/oled_ssd130x.h ****         void Defaults()
 162:../../libDaisy//src/dev/oled_ssd130x.h ****         {
 163:../../libDaisy//src/dev/oled_ssd130x.h ****             pin_config.sclk_delay = 0; // fast as possible?!
 164:../../libDaisy//src/dev/oled_ssd130x.h ****             // SPI peripheral config
 165:../../libDaisy//src/dev/oled_ssd130x.h ****             pin_config.sclk = {DSY_GPIOD, 3}; /**< D10 - SPI2 SCK  */
 166:../../libDaisy//src/dev/oled_ssd130x.h ****             pin_config.mosi = {DSY_GPIOC, 3}; /**< D9  - SPI2 MOSI */
 167:../../libDaisy//src/dev/oled_ssd130x.h ****             // SSD130x control pin config
 168:../../libDaisy//src/dev/oled_ssd130x.h ****             pin_config.dc    = {DSY_GPIOC, 11}; //D2
 169:../../libDaisy//src/dev/oled_ssd130x.h ****             pin_config.reset = {DSY_GPIOC, 10}; //D3
 170:../../libDaisy//src/dev/oled_ssd130x.h ****         }
 171:../../libDaisy//src/dev/oled_ssd130x.h ****     };
 172:../../libDaisy//src/dev/oled_ssd130x.h ****     void Init(const Config& config)
 173:../../libDaisy//src/dev/oled_ssd130x.h ****     {
 174:../../libDaisy//src/dev/oled_ssd130x.h ****         // Initialize both GPIO
 175:../../libDaisy//src/dev/oled_ssd130x.h ****         pin_sclk_.mode = DSY_GPIO_MODE_OUTPUT_PP;
 176:../../libDaisy//src/dev/oled_ssd130x.h ****         pin_sclk_.pin  = config.pin_config.sclk;
 177:../../libDaisy//src/dev/oled_ssd130x.h ****         dsy_gpio_init(&pin_sclk_);
 178:../../libDaisy//src/dev/oled_ssd130x.h ****         dsy_gpio_write(&pin_sclk_, 1); //ClockPolarity::LOW
 179:../../libDaisy//src/dev/oled_ssd130x.h ****         clk_delay      = config.pin_config.sclk_delay;
 180:../../libDaisy//src/dev/oled_ssd130x.h ****         pin_mosi_.mode = DSY_GPIO_MODE_OUTPUT_PP;
 181:../../libDaisy//src/dev/oled_ssd130x.h ****         pin_mosi_.pin  = config.pin_config.mosi;
 182:../../libDaisy//src/dev/oled_ssd130x.h ****         dsy_gpio_init(&pin_mosi_);
 183:../../libDaisy//src/dev/oled_ssd130x.h ****         dsy_gpio_write(&pin_mosi_, 0);
 184:../../libDaisy//src/dev/oled_ssd130x.h **** 
 185:../../libDaisy//src/dev/oled_ssd130x.h ****         pin_dc_.mode = DSY_GPIO_MODE_OUTPUT_PP;
 186:../../libDaisy//src/dev/oled_ssd130x.h ****         pin_dc_.pin  = config.pin_config.dc;
 187:../../libDaisy//src/dev/oled_ssd130x.h ****         dsy_gpio_init(&pin_dc_);
 188:../../libDaisy//src/dev/oled_ssd130x.h ****         pin_reset_.mode = DSY_GPIO_MODE_OUTPUT_PP;
 189:../../libDaisy//src/dev/oled_ssd130x.h ****         pin_reset_.pin  = config.pin_config.reset;
 190:../../libDaisy//src/dev/oled_ssd130x.h ****         dsy_gpio_init(&pin_reset_);
 191:../../libDaisy//src/dev/oled_ssd130x.h **** 
 192:../../libDaisy//src/dev/oled_ssd130x.h ****         // Reset and Configure OLED.
 193:../../libDaisy//src/dev/oled_ssd130x.h ****         dsy_gpio_write(&pin_reset_, 0);
 194:../../libDaisy//src/dev/oled_ssd130x.h ****         System::Delay(10);
 195:../../libDaisy//src/dev/oled_ssd130x.h ****         dsy_gpio_write(&pin_reset_, 1);
 196:../../libDaisy//src/dev/oled_ssd130x.h ****         System::Delay(10);
 197:../../libDaisy//src/dev/oled_ssd130x.h ****     };
 198:../../libDaisy//src/dev/oled_ssd130x.h ****     void SendCommand(uint8_t cmd)
 199:../../libDaisy//src/dev/oled_ssd130x.h ****     {
 200:../../libDaisy//src/dev/oled_ssd130x.h ****         dsy_gpio_write(&pin_dc_, 0);
 201:../../libDaisy//src/dev/oled_ssd130x.h ****         SoftSpiTransmit(cmd);
 202:../../libDaisy//src/dev/oled_ssd130x.h ****     };
 203:../../libDaisy//src/dev/oled_ssd130x.h **** 
 204:../../libDaisy//src/dev/oled_ssd130x.h ****     void SendData(uint8_t* buff, size_t size)
 205:../../libDaisy//src/dev/oled_ssd130x.h ****     {
 206:../../libDaisy//src/dev/oled_ssd130x.h ****         dsy_gpio_write(&pin_dc_, 1);
 207:../../libDaisy//src/dev/oled_ssd130x.h ****         for(size_t i = 0; i < size; i++)
 208:../../libDaisy//src/dev/oled_ssd130x.h ****             SoftSpiTransmit(buff[i]);
 209:../../libDaisy//src/dev/oled_ssd130x.h ****     };
 210:../../libDaisy//src/dev/oled_ssd130x.h **** 
 211:../../libDaisy//src/dev/oled_ssd130x.h ****   private:
ARM GAS  /var/folders/1y/_321xjh9623c014x9_qw12rr0000gn/T//cc1ZQ1Ea.s 			page 23


 212:../../libDaisy//src/dev/oled_ssd130x.h ****     void SoftSpiTransmit(uint8_t val)
 213:../../libDaisy//src/dev/oled_ssd130x.h ****     {
 214:../../libDaisy//src/dev/oled_ssd130x.h ****         // bit flip
 215:../../libDaisy//src/dev/oled_ssd130x.h ****         val = ((val & 0x01) << 7) | ((val & 0x02) << 5) | ((val & 0x04) << 3)
 216:../../libDaisy//src/dev/oled_ssd130x.h ****               | ((val & 0x08) << 1) | ((val & 0x10) >> 1) | ((val & 0x20) >> 3)
 217:../../libDaisy//src/dev/oled_ssd130x.h ****               | ((val & 0x40) >> 5) | ((val & 0x80) >> 7);
 218:../../libDaisy//src/dev/oled_ssd130x.h **** 
 219:../../libDaisy//src/dev/oled_ssd130x.h ****         for(uint8_t bit = 0u; bit < 8u; bit++)
 220:../../libDaisy//src/dev/oled_ssd130x.h ****         {
 221:../../libDaisy//src/dev/oled_ssd130x.h ****             dsy_gpio_write(&pin_mosi_, ((val & (1 << bit)) ? 1 : 0));
 222:../../libDaisy//src/dev/oled_ssd130x.h **** 
 223:../../libDaisy//src/dev/oled_ssd130x.h ****             System::DelayTicks(clk_delay);
 224:../../libDaisy//src/dev/oled_ssd130x.h **** 
 225:../../libDaisy//src/dev/oled_ssd130x.h ****             dsy_gpio_toggle(&pin_sclk_);
 226:../../libDaisy//src/dev/oled_ssd130x.h **** 
 227:../../libDaisy//src/dev/oled_ssd130x.h ****             System::DelayTicks(clk_delay);
 228:../../libDaisy//src/dev/oled_ssd130x.h **** 
 229:../../libDaisy//src/dev/oled_ssd130x.h ****             dsy_gpio_toggle(&pin_sclk_);
 230:../../libDaisy//src/dev/oled_ssd130x.h ****         }
 231:../../libDaisy//src/dev/oled_ssd130x.h ****     }
 232:../../libDaisy//src/dev/oled_ssd130x.h **** 
 233:../../libDaisy//src/dev/oled_ssd130x.h ****     uint32_t clk_delay;
 234:../../libDaisy//src/dev/oled_ssd130x.h ****     dsy_gpio pin_sclk_;
 235:../../libDaisy//src/dev/oled_ssd130x.h ****     dsy_gpio pin_mosi_;
 236:../../libDaisy//src/dev/oled_ssd130x.h ****     dsy_gpio pin_reset_;
 237:../../libDaisy//src/dev/oled_ssd130x.h ****     dsy_gpio pin_dc_;
 238:../../libDaisy//src/dev/oled_ssd130x.h **** };
 239:../../libDaisy//src/dev/oled_ssd130x.h **** 
 240:../../libDaisy//src/dev/oled_ssd130x.h **** 
 241:../../libDaisy//src/dev/oled_ssd130x.h **** /**
 242:../../libDaisy//src/dev/oled_ssd130x.h ****  * A driver implementation for the SSD1306/SSD1309
 243:../../libDaisy//src/dev/oled_ssd130x.h ****  */
 244:../../libDaisy//src/dev/oled_ssd130x.h **** template <size_t width, size_t height, typename Transport>
 245:../../libDaisy//src/dev/oled_ssd130x.h **** class SSD130xDriver
 246:../../libDaisy//src/dev/oled_ssd130x.h **** {
 247:../../libDaisy//src/dev/oled_ssd130x.h ****   public:
 248:../../libDaisy//src/dev/oled_ssd130x.h ****     struct Config
 249:../../libDaisy//src/dev/oled_ssd130x.h ****     {
 250:../../libDaisy//src/dev/oled_ssd130x.h ****         typename Transport::Config transport_config;
 251:../../libDaisy//src/dev/oled_ssd130x.h ****     };
 252:../../libDaisy//src/dev/oled_ssd130x.h **** 
 253:../../libDaisy//src/dev/oled_ssd130x.h ****     void Init(Config config)
 254:../../libDaisy//src/dev/oled_ssd130x.h ****     {
 255:../../libDaisy//src/dev/oled_ssd130x.h ****         transport_.Init(config.transport_config);
 256:../../libDaisy//src/dev/oled_ssd130x.h **** 
 257:../../libDaisy//src/dev/oled_ssd130x.h ****         // Init routine...
 258:../../libDaisy//src/dev/oled_ssd130x.h **** 
 259:../../libDaisy//src/dev/oled_ssd130x.h ****         // Display Off
 260:../../libDaisy//src/dev/oled_ssd130x.h ****         transport_.SendCommand(0xaE);
 261:../../libDaisy//src/dev/oled_ssd130x.h ****         // Dimension dependent commands...
 262:../../libDaisy//src/dev/oled_ssd130x.h ****         switch(height)
 263:../../libDaisy//src/dev/oled_ssd130x.h ****         {
 264:../../libDaisy//src/dev/oled_ssd130x.h ****             case 16:
 265:../../libDaisy//src/dev/oled_ssd130x.h ****                 // Display Clock Divide Ratio
 266:../../libDaisy//src/dev/oled_ssd130x.h ****                 transport_.SendCommand(0xD5);
 267:../../libDaisy//src/dev/oled_ssd130x.h ****                 transport_.SendCommand(0x60);
 268:../../libDaisy//src/dev/oled_ssd130x.h ****                 // Multiplex Ratio
ARM GAS  /var/folders/1y/_321xjh9623c014x9_qw12rr0000gn/T//cc1ZQ1Ea.s 			page 24


 269:../../libDaisy//src/dev/oled_ssd130x.h ****                 transport_.SendCommand(0xA8);
 270:../../libDaisy//src/dev/oled_ssd130x.h ****                 transport_.SendCommand(0x0F);
 271:../../libDaisy//src/dev/oled_ssd130x.h ****                 // COM Pins
 272:../../libDaisy//src/dev/oled_ssd130x.h ****                 transport_.SendCommand(0xDA);
 273:../../libDaisy//src/dev/oled_ssd130x.h ****                 transport_.SendCommand(0x02);
 274:../../libDaisy//src/dev/oled_ssd130x.h ****                 break;
 275:../../libDaisy//src/dev/oled_ssd130x.h ****             case 32:
 276:../../libDaisy//src/dev/oled_ssd130x.h ****                 // Display Clock Divide Ratio
 277:../../libDaisy//src/dev/oled_ssd130x.h ****                 transport_.SendCommand(0xD5);
 278:../../libDaisy//src/dev/oled_ssd130x.h ****                 transport_.SendCommand(0x80);
 279:../../libDaisy//src/dev/oled_ssd130x.h ****                 // Multiplex Ratio
 280:../../libDaisy//src/dev/oled_ssd130x.h ****                 transport_.SendCommand(0xA8);
 281:../../libDaisy//src/dev/oled_ssd130x.h ****                 transport_.SendCommand(0x1F);
 282:../../libDaisy//src/dev/oled_ssd130x.h ****                 // COM Pins
 283:../../libDaisy//src/dev/oled_ssd130x.h ****                 transport_.SendCommand(0xDA);
 284:../../libDaisy//src/dev/oled_ssd130x.h ****                 if(width == 64)
 285:../../libDaisy//src/dev/oled_ssd130x.h ****                 {
 286:../../libDaisy//src/dev/oled_ssd130x.h ****                     transport_.SendCommand(0x12);
 287:../../libDaisy//src/dev/oled_ssd130x.h ****                 }
 288:../../libDaisy//src/dev/oled_ssd130x.h ****                 else
 289:../../libDaisy//src/dev/oled_ssd130x.h ****                 {
 290:../../libDaisy//src/dev/oled_ssd130x.h ****                     transport_.SendCommand(0x02);
 291:../../libDaisy//src/dev/oled_ssd130x.h ****                 }
 292:../../libDaisy//src/dev/oled_ssd130x.h **** 
 293:../../libDaisy//src/dev/oled_ssd130x.h ****                 break;
 294:../../libDaisy//src/dev/oled_ssd130x.h ****             case 48:
 295:../../libDaisy//src/dev/oled_ssd130x.h ****                 // Display Clock Divide Ratio
 296:../../libDaisy//src/dev/oled_ssd130x.h ****                 transport_.SendCommand(0xD5);
 297:../../libDaisy//src/dev/oled_ssd130x.h ****                 transport_.SendCommand(0x80);
 298:../../libDaisy//src/dev/oled_ssd130x.h ****                 // Multiplex Ratio
 299:../../libDaisy//src/dev/oled_ssd130x.h ****                 transport_.SendCommand(0xA8);
 300:../../libDaisy//src/dev/oled_ssd130x.h ****                 transport_.SendCommand(0x2F);
 301:../../libDaisy//src/dev/oled_ssd130x.h ****                 // COM Pins
 302:../../libDaisy//src/dev/oled_ssd130x.h ****                 transport_.SendCommand(0xDA);
 303:../../libDaisy//src/dev/oled_ssd130x.h ****                 transport_.SendCommand(0x12);
 304:../../libDaisy//src/dev/oled_ssd130x.h ****                 break;
 305:../../libDaisy//src/dev/oled_ssd130x.h ****             default: // 128
 306:../../libDaisy//src/dev/oled_ssd130x.h ****                 // Display Clock Divide Ratio
 307:../../libDaisy//src/dev/oled_ssd130x.h ****                 transport_.SendCommand(0xD5);
 308:../../libDaisy//src/dev/oled_ssd130x.h ****                 transport_.SendCommand(0x80);
 309:../../libDaisy//src/dev/oled_ssd130x.h ****                 // Multiplex Ratio
 310:../../libDaisy//src/dev/oled_ssd130x.h ****                 transport_.SendCommand(0xA8);
 311:../../libDaisy//src/dev/oled_ssd130x.h ****                 transport_.SendCommand(0x3F);
 312:../../libDaisy//src/dev/oled_ssd130x.h ****                 // COM Pins
 313:../../libDaisy//src/dev/oled_ssd130x.h ****                 transport_.SendCommand(0xDA);
 314:../../libDaisy//src/dev/oled_ssd130x.h ****                 transport_.SendCommand(0x12);
 315:../../libDaisy//src/dev/oled_ssd130x.h ****                 break;
 316:../../libDaisy//src/dev/oled_ssd130x.h ****         }
 317:../../libDaisy//src/dev/oled_ssd130x.h **** 
 318:../../libDaisy//src/dev/oled_ssd130x.h ****         // Display Offset
 319:../../libDaisy//src/dev/oled_ssd130x.h ****         transport_.SendCommand(0xD3);
 320:../../libDaisy//src/dev/oled_ssd130x.h ****         transport_.SendCommand(0x00);
 321:../../libDaisy//src/dev/oled_ssd130x.h ****         // Start Line Address
 322:../../libDaisy//src/dev/oled_ssd130x.h ****         transport_.SendCommand(0x40);
 323:../../libDaisy//src/dev/oled_ssd130x.h ****         // Normal Display
 324:../../libDaisy//src/dev/oled_ssd130x.h ****         transport_.SendCommand(0xA6);
 325:../../libDaisy//src/dev/oled_ssd130x.h ****         // All On Resume
ARM GAS  /var/folders/1y/_321xjh9623c014x9_qw12rr0000gn/T//cc1ZQ1Ea.s 			page 25


 326:../../libDaisy//src/dev/oled_ssd130x.h ****         transport_.SendCommand(0xA4);
 327:../../libDaisy//src/dev/oled_ssd130x.h ****         // Charge Pump
 328:../../libDaisy//src/dev/oled_ssd130x.h ****         transport_.SendCommand(0x8D);
 329:../../libDaisy//src/dev/oled_ssd130x.h ****         transport_.SendCommand(0x14);
 330:../../libDaisy//src/dev/oled_ssd130x.h ****         // Set Segment Remap
 331:../../libDaisy//src/dev/oled_ssd130x.h ****         transport_.SendCommand(0xA1);
 332:../../libDaisy//src/dev/oled_ssd130x.h ****         // COM Output Scan Direction
 333:../../libDaisy//src/dev/oled_ssd130x.h ****         transport_.SendCommand(0xC8);
 334:../../libDaisy//src/dev/oled_ssd130x.h ****         // Contrast Control
 335:../../libDaisy//src/dev/oled_ssd130x.h ****         transport_.SendCommand(0x81);
 336:../../libDaisy//src/dev/oled_ssd130x.h ****         transport_.SendCommand(0x8F);
 337:../../libDaisy//src/dev/oled_ssd130x.h ****         // Pre Charge
 338:../../libDaisy//src/dev/oled_ssd130x.h ****         transport_.SendCommand(0xD9);
 339:../../libDaisy//src/dev/oled_ssd130x.h ****         transport_.SendCommand(0x25);
 340:../../libDaisy//src/dev/oled_ssd130x.h ****         // VCOM Detect
 341:../../libDaisy//src/dev/oled_ssd130x.h ****         transport_.SendCommand(0xDB);
 342:../../libDaisy//src/dev/oled_ssd130x.h ****         transport_.SendCommand(0x34);
 343:../../libDaisy//src/dev/oled_ssd130x.h **** 
 344:../../libDaisy//src/dev/oled_ssd130x.h **** 
 345:../../libDaisy//src/dev/oled_ssd130x.h ****         // Display On
 346:../../libDaisy//src/dev/oled_ssd130x.h ****         transport_.SendCommand(0xAF); //--turn on oled panel
 347:../../libDaisy//src/dev/oled_ssd130x.h ****     };
 348:../../libDaisy//src/dev/oled_ssd130x.h **** 
 349:../../libDaisy//src/dev/oled_ssd130x.h ****     size_t Width() const { return width; };
 350:../../libDaisy//src/dev/oled_ssd130x.h ****     size_t Height() const { return height; };
 351:../../libDaisy//src/dev/oled_ssd130x.h **** 
 352:../../libDaisy//src/dev/oled_ssd130x.h ****     void DrawPixel(uint_fast8_t x, uint_fast8_t y, bool on)
 353:../../libDaisy//src/dev/oled_ssd130x.h ****     {
 354:../../libDaisy//src/dev/oled_ssd130x.h ****         if(x >= width || y >= height)
 355:../../libDaisy//src/dev/oled_ssd130x.h ****             return;
 356:../../libDaisy//src/dev/oled_ssd130x.h ****         if(on)
 357:../../libDaisy//src/dev/oled_ssd130x.h ****             buffer_[x + (y / 8) * width] |= (1 << (y % 8));
 358:../../libDaisy//src/dev/oled_ssd130x.h ****         else
 359:../../libDaisy//src/dev/oled_ssd130x.h ****             buffer_[x + (y / 8) * width] &= ~(1 << (y % 8));
 360:../../libDaisy//src/dev/oled_ssd130x.h ****     }
 361:../../libDaisy//src/dev/oled_ssd130x.h **** 
 362:../../libDaisy//src/dev/oled_ssd130x.h ****     void Fill(bool on)
 228              		.loc 12 362 10 view .LVU33
 229              	.LBB415:
 363:../../libDaisy//src/dev/oled_ssd130x.h ****     {
 364:../../libDaisy//src/dev/oled_ssd130x.h ****         for(size_t i = 0; i < sizeof(buffer_); i++)
 230              		.loc 12 364 29 view .LVU34
 365:../../libDaisy//src/dev/oled_ssd130x.h ****         {
 366:../../libDaisy//src/dev/oled_ssd130x.h ****             buffer_[i] = on ? 0xff : 0x00;
 231              		.loc 12 366 24 is_stmt 0 view .LVU35
 232 0000 4942     		rsbs	r1, r1, #0
 233              	.LVL7:
 234              		.loc 12 366 24 view .LVU36
 235 0002 4FF48062 		mov	r2, #1024
 236 0006 1430     		adds	r0, r0, #20
 237              	.LVL8:
 238              		.loc 12 366 24 view .LVU37
 239 0008 C9B2     		uxtb	r1, r1
 240 000a FFF7FEBF 		b	memset
 241              	.LVL9:
 242              		.loc 12 366 24 view .LVU38
 243              	.LBE415:
ARM GAS  /var/folders/1y/_321xjh9623c014x9_qw12rr0000gn/T//cc1ZQ1Ea.s 			page 26


 244              	.LBE414:
 245              		.cfi_endproc
 246              	.LFE5433:
 248 000e 00BF     		.section	.text._Z13AudioCallbackPKPKfPPfj,"ax",%progbits
 249              		.align	1
 250              		.p2align 2,,3
 251              		.global	_Z13AudioCallbackPKPKfPPfj
 252              		.syntax unified
 253              		.thumb
 254              		.thumb_func
 256              	_Z13AudioCallbackPKPKfPPfj:
 257              	.LVL10:
 258              	.LFB4823:
 259              		.file 13 "DubbyPlayground.cpp"
   1:DubbyPlayground.cpp **** 
   2:DubbyPlayground.cpp **** #include "daisysp.h"
   3:DubbyPlayground.cpp **** #include "Dubby.h"
   4:DubbyPlayground.cpp **** 
   5:DubbyPlayground.cpp **** using namespace daisy;
   6:DubbyPlayground.cpp **** using namespace daisysp;
   7:DubbyPlayground.cpp **** 
   8:DubbyPlayground.cpp **** Dubby dubby;
   9:DubbyPlayground.cpp **** 
  10:DubbyPlayground.cpp **** void AudioCallback(AudioHandle::InputBuffer in, AudioHandle::OutputBuffer out, size_t size)
  11:DubbyPlayground.cpp **** {
 260              		.loc 13 11 1 is_stmt 1 view -0
 261              		.cfi_startproc
 262              		@ args = 0, pretend = 0, frame = 48
 263              		@ frame_needed = 0, uses_anonymous_args = 0
  12:DubbyPlayground.cpp ****     double sumSquared[4] = { 0.0f };
 264              		.loc 13 12 5 view .LVU40
  11:DubbyPlayground.cpp ****     double sumSquared[4] = { 0.0f };
 265              		.loc 13 11 1 is_stmt 0 view .LVU41
 266 0000 2DE9F04F 		push	{r4, r5, r6, r7, r8, r9, r10, fp, lr}
 267              		.cfi_def_cfa_offset 36
 268              		.cfi_offset 4, -36
 269              		.cfi_offset 5, -32
 270              		.cfi_offset 6, -28
 271              		.cfi_offset 7, -24
 272              		.cfi_offset 8, -20
 273              		.cfi_offset 9, -16
 274              		.cfi_offset 10, -12
 275              		.cfi_offset 11, -8
 276              		.cfi_offset 14, -4
 277 0004 8DB0     		sub	sp, sp, #52
 278              		.cfi_def_cfa_offset 88
  11:DubbyPlayground.cpp ****     double sumSquared[4] = { 0.0f };
 279              		.loc 13 11 1 view .LVU42
 280 0006 1446     		mov	r4, r2
 281 0008 8246     		mov	r10, r0
 282 000a 8846     		mov	r8, r1
 283 000c 0192     		str	r2, [sp, #4]
 284              		.loc 13 12 12 view .LVU43
 285 000e 0021     		movs	r1, #0
 286              	.LVL11:
 287              		.loc 13 12 12 view .LVU44
 288 0010 2022     		movs	r2, #32
ARM GAS  /var/folders/1y/_321xjh9623c014x9_qw12rr0000gn/T//cc1ZQ1Ea.s 			page 27


 289              	.LVL12:
 290              		.loc 13 12 12 view .LVU45
 291 0012 04A8     		add	r0, sp, #16
 292              	.LVL13:
 293              		.loc 13 12 12 view .LVU46
 294 0014 FFF7FEFF 		bl	memset
 295              	.LVL14:
  13:DubbyPlayground.cpp **** 
  14:DubbyPlayground.cpp **** 	for (size_t i = 0; i < size; i++)
 296              		.loc 13 14 2 is_stmt 1 view .LVU47
 297              	.LBB416:
 298              		.loc 13 14 23 view .LVU48
 299 0018 002C     		cmp	r4, #0
 300 001a 5AD0     		beq	.L16
 301 001c AAF10403 		sub	r3, r10, #4
 302 0020 DFF8DC90 		ldr	r9, .L22+24
 303              		.loc 13 14 14 is_stmt 0 view .LVU49
 304 0024 0027     		movs	r7, #0
 305 0026 0293     		str	r3, [sp, #8]
 306 0028 A8F10403 		sub	r3, r8, #4
 307 002c 0393     		str	r3, [sp, #12]
 308              	.LVL15:
 309              	.L10:
 310              		.loc 13 14 14 view .LVU50
 311 002e BE00     		lsls	r6, r7, #2
 312 0030 04AD     		add	r5, sp, #16
 313              	.LBB417:
 314              	.LBB418:
  15:DubbyPlayground.cpp **** 	{
  16:DubbyPlayground.cpp ****         for (int j = 0; j < 4; j++) 
 315              		.loc 13 16 18 view .LVU51
 316 0032 0024     		movs	r4, #0
 317 0034 DDE902BA 		ldrd	fp, r10, [sp, #8]
 318              	.L9:
 319              	.LVL16:
 320              	.LBB419:
  17:DubbyPlayground.cpp ****         {
  18:DubbyPlayground.cpp ****             out[j][i] = dubby.GetKnobValue(static_cast<Dubby::Ctrl>(j)) * in[j][i];
 321              		.loc 13 18 13 is_stmt 1 discriminator 2 view .LVU52
 322              		.loc 13 18 43 is_stmt 0 discriminator 2 view .LVU53
 323 0038 E1B2     		uxtb	r1, r4
 324 003a 2F48     		ldr	r0, .L22+16
 325 003c FFF7FEFF 		bl	_ZN5daisy5Dubby12GetKnobValueENS0_4CtrlE
 326              	.LVL17:
 327              		.loc 13 18 82 discriminator 2 view .LVU54
 328 0040 5BF8043F 		ldr	r3, [fp, #4]!
 329              	.LBE419:
  16:DubbyPlayground.cpp ****         {
 330              		.loc 13 16 9 discriminator 2 view .LVU55
 331 0044 0134     		adds	r4, r4, #1
 332              	.LVL18:
 333              	.LBB420:
 334              		.loc 13 18 82 discriminator 2 view .LVU56
 335 0046 3344     		add	r3, r3, r6
 336              	.LBE420:
  16:DubbyPlayground.cpp ****         {
 337              		.loc 13 16 27 discriminator 2 view .LVU57
ARM GAS  /var/folders/1y/_321xjh9623c014x9_qw12rr0000gn/T//cc1ZQ1Ea.s 			page 28


 338 0048 042C     		cmp	r4, #4
 339              	.LBB421:
 340              		.loc 13 18 73 discriminator 2 view .LVU58
 341 004a D3ED007A 		vldr.32	s15, [r3]
 342              		.loc 13 18 23 discriminator 2 view .LVU59
 343 004e 5AF8043F 		ldr	r3, [r10, #4]!
 344              		.loc 13 18 73 discriminator 2 view .LVU60
 345 0052 20EE270A 		vmul.f32	s0, s0, s15
 346              		.loc 13 18 23 discriminator 2 view .LVU61
 347 0056 3344     		add	r3, r3, r6
  19:DubbyPlayground.cpp **** 
  20:DubbyPlayground.cpp ****             float sample = out[j][i];
  21:DubbyPlayground.cpp ****             sumSquared[j] += sample * sample;
 348              		.loc 13 21 37 discriminator 2 view .LVU62
 349 0058 20EE007A 		vmul.f32	s14, s0, s0
  18:DubbyPlayground.cpp **** 
 350              		.loc 13 18 23 discriminator 2 view .LVU63
 351 005c 83ED000A 		vstr.32	s0, [r3]
  20:DubbyPlayground.cpp ****             sumSquared[j] += sample * sample;
 352              		.loc 13 20 13 is_stmt 1 discriminator 2 view .LVU64
 353              	.LVL19:
 354              		.loc 13 21 13 discriminator 2 view .LVU65
 355              		.loc 13 21 27 is_stmt 0 discriminator 2 view .LVU66
 356 0060 95ED006B 		vldr.64	d6, [r5]
 357              		.loc 13 21 37 discriminator 2 view .LVU67
 358 0064 B7EEC77A 		vcvt.f64.f32	d7, s14
 359              		.loc 13 21 27 discriminator 2 view .LVU68
 360 0068 37EE067B 		vadd.f64	d7, d7, d6
 361 006c A5EC027B 		vstmia.64	r5!, {d7}
 362              	.LBE421:
  16:DubbyPlayground.cpp ****         {
 363              		.loc 13 16 9 is_stmt 1 discriminator 2 view .LVU69
 364              	.LVL20:
  16:DubbyPlayground.cpp ****         {
 365              		.loc 13 16 27 discriminator 2 view .LVU70
 366 0070 E2D1     		bne	.L9
 367              	.LBE418:
  22:DubbyPlayground.cpp ****         } 
  23:DubbyPlayground.cpp **** 
  24:DubbyPlayground.cpp ****         dubby.scope_buffer[i] = (out[0][i] + out[1][i]) * .5f;   
 368              		.loc 13 24 9 discriminator 2 view .LVU71
 369              		.loc 13 24 57 is_stmt 0 discriminator 2 view .LVU72
 370 0072 B6EE007A 		vmov.f32	s14, #5.0e-1
 371              	.LBE417:
  14:DubbyPlayground.cpp **** 	{
 372              		.loc 13 14 2 discriminator 2 view .LVU73
 373 0076 0137     		adds	r7, r7, #1
 374              	.LVL21:
 375              	.LBB422:
 376              		.loc 13 24 54 discriminator 2 view .LVU74
 377 0078 D8E90023 		ldrd	r2, r3, [r8]
 378 007c 3344     		add	r3, r3, r6
 379              		.loc 13 24 42 discriminator 2 view .LVU75
 380 007e 3244     		add	r2, r2, r6
 381              		.loc 13 24 44 discriminator 2 view .LVU76
 382 0080 D3ED006A 		vldr.32	s13, [r3]
 383 0084 D2ED007A 		vldr.32	s15, [r2]
ARM GAS  /var/folders/1y/_321xjh9623c014x9_qw12rr0000gn/T//cc1ZQ1Ea.s 			page 29


 384              	.LBE422:
  14:DubbyPlayground.cpp **** 	{
 385              		.loc 13 14 23 discriminator 2 view .LVU77
 386 0088 019B     		ldr	r3, [sp, #4]
 387              	.LBB423:
 388              		.loc 13 24 44 discriminator 2 view .LVU78
 389 008a 77EEA67A 		vadd.f32	s15, s15, s13
 390              	.LBE423:
  14:DubbyPlayground.cpp **** 	{
 391              		.loc 13 14 23 discriminator 2 view .LVU79
 392 008e BB42     		cmp	r3, r7
 393              	.LBB424:
 394              		.loc 13 24 57 discriminator 2 view .LVU80
 395 0090 67EE877A 		vmul.f32	s15, s15, s14
 396              		.loc 13 24 31 discriminator 2 view .LVU81
 397 0094 E9EC017A 		vstmia.32	r9!, {s15}
 398              	.LBE424:
  14:DubbyPlayground.cpp **** 	{
 399              		.loc 13 14 2 is_stmt 1 discriminator 2 view .LVU82
 400              	.LVL22:
  14:DubbyPlayground.cpp **** 	{
 401              		.loc 13 14 23 discriminator 2 view .LVU83
 402 0098 C9D1     		bne	.L10
 403              	.LBE416:
 404              	.LBB425:
  25:DubbyPlayground.cpp **** 	}
  26:DubbyPlayground.cpp **** 
  27:DubbyPlayground.cpp ****     for (int j = 0; j < 4; j++) dubby.currentLevels[j] = sqrt(sumSquared[j] / AUDIO_BLOCK_SIZE);
 405              		.loc 13 27 75 is_stmt 0 view .LVU84
 406 009a 9DED040B 		vldr.64	d0, [sp, #16]
 407              	.LVL23:
 408              	.L8:
 409              		.loc 13 27 75 view .LVU85
 410 009e 06AC     		add	r4, sp, #24
 411 00a0 164D     		ldr	r5, .L22+20
 412 00a2 0CAE     		add	r6, sp, #48
 413              	.L15:
 414              		.loc 13 27 33 is_stmt 1 discriminator 2 view .LVU86
 415              		.loc 13 27 62 is_stmt 0 discriminator 2 view .LVU87
 416 00a4 9FED107B 		vldr.64	d7, .L22
 417 00a8 20EE070B 		vmul.f64	d0, d0, d7
 418 00ac B5EE400B 		vcmp.f64	d0, #0
 419 00b0 F1EE10FA 		vmrs	APSR_nzcv, FPSCR
 420 00b4 10D4     		bmi	.L20
 421              		.loc 13 27 62 view .LVU88
 422 00b6 B1EEC07B 		vsqrt.f64	d7, d0
 423              	.L13:
 424              		.loc 13 27 23 discriminator 2 view .LVU89
 425 00ba B442     		cmp	r4, r6
 426              		.loc 13 27 62 discriminator 2 view .LVU90
 427 00bc B7EEC77B 		vcvt.f32.f64	s14, d7
 428 00c0 A5EC017A 		vstmia.32	r5!, {s14}
 429              		.loc 13 27 5 is_stmt 1 discriminator 2 view .LVU91
 430              		.loc 13 27 23 discriminator 2 view .LVU92
 431 00c4 02D0     		beq	.L7
 432              		.loc 13 27 75 is_stmt 0 view .LVU93
 433 00c6 B4EC020B 		vldmia.64	r4!, {d0}
ARM GAS  /var/folders/1y/_321xjh9623c014x9_qw12rr0000gn/T//cc1ZQ1Ea.s 			page 30


 434 00ca EBE7     		b	.L15
 435              	.L7:
 436              	.LBE425:
  28:DubbyPlayground.cpp **** }
 437              		.loc 13 28 1 view .LVU94
 438 00cc 0DB0     		add	sp, sp, #52
 439              		.cfi_remember_state
 440              		.cfi_def_cfa_offset 36
 441              		@ sp needed
 442 00ce BDE8F08F 		pop	{r4, r5, r6, r7, r8, r9, r10, fp, pc}
 443              	.LVL24:
 444              	.L16:
 445              		.cfi_restore_state
 446              	.LBB426:
  14:DubbyPlayground.cpp **** 	{
 447              		.loc 13 14 23 view .LVU95
 448 00d2 9FED070B 		vldr.64	d0, .L22+8
 449 00d6 E2E7     		b	.L8
 450              	.LVL25:
 451              	.L20:
  14:DubbyPlayground.cpp **** 	{
 452              		.loc 13 14 23 view .LVU96
 453              	.LBE426:
 454              	.LBB427:
  27:DubbyPlayground.cpp **** }
 455              		.loc 13 27 62 discriminator 2 view .LVU97
 456 00d8 FFF7FEFF 		bl	sqrt
 457              	.LVL26:
 458 00dc B0EE407B 		vmov.f64	d7, d0
 459 00e0 EBE7     		b	.L13
 460              	.L23:
 461 00e2 00BFAFF3 		.align	3
 461      0080
 462              	.L22:
 463 00e8 00000000 		.word	0
 464 00ec 0000803F 		.word	1065353216
 465 00f0 00000000 		.word	0
 466 00f4 00000000 		.word	0
 467 00f8 00000000 		.word	dubby
 468 00fc 40040000 		.word	dubby+1088
 469 0100 40020000 		.word	dubby+576
 470              	.LBE427:
 471              		.cfi_endproc
 472              	.LFE4823:
 474              		.section	.text._ZN5daisy11OledDisplayINS_13SSD130xDriverILj128ELj64ENS_24SSD130x4WireSpiTransportE
 475              		.align	1
 476              		.p2align 2,,3
 477              		.weak	_ZN5daisy11OledDisplayINS_13SSD130xDriverILj128ELj64ENS_24SSD130x4WireSpiTransportEEEED0Ev
 478              		.syntax unified
 479              		.thumb
 480              		.thumb_func
 482              	_ZN5daisy11OledDisplayINS_13SSD130xDriverILj128ELj64ENS_24SSD130x4WireSpiTransportEEEED0Ev:
 483              	.LVL27:
 484              	.LFB5144:
  18:../../libDaisy//src/hid/disp/oled_display.h **** 
 485              		.loc 3 18 13 is_stmt 1 view -0
 486              		.cfi_startproc
ARM GAS  /var/folders/1y/_321xjh9623c014x9_qw12rr0000gn/T//cc1ZQ1Ea.s 			page 31


 487              		@ args = 0, pretend = 0, frame = 0
 488              		@ frame_needed = 0, uses_anonymous_args = 0
  18:../../libDaisy//src/hid/disp/oled_display.h **** 
 489              		.loc 3 18 13 is_stmt 0 view .LVU99
 490 0000 10B5     		push	{r4, lr}
 491              		.cfi_def_cfa_offset 8
 492              		.cfi_offset 4, -8
 493              		.cfi_offset 14, -4
  18:../../libDaisy//src/hid/disp/oled_display.h **** 
 494              		.loc 3 18 13 view .LVU100
 495 0002 0446     		mov	r4, r0
 496              	.LVL28:
 497              	.LBB428:
 498              	.LBI428:
  18:../../libDaisy//src/hid/disp/oled_display.h **** 
 499              		.loc 3 18 13 is_stmt 1 view .LVU101
 500              	.LBB429:
 501              	.LBI429:
 502              		.loc 4 219 13 view .LVU102
 503              	.LBB430:
 504              	.LBI430:
  23:../../libDaisy//src/hid/disp/display.h **** 
 505              		.loc 4 23 13 view .LVU103
  23:../../libDaisy//src/hid/disp/display.h **** 
 506              		.loc 4 23 13 is_stmt 0 view .LVU104
 507              	.LBE430:
 508              	.LBE429:
 509              	.LBE428:
  18:../../libDaisy//src/hid/disp/oled_display.h **** 
 510              		.loc 3 18 29 view .LVU105
 511 0004 40F21441 		movw	r1, #1044
 512 0008 FFF7FEFF 		bl	_ZdlPvj
 513              	.LVL29:
  18:../../libDaisy//src/hid/disp/oled_display.h **** 
 514              		.loc 3 18 29 view .LVU106
 515 000c 2046     		mov	r0, r4
 516 000e 10BD     		pop	{r4, pc}
  18:../../libDaisy//src/hid/disp/oled_display.h **** 
 517              		.loc 3 18 29 view .LVU107
 518              		.cfi_endproc
 519              	.LFE5144:
 521              		.section	.text._ZN5daisy11OledDisplayINS_13SSD130xDriverILj128ELj64ENS_24SSD130x4WireSpiTransportE
 522              		.align	1
 523              		.p2align 2,,3
 524              		.weak	_ZN5daisy11OledDisplayINS_13SSD130xDriverILj128ELj64ENS_24SSD130x4WireSpiTransportEEEE6Updat
 525              		.syntax unified
 526              		.thumb
 527              		.thumb_func
 529              	_ZN5daisy11OledDisplayINS_13SSD130xDriverILj128ELj64ENS_24SSD130x4WireSpiTransportEEEE6UpdateEv:
 530              	.LVL30:
 531              	.LFB5441:
  35:../../libDaisy//src/hid/disp/oled_display.h **** 
  36:../../libDaisy//src/hid/disp/oled_display.h ****     /**
  37:../../libDaisy//src/hid/disp/oled_display.h ****     Sets the pixel at the specified coordinate to be on/off.
  38:../../libDaisy//src/hid/disp/oled_display.h ****     \param x   x Coordinate
  39:../../libDaisy//src/hid/disp/oled_display.h ****     \param y   y coordinate
  40:../../libDaisy//src/hid/disp/oled_display.h ****     \param on  on or off
ARM GAS  /var/folders/1y/_321xjh9623c014x9_qw12rr0000gn/T//cc1ZQ1Ea.s 			page 32


  41:../../libDaisy//src/hid/disp/oled_display.h ****     */
  42:../../libDaisy//src/hid/disp/oled_display.h ****     void DrawPixel(uint_fast8_t x, uint_fast8_t y, bool on) override
  43:../../libDaisy//src/hid/disp/oled_display.h ****     {
  44:../../libDaisy//src/hid/disp/oled_display.h ****         driver_.DrawPixel(x, y, on);
  45:../../libDaisy//src/hid/disp/oled_display.h ****     }
  46:../../libDaisy//src/hid/disp/oled_display.h **** 
  47:../../libDaisy//src/hid/disp/oled_display.h ****     /** 
  48:../../libDaisy//src/hid/disp/oled_display.h ****     Writes the current display buffer to the OLED device using SPI or I2C depending on 
  49:../../libDaisy//src/hid/disp/oled_display.h ****     how the object was initialized.
  50:../../libDaisy//src/hid/disp/oled_display.h ****     */
  51:../../libDaisy//src/hid/disp/oled_display.h ****     void Update() override { driver_.Update(); }
 532              		.loc 3 51 10 is_stmt 1 view -0
 533              		.cfi_startproc
 534              		@ args = 0, pretend = 0, frame = 8
 535              		@ frame_needed = 0, uses_anonymous_args = 0
 536              	.LBB441:
 537              	.LBI441:
 367:../../libDaisy//src/dev/oled_ssd130x.h ****         }
 368:../../libDaisy//src/dev/oled_ssd130x.h ****     };
 369:../../libDaisy//src/dev/oled_ssd130x.h **** 
 370:../../libDaisy//src/dev/oled_ssd130x.h ****     /**
 371:../../libDaisy//src/dev/oled_ssd130x.h ****      * Update the display 
 372:../../libDaisy//src/dev/oled_ssd130x.h ****     */
 373:../../libDaisy//src/dev/oled_ssd130x.h ****     void Update()
 538              		.loc 12 373 10 view .LVU109
 539              	.LBB442:
 374:../../libDaisy//src/dev/oled_ssd130x.h ****     {
 375:../../libDaisy//src/dev/oled_ssd130x.h ****         uint8_t i;
 376:../../libDaisy//src/dev/oled_ssd130x.h ****         uint8_t high_column_addr;
 377:../../libDaisy//src/dev/oled_ssd130x.h ****         switch(height)
 378:../../libDaisy//src/dev/oled_ssd130x.h ****         {
 379:../../libDaisy//src/dev/oled_ssd130x.h ****             case 32: high_column_addr = 0x12; break;
 380:../../libDaisy//src/dev/oled_ssd130x.h **** 
 381:../../libDaisy//src/dev/oled_ssd130x.h ****             default: high_column_addr = 0x10; break;
 382:../../libDaisy//src/dev/oled_ssd130x.h ****         }
 383:../../libDaisy//src/dev/oled_ssd130x.h ****         for(i = 0; i < (height / 8); i++)
 540              		.loc 12 383 22 view .LVU110
 541              	.LBE442:
 542              	.LBE441:
 543              		.loc 3 51 10 is_stmt 0 view .LVU111
 544 0000 2DE9F041 		push	{r4, r5, r6, r7, r8, lr}
 545              		.cfi_def_cfa_offset 24
 546              		.cfi_offset 4, -24
 547              		.cfi_offset 5, -20
 548              		.cfi_offset 6, -16
 549              		.cfi_offset 7, -12
 550              		.cfi_offset 8, -8
 551              		.cfi_offset 14, -4
 552              	.LBB464:
 553              	.LBB462:
 554              	.LBB443:
 555              	.LBB444:
 125:../../libDaisy//src/dev/oled_ssd130x.h ****     };
 556              		.loc 12 125 30 view .LVU112
 557 0004 B024     		movs	r4, #176
 558              	.LBE444:
 559              	.LBE443:
ARM GAS  /var/folders/1y/_321xjh9623c014x9_qw12rr0000gn/T//cc1ZQ1Ea.s 			page 33


 560              	.LBE462:
 561              	.LBE464:
 562              		.loc 3 51 10 view .LVU113
 563 0006 82B0     		sub	sp, sp, #8
 564              		.cfi_def_cfa_offset 32
 565              	.LBB465:
 566              	.LBB463:
 567              	.LBB449:
 568              	.LBB445:
 124:../../libDaisy//src/dev/oled_ssd130x.h ****         spi_.BlockingTransmit(&cmd, 1);
 569              		.loc 12 124 24 view .LVU114
 570 0008 00F10806 		add	r6, r0, #8
 571 000c 00F11005 		add	r5, r0, #16
 572 0010 00F11408 		add	r8, r0, #20
 573              	.LVL31:
 574              	.L27:
 124:../../libDaisy//src/dev/oled_ssd130x.h ****         spi_.BlockingTransmit(&cmd, 1);
 575              		.loc 12 124 24 view .LVU115
 576 0014 0027     		movs	r7, #0
 124:../../libDaisy//src/dev/oled_ssd130x.h ****         spi_.BlockingTransmit(&cmd, 1);
 577              		.loc 12 124 23 view .LVU116
 578 0016 2846     		mov	r0, r5
 579 0018 8DF80740 		strb	r4, [sp, #7]
 580              	.LVL32:
 124:../../libDaisy//src/dev/oled_ssd130x.h ****         spi_.BlockingTransmit(&cmd, 1);
 581              		.loc 12 124 23 view .LVU117
 582              	.LBE445:
 583              	.LBI443:
 122:../../libDaisy//src/dev/oled_ssd130x.h ****     {
 584              		.loc 12 122 10 is_stmt 1 view .LVU118
 585              	.LBB446:
 124:../../libDaisy//src/dev/oled_ssd130x.h ****         spi_.BlockingTransmit(&cmd, 1);
 586              		.loc 12 124 9 view .LVU119
 587              	.LBE446:
 588              	.LBE449:
 589              		.loc 12 383 22 is_stmt 0 view .LVU120
 590 001c 0134     		adds	r4, r4, #1
 591              	.LVL33:
 592              	.LBB450:
 593              	.LBB447:
 124:../../libDaisy//src/dev/oled_ssd130x.h ****         spi_.BlockingTransmit(&cmd, 1);
 594              		.loc 12 124 23 view .LVU121
 595 001e 3946     		mov	r1, r7
 596 0020 FFF7FEFF 		bl	dsy_gpio_write
 597              	.LVL34:
 125:../../libDaisy//src/dev/oled_ssd130x.h ****     };
 598              		.loc 12 125 9 is_stmt 1 view .LVU122
 125:../../libDaisy//src/dev/oled_ssd130x.h ****     };
 599              		.loc 12 125 30 is_stmt 0 view .LVU123
 600 0024 6423     		movs	r3, #100
 601 0026 0122     		movs	r2, #1
 602 0028 0DF10701 		add	r1, sp, #7
 603 002c 3046     		mov	r0, r6
 604              	.LBE447:
 605              	.LBE450:
 606              		.loc 12 383 22 view .LVU124
 607 002e E4B2     		uxtb	r4, r4
ARM GAS  /var/folders/1y/_321xjh9623c014x9_qw12rr0000gn/T//cc1ZQ1Ea.s 			page 34


 608              	.LBB451:
 609              	.LBB448:
 125:../../libDaisy//src/dev/oled_ssd130x.h ****     };
 610              		.loc 12 125 30 view .LVU125
 611 0030 FFF7FEFF 		bl	_ZN5daisy9SpiHandle16BlockingTransmitEPhjm
 612              	.LVL35:
 125:../../libDaisy//src/dev/oled_ssd130x.h ****     };
 613              		.loc 12 125 30 view .LVU126
 614              	.LBE448:
 615              	.LBE451:
 616              	.LBB452:
 617              	.LBB453:
 124:../../libDaisy//src/dev/oled_ssd130x.h ****         spi_.BlockingTransmit(&cmd, 1);
 618              		.loc 12 124 23 view .LVU127
 619 0034 3946     		mov	r1, r7
 620 0036 2846     		mov	r0, r5
 621 0038 8DF80770 		strb	r7, [sp, #7]
 622              	.LVL36:
 124:../../libDaisy//src/dev/oled_ssd130x.h ****         spi_.BlockingTransmit(&cmd, 1);
 623              		.loc 12 124 23 view .LVU128
 624              	.LBE453:
 625              	.LBI452:
 122:../../libDaisy//src/dev/oled_ssd130x.h ****     {
 626              		.loc 12 122 10 is_stmt 1 view .LVU129
 627              	.LBB454:
 124:../../libDaisy//src/dev/oled_ssd130x.h ****         spi_.BlockingTransmit(&cmd, 1);
 628              		.loc 12 124 9 view .LVU130
 124:../../libDaisy//src/dev/oled_ssd130x.h ****         spi_.BlockingTransmit(&cmd, 1);
 629              		.loc 12 124 23 is_stmt 0 view .LVU131
 630 003c FFF7FEFF 		bl	dsy_gpio_write
 631              	.LVL37:
 125:../../libDaisy//src/dev/oled_ssd130x.h ****     };
 632              		.loc 12 125 9 is_stmt 1 view .LVU132
 125:../../libDaisy//src/dev/oled_ssd130x.h ****     };
 633              		.loc 12 125 30 is_stmt 0 view .LVU133
 634 0040 0122     		movs	r2, #1
 635 0042 6423     		movs	r3, #100
 636 0044 0DF10701 		add	r1, sp, #7
 637 0048 3046     		mov	r0, r6
 638 004a FFF7FEFF 		bl	_ZN5daisy9SpiHandle16BlockingTransmitEPhjm
 639              	.LVL38:
 125:../../libDaisy//src/dev/oled_ssd130x.h ****     };
 640              		.loc 12 125 30 view .LVU134
 641 004e 1023     		movs	r3, #16
 642              	.LBE454:
 643              	.LBE452:
 644              	.LBB455:
 645              	.LBB456:
 124:../../libDaisy//src/dev/oled_ssd130x.h ****         spi_.BlockingTransmit(&cmd, 1);
 646              		.loc 12 124 23 view .LVU135
 647 0050 3946     		mov	r1, r7
 648 0052 2846     		mov	r0, r5
 649 0054 8DF80730 		strb	r3, [sp, #7]
 650              	.LVL39:
 124:../../libDaisy//src/dev/oled_ssd130x.h ****         spi_.BlockingTransmit(&cmd, 1);
 651              		.loc 12 124 23 view .LVU136
 652              	.LBE456:
ARM GAS  /var/folders/1y/_321xjh9623c014x9_qw12rr0000gn/T//cc1ZQ1Ea.s 			page 35


 653              	.LBI455:
 122:../../libDaisy//src/dev/oled_ssd130x.h ****     {
 654              		.loc 12 122 10 is_stmt 1 view .LVU137
 655              	.LBB457:
 124:../../libDaisy//src/dev/oled_ssd130x.h ****         spi_.BlockingTransmit(&cmd, 1);
 656              		.loc 12 124 9 view .LVU138
 124:../../libDaisy//src/dev/oled_ssd130x.h ****         spi_.BlockingTransmit(&cmd, 1);
 657              		.loc 12 124 23 is_stmt 0 view .LVU139
 658 0058 FFF7FEFF 		bl	dsy_gpio_write
 659              	.LVL40:
 125:../../libDaisy//src/dev/oled_ssd130x.h ****     };
 660              		.loc 12 125 9 is_stmt 1 view .LVU140
 125:../../libDaisy//src/dev/oled_ssd130x.h ****     };
 661              		.loc 12 125 30 is_stmt 0 view .LVU141
 662 005c 6423     		movs	r3, #100
 663 005e 0122     		movs	r2, #1
 664 0060 0DF10701 		add	r1, sp, #7
 665 0064 3046     		mov	r0, r6
 666 0066 FFF7FEFF 		bl	_ZN5daisy9SpiHandle16BlockingTransmitEPhjm
 667              	.LVL41:
 125:../../libDaisy//src/dev/oled_ssd130x.h ****     };
 668              		.loc 12 125 30 view .LVU142
 669              	.LBE457:
 670              	.LBE455:
 671              	.LBB458:
 672              	.LBI458:
 128:../../libDaisy//src/dev/oled_ssd130x.h ****     {
 673              		.loc 12 128 10 is_stmt 1 view .LVU143
 674              	.LBB459:
 130:../../libDaisy//src/dev/oled_ssd130x.h ****         spi_.BlockingTransmit(buff, size);
 675              		.loc 12 130 9 view .LVU144
 130:../../libDaisy//src/dev/oled_ssd130x.h ****         spi_.BlockingTransmit(buff, size);
 676              		.loc 12 130 23 is_stmt 0 view .LVU145
 677 006a 0121     		movs	r1, #1
 678 006c 2846     		mov	r0, r5
 679 006e FFF7FEFF 		bl	dsy_gpio_write
 680              	.LVL42:
 131:../../libDaisy//src/dev/oled_ssd130x.h ****     };
 681              		.loc 12 131 9 is_stmt 1 view .LVU146
 131:../../libDaisy//src/dev/oled_ssd130x.h ****     };
 682              		.loc 12 131 30 is_stmt 0 view .LVU147
 683 0072 8022     		movs	r2, #128
 684 0074 4146     		mov	r1, r8
 685 0076 6423     		movs	r3, #100
 686 0078 3046     		mov	r0, r6
 687              	.LBE459:
 688              	.LBE458:
 689              		.loc 12 383 22 view .LVU148
 690 007a 9044     		add	r8, r8, r2
 691              	.LVL43:
 692              	.LBB461:
 693              	.LBB460:
 131:../../libDaisy//src/dev/oled_ssd130x.h ****     };
 694              		.loc 12 131 30 view .LVU149
 695 007c FFF7FEFF 		bl	_ZN5daisy9SpiHandle16BlockingTransmitEPhjm
 696              	.LVL44:
 131:../../libDaisy//src/dev/oled_ssd130x.h ****     };
ARM GAS  /var/folders/1y/_321xjh9623c014x9_qw12rr0000gn/T//cc1ZQ1Ea.s 			page 36


 697              		.loc 12 131 30 view .LVU150
 698              	.LBE460:
 699              	.LBE461:
 700              		.loc 12 383 9 is_stmt 1 view .LVU151
 701              		.loc 12 383 22 view .LVU152
 702 0080 B82C     		cmp	r4, #184
 703 0082 C7D1     		bne	.L27
 704              	.LBE463:
 705              	.LBE465:
 706              		.loc 3 51 48 is_stmt 0 view .LVU153
 707 0084 02B0     		add	sp, sp, #8
 708              		.cfi_def_cfa_offset 24
 709              		@ sp needed
 710 0086 BDE8F081 		pop	{r4, r5, r6, r7, r8, pc}
 711              		.loc 3 51 48 view .LVU154
 712              		.cfi_endproc
 713              	.LFE5441:
 715 008a 00BF     		.section	.text._ZN5daisy25OneBitGraphicsDisplayImplINS_11OledDisplayINS_13SSD130xDriverILj128ELj64
 716              		.align	1
 717              		.p2align 2,,3
 718              		.weak	_ZN5daisy25OneBitGraphicsDisplayImplINS_11OledDisplayINS_13SSD130xDriverILj128ELj64ENS_24SSD
 719              		.syntax unified
 720              		.thumb
 721              		.thumb_func
 723              	_ZN5daisy25OneBitGraphicsDisplayImplINS_11OledDisplayINS_13SSD130xDriverILj128ELj64ENS_24SSD130x4Wi
 724              	.LVL45:
 725              	.LFB5439:
 220:../../libDaisy//src/hid/disp/display.h **** 
 221:../../libDaisy//src/hid/disp/display.h ****     void DrawLine(uint_fast8_t x1,
 222:../../libDaisy//src/hid/disp/display.h ****                   uint_fast8_t y1,
 223:../../libDaisy//src/hid/disp/display.h ****                   uint_fast8_t x2,
 224:../../libDaisy//src/hid/disp/display.h ****                   uint_fast8_t y2,
 225:../../libDaisy//src/hid/disp/display.h ****                   bool         on) override
 226:../../libDaisy//src/hid/disp/display.h ****     {
 227:../../libDaisy//src/hid/disp/display.h ****         int_fast16_t deltaX = abs((int_fast16_t)x2 - (int_fast16_t)x1);
 228:../../libDaisy//src/hid/disp/display.h ****         int_fast16_t deltaY = abs((int_fast16_t)y2 - (int_fast16_t)y1);
 229:../../libDaisy//src/hid/disp/display.h ****         int_fast16_t signX  = ((x1 < x2) ? 1 : -1);
 230:../../libDaisy//src/hid/disp/display.h ****         int_fast16_t signY  = ((y1 < y2) ? 1 : -1);
 231:../../libDaisy//src/hid/disp/display.h ****         int_fast16_t error  = deltaX - deltaY;
 232:../../libDaisy//src/hid/disp/display.h ****         int_fast16_t error2;
 233:../../libDaisy//src/hid/disp/display.h **** 
 234:../../libDaisy//src/hid/disp/display.h ****         // If we write "ChildType::DrawPixel(x2, y2, on);", we end up with
 235:../../libDaisy//src/hid/disp/display.h ****         // all sorts of weird compiler errors when the Child class is a template
 236:../../libDaisy//src/hid/disp/display.h ****         // class. The only way around this is to use this very verbose syntax:
 237:../../libDaisy//src/hid/disp/display.h ****         ((ChildType*)(this))->ChildType::DrawPixel(x2, y2, on);
 238:../../libDaisy//src/hid/disp/display.h **** 
 239:../../libDaisy//src/hid/disp/display.h ****         while((x1 != x2) || (y1 != y2))
 240:../../libDaisy//src/hid/disp/display.h ****         {
 241:../../libDaisy//src/hid/disp/display.h ****             ((ChildType*)(this))->ChildType::DrawPixel(x1, y1, on);
 242:../../libDaisy//src/hid/disp/display.h ****             error2 = error * 2;
 243:../../libDaisy//src/hid/disp/display.h ****             if(error2 > -deltaY)
 244:../../libDaisy//src/hid/disp/display.h ****             {
 245:../../libDaisy//src/hid/disp/display.h ****                 error -= deltaY;
 246:../../libDaisy//src/hid/disp/display.h ****                 x1 += signX;
 247:../../libDaisy//src/hid/disp/display.h ****             }
 248:../../libDaisy//src/hid/disp/display.h **** 
 249:../../libDaisy//src/hid/disp/display.h ****             if(error2 < deltaX)
ARM GAS  /var/folders/1y/_321xjh9623c014x9_qw12rr0000gn/T//cc1ZQ1Ea.s 			page 37


 250:../../libDaisy//src/hid/disp/display.h ****             {
 251:../../libDaisy//src/hid/disp/display.h ****                 error += deltaX;
 252:../../libDaisy//src/hid/disp/display.h ****                 y1 += signY;
 253:../../libDaisy//src/hid/disp/display.h ****             }
 254:../../libDaisy//src/hid/disp/display.h ****         }
 255:../../libDaisy//src/hid/disp/display.h ****     }
 256:../../libDaisy//src/hid/disp/display.h **** 
 257:../../libDaisy//src/hid/disp/display.h ****     void DrawRect(uint_fast8_t x1,
 258:../../libDaisy//src/hid/disp/display.h ****                   uint_fast8_t y1,
 259:../../libDaisy//src/hid/disp/display.h ****                   uint_fast8_t x2,
 260:../../libDaisy//src/hid/disp/display.h ****                   uint_fast8_t y2,
 261:../../libDaisy//src/hid/disp/display.h ****                   bool         on,
 262:../../libDaisy//src/hid/disp/display.h ****                   bool         fill = false) override
 263:../../libDaisy//src/hid/disp/display.h ****     {
 264:../../libDaisy//src/hid/disp/display.h ****         if(fill)
 265:../../libDaisy//src/hid/disp/display.h ****         {
 266:../../libDaisy//src/hid/disp/display.h ****             for(uint_fast8_t x = x1; x <= x2; x++)
 267:../../libDaisy//src/hid/disp/display.h ****             {
 268:../../libDaisy//src/hid/disp/display.h ****                 for(uint_fast8_t y = y1; y <= y2; y++)
 269:../../libDaisy//src/hid/disp/display.h ****                 {
 270:../../libDaisy//src/hid/disp/display.h ****                     ((ChildType*)(this))->ChildType::DrawPixel(x, y, on);
 271:../../libDaisy//src/hid/disp/display.h ****                 }
 272:../../libDaisy//src/hid/disp/display.h ****             }
 273:../../libDaisy//src/hid/disp/display.h ****         }
 274:../../libDaisy//src/hid/disp/display.h ****         else
 275:../../libDaisy//src/hid/disp/display.h ****         {
 276:../../libDaisy//src/hid/disp/display.h ****             ((ChildType*)(this))->ChildType::DrawLine(x1, y1, x2, y1, on);
 277:../../libDaisy//src/hid/disp/display.h ****             ((ChildType*)(this))->ChildType::DrawLine(x2, y1, x2, y2, on);
 278:../../libDaisy//src/hid/disp/display.h ****             ((ChildType*)(this))->ChildType::DrawLine(x2, y2, x1, y2, on);
 279:../../libDaisy//src/hid/disp/display.h ****             ((ChildType*)(this))->ChildType::DrawLine(x1, y2, x1, y1, on);
 280:../../libDaisy//src/hid/disp/display.h ****         }
 281:../../libDaisy//src/hid/disp/display.h ****     }
 282:../../libDaisy//src/hid/disp/display.h **** 
 283:../../libDaisy//src/hid/disp/display.h ****     void DrawArc(uint_fast8_t x,
 284:../../libDaisy//src/hid/disp/display.h ****                  uint_fast8_t y,
 285:../../libDaisy//src/hid/disp/display.h ****                  uint_fast8_t radius,
 286:../../libDaisy//src/hid/disp/display.h ****                  int_fast16_t start_angle,
 287:../../libDaisy//src/hid/disp/display.h ****                  int_fast16_t sweep,
 288:../../libDaisy//src/hid/disp/display.h ****                  bool         on) override
 289:../../libDaisy//src/hid/disp/display.h ****     {
 290:../../libDaisy//src/hid/disp/display.h ****         // Values to calculate the circle
 291:../../libDaisy//src/hid/disp/display.h ****         int_fast16_t t_x, t_y, err, e2;
 292:../../libDaisy//src/hid/disp/display.h **** 
 293:../../libDaisy//src/hid/disp/display.h ****         // Temporary values to speed up comparisons
 294:../../libDaisy//src/hid/disp/display.h ****         float t_sxy, t_syx, t_sxny, t_synx;
 295:../../libDaisy//src/hid/disp/display.h ****         float t_exy, t_eyx, t_exny, t_eynx;
 296:../../libDaisy//src/hid/disp/display.h **** 
 297:../../libDaisy//src/hid/disp/display.h ****         float start_angle_rad, end_angle_rad;
 298:../../libDaisy//src/hid/disp/display.h ****         float start_x, start_y, end_x, end_y;
 299:../../libDaisy//src/hid/disp/display.h **** 
 300:../../libDaisy//src/hid/disp/display.h ****         bool d1, d2, d3, d4;
 301:../../libDaisy//src/hid/disp/display.h **** 
 302:../../libDaisy//src/hid/disp/display.h ****         d1 = d2 = d3 = d4 = true;
 303:../../libDaisy//src/hid/disp/display.h **** 
 304:../../libDaisy//src/hid/disp/display.h ****         bool circle = false;
 305:../../libDaisy//src/hid/disp/display.h **** 
 306:../../libDaisy//src/hid/disp/display.h ****         if(sweep < 0)
ARM GAS  /var/folders/1y/_321xjh9623c014x9_qw12rr0000gn/T//cc1ZQ1Ea.s 			page 38


 307:../../libDaisy//src/hid/disp/display.h ****         {
 308:../../libDaisy//src/hid/disp/display.h ****             start_angle += sweep;
 309:../../libDaisy//src/hid/disp/display.h ****             sweep = -sweep;
 310:../../libDaisy//src/hid/disp/display.h ****         }
 311:../../libDaisy//src/hid/disp/display.h **** 
 312:../../libDaisy//src/hid/disp/display.h ****         start_angle_rad = deg2rad(start_angle);
 313:../../libDaisy//src/hid/disp/display.h ****         end_angle_rad   = deg2rad(start_angle + sweep);
 314:../../libDaisy//src/hid/disp/display.h **** 
 315:../../libDaisy//src/hid/disp/display.h ****         start_x = cos(start_angle_rad) * radius;
 316:../../libDaisy//src/hid/disp/display.h ****         start_y = -sin(start_angle_rad) * radius;
 317:../../libDaisy//src/hid/disp/display.h ****         end_x   = cos(end_angle_rad) * radius;
 318:../../libDaisy//src/hid/disp/display.h ****         end_y   = -sin(end_angle_rad) * radius;
 319:../../libDaisy//src/hid/disp/display.h **** 
 320:../../libDaisy//src/hid/disp/display.h ****         // Check if start and endpoint are very near
 321:../../libDaisy//src/hid/disp/display.h ****         if((end_x - start_x) * (end_x - start_x)
 322:../../libDaisy//src/hid/disp/display.h ****                + (end_y - start_y) * (end_y - start_y)
 323:../../libDaisy//src/hid/disp/display.h ****            < 2.0f)
 324:../../libDaisy//src/hid/disp/display.h ****         {
 325:../../libDaisy//src/hid/disp/display.h ****             if(sweep > 180)
 326:../../libDaisy//src/hid/disp/display.h ****                 circle = true;
 327:../../libDaisy//src/hid/disp/display.h ****             else
 328:../../libDaisy//src/hid/disp/display.h ****                 // Nothing to draw
 329:../../libDaisy//src/hid/disp/display.h ****                 return;
 330:../../libDaisy//src/hid/disp/display.h ****         }
 331:../../libDaisy//src/hid/disp/display.h **** 
 332:../../libDaisy//src/hid/disp/display.h ****         t_x = -radius;
 333:../../libDaisy//src/hid/disp/display.h ****         t_y = 0;
 334:../../libDaisy//src/hid/disp/display.h ****         err = 2 - 2 * radius;
 335:../../libDaisy//src/hid/disp/display.h **** 
 336:../../libDaisy//src/hid/disp/display.h ****         do
 337:../../libDaisy//src/hid/disp/display.h ****         {
 338:../../libDaisy//src/hid/disp/display.h ****             if(!circle)
 339:../../libDaisy//src/hid/disp/display.h ****             {
 340:../../libDaisy//src/hid/disp/display.h ****                 t_sxy  = start_x * t_y;
 341:../../libDaisy//src/hid/disp/display.h ****                 t_syx  = start_y * t_x;
 342:../../libDaisy//src/hid/disp/display.h ****                 t_sxny = start_x * -t_y;
 343:../../libDaisy//src/hid/disp/display.h ****                 t_synx = start_y * -t_x;
 344:../../libDaisy//src/hid/disp/display.h ****                 t_exy  = end_x * t_y;
 345:../../libDaisy//src/hid/disp/display.h ****                 t_eyx  = end_y * t_x;
 346:../../libDaisy//src/hid/disp/display.h ****                 t_exny = end_x * -t_y;
 347:../../libDaisy//src/hid/disp/display.h ****                 t_eynx = end_y * -t_x;
 348:../../libDaisy//src/hid/disp/display.h **** 
 349:../../libDaisy//src/hid/disp/display.h ****                 if(sweep > 180)
 350:../../libDaisy//src/hid/disp/display.h ****                 {
 351:../../libDaisy//src/hid/disp/display.h ****                     d1 = (t_sxy - t_synx < 0 || t_exy - t_eynx > 0);
 352:../../libDaisy//src/hid/disp/display.h ****                     d2 = (t_sxy - t_syx < 0 || t_exy - t_eyx > 0);
 353:../../libDaisy//src/hid/disp/display.h ****                     d3 = (t_sxny - t_syx < 0 || t_exny - t_eyx > 0);
 354:../../libDaisy//src/hid/disp/display.h ****                     d4 = (t_sxny - t_synx < 0 || t_exny - t_eynx > 0);
 355:../../libDaisy//src/hid/disp/display.h ****                 }
 356:../../libDaisy//src/hid/disp/display.h ****                 else
 357:../../libDaisy//src/hid/disp/display.h ****                 {
 358:../../libDaisy//src/hid/disp/display.h ****                     d1 = (t_sxy - t_synx < 0 && t_exy - t_eynx > 0);
 359:../../libDaisy//src/hid/disp/display.h ****                     d2 = (t_sxy - t_syx < 0 && t_exy - t_eyx > 0);
 360:../../libDaisy//src/hid/disp/display.h ****                     d3 = (t_sxny - t_syx < 0 && t_exny - t_eyx > 0);
 361:../../libDaisy//src/hid/disp/display.h ****                     d4 = (t_sxny - t_synx < 0 && t_exny - t_eynx > 0);
 362:../../libDaisy//src/hid/disp/display.h ****                 }
 363:../../libDaisy//src/hid/disp/display.h ****             }
ARM GAS  /var/folders/1y/_321xjh9623c014x9_qw12rr0000gn/T//cc1ZQ1Ea.s 			page 39


 364:../../libDaisy//src/hid/disp/display.h **** 
 365:../../libDaisy//src/hid/disp/display.h ****             if(d1)
 366:../../libDaisy//src/hid/disp/display.h ****                 ((ChildType*)(this))
 367:../../libDaisy//src/hid/disp/display.h ****                     ->ChildType::DrawPixel(x - t_x, y + t_y, on);
 368:../../libDaisy//src/hid/disp/display.h ****             if(d2)
 369:../../libDaisy//src/hid/disp/display.h ****                 ((ChildType*)(this))
 370:../../libDaisy//src/hid/disp/display.h ****                     ->ChildType::DrawPixel(x + t_x, y + t_y, on);
 371:../../libDaisy//src/hid/disp/display.h ****             if(d3)
 372:../../libDaisy//src/hid/disp/display.h ****                 ((ChildType*)(this))
 373:../../libDaisy//src/hid/disp/display.h ****                     ->ChildType::DrawPixel(x + t_x, y - t_y, on);
 374:../../libDaisy//src/hid/disp/display.h ****             if(d4)
 375:../../libDaisy//src/hid/disp/display.h ****                 ((ChildType*)(this))
 376:../../libDaisy//src/hid/disp/display.h ****                     ->ChildType::DrawPixel(x - t_x, y - t_y, on);
 377:../../libDaisy//src/hid/disp/display.h **** 
 378:../../libDaisy//src/hid/disp/display.h ****             e2 = err;
 379:../../libDaisy//src/hid/disp/display.h ****             if(e2 <= t_y)
 380:../../libDaisy//src/hid/disp/display.h ****             {
 381:../../libDaisy//src/hid/disp/display.h ****                 t_y++;
 382:../../libDaisy//src/hid/disp/display.h ****                 err = err + (t_y * 2 + 1);
 383:../../libDaisy//src/hid/disp/display.h ****                 if(-t_x == t_y && e2 <= t_x)
 384:../../libDaisy//src/hid/disp/display.h ****                 {
 385:../../libDaisy//src/hid/disp/display.h ****                     e2 = 0;
 386:../../libDaisy//src/hid/disp/display.h ****                 }
 387:../../libDaisy//src/hid/disp/display.h ****             }
 388:../../libDaisy//src/hid/disp/display.h ****             if(e2 > t_x)
 389:../../libDaisy//src/hid/disp/display.h ****             {
 390:../../libDaisy//src/hid/disp/display.h ****                 t_x++;
 391:../../libDaisy//src/hid/disp/display.h ****                 err = err + (t_x * 2 + 1);
 392:../../libDaisy//src/hid/disp/display.h ****             }
 393:../../libDaisy//src/hid/disp/display.h ****         } while(t_x <= 0);
 394:../../libDaisy//src/hid/disp/display.h ****     }
 395:../../libDaisy//src/hid/disp/display.h **** 
 396:../../libDaisy//src/hid/disp/display.h ****     char WriteChar(char ch, FontDef font, bool on) override
 397:../../libDaisy//src/hid/disp/display.h ****     {
 398:../../libDaisy//src/hid/disp/display.h ****         uint32_t i, b, j;
 399:../../libDaisy//src/hid/disp/display.h **** 
 400:../../libDaisy//src/hid/disp/display.h ****         // Check if character is valid
 401:../../libDaisy//src/hid/disp/display.h ****         if(ch < 32 || ch > 126)
 402:../../libDaisy//src/hid/disp/display.h ****             return 0;
 403:../../libDaisy//src/hid/disp/display.h **** 
 404:../../libDaisy//src/hid/disp/display.h ****         // Check remaining space on current line
 405:../../libDaisy//src/hid/disp/display.h ****         if(Width() < (currentX_ + font.FontWidth)
 406:../../libDaisy//src/hid/disp/display.h ****            || Height() < (currentY_ + font.FontHeight))
 407:../../libDaisy//src/hid/disp/display.h ****         {
 408:../../libDaisy//src/hid/disp/display.h ****             // Not enough space on current line
 409:../../libDaisy//src/hid/disp/display.h ****             return 0;
 410:../../libDaisy//src/hid/disp/display.h ****         }
 411:../../libDaisy//src/hid/disp/display.h **** 
 412:../../libDaisy//src/hid/disp/display.h ****         // Use the font to write
 413:../../libDaisy//src/hid/disp/display.h ****         for(i = 0; i < font.FontHeight; i++)
 414:../../libDaisy//src/hid/disp/display.h ****         {
 415:../../libDaisy//src/hid/disp/display.h ****             b = font.data[(ch - 32) * font.FontHeight + i];
 416:../../libDaisy//src/hid/disp/display.h ****             for(j = 0; j < font.FontWidth; j++)
 417:../../libDaisy//src/hid/disp/display.h ****             {
 418:../../libDaisy//src/hid/disp/display.h ****                 if((b << j) & 0x8000)
 419:../../libDaisy//src/hid/disp/display.h ****                 {
 420:../../libDaisy//src/hid/disp/display.h ****                     ((ChildType*)(this))
ARM GAS  /var/folders/1y/_321xjh9623c014x9_qw12rr0000gn/T//cc1ZQ1Ea.s 			page 40


 421:../../libDaisy//src/hid/disp/display.h ****                         ->ChildType::DrawPixel(
 422:../../libDaisy//src/hid/disp/display.h ****                             currentX_ + j, (currentY_ + i), on);
 423:../../libDaisy//src/hid/disp/display.h ****                 }
 424:../../libDaisy//src/hid/disp/display.h ****                 else
 425:../../libDaisy//src/hid/disp/display.h ****                 {
 426:../../libDaisy//src/hid/disp/display.h ****                     ((ChildType*)(this))
 427:../../libDaisy//src/hid/disp/display.h ****                         ->ChildType::DrawPixel(
 428:../../libDaisy//src/hid/disp/display.h ****                             currentX_ + j, (currentY_ + i), !on);
 429:../../libDaisy//src/hid/disp/display.h ****                 }
 430:../../libDaisy//src/hid/disp/display.h ****             }
 431:../../libDaisy//src/hid/disp/display.h ****         }
 432:../../libDaisy//src/hid/disp/display.h **** 
 433:../../libDaisy//src/hid/disp/display.h ****         // The current space is now taken
 434:../../libDaisy//src/hid/disp/display.h ****         SetCursor(currentX_ + font.FontWidth, currentY_);
 435:../../libDaisy//src/hid/disp/display.h **** 
 436:../../libDaisy//src/hid/disp/display.h ****         // Return written char for validation
 437:../../libDaisy//src/hid/disp/display.h ****         return ch;
 438:../../libDaisy//src/hid/disp/display.h ****     }
 439:../../libDaisy//src/hid/disp/display.h **** 
 440:../../libDaisy//src/hid/disp/display.h ****     char WriteString(const char* str, FontDef font, bool on) override
 726              		.loc 4 440 10 is_stmt 1 view -0
 727              		.cfi_startproc
 728              		@ args = 4, pretend = 0, frame = 32
 729              		@ frame_needed = 0, uses_anonymous_args = 0
 730              		.loc 4 440 10 is_stmt 0 view .LVU156
 731 0000 2DE9F04F 		push	{r4, r5, r6, r7, r8, r9, r10, fp, lr}
 732              		.cfi_def_cfa_offset 36
 733              		.cfi_offset 4, -36
 734              		.cfi_offset 5, -32
 735              		.cfi_offset 6, -28
 736              		.cfi_offset 7, -24
 737              		.cfi_offset 8, -20
 738              		.cfi_offset 9, -16
 739              		.cfi_offset 10, -12
 740              		.cfi_offset 11, -8
 741              		.cfi_offset 14, -4
 742 0004 89B0     		sub	sp, sp, #36
 743              		.cfi_def_cfa_offset 72
 744              		.loc 4 440 10 view .LVU157
 745 0006 08AC     		add	r4, sp, #32
 746 0008 9DF84870 		ldrb	r7, [sp, #72]	@ zero_extendqisi2
 747 000c 0191     		str	r1, [sp, #4]
 748 000e 04E90C00 		stmdb	r4, {r2, r3}
 441:../../libDaisy//src/hid/disp/display.h ****     {
 442:../../libDaisy//src/hid/disp/display.h ****         // Write until null-byte
 443:../../libDaisy//src/hid/disp/display.h ****         while(*str)
 749              		.loc 4 443 9 is_stmt 1 view .LVU158
 750 0012 0B78     		ldrb	r3, [r1]	@ zero_extendqisi2
 751 0014 002B     		cmp	r3, #0
 752 0016 00F0AB80 		beq	.L54
 753 001a 1A46     		mov	r2, r3
 754 001c 9DF81880 		ldrb	r8, [sp, #24]	@ zero_extendqisi2
 755 0020 9DF81930 		ldrb	r3, [sp, #25]	@ zero_extendqisi2
 756 0024 0646     		mov	r6, r0
 757 0026 4546     		mov	r5, r8
 758 0028 9046     		mov	r8, r2
 759 002a 0393     		str	r3, [sp, #12]
ARM GAS  /var/folders/1y/_321xjh9623c014x9_qw12rr0000gn/T//cc1ZQ1Ea.s 			page 41


 760 002c 079B     		ldr	r3, [sp, #28]
 761 002e 0593     		str	r3, [sp, #20]
 762              	.LVL46:
 763              	.L55:
 764              	.LBB494:
 765              	.LBI494:
 396:../../libDaisy//src/hid/disp/display.h ****     {
 766              		.loc 4 396 10 view .LVU159
 767              	.LBB495:
 401:../../libDaisy//src/hid/disp/display.h ****             return 0;
 768              		.loc 4 401 20 is_stmt 0 view .LVU160
 769 0030 A8F12004 		sub	r4, r8, #32
 401:../../libDaisy//src/hid/disp/display.h ****             return 0;
 770              		.loc 4 401 9 view .LVU161
 771 0034 E3B2     		uxtb	r3, r4
 772 0036 5E2B     		cmp	r3, #94
 773 0038 00F29E80 		bhi	.L36
 405:../../libDaisy//src/hid/disp/display.h ****            || Height() < (currentY_ + font.FontHeight))
 774              		.loc 4 405 17 view .LVU162
 775 003c 3368     		ldr	r3, [r6]
 776 003e 5E4A     		ldr	r2, .L76
 777 0040 DB68     		ldr	r3, [r3, #12]
 778 0042 9342     		cmp	r3, r2
 779 0044 40F09B80 		bne	.L69
 780 0048 8020     		movs	r0, #128
 781              	.L35:
 405:../../libDaisy//src/hid/disp/display.h ****            || Height() < (currentY_ + font.FontHeight))
 782              		.loc 4 405 23 view .LVU163
 783 004a B388     		ldrh	r3, [r6, #4]
 405:../../libDaisy//src/hid/disp/display.h ****            || Height() < (currentY_ + font.FontHeight))
 784              		.loc 4 405 33 view .LVU164
 785 004c 2B44     		add	r3, r3, r5
 406:../../libDaisy//src/hid/disp/display.h ****         {
 786              		.loc 4 406 12 view .LVU165
 787 004e 8342     		cmp	r3, r0
 788 0050 00F39280 		bgt	.L36
 406:../../libDaisy//src/hid/disp/display.h ****         {
 789              		.loc 4 406 21 view .LVU166
 790 0054 3368     		ldr	r3, [r6]
 791 0056 594A     		ldr	r2, .L76+4
 792 0058 9B68     		ldr	r3, [r3, #8]
 793 005a 9342     		cmp	r3, r2
 794 005c 40F09280 		bne	.L70
 795 0060 4020     		movs	r0, #64
 796              	.L37:
 406:../../libDaisy//src/hid/disp/display.h ****         {
 797              		.loc 4 406 27 view .LVU167
 798 0062 F188     		ldrh	r1, [r6, #6]
 406:../../libDaisy//src/hid/disp/display.h ****         {
 799              		.loc 4 406 37 view .LVU168
 800 0064 039A     		ldr	r2, [sp, #12]
 406:../../libDaisy//src/hid/disp/display.h ****         {
 801              		.loc 4 406 27 view .LVU169
 802 0066 0291     		str	r1, [sp, #8]
 406:../../libDaisy//src/hid/disp/display.h ****         {
 803              		.loc 4 406 37 view .LVU170
 804 0068 8B18     		adds	r3, r1, r2
ARM GAS  /var/folders/1y/_321xjh9623c014x9_qw12rr0000gn/T//cc1ZQ1Ea.s 			page 42


 406:../../libDaisy//src/hid/disp/display.h ****         {
 805              		.loc 4 406 12 view .LVU171
 806 006a 8342     		cmp	r3, r0
 807 006c 00F38480 		bgt	.L36
 808              	.LVL47:
 413:../../libDaisy//src/hid/disp/display.h ****         {
 809              		.loc 4 413 22 is_stmt 1 view .LVU172
 810 0070 002A     		cmp	r2, #0
 811 0072 00F09180 		beq	.L38
 415:../../libDaisy//src/hid/disp/display.h ****             for(j = 0; j < font.FontWidth; j++)
 812              		.loc 4 415 37 is_stmt 0 view .LVU173
 813 0076 02FB04F4 		mul	r4, r2, r4
 814 007a 6FF00049 		mvn	r9, #-2147483648
 815 007e 059B     		ldr	r3, [sp, #20]
 816 0080 A144     		add	r9, r9, r4
 817 0082 1444     		add	r4, r4, r2
 434:../../libDaisy//src/hid/disp/display.h **** 
 818              		.loc 4 434 19 view .LVU174
 819 0084 B6F804B0 		ldrh	fp, [r6, #4]
 820 0088 03EB4909 		add	r9, r3, r9, lsl #1
 821 008c 023B     		subs	r3, r3, #2
 822 008e CDF81080 		str	r8, [sp, #16]
 823 0092 03EB4403 		add	r3, r3, r4, lsl #1
 824 0096 0C46     		mov	r4, r1
 825 0098 9A46     		mov	r10, r3
 826              	.LVL48:
 827              	.L41:
 415:../../libDaisy//src/hid/disp/display.h ****             for(j = 0; j < font.FontWidth; j++)
 828              		.loc 4 415 15 view .LVU175
 829 009a 39F802CF 		ldrh	ip, [r9, #2]!
 830              	.LVL49:
 416:../../libDaisy//src/hid/disp/display.h ****             {
 831              		.loc 4 416 26 is_stmt 1 view .LVU176
 832 009e A5B3     		cbz	r5, .L46
 833              	.LBB496:
 834              	.LBB497:
 835              	.LBB498:
 836              	.LBB499:
 837              	.LBB500:
 359:../../libDaisy//src/dev/oled_ssd130x.h ****     }
 838              		.loc 12 359 55 is_stmt 0 view .LVU177
 839 00a0 04F00703 		and	r3, r4, #7
 359:../../libDaisy//src/dev/oled_ssd130x.h ****     }
 840              		.loc 12 359 49 view .LVU178
 841 00a4 4FF0010E 		mov	lr, #1
 359:../../libDaisy//src/dev/oled_ssd130x.h ****     }
 842              		.loc 12 359 28 view .LVU179
 843 00a8 E208     		lsrs	r2, r4, #3
 844 00aa 5946     		mov	r1, fp
 359:../../libDaisy//src/dev/oled_ssd130x.h ****     }
 845              		.loc 12 359 49 view .LVU180
 846 00ac 0EFA03FE 		lsl	lr, lr, r3
 847 00b0 0BF11403 		add	r3, fp, #20
 359:../../libDaisy//src/dev/oled_ssd130x.h ****     }
 848              		.loc 12 359 42 view .LVU181
 849 00b4 4FFA8EFE 		sxtb	lr, lr
 850 00b8 03EBC212 		add	r2, r3, r2, lsl #7
ARM GAS  /var/folders/1y/_321xjh9623c014x9_qw12rr0000gn/T//cc1ZQ1Ea.s 			page 43


 851              	.LBE500:
 852              	.LBE499:
 853              	.LBE498:
 854              	.LBE497:
 855              	.LBE496:
 416:../../libDaisy//src/hid/disp/display.h ****             {
 856              		.loc 4 416 19 view .LVU182
 857 00bc 0023     		movs	r3, #0
 858              	.LBB518:
 859              	.LBB513:
 860              	.LBB508:
 861              	.LBB504:
 862              	.LBB501:
 359:../../libDaisy//src/dev/oled_ssd130x.h ****     }
 863              		.loc 12 359 42 view .LVU183
 864 00be 6FEA0E08 		mvn	r8, lr
 865 00c2 3244     		add	r2, r2, r6
 866 00c4 0DE0     		b	.L47
 867              	.LVL50:
 868              	.L71:
 359:../../libDaisy//src/dev/oled_ssd130x.h ****     }
 869              		.loc 12 359 42 view .LVU184
 870              	.LBE501:
 871              	.LBE504:
 872              	.LBE508:
 873              	.LBE513:
 874              	.LBE518:
 875              	.LBB519:
 876              	.LBI519:
  42:../../libDaisy//src/hid/disp/oled_display.h ****     {
 877              		.loc 3 42 10 is_stmt 1 view .LVU185
 878              	.LBB520:
 879              	.LBI520:
 352:../../libDaisy//src/dev/oled_ssd130x.h ****     {
 880              		.loc 12 352 10 view .LVU186
 881              	.LBB521:
 354:../../libDaisy//src/dev/oled_ssd130x.h ****             return;
 882              		.loc 12 354 9 is_stmt 0 view .LVU187
 883 00c6 7F29     		cmp	r1, #127
 884 00c8 06D8     		bhi	.L43
 885 00ca 3F2C     		cmp	r4, #63
 886 00cc 04D8     		bhi	.L43
 357:../../libDaisy//src/dev/oled_ssd130x.h ****         else
 887              		.loc 12 357 42 view .LVU188
 888 00ce 1078     		ldrb	r0, [r2]	@ zero_extendqisi2
 356:../../libDaisy//src/dev/oled_ssd130x.h ****             buffer_[x + (y / 8) * width] |= (1 << (y % 8));
 889              		.loc 12 356 9 view .LVU189
 890 00d0 97B1     		cbz	r7, .L45
 891              	.L68:
 356:../../libDaisy//src/dev/oled_ssd130x.h ****             buffer_[x + (y / 8) * width] |= (1 << (y % 8));
 892              		.loc 12 356 9 view .LVU190
 893              	.LBE521:
 894              	.LBE520:
 895              	.LBE519:
 896              	.LBB522:
 897              	.LBB514:
 898              	.LBB509:
ARM GAS  /var/folders/1y/_321xjh9623c014x9_qw12rr0000gn/T//cc1ZQ1Ea.s 			page 44


 357:../../libDaisy//src/dev/oled_ssd130x.h ****         else
 899              		.loc 12 357 42 view .LVU191
 900 00d2 4EEA0000 		orr	r0, lr, r0
 901 00d6 1070     		strb	r0, [r2]
 902              	.L43:
 903              	.LBE509:
 904              	.LBE514:
 905              	.LBE522:
 416:../../libDaisy//src/hid/disp/display.h ****             {
 906              		.loc 4 416 13 is_stmt 1 view .LVU192
 907 00d8 0133     		adds	r3, r3, #1
 908              	.LVL51:
 416:../../libDaisy//src/hid/disp/display.h ****             {
 909              		.loc 4 416 26 view .LVU193
 910 00da 0132     		adds	r2, r2, #1
 911 00dc 0131     		adds	r1, r1, #1
 912 00de AB42     		cmp	r3, r5
 913 00e0 13D0     		beq	.L46
 914              	.LVL52:
 915              	.L47:
 418:../../libDaisy//src/hid/disp/display.h ****                 {
 916              		.loc 4 418 23 is_stmt 0 view .LVU194
 917 00e2 0CFA03F0 		lsl	r0, ip, r3
 418:../../libDaisy//src/hid/disp/display.h ****                 {
 918              		.loc 4 418 17 view .LVU195
 919 00e6 0004     		lsls	r0, r0, #16
 920 00e8 EDD4     		bmi	.L71
 921              	.LVL53:
 922              	.LBB523:
 923              	.LBI496:
  42:../../libDaisy//src/hid/disp/oled_display.h ****     {
 924              		.loc 3 42 10 is_stmt 1 view .LVU196
 925              	.LBB515:
 926              	.LBI497:
 352:../../libDaisy//src/dev/oled_ssd130x.h ****     {
 927              		.loc 12 352 10 view .LVU197
 928              	.LBB510:
 354:../../libDaisy//src/dev/oled_ssd130x.h ****             return;
 929              		.loc 12 354 9 is_stmt 0 view .LVU198
 930 00ea 7F29     		cmp	r1, #127
 931 00ec F4D8     		bhi	.L43
 932 00ee 3F2C     		cmp	r4, #63
 933 00f0 F2D8     		bhi	.L43
 357:../../libDaisy//src/dev/oled_ssd130x.h ****         else
 934              		.loc 12 357 42 view .LVU199
 935 00f2 1078     		ldrb	r0, [r2]	@ zero_extendqisi2
 356:../../libDaisy//src/dev/oled_ssd130x.h ****             buffer_[x + (y / 8) * width] |= (1 << (y % 8));
 936              		.loc 12 356 9 view .LVU200
 937 00f4 002F     		cmp	r7, #0
 938 00f6 ECD0     		beq	.L68
 939              	.L45:
 940              	.LVL54:
 941              	.LBB505:
 942              	.LBI499:
 352:../../libDaisy//src/dev/oled_ssd130x.h ****     {
 943              		.loc 12 352 10 is_stmt 1 view .LVU201
 352:../../libDaisy//src/dev/oled_ssd130x.h ****     {
ARM GAS  /var/folders/1y/_321xjh9623c014x9_qw12rr0000gn/T//cc1ZQ1Ea.s 			page 45


 944              		.loc 12 352 10 is_stmt 0 view .LVU202
 945              	.LBE505:
 946              	.LBE510:
 947              	.LBE515:
 948              	.LBE523:
 416:../../libDaisy//src/hid/disp/display.h ****             {
 949              		.loc 4 416 13 view .LVU203
 950 00f8 0133     		adds	r3, r3, #1
 951              	.LVL55:
 952              	.LBB524:
 953              	.LBB516:
 954              	.LBB511:
 955              	.LBB506:
 956              	.LBB502:
 359:../../libDaisy//src/dev/oled_ssd130x.h ****     }
 957              		.loc 12 359 42 view .LVU204
 958 00fa 08EA0000 		and	r0, r8, r0
 959              	.LBE502:
 960              	.LBE506:
 961              	.LBE511:
 962              	.LBE516:
 963              	.LBE524:
 416:../../libDaisy//src/hid/disp/display.h ****             {
 964              		.loc 4 416 26 view .LVU205
 965 00fe 0132     		adds	r2, r2, #1
 966 0100 0131     		adds	r1, r1, #1
 967 0102 AB42     		cmp	r3, r5
 968              	.LBB525:
 969              	.LBB517:
 970              	.LBB512:
 971              	.LBB507:
 972              	.LBB503:
 359:../../libDaisy//src/dev/oled_ssd130x.h ****     }
 973              		.loc 12 359 42 view .LVU206
 974 0104 02F8010C 		strb	r0, [r2, #-1]
 359:../../libDaisy//src/dev/oled_ssd130x.h ****     }
 975              		.loc 12 359 42 view .LVU207
 976              	.LBE503:
 977              	.LBE507:
 978              	.LBE512:
 979              	.LBE517:
 980              	.LBE525:
 416:../../libDaisy//src/hid/disp/display.h ****             {
 981              		.loc 4 416 13 is_stmt 1 view .LVU208
 982              	.LVL56:
 416:../../libDaisy//src/hid/disp/display.h ****             {
 983              		.loc 4 416 26 view .LVU209
 984 0108 EBD1     		bne	.L47
 985              	.LVL57:
 986              	.L46:
 413:../../libDaisy//src/hid/disp/display.h ****         {
 987              		.loc 4 413 9 view .LVU210
 413:../../libDaisy//src/hid/disp/display.h ****         {
 988              		.loc 4 413 22 view .LVU211
 989 010a D145     		cmp	r9, r10
 990 010c 04F10104 		add	r4, r4, #1
 991 0110 C3D1     		bne	.L41
ARM GAS  /var/folders/1y/_321xjh9623c014x9_qw12rr0000gn/T//cc1ZQ1Ea.s 			page 46


 992 0112 DDF81080 		ldr	r8, [sp, #16]
 993              	.LVL58:
 994              	.L40:
 995              	.LBB526:
 996              	.LBB527:
 173:../../libDaisy//src/hid/disp/display.h ****         currentY_ = (y >= Height()) ? Height() - 1 : y;
 997              		.loc 4 173 33 is_stmt 0 view .LVU212
 998 0116 3268     		ldr	r2, [r6]
 999              	.LBE527:
 1000              	.LBE526:
 434:../../libDaisy//src/hid/disp/display.h **** 
 1001              		.loc 4 434 18 view .LVU213
 1002 0118 0BEB0504 		add	r4, fp, r5
 1003 011c 2649     		ldr	r1, .L76
 1004              	.LBB532:
 1005              	.LBB528:
 173:../../libDaisy//src/hid/disp/display.h ****         currentY_ = (y >= Height()) ? Height() - 1 : y;
 1006              		.loc 4 173 33 view .LVU214
 1007 011e D368     		ldr	r3, [r2, #12]
 1008              	.LBE528:
 1009              	.LBE532:
 434:../../libDaisy//src/hid/disp/display.h **** 
 1010              		.loc 4 434 18 view .LVU215
 1011 0120 A4B2     		uxth	r4, r4
 1012              	.LVL59:
 1013              	.LBB533:
 1014              	.LBI526:
 171:../../libDaisy//src/hid/disp/display.h ****     {
 1015              		.loc 4 171 10 is_stmt 1 view .LVU216
 1016              	.LBB529:
 173:../../libDaisy//src/hid/disp/display.h ****         currentY_ = (y >= Height()) ? Height() - 1 : y;
 1017              		.loc 4 173 9 view .LVU217
 1018 0122 8B42     		cmp	r3, r1
 1019 0124 34D1     		bne	.L72
 173:../../libDaisy//src/hid/disp/display.h ****         currentY_ = (y >= Height()) ? Height() - 1 : y;
 1020              		.loc 4 173 33 is_stmt 0 view .LVU218
 1021 0126 8020     		movs	r0, #128
 1022              	.L48:
 173:../../libDaisy//src/hid/disp/display.h ****         currentY_ = (y >= Height()) ? Height() - 1 : y;
 1023              		.loc 4 173 19 view .LVU219
 1024 0128 8442     		cmp	r4, r0
 1025 012a 04D3     		bcc	.L49
 173:../../libDaisy//src/hid/disp/display.h ****         currentY_ = (y >= Height()) ? Height() - 1 : y;
 1026              		.loc 4 173 44 view .LVU220
 1027 012c D368     		ldr	r3, [r2, #12]
 1028 012e 2249     		ldr	r1, .L76
 1029 0130 8B42     		cmp	r3, r1
 1030 0132 3AD1     		bne	.L73
 1031 0134 7F24     		movs	r4, #127
 1032              	.LVL60:
 1033              	.L49:
 174:../../libDaisy//src/hid/disp/display.h ****     }
 1034              		.loc 4 174 34 view .LVU221
 1035 0136 9368     		ldr	r3, [r2, #8]
 1036 0138 204A     		ldr	r2, .L76+4
 173:../../libDaisy//src/hid/disp/display.h ****         currentY_ = (y >= Height()) ? Height() - 1 : y;
 1037              		.loc 4 173 19 view .LVU222
ARM GAS  /var/folders/1y/_321xjh9623c014x9_qw12rr0000gn/T//cc1ZQ1Ea.s 			page 47


 1038 013a B480     		strh	r4, [r6, #4]	@ movhi
 174:../../libDaisy//src/hid/disp/display.h ****     }
 1039              		.loc 4 174 9 is_stmt 1 view .LVU223
 1040 013c 9342     		cmp	r3, r2
 1041 013e 24D1     		bne	.L74
 174:../../libDaisy//src/hid/disp/display.h ****     }
 1042              		.loc 4 174 34 is_stmt 0 view .LVU224
 1043 0140 4020     		movs	r0, #64
 1044              	.L51:
 174:../../libDaisy//src/hid/disp/display.h ****     }
 1045              		.loc 4 174 19 view .LVU225
 1046 0142 029B     		ldr	r3, [sp, #8]
 1047 0144 8342     		cmp	r3, r0
 1048 0146 06D3     		bcc	.L52
 174:../../libDaisy//src/hid/disp/display.h ****     }
 1049              		.loc 4 174 46 view .LVU226
 1050 0148 3368     		ldr	r3, [r6]
 1051 014a 1C4A     		ldr	r2, .L76+4
 1052 014c 9B68     		ldr	r3, [r3, #8]
 1053 014e 9342     		cmp	r3, r2
 1054 0150 25D1     		bne	.L75
 1055 0152 3F23     		movs	r3, #63
 1056 0154 0293     		str	r3, [sp, #8]
 1057              	.LVL61:
 1058              	.L52:
 174:../../libDaisy//src/hid/disp/display.h ****     }
 1059              		.loc 4 174 19 view .LVU227
 1060 0156 029B     		ldr	r3, [sp, #8]
 1061 0158 F380     		strh	r3, [r6, #6]	@ movhi
 1062              	.LVL62:
 1063              	.L34:
 174:../../libDaisy//src/hid/disp/display.h ****     }
 1064              		.loc 4 174 19 view .LVU228
 1065              	.LBE529:
 1066              	.LBE533:
 1067              	.LBE495:
 1068              	.LBE494:
 444:../../libDaisy//src/hid/disp/display.h ****         {
 445:../../libDaisy//src/hid/disp/display.h ****             if(((ChildType*)(this))->ChildType::WriteChar(*str, font, on)
 446:../../libDaisy//src/hid/disp/display.h ****                != *str)
 1069              		.loc 4 446 16 view .LVU229
 1070 015a 019B     		ldr	r3, [sp, #4]
 1071 015c 1878     		ldrb	r0, [r3]	@ zero_extendqisi2
 445:../../libDaisy//src/hid/disp/display.h ****                != *str)
 1072              		.loc 4 445 13 view .LVU230
 1073 015e 4045     		cmp	r0, r8
 1074 0160 07D1     		bne	.L32
 1075              	.LVL63:
 443:../../libDaisy//src/hid/disp/display.h ****         {
 1076              		.loc 4 443 9 is_stmt 1 view .LVU231
 1077 0162 13F8018F 		ldrb	r8, [r3, #1]!	@ zero_extendqisi2
 1078              	.LVL64:
 443:../../libDaisy//src/hid/disp/display.h ****         {
 1079              		.loc 4 443 9 is_stmt 0 view .LVU232
 1080 0166 0193     		str	r3, [sp, #4]
 1081 0168 B8F1000F 		cmp	r8, #0
 1082 016c 7FF460AF 		bne	.L55
ARM GAS  /var/folders/1y/_321xjh9623c014x9_qw12rr0000gn/T//cc1ZQ1Ea.s 			page 48


 1083              	.LVL65:
 1084              	.L54:
 1085              	.LBB538:
 1086              	.LBB536:
 402:../../libDaisy//src/hid/disp/display.h **** 
 1087              		.loc 4 402 20 view .LVU233
 1088 0170 0020     		movs	r0, #0
 1089              	.L32:
 1090              	.LBE536:
 1091              	.LBE538:
 447:../../libDaisy//src/hid/disp/display.h ****             {
 448:../../libDaisy//src/hid/disp/display.h ****                 // Char could not be written
 449:../../libDaisy//src/hid/disp/display.h ****                 return *str;
 450:../../libDaisy//src/hid/disp/display.h ****             }
 451:../../libDaisy//src/hid/disp/display.h **** 
 452:../../libDaisy//src/hid/disp/display.h ****             // Next char
 453:../../libDaisy//src/hid/disp/display.h ****             str++;
 454:../../libDaisy//src/hid/disp/display.h ****         }
 455:../../libDaisy//src/hid/disp/display.h **** 
 456:../../libDaisy//src/hid/disp/display.h ****         // Everything ok
 457:../../libDaisy//src/hid/disp/display.h ****         return *str;
 458:../../libDaisy//src/hid/disp/display.h ****     }
 1092              		.loc 4 458 5 view .LVU234
 1093 0172 09B0     		add	sp, sp, #36
 1094              		.cfi_remember_state
 1095              		.cfi_def_cfa_offset 36
 1096              		@ sp needed
 1097 0174 BDE8F08F 		pop	{r4, r5, r6, r7, r8, r9, r10, fp, pc}
 1098              	.LVL66:
 1099              	.L36:
 1100              		.cfi_restore_state
 1101              	.LBB539:
 1102              	.LBB537:
 402:../../libDaisy//src/hid/disp/display.h **** 
 1103              		.loc 4 402 20 view .LVU235
 1104 0178 4FF00008 		mov	r8, #0
 1105              	.LVL67:
 402:../../libDaisy//src/hid/disp/display.h **** 
 1106              		.loc 4 402 20 view .LVU236
 1107 017c EDE7     		b	.L34
 1108              	.LVL68:
 1109              	.L69:
 405:../../libDaisy//src/hid/disp/display.h ****            || Height() < (currentY_ + font.FontHeight))
 1110              		.loc 4 405 17 view .LVU237
 1111 017e 3046     		mov	r0, r6
 1112 0180 9847     		blx	r3
 1113              	.LVL69:
 1114 0182 62E7     		b	.L35
 1115              	.L70:
 406:../../libDaisy//src/hid/disp/display.h ****         {
 1116              		.loc 4 406 21 view .LVU238
 1117 0184 3046     		mov	r0, r6
 1118 0186 9847     		blx	r3
 1119              	.LVL70:
 1120 0188 6BE7     		b	.L37
 1121              	.LVL71:
 1122              	.L74:
ARM GAS  /var/folders/1y/_321xjh9623c014x9_qw12rr0000gn/T//cc1ZQ1Ea.s 			page 49


 1123              	.LBB534:
 1124              	.LBB530:
 174:../../libDaisy//src/hid/disp/display.h ****     }
 1125              		.loc 4 174 33 view .LVU239
 1126 018a 3046     		mov	r0, r6
 1127 018c 9847     		blx	r3
 1128              	.LVL72:
 1129 018e D8E7     		b	.L51
 1130              	.LVL73:
 1131              	.L72:
 173:../../libDaisy//src/hid/disp/display.h ****         currentY_ = (y >= Height()) ? Height() - 1 : y;
 1132              		.loc 4 173 32 view .LVU240
 1133 0190 3046     		mov	r0, r6
 1134 0192 9847     		blx	r3
 1135              	.LVL74:
 173:../../libDaisy//src/hid/disp/display.h ****         currentY_ = (y >= Height()) ? Height() - 1 : y;
 1136              		.loc 4 173 44 view .LVU241
 1137 0194 3268     		ldr	r2, [r6]
 1138 0196 C7E7     		b	.L48
 1139              	.LVL75:
 1140              	.L38:
 173:../../libDaisy//src/hid/disp/display.h ****         currentY_ = (y >= Height()) ? Height() - 1 : y;
 1141              		.loc 4 173 44 view .LVU242
 1142              	.LBE530:
 1143              	.LBE534:
 434:../../libDaisy//src/hid/disp/display.h **** 
 1144              		.loc 4 434 19 view .LVU243
 1145 0198 B6F804B0 		ldrh	fp, [r6, #4]
 1146 019c BBE7     		b	.L40
 1147              	.LVL76:
 1148              	.L75:
 1149              	.LBB535:
 1150              	.LBB531:
 174:../../libDaisy//src/hid/disp/display.h ****     }
 1151              		.loc 4 174 45 view .LVU244
 1152 019e 3046     		mov	r0, r6
 1153 01a0 9847     		blx	r3
 1154              	.LVL77:
 174:../../libDaisy//src/hid/disp/display.h ****     }
 1155              		.loc 4 174 19 view .LVU245
 1156 01a2 0138     		subs	r0, r0, #1
 1157 01a4 83B2     		uxth	r3, r0
 1158 01a6 0293     		str	r3, [sp, #8]
 1159              	.LVL78:
 174:../../libDaisy//src/hid/disp/display.h ****     }
 1160              		.loc 4 174 19 view .LVU246
 1161 01a8 D5E7     		b	.L52
 1162              	.LVL79:
 1163              	.L73:
 173:../../libDaisy//src/hid/disp/display.h ****         currentY_ = (y >= Height()) ? Height() - 1 : y;
 1164              		.loc 4 173 43 view .LVU247
 1165 01aa 3046     		mov	r0, r6
 1166 01ac 9847     		blx	r3
 1167              	.LVL80:
 173:../../libDaisy//src/hid/disp/display.h ****         currentY_ = (y >= Height()) ? Height() - 1 : y;
 1168              		.loc 4 173 19 view .LVU248
 1169 01ae 0138     		subs	r0, r0, #1
ARM GAS  /var/folders/1y/_321xjh9623c014x9_qw12rr0000gn/T//cc1ZQ1Ea.s 			page 50


 174:../../libDaisy//src/hid/disp/display.h ****     }
 1170              		.loc 4 174 34 view .LVU249
 1171 01b0 3268     		ldr	r2, [r6]
 173:../../libDaisy//src/hid/disp/display.h ****         currentY_ = (y >= Height()) ? Height() - 1 : y;
 1172              		.loc 4 173 19 view .LVU250
 1173 01b2 84B2     		uxth	r4, r0
 1174              	.LVL81:
 173:../../libDaisy//src/hid/disp/display.h ****         currentY_ = (y >= Height()) ? Height() - 1 : y;
 1175              		.loc 4 173 19 view .LVU251
 1176 01b4 BFE7     		b	.L49
 1177              	.L77:
 1178 01b6 00BF     		.align	2
 1179              	.L76:
 1180 01b8 00000000 		.word	_ZNK5daisy11OledDisplayINS_13SSD130xDriverILj128ELj64ENS_24SSD130x4WireSpiTransportEEEE5Widt
 1181 01bc 00000000 		.word	_ZNK5daisy11OledDisplayINS_13SSD130xDriverILj128ELj64ENS_24SSD130x4WireSpiTransportEEEE6Heig
 1182              	.LBE531:
 1183              	.LBE535:
 1184              	.LBE537:
 1185              	.LBE539:
 1186              		.cfi_endproc
 1187              	.LFE5439:
 1189              		.section	.text._ZN5daisy25OneBitGraphicsDisplayImplINS_11OledDisplayINS_13SSD130xDriverILj128ELj64
 1190              		.align	1
 1191              		.p2align 2,,3
 1192              		.weak	_ZN5daisy25OneBitGraphicsDisplayImplINS_11OledDisplayINS_13SSD130xDriverILj128ELj64ENS_24SSD
 1193              		.syntax unified
 1194              		.thumb
 1195              		.thumb_func
 1197              	_ZN5daisy25OneBitGraphicsDisplayImplINS_11OledDisplayINS_13SSD130xDriverILj128ELj64ENS_24SSD130x4Wi
 1198              	.LVL82:
 1199              	.LFB5438:
 396:../../libDaisy//src/hid/disp/display.h ****     {
 1200              		.loc 4 396 10 is_stmt 1 view -0
 1201              		.cfi_startproc
 1202              		@ args = 4, pretend = 0, frame = 16
 1203              		@ frame_needed = 0, uses_anonymous_args = 0
 396:../../libDaisy//src/hid/disp/display.h ****     {
 1204              		.loc 4 396 10 is_stmt 0 view .LVU253
 1205 0000 2DE9F04F 		push	{r4, r5, r6, r7, r8, r9, r10, fp, lr}
 1206              		.cfi_def_cfa_offset 36
 1207              		.cfi_offset 4, -36
 1208              		.cfi_offset 5, -32
 1209              		.cfi_offset 6, -28
 1210              		.cfi_offset 7, -24
 1211              		.cfi_offset 8, -20
 1212              		.cfi_offset 9, -16
 1213              		.cfi_offset 10, -12
 1214              		.cfi_offset 11, -8
 1215              		.cfi_offset 14, -4
 1216 0004 85B0     		sub	sp, sp, #20
 1217              		.cfi_def_cfa_offset 56
 1218              	.LVL83:
 401:../../libDaisy//src/hid/disp/display.h ****             return 0;
 1219              		.loc 4 401 20 view .LVU254
 1220 0006 A1F12005 		sub	r5, r1, #32
 396:../../libDaisy//src/hid/disp/display.h ****     {
 1221              		.loc 4 396 10 view .LVU255
ARM GAS  /var/folders/1y/_321xjh9623c014x9_qw12rr0000gn/T//cc1ZQ1Ea.s 			page 51


 1222 000a 04AC     		add	r4, sp, #16
 1223 000c 9DF83870 		ldrb	r7, [sp, #56]	@ zero_extendqisi2
 1224 0010 0091     		str	r1, [sp]
 1225 0012 04E90C00 		stmdb	r4, {r2, r3}
 1226              	.LVL84:
 401:../../libDaisy//src/hid/disp/display.h ****             return 0;
 1227              		.loc 4 401 9 view .LVU256
 1228 0016 EBB2     		uxtb	r3, r5
 1229 0018 5E2B     		cmp	r3, #94
 1230 001a 00F29580 		bhi	.L82
 405:../../libDaisy//src/hid/disp/display.h ****            || Height() < (currentY_ + font.FontHeight))
 1231              		.loc 4 405 17 view .LVU257
 1232 001e 0368     		ldr	r3, [r0]
 1233 0020 8046     		mov	r8, r0
 1234 0022 5D4A     		ldr	r2, .L117
 1235 0024 DB68     		ldr	r3, [r3, #12]
 1236 0026 9DF80840 		ldrb	r4, [sp, #8]	@ zero_extendqisi2
 1237 002a 9342     		cmp	r3, r2
 1238 002c 9DF80960 		ldrb	r6, [sp, #9]	@ zero_extendqisi2
 1239 0030 40F09480 		bne	.L109
 1240 0034 8020     		movs	r0, #128
 1241              	.LVL85:
 1242              	.L81:
 405:../../libDaisy//src/hid/disp/display.h ****            || Height() < (currentY_ + font.FontHeight))
 1243              		.loc 4 405 23 view .LVU258
 1244 0036 B8F80430 		ldrh	r3, [r8, #4]
 405:../../libDaisy//src/hid/disp/display.h ****            || Height() < (currentY_ + font.FontHeight))
 1245              		.loc 4 405 33 view .LVU259
 1246 003a 2344     		add	r3, r3, r4
 406:../../libDaisy//src/hid/disp/display.h ****         {
 1247              		.loc 4 406 12 view .LVU260
 1248 003c 8342     		cmp	r3, r0
 1249 003e 00F38380 		bgt	.L82
 406:../../libDaisy//src/hid/disp/display.h ****         {
 1250              		.loc 4 406 21 discriminator 2 view .LVU261
 1251 0042 D8F80030 		ldr	r3, [r8]
 1252 0046 554A     		ldr	r2, .L117+4
 1253 0048 9B68     		ldr	r3, [r3, #8]
 1254 004a 9342     		cmp	r3, r2
 1255 004c 40F08880 		bne	.L110
 406:../../libDaisy//src/hid/disp/display.h ****         {
 1256              		.loc 4 406 21 view .LVU262
 1257 0050 4020     		movs	r0, #64
 1258              	.L83:
 406:../../libDaisy//src/hid/disp/display.h ****         {
 1259              		.loc 4 406 27 discriminator 2 view .LVU263
 1260 0052 B8F80620 		ldrh	r2, [r8, #6]
 406:../../libDaisy//src/hid/disp/display.h ****         {
 1261              		.loc 4 406 37 discriminator 2 view .LVU264
 1262 0056 9319     		adds	r3, r2, r6
 406:../../libDaisy//src/hid/disp/display.h ****         {
 1263              		.loc 4 406 27 discriminator 2 view .LVU265
 1264 0058 0192     		str	r2, [sp, #4]
 406:../../libDaisy//src/hid/disp/display.h ****         {
 1265              		.loc 4 406 12 discriminator 2 view .LVU266
 1266 005a 8342     		cmp	r3, r0
 1267 005c 74DC     		bgt	.L82
ARM GAS  /var/folders/1y/_321xjh9623c014x9_qw12rr0000gn/T//cc1ZQ1Ea.s 			page 52


 1268              	.LVL86:
 413:../../libDaisy//src/hid/disp/display.h ****         {
 1269              		.loc 4 413 22 is_stmt 1 view .LVU267
 1270 005e 002E     		cmp	r6, #0
 1271 0060 00F08980 		beq	.L84
 415:../../libDaisy//src/hid/disp/display.h ****             for(j = 0; j < font.FontWidth; j++)
 1272              		.loc 4 415 37 is_stmt 0 view .LVU268
 1273 0064 06FB05F5 		mul	r5, r6, r5
 1274 0068 6FF00040 		mvn	r0, #-2147483648
 415:../../libDaisy//src/hid/disp/display.h ****             for(j = 0; j < font.FontWidth; j++)
 1275              		.loc 4 415 22 view .LVU269
 1276 006c 039B     		ldr	r3, [sp, #12]
 1277 006e 9646     		mov	lr, r2
 1278 0070 2844     		add	r0, r0, r5
 1279 0072 2E44     		add	r6, r6, r5
 434:../../libDaisy//src/hid/disp/display.h **** 
 1280              		.loc 4 434 19 view .LVU270
 1281 0074 B8F804A0 		ldrh	r10, [r8, #4]
 1282 0078 03EB4000 		add	r0, r3, r0, lsl #1
 1283 007c 023B     		subs	r3, r3, #2
 1284 007e 03EB460B 		add	fp, r3, r6, lsl #1
 1285              	.LVL87:
 1286              	.L87:
 415:../../libDaisy//src/hid/disp/display.h ****             for(j = 0; j < font.FontWidth; j++)
 1287              		.loc 4 415 15 view .LVU271
 1288 0082 30F8026F 		ldrh	r6, [r0, #2]!
 1289              	.LVL88:
 416:../../libDaisy//src/hid/disp/display.h ****             {
 1290              		.loc 4 416 26 is_stmt 1 view .LVU272
 1291 0086 BCB3     		cbz	r4, .L92
 1292              	.LBB570:
 1293              	.LBB571:
 1294              	.LBB572:
 1295              	.LBB573:
 1296              	.LBB574:
 359:../../libDaisy//src/dev/oled_ssd130x.h ****     }
 1297              		.loc 12 359 55 is_stmt 0 view .LVU273
 1298 0088 0EF00703 		and	r3, lr, #7
 359:../../libDaisy//src/dev/oled_ssd130x.h ****     }
 1299              		.loc 12 359 49 view .LVU274
 1300 008c 4FF0010C 		mov	ip, #1
 359:../../libDaisy//src/dev/oled_ssd130x.h ****     }
 1301              		.loc 12 359 28 view .LVU275
 1302 0090 4FEADE02 		lsr	r2, lr, #3
 1303 0094 5146     		mov	r1, r10
 359:../../libDaisy//src/dev/oled_ssd130x.h ****     }
 1304              		.loc 12 359 49 view .LVU276
 1305 0096 0CFA03FC 		lsl	ip, ip, r3
 1306 009a 0AF11403 		add	r3, r10, #20
 359:../../libDaisy//src/dev/oled_ssd130x.h ****     }
 1307              		.loc 12 359 42 view .LVU277
 1308 009e 4FFA8CFC 		sxtb	ip, ip
 1309 00a2 03EBC212 		add	r2, r3, r2, lsl #7
 1310              	.LBE574:
 1311              	.LBE573:
 1312              	.LBE572:
 1313              	.LBE571:
ARM GAS  /var/folders/1y/_321xjh9623c014x9_qw12rr0000gn/T//cc1ZQ1Ea.s 			page 53


 1314              	.LBE570:
 416:../../libDaisy//src/hid/disp/display.h ****             {
 1315              		.loc 4 416 19 view .LVU278
 1316 00a6 0023     		movs	r3, #0
 1317              	.LBB592:
 1318              	.LBB587:
 1319              	.LBB582:
 1320              	.LBB578:
 1321              	.LBB575:
 359:../../libDaisy//src/dev/oled_ssd130x.h ****     }
 1322              		.loc 12 359 42 view .LVU279
 1323 00a8 6FEA0C09 		mvn	r9, ip
 1324 00ac 4244     		add	r2, r2, r8
 1325 00ae 0EE0     		b	.L93
 1326              	.LVL89:
 1327              	.L111:
 359:../../libDaisy//src/dev/oled_ssd130x.h ****     }
 1328              		.loc 12 359 42 view .LVU280
 1329              	.LBE575:
 1330              	.LBE578:
 1331              	.LBE582:
 1332              	.LBE587:
 1333              	.LBE592:
 1334              	.LBB593:
 1335              	.LBI593:
  42:../../libDaisy//src/hid/disp/oled_display.h ****     {
 1336              		.loc 3 42 10 is_stmt 1 view .LVU281
 1337              	.LBB594:
 1338              	.LBI594:
 352:../../libDaisy//src/dev/oled_ssd130x.h ****     {
 1339              		.loc 12 352 10 view .LVU282
 1340              	.LBB595:
 354:../../libDaisy//src/dev/oled_ssd130x.h ****             return;
 1341              		.loc 12 354 9 is_stmt 0 view .LVU283
 1342 00b0 7F29     		cmp	r1, #127
 1343 00b2 07D8     		bhi	.L89
 1344 00b4 BEF13F0F 		cmp	lr, #63
 1345 00b8 04D8     		bhi	.L89
 357:../../libDaisy//src/dev/oled_ssd130x.h ****         else
 1346              		.loc 12 357 42 view .LVU284
 1347 00ba 1578     		ldrb	r5, [r2]	@ zero_extendqisi2
 356:../../libDaisy//src/dev/oled_ssd130x.h ****             buffer_[x + (y / 8) * width] |= (1 << (y % 8));
 1348              		.loc 12 356 9 view .LVU285
 1349 00bc 9FB1     		cbz	r7, .L91
 1350              	.L108:
 356:../../libDaisy//src/dev/oled_ssd130x.h ****             buffer_[x + (y / 8) * width] |= (1 << (y % 8));
 1351              		.loc 12 356 9 view .LVU286
 1352              	.LBE595:
 1353              	.LBE594:
 1354              	.LBE593:
 1355              	.LBB596:
 1356              	.LBB588:
 1357              	.LBB583:
 357:../../libDaisy//src/dev/oled_ssd130x.h ****         else
 1358              		.loc 12 357 42 view .LVU287
 1359 00be 4CEA0505 		orr	r5, ip, r5
 1360 00c2 1570     		strb	r5, [r2]
ARM GAS  /var/folders/1y/_321xjh9623c014x9_qw12rr0000gn/T//cc1ZQ1Ea.s 			page 54


 1361              	.L89:
 1362              	.LBE583:
 1363              	.LBE588:
 1364              	.LBE596:
 416:../../libDaisy//src/hid/disp/display.h ****             {
 1365              		.loc 4 416 13 is_stmt 1 discriminator 2 view .LVU288
 1366 00c4 0133     		adds	r3, r3, #1
 1367              	.LVL90:
 416:../../libDaisy//src/hid/disp/display.h ****             {
 1368              		.loc 4 416 26 discriminator 2 view .LVU289
 1369 00c6 0132     		adds	r2, r2, #1
 1370 00c8 0131     		adds	r1, r1, #1
 1371 00ca 9C42     		cmp	r4, r3
 1372 00cc 14D0     		beq	.L92
 1373              	.LVL91:
 1374              	.L93:
 418:../../libDaisy//src/hid/disp/display.h ****                 {
 1375              		.loc 4 418 23 is_stmt 0 view .LVU290
 1376 00ce 06FA03F5 		lsl	r5, r6, r3
 418:../../libDaisy//src/hid/disp/display.h ****                 {
 1377              		.loc 4 418 17 view .LVU291
 1378 00d2 2D04     		lsls	r5, r5, #16
 1379 00d4 ECD4     		bmi	.L111
 1380              	.LVL92:
 1381              	.LBB597:
 1382              	.LBI570:
  42:../../libDaisy//src/hid/disp/oled_display.h ****     {
 1383              		.loc 3 42 10 is_stmt 1 view .LVU292
 1384              	.LBB589:
 1385              	.LBI571:
 352:../../libDaisy//src/dev/oled_ssd130x.h ****     {
 1386              		.loc 12 352 10 view .LVU293
 1387              	.LBB584:
 354:../../libDaisy//src/dev/oled_ssd130x.h ****             return;
 1388              		.loc 12 354 9 is_stmt 0 view .LVU294
 1389 00d6 7F29     		cmp	r1, #127
 1390 00d8 F4D8     		bhi	.L89
 1391 00da BEF13F0F 		cmp	lr, #63
 1392 00de F1D8     		bhi	.L89
 357:../../libDaisy//src/dev/oled_ssd130x.h ****         else
 1393              		.loc 12 357 42 view .LVU295
 1394 00e0 1578     		ldrb	r5, [r2]	@ zero_extendqisi2
 356:../../libDaisy//src/dev/oled_ssd130x.h ****             buffer_[x + (y / 8) * width] |= (1 << (y % 8));
 1395              		.loc 12 356 9 view .LVU296
 1396 00e2 002F     		cmp	r7, #0
 1397 00e4 EBD0     		beq	.L108
 1398              	.L91:
 1399              	.LVL93:
 1400              	.LBB579:
 1401              	.LBI573:
 352:../../libDaisy//src/dev/oled_ssd130x.h ****     {
 1402              		.loc 12 352 10 is_stmt 1 view .LVU297
 352:../../libDaisy//src/dev/oled_ssd130x.h ****     {
 1403              		.loc 12 352 10 is_stmt 0 view .LVU298
 1404              	.LBE579:
 1405              	.LBE584:
 1406              	.LBE589:
ARM GAS  /var/folders/1y/_321xjh9623c014x9_qw12rr0000gn/T//cc1ZQ1Ea.s 			page 55


 1407              	.LBE597:
 416:../../libDaisy//src/hid/disp/display.h ****             {
 1408              		.loc 4 416 13 view .LVU299
 1409 00e6 0133     		adds	r3, r3, #1
 1410              	.LVL94:
 1411              	.LBB598:
 1412              	.LBB590:
 1413              	.LBB585:
 1414              	.LBB580:
 1415              	.LBB576:
 359:../../libDaisy//src/dev/oled_ssd130x.h ****     }
 1416              		.loc 12 359 42 view .LVU300
 1417 00e8 09EA0505 		and	r5, r9, r5
 1418              	.LBE576:
 1419              	.LBE580:
 1420              	.LBE585:
 1421              	.LBE590:
 1422              	.LBE598:
 416:../../libDaisy//src/hid/disp/display.h ****             {
 1423              		.loc 4 416 26 view .LVU301
 1424 00ec 0132     		adds	r2, r2, #1
 1425 00ee 0131     		adds	r1, r1, #1
 1426 00f0 9C42     		cmp	r4, r3
 1427              	.LBB599:
 1428              	.LBB591:
 1429              	.LBB586:
 1430              	.LBB581:
 1431              	.LBB577:
 359:../../libDaisy//src/dev/oled_ssd130x.h ****     }
 1432              		.loc 12 359 42 view .LVU302
 1433 00f2 02F8015C 		strb	r5, [r2, #-1]
 359:../../libDaisy//src/dev/oled_ssd130x.h ****     }
 1434              		.loc 12 359 42 view .LVU303
 1435              	.LBE577:
 1436              	.LBE581:
 1437              	.LBE586:
 1438              	.LBE591:
 1439              	.LBE599:
 416:../../libDaisy//src/hid/disp/display.h ****             {
 1440              		.loc 4 416 13 is_stmt 1 view .LVU304
 1441              	.LVL95:
 416:../../libDaisy//src/hid/disp/display.h ****             {
 1442              		.loc 4 416 26 view .LVU305
 1443 00f6 EAD1     		bne	.L93
 1444              	.LVL96:
 1445              	.L92:
 413:../../libDaisy//src/hid/disp/display.h ****         {
 1446              		.loc 4 413 9 view .LVU306
 413:../../libDaisy//src/hid/disp/display.h ****         {
 1447              		.loc 4 413 22 view .LVU307
 1448 00f8 5845     		cmp	r0, fp
 1449 00fa 0EF1010E 		add	lr, lr, #1
 1450 00fe C0D1     		bne	.L87
 1451              	.LVL97:
 1452              	.L86:
 1453              	.LBB600:
 1454              	.LBB601:
ARM GAS  /var/folders/1y/_321xjh9623c014x9_qw12rr0000gn/T//cc1ZQ1Ea.s 			page 56


 173:../../libDaisy//src/hid/disp/display.h ****         currentY_ = (y >= Height()) ? Height() - 1 : y;
 1455              		.loc 4 173 33 is_stmt 0 view .LVU308
 1456 0100 D8F80030 		ldr	r3, [r8]
 1457              	.LBE601:
 1458              	.LBE600:
 434:../../libDaisy//src/hid/disp/display.h **** 
 1459              		.loc 4 434 18 view .LVU309
 1460 0104 5444     		add	r4, r4, r10
 1461 0106 2449     		ldr	r1, .L117
 1462              	.LBB607:
 1463              	.LBB602:
 173:../../libDaisy//src/hid/disp/display.h ****         currentY_ = (y >= Height()) ? Height() - 1 : y;
 1464              		.loc 4 173 33 view .LVU310
 1465 0108 DA68     		ldr	r2, [r3, #12]
 1466              	.LBE602:
 1467              	.LBE607:
 434:../../libDaisy//src/hid/disp/display.h **** 
 1468              		.loc 4 434 18 view .LVU311
 1469 010a A4B2     		uxth	r4, r4
 1470              	.LVL98:
 1471              	.LBB608:
 1472              	.LBI600:
 171:../../libDaisy//src/hid/disp/display.h ****     {
 1473              		.loc 4 171 10 is_stmt 1 view .LVU312
 1474              	.LBB603:
 173:../../libDaisy//src/hid/disp/display.h ****         currentY_ = (y >= Height()) ? Height() - 1 : y;
 1475              		.loc 4 173 9 view .LVU313
 1476 010c 8A42     		cmp	r2, r1
 1477 010e 2DD1     		bne	.L112
 173:../../libDaisy//src/hid/disp/display.h ****         currentY_ = (y >= Height()) ? Height() - 1 : y;
 1478              		.loc 4 173 33 is_stmt 0 view .LVU314
 1479 0110 8020     		movs	r0, #128
 1480              	.L94:
 173:../../libDaisy//src/hid/disp/display.h ****         currentY_ = (y >= Height()) ? Height() - 1 : y;
 1481              		.loc 4 173 19 view .LVU315
 1482 0112 8442     		cmp	r4, r0
 1483 0114 1CD2     		bcs	.L113
 1484              	.LVL99:
 1485              	.L95:
 174:../../libDaisy//src/hid/disp/display.h ****     }
 1486              		.loc 4 174 34 view .LVU316
 1487 0116 9B68     		ldr	r3, [r3, #8]
 1488 0118 204A     		ldr	r2, .L117+4
 173:../../libDaisy//src/hid/disp/display.h ****         currentY_ = (y >= Height()) ? Height() - 1 : y;
 1489              		.loc 4 173 19 view .LVU317
 1490 011a A8F80440 		strh	r4, [r8, #4]	@ movhi
 174:../../libDaisy//src/hid/disp/display.h ****     }
 1491              		.loc 4 174 9 is_stmt 1 view .LVU318
 1492 011e 9342     		cmp	r3, r2
 1493 0120 21D1     		bne	.L114
 174:../../libDaisy//src/hid/disp/display.h ****     }
 1494              		.loc 4 174 34 is_stmt 0 view .LVU319
 1495 0122 4020     		movs	r0, #64
 1496              	.L97:
 174:../../libDaisy//src/hid/disp/display.h ****     }
 1497              		.loc 4 174 19 view .LVU320
 1498 0124 019B     		ldr	r3, [sp, #4]
ARM GAS  /var/folders/1y/_321xjh9623c014x9_qw12rr0000gn/T//cc1ZQ1Ea.s 			page 57


 1499 0126 8342     		cmp	r3, r0
 1500 0128 07D3     		bcc	.L98
 174:../../libDaisy//src/hid/disp/display.h ****     }
 1501              		.loc 4 174 46 view .LVU321
 1502 012a D8F80030 		ldr	r3, [r8]
 1503 012e 1B4A     		ldr	r2, .L117+4
 1504 0130 9B68     		ldr	r3, [r3, #8]
 1505 0132 9342     		cmp	r3, r2
 1506 0134 29D1     		bne	.L115
 1507 0136 3F23     		movs	r3, #63
 1508 0138 0193     		str	r3, [sp, #4]
 1509              	.LVL100:
 1510              	.L98:
 174:../../libDaisy//src/hid/disp/display.h ****     }
 1511              		.loc 4 174 19 view .LVU322
 1512 013a DDE90003 		ldrd	r0, r3, [sp]
 1513 013e A8F80630 		strh	r3, [r8, #6]	@ movhi
 1514              	.LVL101:
 174:../../libDaisy//src/hid/disp/display.h ****     }
 1515              		.loc 4 174 19 view .LVU323
 1516              	.LBE603:
 1517              	.LBE608:
 438:../../libDaisy//src/hid/disp/display.h **** 
 1518              		.loc 4 438 5 view .LVU324
 1519 0142 05B0     		add	sp, sp, #20
 1520              		.cfi_remember_state
 1521              		.cfi_def_cfa_offset 36
 1522              		@ sp needed
 1523 0144 BDE8F08F 		pop	{r4, r5, r6, r7, r8, r9, r10, fp, pc}
 1524              	.LVL102:
 1525              	.L82:
 1526              		.cfi_restore_state
 402:../../libDaisy//src/hid/disp/display.h **** 
 1527              		.loc 4 402 20 view .LVU325
 1528 0148 0020     		movs	r0, #0
 438:../../libDaisy//src/hid/disp/display.h **** 
 1529              		.loc 4 438 5 view .LVU326
 1530 014a 05B0     		add	sp, sp, #20
 1531              		.cfi_remember_state
 1532              		.cfi_def_cfa_offset 36
 1533              		@ sp needed
 1534 014c BDE8F08F 		pop	{r4, r5, r6, r7, r8, r9, r10, fp, pc}
 1535              	.LVL103:
 1536              	.L113:
 1537              		.cfi_restore_state
 1538              	.LBB609:
 1539              	.LBB604:
 173:../../libDaisy//src/hid/disp/display.h ****         currentY_ = (y >= Height()) ? Height() - 1 : y;
 1540              		.loc 4 173 44 view .LVU327
 1541 0150 DA68     		ldr	r2, [r3, #12]
 1542 0152 1149     		ldr	r1, .L117
 1543 0154 8A42     		cmp	r2, r1
 1544 0156 11D1     		bne	.L116
 1545 0158 7F24     		movs	r4, #127
 1546              	.LVL104:
 173:../../libDaisy//src/hid/disp/display.h ****         currentY_ = (y >= Height()) ? Height() - 1 : y;
 1547              		.loc 4 173 44 view .LVU328
ARM GAS  /var/folders/1y/_321xjh9623c014x9_qw12rr0000gn/T//cc1ZQ1Ea.s 			page 58


 1548 015a DCE7     		b	.L95
 1549              	.LVL105:
 1550              	.L109:
 173:../../libDaisy//src/hid/disp/display.h ****         currentY_ = (y >= Height()) ? Height() - 1 : y;
 1551              		.loc 4 173 44 view .LVU329
 1552              	.LBE604:
 1553              	.LBE609:
 405:../../libDaisy//src/hid/disp/display.h ****            || Height() < (currentY_ + font.FontHeight))
 1554              		.loc 4 405 17 view .LVU330
 1555 015c 9847     		blx	r3
 1556              	.LVL106:
 405:../../libDaisy//src/hid/disp/display.h ****            || Height() < (currentY_ + font.FontHeight))
 1557              		.loc 4 405 17 view .LVU331
 1558 015e 6AE7     		b	.L81
 1559              	.L110:
 406:../../libDaisy//src/hid/disp/display.h ****         {
 1560              		.loc 4 406 21 discriminator 2 view .LVU332
 1561 0160 4046     		mov	r0, r8
 1562 0162 9847     		blx	r3
 1563              	.LVL107:
 1564 0164 75E7     		b	.L83
 1565              	.LVL108:
 1566              	.L114:
 1567              	.LBB610:
 1568              	.LBB605:
 174:../../libDaisy//src/hid/disp/display.h ****     }
 1569              		.loc 4 174 33 view .LVU333
 1570 0166 4046     		mov	r0, r8
 1571 0168 9847     		blx	r3
 1572              	.LVL109:
 1573 016a DBE7     		b	.L97
 1574              	.LVL110:
 1575              	.L112:
 173:../../libDaisy//src/hid/disp/display.h ****         currentY_ = (y >= Height()) ? Height() - 1 : y;
 1576              		.loc 4 173 32 view .LVU334
 1577 016c 4046     		mov	r0, r8
 1578 016e 9047     		blx	r2
 1579              	.LVL111:
 173:../../libDaisy//src/hid/disp/display.h ****         currentY_ = (y >= Height()) ? Height() - 1 : y;
 1580              		.loc 4 173 44 view .LVU335
 1581 0170 D8F80030 		ldr	r3, [r8]
 1582 0174 CDE7     		b	.L94
 1583              	.LVL112:
 1584              	.L84:
 173:../../libDaisy//src/hid/disp/display.h ****         currentY_ = (y >= Height()) ? Height() - 1 : y;
 1585              		.loc 4 173 44 view .LVU336
 1586              	.LBE605:
 1587              	.LBE610:
 434:../../libDaisy//src/hid/disp/display.h **** 
 1588              		.loc 4 434 19 view .LVU337
 1589 0176 B8F804A0 		ldrh	r10, [r8, #4]
 1590 017a C1E7     		b	.L86
 1591              	.LVL113:
 1592              	.L116:
 1593              	.LBB611:
 1594              	.LBB606:
 173:../../libDaisy//src/hid/disp/display.h ****         currentY_ = (y >= Height()) ? Height() - 1 : y;
ARM GAS  /var/folders/1y/_321xjh9623c014x9_qw12rr0000gn/T//cc1ZQ1Ea.s 			page 59


 1595              		.loc 4 173 43 view .LVU338
 1596 017c 4046     		mov	r0, r8
 1597 017e 9047     		blx	r2
 1598              	.LVL114:
 173:../../libDaisy//src/hid/disp/display.h ****         currentY_ = (y >= Height()) ? Height() - 1 : y;
 1599              		.loc 4 173 19 view .LVU339
 1600 0180 0138     		subs	r0, r0, #1
 174:../../libDaisy//src/hid/disp/display.h ****     }
 1601              		.loc 4 174 34 view .LVU340
 1602 0182 D8F80030 		ldr	r3, [r8]
 173:../../libDaisy//src/hid/disp/display.h ****         currentY_ = (y >= Height()) ? Height() - 1 : y;
 1603              		.loc 4 173 19 view .LVU341
 1604 0186 84B2     		uxth	r4, r0
 1605              	.LVL115:
 173:../../libDaisy//src/hid/disp/display.h ****         currentY_ = (y >= Height()) ? Height() - 1 : y;
 1606              		.loc 4 173 19 view .LVU342
 1607 0188 C5E7     		b	.L95
 1608              	.L115:
 174:../../libDaisy//src/hid/disp/display.h ****     }
 1609              		.loc 4 174 45 view .LVU343
 1610 018a 4046     		mov	r0, r8
 1611 018c 9847     		blx	r3
 1612              	.LVL116:
 174:../../libDaisy//src/hid/disp/display.h ****     }
 1613              		.loc 4 174 19 view .LVU344
 1614 018e 0138     		subs	r0, r0, #1
 1615 0190 83B2     		uxth	r3, r0
 1616 0192 0193     		str	r3, [sp, #4]
 1617              	.LVL117:
 174:../../libDaisy//src/hid/disp/display.h ****     }
 1618              		.loc 4 174 19 view .LVU345
 1619 0194 D1E7     		b	.L98
 1620              	.L118:
 1621 0196 00BF     		.align	2
 1622              	.L117:
 1623 0198 00000000 		.word	_ZNK5daisy11OledDisplayINS_13SSD130xDriverILj128ELj64ENS_24SSD130x4WireSpiTransportEEEE5Widt
 1624 019c 00000000 		.word	_ZNK5daisy11OledDisplayINS_13SSD130xDriverILj128ELj64ENS_24SSD130x4WireSpiTransportEEEE6Heig
 1625              	.LBE606:
 1626              	.LBE611:
 1627              		.cfi_endproc
 1628              	.LFE5438:
 1630              		.section	.text._ZN5daisy25OneBitGraphicsDisplayImplINS_11OledDisplayINS_13SSD130xDriverILj128ELj64
 1631              		.align	1
 1632              		.p2align 2,,3
 1633              		.weak	_ZN5daisy25OneBitGraphicsDisplayImplINS_11OledDisplayINS_13SSD130xDriverILj128ELj64ENS_24SSD
 1634              		.syntax unified
 1635              		.thumb
 1636              		.thumb_func
 1638              	_ZN5daisy25OneBitGraphicsDisplayImplINS_11OledDisplayINS_13SSD130xDriverILj128ELj64ENS_24SSD130x4Wi
 1639              	.LVL118:
 1640              	.LFB5440:
 459:../../libDaisy//src/hid/disp/display.h **** 
 460:../../libDaisy//src/hid/disp/display.h ****     Rectangle WriteStringAligned(const char*    str,
 1641              		.loc 4 460 15 is_stmt 1 view -0
 1642              		.cfi_startproc
 1643              		@ args = 12, pretend = 0, frame = 32
 1644              		@ frame_needed = 0, uses_anonymous_args = 0
ARM GAS  /var/folders/1y/_321xjh9623c014x9_qw12rr0000gn/T//cc1ZQ1Ea.s 			page 60


 1645              		.loc 4 460 15 is_stmt 0 view .LVU347
 1646 0000 2DE9F04F 		push	{r4, r5, r6, r7, r8, r9, r10, fp, lr}
 1647              		.cfi_def_cfa_offset 36
 1648              		.cfi_offset 4, -36
 1649              		.cfi_offset 5, -32
 1650              		.cfi_offset 6, -28
 1651              		.cfi_offset 7, -24
 1652              		.cfi_offset 8, -20
 1653              		.cfi_offset 9, -16
 1654              		.cfi_offset 10, -12
 1655              		.cfi_offset 11, -8
 1656              		.cfi_offset 14, -4
 1657 0004 89B0     		sub	sp, sp, #36
 1658              		.cfi_def_cfa_offset 72
 1659              		.loc 4 460 15 view .LVU348
 1660 0006 1D46     		mov	r5, r3
 1661 0008 8846     		mov	r8, r1
 1662              	.LVL119:
 1663              	.LBB750:
 1664              	.LBI750:
 461:../../libDaisy//src/hid/disp/display.h ****                                  const FontDef& font,
 462:../../libDaisy//src/hid/disp/display.h ****                                  Rectangle      boundingBox,
 463:../../libDaisy//src/hid/disp/display.h ****                                  Alignment      alignment,
 464:../../libDaisy//src/hid/disp/display.h ****                                  bool           on) override
 465:../../libDaisy//src/hid/disp/display.h ****     {
 466:../../libDaisy//src/hid/disp/display.h ****         const auto alignedRect
 467:../../libDaisy//src/hid/disp/display.h ****             = GetTextRect(str, font).AlignedWithin(boundingBox, alignment);
 468:../../libDaisy//src/hid/disp/display.h ****         SetCursor(alignedRect.GetX(), alignedRect.GetY());
 469:../../libDaisy//src/hid/disp/display.h ****         ((ChildType*)(this))->ChildType::WriteString(str, font, on);
 470:../../libDaisy//src/hid/disp/display.h ****         return alignedRect;
 471:../../libDaisy//src/hid/disp/display.h ****     }
 472:../../libDaisy//src/hid/disp/display.h **** 
 473:../../libDaisy//src/hid/disp/display.h ****   private:
 474:../../libDaisy//src/hid/disp/display.h ****     uint32_t strlen(const char* string)
 475:../../libDaisy//src/hid/disp/display.h ****     {
 476:../../libDaisy//src/hid/disp/display.h ****         uint32_t result = 0;
 477:../../libDaisy//src/hid/disp/display.h ****         while(*string++ != '\0')
 478:../../libDaisy//src/hid/disp/display.h ****             result++;
 479:../../libDaisy//src/hid/disp/display.h ****         return result;
 480:../../libDaisy//src/hid/disp/display.h ****     }
 481:../../libDaisy//src/hid/disp/display.h **** 
 482:../../libDaisy//src/hid/disp/display.h ****     Rectangle GetTextRect(const char* text, const FontDef& font)
 1665              		.loc 4 482 15 is_stmt 1 view .LVU349
 1666              	.LBB751:
 1667              	.LBB752:
 1668              	.LBI752:
 474:../../libDaisy//src/hid/disp/display.h ****     {
 1669              		.loc 4 474 14 view .LVU350
 1670              	.LBB753:
 477:../../libDaisy//src/hid/disp/display.h ****             result++;
 1671              		.loc 4 477 25 view .LVU351
 1672              	.LBE753:
 1673              	.LBE752:
 1674              	.LBE751:
 1675              	.LBE750:
 460:../../libDaisy//src/hid/disp/display.h ****                                  const FontDef& font,
 1676              		.loc 4 460 15 is_stmt 0 view .LVU352
ARM GAS  /var/folders/1y/_321xjh9623c014x9_qw12rr0000gn/T//cc1ZQ1Ea.s 			page 61


 1677 000a 0690     		str	r0, [sp, #24]
 1678              	.LBB768:
 1679              	.LBB764:
 1680              	.LBB757:
 1681              	.LBB754:
 477:../../libDaisy//src/hid/disp/display.h ****             result++;
 1682              		.loc 4 477 25 view .LVU353
 1683 000c 1046     		mov	r0, r2
 1684              	.LVL120:
 477:../../libDaisy//src/hid/disp/display.h ****             result++;
 1685              		.loc 4 477 25 view .LVU354
 1686              	.LBE754:
 1687              	.LBE757:
 1688              	.LBE764:
 1689              	.LBE768:
 460:../../libDaisy//src/hid/disp/display.h ****                                  const FontDef& font,
 1690              		.loc 4 460 15 view .LVU355
 1691 000e 129C     		ldr	r4, [sp, #72]
 1692              	.LBB769:
 1693              	.LBB765:
 1694              	.LBB758:
 1695              	.LBB755:
 477:../../libDaisy//src/hid/disp/display.h ****             result++;
 1696              		.loc 4 477 25 view .LVU356
 1697 0010 10F8013B 		ldrb	r3, [r0], #1	@ zero_extendqisi2
 1698              	.LVL121:
 477:../../libDaisy//src/hid/disp/display.h ****             result++;
 1699              		.loc 4 477 25 view .LVU357
 1700              	.LBE755:
 1701              	.LBE758:
 1702              	.LBE765:
 1703              	.LBE769:
 460:../../libDaisy//src/hid/disp/display.h ****                                  const FontDef& font,
 1704              		.loc 4 460 15 view .LVU358
 1705 0014 1399     		ldr	r1, [sp, #76]
 1706              	.LVL122:
 460:../../libDaisy//src/hid/disp/display.h ****                                  const FontDef& font,
 1707              		.loc 4 460 15 view .LVU359
 1708 0016 9DF85060 		ldrb	r6, [sp, #80]	@ zero_extendqisi2
 1709 001a 0092     		str	r2, [sp]
 1710              	.LBB770:
 1711              	.LBB766:
 1712              	.LBB759:
 1713              	.LBB756:
 477:../../libDaisy//src/hid/disp/display.h ****             result++;
 1714              		.loc 4 477 25 view .LVU360
 1715 001c 33B1     		cbz	r3, .L120
 476:../../libDaisy//src/hid/disp/display.h ****         while(*string++ != '\0')
 1716              		.loc 4 476 18 view .LVU361
 1717 001e 0022     		movs	r2, #0
 1718              	.LVL123:
 1719              	.L121:
 477:../../libDaisy//src/hid/disp/display.h ****             result++;
 1720              		.loc 4 477 25 view .LVU362
 1721 0020 10F8013B 		ldrb	r3, [r0], #1	@ zero_extendqisi2
 1722              	.LVL124:
 478:../../libDaisy//src/hid/disp/display.h ****         return result;
ARM GAS  /var/folders/1y/_321xjh9623c014x9_qw12rr0000gn/T//cc1ZQ1Ea.s 			page 62


 1723              		.loc 4 478 13 view .LVU363
 1724 0024 0132     		adds	r2, r2, #1
 1725              	.LVL125:
 477:../../libDaisy//src/hid/disp/display.h ****             result++;
 1726              		.loc 4 477 25 is_stmt 1 view .LVU364
 1727 0026 002B     		cmp	r3, #0
 1728 0028 FAD1     		bne	.L121
 1729              	.LBE756:
 1730              	.LBE759:
 483:../../libDaisy//src/hid/disp/display.h ****     {
 484:../../libDaisy//src/hid/disp/display.h ****         const auto numChars = strlen(text);
 485:../../libDaisy//src/hid/disp/display.h ****         return {int16_t(numChars * font.FontWidth), font.FontHeight};
 1731              		.loc 4 485 68 is_stmt 0 view .LVU365
 1732 002a 93B2     		uxth	r3, r2
 1733              	.LVL126:
 1734              	.L120:
 1735              		.loc 4 485 68 view .LVU366
 1736 002c 2A78     		ldrb	r2, [r5]	@ zero_extendqisi2
 1737              		.loc 4 485 58 view .LVU367
 1738 002e 6878     		ldrb	r0, [r5, #1]	@ zero_extendqisi2
 1739              		.loc 4 485 68 view .LVU368
 1740 0030 12FB03F3 		smulbb	r3, r2, r3
 1741 0034 02B2     		sxth	r2, r0
 1742              	.LVL127:
 1743              	.LBB760:
 1744              	.LBI760:
 1745              		.file 14 "../../libDaisy//src/hid/disp/graphics_common.h"
   1:../../libDaisy//src/hid/disp/graphics_common.h **** #pragma once
   2:../../libDaisy//src/hid/disp/graphics_common.h **** 
   3:../../libDaisy//src/hid/disp/graphics_common.h **** #include <cstdint>
   4:../../libDaisy//src/hid/disp/graphics_common.h **** 
   5:../../libDaisy//src/hid/disp/graphics_common.h **** namespace daisy
   6:../../libDaisy//src/hid/disp/graphics_common.h **** {
   7:../../libDaisy//src/hid/disp/graphics_common.h **** /** Justifications */
   8:../../libDaisy//src/hid/disp/graphics_common.h **** enum class Alignment
   9:../../libDaisy//src/hid/disp/graphics_common.h **** {
  10:../../libDaisy//src/hid/disp/graphics_common.h ****     centered,
  11:../../libDaisy//src/hid/disp/graphics_common.h ****     topLeft,
  12:../../libDaisy//src/hid/disp/graphics_common.h ****     topCentered,
  13:../../libDaisy//src/hid/disp/graphics_common.h ****     topRight,
  14:../../libDaisy//src/hid/disp/graphics_common.h ****     bottomLeft,
  15:../../libDaisy//src/hid/disp/graphics_common.h ****     bottomCentered,
  16:../../libDaisy//src/hid/disp/graphics_common.h ****     bottomRight,
  17:../../libDaisy//src/hid/disp/graphics_common.h ****     centeredLeft,
  18:../../libDaisy//src/hid/disp/graphics_common.h ****     centeredRight
  19:../../libDaisy//src/hid/disp/graphics_common.h **** };
  20:../../libDaisy//src/hid/disp/graphics_common.h **** 
  21:../../libDaisy//src/hid/disp/graphics_common.h **** class Rectangle
  22:../../libDaisy//src/hid/disp/graphics_common.h **** {
  23:../../libDaisy//src/hid/disp/graphics_common.h ****   public:
  24:../../libDaisy//src/hid/disp/graphics_common.h ****     Rectangle() : x_(0), y_(0), width_(0), height_(0) {}
  25:../../libDaisy//src/hid/disp/graphics_common.h **** 
  26:../../libDaisy//src/hid/disp/graphics_common.h ****     Rectangle(int16_t width, int16_t height)
 1746              		.loc 14 26 5 is_stmt 1 view .LVU369
 1747              	.LBB761:
 1748              	.LBI761:
  27:../../libDaisy//src/hid/disp/graphics_common.h ****     : x_(0), y_(0), width_(max(0, width)), height_(max(0, height))
ARM GAS  /var/folders/1y/_321xjh9623c014x9_qw12rr0000gn/T//cc1ZQ1Ea.s 			page 63


  28:../../libDaisy//src/hid/disp/graphics_common.h ****     {
  29:../../libDaisy//src/hid/disp/graphics_common.h ****     }
  30:../../libDaisy//src/hid/disp/graphics_common.h **** 
  31:../../libDaisy//src/hid/disp/graphics_common.h ****     Rectangle(int16_t x, int16_t y, int16_t width, int16_t height)
  32:../../libDaisy//src/hid/disp/graphics_common.h ****     : x_(x), y_(y), width_(max(0, width)), height_(max(0, height))
  33:../../libDaisy//src/hid/disp/graphics_common.h ****     {
  34:../../libDaisy//src/hid/disp/graphics_common.h ****     }
  35:../../libDaisy//src/hid/disp/graphics_common.h **** 
  36:../../libDaisy//src/hid/disp/graphics_common.h ****     Rectangle(const Rectangle& other) { *this = other; }
  37:../../libDaisy//src/hid/disp/graphics_common.h **** 
  38:../../libDaisy//src/hid/disp/graphics_common.h ****     Rectangle& operator=(const Rectangle& other)
  39:../../libDaisy//src/hid/disp/graphics_common.h ****     {
  40:../../libDaisy//src/hid/disp/graphics_common.h ****         x_      = other.x_;
  41:../../libDaisy//src/hid/disp/graphics_common.h ****         y_      = other.y_;
  42:../../libDaisy//src/hid/disp/graphics_common.h ****         width_  = other.width_;
  43:../../libDaisy//src/hid/disp/graphics_common.h ****         height_ = other.height_;
  44:../../libDaisy//src/hid/disp/graphics_common.h ****         return *this;
  45:../../libDaisy//src/hid/disp/graphics_common.h ****     }
  46:../../libDaisy//src/hid/disp/graphics_common.h **** 
  47:../../libDaisy//src/hid/disp/graphics_common.h ****     bool operator==(const Rectangle& other) const
  48:../../libDaisy//src/hid/disp/graphics_common.h ****     {
  49:../../libDaisy//src/hid/disp/graphics_common.h ****         return (x_ == other.x_) && (y_ == other.y_) && (width_ == other.width_)
  50:../../libDaisy//src/hid/disp/graphics_common.h ****                && (height_ == other.height_);
  51:../../libDaisy//src/hid/disp/graphics_common.h ****     }
  52:../../libDaisy//src/hid/disp/graphics_common.h ****     bool operator!=(const Rectangle& other) const { return !(*this == other); }
  53:../../libDaisy//src/hid/disp/graphics_common.h **** 
  54:../../libDaisy//src/hid/disp/graphics_common.h ****     bool IsEmpty() const { return (width_ <= 0) || (height_ <= 0); }
  55:../../libDaisy//src/hid/disp/graphics_common.h **** 
  56:../../libDaisy//src/hid/disp/graphics_common.h ****     int16_t GetX() const { return x_; }
  57:../../libDaisy//src/hid/disp/graphics_common.h ****     int16_t GetY() const { return y_; }
  58:../../libDaisy//src/hid/disp/graphics_common.h ****     int16_t GetWidth() const { return width_; }
  59:../../libDaisy//src/hid/disp/graphics_common.h ****     int16_t GetHeight() const { return height_; }
  60:../../libDaisy//src/hid/disp/graphics_common.h ****     int16_t GetRight() const { return x_ + width_; }
  61:../../libDaisy//src/hid/disp/graphics_common.h ****     int16_t GetBottom() const { return y_ + height_; }
  62:../../libDaisy//src/hid/disp/graphics_common.h ****     int16_t GetCenterX() const { return x_ + width_ / 2; }
  63:../../libDaisy//src/hid/disp/graphics_common.h ****     int16_t GetCenterY() const { return y_ + height_ / 2; }
  64:../../libDaisy//src/hid/disp/graphics_common.h **** 
  65:../../libDaisy//src/hid/disp/graphics_common.h ****     Rectangle WithX(int16_t x) const { return {x, y_, width_, height_}; }
  66:../../libDaisy//src/hid/disp/graphics_common.h ****     Rectangle WithY(int16_t y) const { return {x_, y, width_, height_}; }
  67:../../libDaisy//src/hid/disp/graphics_common.h ****     Rectangle WithWidth(int16_t width) const
  68:../../libDaisy//src/hid/disp/graphics_common.h ****     {
  69:../../libDaisy//src/hid/disp/graphics_common.h ****         return {x_, y_, width, height_};
  70:../../libDaisy//src/hid/disp/graphics_common.h ****     }
  71:../../libDaisy//src/hid/disp/graphics_common.h ****     Rectangle WithHeight(int16_t height) const
  72:../../libDaisy//src/hid/disp/graphics_common.h ****     {
  73:../../libDaisy//src/hid/disp/graphics_common.h ****         return {x_, y_, width_, height};
  74:../../libDaisy//src/hid/disp/graphics_common.h ****     }
  75:../../libDaisy//src/hid/disp/graphics_common.h ****     Rectangle WithSize(int16_t width, int16_t height) const
  76:../../libDaisy//src/hid/disp/graphics_common.h ****     {
  77:../../libDaisy//src/hid/disp/graphics_common.h ****         return {x_, y_, width, height};
  78:../../libDaisy//src/hid/disp/graphics_common.h ****     }
  79:../../libDaisy//src/hid/disp/graphics_common.h ****     Rectangle WithWidthKeepingCenter(int16_t width) const
  80:../../libDaisy//src/hid/disp/graphics_common.h ****     {
  81:../../libDaisy//src/hid/disp/graphics_common.h ****         return Rectangle(x_, y_, width, height_)
  82:../../libDaisy//src/hid/disp/graphics_common.h ****             .WithCenter(GetCenterX(), GetCenterY());
  83:../../libDaisy//src/hid/disp/graphics_common.h ****     }
  84:../../libDaisy//src/hid/disp/graphics_common.h ****     Rectangle WithHeightKeepingCenter(int16_t height) const
ARM GAS  /var/folders/1y/_321xjh9623c014x9_qw12rr0000gn/T//cc1ZQ1Ea.s 			page 64


  85:../../libDaisy//src/hid/disp/graphics_common.h ****     {
  86:../../libDaisy//src/hid/disp/graphics_common.h ****         return Rectangle(x_, y_, width_, height)
  87:../../libDaisy//src/hid/disp/graphics_common.h ****             .WithCenter(GetCenterX(), GetCenterY());
  88:../../libDaisy//src/hid/disp/graphics_common.h ****     }
  89:../../libDaisy//src/hid/disp/graphics_common.h ****     Rectangle WithSizeKeepingCenter(int16_t width, int16_t height) const
  90:../../libDaisy//src/hid/disp/graphics_common.h ****     {
  91:../../libDaisy//src/hid/disp/graphics_common.h ****         return Rectangle(x_, y_, width, height)
  92:../../libDaisy//src/hid/disp/graphics_common.h ****             .WithCenter(GetCenterX(), GetCenterY());
  93:../../libDaisy//src/hid/disp/graphics_common.h ****     }
  94:../../libDaisy//src/hid/disp/graphics_common.h **** 
  95:../../libDaisy//src/hid/disp/graphics_common.h ****     Rectangle Reduced(int16_t sizeToReduce) const
  96:../../libDaisy//src/hid/disp/graphics_common.h ****     {
  97:../../libDaisy//src/hid/disp/graphics_common.h ****         return {int16_t(x_ + sizeToReduce),
  98:../../libDaisy//src/hid/disp/graphics_common.h ****                 int16_t(y_ + sizeToReduce),
  99:../../libDaisy//src/hid/disp/graphics_common.h ****                 int16_t(width_ - 2 * sizeToReduce),
 100:../../libDaisy//src/hid/disp/graphics_common.h ****                 int16_t(height_ - 2 * sizeToReduce)};
 101:../../libDaisy//src/hid/disp/graphics_common.h ****     }
 102:../../libDaisy//src/hid/disp/graphics_common.h ****     Rectangle Reduced(int16_t xToReduce, int16_t yToReduce) const
 103:../../libDaisy//src/hid/disp/graphics_common.h ****     {
 104:../../libDaisy//src/hid/disp/graphics_common.h ****         return {int16_t(x_ + xToReduce),
 105:../../libDaisy//src/hid/disp/graphics_common.h ****                 int16_t(y_ + yToReduce),
 106:../../libDaisy//src/hid/disp/graphics_common.h ****                 int16_t(width_ - 2 * xToReduce),
 107:../../libDaisy//src/hid/disp/graphics_common.h ****                 int16_t(height_ - 2 * yToReduce)};
 108:../../libDaisy//src/hid/disp/graphics_common.h ****     }
 109:../../libDaisy//src/hid/disp/graphics_common.h **** 
 110:../../libDaisy//src/hid/disp/graphics_common.h ****     Rectangle Translated(int16_t x, int16_t y) const
 111:../../libDaisy//src/hid/disp/graphics_common.h ****     {
 112:../../libDaisy//src/hid/disp/graphics_common.h ****         return {int16_t(x_ + x), int16_t(y_ + y), width_, height_};
 113:../../libDaisy//src/hid/disp/graphics_common.h ****     }
 114:../../libDaisy//src/hid/disp/graphics_common.h **** 
 115:../../libDaisy//src/hid/disp/graphics_common.h ****     Rectangle WithLeft(int16_t left) const
 116:../../libDaisy//src/hid/disp/graphics_common.h ****     {
 117:../../libDaisy//src/hid/disp/graphics_common.h ****         const auto newWidth = int16_t((x_ - left) + width_);
 118:../../libDaisy//src/hid/disp/graphics_common.h ****         return {left, y_, newWidth, height_};
 119:../../libDaisy//src/hid/disp/graphics_common.h ****     }
 120:../../libDaisy//src/hid/disp/graphics_common.h **** 
 121:../../libDaisy//src/hid/disp/graphics_common.h ****     Rectangle WithRight(int16_t right) const
 122:../../libDaisy//src/hid/disp/graphics_common.h ****     {
 123:../../libDaisy//src/hid/disp/graphics_common.h ****         const auto newWidth = int16_t(right - x_);
 124:../../libDaisy//src/hid/disp/graphics_common.h ****         return {x_, y_, newWidth, height_};
 125:../../libDaisy//src/hid/disp/graphics_common.h ****     }
 126:../../libDaisy//src/hid/disp/graphics_common.h **** 
 127:../../libDaisy//src/hid/disp/graphics_common.h ****     Rectangle WithTop(int16_t top) const
 128:../../libDaisy//src/hid/disp/graphics_common.h ****     {
 129:../../libDaisy//src/hid/disp/graphics_common.h ****         const auto newHeight = int16_t((y_ - top) + height_);
 130:../../libDaisy//src/hid/disp/graphics_common.h ****         return {x_, top, width_, newHeight};
 131:../../libDaisy//src/hid/disp/graphics_common.h ****     }
 132:../../libDaisy//src/hid/disp/graphics_common.h **** 
 133:../../libDaisy//src/hid/disp/graphics_common.h ****     Rectangle WithBottom(int16_t bottom) const
 134:../../libDaisy//src/hid/disp/graphics_common.h ****     {
 135:../../libDaisy//src/hid/disp/graphics_common.h ****         const auto newHeight = int16_t(bottom - y_);
 136:../../libDaisy//src/hid/disp/graphics_common.h ****         return {x_, y_, width_, newHeight};
 137:../../libDaisy//src/hid/disp/graphics_common.h ****     }
 138:../../libDaisy//src/hid/disp/graphics_common.h **** 
 139:../../libDaisy//src/hid/disp/graphics_common.h ****     Rectangle WithTrimmedLeft(int16_t pxToTrim) const
 140:../../libDaisy//src/hid/disp/graphics_common.h ****     {
 141:../../libDaisy//src/hid/disp/graphics_common.h ****         return {
ARM GAS  /var/folders/1y/_321xjh9623c014x9_qw12rr0000gn/T//cc1ZQ1Ea.s 			page 65


 142:../../libDaisy//src/hid/disp/graphics_common.h ****             int16_t(x_ + pxToTrim), y_, int16_t(width_ - pxToTrim), height_};
 143:../../libDaisy//src/hid/disp/graphics_common.h ****     }
 144:../../libDaisy//src/hid/disp/graphics_common.h **** 
 145:../../libDaisy//src/hid/disp/graphics_common.h ****     Rectangle WithTrimmedRight(int16_t pxToTrim) const
 146:../../libDaisy//src/hid/disp/graphics_common.h ****     {
 147:../../libDaisy//src/hid/disp/graphics_common.h ****         return {x_, y_, int16_t(width_ - pxToTrim), height_};
 148:../../libDaisy//src/hid/disp/graphics_common.h ****     }
 149:../../libDaisy//src/hid/disp/graphics_common.h **** 
 150:../../libDaisy//src/hid/disp/graphics_common.h ****     Rectangle WithTrimmedTop(int16_t pxToTrim) const
 151:../../libDaisy//src/hid/disp/graphics_common.h ****     {
 152:../../libDaisy//src/hid/disp/graphics_common.h ****         return {
 153:../../libDaisy//src/hid/disp/graphics_common.h ****             x_, int16_t(y_ + pxToTrim), width_, int16_t(height_ - pxToTrim)};
 154:../../libDaisy//src/hid/disp/graphics_common.h ****     }
 155:../../libDaisy//src/hid/disp/graphics_common.h **** 
 156:../../libDaisy//src/hid/disp/graphics_common.h ****     Rectangle WithTrimmedBottom(int16_t pxToTrim) const
 157:../../libDaisy//src/hid/disp/graphics_common.h ****     {
 158:../../libDaisy//src/hid/disp/graphics_common.h ****         return {x_, y_, width_, int16_t(height_ - pxToTrim)};
 159:../../libDaisy//src/hid/disp/graphics_common.h ****     }
 160:../../libDaisy//src/hid/disp/graphics_common.h **** 
 161:../../libDaisy//src/hid/disp/graphics_common.h ****     Rectangle WithCenterX(int16_t centerX) const
 162:../../libDaisy//src/hid/disp/graphics_common.h ****     {
 163:../../libDaisy//src/hid/disp/graphics_common.h ****         return {int16_t(x_ + centerX - GetCenterX()), y_, width_, height_};
 164:../../libDaisy//src/hid/disp/graphics_common.h ****     }
 165:../../libDaisy//src/hid/disp/graphics_common.h **** 
 166:../../libDaisy//src/hid/disp/graphics_common.h ****     Rectangle WithCenterY(int16_t centerY) const
 167:../../libDaisy//src/hid/disp/graphics_common.h ****     {
 168:../../libDaisy//src/hid/disp/graphics_common.h ****         return {x_, int16_t(y_ + centerY - GetCenterY()), width_, height_};
 169:../../libDaisy//src/hid/disp/graphics_common.h ****     }
 170:../../libDaisy//src/hid/disp/graphics_common.h **** 
 171:../../libDaisy//src/hid/disp/graphics_common.h ****     Rectangle WithCenter(int16_t centerX, int16_t centerY) const
 172:../../libDaisy//src/hid/disp/graphics_common.h ****     {
 173:../../libDaisy//src/hid/disp/graphics_common.h ****         return {int16_t(x_ + centerX - GetCenterX()),
 174:../../libDaisy//src/hid/disp/graphics_common.h ****                 int16_t(y_ + centerY - GetCenterY()),
 175:../../libDaisy//src/hid/disp/graphics_common.h ****                 width_,
 176:../../libDaisy//src/hid/disp/graphics_common.h ****                 height_};
 177:../../libDaisy//src/hid/disp/graphics_common.h ****     }
 178:../../libDaisy//src/hid/disp/graphics_common.h **** 
 179:../../libDaisy//src/hid/disp/graphics_common.h ****     Rectangle RemoveFromLeft(int16_t pxToRemove)
 180:../../libDaisy//src/hid/disp/graphics_common.h ****     {
 181:../../libDaisy//src/hid/disp/graphics_common.h ****         const auto result = this->WithWidth(min(pxToRemove, width_));
 182:../../libDaisy//src/hid/disp/graphics_common.h ****         x_ += min(pxToRemove, width_);
 183:../../libDaisy//src/hid/disp/graphics_common.h ****         width_ = max(int16_t(width_ - pxToRemove), 0);
 184:../../libDaisy//src/hid/disp/graphics_common.h ****         return result;
 185:../../libDaisy//src/hid/disp/graphics_common.h ****     }
 186:../../libDaisy//src/hid/disp/graphics_common.h **** 
 187:../../libDaisy//src/hid/disp/graphics_common.h ****     Rectangle RemoveFromRight(int16_t pxToRemove)
 188:../../libDaisy//src/hid/disp/graphics_common.h ****     {
 189:../../libDaisy//src/hid/disp/graphics_common.h ****         const auto canRemove = min(pxToRemove, width_);
 190:../../libDaisy//src/hid/disp/graphics_common.h ****         width_ -= canRemove;
 191:../../libDaisy//src/hid/disp/graphics_common.h ****         return {int16_t(x_ + width_), y_, canRemove, height_};
 192:../../libDaisy//src/hid/disp/graphics_common.h ****     }
 193:../../libDaisy//src/hid/disp/graphics_common.h **** 
 194:../../libDaisy//src/hid/disp/graphics_common.h ****     Rectangle RemoveFromTop(int16_t pxToRemove)
 195:../../libDaisy//src/hid/disp/graphics_common.h ****     {
 196:../../libDaisy//src/hid/disp/graphics_common.h ****         const auto result = this->WithHeight(min(pxToRemove, height_));
 197:../../libDaisy//src/hid/disp/graphics_common.h ****         y_ += min(pxToRemove, height_);
 198:../../libDaisy//src/hid/disp/graphics_common.h ****         height_ = max(height_ - pxToRemove, 0);
ARM GAS  /var/folders/1y/_321xjh9623c014x9_qw12rr0000gn/T//cc1ZQ1Ea.s 			page 66


 199:../../libDaisy//src/hid/disp/graphics_common.h ****         return result;
 200:../../libDaisy//src/hid/disp/graphics_common.h ****     }
 201:../../libDaisy//src/hid/disp/graphics_common.h **** 
 202:../../libDaisy//src/hid/disp/graphics_common.h ****     Rectangle RemoveFromBottom(int16_t pxToRemove)
 203:../../libDaisy//src/hid/disp/graphics_common.h ****     {
 204:../../libDaisy//src/hid/disp/graphics_common.h ****         const auto canRemove = min(pxToRemove, height_);
 205:../../libDaisy//src/hid/disp/graphics_common.h ****         height_ -= canRemove;
 206:../../libDaisy//src/hid/disp/graphics_common.h ****         return {x_, int16_t(y_ + height_), width_, canRemove};
 207:../../libDaisy//src/hid/disp/graphics_common.h ****     }
 208:../../libDaisy//src/hid/disp/graphics_common.h **** 
 209:../../libDaisy//src/hid/disp/graphics_common.h ****     Rectangle AlignedWithin(const Rectangle& other, Alignment alignment) const
 210:../../libDaisy//src/hid/disp/graphics_common.h ****     {
 211:../../libDaisy//src/hid/disp/graphics_common.h ****         switch(alignment)
 212:../../libDaisy//src/hid/disp/graphics_common.h ****         {
 213:../../libDaisy//src/hid/disp/graphics_common.h ****             case Alignment::topLeft:
 214:../../libDaisy//src/hid/disp/graphics_common.h ****                 return {other.x_, other.y_, width_, height_};
 215:../../libDaisy//src/hid/disp/graphics_common.h ****             case Alignment::topRight:
 216:../../libDaisy//src/hid/disp/graphics_common.h ****                 return {int16_t(other.GetRight() - width_),
 217:../../libDaisy//src/hid/disp/graphics_common.h ****                         other.y_,
 218:../../libDaisy//src/hid/disp/graphics_common.h ****                         width_,
 219:../../libDaisy//src/hid/disp/graphics_common.h ****                         height_};
 220:../../libDaisy//src/hid/disp/graphics_common.h ****             case Alignment::topCentered:
 221:../../libDaisy//src/hid/disp/graphics_common.h ****                 return {int16_t(x_ + (other.GetCenterX() - GetCenterX())),
 222:../../libDaisy//src/hid/disp/graphics_common.h ****                         other.y_,
 223:../../libDaisy//src/hid/disp/graphics_common.h ****                         width_,
 224:../../libDaisy//src/hid/disp/graphics_common.h ****                         height_};
 225:../../libDaisy//src/hid/disp/graphics_common.h ****             case Alignment::bottomLeft:
 226:../../libDaisy//src/hid/disp/graphics_common.h ****                 return {other.x_,
 227:../../libDaisy//src/hid/disp/graphics_common.h ****                         int16_t(other.GetBottom() - height_),
 228:../../libDaisy//src/hid/disp/graphics_common.h ****                         width_,
 229:../../libDaisy//src/hid/disp/graphics_common.h ****                         height_};
 230:../../libDaisy//src/hid/disp/graphics_common.h ****             case Alignment::bottomRight:
 231:../../libDaisy//src/hid/disp/graphics_common.h ****                 return {int16_t(other.GetRight() - width_),
 232:../../libDaisy//src/hid/disp/graphics_common.h ****                         int16_t(other.GetBottom() - height_),
 233:../../libDaisy//src/hid/disp/graphics_common.h ****                         width_,
 234:../../libDaisy//src/hid/disp/graphics_common.h ****                         height_};
 235:../../libDaisy//src/hid/disp/graphics_common.h ****             case Alignment::bottomCentered:
 236:../../libDaisy//src/hid/disp/graphics_common.h ****                 return {int16_t(x_ + (other.GetCenterX() - GetCenterX())),
 237:../../libDaisy//src/hid/disp/graphics_common.h ****                         int16_t(other.GetBottom() - height_),
 238:../../libDaisy//src/hid/disp/graphics_common.h ****                         width_,
 239:../../libDaisy//src/hid/disp/graphics_common.h ****                         height_};
 240:../../libDaisy//src/hid/disp/graphics_common.h ****             case Alignment::centeredLeft:
 241:../../libDaisy//src/hid/disp/graphics_common.h ****                 return {other.x_,
 242:../../libDaisy//src/hid/disp/graphics_common.h ****                         int16_t(y_ + (other.GetCenterY() - GetCenterY())),
 243:../../libDaisy//src/hid/disp/graphics_common.h ****                         width_,
 244:../../libDaisy//src/hid/disp/graphics_common.h ****                         height_};
 245:../../libDaisy//src/hid/disp/graphics_common.h ****             case Alignment::centeredRight:
 246:../../libDaisy//src/hid/disp/graphics_common.h ****                 return {int16_t(other.GetRight() - width_),
 247:../../libDaisy//src/hid/disp/graphics_common.h ****                         int16_t(y_ + (other.GetCenterY() - GetCenterY())),
 248:../../libDaisy//src/hid/disp/graphics_common.h ****                         width_,
 249:../../libDaisy//src/hid/disp/graphics_common.h ****                         height_};
 250:../../libDaisy//src/hid/disp/graphics_common.h ****             case Alignment::centered:
 251:../../libDaisy//src/hid/disp/graphics_common.h ****                 return {int16_t(x_ + (other.GetCenterX() - GetCenterX())),
 252:../../libDaisy//src/hid/disp/graphics_common.h ****                         int16_t(y_ + (other.GetCenterY() - GetCenterY())),
 253:../../libDaisy//src/hid/disp/graphics_common.h ****                         width_,
 254:../../libDaisy//src/hid/disp/graphics_common.h ****                         height_};
 255:../../libDaisy//src/hid/disp/graphics_common.h ****             default: return {};
ARM GAS  /var/folders/1y/_321xjh9623c014x9_qw12rr0000gn/T//cc1ZQ1Ea.s 			page 67


 256:../../libDaisy//src/hid/disp/graphics_common.h ****         }
 257:../../libDaisy//src/hid/disp/graphics_common.h ****     }
 258:../../libDaisy//src/hid/disp/graphics_common.h **** 
 259:../../libDaisy//src/hid/disp/graphics_common.h ****   private:
 260:../../libDaisy//src/hid/disp/graphics_common.h ****     int16_t x_, y_, width_, height_;
 261:../../libDaisy//src/hid/disp/graphics_common.h ****     int16_t max(int16_t a, int16_t b) { return (a > b) ? a : b; }
 1749              		.loc 14 261 13 view .LVU370
 1750              	.LBE761:
 1751              	.LBE760:
 1752              	.LBE766:
 1753              	.LBE770:
 1754              		.loc 14 261 41 view .LVU371
 1755              	.LBB771:
 1756              	.LBB767:
 1757              	.LBB763:
 1758              	.LBB762:
 1759              	.LBI762:
 1760              		.loc 14 261 13 view .LVU372
 1761              	.LBE762:
 1762              	.LBE763:
 1763              	.LBE767:
 1764              	.LBE771:
 1765              		.loc 14 261 41 view .LVU373
 1766              	.LBB772:
 1767              	.LBI772:
 209:../../libDaisy//src/hid/disp/graphics_common.h ****     {
 1768              		.loc 14 209 15 view .LVU374
 1769              	.LBB773:
 211:../../libDaisy//src/hid/disp/graphics_common.h ****         {
 1770              		.loc 14 211 9 view .LVU375
 1771 0036 1BB2     		sxth	r3, r3
 1772 0038 23EAE373 		bic	r3, r3, r3, asr #31
 1773 003c 0829     		cmp	r1, #8
 1774 003e 00F2A681 		bhi	.L122
 1775 0042 DFE811F0 		tbh	[pc, r1, lsl #1]
 1776              	.L124:
 1777 0046 0101     		.2byte	(.L132-.L124)/2
 1778 0048 1301     		.2byte	(.L131-.L124)/2
 1779 004a 1F01     		.2byte	(.L130-.L124)/2
 1780 004c 3301     		.2byte	(.L129-.L124)/2
 1781 004e 4101     		.2byte	(.L128-.L124)/2
 1782 0050 4F01     		.2byte	(.L127-.L124)/2
 1783 0052 6601     		.2byte	(.L126-.L124)/2
 1784 0054 6F01     		.2byte	(.L125-.L124)/2
 1785 0056 0900     		.2byte	(.L123-.L124)/2
 1786              		.p2align 1
 1787              	.L123:
 245:../../libDaisy//src/hid/disp/graphics_common.h ****                 return {int16_t(other.GetRight() - width_),
 1788              		.loc 14 245 13 view .LVU376
 246:../../libDaisy//src/hid/disp/graphics_common.h ****                         int16_t(y_ + (other.GetCenterY() - GetCenterY())),
 1789              		.loc 14 246 17 view .LVU377
 1790              	.LVL128:
 1791              	.LBB774:
 1792              	.LBI774:
  60:../../libDaisy//src/hid/disp/graphics_common.h ****     int16_t GetBottom() const { return y_ + height_; }
 1793              		.loc 14 60 13 view .LVU378
 1794              	.LBB775:
ARM GAS  /var/folders/1y/_321xjh9623c014x9_qw12rr0000gn/T//cc1ZQ1Ea.s 			page 68


  60:../../libDaisy//src/hid/disp/graphics_common.h ****     int16_t GetBottom() const { return y_ + height_; }
 1795              		.loc 14 60 32 view .LVU379
  60:../../libDaisy//src/hid/disp/graphics_common.h ****     int16_t GetBottom() const { return y_ + height_; }
 1796              		.loc 14 60 42 is_stmt 0 view .LVU380
 1797 0058 A188     		ldrh	r1, [r4, #4]
 1798              	.LVL129:
  60:../../libDaisy//src/hid/disp/graphics_common.h ****     int16_t GetBottom() const { return y_ + height_; }
 1799              		.loc 14 60 42 view .LVU381
 1800 005a 2788     		ldrh	r7, [r4]
 1801 005c 0F44     		add	r7, r7, r1
 1802              	.LBE775:
 1803              	.LBE774:
 1804              	.LBB776:
 1805              	.LBB777:
  63:../../libDaisy//src/hid/disp/graphics_common.h **** 
 1806              		.loc 14 63 54 view .LVU382
 1807 005e B4F90610 		ldrsh	r1, [r4, #6]
 1808              	.LBE777:
 1809              	.LBE776:
 246:../../libDaisy//src/hid/disp/graphics_common.h ****                         int16_t(y_ + (other.GetCenterY() - GetCenterY())),
 1810              		.loc 14 246 50 view .LVU383
 1811 0062 FF1A     		subs	r7, r7, r3
 1812              	.LBB781:
 1813              	.LBB778:
  63:../../libDaisy//src/hid/disp/graphics_common.h **** 
 1814              		.loc 14 63 54 view .LVU384
 1815 0064 0029     		cmp	r1, #0
 1816              	.LBE778:
 1817              	.LBE781:
 246:../../libDaisy//src/hid/disp/graphics_common.h ****                         int16_t(y_ + (other.GetCenterY() - GetCenterY())),
 1818              		.loc 14 246 50 view .LVU385
 1819 0066 BFB2     		uxth	r7, r7
 1820              	.LVL130:
 1821              	.LBB782:
 1822              	.LBI776:
  63:../../libDaisy//src/hid/disp/graphics_common.h **** 
 1823              		.loc 14 63 13 is_stmt 1 view .LVU386
 1824              	.LBB779:
  63:../../libDaisy//src/hid/disp/graphics_common.h **** 
 1825              		.loc 14 63 34 view .LVU387
  63:../../libDaisy//src/hid/disp/graphics_common.h **** 
 1826              		.loc 14 63 34 is_stmt 0 view .LVU388
 1827              	.LBE779:
 1828              	.LBE782:
 1829              	.LBB783:
 1830              	.LBI783:
  63:../../libDaisy//src/hid/disp/graphics_common.h **** 
 1831              		.loc 14 63 13 is_stmt 1 view .LVU389
 1832              	.LBB784:
  63:../../libDaisy//src/hid/disp/graphics_common.h **** 
 1833              		.loc 14 63 34 view .LVU390
  63:../../libDaisy//src/hid/disp/graphics_common.h **** 
 1834              		.loc 14 63 34 is_stmt 0 view .LVU391
 1835              	.LBE784:
 1836              	.LBE783:
 1837              	.LBB785:
 1838              	.LBB780:
ARM GAS  /var/folders/1y/_321xjh9623c014x9_qw12rr0000gn/T//cc1ZQ1Ea.s 			page 69


  63:../../libDaisy//src/hid/disp/graphics_common.h **** 
 1839              		.loc 14 63 54 view .LVU392
 1840 0068 C0F2FE80 		blt	.L195
 1841              	.L139:
  63:../../libDaisy//src/hid/disp/graphics_common.h **** 
 1842              		.loc 14 63 54 view .LVU393
 1843              	.LBE780:
 1844              	.LBE785:
 1845              	.LBB786:
 1846              	.LBB787:
  63:../../libDaisy//src/hid/disp/graphics_common.h **** 
 1847              		.loc 14 63 44 view .LVU394
 1848 006c 6488     		ldrh	r4, [r4, #2]
 1849              	.LVL131:
  63:../../libDaisy//src/hid/disp/graphics_common.h **** 
 1850              		.loc 14 63 44 view .LVU395
 1851              	.LBE787:
 1852              	.LBE786:
 1853              	.LBB793:
 1854              	.LBB794:
 1855              	.LBB795:
  32:../../libDaisy//src/hid/disp/graphics_common.h ****     {
 1856              		.loc 14 32 66 view .LVU396
 1857 006e 0698     		ldr	r0, [sp, #24]
 1858              	.LBE795:
 1859              	.LBE794:
 1860              	.LBE793:
 1861              	.LBB806:
 1862              	.LBB788:
  63:../../libDaisy//src/hid/disp/graphics_common.h **** 
 1863              		.loc 14 63 44 view .LVU397
 1864 0070 04EB6104 		add	r4, r4, r1, asr #1
 1865              	.LBE788:
 1866              	.LBE806:
 1867              	.LBB807:
 1868              	.LBB802:
 1869              	.LBB798:
  32:../../libDaisy//src/hid/disp/graphics_common.h ****     {
 1870              		.loc 14 32 66 view .LVU398
 1871 0074 C280     		strh	r2, [r0, #6]	@ movhi
 1872              	.LBE798:
 1873              	.LBE802:
 1874              	.LBE807:
 252:../../libDaisy//src/hid/disp/graphics_common.h ****                         width_,
 1875              		.loc 14 252 58 view .LVU399
 1876 0076 A4EB5202 		sub	r2, r4, r2, lsr #1
 1877              	.LBB808:
 1878              	.LBB803:
 1879              	.LBB799:
  32:../../libDaisy//src/hid/disp/graphics_common.h ****     {
 1880              		.loc 14 32 66 view .LVU400
 1881 007a 8380     		strh	r3, [r0, #4]	@ movhi
 1882 007c 0780     		strh	r7, [r0]	@ movhi
 1883              	.LBE799:
 1884              	.LBE803:
 1885              	.LBE808:
 252:../../libDaisy//src/hid/disp/graphics_common.h ****                         width_,
ARM GAS  /var/folders/1y/_321xjh9623c014x9_qw12rr0000gn/T//cc1ZQ1Ea.s 			page 70


 1886              		.loc 14 252 58 view .LVU401
 1887 007e 94B2     		uxth	r4, r2
 1888              	.LVL132:
 1889              	.LBB809:
 1890              	.LBI793:
  31:../../libDaisy//src/hid/disp/graphics_common.h ****     : x_(x), y_(y), width_(max(0, width)), height_(max(0, height))
 1891              		.loc 14 31 5 is_stmt 1 view .LVU402
 1892              	.LBB804:
 1893              	.LBB800:
  32:../../libDaisy//src/hid/disp/graphics_common.h ****     {
 1894              		.loc 14 32 66 is_stmt 0 view .LVU403
 1895 0080 4480     		strh	r4, [r0, #2]	@ movhi
 1896              	.LVL133:
 1897              	.LBB796:
 1898              	.LBI796:
 1899              		.loc 14 261 13 is_stmt 1 view .LVU404
 1900              	.LBE796:
 1901              	.LBE800:
 1902              	.LBE804:
 1903              	.LBE809:
 1904              	.LBE773:
 1905              	.LBE772:
 1906              		.loc 14 261 41 view .LVU405
 1907              	.LBB998:
 1908              	.LBB976:
 1909              	.LBB810:
 1910              	.LBB805:
 1911              	.LBB801:
 1912              	.LBB797:
 1913              	.LBI797:
 1914              		.loc 14 261 13 view .LVU406
 1915              	.LBE797:
 1916              	.LBE801:
 1917              	.LBE805:
 1918              	.LBE810:
 1919              	.LBE976:
 1920              	.LBE998:
 1921              		.loc 14 261 41 view .LVU407
 1922              	.L133:
  56:../../libDaisy//src/hid/disp/graphics_common.h ****     int16_t GetY() const { return y_; }
 1923              		.loc 14 56 28 view .LVU408
  57:../../libDaisy//src/hid/disp/graphics_common.h ****     int16_t GetWidth() const { return width_; }
 1924              		.loc 14 57 28 view .LVU409
 1925              	.LBB999:
 1926              	.LBI999:
 171:../../libDaisy//src/hid/disp/display.h ****     {
 1927              		.loc 4 171 10 view .LVU410
 1928              	.LBB1000:
 173:../../libDaisy//src/hid/disp/display.h ****         currentY_ = (y >= Height()) ? Height() - 1 : y;
 1929              		.loc 4 173 9 view .LVU411
 1930 0082 A64A     		ldr	r2, .L205
 173:../../libDaisy//src/hid/disp/display.h ****         currentY_ = (y >= Height()) ? Height() - 1 : y;
 1931              		.loc 4 173 33 is_stmt 0 view .LVU412
 1932 0084 D8F80030 		ldr	r3, [r8]
 1933 0088 1146     		mov	r1, r2
 1934 008a 0192     		str	r2, [sp, #4]
 1935 008c DA68     		ldr	r2, [r3, #12]
ARM GAS  /var/folders/1y/_321xjh9623c014x9_qw12rr0000gn/T//cc1ZQ1Ea.s 			page 71


 1936 008e 8A42     		cmp	r2, r1
 1937 0090 40F08B81 		bne	.L141
 1938 0094 8020     		movs	r0, #128
 1939              	.LVL134:
 1940              	.L142:
 173:../../libDaisy//src/hid/disp/display.h ****         currentY_ = (y >= Height()) ? Height() - 1 : y;
 1941              		.loc 4 173 19 view .LVU413
 1942 0096 B842     		cmp	r0, r7
 1943 0098 05D8     		bhi	.L143
 173:../../libDaisy//src/hid/disp/display.h ****         currentY_ = (y >= Height()) ? Height() - 1 : y;
 1944              		.loc 4 173 44 view .LVU414
 1945 009a DA68     		ldr	r2, [r3, #12]
 1946 009c 0199     		ldr	r1, [sp, #4]
 1947 009e 8A42     		cmp	r2, r1
 1948 00a0 40F09881 		bne	.L196
 1949 00a4 7F27     		movs	r7, #127
 1950              	.L143:
 1951 00a6 9E4A     		ldr	r2, .L205+4
 174:../../libDaisy//src/hid/disp/display.h ****     }
 1952              		.loc 4 174 34 view .LVU415
 1953 00a8 9B68     		ldr	r3, [r3, #8]
 173:../../libDaisy//src/hid/disp/display.h ****         currentY_ = (y >= Height()) ? Height() - 1 : y;
 1954              		.loc 4 173 19 view .LVU416
 1955 00aa A8F80470 		strh	r7, [r8, #4]	@ movhi
 174:../../libDaisy//src/hid/disp/display.h ****     }
 1956              		.loc 4 174 9 is_stmt 1 view .LVU417
 1957 00ae 9342     		cmp	r3, r2
 1958 00b0 0392     		str	r2, [sp, #12]
 1959 00b2 40F08781 		bne	.L173
 174:../../libDaisy//src/hid/disp/display.h ****     }
 1960              		.loc 4 174 34 is_stmt 0 view .LVU418
 1961 00b6 4020     		movs	r0, #64
 1962              	.L145:
 174:../../libDaisy//src/hid/disp/display.h ****     }
 1963              		.loc 4 174 19 view .LVU419
 1964 00b8 A042     		cmp	r0, r4
 1965 00ba 07D8     		bhi	.L147
 174:../../libDaisy//src/hid/disp/display.h ****     }
 1966              		.loc 4 174 46 view .LVU420
 1967 00bc D8F80030 		ldr	r3, [r8]
 1968 00c0 039A     		ldr	r2, [sp, #12]
 1969 00c2 9B68     		ldr	r3, [r3, #8]
 1970 00c4 9342     		cmp	r3, r2
 1971 00c6 40F08081 		bne	.L197
 1972 00ca 3F24     		movs	r4, #63
 1973              	.L147:
 174:../../libDaisy//src/hid/disp/display.h ****     }
 1974              		.loc 4 174 46 view .LVU421
 1975              	.LBE1000:
 1976              	.LBE999:
 1977              	.LBB1004:
 1978              	.LBB1005:
 443:../../libDaisy//src/hid/disp/display.h ****         {
 1979              		.loc 4 443 9 view .LVU422
 1980 00cc 009B     		ldr	r3, [sp]
 1981              	.LBE1005:
 1982              	.LBE1004:
ARM GAS  /var/folders/1y/_321xjh9623c014x9_qw12rr0000gn/T//cc1ZQ1Ea.s 			page 72


 1983              	.LBB1053:
 1984              	.LBB1001:
 174:../../libDaisy//src/hid/disp/display.h ****     }
 1985              		.loc 4 174 19 view .LVU423
 1986 00ce A8F80640 		strh	r4, [r8, #6]	@ movhi
 1987              	.LVL135:
 174:../../libDaisy//src/hid/disp/display.h ****     }
 1988              		.loc 4 174 19 view .LVU424
 1989              	.LBE1001:
 1990              	.LBE1053:
 1991              	.LBB1054:
 1992              	.LBB1050:
 443:../../libDaisy//src/hid/disp/display.h ****         {
 1993              		.loc 4 443 9 view .LVU425
 1994 00d2 93F800B0 		ldrb	fp, [r3]	@ zero_extendqisi2
 1995 00d6 6B78     		ldrb	r3, [r5, #1]	@ zero_extendqisi2
 1996              	.LVL136:
 443:../../libDaisy//src/hid/disp/display.h ****         {
 1997              		.loc 4 443 9 view .LVU426
 1998 00d8 2C78     		ldrb	r4, [r5]	@ zero_extendqisi2
 1999              	.LVL137:
 443:../../libDaisy//src/hid/disp/display.h ****         {
 2000              		.loc 4 443 9 view .LVU427
 2001 00da 0493     		str	r3, [sp, #16]
 2002              	.LVL138:
 443:../../libDaisy//src/hid/disp/display.h ****         {
 2003              		.loc 4 443 9 view .LVU428
 2004 00dc 6B68     		ldr	r3, [r5, #4]
 2005 00de 0793     		str	r3, [sp, #28]
 2006              	.LVL139:
 443:../../libDaisy//src/hid/disp/display.h ****         {
 2007              		.loc 4 443 9 view .LVU429
 2008              	.LBE1050:
 2009              	.LBI1004:
 440:../../libDaisy//src/hid/disp/display.h ****     {
 2010              		.loc 4 440 10 is_stmt 1 view .LVU430
 2011              	.LBB1051:
 443:../../libDaisy//src/hid/disp/display.h ****         {
 2012              		.loc 4 443 9 view .LVU431
 2013 00e0 BBF1000F 		cmp	fp, #0
 2014 00e4 00F0AC80 		beq	.L119
 2015              	.LVL140:
 2016              	.L149:
 2017              	.LBB1006:
 2018              	.LBI1006:
 396:../../libDaisy//src/hid/disp/display.h ****     {
 2019              		.loc 4 396 10 view .LVU432
 2020              	.LBB1007:
 401:../../libDaisy//src/hid/disp/display.h ****             return 0;
 2021              		.loc 4 401 20 is_stmt 0 view .LVU433
 2022 00e8 ABF12005 		sub	r5, fp, #32
 401:../../libDaisy//src/hid/disp/display.h ****             return 0;
 2023              		.loc 4 401 9 view .LVU434
 2024 00ec EBB2     		uxtb	r3, r5
 2025 00ee 5E2B     		cmp	r3, #94
 2026 00f0 00F22C81 		bhi	.L153
 405:../../libDaisy//src/hid/disp/display.h ****            || Height() < (currentY_ + font.FontHeight))
ARM GAS  /var/folders/1y/_321xjh9623c014x9_qw12rr0000gn/T//cc1ZQ1Ea.s 			page 73


 2027              		.loc 4 405 17 view .LVU435
 2028 00f4 D8F80030 		ldr	r3, [r8]
 2029 00f8 019A     		ldr	r2, [sp, #4]
 2030 00fa DB68     		ldr	r3, [r3, #12]
 2031 00fc 9342     		cmp	r3, r2
 2032 00fe 40F02881 		bne	.L198
 2033 0102 8020     		movs	r0, #128
 2034              	.L152:
 405:../../libDaisy//src/hid/disp/display.h ****            || Height() < (currentY_ + font.FontHeight))
 2035              		.loc 4 405 23 view .LVU436
 2036 0104 B8F80430 		ldrh	r3, [r8, #4]
 405:../../libDaisy//src/hid/disp/display.h ****            || Height() < (currentY_ + font.FontHeight))
 2037              		.loc 4 405 33 view .LVU437
 2038 0108 2344     		add	r3, r3, r4
 406:../../libDaisy//src/hid/disp/display.h ****         {
 2039              		.loc 4 406 12 view .LVU438
 2040 010a 9842     		cmp	r0, r3
 2041 010c C0F21E81 		blt	.L153
 406:../../libDaisy//src/hid/disp/display.h ****         {
 2042              		.loc 4 406 21 view .LVU439
 2043 0110 D8F80030 		ldr	r3, [r8]
 2044 0114 039A     		ldr	r2, [sp, #12]
 2045 0116 9B68     		ldr	r3, [r3, #8]
 2046 0118 9342     		cmp	r3, r2
 2047 011a 40F01D81 		bne	.L199
 2048 011e 4020     		movs	r0, #64
 2049              	.L154:
 406:../../libDaisy//src/hid/disp/display.h ****         {
 2050              		.loc 4 406 27 view .LVU440
 2051 0120 B8F80610 		ldrh	r1, [r8, #6]
 406:../../libDaisy//src/hid/disp/display.h ****         {
 2052              		.loc 4 406 37 view .LVU441
 2053 0124 049A     		ldr	r2, [sp, #16]
 406:../../libDaisy//src/hid/disp/display.h ****         {
 2054              		.loc 4 406 27 view .LVU442
 2055 0126 0291     		str	r1, [sp, #8]
 406:../../libDaisy//src/hid/disp/display.h ****         {
 2056              		.loc 4 406 37 view .LVU443
 2057 0128 8B18     		adds	r3, r1, r2
 406:../../libDaisy//src/hid/disp/display.h ****         {
 2058              		.loc 4 406 12 view .LVU444
 2059 012a 9842     		cmp	r0, r3
 2060 012c C0F20E81 		blt	.L153
 2061              	.LVL141:
 413:../../libDaisy//src/hid/disp/display.h ****         {
 2062              		.loc 4 413 22 is_stmt 1 view .LVU445
 2063 0130 002A     		cmp	r2, #0
 2064 0132 00F01C81 		beq	.L155
 415:../../libDaisy//src/hid/disp/display.h ****             for(j = 0; j < font.FontWidth; j++)
 2065              		.loc 4 415 37 is_stmt 0 view .LVU446
 2066 0136 02FB05F5 		mul	r5, r2, r5
 2067 013a 6FF0004E 		mvn	lr, #-2147483648
 2068 013e 079B     		ldr	r3, [sp, #28]
 2069 0140 AE44     		add	lr, lr, r5
 2070 0142 1544     		add	r5, r5, r2
 2071 0144 CDF814B0 		str	fp, [sp, #20]
 2072 0148 03EB4E0E 		add	lr, r3, lr, lsl #1
ARM GAS  /var/folders/1y/_321xjh9623c014x9_qw12rr0000gn/T//cc1ZQ1Ea.s 			page 74


 2073 014c 023B     		subs	r3, r3, #2
 434:../../libDaisy//src/hid/disp/display.h **** 
 2074              		.loc 4 434 19 view .LVU447
 2075 014e B8F804A0 		ldrh	r10, [r8, #4]
 2076 0152 03EB4503 		add	r3, r3, r5, lsl #1
 2077 0156 0D46     		mov	r5, r1
 2078 0158 9B46     		mov	fp, r3
 2079              	.LVL142:
 2080              	.L158:
 415:../../libDaisy//src/hid/disp/display.h ****             for(j = 0; j < font.FontWidth; j++)
 2081              		.loc 4 415 15 view .LVU448
 2082 015a 3EF8027F 		ldrh	r7, [lr, #2]!
 2083              	.LVL143:
 416:../../libDaisy//src/hid/disp/display.h ****             {
 2084              		.loc 4 416 26 is_stmt 1 view .LVU449
 2085 015e A4B3     		cbz	r4, .L163
 2086              	.LBB1008:
 2087              	.LBB1009:
 2088              	.LBB1010:
 2089              	.LBB1011:
 2090              	.LBB1012:
 359:../../libDaisy//src/dev/oled_ssd130x.h ****     }
 2091              		.loc 12 359 55 is_stmt 0 view .LVU450
 2092 0160 05F00703 		and	r3, r5, #7
 359:../../libDaisy//src/dev/oled_ssd130x.h ****     }
 2093              		.loc 12 359 49 view .LVU451
 2094 0164 4FF0010C 		mov	ip, #1
 359:../../libDaisy//src/dev/oled_ssd130x.h ****     }
 2095              		.loc 12 359 28 view .LVU452
 2096 0168 EA08     		lsrs	r2, r5, #3
 2097 016a 5146     		mov	r1, r10
 359:../../libDaisy//src/dev/oled_ssd130x.h ****     }
 2098              		.loc 12 359 49 view .LVU453
 2099 016c 0CFA03FC 		lsl	ip, ip, r3
 2100 0170 0AF11403 		add	r3, r10, #20
 359:../../libDaisy//src/dev/oled_ssd130x.h ****     }
 2101              		.loc 12 359 42 view .LVU454
 2102 0174 4FFA8CFC 		sxtb	ip, ip
 2103 0178 03EBC212 		add	r2, r3, r2, lsl #7
 2104              	.LBE1012:
 2105              	.LBE1011:
 2106              	.LBE1010:
 2107              	.LBE1009:
 2108              	.LBE1008:
 416:../../libDaisy//src/hid/disp/display.h ****             {
 2109              		.loc 4 416 19 view .LVU455
 2110 017c 0023     		movs	r3, #0
 2111              	.LBB1030:
 2112              	.LBB1025:
 2113              	.LBB1020:
 2114              	.LBB1016:
 2115              	.LBB1013:
 359:../../libDaisy//src/dev/oled_ssd130x.h ****     }
 2116              		.loc 12 359 42 view .LVU456
 2117 017e 6FEA0C09 		mvn	r9, ip
 2118 0182 4244     		add	r2, r2, r8
 2119 0184 0DE0     		b	.L164
ARM GAS  /var/folders/1y/_321xjh9623c014x9_qw12rr0000gn/T//cc1ZQ1Ea.s 			page 75


 2120              	.LVL144:
 2121              	.L200:
 359:../../libDaisy//src/dev/oled_ssd130x.h ****     }
 2122              		.loc 12 359 42 view .LVU457
 2123              	.LBE1013:
 2124              	.LBE1016:
 2125              	.LBE1020:
 2126              	.LBE1025:
 2127              	.LBE1030:
 2128              	.LBB1031:
 2129              	.LBI1031:
  42:../../libDaisy//src/hid/disp/oled_display.h ****     {
 2130              		.loc 3 42 10 is_stmt 1 view .LVU458
 2131              	.LBB1032:
 2132              	.LBI1032:
 352:../../libDaisy//src/dev/oled_ssd130x.h ****     {
 2133              		.loc 12 352 10 view .LVU459
 2134              	.LBB1033:
 354:../../libDaisy//src/dev/oled_ssd130x.h ****             return;
 2135              		.loc 12 354 9 is_stmt 0 view .LVU460
 2136 0186 7F29     		cmp	r1, #127
 2137 0188 06D8     		bhi	.L160
 2138 018a 3F2D     		cmp	r5, #63
 2139 018c 04D8     		bhi	.L160
 357:../../libDaisy//src/dev/oled_ssd130x.h ****         else
 2140              		.loc 12 357 42 view .LVU461
 2141 018e 1078     		ldrb	r0, [r2]	@ zero_extendqisi2
 356:../../libDaisy//src/dev/oled_ssd130x.h ****             buffer_[x + (y / 8) * width] |= (1 << (y % 8));
 2142              		.loc 12 356 9 view .LVU462
 2143 0190 96B1     		cbz	r6, .L162
 2144              	.L194:
 356:../../libDaisy//src/dev/oled_ssd130x.h ****             buffer_[x + (y / 8) * width] |= (1 << (y % 8));
 2145              		.loc 12 356 9 view .LVU463
 2146              	.LBE1033:
 2147              	.LBE1032:
 2148              	.LBE1031:
 2149              	.LBB1034:
 2150              	.LBB1026:
 2151              	.LBB1021:
 357:../../libDaisy//src/dev/oled_ssd130x.h ****         else
 2152              		.loc 12 357 42 view .LVU464
 2153 0192 4CEA0000 		orr	r0, ip, r0
 2154 0196 1070     		strb	r0, [r2]
 2155              	.L160:
 2156              	.LBE1021:
 2157              	.LBE1026:
 2158              	.LBE1034:
 416:../../libDaisy//src/hid/disp/display.h ****             {
 2159              		.loc 4 416 13 is_stmt 1 view .LVU465
 2160 0198 0133     		adds	r3, r3, #1
 2161              	.LVL145:
 416:../../libDaisy//src/hid/disp/display.h ****             {
 2162              		.loc 4 416 26 view .LVU466
 2163 019a 0132     		adds	r2, r2, #1
 2164 019c 0131     		adds	r1, r1, #1
 2165 019e 9C42     		cmp	r4, r3
 2166 01a0 13D0     		beq	.L163
ARM GAS  /var/folders/1y/_321xjh9623c014x9_qw12rr0000gn/T//cc1ZQ1Ea.s 			page 76


 2167              	.LVL146:
 2168              	.L164:
 418:../../libDaisy//src/hid/disp/display.h ****                 {
 2169              		.loc 4 418 23 is_stmt 0 view .LVU467
 2170 01a2 07FA03F0 		lsl	r0, r7, r3
 418:../../libDaisy//src/hid/disp/display.h ****                 {
 2171              		.loc 4 418 17 view .LVU468
 2172 01a6 0004     		lsls	r0, r0, #16
 2173 01a8 EDD4     		bmi	.L200
 2174              	.LVL147:
 2175              	.LBB1035:
 2176              	.LBI1008:
  42:../../libDaisy//src/hid/disp/oled_display.h ****     {
 2177              		.loc 3 42 10 is_stmt 1 view .LVU469
 2178              	.LBB1027:
 2179              	.LBI1009:
 352:../../libDaisy//src/dev/oled_ssd130x.h ****     {
 2180              		.loc 12 352 10 view .LVU470
 2181              	.LBB1022:
 354:../../libDaisy//src/dev/oled_ssd130x.h ****             return;
 2182              		.loc 12 354 9 is_stmt 0 view .LVU471
 2183 01aa 7F29     		cmp	r1, #127
 2184 01ac F4D8     		bhi	.L160
 2185 01ae 3F2D     		cmp	r5, #63
 2186 01b0 F2D8     		bhi	.L160
 357:../../libDaisy//src/dev/oled_ssd130x.h ****         else
 2187              		.loc 12 357 42 view .LVU472
 2188 01b2 1078     		ldrb	r0, [r2]	@ zero_extendqisi2
 356:../../libDaisy//src/dev/oled_ssd130x.h ****             buffer_[x + (y / 8) * width] |= (1 << (y % 8));
 2189              		.loc 12 356 9 view .LVU473
 2190 01b4 002E     		cmp	r6, #0
 2191 01b6 ECD0     		beq	.L194
 2192              	.L162:
 2193              	.LVL148:
 2194              	.LBB1017:
 2195              	.LBI1011:
 352:../../libDaisy//src/dev/oled_ssd130x.h ****     {
 2196              		.loc 12 352 10 is_stmt 1 view .LVU474
 352:../../libDaisy//src/dev/oled_ssd130x.h ****     {
 2197              		.loc 12 352 10 is_stmt 0 view .LVU475
 2198              	.LBE1017:
 2199              	.LBE1022:
 2200              	.LBE1027:
 2201              	.LBE1035:
 416:../../libDaisy//src/hid/disp/display.h ****             {
 2202              		.loc 4 416 13 view .LVU476
 2203 01b8 0133     		adds	r3, r3, #1
 2204              	.LVL149:
 2205              	.LBB1036:
 2206              	.LBB1028:
 2207              	.LBB1023:
 2208              	.LBB1018:
 2209              	.LBB1014:
 359:../../libDaisy//src/dev/oled_ssd130x.h ****     }
 2210              		.loc 12 359 42 view .LVU477
 2211 01ba 09EA0000 		and	r0, r9, r0
 2212              	.LBE1014:
ARM GAS  /var/folders/1y/_321xjh9623c014x9_qw12rr0000gn/T//cc1ZQ1Ea.s 			page 77


 2213              	.LBE1018:
 2214              	.LBE1023:
 2215              	.LBE1028:
 2216              	.LBE1036:
 416:../../libDaisy//src/hid/disp/display.h ****             {
 2217              		.loc 4 416 26 view .LVU478
 2218 01be 0132     		adds	r2, r2, #1
 2219 01c0 0131     		adds	r1, r1, #1
 2220 01c2 9C42     		cmp	r4, r3
 2221              	.LBB1037:
 2222              	.LBB1029:
 2223              	.LBB1024:
 2224              	.LBB1019:
 2225              	.LBB1015:
 359:../../libDaisy//src/dev/oled_ssd130x.h ****     }
 2226              		.loc 12 359 42 view .LVU479
 2227 01c4 02F8010C 		strb	r0, [r2, #-1]
 359:../../libDaisy//src/dev/oled_ssd130x.h ****     }
 2228              		.loc 12 359 42 view .LVU480
 2229              	.LBE1015:
 2230              	.LBE1019:
 2231              	.LBE1024:
 2232              	.LBE1029:
 2233              	.LBE1037:
 416:../../libDaisy//src/hid/disp/display.h ****             {
 2234              		.loc 4 416 13 is_stmt 1 view .LVU481
 2235              	.LVL150:
 416:../../libDaisy//src/hid/disp/display.h ****             {
 2236              		.loc 4 416 26 view .LVU482
 2237 01c8 EBD1     		bne	.L164
 2238              	.LVL151:
 2239              	.L163:
 413:../../libDaisy//src/hid/disp/display.h ****         {
 2240              		.loc 4 413 9 view .LVU483
 413:../../libDaisy//src/hid/disp/display.h ****         {
 2241              		.loc 4 413 22 view .LVU484
 2242 01ca F345     		cmp	fp, lr
 2243 01cc 05F10105 		add	r5, r5, #1
 2244 01d0 C3D1     		bne	.L158
 2245 01d2 DDF814B0 		ldr	fp, [sp, #20]
 2246              	.LVL152:
 2247              	.L157:
 2248              	.LBB1038:
 2249              	.LBB1039:
 173:../../libDaisy//src/hid/disp/display.h ****         currentY_ = (y >= Height()) ? Height() - 1 : y;
 2250              		.loc 4 173 33 is_stmt 0 view .LVU485
 2251 01d6 D8F80020 		ldr	r2, [r8]
 2252              	.LBE1039:
 2253              	.LBE1038:
 434:../../libDaisy//src/hid/disp/display.h **** 
 2254              		.loc 4 434 18 view .LVU486
 2255 01da 0AEB0405 		add	r5, r10, r4
 2256 01de 0199     		ldr	r1, [sp, #4]
 2257              	.LBB1044:
 2258              	.LBB1040:
 173:../../libDaisy//src/hid/disp/display.h ****         currentY_ = (y >= Height()) ? Height() - 1 : y;
 2259              		.loc 4 173 33 view .LVU487
ARM GAS  /var/folders/1y/_321xjh9623c014x9_qw12rr0000gn/T//cc1ZQ1Ea.s 			page 78


 2260 01e0 D368     		ldr	r3, [r2, #12]
 2261              	.LBE1040:
 2262              	.LBE1044:
 434:../../libDaisy//src/hid/disp/display.h **** 
 2263              		.loc 4 434 18 view .LVU488
 2264 01e2 ADB2     		uxth	r5, r5
 2265              	.LVL153:
 2266              	.LBB1045:
 2267              	.LBI1038:
 171:../../libDaisy//src/hid/disp/display.h ****     {
 2268              		.loc 4 171 10 is_stmt 1 view .LVU489
 2269              	.LBB1041:
 173:../../libDaisy//src/hid/disp/display.h ****         currentY_ = (y >= Height()) ? Height() - 1 : y;
 2270              		.loc 4 173 9 view .LVU490
 2271 01e4 8B42     		cmp	r3, r1
 2272 01e6 40F0BD80 		bne	.L201
 173:../../libDaisy//src/hid/disp/display.h ****         currentY_ = (y >= Height()) ? Height() - 1 : y;
 2273              		.loc 4 173 33 is_stmt 0 view .LVU491
 2274 01ea 8020     		movs	r0, #128
 2275              	.L165:
 173:../../libDaisy//src/hid/disp/display.h ****         currentY_ = (y >= Height()) ? Height() - 1 : y;
 2276              		.loc 4 173 19 view .LVU492
 2277 01ec 8542     		cmp	r5, r0
 2278 01ee 05D3     		bcc	.L166
 173:../../libDaisy//src/hid/disp/display.h ****         currentY_ = (y >= Height()) ? Height() - 1 : y;
 2279              		.loc 4 173 44 view .LVU493
 2280 01f0 D368     		ldr	r3, [r2, #12]
 2281 01f2 0199     		ldr	r1, [sp, #4]
 2282 01f4 8B42     		cmp	r3, r1
 2283 01f6 40F0C380 		bne	.L202
 2284 01fa 7F25     		movs	r5, #127
 2285              	.LVL154:
 2286              	.L166:
 174:../../libDaisy//src/hid/disp/display.h ****     }
 2287              		.loc 4 174 34 view .LVU494
 2288 01fc 9368     		ldr	r3, [r2, #8]
 2289 01fe 039A     		ldr	r2, [sp, #12]
 173:../../libDaisy//src/hid/disp/display.h ****         currentY_ = (y >= Height()) ? Height() - 1 : y;
 2290              		.loc 4 173 19 view .LVU495
 2291 0200 A8F80450 		strh	r5, [r8, #4]	@ movhi
 174:../../libDaisy//src/hid/disp/display.h ****     }
 2292              		.loc 4 174 9 is_stmt 1 view .LVU496
 2293 0204 9342     		cmp	r3, r2
 2294 0206 40F0AA80 		bne	.L203
 174:../../libDaisy//src/hid/disp/display.h ****     }
 2295              		.loc 4 174 34 is_stmt 0 view .LVU497
 2296 020a 4020     		movs	r0, #64
 2297              	.L168:
 174:../../libDaisy//src/hid/disp/display.h ****     }
 2298              		.loc 4 174 19 view .LVU498
 2299 020c 029B     		ldr	r3, [sp, #8]
 2300 020e 8342     		cmp	r3, r0
 2301 0210 08D3     		bcc	.L169
 174:../../libDaisy//src/hid/disp/display.h ****     }
 2302              		.loc 4 174 46 view .LVU499
 2303 0212 D8F80030 		ldr	r3, [r8]
 2304 0216 039A     		ldr	r2, [sp, #12]
ARM GAS  /var/folders/1y/_321xjh9623c014x9_qw12rr0000gn/T//cc1ZQ1Ea.s 			page 79


 2305 0218 9B68     		ldr	r3, [r3, #8]
 2306 021a 9342     		cmp	r3, r2
 2307 021c 40F0AA80 		bne	.L204
 2308 0220 3F23     		movs	r3, #63
 2309 0222 0293     		str	r3, [sp, #8]
 2310              	.LVL155:
 2311              	.L169:
 174:../../libDaisy//src/hid/disp/display.h ****     }
 2312              		.loc 4 174 19 view .LVU500
 2313 0224 029B     		ldr	r3, [sp, #8]
 2314 0226 A8F80630 		strh	r3, [r8, #6]	@ movhi
 2315              	.LVL156:
 2316              	.L151:
 174:../../libDaisy//src/hid/disp/display.h ****     }
 2317              		.loc 4 174 19 view .LVU501
 2318              	.LBE1041:
 2319              	.LBE1045:
 2320              	.LBE1007:
 2321              	.LBE1006:
 445:../../libDaisy//src/hid/disp/display.h ****                != *str)
 2322              		.loc 4 445 13 view .LVU502
 2323 022a 009A     		ldr	r2, [sp]
 2324 022c 1378     		ldrb	r3, [r2]	@ zero_extendqisi2
 2325 022e 5B45     		cmp	r3, fp
 2326 0230 06D1     		bne	.L119
 2327              	.LVL157:
 443:../../libDaisy//src/hid/disp/display.h ****         {
 2328              		.loc 4 443 9 is_stmt 1 view .LVU503
 2329 0232 12F801BF 		ldrb	fp, [r2, #1]!	@ zero_extendqisi2
 2330              	.LVL158:
 443:../../libDaisy//src/hid/disp/display.h ****         {
 2331              		.loc 4 443 9 is_stmt 0 view .LVU504
 2332 0236 0092     		str	r2, [sp]
 2333 0238 BBF1000F 		cmp	fp, #0
 2334 023c 7FF454AF 		bne	.L149
 2335              	.LVL159:
 2336              	.L119:
 443:../../libDaisy//src/hid/disp/display.h ****         {
 2337              		.loc 4 443 9 view .LVU505
 2338              	.LBE1051:
 2339              	.LBE1054:
 471:../../libDaisy//src/hid/disp/display.h **** 
 2340              		.loc 4 471 5 view .LVU506
 2341 0240 0698     		ldr	r0, [sp, #24]
 2342 0242 09B0     		add	sp, sp, #36
 2343              		.cfi_remember_state
 2344              		.cfi_def_cfa_offset 36
 2345              		@ sp needed
 2346 0244 BDE8F08F 		pop	{r4, r5, r6, r7, r8, r9, r10, fp, pc}
 2347              	.LVL160:
 2348              	.L132:
 2349              		.cfi_restore_state
 2350              	.LBB1055:
 2351              	.LBB977:
 250:../../libDaisy//src/hid/disp/graphics_common.h ****                 return {int16_t(x_ + (other.GetCenterX() - GetCenterX())),
 2352              		.loc 14 250 13 is_stmt 1 view .LVU507
 251:../../libDaisy//src/hid/disp/graphics_common.h ****                         int16_t(y_ + (other.GetCenterY() - GetCenterY())),
ARM GAS  /var/folders/1y/_321xjh9623c014x9_qw12rr0000gn/T//cc1ZQ1Ea.s 			page 80


 2353              		.loc 14 251 17 view .LVU508
 2354              	.LBB811:
 2355              	.LBI811:
  62:../../libDaisy//src/hid/disp/graphics_common.h ****     int16_t GetCenterY() const { return y_ + height_ / 2; }
 2356              		.loc 14 62 13 view .LVU509
 2357              	.LBB812:
  62:../../libDaisy//src/hid/disp/graphics_common.h ****     int16_t GetCenterY() const { return y_ + height_ / 2; }
 2358              		.loc 14 62 34 view .LVU510
  62:../../libDaisy//src/hid/disp/graphics_common.h ****     int16_t GetCenterY() const { return y_ + height_ / 2; }
 2359              		.loc 14 62 34 is_stmt 0 view .LVU511
 2360              	.LBE812:
 2361              	.LBE811:
 2362              	.LBB814:
 2363              	.LBI814:
  62:../../libDaisy//src/hid/disp/graphics_common.h ****     int16_t GetCenterY() const { return y_ + height_ / 2; }
 2364              		.loc 14 62 13 is_stmt 1 view .LVU512
 2365              	.LBB815:
  62:../../libDaisy//src/hid/disp/graphics_common.h ****     int16_t GetCenterY() const { return y_ + height_ / 2; }
 2366              		.loc 14 62 34 view .LVU513
  62:../../libDaisy//src/hid/disp/graphics_common.h ****     int16_t GetCenterY() const { return y_ + height_ / 2; }
 2367              		.loc 14 62 34 is_stmt 0 view .LVU514
 2368              	.LBE815:
 2369              	.LBE814:
 2370              	.LBB816:
 2371              	.LBB813:
  62:../../libDaisy//src/hid/disp/graphics_common.h ****     int16_t GetCenterY() const { return y_ + height_ / 2; }
 2372              		.loc 14 62 53 view .LVU515
 2373 0248 B4F90410 		ldrsh	r1, [r4, #4]
 2374              	.LVL161:
  62:../../libDaisy//src/hid/disp/graphics_common.h ****     int16_t GetCenterY() const { return y_ + height_ / 2; }
 2375              		.loc 14 62 44 view .LVU516
 2376 024c 2788     		ldrh	r7, [r4]
  62:../../libDaisy//src/hid/disp/graphics_common.h ****     int16_t GetCenterY() const { return y_ + height_ / 2; }
 2377              		.loc 14 62 53 view .LVU517
 2378 024e 0029     		cmp	r1, #0
 2379 0250 B8BF     		it	lt
 2380 0252 0131     		addlt	r1, r1, #1
  62:../../libDaisy//src/hid/disp/graphics_common.h ****     int16_t GetCenterY() const { return y_ + height_ / 2; }
 2381              		.loc 14 62 44 view .LVU518
 2382 0254 07EB6107 		add	r7, r7, r1, asr #1
 2383              	.LBE813:
 2384              	.LBE816:
 2385              	.LBB817:
 2386              	.LBB789:
  63:../../libDaisy//src/hid/disp/graphics_common.h **** 
 2387              		.loc 14 63 54 view .LVU519
 2388 0258 B4F90610 		ldrsh	r1, [r4, #6]
 2389              	.LBE789:
 2390              	.LBE817:
 251:../../libDaisy//src/hid/disp/graphics_common.h ****                         int16_t(y_ + (other.GetCenterY() - GetCenterY())),
 2391              		.loc 14 251 58 view .LVU520
 2392 025c A7EB6307 		sub	r7, r7, r3, asr #1
 2393              	.LBB818:
 2394              	.LBB790:
  63:../../libDaisy//src/hid/disp/graphics_common.h **** 
 2395              		.loc 14 63 54 view .LVU521
 2396 0260 0029     		cmp	r1, #0
ARM GAS  /var/folders/1y/_321xjh9623c014x9_qw12rr0000gn/T//cc1ZQ1Ea.s 			page 81


 2397              	.LBE790:
 2398              	.LBE818:
 251:../../libDaisy//src/hid/disp/graphics_common.h ****                         int16_t(y_ + (other.GetCenterY() - GetCenterY())),
 2399              		.loc 14 251 58 view .LVU522
 2400 0262 BFB2     		uxth	r7, r7
 2401              	.LVL162:
 2402              	.LBB819:
 2403              	.LBI786:
  63:../../libDaisy//src/hid/disp/graphics_common.h **** 
 2404              		.loc 14 63 13 is_stmt 1 view .LVU523
 2405              	.LBB791:
  63:../../libDaisy//src/hid/disp/graphics_common.h **** 
 2406              		.loc 14 63 34 view .LVU524
  63:../../libDaisy//src/hid/disp/graphics_common.h **** 
 2407              		.loc 14 63 34 is_stmt 0 view .LVU525
 2408              	.LBE791:
 2409              	.LBE819:
 2410              	.LBB820:
 2411              	.LBI820:
  63:../../libDaisy//src/hid/disp/graphics_common.h **** 
 2412              		.loc 14 63 13 is_stmt 1 view .LVU526
 2413              	.LBB821:
  63:../../libDaisy//src/hid/disp/graphics_common.h **** 
 2414              		.loc 14 63 34 view .LVU527
  63:../../libDaisy//src/hid/disp/graphics_common.h **** 
 2415              		.loc 14 63 34 is_stmt 0 view .LVU528
 2416              	.LBE821:
 2417              	.LBE820:
 2418              	.LBB822:
 2419              	.LBB792:
  63:../../libDaisy//src/hid/disp/graphics_common.h **** 
 2420              		.loc 14 63 54 view .LVU529
 2421 0264 BFF602AF 		bge	.L139
 2422              	.L195:
  63:../../libDaisy//src/hid/disp/graphics_common.h **** 
 2423              		.loc 14 63 54 view .LVU530
 2424 0268 0131     		adds	r1, r1, #1
 2425 026a FFE6     		b	.L139
 2426              	.LVL163:
 2427              	.L131:
  63:../../libDaisy//src/hid/disp/graphics_common.h **** 
 2428              		.loc 14 63 54 view .LVU531
 2429              	.LBE792:
 2430              	.LBE822:
 213:../../libDaisy//src/hid/disp/graphics_common.h ****                 return {other.x_, other.y_, width_, height_};
 2431              		.loc 14 213 13 is_stmt 1 view .LVU532
 214:../../libDaisy//src/hid/disp/graphics_common.h ****             case Alignment::topRight:
 2432              		.loc 14 214 17 view .LVU533
 214:../../libDaisy//src/hid/disp/graphics_common.h ****             case Alignment::topRight:
 2433              		.loc 14 214 31 is_stmt 0 view .LVU534
 2434 026c B4F90070 		ldrsh	r7, [r4]
 2435              	.LBB823:
 2436              	.LBB824:
 2437              	.LBB825:
  32:../../libDaisy//src/hid/disp/graphics_common.h ****     {
 2438              		.loc 14 32 66 view .LVU535
 2439 0270 0699     		ldr	r1, [sp, #24]
ARM GAS  /var/folders/1y/_321xjh9623c014x9_qw12rr0000gn/T//cc1ZQ1Ea.s 			page 82


 2440              	.LVL164:
  32:../../libDaisy//src/hid/disp/graphics_common.h ****     {
 2441              		.loc 14 32 66 view .LVU536
 2442              	.LBE825:
 2443              	.LBE824:
 2444              	.LBE823:
 214:../../libDaisy//src/hid/disp/graphics_common.h ****             case Alignment::topRight:
 2445              		.loc 14 214 41 view .LVU537
 2446 0272 B4F90240 		ldrsh	r4, [r4, #2]
 2447              	.LVL165:
 2448              	.LBB838:
 2449              	.LBI823:
  31:../../libDaisy//src/hid/disp/graphics_common.h ****     : x_(x), y_(y), width_(max(0, width)), height_(max(0, height))
 2450              		.loc 14 31 5 is_stmt 1 view .LVU538
 2451              	.LBB833:
 2452              	.LBB828:
  32:../../libDaisy//src/hid/disp/graphics_common.h ****     {
 2453              		.loc 14 32 66 is_stmt 0 view .LVU539
 2454 0276 0F80     		strh	r7, [r1]	@ movhi
 2455              	.LBE828:
 2456              	.LBE833:
 2457              	.LBE838:
 2458              	.LBE977:
 2459              	.LBE1055:
 468:../../libDaisy//src/hid/disp/display.h ****         ((ChildType*)(this))->ChildType::WriteString(str, font, on);
 2460              		.loc 4 468 18 view .LVU540
 2461 0278 BFB2     		uxth	r7, r7
 2462              	.LVL166:
 2463              	.LBB1056:
 2464              	.LBB978:
 2465              	.LBB839:
 2466              	.LBB834:
 2467              	.LBB829:
  32:../../libDaisy//src/hid/disp/graphics_common.h ****     {
 2468              		.loc 14 32 66 view .LVU541
 2469 027a 4C80     		strh	r4, [r1, #2]	@ movhi
 2470              	.LBE829:
 2471              	.LBE834:
 2472              	.LBE839:
 2473              	.LBE978:
 2474              	.LBE1056:
 468:../../libDaisy//src/hid/disp/display.h ****         ((ChildType*)(this))->ChildType::WriteString(str, font, on);
 2475              		.loc 4 468 18 view .LVU542
 2476 027c A4B2     		uxth	r4, r4
 2477              	.LVL167:
 2478              	.LBB1057:
 2479              	.LBB979:
 2480              	.LBB840:
 2481              	.LBB835:
 2482              	.LBB830:
  32:../../libDaisy//src/hid/disp/graphics_common.h ****     {
 2483              		.loc 14 32 66 view .LVU543
 2484 027e 8B80     		strh	r3, [r1, #4]	@ movhi
 2485              	.LVL168:
 2486              	.LBB826:
 2487              	.LBI826:
 2488              		.loc 14 261 13 is_stmt 1 view .LVU544
ARM GAS  /var/folders/1y/_321xjh9623c014x9_qw12rr0000gn/T//cc1ZQ1Ea.s 			page 83


 2489              	.LBE826:
 2490              	.LBE830:
 2491              	.LBE835:
 2492              	.LBE840:
 2493              	.LBE979:
 2494              	.LBE1057:
 2495              		.loc 14 261 41 view .LVU545
 2496              	.LBB1058:
 2497              	.LBB980:
 2498              	.LBB841:
 2499              	.LBB836:
 2500              	.LBB831:
 2501              	.LBB827:
 2502              	.LBI827:
 2503              		.loc 14 261 13 view .LVU546
 2504              	.LBE827:
 2505              	.LBE831:
 2506              	.LBE836:
 2507              	.LBE841:
 2508              	.LBE980:
 2509              	.LBE1058:
 2510              		.loc 14 261 41 view .LVU547
 2511              	.LBB1059:
 2512              	.LBB981:
 2513              	.LBB842:
 2514              	.LBB837:
 2515              	.LBB832:
  32:../../libDaisy//src/hid/disp/graphics_common.h ****     {
 2516              		.loc 14 32 66 is_stmt 0 view .LVU548
 2517 0280 CA80     		strh	r2, [r1, #6]	@ movhi
 2518              	.LBE832:
  34:../../libDaisy//src/hid/disp/graphics_common.h **** 
 2519              		.loc 14 34 5 view .LVU549
 2520 0282 FEE6     		b	.L133
 2521              	.LVL169:
 2522              	.L130:
  34:../../libDaisy//src/hid/disp/graphics_common.h **** 
 2523              		.loc 14 34 5 view .LVU550
 2524              	.LBE837:
 2525              	.LBE842:
 220:../../libDaisy//src/hid/disp/graphics_common.h ****                 return {int16_t(x_ + (other.GetCenterX() - GetCenterX())),
 2526              		.loc 14 220 13 is_stmt 1 view .LVU551
 221:../../libDaisy//src/hid/disp/graphics_common.h ****                         other.y_,
 2527              		.loc 14 221 17 view .LVU552
 2528              	.LBB843:
 2529              	.LBI843:
  62:../../libDaisy//src/hid/disp/graphics_common.h ****     int16_t GetCenterY() const { return y_ + height_ / 2; }
 2530              		.loc 14 62 13 view .LVU553
 2531              	.LBB844:
  62:../../libDaisy//src/hid/disp/graphics_common.h ****     int16_t GetCenterY() const { return y_ + height_ / 2; }
 2532              		.loc 14 62 34 view .LVU554
  62:../../libDaisy//src/hid/disp/graphics_common.h ****     int16_t GetCenterY() const { return y_ + height_ / 2; }
 2533              		.loc 14 62 34 is_stmt 0 view .LVU555
 2534              	.LBE844:
 2535              	.LBE843:
 2536              	.LBB847:
 2537              	.LBI847:
ARM GAS  /var/folders/1y/_321xjh9623c014x9_qw12rr0000gn/T//cc1ZQ1Ea.s 			page 84


  62:../../libDaisy//src/hid/disp/graphics_common.h ****     int16_t GetCenterY() const { return y_ + height_ / 2; }
 2538              		.loc 14 62 13 is_stmt 1 view .LVU556
 2539              	.LBB848:
  62:../../libDaisy//src/hid/disp/graphics_common.h ****     int16_t GetCenterY() const { return y_ + height_ / 2; }
 2540              		.loc 14 62 34 view .LVU557
  62:../../libDaisy//src/hid/disp/graphics_common.h ****     int16_t GetCenterY() const { return y_ + height_ / 2; }
 2541              		.loc 14 62 34 is_stmt 0 view .LVU558
 2542              	.LBE848:
 2543              	.LBE847:
 2544              	.LBB849:
 2545              	.LBB845:
  62:../../libDaisy//src/hid/disp/graphics_common.h ****     int16_t GetCenterY() const { return y_ + height_ / 2; }
 2546              		.loc 14 62 53 view .LVU559
 2547 0284 B4F90410 		ldrsh	r1, [r4, #4]
 2548              	.LVL170:
  62:../../libDaisy//src/hid/disp/graphics_common.h ****     int16_t GetCenterY() const { return y_ + height_ / 2; }
 2549              		.loc 14 62 44 view .LVU560
 2550 0288 2788     		ldrh	r7, [r4]
  62:../../libDaisy//src/hid/disp/graphics_common.h ****     int16_t GetCenterY() const { return y_ + height_ / 2; }
 2551              		.loc 14 62 53 view .LVU561
 2552 028a 0029     		cmp	r1, #0
 2553              	.LBE845:
 2554              	.LBE849:
 222:../../libDaisy//src/hid/disp/graphics_common.h ****                         width_,
 2555              		.loc 14 222 31 view .LVU562
 2556 028c B4F90240 		ldrsh	r4, [r4, #2]
 2557              	.LVL171:
 2558              	.LBB850:
 2559              	.LBB846:
  62:../../libDaisy//src/hid/disp/graphics_common.h ****     int16_t GetCenterY() const { return y_ + height_ / 2; }
 2560              		.loc 14 62 53 view .LVU563
 2561 0290 B8BF     		it	lt
 2562 0292 0131     		addlt	r1, r1, #1
  62:../../libDaisy//src/hid/disp/graphics_common.h ****     int16_t GetCenterY() const { return y_ + height_ / 2; }
 2563              		.loc 14 62 44 view .LVU564
 2564 0294 07EB6107 		add	r7, r7, r1, asr #1
 2565              	.LBE846:
 2566              	.LBE850:
 2567              	.LBB851:
 2568              	.LBB852:
 2569              	.LBB853:
  32:../../libDaisy//src/hid/disp/graphics_common.h ****     {
 2570              		.loc 14 32 66 view .LVU565
 2571 0298 0699     		ldr	r1, [sp, #24]
 2572 029a 8B80     		strh	r3, [r1, #4]	@ movhi
 2573              	.LBE853:
 2574              	.LBE852:
 2575              	.LBE851:
 221:../../libDaisy//src/hid/disp/graphics_common.h ****                         other.y_,
 2576              		.loc 14 221 58 view .LVU566
 2577 029c A7EB6303 		sub	r3, r7, r3, asr #1
 2578              	.LBB864:
 2579              	.LBB860:
 2580              	.LBB856:
  32:../../libDaisy//src/hid/disp/graphics_common.h ****     {
 2581              		.loc 14 32 66 view .LVU567
 2582 02a0 4C80     		strh	r4, [r1, #2]	@ movhi
ARM GAS  /var/folders/1y/_321xjh9623c014x9_qw12rr0000gn/T//cc1ZQ1Ea.s 			page 85


 2583              	.LBE856:
 2584              	.LBE860:
 2585              	.LBE864:
 2586              	.LBE981:
 2587              	.LBE1059:
 468:../../libDaisy//src/hid/disp/display.h ****         ((ChildType*)(this))->ChildType::WriteString(str, font, on);
 2588              		.loc 4 468 18 view .LVU568
 2589 02a2 A4B2     		uxth	r4, r4
 2590              	.LBB1060:
 2591              	.LBB982:
 221:../../libDaisy//src/hid/disp/graphics_common.h ****                         other.y_,
 2592              		.loc 14 221 58 view .LVU569
 2593 02a4 9FB2     		uxth	r7, r3
 2594              	.LVL172:
 2595              	.LBB865:
 2596              	.LBI851:
  31:../../libDaisy//src/hid/disp/graphics_common.h ****     : x_(x), y_(y), width_(max(0, width)), height_(max(0, height))
 2597              		.loc 14 31 5 is_stmt 1 view .LVU570
 2598              	.LBB861:
 2599              	.LBB857:
 2600              	.LBB854:
 2601              	.LBI854:
 2602              		.loc 14 261 13 view .LVU571
 2603              	.LBE854:
 2604              	.LBE857:
 2605              	.LBE861:
 2606              	.LBE865:
 2607              	.LBE982:
 2608              	.LBE1060:
 2609              		.loc 14 261 41 view .LVU572
 2610              	.LBB1061:
 2611              	.LBB983:
 2612              	.LBB866:
 2613              	.LBB862:
 2614              	.LBB858:
 2615              	.LBB855:
 2616              	.LBI855:
 2617              		.loc 14 261 13 view .LVU573
 2618              	.LBE855:
 2619              	.LBE858:
 2620              	.LBE862:
 2621              	.LBE866:
 2622              	.LBE983:
 2623              	.LBE1061:
 2624              		.loc 14 261 41 view .LVU574
 2625              	.LBB1062:
 2626              	.LBB984:
 2627              	.LBB867:
 2628              	.LBB863:
 2629              	.LBB859:
  32:../../libDaisy//src/hid/disp/graphics_common.h ****     {
 2630              		.loc 14 32 66 is_stmt 0 view .LVU575
 2631 02a6 CA80     		strh	r2, [r1, #6]	@ movhi
 2632 02a8 0F80     		strh	r7, [r1]	@ movhi
 2633              	.LBE859:
  34:../../libDaisy//src/hid/disp/graphics_common.h **** 
 2634              		.loc 14 34 5 view .LVU576
ARM GAS  /var/folders/1y/_321xjh9623c014x9_qw12rr0000gn/T//cc1ZQ1Ea.s 			page 86


 2635 02aa EAE6     		b	.L133
 2636              	.LVL173:
 2637              	.L129:
  34:../../libDaisy//src/hid/disp/graphics_common.h **** 
 2638              		.loc 14 34 5 view .LVU577
 2639              	.LBE863:
 2640              	.LBE867:
 215:../../libDaisy//src/hid/disp/graphics_common.h ****                 return {int16_t(other.GetRight() - width_),
 2641              		.loc 14 215 13 is_stmt 1 view .LVU578
 216:../../libDaisy//src/hid/disp/graphics_common.h ****                         other.y_,
 2642              		.loc 14 216 17 view .LVU579
 2643              	.LBB868:
 2644              	.LBI868:
  60:../../libDaisy//src/hid/disp/graphics_common.h ****     int16_t GetBottom() const { return y_ + height_; }
 2645              		.loc 14 60 13 view .LVU580
 2646              	.LBB869:
  60:../../libDaisy//src/hid/disp/graphics_common.h ****     int16_t GetBottom() const { return y_ + height_; }
 2647              		.loc 14 60 32 view .LVU581
  60:../../libDaisy//src/hid/disp/graphics_common.h ****     int16_t GetBottom() const { return y_ + height_; }
 2648              		.loc 14 60 42 is_stmt 0 view .LVU582
 2649 02ac A188     		ldrh	r1, [r4, #4]
 2650              	.LVL174:
  60:../../libDaisy//src/hid/disp/graphics_common.h ****     int16_t GetBottom() const { return y_ + height_; }
 2651              		.loc 14 60 42 view .LVU583
 2652 02ae 2788     		ldrh	r7, [r4]
 2653              	.LBE869:
 2654              	.LBE868:
 217:../../libDaisy//src/hid/disp/graphics_common.h ****                         width_,
 2655              		.loc 14 217 31 view .LVU584
 2656 02b0 B4F90240 		ldrsh	r4, [r4, #2]
 2657              	.LVL175:
 2658              	.LBB871:
 2659              	.LBB870:
  60:../../libDaisy//src/hid/disp/graphics_common.h ****     int16_t GetBottom() const { return y_ + height_; }
 2660              		.loc 14 60 42 view .LVU585
 2661 02b4 0F44     		add	r7, r7, r1
 2662              	.LBE870:
 2663              	.LBE871:
 2664              	.LBB872:
 2665              	.LBB873:
 2666              	.LBB874:
  32:../../libDaisy//src/hid/disp/graphics_common.h ****     {
 2667              		.loc 14 32 66 view .LVU586
 2668 02b6 0699     		ldr	r1, [sp, #24]
 2669 02b8 8B80     		strh	r3, [r1, #4]	@ movhi
 2670              	.LBE874:
 2671              	.LBE873:
 2672              	.LBE872:
 216:../../libDaisy//src/hid/disp/graphics_common.h ****                         other.y_,
 2673              		.loc 14 216 50 view .LVU587
 2674 02ba FB1A     		subs	r3, r7, r3
 2675              	.LBB885:
 2676              	.LBB881:
 2677              	.LBB877:
  32:../../libDaisy//src/hid/disp/graphics_common.h ****     {
 2678              		.loc 14 32 66 view .LVU588
 2679 02bc 4C80     		strh	r4, [r1, #2]	@ movhi
ARM GAS  /var/folders/1y/_321xjh9623c014x9_qw12rr0000gn/T//cc1ZQ1Ea.s 			page 87


 2680              	.LBE877:
 2681              	.LBE881:
 2682              	.LBE885:
 2683              	.LBE984:
 2684              	.LBE1062:
 468:../../libDaisy//src/hid/disp/display.h ****         ((ChildType*)(this))->ChildType::WriteString(str, font, on);
 2685              		.loc 4 468 18 view .LVU589
 2686 02be A4B2     		uxth	r4, r4
 2687              	.LBB1063:
 2688              	.LBB985:
 216:../../libDaisy//src/hid/disp/graphics_common.h ****                         other.y_,
 2689              		.loc 14 216 50 view .LVU590
 2690 02c0 9FB2     		uxth	r7, r3
 2691              	.LVL176:
 2692              	.LBB886:
 2693              	.LBI872:
  31:../../libDaisy//src/hid/disp/graphics_common.h ****     : x_(x), y_(y), width_(max(0, width)), height_(max(0, height))
 2694              		.loc 14 31 5 is_stmt 1 view .LVU591
 2695              	.LBB882:
 2696              	.LBB878:
 2697              	.LBB875:
 2698              	.LBI875:
 2699              		.loc 14 261 13 view .LVU592
 2700              	.LBE875:
 2701              	.LBE878:
 2702              	.LBE882:
 2703              	.LBE886:
 2704              	.LBE985:
 2705              	.LBE1063:
 2706              		.loc 14 261 41 view .LVU593
 2707              	.LBB1064:
 2708              	.LBB986:
 2709              	.LBB887:
 2710              	.LBB883:
 2711              	.LBB879:
 2712              	.LBB876:
 2713              	.LBI876:
 2714              		.loc 14 261 13 view .LVU594
 2715              	.LBE876:
 2716              	.LBE879:
 2717              	.LBE883:
 2718              	.LBE887:
 2719              	.LBE986:
 2720              	.LBE1064:
 2721              		.loc 14 261 41 view .LVU595
 2722              	.LBB1065:
 2723              	.LBB987:
 2724              	.LBB888:
 2725              	.LBB884:
 2726              	.LBB880:
  32:../../libDaisy//src/hid/disp/graphics_common.h ****     {
 2727              		.loc 14 32 66 is_stmt 0 view .LVU596
 2728 02c2 CA80     		strh	r2, [r1, #6]	@ movhi
 2729 02c4 0F80     		strh	r7, [r1]	@ movhi
 2730              	.LBE880:
  34:../../libDaisy//src/hid/disp/graphics_common.h **** 
 2731              		.loc 14 34 5 view .LVU597
ARM GAS  /var/folders/1y/_321xjh9623c014x9_qw12rr0000gn/T//cc1ZQ1Ea.s 			page 88


 2732 02c6 DCE6     		b	.L133
 2733              	.LVL177:
 2734              	.L128:
  34:../../libDaisy//src/hid/disp/graphics_common.h **** 
 2735              		.loc 14 34 5 view .LVU598
 2736              	.LBE884:
 2737              	.LBE888:
 225:../../libDaisy//src/hid/disp/graphics_common.h ****                 return {other.x_,
 2738              		.loc 14 225 13 is_stmt 1 view .LVU599
 226:../../libDaisy//src/hid/disp/graphics_common.h ****                         int16_t(other.GetBottom() - height_),
 2739              		.loc 14 226 17 view .LVU600
 2740              	.LBB889:
 2741              	.LBB890:
  61:../../libDaisy//src/hid/disp/graphics_common.h ****     int16_t GetCenterX() const { return x_ + width_ / 2; }
 2742              		.loc 14 61 43 is_stmt 0 view .LVU601
 2743 02c8 E788     		ldrh	r7, [r4, #6]
 2744 02ca 6188     		ldrh	r1, [r4, #2]
 2745              	.LVL178:
  61:../../libDaisy//src/hid/disp/graphics_common.h ****     int16_t GetCenterX() const { return x_ + width_ / 2; }
 2746              		.loc 14 61 43 view .LVU602
 2747 02cc 3944     		add	r1, r1, r7
 2748              	.LBE890:
 2749              	.LBE889:
 226:../../libDaisy//src/hid/disp/graphics_common.h ****                         int16_t(other.GetBottom() - height_),
 2750              		.loc 14 226 31 view .LVU603
 2751 02ce B4F90070 		ldrsh	r7, [r4]
 227:../../libDaisy//src/hid/disp/graphics_common.h ****                         width_,
 2752              		.loc 14 227 51 view .LVU604
 2753 02d2 081A     		subs	r0, r1, r0
 2754              	.LVL179:
 2755              	.LBB892:
 2756              	.LBI889:
  61:../../libDaisy//src/hid/disp/graphics_common.h ****     int16_t GetCenterX() const { return x_ + width_ / 2; }
 2757              		.loc 14 61 13 is_stmt 1 view .LVU605
 2758              	.LBB891:
  61:../../libDaisy//src/hid/disp/graphics_common.h ****     int16_t GetCenterX() const { return x_ + width_ / 2; }
 2759              		.loc 14 61 33 view .LVU606
  61:../../libDaisy//src/hid/disp/graphics_common.h ****     int16_t GetCenterX() const { return x_ + width_ / 2; }
 2760              		.loc 14 61 33 is_stmt 0 view .LVU607
 2761              	.LBE891:
 2762              	.LBE892:
 2763              	.LBB893:
 2764              	.LBB894:
 2765              	.LBB895:
  32:../../libDaisy//src/hid/disp/graphics_common.h ****     {
 2766              		.loc 14 32 66 view .LVU608
 2767 02d4 0699     		ldr	r1, [sp, #24]
 2768              	.LBE895:
 2769              	.LBE894:
 2770              	.LBE893:
 227:../../libDaisy//src/hid/disp/graphics_common.h ****                         width_,
 2771              		.loc 14 227 51 view .LVU609
 2772 02d6 84B2     		uxth	r4, r0
 2773              	.LVL180:
 2774              	.LBB905:
 2775              	.LBB901:
 2776              	.LBB898:
ARM GAS  /var/folders/1y/_321xjh9623c014x9_qw12rr0000gn/T//cc1ZQ1Ea.s 			page 89


  32:../../libDaisy//src/hid/disp/graphics_common.h ****     {
 2777              		.loc 14 32 66 view .LVU610
 2778 02d8 0F80     		strh	r7, [r1]	@ movhi
 2779 02da 8B80     		strh	r3, [r1, #4]	@ movhi
 2780              	.LVL181:
  32:../../libDaisy//src/hid/disp/graphics_common.h ****     {
 2781              		.loc 14 32 66 view .LVU611
 2782              	.LBE898:
 2783              	.LBE901:
 2784              	.LBI893:
  31:../../libDaisy//src/hid/disp/graphics_common.h ****     : x_(x), y_(y), width_(max(0, width)), height_(max(0, height))
 2785              		.loc 14 31 5 is_stmt 1 view .LVU612
 2786              	.LBE905:
 2787              	.LBE987:
 2788              	.LBE1065:
 468:../../libDaisy//src/hid/disp/display.h ****         ((ChildType*)(this))->ChildType::WriteString(str, font, on);
 2789              		.loc 4 468 18 is_stmt 0 view .LVU613
 2790 02dc BFB2     		uxth	r7, r7
 2791              	.LVL182:
 2792              	.LBB1066:
 2793              	.LBB988:
 2794              	.LBB906:
 2795              	.LBB902:
 2796              	.LBB899:
  32:../../libDaisy//src/hid/disp/graphics_common.h ****     {
 2797              		.loc 14 32 66 view .LVU614
 2798 02de CA80     		strh	r2, [r1, #6]	@ movhi
 2799 02e0 4C80     		strh	r4, [r1, #2]	@ movhi
 2800              	.LVL183:
 2801              	.LBB896:
 2802              	.LBI896:
 2803              		.loc 14 261 13 is_stmt 1 view .LVU615
 2804              	.LBE896:
 2805              	.LBE899:
 2806              	.LBE902:
 2807              	.LBE906:
 2808              	.LBE988:
 2809              	.LBE1066:
 2810              		.loc 14 261 41 view .LVU616
 2811              	.LBB1067:
 2812              	.LBB989:
 2813              	.LBB907:
 2814              	.LBB903:
 2815              	.LBB900:
 2816              	.LBB897:
 2817              	.LBI897:
 2818              		.loc 14 261 13 view .LVU617
 2819              	.LBE897:
 2820              	.LBE900:
 2821              	.LBE903:
 2822              	.LBE907:
 2823              	.LBE989:
 2824              	.LBE1067:
 2825              		.loc 14 261 41 view .LVU618
 2826              	.LBB1068:
 2827              	.LBB990:
 2828              	.LBB908:
ARM GAS  /var/folders/1y/_321xjh9623c014x9_qw12rr0000gn/T//cc1ZQ1Ea.s 			page 90


 2829              	.LBB904:
  34:../../libDaisy//src/hid/disp/graphics_common.h **** 
 2830              		.loc 14 34 5 is_stmt 0 view .LVU619
 2831 02e2 CEE6     		b	.L133
 2832              	.LVL184:
 2833              	.L127:
  34:../../libDaisy//src/hid/disp/graphics_common.h **** 
 2834              		.loc 14 34 5 view .LVU620
 2835              	.LBE904:
 2836              	.LBE908:
 235:../../libDaisy//src/hid/disp/graphics_common.h ****                 return {int16_t(x_ + (other.GetCenterX() - GetCenterX())),
 2837              		.loc 14 235 13 is_stmt 1 view .LVU621
 236:../../libDaisy//src/hid/disp/graphics_common.h ****                         int16_t(other.GetBottom() - height_),
 2838              		.loc 14 236 17 view .LVU622
 2839              	.LBB909:
 2840              	.LBI909:
  62:../../libDaisy//src/hid/disp/graphics_common.h ****     int16_t GetCenterY() const { return y_ + height_ / 2; }
 2841              		.loc 14 62 13 view .LVU623
 2842              	.LBB910:
  62:../../libDaisy//src/hid/disp/graphics_common.h ****     int16_t GetCenterY() const { return y_ + height_ / 2; }
 2843              		.loc 14 62 34 view .LVU624
  62:../../libDaisy//src/hid/disp/graphics_common.h ****     int16_t GetCenterY() const { return y_ + height_ / 2; }
 2844              		.loc 14 62 34 is_stmt 0 view .LVU625
 2845              	.LBE910:
 2846              	.LBE909:
 2847              	.LBB912:
 2848              	.LBI912:
  62:../../libDaisy//src/hid/disp/graphics_common.h ****     int16_t GetCenterY() const { return y_ + height_ / 2; }
 2849              		.loc 14 62 13 is_stmt 1 view .LVU626
 2850              	.LBB913:
  62:../../libDaisy//src/hid/disp/graphics_common.h ****     int16_t GetCenterY() const { return y_ + height_ / 2; }
 2851              		.loc 14 62 34 view .LVU627
  62:../../libDaisy//src/hid/disp/graphics_common.h ****     int16_t GetCenterY() const { return y_ + height_ / 2; }
 2852              		.loc 14 62 34 is_stmt 0 view .LVU628
 2853              	.LBE913:
 2854              	.LBE912:
 2855              	.LBB914:
 2856              	.LBB911:
  62:../../libDaisy//src/hid/disp/graphics_common.h ****     int16_t GetCenterY() const { return y_ + height_ / 2; }
 2857              		.loc 14 62 53 view .LVU629
 2858 02e4 B4F90410 		ldrsh	r1, [r4, #4]
 2859              	.LVL185:
  62:../../libDaisy//src/hid/disp/graphics_common.h ****     int16_t GetCenterY() const { return y_ + height_ / 2; }
 2860              		.loc 14 62 44 view .LVU630
 2861 02e8 2788     		ldrh	r7, [r4]
  62:../../libDaisy//src/hid/disp/graphics_common.h ****     int16_t GetCenterY() const { return y_ + height_ / 2; }
 2862              		.loc 14 62 53 view .LVU631
 2863 02ea 0029     		cmp	r1, #0
 2864 02ec B8BF     		it	lt
 2865 02ee 0131     		addlt	r1, r1, #1
  62:../../libDaisy//src/hid/disp/graphics_common.h ****     int16_t GetCenterY() const { return y_ + height_ / 2; }
 2866              		.loc 14 62 44 view .LVU632
 2867 02f0 07EB6107 		add	r7, r7, r1, asr #1
 2868              	.LBE911:
 2869              	.LBE914:
 236:../../libDaisy//src/hid/disp/graphics_common.h ****                         int16_t(other.GetBottom() - height_),
 2870              		.loc 14 236 58 view .LVU633
ARM GAS  /var/folders/1y/_321xjh9623c014x9_qw12rr0000gn/T//cc1ZQ1Ea.s 			page 91


 2871 02f4 A7EB6307 		sub	r7, r7, r3, asr #1
 2872              	.L193:
 2873              	.LBB915:
 2874              	.LBB916:
  61:../../libDaisy//src/hid/disp/graphics_common.h ****     int16_t GetCenterX() const { return x_ + width_ / 2; }
 2875              		.loc 14 61 43 view .LVU634
 2876 02f8 B4F802C0 		ldrh	ip, [r4, #2]
 2877              	.LBE916:
 2878              	.LBE915:
 236:../../libDaisy//src/hid/disp/graphics_common.h ****                         int16_t(other.GetBottom() - height_),
 2879              		.loc 14 236 58 view .LVU635
 2880 02fc BFB2     		uxth	r7, r7
 2881              	.LVL186:
 2882              	.LBB919:
 2883              	.LBI915:
  61:../../libDaisy//src/hid/disp/graphics_common.h ****     int16_t GetCenterX() const { return x_ + width_ / 2; }
 2884              		.loc 14 61 13 is_stmt 1 view .LVU636
 2885              	.LBB917:
  61:../../libDaisy//src/hid/disp/graphics_common.h ****     int16_t GetCenterX() const { return x_ + width_ / 2; }
 2886              		.loc 14 61 33 view .LVU637
  61:../../libDaisy//src/hid/disp/graphics_common.h ****     int16_t GetCenterX() const { return x_ + width_ / 2; }
 2887              		.loc 14 61 43 is_stmt 0 view .LVU638
 2888 02fe E488     		ldrh	r4, [r4, #6]
 2889              	.LVL187:
  61:../../libDaisy//src/hid/disp/graphics_common.h ****     int16_t GetCenterX() const { return x_ + width_ / 2; }
 2890              		.loc 14 61 43 view .LVU639
 2891              	.LBE917:
 2892              	.LBE919:
 2893              	.LBB920:
 2894              	.LBB921:
 2895              	.LBB922:
  32:../../libDaisy//src/hid/disp/graphics_common.h ****     {
 2896              		.loc 14 32 66 view .LVU640
 2897 0300 0699     		ldr	r1, [sp, #24]
 2898              	.LBE922:
 2899              	.LBE921:
 2900              	.LBE920:
 2901              	.LBB934:
 2902              	.LBB918:
  61:../../libDaisy//src/hid/disp/graphics_common.h ****     int16_t GetCenterX() const { return x_ + width_ / 2; }
 2903              		.loc 14 61 43 view .LVU641
 2904 0302 6444     		add	r4, r4, ip
 2905              	.LBE918:
 2906              	.LBE934:
 2907              	.LBB935:
 2908              	.LBB929:
 2909              	.LBB925:
  32:../../libDaisy//src/hid/disp/graphics_common.h ****     {
 2910              		.loc 14 32 66 view .LVU642
 2911 0304 8B80     		strh	r3, [r1, #4]	@ movhi
 2912              	.LBE925:
 2913              	.LBE929:
 2914              	.LBE935:
 237:../../libDaisy//src/hid/disp/graphics_common.h ****                         width_,
 2915              		.loc 14 237 51 view .LVU643
 2916 0306 201A     		subs	r0, r4, r0
 2917              	.LBB936:
ARM GAS  /var/folders/1y/_321xjh9623c014x9_qw12rr0000gn/T//cc1ZQ1Ea.s 			page 92


 2918              	.LBB930:
 2919              	.LBB926:
  32:../../libDaisy//src/hid/disp/graphics_common.h ****     {
 2920              		.loc 14 32 66 view .LVU644
 2921 0308 CA80     		strh	r2, [r1, #6]	@ movhi
 2922 030a 0F80     		strh	r7, [r1]	@ movhi
 2923              	.LBE926:
 2924              	.LBE930:
 2925              	.LBE936:
 237:../../libDaisy//src/hid/disp/graphics_common.h ****                         width_,
 2926              		.loc 14 237 51 view .LVU645
 2927 030c 84B2     		uxth	r4, r0
 2928              	.LVL188:
 2929              	.LBB937:
 2930              	.LBI920:
  31:../../libDaisy//src/hid/disp/graphics_common.h ****     : x_(x), y_(y), width_(max(0, width)), height_(max(0, height))
 2931              		.loc 14 31 5 is_stmt 1 view .LVU646
 2932              	.LBB931:
 2933              	.LBB927:
  32:../../libDaisy//src/hid/disp/graphics_common.h ****     {
 2934              		.loc 14 32 66 is_stmt 0 view .LVU647
 2935 030e 4C80     		strh	r4, [r1, #2]	@ movhi
 2936              	.LVL189:
 2937              	.LBB923:
 2938              	.LBI923:
 2939              		.loc 14 261 13 is_stmt 1 view .LVU648
 2940              	.LBE923:
 2941              	.LBE927:
 2942              	.LBE931:
 2943              	.LBE937:
 2944              	.LBE990:
 2945              	.LBE1068:
 2946              		.loc 14 261 41 view .LVU649
 2947              	.LBB1069:
 2948              	.LBB991:
 2949              	.LBB938:
 2950              	.LBB932:
 2951              	.LBB928:
 2952              	.LBB924:
 2953              	.LBI924:
 2954              		.loc 14 261 13 view .LVU650
 2955              	.LBE924:
 2956              	.LBE928:
 2957              	.LBE932:
 2958              	.LBE938:
 2959              	.LBE991:
 2960              	.LBE1069:
 2961              		.loc 14 261 41 view .LVU651
 2962              	.LBB1070:
 2963              	.LBB992:
 2964              	.LBB939:
 2965              	.LBB933:
  34:../../libDaisy//src/hid/disp/graphics_common.h **** 
 2966              		.loc 14 34 5 is_stmt 0 view .LVU652
 2967 0310 B7E6     		b	.L133
 2968              	.LVL190:
 2969              	.L126:
ARM GAS  /var/folders/1y/_321xjh9623c014x9_qw12rr0000gn/T//cc1ZQ1Ea.s 			page 93


  34:../../libDaisy//src/hid/disp/graphics_common.h **** 
 2970              		.loc 14 34 5 view .LVU653
 2971              	.LBE933:
 2972              	.LBE939:
 230:../../libDaisy//src/hid/disp/graphics_common.h ****                 return {int16_t(other.GetRight() - width_),
 2973              		.loc 14 230 13 is_stmt 1 view .LVU654
 231:../../libDaisy//src/hid/disp/graphics_common.h ****                         int16_t(other.GetBottom() - height_),
 2974              		.loc 14 231 17 view .LVU655
 2975              	.LBB940:
 2976              	.LBI940:
  60:../../libDaisy//src/hid/disp/graphics_common.h ****     int16_t GetBottom() const { return y_ + height_; }
 2977              		.loc 14 60 13 view .LVU656
 2978              	.LBB941:
  60:../../libDaisy//src/hid/disp/graphics_common.h ****     int16_t GetBottom() const { return y_ + height_; }
 2979              		.loc 14 60 32 view .LVU657
  60:../../libDaisy//src/hid/disp/graphics_common.h ****     int16_t GetBottom() const { return y_ + height_; }
 2980              		.loc 14 60 42 is_stmt 0 view .LVU658
 2981 0312 2788     		ldrh	r7, [r4]
 2982 0314 A188     		ldrh	r1, [r4, #4]
 2983              	.LVL191:
  60:../../libDaisy//src/hid/disp/graphics_common.h ****     int16_t GetBottom() const { return y_ + height_; }
 2984              		.loc 14 60 42 view .LVU659
 2985 0316 0F44     		add	r7, r7, r1
 2986              	.LBE941:
 2987              	.LBE940:
 231:../../libDaisy//src/hid/disp/graphics_common.h ****                         int16_t(other.GetBottom() - height_),
 2988              		.loc 14 231 50 view .LVU660
 2989 0318 FF1A     		subs	r7, r7, r3
 2990 031a EDE7     		b	.L193
 2991              	.L206:
 2992              		.align	2
 2993              	.L205:
 2994 031c 00000000 		.word	_ZNK5daisy11OledDisplayINS_13SSD130xDriverILj128ELj64ENS_24SSD130x4WireSpiTransportEEEE5Widt
 2995 0320 00000000 		.word	_ZNK5daisy11OledDisplayINS_13SSD130xDriverILj128ELj64ENS_24SSD130x4WireSpiTransportEEEE6Heig
 2996              	.LVL192:
 2997              	.L125:
 240:../../libDaisy//src/hid/disp/graphics_common.h ****                 return {other.x_,
 2998              		.loc 14 240 13 is_stmt 1 view .LVU661
 241:../../libDaisy//src/hid/disp/graphics_common.h ****                         int16_t(y_ + (other.GetCenterY() - GetCenterY())),
 2999              		.loc 14 241 17 view .LVU662
 3000              	.LBB942:
 3001              	.LBB943:
  63:../../libDaisy//src/hid/disp/graphics_common.h **** 
 3002              		.loc 14 63 54 is_stmt 0 view .LVU663
 3003 0324 B4F90610 		ldrsh	r1, [r4, #6]
 3004              	.LVL193:
  63:../../libDaisy//src/hid/disp/graphics_common.h **** 
 3005              		.loc 14 63 54 view .LVU664
 3006              	.LBE943:
 3007              	.LBE942:
 241:../../libDaisy//src/hid/disp/graphics_common.h ****                         int16_t(y_ + (other.GetCenterY() - GetCenterY())),
 3008              		.loc 14 241 31 view .LVU665
 3009 0328 B4F90070 		ldrsh	r7, [r4]
 3010              	.LVL194:
 3011              	.LBB948:
 3012              	.LBI942:
  63:../../libDaisy//src/hid/disp/graphics_common.h **** 
ARM GAS  /var/folders/1y/_321xjh9623c014x9_qw12rr0000gn/T//cc1ZQ1Ea.s 			page 94


 3013              		.loc 14 63 13 is_stmt 1 view .LVU666
 3014              	.LBB944:
  63:../../libDaisy//src/hid/disp/graphics_common.h **** 
 3015              		.loc 14 63 34 view .LVU667
  63:../../libDaisy//src/hid/disp/graphics_common.h **** 
 3016              		.loc 14 63 34 is_stmt 0 view .LVU668
 3017              	.LBE944:
 3018              	.LBE948:
 3019              	.LBB949:
 3020              	.LBI949:
  63:../../libDaisy//src/hid/disp/graphics_common.h **** 
 3021              		.loc 14 63 13 is_stmt 1 view .LVU669
 3022              	.LBB950:
  63:../../libDaisy//src/hid/disp/graphics_common.h **** 
 3023              		.loc 14 63 34 view .LVU670
  63:../../libDaisy//src/hid/disp/graphics_common.h **** 
 3024              		.loc 14 63 34 is_stmt 0 view .LVU671
 3025              	.LBE950:
 3026              	.LBE949:
 3027              	.LBB951:
 3028              	.LBB945:
  63:../../libDaisy//src/hid/disp/graphics_common.h **** 
 3029              		.loc 14 63 54 view .LVU672
 3030 032c 0029     		cmp	r1, #0
  63:../../libDaisy//src/hid/disp/graphics_common.h **** 
 3031              		.loc 14 63 44 view .LVU673
 3032 032e 6488     		ldrh	r4, [r4, #2]
 3033              	.LVL195:
  63:../../libDaisy//src/hid/disp/graphics_common.h **** 
 3034              		.loc 14 63 44 view .LVU674
 3035              	.LBE945:
 3036              	.LBE951:
 3037              	.LBB952:
 3038              	.LBB953:
 3039              	.LBB954:
  32:../../libDaisy//src/hid/disp/graphics_common.h ****     {
 3040              		.loc 14 32 66 view .LVU675
 3041 0330 0698     		ldr	r0, [sp, #24]
 3042              	.LBE954:
 3043              	.LBE953:
 3044              	.LBE952:
 3045              	.LBB966:
 3046              	.LBB946:
  63:../../libDaisy//src/hid/disp/graphics_common.h **** 
 3047              		.loc 14 63 54 view .LVU676
 3048 0332 B8BF     		it	lt
 3049 0334 0131     		addlt	r1, r1, #1
 3050              	.LBE946:
 3051              	.LBE966:
 3052              	.LBB967:
 3053              	.LBB961:
 3054              	.LBB957:
  32:../../libDaisy//src/hid/disp/graphics_common.h ****     {
 3055              		.loc 14 32 66 view .LVU677
 3056 0336 C280     		strh	r2, [r0, #6]	@ movhi
 3057              	.LBE957:
 3058              	.LBE961:
ARM GAS  /var/folders/1y/_321xjh9623c014x9_qw12rr0000gn/T//cc1ZQ1Ea.s 			page 95


 3059              	.LBE967:
 3060              	.LBB968:
 3061              	.LBB947:
  63:../../libDaisy//src/hid/disp/graphics_common.h **** 
 3062              		.loc 14 63 44 view .LVU678
 3063 0338 04EB6104 		add	r4, r4, r1, asr #1
 3064              	.LBE947:
 3065              	.LBE968:
 3066              	.LBB969:
 3067              	.LBB962:
 3068              	.LBB958:
  32:../../libDaisy//src/hid/disp/graphics_common.h ****     {
 3069              		.loc 14 32 66 view .LVU679
 3070 033c 0780     		strh	r7, [r0]	@ movhi
 3071 033e 8380     		strh	r3, [r0, #4]	@ movhi
 3072              	.LBE958:
 3073              	.LBE962:
 3074              	.LBE969:
 3075              	.LBE992:
 3076              	.LBE1070:
 468:../../libDaisy//src/hid/disp/display.h ****         ((ChildType*)(this))->ChildType::WriteString(str, font, on);
 3077              		.loc 4 468 18 view .LVU680
 3078 0340 BFB2     		uxth	r7, r7
 3079              	.LBB1071:
 3080              	.LBB993:
 242:../../libDaisy//src/hid/disp/graphics_common.h ****                         width_,
 3081              		.loc 14 242 58 view .LVU681
 3082 0342 A4EB5202 		sub	r2, r4, r2, lsr #1
 3083 0346 94B2     		uxth	r4, r2
 3084              	.LVL196:
 3085              	.LBB970:
 3086              	.LBI952:
  31:../../libDaisy//src/hid/disp/graphics_common.h ****     : x_(x), y_(y), width_(max(0, width)), height_(max(0, height))
 3087              		.loc 14 31 5 is_stmt 1 view .LVU682
 3088              	.LBB963:
 3089              	.LBB959:
  32:../../libDaisy//src/hid/disp/graphics_common.h ****     {
 3090              		.loc 14 32 66 is_stmt 0 view .LVU683
 3091 0348 4480     		strh	r4, [r0, #2]	@ movhi
 3092              	.LVL197:
 3093              	.LBB955:
 3094              	.LBI955:
 3095              		.loc 14 261 13 is_stmt 1 view .LVU684
 3096              	.LBE955:
 3097              	.LBE959:
 3098              	.LBE963:
 3099              	.LBE970:
 3100              	.LBE993:
 3101              	.LBE1071:
 3102              		.loc 14 261 41 view .LVU685
 3103              	.LBB1072:
 3104              	.LBB994:
 3105              	.LBB971:
 3106              	.LBB964:
 3107              	.LBB960:
 3108              	.LBB956:
 3109              	.LBI956:
ARM GAS  /var/folders/1y/_321xjh9623c014x9_qw12rr0000gn/T//cc1ZQ1Ea.s 			page 96


 3110              		.loc 14 261 13 view .LVU686
 3111              	.LBE956:
 3112              	.LBE960:
 3113              	.LBE964:
 3114              	.LBE971:
 3115              	.LBE994:
 3116              	.LBE1072:
 3117              		.loc 14 261 41 view .LVU687
 3118              	.LBB1073:
 3119              	.LBB995:
 3120              	.LBB972:
 3121              	.LBB965:
  34:../../libDaisy//src/hid/disp/graphics_common.h **** 
 3122              		.loc 14 34 5 is_stmt 0 view .LVU688
 3123 034a 9AE6     		b	.L133
 3124              	.LVL198:
 3125              	.L153:
  34:../../libDaisy//src/hid/disp/graphics_common.h **** 
 3126              		.loc 14 34 5 view .LVU689
 3127              	.LBE965:
 3128              	.LBE972:
 3129              	.LBE995:
 3130              	.LBE1073:
 3131              	.LBB1074:
 3132              	.LBB1052:
 3133              	.LBB1049:
 3134              	.LBB1048:
 402:../../libDaisy//src/hid/disp/display.h **** 
 3135              		.loc 4 402 20 view .LVU690
 3136 034c 4FF0000B 		mov	fp, #0
 3137              	.LVL199:
 402:../../libDaisy//src/hid/disp/display.h **** 
 3138              		.loc 4 402 20 view .LVU691
 3139 0350 6BE7     		b	.L151
 3140              	.LVL200:
 3141              	.L198:
 405:../../libDaisy//src/hid/disp/display.h ****            || Height() < (currentY_ + font.FontHeight))
 3142              		.loc 4 405 17 view .LVU692
 3143 0352 4046     		mov	r0, r8
 3144 0354 9847     		blx	r3
 3145              	.LVL201:
 3146 0356 D5E6     		b	.L152
 3147              	.L199:
 406:../../libDaisy//src/hid/disp/display.h ****         {
 3148              		.loc 4 406 21 view .LVU693
 3149 0358 4046     		mov	r0, r8
 3150 035a 9847     		blx	r3
 3151              	.LVL202:
 3152 035c E0E6     		b	.L154
 3153              	.LVL203:
 3154              	.L203:
 3155              	.LBB1046:
 3156              	.LBB1042:
 174:../../libDaisy//src/hid/disp/display.h ****     }
 3157              		.loc 4 174 33 view .LVU694
 3158 035e 4046     		mov	r0, r8
 3159 0360 9847     		blx	r3
ARM GAS  /var/folders/1y/_321xjh9623c014x9_qw12rr0000gn/T//cc1ZQ1Ea.s 			page 97


 3160              	.LVL204:
 3161 0362 53E7     		b	.L168
 3162              	.LVL205:
 3163              	.L201:
 173:../../libDaisy//src/hid/disp/display.h ****         currentY_ = (y >= Height()) ? Height() - 1 : y;
 3164              		.loc 4 173 32 view .LVU695
 3165 0364 4046     		mov	r0, r8
 3166 0366 9847     		blx	r3
 3167              	.LVL206:
 173:../../libDaisy//src/hid/disp/display.h ****         currentY_ = (y >= Height()) ? Height() - 1 : y;
 3168              		.loc 4 173 44 view .LVU696
 3169 0368 D8F80020 		ldr	r2, [r8]
 3170 036c 3EE7     		b	.L165
 3171              	.LVL207:
 3172              	.L155:
 173:../../libDaisy//src/hid/disp/display.h ****         currentY_ = (y >= Height()) ? Height() - 1 : y;
 3173              		.loc 4 173 44 view .LVU697
 3174              	.LBE1042:
 3175              	.LBE1046:
 434:../../libDaisy//src/hid/disp/display.h **** 
 3176              		.loc 4 434 19 view .LVU698
 3177 036e B8F804A0 		ldrh	r10, [r8, #4]
 3178 0372 30E7     		b	.L157
 3179              	.LVL208:
 3180              	.L204:
 3181              	.LBB1047:
 3182              	.LBB1043:
 174:../../libDaisy//src/hid/disp/display.h ****     }
 3183              		.loc 4 174 45 view .LVU699
 3184 0374 4046     		mov	r0, r8
 3185 0376 9847     		blx	r3
 3186              	.LVL209:
 174:../../libDaisy//src/hid/disp/display.h ****     }
 3187              		.loc 4 174 19 view .LVU700
 3188 0378 0138     		subs	r0, r0, #1
 3189 037a 83B2     		uxth	r3, r0
 3190 037c 0293     		str	r3, [sp, #8]
 3191              	.LVL210:
 174:../../libDaisy//src/hid/disp/display.h ****     }
 3192              		.loc 4 174 19 view .LVU701
 3193 037e 51E7     		b	.L169
 3194              	.LVL211:
 3195              	.L202:
 173:../../libDaisy//src/hid/disp/display.h ****         currentY_ = (y >= Height()) ? Height() - 1 : y;
 3196              		.loc 4 173 43 view .LVU702
 3197 0380 4046     		mov	r0, r8
 3198 0382 9847     		blx	r3
 3199              	.LVL212:
 173:../../libDaisy//src/hid/disp/display.h ****         currentY_ = (y >= Height()) ? Height() - 1 : y;
 3200              		.loc 4 173 19 view .LVU703
 3201 0384 0138     		subs	r0, r0, #1
 174:../../libDaisy//src/hid/disp/display.h ****     }
 3202              		.loc 4 174 34 view .LVU704
 3203 0386 D8F80020 		ldr	r2, [r8]
 173:../../libDaisy//src/hid/disp/display.h ****         currentY_ = (y >= Height()) ? Height() - 1 : y;
 3204              		.loc 4 173 19 view .LVU705
 3205 038a 85B2     		uxth	r5, r0
ARM GAS  /var/folders/1y/_321xjh9623c014x9_qw12rr0000gn/T//cc1ZQ1Ea.s 			page 98


 3206              	.LVL213:
 173:../../libDaisy//src/hid/disp/display.h ****         currentY_ = (y >= Height()) ? Height() - 1 : y;
 3207              		.loc 4 173 19 view .LVU706
 3208 038c 36E7     		b	.L166
 3209              	.LVL214:
 3210              	.L122:
 173:../../libDaisy//src/hid/disp/display.h ****         currentY_ = (y >= Height()) ? Height() - 1 : y;
 3211              		.loc 4 173 19 view .LVU707
 3212              	.LBE1043:
 3213              	.LBE1047:
 3214              	.LBE1048:
 3215              	.LBE1049:
 3216              	.LBE1052:
 3217              	.LBE1074:
 3218              	.LBB1075:
 3219              	.LBB996:
 255:../../libDaisy//src/hid/disp/graphics_common.h ****         }
 3220              		.loc 14 255 13 is_stmt 1 view .LVU708
 255:../../libDaisy//src/hid/disp/graphics_common.h ****         }
 3221              		.loc 14 255 22 view .LVU709
 3222              	.LBB973:
 3223              	.LBI973:
  24:../../libDaisy//src/hid/disp/graphics_common.h **** 
 3224              		.loc 14 24 5 view .LVU710
 3225              	.LBE973:
 3226              	.LBE996:
 3227              	.LBE1075:
 3228              	.LBB1076:
 3229              	.LBB1002:
 173:../../libDaisy//src/hid/disp/display.h ****         currentY_ = (y >= Height()) ? Height() - 1 : y;
 3230              		.loc 4 173 33 is_stmt 0 view .LVU711
 3231 038e D8F80030 		ldr	r3, [r8]
 3232              	.LBE1002:
 3233              	.LBE1076:
 3234              	.LBB1077:
 3235              	.LBB997:
 3236              	.LBB975:
 3237              	.LBB974:
  24:../../libDaisy//src/hid/disp/graphics_common.h **** 
 3238              		.loc 14 24 53 view .LVU712
 3239 0392 0024     		movs	r4, #0
 3240              	.LVL215:
  24:../../libDaisy//src/hid/disp/graphics_common.h **** 
 3241              		.loc 14 24 53 view .LVU713
 3242 0394 069A     		ldr	r2, [sp, #24]
 3243 0396 1349     		ldr	r1, .L207
 3244              	.LVL216:
  24:../../libDaisy//src/hid/disp/graphics_common.h **** 
 3245              		.loc 14 24 53 view .LVU714
 3246 0398 1480     		strh	r4, [r2]	@ movhi
 3247 039a 5480     		strh	r4, [r2, #2]	@ movhi
 3248 039c 9480     		strh	r4, [r2, #4]	@ movhi
 3249 039e D480     		strh	r4, [r2, #6]	@ movhi
 3250              	.LVL217:
  24:../../libDaisy//src/hid/disp/graphics_common.h **** 
 3251              		.loc 14 24 53 view .LVU715
 3252              	.LBE974:
ARM GAS  /var/folders/1y/_321xjh9623c014x9_qw12rr0000gn/T//cc1ZQ1Ea.s 			page 99


 3253              	.LBE975:
 3254              	.LBE997:
 3255              	.LBE1077:
  56:../../libDaisy//src/hid/disp/graphics_common.h ****     int16_t GetY() const { return y_; }
 3256              		.loc 14 56 28 is_stmt 1 view .LVU716
  57:../../libDaisy//src/hid/disp/graphics_common.h ****     int16_t GetWidth() const { return width_; }
 3257              		.loc 14 57 28 view .LVU717
 3258              	.LBB1078:
 171:../../libDaisy//src/hid/disp/display.h ****     {
 3259              		.loc 4 171 10 view .LVU718
 3260              	.LBB1003:
 173:../../libDaisy//src/hid/disp/display.h ****         currentY_ = (y >= Height()) ? Height() - 1 : y;
 3261              		.loc 4 173 9 view .LVU719
 173:../../libDaisy//src/hid/disp/display.h ****         currentY_ = (y >= Height()) ? Height() - 1 : y;
 3262              		.loc 4 173 33 is_stmt 0 view .LVU720
 3263 03a0 DA68     		ldr	r2, [r3, #12]
 3264 03a2 0191     		str	r1, [sp, #4]
 3265 03a4 8A42     		cmp	r2, r1
 3266 03a6 05D0     		beq	.L140
 3267 03a8 2746     		mov	r7, r4
 3268              	.LVL218:
 3269              	.L141:
 173:../../libDaisy//src/hid/disp/display.h ****         currentY_ = (y >= Height()) ? Height() - 1 : y;
 3270              		.loc 4 173 32 view .LVU721
 3271 03aa 4046     		mov	r0, r8
 3272 03ac 9047     		blx	r2
 3273              	.LVL219:
 173:../../libDaisy//src/hid/disp/display.h ****         currentY_ = (y >= Height()) ? Height() - 1 : y;
 3274              		.loc 4 173 44 view .LVU722
 3275 03ae D8F80030 		ldr	r3, [r8]
 3276 03b2 70E6     		b	.L142
 3277              	.LVL220:
 3278              	.L140:
 174:../../libDaisy//src/hid/disp/display.h ****     }
 3279              		.loc 4 174 34 view .LVU723
 3280 03b4 9B68     		ldr	r3, [r3, #8]
 3281 03b6 0C4A     		ldr	r2, .L207+4
 173:../../libDaisy//src/hid/disp/display.h ****         currentY_ = (y >= Height()) ? Height() - 1 : y;
 3282              		.loc 4 173 19 view .LVU724
 3283 03b8 A8F80440 		strh	r4, [r8, #4]	@ movhi
 174:../../libDaisy//src/hid/disp/display.h ****     }
 3284              		.loc 4 174 9 is_stmt 1 view .LVU725
 3285 03bc 9342     		cmp	r3, r2
 3286 03be 0392     		str	r2, [sp, #12]
 3287 03c0 3FF484AE 		beq	.L147
 3288              	.LVL221:
 3289              	.L173:
 174:../../libDaisy//src/hid/disp/display.h ****     }
 3290              		.loc 4 174 33 is_stmt 0 view .LVU726
 3291 03c4 4046     		mov	r0, r8
 3292 03c6 9847     		blx	r3
 3293              	.LVL222:
 3294 03c8 76E6     		b	.L145
 3295              	.L197:
 174:../../libDaisy//src/hid/disp/display.h ****     }
 3296              		.loc 4 174 45 view .LVU727
 3297 03ca 4046     		mov	r0, r8
ARM GAS  /var/folders/1y/_321xjh9623c014x9_qw12rr0000gn/T//cc1ZQ1Ea.s 			page 100


 3298 03cc 9847     		blx	r3
 3299              	.LVL223:
 174:../../libDaisy//src/hid/disp/display.h ****     }
 3300              		.loc 4 174 19 view .LVU728
 3301 03ce 0138     		subs	r0, r0, #1
 3302 03d0 84B2     		uxth	r4, r0
 3303 03d2 7BE6     		b	.L147
 3304              	.L196:
 173:../../libDaisy//src/hid/disp/display.h ****         currentY_ = (y >= Height()) ? Height() - 1 : y;
 3305              		.loc 4 173 43 view .LVU729
 3306 03d4 4046     		mov	r0, r8
 3307 03d6 9047     		blx	r2
 3308              	.LVL224:
 173:../../libDaisy//src/hid/disp/display.h ****         currentY_ = (y >= Height()) ? Height() - 1 : y;
 3309              		.loc 4 173 19 view .LVU730
 3310 03d8 0138     		subs	r0, r0, #1
 174:../../libDaisy//src/hid/disp/display.h ****     }
 3311              		.loc 4 174 34 view .LVU731
 3312 03da D8F80030 		ldr	r3, [r8]
 173:../../libDaisy//src/hid/disp/display.h ****         currentY_ = (y >= Height()) ? Height() - 1 : y;
 3313              		.loc 4 173 19 view .LVU732
 3314 03de 87B2     		uxth	r7, r0
 3315 03e0 61E6     		b	.L143
 3316              	.L208:
 3317 03e2 00BF     		.align	2
 3318              	.L207:
 3319 03e4 00000000 		.word	_ZNK5daisy11OledDisplayINS_13SSD130xDriverILj128ELj64ENS_24SSD130x4WireSpiTransportEEEE5Widt
 3320 03e8 00000000 		.word	_ZNK5daisy11OledDisplayINS_13SSD130xDriverILj128ELj64ENS_24SSD130x4WireSpiTransportEEEE6Heig
 3321              	.LBE1003:
 3322              	.LBE1078:
 3323              		.cfi_endproc
 3324              	.LFE5440:
 3326              		.section	.text._ZN5daisy11OledDisplayINS_13SSD130xDriverILj128ELj64ENS_24SSD130x4WireSpiTransportE
 3327              		.align	1
 3328              		.p2align 2,,3
 3329              		.weak	_ZN5daisy11OledDisplayINS_13SSD130xDriverILj128ELj64ENS_24SSD130x4WireSpiTransportEEEE9DrawP
 3330              		.syntax unified
 3331              		.thumb
 3332              		.thumb_func
 3334              	_ZN5daisy11OledDisplayINS_13SSD130xDriverILj128ELj64ENS_24SSD130x4WireSpiTransportEEEE9DrawPixelEjj
 3335              	.LVL225:
 3336              	.LFB5434:
  42:../../libDaisy//src/hid/disp/oled_display.h ****     {
 3337              		.loc 3 42 10 is_stmt 1 view -0
 3338              		.cfi_startproc
 3339              		@ args = 0, pretend = 0, frame = 0
 3340              		@ frame_needed = 0, uses_anonymous_args = 0
 3341              		@ link register save eliminated.
 3342              	.LBB1083:
 3343              	.LBI1083:
 352:../../libDaisy//src/dev/oled_ssd130x.h ****     {
 3344              		.loc 12 352 10 view .LVU734
 3345              	.LBB1084:
 354:../../libDaisy//src/dev/oled_ssd130x.h ****             return;
 3346              		.loc 12 354 9 is_stmt 0 view .LVU735
 3347 0000 7F29     		cmp	r1, #127
 3348 0002 1ED8     		bhi	.L209
ARM GAS  /var/folders/1y/_321xjh9623c014x9_qw12rr0000gn/T//cc1ZQ1Ea.s 			page 101


 3349 0004 3F2A     		cmp	r2, #63
 3350 0006 1CD8     		bhi	.L209
 356:../../libDaisy//src/dev/oled_ssd130x.h ****             buffer_[x + (y / 8) * width] |= (1 << (y % 8));
 3351              		.loc 12 356 9 view .LVU736
 3352 0008 6BB1     		cbz	r3, .L211
 357:../../libDaisy//src/dev/oled_ssd130x.h ****         else
 3353              		.loc 12 357 28 view .LVU737
 3354 000a D308     		lsrs	r3, r2, #3
 3355              	.LVL226:
 357:../../libDaisy//src/dev/oled_ssd130x.h ****         else
 3356              		.loc 12 357 48 view .LVU738
 3357 000c 4FF0010C 		mov	ip, #1
 357:../../libDaisy//src/dev/oled_ssd130x.h ****         else
 3358              		.loc 12 357 54 view .LVU739
 3359 0010 02F00702 		and	r2, r2, #7
 3360              	.LVL227:
 357:../../libDaisy//src/dev/oled_ssd130x.h ****         else
 3361              		.loc 12 357 42 view .LVU740
 3362 0014 01EBC313 		add	r3, r1, r3, lsl #7
 357:../../libDaisy//src/dev/oled_ssd130x.h ****         else
 3363              		.loc 12 357 48 view .LVU741
 3364 0018 0CFA02F2 		lsl	r2, ip, r2
 357:../../libDaisy//src/dev/oled_ssd130x.h ****         else
 3365              		.loc 12 357 42 view .LVU742
 3366 001c C118     		adds	r1, r0, r3
 3367              	.LVL228:
 357:../../libDaisy//src/dev/oled_ssd130x.h ****         else
 3368              		.loc 12 357 42 view .LVU743
 3369 001e 0B7D     		ldrb	r3, [r1, #20]	@ zero_extendqisi2
 3370 0020 1A43     		orrs	r2, r2, r3
 3371 0022 0A75     		strb	r2, [r1, #20]
 3372 0024 7047     		bx	lr
 3373              	.LVL229:
 3374              	.L211:
 3375              	.LBB1085:
 3376              	.LBI1085:
 352:../../libDaisy//src/dev/oled_ssd130x.h ****     {
 3377              		.loc 12 352 10 is_stmt 1 view .LVU744
 3378              	.LBB1086:
 359:../../libDaisy//src/dev/oled_ssd130x.h ****     }
 3379              		.loc 12 359 28 is_stmt 0 view .LVU745
 3380 0026 D308     		lsrs	r3, r2, #3
 3381              	.LVL230:
 359:../../libDaisy//src/dev/oled_ssd130x.h ****     }
 3382              		.loc 12 359 49 view .LVU746
 3383 0028 4FF0010C 		mov	ip, #1
 359:../../libDaisy//src/dev/oled_ssd130x.h ****     }
 3384              		.loc 12 359 55 view .LVU747
 3385 002c 02F00702 		and	r2, r2, #7
 3386              	.LVL231:
 359:../../libDaisy//src/dev/oled_ssd130x.h ****     }
 3387              		.loc 12 359 42 view .LVU748
 3388 0030 01EBC313 		add	r3, r1, r3, lsl #7
 359:../../libDaisy//src/dev/oled_ssd130x.h ****     }
 3389              		.loc 12 359 49 view .LVU749
 3390 0034 0CFA02FC 		lsl	ip, ip, r2
 359:../../libDaisy//src/dev/oled_ssd130x.h ****     }
ARM GAS  /var/folders/1y/_321xjh9623c014x9_qw12rr0000gn/T//cc1ZQ1Ea.s 			page 102


 3391              		.loc 12 359 42 view .LVU750
 3392 0038 C118     		adds	r1, r0, r3
 3393              	.LVL232:
 359:../../libDaisy//src/dev/oled_ssd130x.h ****     }
 3394              		.loc 12 359 42 view .LVU751
 3395 003a 0A7D     		ldrb	r2, [r1, #20]	@ zero_extendqisi2
 3396 003c 22EA0C02 		bic	r2, r2, ip
 3397 0040 0A75     		strb	r2, [r1, #20]
 3398              	.LVL233:
 3399              	.L209:
 359:../../libDaisy//src/dev/oled_ssd130x.h ****     }
 3400              		.loc 12 359 42 view .LVU752
 3401              	.LBE1086:
 3402              	.LBE1085:
 3403              	.LBE1084:
 3404              	.LBE1083:
  45:../../libDaisy//src/hid/disp/oled_display.h **** 
 3405              		.loc 3 45 5 view .LVU753
 3406 0042 7047     		bx	lr
 3407              		.cfi_endproc
 3408              	.LFE5434:
 3410              		.section	.text._ZN5daisy25OneBitGraphicsDisplayImplINS_11OledDisplayINS_13SSD130xDriverILj128ELj64
 3411              		.align	1
 3412              		.p2align 2,,3
 3413              		.weak	_ZN5daisy25OneBitGraphicsDisplayImplINS_11OledDisplayINS_13SSD130xDriverILj128ELj64ENS_24SSD
 3414              		.syntax unified
 3415              		.thumb
 3416              		.thumb_func
 3418              	_ZN5daisy25OneBitGraphicsDisplayImplINS_11OledDisplayINS_13SSD130xDriverILj128ELj64ENS_24SSD130x4Wi
 3419              	.LVL234:
 3420              	.LFB5435:
 221:../../libDaisy//src/hid/disp/display.h ****                   uint_fast8_t y1,
 3421              		.loc 4 221 10 is_stmt 1 view -0
 3422              		.cfi_startproc
 3423              		@ args = 8, pretend = 0, frame = 8
 3424              		@ frame_needed = 0, uses_anonymous_args = 0
 221:../../libDaisy//src/hid/disp/display.h ****                   uint_fast8_t y1,
 3425              		.loc 4 221 10 is_stmt 0 view .LVU755
 3426 0000 2DE9F04F 		push	{r4, r5, r6, r7, r8, r9, r10, fp, lr}
 3427              		.cfi_def_cfa_offset 36
 3428              		.cfi_offset 4, -36
 3429              		.cfi_offset 5, -32
 3430              		.cfi_offset 6, -28
 3431              		.cfi_offset 7, -24
 3432              		.cfi_offset 8, -20
 3433              		.cfi_offset 9, -16
 3434              		.cfi_offset 10, -12
 3435              		.cfi_offset 11, -8
 3436              		.cfi_offset 14, -4
 3437 0004 83B0     		sub	sp, sp, #12
 3438              		.cfi_def_cfa_offset 48
 227:../../libDaisy//src/hid/disp/display.h ****         int_fast16_t deltaY = abs((int_fast16_t)y2 - (int_fast16_t)y1);
 3439              		.loc 4 227 52 view .LVU756
 3440 0006 5C1A     		subs	r4, r3, r1
 221:../../libDaisy//src/hid/disp/display.h ****                   uint_fast8_t y1,
 3441              		.loc 4 221 10 view .LVU757
 3442 0008 0C9E     		ldr	r6, [sp, #48]
ARM GAS  /var/folders/1y/_321xjh9623c014x9_qw12rr0000gn/T//cc1ZQ1Ea.s 			page 103


 227:../../libDaisy//src/hid/disp/display.h ****         int_fast16_t deltaY = abs((int_fast16_t)y2 - (int_fast16_t)y1);
 3443              		.loc 4 227 22 view .LVU758
 3444 000a 002C     		cmp	r4, #0
 221:../../libDaisy//src/hid/disp/display.h ****                   uint_fast8_t y1,
 3445              		.loc 4 221 10 view .LVU759
 3446 000c 9DF83490 		ldrb	r9, [sp, #52]	@ zero_extendqisi2
 228:../../libDaisy//src/hid/disp/display.h ****         int_fast16_t signX  = ((x1 < x2) ? 1 : -1);
 3447              		.loc 4 228 52 view .LVU760
 3448 0010 A6EB0208 		sub	r8, r6, r2
 227:../../libDaisy//src/hid/disp/display.h ****         int_fast16_t deltaY = abs((int_fast16_t)y2 - (int_fast16_t)y1);
 3449              		.loc 4 227 22 view .LVU761
 3450 0014 B8BF     		it	lt
 3451 0016 6442     		rsblt	r4, r4, #0
 3452              	.LVL235:
 228:../../libDaisy//src/hid/disp/display.h ****         int_fast16_t signX  = ((x1 < x2) ? 1 : -1);
 3453              		.loc 4 228 22 view .LVU762
 3454 0018 B8F1000F 		cmp	r8, #0
 3455 001c B8BF     		it	lt
 3456 001e C8F10008 		rsblt	r8, r8, #0
 3457              	.LVL236:
 229:../../libDaisy//src/hid/disp/display.h ****         int_fast16_t signY  = ((y1 < y2) ? 1 : -1);
 3458              		.loc 4 229 42 view .LVU763
 3459 0022 8B42     		cmp	r3, r1
 3460 0024 8CBF     		ite	hi
 3461 0026 4FF0010A 		movhi	r10, #1
 3462 002a 4FF0FF3A 		movls	r10, #-1
 3463              	.LVL237:
 230:../../libDaisy//src/hid/disp/display.h ****         int_fast16_t error  = deltaX - deltaY;
 3464              		.loc 4 230 42 view .LVU764
 3465 002e 9642     		cmp	r6, r2
 231:../../libDaisy//src/hid/disp/display.h ****         int_fast16_t error2;
 3466              		.loc 4 231 22 view .LVU765
 3467 0030 A4EB080C 		sub	ip, r4, r8
 230:../../libDaisy//src/hid/disp/display.h ****         int_fast16_t error  = deltaX - deltaY;
 3468              		.loc 4 230 42 view .LVU766
 3469 0034 51D8     		bhi	.L214
 3470              	.LVL238:
 3471              	.LBB1103:
 3472              	.LBI1103:
  42:../../libDaisy//src/hid/disp/oled_display.h ****     {
 3473              		.loc 3 42 10 is_stmt 1 discriminator 4 view .LVU767
 3474              	.LBB1104:
 3475              	.LBI1104:
 352:../../libDaisy//src/dev/oled_ssd130x.h ****     {
 3476              		.loc 12 352 10 discriminator 4 view .LVU768
 3477              	.LBE1104:
 3478              	.LBE1103:
 230:../../libDaisy//src/hid/disp/display.h ****         int_fast16_t error  = deltaX - deltaY;
 3479              		.loc 4 230 42 is_stmt 0 discriminator 4 view .LVU769
 3480 0036 4FF0FF35 		mov	r5, #-1
 3481              	.LBB1120:
 3482              	.LBB1114:
 3483              	.LBB1105:
 354:../../libDaisy//src/dev/oled_ssd130x.h ****             return;
 3484              		.loc 12 354 9 discriminator 4 view .LVU770
 3485 003a 7F2B     		cmp	r3, #127
 3486              	.LBE1105:
ARM GAS  /var/folders/1y/_321xjh9623c014x9_qw12rr0000gn/T//cc1ZQ1Ea.s 			page 104


 3487              	.LBE1114:
 3488              	.LBE1120:
 230:../../libDaisy//src/hid/disp/display.h ****         int_fast16_t error  = deltaX - deltaY;
 3489              		.loc 4 230 42 discriminator 4 view .LVU771
 3490 003c 0195     		str	r5, [sp, #4]
 3491              	.LBB1121:
 3492              	.LBB1115:
 3493              	.LBB1110:
 354:../../libDaisy//src/dev/oled_ssd130x.h ****             return;
 3494              		.loc 12 354 9 discriminator 4 view .LVU772
 3495 003e 12D8     		bhi	.L215
 3496 0040 3F2E     		cmp	r6, #63
 3497 0042 10D8     		bhi	.L215
 3498              	.LVL239:
 3499              	.L226:
 357:../../libDaisy//src/dev/oled_ssd130x.h ****         else
 3500              		.loc 12 357 28 view .LVU773
 3501 0044 F508     		lsrs	r5, r6, #3
 357:../../libDaisy//src/dev/oled_ssd130x.h ****         else
 3502              		.loc 12 357 54 view .LVU774
 3503 0046 06F0070E 		and	lr, r6, #7
 357:../../libDaisy//src/dev/oled_ssd130x.h ****         else
 3504              		.loc 12 357 48 view .LVU775
 3505 004a 0127     		movs	r7, #1
 357:../../libDaisy//src/dev/oled_ssd130x.h ****         else
 3506              		.loc 12 357 42 view .LVU776
 3507 004c 03EBC515 		add	r5, r3, r5, lsl #7
 3508 0050 0544     		add	r5, r5, r0
 356:../../libDaisy//src/dev/oled_ssd130x.h ****             buffer_[x + (y / 8) * width] |= (1 << (y % 8));
 3509              		.loc 12 356 9 view .LVU777
 3510 0052 B9F1000F 		cmp	r9, #0
 3511 0056 47D0     		beq	.L216
 357:../../libDaisy//src/dev/oled_ssd130x.h ****         else
 3512              		.loc 12 357 48 view .LVU778
 3513 0058 07FA0EF7 		lsl	r7, r7, lr
 357:../../libDaisy//src/dev/oled_ssd130x.h ****         else
 3514              		.loc 12 357 42 view .LVU779
 3515 005c 95F814E0 		ldrb	lr, [r5, #20]	@ zero_extendqisi2
 3516 0060 47EA0E07 		orr	r7, r7, lr
 3517 0064 2F75     		strb	r7, [r5, #20]
 3518              	.LVL240:
 3519              	.L215:
 357:../../libDaisy//src/dev/oled_ssd130x.h ****         else
 3520              		.loc 12 357 42 view .LVU780
 3521              	.LBE1110:
 3522              	.LBE1115:
 3523              	.LBE1121:
 239:../../libDaisy//src/hid/disp/display.h ****         {
 3524              		.loc 4 239 26 is_stmt 1 view .LVU781
 3525 0066 9642     		cmp	r6, r2
 3526 0068 01D1     		bne	.L219
 3527              	.L238:
 239:../../libDaisy//src/hid/disp/display.h ****         {
 3528              		.loc 4 239 26 is_stmt 0 view .LVU782
 3529 006a 8B42     		cmp	r3, r1
 3530 006c 29D0     		beq	.L212
 3531              	.L219:
ARM GAS  /var/folders/1y/_321xjh9623c014x9_qw12rr0000gn/T//cc1ZQ1Ea.s 			page 105


 3532              	.LVL241:
 243:../../libDaisy//src/hid/disp/display.h ****             {
 3533              		.loc 4 243 23 view .LVU783
 3534 006e C8F10007 		rsb	r7, r8, #0
 3535              	.L221:
 3536              	.LVL242:
 3537              	.LBB1122:
 3538              	.LBI1122:
  42:../../libDaisy//src/hid/disp/oled_display.h ****     {
 3539              		.loc 3 42 10 is_stmt 1 view .LVU784
 3540              	.LBB1123:
 3541              	.LBI1123:
 352:../../libDaisy//src/dev/oled_ssd130x.h ****     {
 3542              		.loc 12 352 10 view .LVU785
 3543              	.LBB1124:
 354:../../libDaisy//src/dev/oled_ssd130x.h ****             return;
 3544              		.loc 12 354 9 is_stmt 0 view .LVU786
 3545 0072 7F29     		cmp	r1, #127
 3546 0074 14D8     		bhi	.L222
 3547 0076 3F2A     		cmp	r2, #63
 3548 0078 12D8     		bhi	.L222
 357:../../libDaisy//src/dev/oled_ssd130x.h ****         else
 3549              		.loc 12 357 28 view .LVU787
 3550 007a D508     		lsrs	r5, r2, #3
 357:../../libDaisy//src/dev/oled_ssd130x.h ****         else
 3551              		.loc 12 357 54 view .LVU788
 3552 007c 02F0070B 		and	fp, r2, #7
 357:../../libDaisy//src/dev/oled_ssd130x.h ****         else
 3553              		.loc 12 357 48 view .LVU789
 3554 0080 4FF0010E 		mov	lr, #1
 357:../../libDaisy//src/dev/oled_ssd130x.h ****         else
 3555              		.loc 12 357 42 view .LVU790
 3556 0084 01EBC515 		add	r5, r1, r5, lsl #7
 3557 0088 0544     		add	r5, r5, r0
 356:../../libDaisy//src/dev/oled_ssd130x.h ****             buffer_[x + (y / 8) * width] |= (1 << (y % 8));
 3558              		.loc 12 356 9 view .LVU791
 3559 008a B9F1000F 		cmp	r9, #0
 3560 008e 1BD0     		beq	.L223
 357:../../libDaisy//src/dev/oled_ssd130x.h ****         else
 3561              		.loc 12 357 48 view .LVU792
 3562 0090 0EFA0BFE 		lsl	lr, lr, fp
 357:../../libDaisy//src/dev/oled_ssd130x.h ****         else
 3563              		.loc 12 357 42 view .LVU793
 3564 0094 95F814B0 		ldrb	fp, [r5, #20]	@ zero_extendqisi2
 3565 0098 4EEA0B0E 		orr	lr, lr, fp
 3566 009c 85F814E0 		strb	lr, [r5, #20]
 3567              	.L222:
 3568              	.LVL243:
 357:../../libDaisy//src/dev/oled_ssd130x.h ****         else
 3569              		.loc 12 357 42 view .LVU794
 3570              	.LBE1124:
 3571              	.LBE1123:
 3572              	.LBE1122:
 243:../../libDaisy//src/hid/disp/display.h ****             {
 3573              		.loc 4 243 13 view .LVU795
 3574 00a0 B7EB4C0F 		cmp	r7, ip, lsl #1
 242:../../libDaisy//src/hid/disp/display.h ****             if(error2 > -deltaY)
ARM GAS  /var/folders/1y/_321xjh9623c014x9_qw12rr0000gn/T//cc1ZQ1Ea.s 			page 106


 3575              		.loc 4 242 20 view .LVU796
 3576 00a4 4FEA4C05 		lsl	r5, ip, #1
 3577              	.LVL244:
 243:../../libDaisy//src/hid/disp/display.h ****             {
 3578              		.loc 4 243 13 view .LVU797
 3579 00a8 02DA     		bge	.L224
 245:../../libDaisy//src/hid/disp/display.h ****                 x1 += signX;
 3580              		.loc 4 245 23 view .LVU798
 3581 00aa ACEB080C 		sub	ip, ip, r8
 3582              	.LVL245:
 246:../../libDaisy//src/hid/disp/display.h ****             }
 3583              		.loc 4 246 20 view .LVU799
 3584 00ae 5144     		add	r1, r1, r10
 3585              	.LVL246:
 3586              	.L224:
 249:../../libDaisy//src/hid/disp/display.h ****             {
 3587              		.loc 4 249 13 view .LVU800
 3588 00b0 AC42     		cmp	r4, r5
 3589 00b2 02DD     		ble	.L225
 252:../../libDaisy//src/hid/disp/display.h ****             }
 3590              		.loc 4 252 20 view .LVU801
 3591 00b4 019D     		ldr	r5, [sp, #4]
 3592              	.LVL247:
 251:../../libDaisy//src/hid/disp/display.h ****                 y1 += signY;
 3593              		.loc 4 251 23 view .LVU802
 3594 00b6 A444     		add	ip, ip, r4
 3595              	.LVL248:
 252:../../libDaisy//src/hid/disp/display.h ****             }
 3596              		.loc 4 252 20 view .LVU803
 3597 00b8 2A44     		add	r2, r2, r5
 3598              	.LVL249:
 3599              	.L225:
 239:../../libDaisy//src/hid/disp/display.h ****         {
 3600              		.loc 4 239 26 is_stmt 1 view .LVU804
 3601 00ba 9942     		cmp	r1, r3
 3602 00bc D9D1     		bne	.L221
 239:../../libDaisy//src/hid/disp/display.h ****         {
 3603              		.loc 4 239 26 is_stmt 0 view .LVU805
 3604 00be 9642     		cmp	r6, r2
 3605 00c0 D7D1     		bne	.L221
 3606              	.L212:
 255:../../libDaisy//src/hid/disp/display.h **** 
 3607              		.loc 4 255 5 view .LVU806
 3608 00c2 03B0     		add	sp, sp, #12
 3609              		.cfi_remember_state
 3610              		.cfi_def_cfa_offset 36
 3611              		@ sp needed
 3612 00c4 BDE8F08F 		pop	{r4, r5, r6, r7, r8, r9, r10, fp, pc}
 3613              	.LVL250:
 3614              	.L223:
 3615              		.cfi_restore_state
 3616              	.LBB1129:
 3617              	.LBB1128:
 3618              	.LBB1127:
 3619              	.LBB1125:
 3620              	.LBI1125:
 352:../../libDaisy//src/dev/oled_ssd130x.h ****     {
ARM GAS  /var/folders/1y/_321xjh9623c014x9_qw12rr0000gn/T//cc1ZQ1Ea.s 			page 107


 3621              		.loc 12 352 10 is_stmt 1 view .LVU807
 3622              	.LBB1126:
 359:../../libDaisy//src/dev/oled_ssd130x.h ****     }
 3623              		.loc 12 359 49 is_stmt 0 view .LVU808
 3624 00c8 0EFA0BFB 		lsl	fp, lr, fp
 359:../../libDaisy//src/dev/oled_ssd130x.h ****     }
 3625              		.loc 12 359 42 view .LVU809
 3626 00cc 95F814E0 		ldrb	lr, [r5, #20]	@ zero_extendqisi2
 3627 00d0 2EEA0B0E 		bic	lr, lr, fp
 3628 00d4 85F814E0 		strb	lr, [r5, #20]
 3629 00d8 E2E7     		b	.L222
 3630              	.LVL251:
 3631              	.L214:
 359:../../libDaisy//src/dev/oled_ssd130x.h ****     }
 3632              		.loc 12 359 42 view .LVU810
 3633              	.LBE1126:
 3634              	.LBE1125:
 3635              	.LBE1127:
 3636              	.LBE1128:
 3637              	.LBE1129:
 3638              	.LBB1130:
  42:../../libDaisy//src/hid/disp/oled_display.h ****     {
 3639              		.loc 3 42 10 is_stmt 1 view .LVU811
 3640              	.LBB1116:
 352:../../libDaisy//src/dev/oled_ssd130x.h ****     {
 3641              		.loc 12 352 10 view .LVU812
 3642              	.LBE1116:
 3643              	.LBE1130:
 230:../../libDaisy//src/hid/disp/display.h ****         int_fast16_t error  = deltaX - deltaY;
 3644              		.loc 4 230 42 is_stmt 0 view .LVU813
 3645 00da 0125     		movs	r5, #1
 3646              	.LBB1131:
 3647              	.LBB1117:
 3648              	.LBB1111:
 354:../../libDaisy//src/dev/oled_ssd130x.h ****             return;
 3649              		.loc 12 354 9 view .LVU814
 3650 00dc 7F2B     		cmp	r3, #127
 3651              	.LBE1111:
 3652              	.LBE1117:
 3653              	.LBE1131:
 230:../../libDaisy//src/hid/disp/display.h ****         int_fast16_t error  = deltaX - deltaY;
 3654              		.loc 4 230 42 view .LVU815
 3655 00de 0195     		str	r5, [sp, #4]
 3656              	.LBB1132:
 3657              	.LBB1118:
 3658              	.LBB1112:
 354:../../libDaisy//src/dev/oled_ssd130x.h ****             return;
 3659              		.loc 12 354 9 view .LVU816
 3660 00e0 C5D8     		bhi	.L219
 3661 00e2 3F2E     		cmp	r6, #63
 3662 00e4 AED9     		bls	.L226
 3663 00e6 C2E7     		b	.L219
 3664              	.LVL252:
 3665              	.L216:
 3666              	.LBB1106:
 3667              	.LBI1106:
 352:../../libDaisy//src/dev/oled_ssd130x.h ****     {
ARM GAS  /var/folders/1y/_321xjh9623c014x9_qw12rr0000gn/T//cc1ZQ1Ea.s 			page 108


 3668              		.loc 12 352 10 is_stmt 1 view .LVU817
 3669              	.LBB1107:
 359:../../libDaisy//src/dev/oled_ssd130x.h ****     }
 3670              		.loc 12 359 49 is_stmt 0 view .LVU818
 3671 00e8 07FA0EFE 		lsl	lr, r7, lr
 359:../../libDaisy//src/dev/oled_ssd130x.h ****     }
 3672              		.loc 12 359 42 view .LVU819
 3673 00ec 2F7D     		ldrb	r7, [r5, #20]	@ zero_extendqisi2
 3674              	.LBE1107:
 3675              	.LBE1106:
 3676              	.LBE1112:
 3677              	.LBE1118:
 3678              	.LBE1132:
 239:../../libDaisy//src/hid/disp/display.h ****         {
 3679              		.loc 4 239 26 view .LVU820
 3680 00ee 9642     		cmp	r6, r2
 3681              	.LBB1133:
 3682              	.LBB1119:
 3683              	.LBB1113:
 3684              	.LBB1109:
 3685              	.LBB1108:
 359:../../libDaisy//src/dev/oled_ssd130x.h ****     }
 3686              		.loc 12 359 42 view .LVU821
 3687 00f0 27EA0E07 		bic	r7, r7, lr
 3688 00f4 2F75     		strb	r7, [r5, #20]
 3689              	.LVL253:
 359:../../libDaisy//src/dev/oled_ssd130x.h ****     }
 3690              		.loc 12 359 42 view .LVU822
 3691              	.LBE1108:
 3692              	.LBE1109:
 3693              	.LBE1113:
 3694              	.LBE1119:
 3695              	.LBE1133:
 239:../../libDaisy//src/hid/disp/display.h ****         {
 3696              		.loc 4 239 26 is_stmt 1 view .LVU823
 3697 00f6 B8D0     		beq	.L238
 3698 00f8 B9E7     		b	.L219
 3699              		.cfi_endproc
 3700              	.LFE5435:
 3702 00fa 00BF     		.section	.text._ZN5daisy25OneBitGraphicsDisplayImplINS_11OledDisplayINS_13SSD130xDriverILj128ELj64
 3703              		.align	1
 3704              		.p2align 2,,3
 3705              		.weak	_ZN5daisy25OneBitGraphicsDisplayImplINS_11OledDisplayINS_13SSD130xDriverILj128ELj64ENS_24SSD
 3706              		.syntax unified
 3707              		.thumb
 3708              		.thumb_func
 3710              	_ZN5daisy25OneBitGraphicsDisplayImplINS_11OledDisplayINS_13SSD130xDriverILj128ELj64ENS_24SSD130x4Wi
 3711              	.LVL254:
 3712              	.LFB5437:
 283:../../libDaisy//src/hid/disp/display.h ****                  uint_fast8_t y,
 3713              		.loc 4 283 10 view -0
 3714              		.cfi_startproc
 3715              		@ args = 12, pretend = 0, frame = 8
 3716              		@ frame_needed = 0, uses_anonymous_args = 0
 283:../../libDaisy//src/hid/disp/display.h ****                  uint_fast8_t y,
 3717              		.loc 4 283 10 is_stmt 0 view .LVU825
 3718 0000 2DE9F04F 		push	{r4, r5, r6, r7, r8, r9, r10, fp, lr}
ARM GAS  /var/folders/1y/_321xjh9623c014x9_qw12rr0000gn/T//cc1ZQ1Ea.s 			page 109


 3719              		.cfi_def_cfa_offset 36
 3720              		.cfi_offset 4, -36
 3721              		.cfi_offset 5, -32
 3722              		.cfi_offset 6, -28
 3723              		.cfi_offset 7, -24
 3724              		.cfi_offset 8, -20
 3725              		.cfi_offset 9, -16
 3726              		.cfi_offset 10, -12
 3727              		.cfi_offset 11, -8
 3728              		.cfi_offset 14, -4
 3729 0004 2DED068B 		vpush.64	{d8, d9, d10}
 3730              		.cfi_def_cfa_offset 60
 3731              		.cfi_offset 80, -60
 3732              		.cfi_offset 81, -56
 3733              		.cfi_offset 82, -52
 3734              		.cfi_offset 83, -48
 3735              		.cfi_offset 84, -44
 3736              		.cfi_offset 85, -40
 3737 0008 83B0     		sub	sp, sp, #12
 3738              		.cfi_def_cfa_offset 72
 283:../../libDaisy//src/hid/disp/display.h ****                  uint_fast8_t y,
 3739              		.loc 4 283 10 view .LVU826
 3740 000a 1F46     		mov	r7, r3
 3741 000c 8046     		mov	r8, r0
 3742 000e 0D46     		mov	r5, r1
 3743 0010 9DF85030 		ldrb	r3, [sp, #80]	@ zero_extendqisi2
 3744              	.LVL255:
 283:../../libDaisy//src/hid/disp/display.h ****                  uint_fast8_t y,
 3745              		.loc 4 283 10 view .LVU827
 3746 0014 1646     		mov	r6, r2
 3747 0016 0193     		str	r3, [sp, #4]
 306:../../libDaisy//src/hid/disp/display.h ****         {
 3748              		.loc 4 306 9 view .LVU828
 3749 0018 139B     		ldr	r3, [sp, #76]
 3750 001a 002B     		cmp	r3, #0
 3751 001c C0F22182 		blt	.L240
 313:../../libDaisy//src/hid/disp/display.h **** 
 3752              		.loc 4 313 27 view .LVU829
 3753 0020 129A     		ldr	r2, [sp, #72]
 3754              	.LVL256:
 313:../../libDaisy//src/hid/disp/display.h **** 
 3755              		.loc 4 313 27 view .LVU830
 3756 0022 1344     		add	r3, r3, r2
 3757 0024 06EE103A 		vmov	s12, r3	@ int
 3758              	.LVL257:
 3759              	.L241:
 312:../../libDaisy//src/hid/disp/display.h ****         end_angle_rad   = deg2rad(start_angle + sweep);
 3760              		.loc 4 312 27 view .LVU831
 3761 0028 DDED127A 		vldr.32	s15, [sp, #72]	@ int
 313:../../libDaisy//src/hid/disp/display.h **** 
 3762              		.loc 4 313 27 view .LVU832
 3763 002c B8EEC66B 		vcvt.f64.s32	d6, s12
 312:../../libDaisy//src/hid/disp/display.h ****         end_angle_rad   = deg2rad(start_angle + sweep);
 3764              		.loc 4 312 27 view .LVU833
 3765 0030 9FEDCD4B 		vldr.64	d4, .L316
 3766 0034 B8EEE77B 		vcvt.f64.s32	d7, s15
 3767 0038 9FEDCD5B 		vldr.64	d5, .L316+8
ARM GAS  /var/folders/1y/_321xjh9623c014x9_qw12rr0000gn/T//cc1ZQ1Ea.s 			page 110


 3768 003c 27EE047B 		vmul.f64	d7, d7, d4
 313:../../libDaisy//src/hid/disp/display.h **** 
 3769              		.loc 4 313 27 view .LVU834
 3770 0040 26EE046B 		vmul.f64	d6, d6, d4
 312:../../libDaisy//src/hid/disp/display.h ****         end_angle_rad   = deg2rad(start_angle + sweep);
 3771              		.loc 4 312 27 view .LVU835
 3772 0044 87EE050B 		vdiv.f64	d0, d7, d5
 313:../../libDaisy//src/hid/disp/display.h **** 
 3773              		.loc 4 313 27 view .LVU836
 3774 0048 86EE05AB 		vdiv.f64	d10, d6, d5
 312:../../libDaisy//src/hid/disp/display.h ****         end_angle_rad   = deg2rad(start_angle + sweep);
 3775              		.loc 4 312 25 view .LVU837
 3776 004c F7EEC08B 		vcvt.f32.f64	s17, d0
 3777              	.LVL258:
 3778              	.LBB1166:
 3779              	.LBB1167:
 3780              		.file 15 "/Library/DaisyToolchain/0.2.0/arm/arm-none-eabi/include/c++/10.3.1/cmath"
   1:/Library/DaisyToolchain/0.2.0/arm/arm-none-eabi/include/c++/10.3.1/cmath **** // -*- C++ -*- C forwarding header.
   2:/Library/DaisyToolchain/0.2.0/arm/arm-none-eabi/include/c++/10.3.1/cmath **** 
   3:/Library/DaisyToolchain/0.2.0/arm/arm-none-eabi/include/c++/10.3.1/cmath **** // Copyright (C) 1997-2020 Free Software Foundation, Inc.
   4:/Library/DaisyToolchain/0.2.0/arm/arm-none-eabi/include/c++/10.3.1/cmath **** //
   5:/Library/DaisyToolchain/0.2.0/arm/arm-none-eabi/include/c++/10.3.1/cmath **** // This file is part of the GNU ISO C++ Library.  This library is free
   6:/Library/DaisyToolchain/0.2.0/arm/arm-none-eabi/include/c++/10.3.1/cmath **** // software; you can redistribute it and/or modify it under the
   7:/Library/DaisyToolchain/0.2.0/arm/arm-none-eabi/include/c++/10.3.1/cmath **** // terms of the GNU General Public License as published by the
   8:/Library/DaisyToolchain/0.2.0/arm/arm-none-eabi/include/c++/10.3.1/cmath **** // Free Software Foundation; either version 3, or (at your option)
   9:/Library/DaisyToolchain/0.2.0/arm/arm-none-eabi/include/c++/10.3.1/cmath **** // any later version.
  10:/Library/DaisyToolchain/0.2.0/arm/arm-none-eabi/include/c++/10.3.1/cmath **** 
  11:/Library/DaisyToolchain/0.2.0/arm/arm-none-eabi/include/c++/10.3.1/cmath **** // This library is distributed in the hope that it will be useful,
  12:/Library/DaisyToolchain/0.2.0/arm/arm-none-eabi/include/c++/10.3.1/cmath **** // but WITHOUT ANY WARRANTY; without even the implied warranty of
  13:/Library/DaisyToolchain/0.2.0/arm/arm-none-eabi/include/c++/10.3.1/cmath **** // MERCHANTABILITY or FITNESS FOR A PARTICULAR PURPOSE.  See the
  14:/Library/DaisyToolchain/0.2.0/arm/arm-none-eabi/include/c++/10.3.1/cmath **** // GNU General Public License for more details.
  15:/Library/DaisyToolchain/0.2.0/arm/arm-none-eabi/include/c++/10.3.1/cmath **** 
  16:/Library/DaisyToolchain/0.2.0/arm/arm-none-eabi/include/c++/10.3.1/cmath **** // Under Section 7 of GPL version 3, you are granted additional
  17:/Library/DaisyToolchain/0.2.0/arm/arm-none-eabi/include/c++/10.3.1/cmath **** // permissions described in the GCC Runtime Library Exception, version
  18:/Library/DaisyToolchain/0.2.0/arm/arm-none-eabi/include/c++/10.3.1/cmath **** // 3.1, as published by the Free Software Foundation.
  19:/Library/DaisyToolchain/0.2.0/arm/arm-none-eabi/include/c++/10.3.1/cmath **** 
  20:/Library/DaisyToolchain/0.2.0/arm/arm-none-eabi/include/c++/10.3.1/cmath **** // You should have received a copy of the GNU General Public License and
  21:/Library/DaisyToolchain/0.2.0/arm/arm-none-eabi/include/c++/10.3.1/cmath **** // a copy of the GCC Runtime Library Exception along with this program;
  22:/Library/DaisyToolchain/0.2.0/arm/arm-none-eabi/include/c++/10.3.1/cmath **** // see the files COPYING3 and COPYING.RUNTIME respectively.  If not, see
  23:/Library/DaisyToolchain/0.2.0/arm/arm-none-eabi/include/c++/10.3.1/cmath **** // <http://www.gnu.org/licenses/>.
  24:/Library/DaisyToolchain/0.2.0/arm/arm-none-eabi/include/c++/10.3.1/cmath **** 
  25:/Library/DaisyToolchain/0.2.0/arm/arm-none-eabi/include/c++/10.3.1/cmath **** /** @file include/cmath
  26:/Library/DaisyToolchain/0.2.0/arm/arm-none-eabi/include/c++/10.3.1/cmath ****  *  This is a Standard C++ Library file.  You should @c \#include this file
  27:/Library/DaisyToolchain/0.2.0/arm/arm-none-eabi/include/c++/10.3.1/cmath ****  *  in your programs, rather than any of the @a *.h implementation files.
  28:/Library/DaisyToolchain/0.2.0/arm/arm-none-eabi/include/c++/10.3.1/cmath ****  *
  29:/Library/DaisyToolchain/0.2.0/arm/arm-none-eabi/include/c++/10.3.1/cmath ****  *  This is the C++ version of the Standard C Library header @c math.h,
  30:/Library/DaisyToolchain/0.2.0/arm/arm-none-eabi/include/c++/10.3.1/cmath ****  *  and its contents are (mostly) the same as that header, but are all
  31:/Library/DaisyToolchain/0.2.0/arm/arm-none-eabi/include/c++/10.3.1/cmath ****  *  contained in the namespace @c std (except for names which are defined
  32:/Library/DaisyToolchain/0.2.0/arm/arm-none-eabi/include/c++/10.3.1/cmath ****  *  as macros in C).
  33:/Library/DaisyToolchain/0.2.0/arm/arm-none-eabi/include/c++/10.3.1/cmath ****  */
  34:/Library/DaisyToolchain/0.2.0/arm/arm-none-eabi/include/c++/10.3.1/cmath **** 
  35:/Library/DaisyToolchain/0.2.0/arm/arm-none-eabi/include/c++/10.3.1/cmath **** //
  36:/Library/DaisyToolchain/0.2.0/arm/arm-none-eabi/include/c++/10.3.1/cmath **** // ISO C++ 14882: 26.5  C library
  37:/Library/DaisyToolchain/0.2.0/arm/arm-none-eabi/include/c++/10.3.1/cmath **** //
  38:/Library/DaisyToolchain/0.2.0/arm/arm-none-eabi/include/c++/10.3.1/cmath **** 
  39:/Library/DaisyToolchain/0.2.0/arm/arm-none-eabi/include/c++/10.3.1/cmath **** #pragma GCC system_header
  40:/Library/DaisyToolchain/0.2.0/arm/arm-none-eabi/include/c++/10.3.1/cmath **** 
ARM GAS  /var/folders/1y/_321xjh9623c014x9_qw12rr0000gn/T//cc1ZQ1Ea.s 			page 111


  41:/Library/DaisyToolchain/0.2.0/arm/arm-none-eabi/include/c++/10.3.1/cmath **** #include <bits/c++config.h>
  42:/Library/DaisyToolchain/0.2.0/arm/arm-none-eabi/include/c++/10.3.1/cmath **** #include <bits/cpp_type_traits.h>
  43:/Library/DaisyToolchain/0.2.0/arm/arm-none-eabi/include/c++/10.3.1/cmath **** #include <ext/type_traits.h>
  44:/Library/DaisyToolchain/0.2.0/arm/arm-none-eabi/include/c++/10.3.1/cmath **** #define _GLIBCXX_INCLUDE_NEXT_C_HEADERS
  45:/Library/DaisyToolchain/0.2.0/arm/arm-none-eabi/include/c++/10.3.1/cmath **** #include_next <math.h>
  46:/Library/DaisyToolchain/0.2.0/arm/arm-none-eabi/include/c++/10.3.1/cmath **** #undef _GLIBCXX_INCLUDE_NEXT_C_HEADERS
  47:/Library/DaisyToolchain/0.2.0/arm/arm-none-eabi/include/c++/10.3.1/cmath **** #include <bits/std_abs.h>
  48:/Library/DaisyToolchain/0.2.0/arm/arm-none-eabi/include/c++/10.3.1/cmath **** 
  49:/Library/DaisyToolchain/0.2.0/arm/arm-none-eabi/include/c++/10.3.1/cmath **** #ifndef _GLIBCXX_CMATH
  50:/Library/DaisyToolchain/0.2.0/arm/arm-none-eabi/include/c++/10.3.1/cmath **** #define _GLIBCXX_CMATH 1
  51:/Library/DaisyToolchain/0.2.0/arm/arm-none-eabi/include/c++/10.3.1/cmath **** 
  52:/Library/DaisyToolchain/0.2.0/arm/arm-none-eabi/include/c++/10.3.1/cmath **** // Get rid of those macros defined in <math.h> in lieu of real functions.
  53:/Library/DaisyToolchain/0.2.0/arm/arm-none-eabi/include/c++/10.3.1/cmath **** #undef div
  54:/Library/DaisyToolchain/0.2.0/arm/arm-none-eabi/include/c++/10.3.1/cmath **** #undef acos
  55:/Library/DaisyToolchain/0.2.0/arm/arm-none-eabi/include/c++/10.3.1/cmath **** #undef asin
  56:/Library/DaisyToolchain/0.2.0/arm/arm-none-eabi/include/c++/10.3.1/cmath **** #undef atan
  57:/Library/DaisyToolchain/0.2.0/arm/arm-none-eabi/include/c++/10.3.1/cmath **** #undef atan2
  58:/Library/DaisyToolchain/0.2.0/arm/arm-none-eabi/include/c++/10.3.1/cmath **** #undef ceil
  59:/Library/DaisyToolchain/0.2.0/arm/arm-none-eabi/include/c++/10.3.1/cmath **** #undef cos
  60:/Library/DaisyToolchain/0.2.0/arm/arm-none-eabi/include/c++/10.3.1/cmath **** #undef cosh
  61:/Library/DaisyToolchain/0.2.0/arm/arm-none-eabi/include/c++/10.3.1/cmath **** #undef exp
  62:/Library/DaisyToolchain/0.2.0/arm/arm-none-eabi/include/c++/10.3.1/cmath **** #undef fabs
  63:/Library/DaisyToolchain/0.2.0/arm/arm-none-eabi/include/c++/10.3.1/cmath **** #undef floor
  64:/Library/DaisyToolchain/0.2.0/arm/arm-none-eabi/include/c++/10.3.1/cmath **** #undef fmod
  65:/Library/DaisyToolchain/0.2.0/arm/arm-none-eabi/include/c++/10.3.1/cmath **** #undef frexp
  66:/Library/DaisyToolchain/0.2.0/arm/arm-none-eabi/include/c++/10.3.1/cmath **** #undef ldexp
  67:/Library/DaisyToolchain/0.2.0/arm/arm-none-eabi/include/c++/10.3.1/cmath **** #undef log
  68:/Library/DaisyToolchain/0.2.0/arm/arm-none-eabi/include/c++/10.3.1/cmath **** #undef log10
  69:/Library/DaisyToolchain/0.2.0/arm/arm-none-eabi/include/c++/10.3.1/cmath **** #undef modf
  70:/Library/DaisyToolchain/0.2.0/arm/arm-none-eabi/include/c++/10.3.1/cmath **** #undef pow
  71:/Library/DaisyToolchain/0.2.0/arm/arm-none-eabi/include/c++/10.3.1/cmath **** #undef sin
  72:/Library/DaisyToolchain/0.2.0/arm/arm-none-eabi/include/c++/10.3.1/cmath **** #undef sinh
  73:/Library/DaisyToolchain/0.2.0/arm/arm-none-eabi/include/c++/10.3.1/cmath **** #undef sqrt
  74:/Library/DaisyToolchain/0.2.0/arm/arm-none-eabi/include/c++/10.3.1/cmath **** #undef tan
  75:/Library/DaisyToolchain/0.2.0/arm/arm-none-eabi/include/c++/10.3.1/cmath **** #undef tanh
  76:/Library/DaisyToolchain/0.2.0/arm/arm-none-eabi/include/c++/10.3.1/cmath **** 
  77:/Library/DaisyToolchain/0.2.0/arm/arm-none-eabi/include/c++/10.3.1/cmath **** extern "C++"
  78:/Library/DaisyToolchain/0.2.0/arm/arm-none-eabi/include/c++/10.3.1/cmath **** {
  79:/Library/DaisyToolchain/0.2.0/arm/arm-none-eabi/include/c++/10.3.1/cmath **** namespace std _GLIBCXX_VISIBILITY(default)
  80:/Library/DaisyToolchain/0.2.0/arm/arm-none-eabi/include/c++/10.3.1/cmath **** {
  81:/Library/DaisyToolchain/0.2.0/arm/arm-none-eabi/include/c++/10.3.1/cmath **** _GLIBCXX_BEGIN_NAMESPACE_VERSION
  82:/Library/DaisyToolchain/0.2.0/arm/arm-none-eabi/include/c++/10.3.1/cmath **** 
  83:/Library/DaisyToolchain/0.2.0/arm/arm-none-eabi/include/c++/10.3.1/cmath ****   using ::acos;
  84:/Library/DaisyToolchain/0.2.0/arm/arm-none-eabi/include/c++/10.3.1/cmath **** 
  85:/Library/DaisyToolchain/0.2.0/arm/arm-none-eabi/include/c++/10.3.1/cmath **** #ifndef __CORRECT_ISO_CPP_MATH_H_PROTO
  86:/Library/DaisyToolchain/0.2.0/arm/arm-none-eabi/include/c++/10.3.1/cmath ****   inline _GLIBCXX_CONSTEXPR float
  87:/Library/DaisyToolchain/0.2.0/arm/arm-none-eabi/include/c++/10.3.1/cmath ****   acos(float __x)
  88:/Library/DaisyToolchain/0.2.0/arm/arm-none-eabi/include/c++/10.3.1/cmath ****   { return __builtin_acosf(__x); }
  89:/Library/DaisyToolchain/0.2.0/arm/arm-none-eabi/include/c++/10.3.1/cmath **** 
  90:/Library/DaisyToolchain/0.2.0/arm/arm-none-eabi/include/c++/10.3.1/cmath ****   inline _GLIBCXX_CONSTEXPR long double
  91:/Library/DaisyToolchain/0.2.0/arm/arm-none-eabi/include/c++/10.3.1/cmath ****   acos(long double __x)
  92:/Library/DaisyToolchain/0.2.0/arm/arm-none-eabi/include/c++/10.3.1/cmath ****   { return __builtin_acosl(__x); }
  93:/Library/DaisyToolchain/0.2.0/arm/arm-none-eabi/include/c++/10.3.1/cmath **** #endif
  94:/Library/DaisyToolchain/0.2.0/arm/arm-none-eabi/include/c++/10.3.1/cmath **** 
  95:/Library/DaisyToolchain/0.2.0/arm/arm-none-eabi/include/c++/10.3.1/cmath ****   template<typename _Tp>
  96:/Library/DaisyToolchain/0.2.0/arm/arm-none-eabi/include/c++/10.3.1/cmath ****     inline _GLIBCXX_CONSTEXPR
  97:/Library/DaisyToolchain/0.2.0/arm/arm-none-eabi/include/c++/10.3.1/cmath ****     typename __gnu_cxx::__enable_if<__is_integer<_Tp>::__value, 
ARM GAS  /var/folders/1y/_321xjh9623c014x9_qw12rr0000gn/T//cc1ZQ1Ea.s 			page 112


  98:/Library/DaisyToolchain/0.2.0/arm/arm-none-eabi/include/c++/10.3.1/cmath ****                                     double>::__type
  99:/Library/DaisyToolchain/0.2.0/arm/arm-none-eabi/include/c++/10.3.1/cmath ****     acos(_Tp __x)
 100:/Library/DaisyToolchain/0.2.0/arm/arm-none-eabi/include/c++/10.3.1/cmath ****     { return __builtin_acos(__x); }
 101:/Library/DaisyToolchain/0.2.0/arm/arm-none-eabi/include/c++/10.3.1/cmath **** 
 102:/Library/DaisyToolchain/0.2.0/arm/arm-none-eabi/include/c++/10.3.1/cmath ****   using ::asin;
 103:/Library/DaisyToolchain/0.2.0/arm/arm-none-eabi/include/c++/10.3.1/cmath **** 
 104:/Library/DaisyToolchain/0.2.0/arm/arm-none-eabi/include/c++/10.3.1/cmath **** #ifndef __CORRECT_ISO_CPP_MATH_H_PROTO
 105:/Library/DaisyToolchain/0.2.0/arm/arm-none-eabi/include/c++/10.3.1/cmath ****   inline _GLIBCXX_CONSTEXPR float
 106:/Library/DaisyToolchain/0.2.0/arm/arm-none-eabi/include/c++/10.3.1/cmath ****   asin(float __x)
 107:/Library/DaisyToolchain/0.2.0/arm/arm-none-eabi/include/c++/10.3.1/cmath ****   { return __builtin_asinf(__x); }
 108:/Library/DaisyToolchain/0.2.0/arm/arm-none-eabi/include/c++/10.3.1/cmath **** 
 109:/Library/DaisyToolchain/0.2.0/arm/arm-none-eabi/include/c++/10.3.1/cmath ****   inline _GLIBCXX_CONSTEXPR long double
 110:/Library/DaisyToolchain/0.2.0/arm/arm-none-eabi/include/c++/10.3.1/cmath ****   asin(long double __x)
 111:/Library/DaisyToolchain/0.2.0/arm/arm-none-eabi/include/c++/10.3.1/cmath ****   { return __builtin_asinl(__x); }
 112:/Library/DaisyToolchain/0.2.0/arm/arm-none-eabi/include/c++/10.3.1/cmath **** #endif
 113:/Library/DaisyToolchain/0.2.0/arm/arm-none-eabi/include/c++/10.3.1/cmath **** 
 114:/Library/DaisyToolchain/0.2.0/arm/arm-none-eabi/include/c++/10.3.1/cmath ****   template<typename _Tp>
 115:/Library/DaisyToolchain/0.2.0/arm/arm-none-eabi/include/c++/10.3.1/cmath ****     inline _GLIBCXX_CONSTEXPR
 116:/Library/DaisyToolchain/0.2.0/arm/arm-none-eabi/include/c++/10.3.1/cmath ****     typename __gnu_cxx::__enable_if<__is_integer<_Tp>::__value,
 117:/Library/DaisyToolchain/0.2.0/arm/arm-none-eabi/include/c++/10.3.1/cmath ****                                     double>::__type
 118:/Library/DaisyToolchain/0.2.0/arm/arm-none-eabi/include/c++/10.3.1/cmath ****     asin(_Tp __x)
 119:/Library/DaisyToolchain/0.2.0/arm/arm-none-eabi/include/c++/10.3.1/cmath ****     { return __builtin_asin(__x); }
 120:/Library/DaisyToolchain/0.2.0/arm/arm-none-eabi/include/c++/10.3.1/cmath **** 
 121:/Library/DaisyToolchain/0.2.0/arm/arm-none-eabi/include/c++/10.3.1/cmath ****   using ::atan;
 122:/Library/DaisyToolchain/0.2.0/arm/arm-none-eabi/include/c++/10.3.1/cmath **** 
 123:/Library/DaisyToolchain/0.2.0/arm/arm-none-eabi/include/c++/10.3.1/cmath **** #ifndef __CORRECT_ISO_CPP_MATH_H_PROTO
 124:/Library/DaisyToolchain/0.2.0/arm/arm-none-eabi/include/c++/10.3.1/cmath ****   inline _GLIBCXX_CONSTEXPR float
 125:/Library/DaisyToolchain/0.2.0/arm/arm-none-eabi/include/c++/10.3.1/cmath ****   atan(float __x)
 126:/Library/DaisyToolchain/0.2.0/arm/arm-none-eabi/include/c++/10.3.1/cmath ****   { return __builtin_atanf(__x); }
 127:/Library/DaisyToolchain/0.2.0/arm/arm-none-eabi/include/c++/10.3.1/cmath **** 
 128:/Library/DaisyToolchain/0.2.0/arm/arm-none-eabi/include/c++/10.3.1/cmath ****   inline _GLIBCXX_CONSTEXPR long double
 129:/Library/DaisyToolchain/0.2.0/arm/arm-none-eabi/include/c++/10.3.1/cmath ****   atan(long double __x)
 130:/Library/DaisyToolchain/0.2.0/arm/arm-none-eabi/include/c++/10.3.1/cmath ****   { return __builtin_atanl(__x); }
 131:/Library/DaisyToolchain/0.2.0/arm/arm-none-eabi/include/c++/10.3.1/cmath **** #endif
 132:/Library/DaisyToolchain/0.2.0/arm/arm-none-eabi/include/c++/10.3.1/cmath **** 
 133:/Library/DaisyToolchain/0.2.0/arm/arm-none-eabi/include/c++/10.3.1/cmath ****   template<typename _Tp>
 134:/Library/DaisyToolchain/0.2.0/arm/arm-none-eabi/include/c++/10.3.1/cmath ****     inline _GLIBCXX_CONSTEXPR
 135:/Library/DaisyToolchain/0.2.0/arm/arm-none-eabi/include/c++/10.3.1/cmath ****     typename __gnu_cxx::__enable_if<__is_integer<_Tp>::__value,
 136:/Library/DaisyToolchain/0.2.0/arm/arm-none-eabi/include/c++/10.3.1/cmath ****                                     double>::__type
 137:/Library/DaisyToolchain/0.2.0/arm/arm-none-eabi/include/c++/10.3.1/cmath ****     atan(_Tp __x)
 138:/Library/DaisyToolchain/0.2.0/arm/arm-none-eabi/include/c++/10.3.1/cmath ****     { return __builtin_atan(__x); }
 139:/Library/DaisyToolchain/0.2.0/arm/arm-none-eabi/include/c++/10.3.1/cmath **** 
 140:/Library/DaisyToolchain/0.2.0/arm/arm-none-eabi/include/c++/10.3.1/cmath ****   using ::atan2;
 141:/Library/DaisyToolchain/0.2.0/arm/arm-none-eabi/include/c++/10.3.1/cmath **** 
 142:/Library/DaisyToolchain/0.2.0/arm/arm-none-eabi/include/c++/10.3.1/cmath **** #ifndef __CORRECT_ISO_CPP_MATH_H_PROTO
 143:/Library/DaisyToolchain/0.2.0/arm/arm-none-eabi/include/c++/10.3.1/cmath ****   inline _GLIBCXX_CONSTEXPR float
 144:/Library/DaisyToolchain/0.2.0/arm/arm-none-eabi/include/c++/10.3.1/cmath ****   atan2(float __y, float __x)
 145:/Library/DaisyToolchain/0.2.0/arm/arm-none-eabi/include/c++/10.3.1/cmath ****   { return __builtin_atan2f(__y, __x); }
 146:/Library/DaisyToolchain/0.2.0/arm/arm-none-eabi/include/c++/10.3.1/cmath **** 
 147:/Library/DaisyToolchain/0.2.0/arm/arm-none-eabi/include/c++/10.3.1/cmath ****   inline _GLIBCXX_CONSTEXPR long double
 148:/Library/DaisyToolchain/0.2.0/arm/arm-none-eabi/include/c++/10.3.1/cmath ****   atan2(long double __y, long double __x)
 149:/Library/DaisyToolchain/0.2.0/arm/arm-none-eabi/include/c++/10.3.1/cmath ****   { return __builtin_atan2l(__y, __x); }
 150:/Library/DaisyToolchain/0.2.0/arm/arm-none-eabi/include/c++/10.3.1/cmath **** #endif
 151:/Library/DaisyToolchain/0.2.0/arm/arm-none-eabi/include/c++/10.3.1/cmath **** 
 152:/Library/DaisyToolchain/0.2.0/arm/arm-none-eabi/include/c++/10.3.1/cmath ****   template<typename _Tp, typename _Up>
 153:/Library/DaisyToolchain/0.2.0/arm/arm-none-eabi/include/c++/10.3.1/cmath ****     inline _GLIBCXX_CONSTEXPR
 154:/Library/DaisyToolchain/0.2.0/arm/arm-none-eabi/include/c++/10.3.1/cmath ****     typename __gnu_cxx::__promote_2<_Tp, _Up>::__type
ARM GAS  /var/folders/1y/_321xjh9623c014x9_qw12rr0000gn/T//cc1ZQ1Ea.s 			page 113


 155:/Library/DaisyToolchain/0.2.0/arm/arm-none-eabi/include/c++/10.3.1/cmath ****     atan2(_Tp __y, _Up __x)
 156:/Library/DaisyToolchain/0.2.0/arm/arm-none-eabi/include/c++/10.3.1/cmath ****     {
 157:/Library/DaisyToolchain/0.2.0/arm/arm-none-eabi/include/c++/10.3.1/cmath ****       typedef typename __gnu_cxx::__promote_2<_Tp, _Up>::__type __type;
 158:/Library/DaisyToolchain/0.2.0/arm/arm-none-eabi/include/c++/10.3.1/cmath ****       return atan2(__type(__y), __type(__x));
 159:/Library/DaisyToolchain/0.2.0/arm/arm-none-eabi/include/c++/10.3.1/cmath ****     }
 160:/Library/DaisyToolchain/0.2.0/arm/arm-none-eabi/include/c++/10.3.1/cmath **** 
 161:/Library/DaisyToolchain/0.2.0/arm/arm-none-eabi/include/c++/10.3.1/cmath ****   using ::ceil;
 162:/Library/DaisyToolchain/0.2.0/arm/arm-none-eabi/include/c++/10.3.1/cmath **** 
 163:/Library/DaisyToolchain/0.2.0/arm/arm-none-eabi/include/c++/10.3.1/cmath **** #ifndef __CORRECT_ISO_CPP_MATH_H_PROTO
 164:/Library/DaisyToolchain/0.2.0/arm/arm-none-eabi/include/c++/10.3.1/cmath ****   inline _GLIBCXX_CONSTEXPR float
 165:/Library/DaisyToolchain/0.2.0/arm/arm-none-eabi/include/c++/10.3.1/cmath ****   ceil(float __x)
 166:/Library/DaisyToolchain/0.2.0/arm/arm-none-eabi/include/c++/10.3.1/cmath ****   { return __builtin_ceilf(__x); }
 167:/Library/DaisyToolchain/0.2.0/arm/arm-none-eabi/include/c++/10.3.1/cmath **** 
 168:/Library/DaisyToolchain/0.2.0/arm/arm-none-eabi/include/c++/10.3.1/cmath ****   inline _GLIBCXX_CONSTEXPR long double
 169:/Library/DaisyToolchain/0.2.0/arm/arm-none-eabi/include/c++/10.3.1/cmath ****   ceil(long double __x)
 170:/Library/DaisyToolchain/0.2.0/arm/arm-none-eabi/include/c++/10.3.1/cmath ****   { return __builtin_ceill(__x); }
 171:/Library/DaisyToolchain/0.2.0/arm/arm-none-eabi/include/c++/10.3.1/cmath **** #endif
 172:/Library/DaisyToolchain/0.2.0/arm/arm-none-eabi/include/c++/10.3.1/cmath **** 
 173:/Library/DaisyToolchain/0.2.0/arm/arm-none-eabi/include/c++/10.3.1/cmath ****   template<typename _Tp>
 174:/Library/DaisyToolchain/0.2.0/arm/arm-none-eabi/include/c++/10.3.1/cmath ****     inline _GLIBCXX_CONSTEXPR
 175:/Library/DaisyToolchain/0.2.0/arm/arm-none-eabi/include/c++/10.3.1/cmath ****     typename __gnu_cxx::__enable_if<__is_integer<_Tp>::__value, 
 176:/Library/DaisyToolchain/0.2.0/arm/arm-none-eabi/include/c++/10.3.1/cmath ****                                     double>::__type
 177:/Library/DaisyToolchain/0.2.0/arm/arm-none-eabi/include/c++/10.3.1/cmath ****     ceil(_Tp __x)
 178:/Library/DaisyToolchain/0.2.0/arm/arm-none-eabi/include/c++/10.3.1/cmath ****     { return __builtin_ceil(__x); }
 179:/Library/DaisyToolchain/0.2.0/arm/arm-none-eabi/include/c++/10.3.1/cmath **** 
 180:/Library/DaisyToolchain/0.2.0/arm/arm-none-eabi/include/c++/10.3.1/cmath ****   using ::cos;
 181:/Library/DaisyToolchain/0.2.0/arm/arm-none-eabi/include/c++/10.3.1/cmath **** 
 182:/Library/DaisyToolchain/0.2.0/arm/arm-none-eabi/include/c++/10.3.1/cmath **** #ifndef __CORRECT_ISO_CPP_MATH_H_PROTO
 183:/Library/DaisyToolchain/0.2.0/arm/arm-none-eabi/include/c++/10.3.1/cmath ****   inline _GLIBCXX_CONSTEXPR float
 184:/Library/DaisyToolchain/0.2.0/arm/arm-none-eabi/include/c++/10.3.1/cmath ****   cos(float __x)
 185:/Library/DaisyToolchain/0.2.0/arm/arm-none-eabi/include/c++/10.3.1/cmath ****   { return __builtin_cosf(__x); }
 3781              		.loc 15 185 26 view .LVU838
 3782 0050 B0EE680A 		vmov.f32	s0, s17
 3783 0054 FFF7FEFF 		bl	cosf
 3784              	.LVL259:
 3785              		.loc 15 185 26 view .LVU839
 3786              	.LBE1167:
 3787              	.LBE1166:
 315:../../libDaisy//src/hid/disp/display.h ****         start_y = -sin(start_angle_rad) * radius;
 3788              		.loc 4 315 17 view .LVU840
 3789 0058 07EE907A 		vmov	s15, r7	@ int
 313:../../libDaisy//src/hid/disp/display.h **** 
 3790              		.loc 4 313 25 view .LVU841
 3791 005c B7EECAAB 		vcvt.f32.f64	s20, d10
 3792              	.LVL260:
 3793              	.LBB1170:
 3794              	.LBI1166:
 184:/Library/DaisyToolchain/0.2.0/arm/arm-none-eabi/include/c++/10.3.1/cmath ****   { return __builtin_cosf(__x); }
 3795              		.loc 15 184 3 is_stmt 1 view .LVU842
 3796              	.LBB1168:
 3797              		.loc 15 185 5 view .LVU843
 3798              		.loc 15 185 5 is_stmt 0 view .LVU844
 3799              	.LBE1168:
 3800              	.LBE1170:
 315:../../libDaisy//src/hid/disp/display.h ****         start_y = -sin(start_angle_rad) * radius;
 3801              		.loc 4 315 17 view .LVU845
 3802 0060 F8EE679A 		vcvt.f32.u32	s19, s15
ARM GAS  /var/folders/1y/_321xjh9623c014x9_qw12rr0000gn/T//cc1ZQ1Ea.s 			page 114


 3803              	.LBB1171:
 3804              	.LBB1169:
 3805              		.loc 15 185 26 view .LVU846
 3806 0064 B0EE408A 		vmov.f32	s16, s0
 3807              	.LBE1169:
 3808              	.LBE1171:
 3809              	.LBB1172:
 3810              	.LBB1173:
 186:/Library/DaisyToolchain/0.2.0/arm/arm-none-eabi/include/c++/10.3.1/cmath **** 
 187:/Library/DaisyToolchain/0.2.0/arm/arm-none-eabi/include/c++/10.3.1/cmath ****   inline _GLIBCXX_CONSTEXPR long double
 188:/Library/DaisyToolchain/0.2.0/arm/arm-none-eabi/include/c++/10.3.1/cmath ****   cos(long double __x)
 189:/Library/DaisyToolchain/0.2.0/arm/arm-none-eabi/include/c++/10.3.1/cmath ****   { return __builtin_cosl(__x); }
 190:/Library/DaisyToolchain/0.2.0/arm/arm-none-eabi/include/c++/10.3.1/cmath **** #endif
 191:/Library/DaisyToolchain/0.2.0/arm/arm-none-eabi/include/c++/10.3.1/cmath **** 
 192:/Library/DaisyToolchain/0.2.0/arm/arm-none-eabi/include/c++/10.3.1/cmath ****   template<typename _Tp>
 193:/Library/DaisyToolchain/0.2.0/arm/arm-none-eabi/include/c++/10.3.1/cmath ****     inline _GLIBCXX_CONSTEXPR
 194:/Library/DaisyToolchain/0.2.0/arm/arm-none-eabi/include/c++/10.3.1/cmath ****     typename __gnu_cxx::__enable_if<__is_integer<_Tp>::__value,
 195:/Library/DaisyToolchain/0.2.0/arm/arm-none-eabi/include/c++/10.3.1/cmath ****                                     double>::__type
 196:/Library/DaisyToolchain/0.2.0/arm/arm-none-eabi/include/c++/10.3.1/cmath ****     cos(_Tp __x)
 197:/Library/DaisyToolchain/0.2.0/arm/arm-none-eabi/include/c++/10.3.1/cmath ****     { return __builtin_cos(__x); }
 198:/Library/DaisyToolchain/0.2.0/arm/arm-none-eabi/include/c++/10.3.1/cmath **** 
 199:/Library/DaisyToolchain/0.2.0/arm/arm-none-eabi/include/c++/10.3.1/cmath ****   using ::cosh;
 200:/Library/DaisyToolchain/0.2.0/arm/arm-none-eabi/include/c++/10.3.1/cmath **** 
 201:/Library/DaisyToolchain/0.2.0/arm/arm-none-eabi/include/c++/10.3.1/cmath **** #ifndef __CORRECT_ISO_CPP_MATH_H_PROTO
 202:/Library/DaisyToolchain/0.2.0/arm/arm-none-eabi/include/c++/10.3.1/cmath ****   inline _GLIBCXX_CONSTEXPR float
 203:/Library/DaisyToolchain/0.2.0/arm/arm-none-eabi/include/c++/10.3.1/cmath ****   cosh(float __x)
 204:/Library/DaisyToolchain/0.2.0/arm/arm-none-eabi/include/c++/10.3.1/cmath ****   { return __builtin_coshf(__x); }
 205:/Library/DaisyToolchain/0.2.0/arm/arm-none-eabi/include/c++/10.3.1/cmath **** 
 206:/Library/DaisyToolchain/0.2.0/arm/arm-none-eabi/include/c++/10.3.1/cmath ****   inline _GLIBCXX_CONSTEXPR long double
 207:/Library/DaisyToolchain/0.2.0/arm/arm-none-eabi/include/c++/10.3.1/cmath ****   cosh(long double __x)
 208:/Library/DaisyToolchain/0.2.0/arm/arm-none-eabi/include/c++/10.3.1/cmath ****   { return __builtin_coshl(__x); }
 209:/Library/DaisyToolchain/0.2.0/arm/arm-none-eabi/include/c++/10.3.1/cmath **** #endif
 210:/Library/DaisyToolchain/0.2.0/arm/arm-none-eabi/include/c++/10.3.1/cmath **** 
 211:/Library/DaisyToolchain/0.2.0/arm/arm-none-eabi/include/c++/10.3.1/cmath ****   template<typename _Tp>
 212:/Library/DaisyToolchain/0.2.0/arm/arm-none-eabi/include/c++/10.3.1/cmath ****     inline _GLIBCXX_CONSTEXPR
 213:/Library/DaisyToolchain/0.2.0/arm/arm-none-eabi/include/c++/10.3.1/cmath ****     typename __gnu_cxx::__enable_if<__is_integer<_Tp>::__value,
 214:/Library/DaisyToolchain/0.2.0/arm/arm-none-eabi/include/c++/10.3.1/cmath ****                                     double>::__type
 215:/Library/DaisyToolchain/0.2.0/arm/arm-none-eabi/include/c++/10.3.1/cmath ****     cosh(_Tp __x)
 216:/Library/DaisyToolchain/0.2.0/arm/arm-none-eabi/include/c++/10.3.1/cmath ****     { return __builtin_cosh(__x); }
 217:/Library/DaisyToolchain/0.2.0/arm/arm-none-eabi/include/c++/10.3.1/cmath **** 
 218:/Library/DaisyToolchain/0.2.0/arm/arm-none-eabi/include/c++/10.3.1/cmath ****   using ::exp;
 219:/Library/DaisyToolchain/0.2.0/arm/arm-none-eabi/include/c++/10.3.1/cmath **** 
 220:/Library/DaisyToolchain/0.2.0/arm/arm-none-eabi/include/c++/10.3.1/cmath **** #ifndef __CORRECT_ISO_CPP_MATH_H_PROTO
 221:/Library/DaisyToolchain/0.2.0/arm/arm-none-eabi/include/c++/10.3.1/cmath ****   inline _GLIBCXX_CONSTEXPR float
 222:/Library/DaisyToolchain/0.2.0/arm/arm-none-eabi/include/c++/10.3.1/cmath ****   exp(float __x)
 223:/Library/DaisyToolchain/0.2.0/arm/arm-none-eabi/include/c++/10.3.1/cmath ****   { return __builtin_expf(__x); }
 224:/Library/DaisyToolchain/0.2.0/arm/arm-none-eabi/include/c++/10.3.1/cmath **** 
 225:/Library/DaisyToolchain/0.2.0/arm/arm-none-eabi/include/c++/10.3.1/cmath ****   inline _GLIBCXX_CONSTEXPR long double
 226:/Library/DaisyToolchain/0.2.0/arm/arm-none-eabi/include/c++/10.3.1/cmath ****   exp(long double __x)
 227:/Library/DaisyToolchain/0.2.0/arm/arm-none-eabi/include/c++/10.3.1/cmath ****   { return __builtin_expl(__x); }
 228:/Library/DaisyToolchain/0.2.0/arm/arm-none-eabi/include/c++/10.3.1/cmath **** #endif
 229:/Library/DaisyToolchain/0.2.0/arm/arm-none-eabi/include/c++/10.3.1/cmath **** 
 230:/Library/DaisyToolchain/0.2.0/arm/arm-none-eabi/include/c++/10.3.1/cmath ****   template<typename _Tp>
 231:/Library/DaisyToolchain/0.2.0/arm/arm-none-eabi/include/c++/10.3.1/cmath ****     inline _GLIBCXX_CONSTEXPR
 232:/Library/DaisyToolchain/0.2.0/arm/arm-none-eabi/include/c++/10.3.1/cmath ****     typename __gnu_cxx::__enable_if<__is_integer<_Tp>::__value,
 233:/Library/DaisyToolchain/0.2.0/arm/arm-none-eabi/include/c++/10.3.1/cmath ****                                     double>::__type
 234:/Library/DaisyToolchain/0.2.0/arm/arm-none-eabi/include/c++/10.3.1/cmath ****     exp(_Tp __x)
ARM GAS  /var/folders/1y/_321xjh9623c014x9_qw12rr0000gn/T//cc1ZQ1Ea.s 			page 115


 235:/Library/DaisyToolchain/0.2.0/arm/arm-none-eabi/include/c++/10.3.1/cmath ****     { return __builtin_exp(__x); }
 236:/Library/DaisyToolchain/0.2.0/arm/arm-none-eabi/include/c++/10.3.1/cmath **** 
 237:/Library/DaisyToolchain/0.2.0/arm/arm-none-eabi/include/c++/10.3.1/cmath ****   using ::fabs;
 238:/Library/DaisyToolchain/0.2.0/arm/arm-none-eabi/include/c++/10.3.1/cmath **** 
 239:/Library/DaisyToolchain/0.2.0/arm/arm-none-eabi/include/c++/10.3.1/cmath **** #ifndef __CORRECT_ISO_CPP_MATH_H_PROTO
 240:/Library/DaisyToolchain/0.2.0/arm/arm-none-eabi/include/c++/10.3.1/cmath ****   inline _GLIBCXX_CONSTEXPR float
 241:/Library/DaisyToolchain/0.2.0/arm/arm-none-eabi/include/c++/10.3.1/cmath ****   fabs(float __x)
 242:/Library/DaisyToolchain/0.2.0/arm/arm-none-eabi/include/c++/10.3.1/cmath ****   { return __builtin_fabsf(__x); }
 243:/Library/DaisyToolchain/0.2.0/arm/arm-none-eabi/include/c++/10.3.1/cmath **** 
 244:/Library/DaisyToolchain/0.2.0/arm/arm-none-eabi/include/c++/10.3.1/cmath ****   inline _GLIBCXX_CONSTEXPR long double
 245:/Library/DaisyToolchain/0.2.0/arm/arm-none-eabi/include/c++/10.3.1/cmath ****   fabs(long double __x)
 246:/Library/DaisyToolchain/0.2.0/arm/arm-none-eabi/include/c++/10.3.1/cmath ****   { return __builtin_fabsl(__x); }
 247:/Library/DaisyToolchain/0.2.0/arm/arm-none-eabi/include/c++/10.3.1/cmath **** #endif
 248:/Library/DaisyToolchain/0.2.0/arm/arm-none-eabi/include/c++/10.3.1/cmath **** 
 249:/Library/DaisyToolchain/0.2.0/arm/arm-none-eabi/include/c++/10.3.1/cmath ****   template<typename _Tp>
 250:/Library/DaisyToolchain/0.2.0/arm/arm-none-eabi/include/c++/10.3.1/cmath ****     inline _GLIBCXX_CONSTEXPR
 251:/Library/DaisyToolchain/0.2.0/arm/arm-none-eabi/include/c++/10.3.1/cmath ****     typename __gnu_cxx::__enable_if<__is_integer<_Tp>::__value,
 252:/Library/DaisyToolchain/0.2.0/arm/arm-none-eabi/include/c++/10.3.1/cmath ****                                     double>::__type
 253:/Library/DaisyToolchain/0.2.0/arm/arm-none-eabi/include/c++/10.3.1/cmath ****     fabs(_Tp __x)
 254:/Library/DaisyToolchain/0.2.0/arm/arm-none-eabi/include/c++/10.3.1/cmath ****     { return __builtin_fabs(__x); }
 255:/Library/DaisyToolchain/0.2.0/arm/arm-none-eabi/include/c++/10.3.1/cmath **** 
 256:/Library/DaisyToolchain/0.2.0/arm/arm-none-eabi/include/c++/10.3.1/cmath ****   using ::floor;
 257:/Library/DaisyToolchain/0.2.0/arm/arm-none-eabi/include/c++/10.3.1/cmath **** 
 258:/Library/DaisyToolchain/0.2.0/arm/arm-none-eabi/include/c++/10.3.1/cmath **** #ifndef __CORRECT_ISO_CPP_MATH_H_PROTO
 259:/Library/DaisyToolchain/0.2.0/arm/arm-none-eabi/include/c++/10.3.1/cmath ****   inline _GLIBCXX_CONSTEXPR float
 260:/Library/DaisyToolchain/0.2.0/arm/arm-none-eabi/include/c++/10.3.1/cmath ****   floor(float __x)
 261:/Library/DaisyToolchain/0.2.0/arm/arm-none-eabi/include/c++/10.3.1/cmath ****   { return __builtin_floorf(__x); }
 262:/Library/DaisyToolchain/0.2.0/arm/arm-none-eabi/include/c++/10.3.1/cmath **** 
 263:/Library/DaisyToolchain/0.2.0/arm/arm-none-eabi/include/c++/10.3.1/cmath ****   inline _GLIBCXX_CONSTEXPR long double
 264:/Library/DaisyToolchain/0.2.0/arm/arm-none-eabi/include/c++/10.3.1/cmath ****   floor(long double __x)
 265:/Library/DaisyToolchain/0.2.0/arm/arm-none-eabi/include/c++/10.3.1/cmath ****   { return __builtin_floorl(__x); }
 266:/Library/DaisyToolchain/0.2.0/arm/arm-none-eabi/include/c++/10.3.1/cmath **** #endif
 267:/Library/DaisyToolchain/0.2.0/arm/arm-none-eabi/include/c++/10.3.1/cmath **** 
 268:/Library/DaisyToolchain/0.2.0/arm/arm-none-eabi/include/c++/10.3.1/cmath ****   template<typename _Tp>
 269:/Library/DaisyToolchain/0.2.0/arm/arm-none-eabi/include/c++/10.3.1/cmath ****     inline _GLIBCXX_CONSTEXPR
 270:/Library/DaisyToolchain/0.2.0/arm/arm-none-eabi/include/c++/10.3.1/cmath ****     typename __gnu_cxx::__enable_if<__is_integer<_Tp>::__value,
 271:/Library/DaisyToolchain/0.2.0/arm/arm-none-eabi/include/c++/10.3.1/cmath ****                                     double>::__type
 272:/Library/DaisyToolchain/0.2.0/arm/arm-none-eabi/include/c++/10.3.1/cmath ****     floor(_Tp __x)
 273:/Library/DaisyToolchain/0.2.0/arm/arm-none-eabi/include/c++/10.3.1/cmath ****     { return __builtin_floor(__x); }
 274:/Library/DaisyToolchain/0.2.0/arm/arm-none-eabi/include/c++/10.3.1/cmath **** 
 275:/Library/DaisyToolchain/0.2.0/arm/arm-none-eabi/include/c++/10.3.1/cmath ****   using ::fmod;
 276:/Library/DaisyToolchain/0.2.0/arm/arm-none-eabi/include/c++/10.3.1/cmath **** 
 277:/Library/DaisyToolchain/0.2.0/arm/arm-none-eabi/include/c++/10.3.1/cmath **** #ifndef __CORRECT_ISO_CPP_MATH_H_PROTO
 278:/Library/DaisyToolchain/0.2.0/arm/arm-none-eabi/include/c++/10.3.1/cmath ****   inline _GLIBCXX_CONSTEXPR float
 279:/Library/DaisyToolchain/0.2.0/arm/arm-none-eabi/include/c++/10.3.1/cmath ****   fmod(float __x, float __y)
 280:/Library/DaisyToolchain/0.2.0/arm/arm-none-eabi/include/c++/10.3.1/cmath ****   { return __builtin_fmodf(__x, __y); }
 281:/Library/DaisyToolchain/0.2.0/arm/arm-none-eabi/include/c++/10.3.1/cmath **** 
 282:/Library/DaisyToolchain/0.2.0/arm/arm-none-eabi/include/c++/10.3.1/cmath ****   inline _GLIBCXX_CONSTEXPR long double
 283:/Library/DaisyToolchain/0.2.0/arm/arm-none-eabi/include/c++/10.3.1/cmath ****   fmod(long double __x, long double __y)
 284:/Library/DaisyToolchain/0.2.0/arm/arm-none-eabi/include/c++/10.3.1/cmath ****   { return __builtin_fmodl(__x, __y); }
 285:/Library/DaisyToolchain/0.2.0/arm/arm-none-eabi/include/c++/10.3.1/cmath **** #endif
 286:/Library/DaisyToolchain/0.2.0/arm/arm-none-eabi/include/c++/10.3.1/cmath **** 
 287:/Library/DaisyToolchain/0.2.0/arm/arm-none-eabi/include/c++/10.3.1/cmath ****   template<typename _Tp, typename _Up>
 288:/Library/DaisyToolchain/0.2.0/arm/arm-none-eabi/include/c++/10.3.1/cmath ****     inline _GLIBCXX_CONSTEXPR
 289:/Library/DaisyToolchain/0.2.0/arm/arm-none-eabi/include/c++/10.3.1/cmath ****     typename __gnu_cxx::__promote_2<_Tp, _Up>::__type
 290:/Library/DaisyToolchain/0.2.0/arm/arm-none-eabi/include/c++/10.3.1/cmath ****     fmod(_Tp __x, _Up __y)
 291:/Library/DaisyToolchain/0.2.0/arm/arm-none-eabi/include/c++/10.3.1/cmath ****     {
ARM GAS  /var/folders/1y/_321xjh9623c014x9_qw12rr0000gn/T//cc1ZQ1Ea.s 			page 116


 292:/Library/DaisyToolchain/0.2.0/arm/arm-none-eabi/include/c++/10.3.1/cmath ****       typedef typename __gnu_cxx::__promote_2<_Tp, _Up>::__type __type;
 293:/Library/DaisyToolchain/0.2.0/arm/arm-none-eabi/include/c++/10.3.1/cmath ****       return fmod(__type(__x), __type(__y));
 294:/Library/DaisyToolchain/0.2.0/arm/arm-none-eabi/include/c++/10.3.1/cmath ****     }
 295:/Library/DaisyToolchain/0.2.0/arm/arm-none-eabi/include/c++/10.3.1/cmath **** 
 296:/Library/DaisyToolchain/0.2.0/arm/arm-none-eabi/include/c++/10.3.1/cmath ****   using ::frexp;
 297:/Library/DaisyToolchain/0.2.0/arm/arm-none-eabi/include/c++/10.3.1/cmath **** 
 298:/Library/DaisyToolchain/0.2.0/arm/arm-none-eabi/include/c++/10.3.1/cmath **** #ifndef __CORRECT_ISO_CPP_MATH_H_PROTO
 299:/Library/DaisyToolchain/0.2.0/arm/arm-none-eabi/include/c++/10.3.1/cmath ****   inline float
 300:/Library/DaisyToolchain/0.2.0/arm/arm-none-eabi/include/c++/10.3.1/cmath ****   frexp(float __x, int* __exp)
 301:/Library/DaisyToolchain/0.2.0/arm/arm-none-eabi/include/c++/10.3.1/cmath ****   { return __builtin_frexpf(__x, __exp); }
 302:/Library/DaisyToolchain/0.2.0/arm/arm-none-eabi/include/c++/10.3.1/cmath **** 
 303:/Library/DaisyToolchain/0.2.0/arm/arm-none-eabi/include/c++/10.3.1/cmath ****   inline long double
 304:/Library/DaisyToolchain/0.2.0/arm/arm-none-eabi/include/c++/10.3.1/cmath ****   frexp(long double __x, int* __exp)
 305:/Library/DaisyToolchain/0.2.0/arm/arm-none-eabi/include/c++/10.3.1/cmath ****   { return __builtin_frexpl(__x, __exp); }
 306:/Library/DaisyToolchain/0.2.0/arm/arm-none-eabi/include/c++/10.3.1/cmath **** #endif
 307:/Library/DaisyToolchain/0.2.0/arm/arm-none-eabi/include/c++/10.3.1/cmath **** 
 308:/Library/DaisyToolchain/0.2.0/arm/arm-none-eabi/include/c++/10.3.1/cmath ****   template<typename _Tp>
 309:/Library/DaisyToolchain/0.2.0/arm/arm-none-eabi/include/c++/10.3.1/cmath ****     inline _GLIBCXX_CONSTEXPR
 310:/Library/DaisyToolchain/0.2.0/arm/arm-none-eabi/include/c++/10.3.1/cmath ****     typename __gnu_cxx::__enable_if<__is_integer<_Tp>::__value, 
 311:/Library/DaisyToolchain/0.2.0/arm/arm-none-eabi/include/c++/10.3.1/cmath ****                                     double>::__type
 312:/Library/DaisyToolchain/0.2.0/arm/arm-none-eabi/include/c++/10.3.1/cmath ****     frexp(_Tp __x, int* __exp)
 313:/Library/DaisyToolchain/0.2.0/arm/arm-none-eabi/include/c++/10.3.1/cmath ****     { return __builtin_frexp(__x, __exp); }
 314:/Library/DaisyToolchain/0.2.0/arm/arm-none-eabi/include/c++/10.3.1/cmath **** 
 315:/Library/DaisyToolchain/0.2.0/arm/arm-none-eabi/include/c++/10.3.1/cmath ****   using ::ldexp;
 316:/Library/DaisyToolchain/0.2.0/arm/arm-none-eabi/include/c++/10.3.1/cmath **** 
 317:/Library/DaisyToolchain/0.2.0/arm/arm-none-eabi/include/c++/10.3.1/cmath **** #ifndef __CORRECT_ISO_CPP_MATH_H_PROTO
 318:/Library/DaisyToolchain/0.2.0/arm/arm-none-eabi/include/c++/10.3.1/cmath ****   inline _GLIBCXX_CONSTEXPR float
 319:/Library/DaisyToolchain/0.2.0/arm/arm-none-eabi/include/c++/10.3.1/cmath ****   ldexp(float __x, int __exp)
 320:/Library/DaisyToolchain/0.2.0/arm/arm-none-eabi/include/c++/10.3.1/cmath ****   { return __builtin_ldexpf(__x, __exp); }
 321:/Library/DaisyToolchain/0.2.0/arm/arm-none-eabi/include/c++/10.3.1/cmath **** 
 322:/Library/DaisyToolchain/0.2.0/arm/arm-none-eabi/include/c++/10.3.1/cmath ****   inline _GLIBCXX_CONSTEXPR long double
 323:/Library/DaisyToolchain/0.2.0/arm/arm-none-eabi/include/c++/10.3.1/cmath ****   ldexp(long double __x, int __exp)
 324:/Library/DaisyToolchain/0.2.0/arm/arm-none-eabi/include/c++/10.3.1/cmath ****   { return __builtin_ldexpl(__x, __exp); }
 325:/Library/DaisyToolchain/0.2.0/arm/arm-none-eabi/include/c++/10.3.1/cmath **** #endif
 326:/Library/DaisyToolchain/0.2.0/arm/arm-none-eabi/include/c++/10.3.1/cmath **** 
 327:/Library/DaisyToolchain/0.2.0/arm/arm-none-eabi/include/c++/10.3.1/cmath ****   template<typename _Tp>
 328:/Library/DaisyToolchain/0.2.0/arm/arm-none-eabi/include/c++/10.3.1/cmath ****     inline _GLIBCXX_CONSTEXPR
 329:/Library/DaisyToolchain/0.2.0/arm/arm-none-eabi/include/c++/10.3.1/cmath ****     typename __gnu_cxx::__enable_if<__is_integer<_Tp>::__value, 
 330:/Library/DaisyToolchain/0.2.0/arm/arm-none-eabi/include/c++/10.3.1/cmath ****                                     double>::__type
 331:/Library/DaisyToolchain/0.2.0/arm/arm-none-eabi/include/c++/10.3.1/cmath ****     ldexp(_Tp __x, int __exp)
 332:/Library/DaisyToolchain/0.2.0/arm/arm-none-eabi/include/c++/10.3.1/cmath ****     { return __builtin_ldexp(__x, __exp); }
 333:/Library/DaisyToolchain/0.2.0/arm/arm-none-eabi/include/c++/10.3.1/cmath **** 
 334:/Library/DaisyToolchain/0.2.0/arm/arm-none-eabi/include/c++/10.3.1/cmath ****   using ::log;
 335:/Library/DaisyToolchain/0.2.0/arm/arm-none-eabi/include/c++/10.3.1/cmath **** 
 336:/Library/DaisyToolchain/0.2.0/arm/arm-none-eabi/include/c++/10.3.1/cmath **** #ifndef __CORRECT_ISO_CPP_MATH_H_PROTO
 337:/Library/DaisyToolchain/0.2.0/arm/arm-none-eabi/include/c++/10.3.1/cmath ****   inline _GLIBCXX_CONSTEXPR float
 338:/Library/DaisyToolchain/0.2.0/arm/arm-none-eabi/include/c++/10.3.1/cmath ****   log(float __x)
 339:/Library/DaisyToolchain/0.2.0/arm/arm-none-eabi/include/c++/10.3.1/cmath ****   { return __builtin_logf(__x); }
 340:/Library/DaisyToolchain/0.2.0/arm/arm-none-eabi/include/c++/10.3.1/cmath **** 
 341:/Library/DaisyToolchain/0.2.0/arm/arm-none-eabi/include/c++/10.3.1/cmath ****   inline _GLIBCXX_CONSTEXPR long double
 342:/Library/DaisyToolchain/0.2.0/arm/arm-none-eabi/include/c++/10.3.1/cmath ****   log(long double __x)
 343:/Library/DaisyToolchain/0.2.0/arm/arm-none-eabi/include/c++/10.3.1/cmath ****   { return __builtin_logl(__x); }
 344:/Library/DaisyToolchain/0.2.0/arm/arm-none-eabi/include/c++/10.3.1/cmath **** #endif
 345:/Library/DaisyToolchain/0.2.0/arm/arm-none-eabi/include/c++/10.3.1/cmath **** 
 346:/Library/DaisyToolchain/0.2.0/arm/arm-none-eabi/include/c++/10.3.1/cmath ****   template<typename _Tp>
 347:/Library/DaisyToolchain/0.2.0/arm/arm-none-eabi/include/c++/10.3.1/cmath ****     inline _GLIBCXX_CONSTEXPR
 348:/Library/DaisyToolchain/0.2.0/arm/arm-none-eabi/include/c++/10.3.1/cmath ****     typename __gnu_cxx::__enable_if<__is_integer<_Tp>::__value, 
ARM GAS  /var/folders/1y/_321xjh9623c014x9_qw12rr0000gn/T//cc1ZQ1Ea.s 			page 117


 349:/Library/DaisyToolchain/0.2.0/arm/arm-none-eabi/include/c++/10.3.1/cmath ****                                     double>::__type
 350:/Library/DaisyToolchain/0.2.0/arm/arm-none-eabi/include/c++/10.3.1/cmath ****     log(_Tp __x)
 351:/Library/DaisyToolchain/0.2.0/arm/arm-none-eabi/include/c++/10.3.1/cmath ****     { return __builtin_log(__x); }
 352:/Library/DaisyToolchain/0.2.0/arm/arm-none-eabi/include/c++/10.3.1/cmath **** 
 353:/Library/DaisyToolchain/0.2.0/arm/arm-none-eabi/include/c++/10.3.1/cmath ****   using ::log10;
 354:/Library/DaisyToolchain/0.2.0/arm/arm-none-eabi/include/c++/10.3.1/cmath **** 
 355:/Library/DaisyToolchain/0.2.0/arm/arm-none-eabi/include/c++/10.3.1/cmath **** #ifndef __CORRECT_ISO_CPP_MATH_H_PROTO
 356:/Library/DaisyToolchain/0.2.0/arm/arm-none-eabi/include/c++/10.3.1/cmath ****   inline _GLIBCXX_CONSTEXPR float
 357:/Library/DaisyToolchain/0.2.0/arm/arm-none-eabi/include/c++/10.3.1/cmath ****   log10(float __x)
 358:/Library/DaisyToolchain/0.2.0/arm/arm-none-eabi/include/c++/10.3.1/cmath ****   { return __builtin_log10f(__x); }
 359:/Library/DaisyToolchain/0.2.0/arm/arm-none-eabi/include/c++/10.3.1/cmath **** 
 360:/Library/DaisyToolchain/0.2.0/arm/arm-none-eabi/include/c++/10.3.1/cmath ****   inline _GLIBCXX_CONSTEXPR long double
 361:/Library/DaisyToolchain/0.2.0/arm/arm-none-eabi/include/c++/10.3.1/cmath ****   log10(long double __x)
 362:/Library/DaisyToolchain/0.2.0/arm/arm-none-eabi/include/c++/10.3.1/cmath ****   { return __builtin_log10l(__x); }
 363:/Library/DaisyToolchain/0.2.0/arm/arm-none-eabi/include/c++/10.3.1/cmath **** #endif
 364:/Library/DaisyToolchain/0.2.0/arm/arm-none-eabi/include/c++/10.3.1/cmath **** 
 365:/Library/DaisyToolchain/0.2.0/arm/arm-none-eabi/include/c++/10.3.1/cmath ****   template<typename _Tp>
 366:/Library/DaisyToolchain/0.2.0/arm/arm-none-eabi/include/c++/10.3.1/cmath ****     inline _GLIBCXX_CONSTEXPR
 367:/Library/DaisyToolchain/0.2.0/arm/arm-none-eabi/include/c++/10.3.1/cmath ****     typename __gnu_cxx::__enable_if<__is_integer<_Tp>::__value,
 368:/Library/DaisyToolchain/0.2.0/arm/arm-none-eabi/include/c++/10.3.1/cmath ****                                     double>::__type
 369:/Library/DaisyToolchain/0.2.0/arm/arm-none-eabi/include/c++/10.3.1/cmath ****     log10(_Tp __x)
 370:/Library/DaisyToolchain/0.2.0/arm/arm-none-eabi/include/c++/10.3.1/cmath ****     { return __builtin_log10(__x); }
 371:/Library/DaisyToolchain/0.2.0/arm/arm-none-eabi/include/c++/10.3.1/cmath **** 
 372:/Library/DaisyToolchain/0.2.0/arm/arm-none-eabi/include/c++/10.3.1/cmath ****   using ::modf;
 373:/Library/DaisyToolchain/0.2.0/arm/arm-none-eabi/include/c++/10.3.1/cmath **** 
 374:/Library/DaisyToolchain/0.2.0/arm/arm-none-eabi/include/c++/10.3.1/cmath **** #ifndef __CORRECT_ISO_CPP_MATH_H_PROTO
 375:/Library/DaisyToolchain/0.2.0/arm/arm-none-eabi/include/c++/10.3.1/cmath ****   inline float
 376:/Library/DaisyToolchain/0.2.0/arm/arm-none-eabi/include/c++/10.3.1/cmath ****   modf(float __x, float* __iptr)
 377:/Library/DaisyToolchain/0.2.0/arm/arm-none-eabi/include/c++/10.3.1/cmath ****   { return __builtin_modff(__x, __iptr); }
 378:/Library/DaisyToolchain/0.2.0/arm/arm-none-eabi/include/c++/10.3.1/cmath **** 
 379:/Library/DaisyToolchain/0.2.0/arm/arm-none-eabi/include/c++/10.3.1/cmath ****   inline long double
 380:/Library/DaisyToolchain/0.2.0/arm/arm-none-eabi/include/c++/10.3.1/cmath ****   modf(long double __x, long double* __iptr)
 381:/Library/DaisyToolchain/0.2.0/arm/arm-none-eabi/include/c++/10.3.1/cmath ****   { return __builtin_modfl(__x, __iptr); }
 382:/Library/DaisyToolchain/0.2.0/arm/arm-none-eabi/include/c++/10.3.1/cmath **** #endif
 383:/Library/DaisyToolchain/0.2.0/arm/arm-none-eabi/include/c++/10.3.1/cmath **** 
 384:/Library/DaisyToolchain/0.2.0/arm/arm-none-eabi/include/c++/10.3.1/cmath ****   using ::pow;
 385:/Library/DaisyToolchain/0.2.0/arm/arm-none-eabi/include/c++/10.3.1/cmath **** 
 386:/Library/DaisyToolchain/0.2.0/arm/arm-none-eabi/include/c++/10.3.1/cmath **** #ifndef __CORRECT_ISO_CPP_MATH_H_PROTO
 387:/Library/DaisyToolchain/0.2.0/arm/arm-none-eabi/include/c++/10.3.1/cmath ****   inline _GLIBCXX_CONSTEXPR float
 388:/Library/DaisyToolchain/0.2.0/arm/arm-none-eabi/include/c++/10.3.1/cmath ****   pow(float __x, float __y)
 389:/Library/DaisyToolchain/0.2.0/arm/arm-none-eabi/include/c++/10.3.1/cmath ****   { return __builtin_powf(__x, __y); }
 390:/Library/DaisyToolchain/0.2.0/arm/arm-none-eabi/include/c++/10.3.1/cmath **** 
 391:/Library/DaisyToolchain/0.2.0/arm/arm-none-eabi/include/c++/10.3.1/cmath ****   inline _GLIBCXX_CONSTEXPR long double
 392:/Library/DaisyToolchain/0.2.0/arm/arm-none-eabi/include/c++/10.3.1/cmath ****   pow(long double __x, long double __y)
 393:/Library/DaisyToolchain/0.2.0/arm/arm-none-eabi/include/c++/10.3.1/cmath ****   { return __builtin_powl(__x, __y); }
 394:/Library/DaisyToolchain/0.2.0/arm/arm-none-eabi/include/c++/10.3.1/cmath **** 
 395:/Library/DaisyToolchain/0.2.0/arm/arm-none-eabi/include/c++/10.3.1/cmath **** #if __cplusplus < 201103L
 396:/Library/DaisyToolchain/0.2.0/arm/arm-none-eabi/include/c++/10.3.1/cmath ****   // _GLIBCXX_RESOLVE_LIB_DEFECTS
 397:/Library/DaisyToolchain/0.2.0/arm/arm-none-eabi/include/c++/10.3.1/cmath ****   // DR 550. What should the return type of pow(float,int) be?
 398:/Library/DaisyToolchain/0.2.0/arm/arm-none-eabi/include/c++/10.3.1/cmath ****   inline double
 399:/Library/DaisyToolchain/0.2.0/arm/arm-none-eabi/include/c++/10.3.1/cmath ****   pow(double __x, int __i)
 400:/Library/DaisyToolchain/0.2.0/arm/arm-none-eabi/include/c++/10.3.1/cmath ****   { return __builtin_powi(__x, __i); }
 401:/Library/DaisyToolchain/0.2.0/arm/arm-none-eabi/include/c++/10.3.1/cmath **** 
 402:/Library/DaisyToolchain/0.2.0/arm/arm-none-eabi/include/c++/10.3.1/cmath ****   inline float
 403:/Library/DaisyToolchain/0.2.0/arm/arm-none-eabi/include/c++/10.3.1/cmath ****   pow(float __x, int __n)
 404:/Library/DaisyToolchain/0.2.0/arm/arm-none-eabi/include/c++/10.3.1/cmath ****   { return __builtin_powif(__x, __n); }
 405:/Library/DaisyToolchain/0.2.0/arm/arm-none-eabi/include/c++/10.3.1/cmath **** 
ARM GAS  /var/folders/1y/_321xjh9623c014x9_qw12rr0000gn/T//cc1ZQ1Ea.s 			page 118


 406:/Library/DaisyToolchain/0.2.0/arm/arm-none-eabi/include/c++/10.3.1/cmath ****   inline long double
 407:/Library/DaisyToolchain/0.2.0/arm/arm-none-eabi/include/c++/10.3.1/cmath ****   pow(long double __x, int __n)
 408:/Library/DaisyToolchain/0.2.0/arm/arm-none-eabi/include/c++/10.3.1/cmath ****   { return __builtin_powil(__x, __n); }
 409:/Library/DaisyToolchain/0.2.0/arm/arm-none-eabi/include/c++/10.3.1/cmath **** #endif
 410:/Library/DaisyToolchain/0.2.0/arm/arm-none-eabi/include/c++/10.3.1/cmath **** #endif
 411:/Library/DaisyToolchain/0.2.0/arm/arm-none-eabi/include/c++/10.3.1/cmath **** 
 412:/Library/DaisyToolchain/0.2.0/arm/arm-none-eabi/include/c++/10.3.1/cmath ****   template<typename _Tp, typename _Up>
 413:/Library/DaisyToolchain/0.2.0/arm/arm-none-eabi/include/c++/10.3.1/cmath ****     inline _GLIBCXX_CONSTEXPR
 414:/Library/DaisyToolchain/0.2.0/arm/arm-none-eabi/include/c++/10.3.1/cmath ****     typename __gnu_cxx::__promote_2<_Tp, _Up>::__type
 415:/Library/DaisyToolchain/0.2.0/arm/arm-none-eabi/include/c++/10.3.1/cmath ****     pow(_Tp __x, _Up __y)
 416:/Library/DaisyToolchain/0.2.0/arm/arm-none-eabi/include/c++/10.3.1/cmath ****     {
 417:/Library/DaisyToolchain/0.2.0/arm/arm-none-eabi/include/c++/10.3.1/cmath ****       typedef typename __gnu_cxx::__promote_2<_Tp, _Up>::__type __type;
 418:/Library/DaisyToolchain/0.2.0/arm/arm-none-eabi/include/c++/10.3.1/cmath ****       return pow(__type(__x), __type(__y));
 419:/Library/DaisyToolchain/0.2.0/arm/arm-none-eabi/include/c++/10.3.1/cmath ****     }
 420:/Library/DaisyToolchain/0.2.0/arm/arm-none-eabi/include/c++/10.3.1/cmath **** 
 421:/Library/DaisyToolchain/0.2.0/arm/arm-none-eabi/include/c++/10.3.1/cmath ****   using ::sin;
 422:/Library/DaisyToolchain/0.2.0/arm/arm-none-eabi/include/c++/10.3.1/cmath **** 
 423:/Library/DaisyToolchain/0.2.0/arm/arm-none-eabi/include/c++/10.3.1/cmath **** #ifndef __CORRECT_ISO_CPP_MATH_H_PROTO
 424:/Library/DaisyToolchain/0.2.0/arm/arm-none-eabi/include/c++/10.3.1/cmath ****   inline _GLIBCXX_CONSTEXPR float
 425:/Library/DaisyToolchain/0.2.0/arm/arm-none-eabi/include/c++/10.3.1/cmath ****   sin(float __x)
 426:/Library/DaisyToolchain/0.2.0/arm/arm-none-eabi/include/c++/10.3.1/cmath ****   { return __builtin_sinf(__x); }
 3811              		.loc 15 426 26 view .LVU847
 3812 0068 B0EE680A 		vmov.f32	s0, s17
 3813 006c FFF7FEFF 		bl	sinf
 3814              	.LVL261:
 3815              	.LBE1173:
 3816              	.LBE1172:
 316:../../libDaisy//src/hid/disp/display.h ****         end_x   = cos(end_angle_rad) * radius;
 3817              		.loc 4 316 17 view .LVU848
 3818 0070 60EE698A 		vnmul.f32	s17, s0, s19
 3819              	.LVL262:
 3820              	.LBB1175:
 3821              	.LBB1176:
 185:/Library/DaisyToolchain/0.2.0/arm/arm-none-eabi/include/c++/10.3.1/cmath **** 
 3822              		.loc 15 185 26 view .LVU849
 3823 0074 B0EE4A0A 		vmov.f32	s0, s20
 3824 0078 FFF7FEFF 		bl	cosf
 3825              	.LVL263:
 3826 007c B0EE409A 		vmov.f32	s18, s0
 3827              	.LBE1176:
 3828              	.LBE1175:
 3829              	.LBB1178:
 3830              	.LBB1179:
 3831              		.loc 15 426 26 view .LVU850
 3832 0080 B0EE4A0A 		vmov.f32	s0, s20
 3833 0084 FFF7FEFF 		bl	sinf
 3834              	.LVL264:
 3835              	.LBE1179:
 3836              	.LBE1178:
 318:../../libDaisy//src/hid/disp/display.h **** 
 3837              		.loc 4 318 17 view .LVU851
 3838 0088 20EE690A 		vnmul.f32	s0, s0, s19
 315:../../libDaisy//src/hid/disp/display.h ****         start_y = -sin(start_angle_rad) * radius;
 3839              		.loc 4 315 17 view .LVU852
 3840 008c 29EE888A 		vmul.f32	s16, s19, s16
 3841              	.LVL265:
 3842              	.LBB1181:
ARM GAS  /var/folders/1y/_321xjh9623c014x9_qw12rr0000gn/T//cc1ZQ1Ea.s 			page 119


 3843              	.LBI1172:
 425:/Library/DaisyToolchain/0.2.0/arm/arm-none-eabi/include/c++/10.3.1/cmath ****   { return __builtin_sinf(__x); }
 3844              		.loc 15 425 3 is_stmt 1 view .LVU853
 3845              	.LBB1174:
 3846              		.loc 15 426 5 view .LVU854
 3847              		.loc 15 426 5 is_stmt 0 view .LVU855
 3848              	.LBE1174:
 3849              	.LBE1181:
 3850              	.LBB1182:
 3851              	.LBI1175:
 184:/Library/DaisyToolchain/0.2.0/arm/arm-none-eabi/include/c++/10.3.1/cmath ****   { return __builtin_cosf(__x); }
 3852              		.loc 15 184 3 is_stmt 1 view .LVU856
 3853              	.LBB1177:
 185:/Library/DaisyToolchain/0.2.0/arm/arm-none-eabi/include/c++/10.3.1/cmath **** 
 3854              		.loc 15 185 5 view .LVU857
 185:/Library/DaisyToolchain/0.2.0/arm/arm-none-eabi/include/c++/10.3.1/cmath **** 
 3855              		.loc 15 185 5 is_stmt 0 view .LVU858
 3856              	.LBE1177:
 3857              	.LBE1182:
 317:../../libDaisy//src/hid/disp/display.h ****         end_y   = -sin(end_angle_rad) * radius;
 3858              		.loc 4 317 17 view .LVU859
 3859 0090 29EE899A 		vmul.f32	s18, s19, s18
 3860              	.LVL266:
 3861              	.LBB1183:
 3862              	.LBI1178:
 425:/Library/DaisyToolchain/0.2.0/arm/arm-none-eabi/include/c++/10.3.1/cmath ****   { return __builtin_sinf(__x); }
 3863              		.loc 15 425 3 is_stmt 1 view .LVU860
 3864              	.LBB1180:
 3865              		.loc 15 426 5 view .LVU861
 3866              		.loc 15 426 5 is_stmt 0 view .LVU862
 3867              	.LBE1180:
 3868              	.LBE1183:
 322:../../libDaisy//src/hid/disp/display.h ****            < 2.0f)
 3869              		.loc 4 322 25 view .LVU863
 3870 0094 70EE687A 		vsub.f32	s15, s0, s17
 321:../../libDaisy//src/hid/disp/display.h ****                + (end_y - start_y) * (end_y - start_y)
 3871              		.loc 4 321 9 view .LVU864
 3872 0098 F0EE006A 		vmov.f32	s13, #2.0e+0
 321:../../libDaisy//src/hid/disp/display.h ****                + (end_y - start_y) * (end_y - start_y)
 3873              		.loc 4 321 19 view .LVU865
 3874 009c 39EE487A 		vsub.f32	s14, s18, s16
 322:../../libDaisy//src/hid/disp/display.h ****            < 2.0f)
 3875              		.loc 4 322 36 view .LVU866
 3876 00a0 67EEA77A 		vmul.f32	s15, s15, s15
 322:../../libDaisy//src/hid/disp/display.h ****            < 2.0f)
 3877              		.loc 4 322 16 view .LVU867
 3878 00a4 E7EE077A 		vfma.f32	s15, s14, s14
 321:../../libDaisy//src/hid/disp/display.h ****                + (end_y - start_y) * (end_y - start_y)
 3879              		.loc 4 321 9 view .LVU868
 3880 00a8 F4EEE67A 		vcmpe.f32	s15, s13
 3881 00ac F1EE10FA 		vmrs	APSR_nzcv, FPSCR
 3882 00b0 06D5     		bpl	.L298
 325:../../libDaisy//src/hid/disp/display.h ****                 circle = true;
 3883              		.loc 4 325 13 view .LVU869
 3884 00b2 139B     		ldr	r3, [sp, #76]
 3885 00b4 B42B     		cmp	r3, #180
 3886 00b6 40F39680 		ble	.L239
ARM GAS  /var/folders/1y/_321xjh9623c014x9_qw12rr0000gn/T//cc1ZQ1Ea.s 			page 120


 326:../../libDaisy//src/hid/disp/display.h ****             else
 3887              		.loc 4 326 24 view .LVU870
 3888 00ba 4FF00109 		mov	r9, #1
 3889 00be 01E0     		b	.L242
 3890              	.L298:
 304:../../libDaisy//src/hid/disp/display.h **** 
 3891              		.loc 4 304 14 view .LVU871
 3892 00c0 4FF00009 		mov	r9, #0
 3893              	.L242:
 3894              	.LVL267:
 302:../../libDaisy//src/hid/disp/display.h **** 
 3895              		.loc 4 302 27 view .LVU872
 3896 00c4 0124     		movs	r4, #1
 332:../../libDaisy//src/hid/disp/display.h ****         t_y = 0;
 3897              		.loc 4 332 13 view .LVU873
 3898 00c6 7842     		rsbs	r0, r7, #0
 3899              	.LVL268:
 333:../../libDaisy//src/hid/disp/display.h ****         err = 2 - 2 * radius;
 3900              		.loc 4 333 13 view .LVU874
 3901 00c8 4FF0000C 		mov	ip, #0
 3902 00cc 0095     		str	r5, [sp]
 334:../../libDaisy//src/hid/disp/display.h **** 
 3903              		.loc 4 334 17 view .LVU875
 3904 00ce E31B     		subs	r3, r4, r7
 302:../../libDaisy//src/hid/disp/display.h **** 
 3905              		.loc 4 302 17 view .LVU876
 3906 00d0 2146     		mov	r1, r4
 302:../../libDaisy//src/hid/disp/display.h **** 
 3907              		.loc 4 302 22 view .LVU877
 3908 00d2 2746     		mov	r7, r4
 3909              	.LVL269:
 302:../../libDaisy//src/hid/disp/display.h **** 
 3910              		.loc 4 302 12 view .LVU878
 3911 00d4 2246     		mov	r2, r4
 334:../../libDaisy//src/hid/disp/display.h **** 
 3912              		.loc 4 334 17 view .LVU879
 3913 00d6 A340     		lsls	r3, r3, r4
 3914              	.LVL270:
 3915              	.L268:
 338:../../libDaisy//src/hid/disp/display.h ****             {
 3916              		.loc 4 338 13 view .LVU880
 3917 00d8 B9F1000F 		cmp	r9, #0
 3918 00dc 6AD1     		bne	.L244
 343:../../libDaisy//src/hid/disp/display.h ****                 t_exy  = end_x * t_y;
 3919              		.loc 4 343 34 view .LVU881
 3920 00de 4242     		rsbs	r2, r0, #0
 3921              	.LVL271:
 340:../../libDaisy//src/hid/disp/display.h ****                 t_syx  = start_y * t_x;
 3922              		.loc 4 340 24 view .LVU882
 3923 00e0 06EE90CA 		vmov	s13, ip	@ int
 342:../../libDaisy//src/hid/disp/display.h ****                 t_synx = start_y * -t_x;
 3924              		.loc 4 342 34 view .LVU883
 3925 00e4 CCF10001 		rsb	r1, ip, #0
 3926              	.LVL272:
 343:../../libDaisy//src/hid/disp/display.h ****                 t_exy  = end_x * t_y;
 3927              		.loc 4 343 34 view .LVU884
 3928 00e8 07EE102A 		vmov	s14, r2	@ int
ARM GAS  /var/folders/1y/_321xjh9623c014x9_qw12rr0000gn/T//cc1ZQ1Ea.s 			page 121


 340:../../libDaisy//src/hid/disp/display.h ****                 t_syx  = start_y * t_x;
 3929              		.loc 4 340 24 view .LVU885
 3930 00ec B8EEE66A 		vcvt.f32.s32	s12, s13
 342:../../libDaisy//src/hid/disp/display.h ****                 t_synx = start_y * -t_x;
 3931              		.loc 4 342 34 view .LVU886
 3932 00f0 07EE901A 		vmov	s15, r1	@ int
 341:../../libDaisy//src/hid/disp/display.h ****                 t_sxny = start_x * -t_y;
 3933              		.loc 4 341 24 view .LVU887
 3934 00f4 06EE900A 		vmov	s13, r0	@ int
 343:../../libDaisy//src/hid/disp/display.h ****                 t_exy  = end_x * t_y;
 3935              		.loc 4 343 34 view .LVU888
 3936 00f8 B8EEC77A 		vcvt.f32.s32	s14, s14
 349:../../libDaisy//src/hid/disp/display.h ****                 {
 3937              		.loc 4 349 17 view .LVU889
 3938 00fc 139A     		ldr	r2, [sp, #76]
 340:../../libDaisy//src/hid/disp/display.h ****                 t_syx  = start_y * t_x;
 3939              		.loc 4 340 24 view .LVU890
 3940 00fe 66EE084A 		vmul.f32	s9, s12, s16
 3941              	.LVL273:
 342:../../libDaisy//src/hid/disp/display.h ****                 t_synx = start_y * -t_x;
 3942              		.loc 4 342 34 view .LVU891
 3943 0102 F8EEE77A 		vcvt.f32.s32	s15, s15
 349:../../libDaisy//src/hid/disp/display.h ****                 {
 3944              		.loc 4 349 17 view .LVU892
 3945 0106 B42A     		cmp	r2, #180
 343:../../libDaisy//src/hid/disp/display.h ****                 t_exy  = end_x * t_y;
 3946              		.loc 4 343 24 view .LVU893
 3947 0108 27EE284A 		vmul.f32	s8, s14, s17
 341:../../libDaisy//src/hid/disp/display.h ****                 t_sxny = start_x * -t_y;
 3948              		.loc 4 341 24 view .LVU894
 3949 010c F8EEE66A 		vcvt.f32.s32	s13, s13
 342:../../libDaisy//src/hid/disp/display.h ****                 t_synx = start_y * -t_x;
 3950              		.loc 4 342 24 view .LVU895
 3951 0110 67EE885A 		vmul.f32	s11, s15, s16
 351:../../libDaisy//src/hid/disp/display.h ****                     d2 = (t_sxy - t_syx < 0 || t_exy - t_eyx > 0);
 3952              		.loc 4 351 33 view .LVU896
 3953 0114 74EEC43A 		vsub.f32	s7, s9, s8
 341:../../libDaisy//src/hid/disp/display.h ****                 t_sxny = start_x * -t_y;
 3954              		.loc 4 341 24 view .LVU897
 3955 0118 26EEA85A 		vmul.f32	s10, s13, s17
 3956              	.LVL274:
 344:../../libDaisy//src/hid/disp/display.h ****                 t_eyx  = end_y * t_x;
 3957              		.loc 4 344 24 view .LVU898
 3958 011c 26EE096A 		vmul.f32	s12, s12, s18
 3959              	.LVL275:
 345:../../libDaisy//src/hid/disp/display.h ****                 t_exny = end_x * -t_y;
 3960              		.loc 4 345 24 view .LVU899
 3961 0120 66EE806A 		vmul.f32	s13, s13, s0
 3962              	.LVL276:
 346:../../libDaisy//src/hid/disp/display.h ****                 t_eynx = end_y * -t_x;
 3963              		.loc 4 346 24 view .LVU900
 3964 0124 67EE897A 		vmul.f32	s15, s15, s18
 3965              	.LVL277:
 347:../../libDaisy//src/hid/disp/display.h **** 
 3966              		.loc 4 347 24 view .LVU901
 3967 0128 27EE007A 		vmul.f32	s14, s14, s0
 3968              	.LVL278:
ARM GAS  /var/folders/1y/_321xjh9623c014x9_qw12rr0000gn/T//cc1ZQ1Ea.s 			page 122


 351:../../libDaisy//src/hid/disp/display.h ****                     d2 = (t_sxy - t_syx < 0 || t_exy - t_eyx > 0);
 3969              		.loc 4 351 46 view .LVU902
 3970 012c F5EEC03A 		vcmpe.f32	s7, #0
 349:../../libDaisy//src/hid/disp/display.h ****                 {
 3971              		.loc 4 349 17 view .LVU903
 3972 0130 40F3F280 		ble	.L245
 351:../../libDaisy//src/hid/disp/display.h ****                     d2 = (t_sxy - t_syx < 0 || t_exy - t_eyx > 0);
 3973              		.loc 4 351 46 view .LVU904
 3974 0134 F1EE10FA 		vmrs	APSR_nzcv, FPSCR
 3975 0138 00F17F81 		bmi	.L271
 351:../../libDaisy//src/hid/disp/display.h ****                     d2 = (t_sxy - t_syx < 0 || t_exy - t_eyx > 0);
 3976              		.loc 4 351 55 discriminator 2 view .LVU905
 3977 013c 76EE473A 		vsub.f32	s7, s12, s14
 352:../../libDaisy//src/hid/disp/display.h ****                     d3 = (t_sxny - t_syx < 0 || t_exny - t_eyx > 0);
 3978              		.loc 4 352 33 discriminator 2 view .LVU906
 3979 0140 74EEC54A 		vsub.f32	s9, s9, s10
 3980              	.LVL279:
 351:../../libDaisy//src/hid/disp/display.h ****                     d2 = (t_sxy - t_syx < 0 || t_exy - t_eyx > 0);
 3981              		.loc 4 351 46 discriminator 2 view .LVU907
 3982 0144 F5EEC03A 		vcmpe.f32	s7, #0
 3983 0148 F1EE10FA 		vmrs	APSR_nzcv, FPSCR
 352:../../libDaisy//src/hid/disp/display.h ****                     d3 = (t_sxny - t_syx < 0 || t_exny - t_eyx > 0);
 3984              		.loc 4 352 45 discriminator 2 view .LVU908
 3985 014c F5EEC04A 		vcmpe.f32	s9, #0
 351:../../libDaisy//src/hid/disp/display.h ****                     d2 = (t_sxy - t_syx < 0 || t_exy - t_eyx > 0);
 3986              		.loc 4 351 46 discriminator 2 view .LVU909
 3987 0150 CCBF     		ite	gt
 3988 0152 0122     		movgt	r2, #1
 3989 0154 0022     		movle	r2, #0
 3990              	.LVL280:
 352:../../libDaisy//src/hid/disp/display.h ****                     d3 = (t_sxny - t_syx < 0 || t_exny - t_eyx > 0);
 3991              		.loc 4 352 45 discriminator 2 view .LVU910
 3992 0156 F1EE10FA 		vmrs	APSR_nzcv, FPSCR
 3993 015a 00F17781 		bmi	.L272
 3994              	.L314:
 352:../../libDaisy//src/hid/disp/display.h ****                     d3 = (t_sxny - t_syx < 0 || t_exny - t_eyx > 0);
 3995              		.loc 4 352 54 discriminator 2 view .LVU911
 3996 015e 36EE666A 		vsub.f32	s12, s12, s13
 3997              	.LVL281:
 353:../../libDaisy//src/hid/disp/display.h ****                     d4 = (t_sxny - t_synx < 0 || t_exny - t_eynx > 0);
 3998              		.loc 4 353 34 discriminator 2 view .LVU912
 3999 0162 35EEC55A 		vsub.f32	s10, s11, s10
 4000              	.LVL282:
 352:../../libDaisy//src/hid/disp/display.h ****                     d3 = (t_sxny - t_syx < 0 || t_exny - t_eyx > 0);
 4001              		.loc 4 352 45 discriminator 2 view .LVU913
 4002 0166 B5EEC06A 		vcmpe.f32	s12, #0
 4003 016a F1EE10FA 		vmrs	APSR_nzcv, FPSCR
 353:../../libDaisy//src/hid/disp/display.h ****                     d4 = (t_sxny - t_synx < 0 || t_exny - t_eynx > 0);
 4004              		.loc 4 353 46 discriminator 2 view .LVU914
 4005 016e B5EEC05A 		vcmpe.f32	s10, #0
 352:../../libDaisy//src/hid/disp/display.h ****                     d3 = (t_sxny - t_syx < 0 || t_exny - t_eyx > 0);
 4006              		.loc 4 352 45 discriminator 2 view .LVU915
 4007 0172 CCBF     		ite	gt
 4008 0174 0121     		movgt	r1, #1
 4009 0176 0021     		movle	r1, #0
 4010              	.LVL283:
 353:../../libDaisy//src/hid/disp/display.h ****                     d4 = (t_sxny - t_synx < 0 || t_exny - t_eynx > 0);
ARM GAS  /var/folders/1y/_321xjh9623c014x9_qw12rr0000gn/T//cc1ZQ1Ea.s 			page 123


 4011              		.loc 4 353 46 discriminator 2 view .LVU916
 4012 0178 F1EE10FA 		vmrs	APSR_nzcv, FPSCR
 4013 017c 00F16F81 		bmi	.L273
 4014              	.L315:
 353:../../libDaisy//src/hid/disp/display.h ****                     d4 = (t_sxny - t_synx < 0 || t_exny - t_eynx > 0);
 4015              		.loc 4 353 56 discriminator 2 view .LVU917
 4016 0180 77EEE66A 		vsub.f32	s13, s15, s13
 4017              	.LVL284:
 353:../../libDaisy//src/hid/disp/display.h ****                     d4 = (t_sxny - t_synx < 0 || t_exny - t_eynx > 0);
 4018              		.loc 4 353 46 discriminator 2 view .LVU918
 4019 0184 F5EEC06A 		vcmpe.f32	s13, #0
 4020 0188 F1EE10FA 		vmrs	APSR_nzcv, FPSCR
 4021 018c CCBF     		ite	gt
 4022 018e 0127     		movgt	r7, #1
 4023              	.LVL285:
 353:../../libDaisy//src/hid/disp/display.h ****                     d4 = (t_sxny - t_synx < 0 || t_exny - t_eynx > 0);
 4024              		.loc 4 353 46 discriminator 2 view .LVU919
 4025 0190 0027     		movle	r7, #0
 4026              	.L248:
 4027              	.LVL286:
 354:../../libDaisy//src/hid/disp/display.h ****                 }
 4028              		.loc 4 354 34 discriminator 6 view .LVU920
 4029 0192 75EEC45A 		vsub.f32	s11, s11, s8
 4030              	.LVL287:
 354:../../libDaisy//src/hid/disp/display.h ****                 }
 4031              		.loc 4 354 47 discriminator 6 view .LVU921
 4032 0196 F5EEC05A 		vcmpe.f32	s11, #0
 4033 019a F1EE10FA 		vmrs	APSR_nzcv, FPSCR
 4034 019e 00F14781 		bmi	.L274
 4035              	.L304:
 361:../../libDaisy//src/hid/disp/display.h ****                 }
 4036              		.loc 4 361 57 discriminator 1 view .LVU922
 4037 01a2 77EEC77A 		vsub.f32	s15, s15, s14
 4038              	.LVL288:
 361:../../libDaisy//src/hid/disp/display.h ****                 }
 4039              		.loc 4 361 47 discriminator 1 view .LVU923
 4040 01a6 F5EEC07A 		vcmpe.f32	s15, #0
 4041 01aa F1EE10FA 		vmrs	APSR_nzcv, FPSCR
 4042 01ae CCBF     		ite	gt
 4043 01b0 0124     		movgt	r4, #1
 4044              	.LVL289:
 361:../../libDaisy//src/hid/disp/display.h ****                 }
 4045              		.loc 4 361 47 discriminator 1 view .LVU924
 4046 01b2 0024     		movle	r4, #0
 4047              	.LVL290:
 4048              	.L244:
 365:../../libDaisy//src/hid/disp/display.h ****                 ((ChildType*)(this))
 4049              		.loc 4 365 13 view .LVU925
 4050 01b4 002A     		cmp	r2, #0
 4051 01b6 40F08A80 		bne	.L305
 4052              	.L256:
 368:../../libDaisy//src/hid/disp/display.h ****                 ((ChildType*)(this))
 4053              		.loc 4 368 13 view .LVU926
 4054 01ba 0029     		cmp	r1, #0
 4055 01bc 64D1     		bne	.L306
 4056              	.L258:
 371:../../libDaisy//src/hid/disp/display.h ****                 ((ChildType*)(this))
ARM GAS  /var/folders/1y/_321xjh9623c014x9_qw12rr0000gn/T//cc1ZQ1Ea.s 			page 124


 4057              		.loc 4 371 13 view .LVU927
 4058 01be BFB9     		cbnz	r7, .L307
 4059              	.L260:
 374:../../libDaisy//src/hid/disp/display.h ****                 ((ChildType*)(this))
 4060              		.loc 4 374 13 view .LVU928
 4061 01c0 C4BB     		cbnz	r4, .L308
 4062              	.L262:
 4063              	.LVL291:
 379:../../libDaisy//src/hid/disp/display.h ****             {
 4064              		.loc 4 379 13 view .LVU929
 4065 01c2 9C45     		cmp	ip, r3
 4066 01c4 58DB     		blt	.L279
 4067              	.L310:
 381:../../libDaisy//src/hid/disp/display.h ****                 err = err + (t_y * 2 + 1);
 4068              		.loc 4 381 17 view .LVU930
 4069 01c6 0CF1010C 		add	ip, ip, #1
 4070              	.LVL292:
 382:../../libDaisy//src/hid/disp/display.h ****                 if(-t_x == t_y && e2 <= t_x)
 4071              		.loc 4 382 38 view .LVU931
 4072 01ca 03EB4C0E 		add	lr, r3, ip, lsl #1
 383:../../libDaisy//src/hid/disp/display.h ****                 {
 4073              		.loc 4 383 17 view .LVU932
 4074 01ce 1CEB000F 		cmn	ip, r0
 382:../../libDaisy//src/hid/disp/display.h ****                 if(-t_x == t_y && e2 <= t_x)
 4075              		.loc 4 382 21 view .LVU933
 4076 01d2 0EF1010E 		add	lr, lr, #1
 4077              	.LVL293:
 383:../../libDaisy//src/hid/disp/display.h ****                 {
 4078              		.loc 4 383 17 view .LVU934
 4079 01d6 00F0C080 		beq	.L309
 4080              	.LVL294:
 4081              	.L264:
 388:../../libDaisy//src/hid/disp/display.h ****             {
 4082              		.loc 4 388 13 view .LVU935
 4083 01da 9842     		cmp	r0, r3
 4084 01dc 4FDB     		blt	.L265
 4085              	.L280:
 388:../../libDaisy//src/hid/disp/display.h ****             {
 4086              		.loc 4 388 13 view .LVU936
 4087 01de 7346     		mov	r3, lr
 4088              	.LVL295:
 4089              	.L266:
 393:../../libDaisy//src/hid/disp/display.h ****     }
 4090              		.loc 4 393 21 is_stmt 1 view .LVU937
 4091 01e0 0028     		cmp	r0, #0
 4092 01e2 7FF779AF 		ble	.L268
 4093              	.LVL296:
 4094              	.L239:
 394:../../libDaisy//src/hid/disp/display.h **** 
 4095              		.loc 4 394 5 is_stmt 0 view .LVU938
 4096 01e6 03B0     		add	sp, sp, #12
 4097              		.cfi_remember_state
 4098              		.cfi_def_cfa_offset 60
 4099              		@ sp needed
 4100 01e8 BDEC068B 		vldm	sp!, {d8-d10}
 4101              		.cfi_restore 84
 4102              		.cfi_restore 85
ARM GAS  /var/folders/1y/_321xjh9623c014x9_qw12rr0000gn/T//cc1ZQ1Ea.s 			page 125


 4103              		.cfi_restore 82
 4104              		.cfi_restore 83
 4105              		.cfi_restore 80
 4106              		.cfi_restore 81
 4107              		.cfi_def_cfa_offset 36
 4108              	.LVL297:
 394:../../libDaisy//src/hid/disp/display.h **** 
 4109              		.loc 4 394 5 view .LVU939
 4110 01ec BDE8F08F 		pop	{r4, r5, r6, r7, r8, r9, r10, fp, pc}
 4111              	.LVL298:
 4112              	.L307:
 4113              		.cfi_restore_state
 373:../../libDaisy//src/hid/disp/display.h ****             if(d4)
 4114              		.loc 4 373 43 view .LVU940
 4115 01f0 009D     		ldr	r5, [sp]
 4116 01f2 A6EB0C0E 		sub	lr, r6, ip
 4117 01f6 00EB050A 		add	r10, r0, r5
 4118              	.LVL299:
 4119              	.LBB1184:
 4120              	.LBI1184:
  42:../../libDaisy//src/hid/disp/oled_display.h ****     {
 4121              		.loc 3 42 10 is_stmt 1 view .LVU941
 4122              	.LBB1185:
 4123              	.LBI1185:
 352:../../libDaisy//src/dev/oled_ssd130x.h ****     {
 4124              		.loc 12 352 10 view .LVU942
 4125              	.LBB1186:
 354:../../libDaisy//src/dev/oled_ssd130x.h ****             return;
 4126              		.loc 12 354 9 is_stmt 0 view .LVU943
 4127 01fa BAF17F0F 		cmp	r10, #127
 4128 01fe DFD8     		bhi	.L260
 4129 0200 BEF13F0F 		cmp	lr, #63
 4130 0204 DCD8     		bhi	.L260
 357:../../libDaisy//src/dev/oled_ssd130x.h ****         else
 4131              		.loc 12 357 28 view .LVU944
 4132 0206 4FEADE0B 		lsr	fp, lr, #3
 356:../../libDaisy//src/dev/oled_ssd130x.h ****             buffer_[x + (y / 8) * width] |= (1 << (y % 8));
 4133              		.loc 12 356 9 view .LVU945
 4134 020a 019D     		ldr	r5, [sp, #4]
 357:../../libDaisy//src/dev/oled_ssd130x.h ****         else
 4135              		.loc 12 357 42 view .LVU946
 4136 020c 0AEBCB1A 		add	r10, r10, fp, lsl #7
 4137              	.LVL300:
 356:../../libDaisy//src/dev/oled_ssd130x.h ****             buffer_[x + (y / 8) * width] |= (1 << (y % 8));
 4138              		.loc 12 356 9 view .LVU947
 4139 0210 002D     		cmp	r5, #0
 4140 0212 00F0B180 		beq	.L261
 357:../../libDaisy//src/dev/oled_ssd130x.h ****         else
 4141              		.loc 12 357 54 view .LVU948
 4142 0216 0EF0070B 		and	fp, lr, #7
 357:../../libDaisy//src/dev/oled_ssd130x.h ****         else
 4143              		.loc 12 357 42 view .LVU949
 4144 021a C244     		add	r10, r10, r8
 357:../../libDaisy//src/dev/oled_ssd130x.h ****         else
 4145              		.loc 12 357 48 view .LVU950
 4146 021c 4FF0010E 		mov	lr, #1
 4147              	.LVL301:
ARM GAS  /var/folders/1y/_321xjh9623c014x9_qw12rr0000gn/T//cc1ZQ1Ea.s 			page 126


 357:../../libDaisy//src/dev/oled_ssd130x.h ****         else
 4148              		.loc 12 357 48 view .LVU951
 4149 0220 0EFA0BFE 		lsl	lr, lr, fp
 357:../../libDaisy//src/dev/oled_ssd130x.h ****         else
 4150              		.loc 12 357 42 view .LVU952
 4151 0224 9AF814B0 		ldrb	fp, [r10, #20]	@ zero_extendqisi2
 4152 0228 4EEA0B0E 		orr	lr, lr, fp
 4153 022c 8AF814E0 		strb	lr, [r10, #20]
 4154              	.LVL302:
 357:../../libDaisy//src/dev/oled_ssd130x.h ****         else
 4155              		.loc 12 357 42 view .LVU953
 4156              	.LBE1186:
 4157              	.LBE1185:
 4158              	.LBE1184:
 374:../../libDaisy//src/hid/disp/display.h ****                 ((ChildType*)(this))
 4159              		.loc 4 374 13 view .LVU954
 4160 0230 002C     		cmp	r4, #0
 4161 0232 C6D0     		beq	.L262
 4162              	.L308:
 376:../../libDaisy//src/hid/disp/display.h **** 
 4163              		.loc 4 376 43 view .LVU955
 4164 0234 009D     		ldr	r5, [sp]
 4165 0236 A6EB0C0E 		sub	lr, r6, ip
 4166 023a A5EB000A 		sub	r10, r5, r0
 4167              	.LVL303:
 4168              	.LBB1191:
 4169              	.LBI1191:
  42:../../libDaisy//src/hid/disp/oled_display.h ****     {
 4170              		.loc 3 42 10 is_stmt 1 view .LVU956
 4171              	.LBB1192:
 4172              	.LBI1192:
 352:../../libDaisy//src/dev/oled_ssd130x.h ****     {
 4173              		.loc 12 352 10 view .LVU957
 4174              	.LBB1193:
 354:../../libDaisy//src/dev/oled_ssd130x.h ****             return;
 4175              		.loc 12 354 9 is_stmt 0 view .LVU958
 4176 023e BAF17F0F 		cmp	r10, #127
 4177 0242 BED8     		bhi	.L262
 4178 0244 BEF13F0F 		cmp	lr, #63
 4179 0248 BBD8     		bhi	.L262
 357:../../libDaisy//src/dev/oled_ssd130x.h ****         else
 4180              		.loc 12 357 28 view .LVU959
 4181 024a 4FEADE0B 		lsr	fp, lr, #3
 356:../../libDaisy//src/dev/oled_ssd130x.h ****             buffer_[x + (y / 8) * width] |= (1 << (y % 8));
 4182              		.loc 12 356 9 view .LVU960
 4183 024e 019D     		ldr	r5, [sp, #4]
 357:../../libDaisy//src/dev/oled_ssd130x.h ****         else
 4184              		.loc 12 357 42 view .LVU961
 4185 0250 0AEBCB1A 		add	r10, r10, fp, lsl #7
 4186              	.LVL304:
 356:../../libDaisy//src/dev/oled_ssd130x.h ****             buffer_[x + (y / 8) * width] |= (1 << (y % 8));
 4187              		.loc 12 356 9 view .LVU962
 4188 0254 002D     		cmp	r5, #0
 4189 0256 00F0AE80 		beq	.L263
 357:../../libDaisy//src/dev/oled_ssd130x.h ****         else
 4190              		.loc 12 357 54 view .LVU963
 4191 025a 0EF0070B 		and	fp, lr, #7
ARM GAS  /var/folders/1y/_321xjh9623c014x9_qw12rr0000gn/T//cc1ZQ1Ea.s 			page 127


 357:../../libDaisy//src/dev/oled_ssd130x.h ****         else
 4192              		.loc 12 357 42 view .LVU964
 4193 025e C244     		add	r10, r10, r8
 357:../../libDaisy//src/dev/oled_ssd130x.h ****         else
 4194              		.loc 12 357 48 view .LVU965
 4195 0260 4FF0010E 		mov	lr, #1
 4196              	.LVL305:
 357:../../libDaisy//src/dev/oled_ssd130x.h ****         else
 4197              		.loc 12 357 48 view .LVU966
 4198              	.LBE1193:
 4199              	.LBE1192:
 4200              	.LBE1191:
 379:../../libDaisy//src/hid/disp/display.h ****             {
 4201              		.loc 4 379 13 view .LVU967
 4202 0264 9C45     		cmp	ip, r3
 4203              	.LBB1200:
 4204              	.LBB1198:
 4205              	.LBB1196:
 357:../../libDaisy//src/dev/oled_ssd130x.h ****         else
 4206              		.loc 12 357 48 view .LVU968
 4207 0266 0EFA0BFE 		lsl	lr, lr, fp
 357:../../libDaisy//src/dev/oled_ssd130x.h ****         else
 4208              		.loc 12 357 42 view .LVU969
 4209 026a 9AF814B0 		ldrb	fp, [r10, #20]	@ zero_extendqisi2
 4210 026e 4EEA0B0E 		orr	lr, lr, fp
 4211 0272 8AF814E0 		strb	lr, [r10, #20]
 4212              	.LVL306:
 357:../../libDaisy//src/dev/oled_ssd130x.h ****         else
 4213              		.loc 12 357 42 view .LVU970
 4214              	.LBE1196:
 4215              	.LBE1198:
 4216              	.LBE1200:
 379:../../libDaisy//src/hid/disp/display.h ****             {
 4217              		.loc 4 379 13 view .LVU971
 4218 0276 A6DA     		bge	.L310
 4219              	.L279:
 388:../../libDaisy//src/hid/disp/display.h ****             {
 4220              		.loc 4 388 13 view .LVU972
 4221 0278 9842     		cmp	r0, r3
 4222 027a 9E46     		mov	lr, r3
 4223              	.LVL307:
 388:../../libDaisy//src/hid/disp/display.h ****             {
 4224              		.loc 4 388 13 view .LVU973
 4225 027c AFDA     		bge	.L280
 4226              	.LVL308:
 4227              	.L265:
 390:../../libDaisy//src/hid/disp/display.h ****                 err = err + (t_x * 2 + 1);
 4228              		.loc 4 390 17 view .LVU974
 4229 027e 0130     		adds	r0, r0, #1
 4230              	.LVL309:
 391:../../libDaisy//src/hid/disp/display.h ****             }
 4231              		.loc 4 391 38 view .LVU975
 4232 0280 0EEB4003 		add	r3, lr, r0, lsl #1
 391:../../libDaisy//src/hid/disp/display.h ****             }
 4233              		.loc 4 391 21 view .LVU976
 4234 0284 0133     		adds	r3, r3, #1
 4235              	.LVL310:
ARM GAS  /var/folders/1y/_321xjh9623c014x9_qw12rr0000gn/T//cc1ZQ1Ea.s 			page 128


 391:../../libDaisy//src/hid/disp/display.h ****             }
 4236              		.loc 4 391 21 view .LVU977
 4237 0286 ABE7     		b	.L266
 4238              	.L306:
 370:../../libDaisy//src/hid/disp/display.h ****             if(d3)
 4239              		.loc 4 370 43 view .LVU978
 4240 0288 009D     		ldr	r5, [sp]
 4241 028a 0CEB060E 		add	lr, ip, r6
 4242 028e 00EB050A 		add	r10, r0, r5
 4243              	.LVL311:
 4244              	.LBB1201:
 4245              	.LBI1201:
  42:../../libDaisy//src/hid/disp/oled_display.h ****     {
 4246              		.loc 3 42 10 is_stmt 1 view .LVU979
 4247              	.LBB1202:
 4248              	.LBI1202:
 352:../../libDaisy//src/dev/oled_ssd130x.h ****     {
 4249              		.loc 12 352 10 view .LVU980
 4250              	.LBB1203:
 354:../../libDaisy//src/dev/oled_ssd130x.h ****             return;
 4251              		.loc 12 354 9 is_stmt 0 view .LVU981
 4252 0292 BAF17F0F 		cmp	r10, #127
 4253 0296 92D8     		bhi	.L258
 4254 0298 BEF13F0F 		cmp	lr, #63
 4255 029c 8FD8     		bhi	.L258
 357:../../libDaisy//src/dev/oled_ssd130x.h ****         else
 4256              		.loc 12 357 28 view .LVU982
 4257 029e 4FEADE0B 		lsr	fp, lr, #3
 356:../../libDaisy//src/dev/oled_ssd130x.h ****             buffer_[x + (y / 8) * width] |= (1 << (y % 8));
 4258              		.loc 12 356 9 view .LVU983
 4259 02a2 019D     		ldr	r5, [sp, #4]
 357:../../libDaisy//src/dev/oled_ssd130x.h ****         else
 4260              		.loc 12 357 42 view .LVU984
 4261 02a4 0AEBCB1A 		add	r10, r10, fp, lsl #7
 4262              	.LVL312:
 356:../../libDaisy//src/dev/oled_ssd130x.h ****             buffer_[x + (y / 8) * width] |= (1 << (y % 8));
 4263              		.loc 12 356 9 view .LVU985
 4264 02a8 002D     		cmp	r5, #0
 4265 02aa 73D0     		beq	.L259
 357:../../libDaisy//src/dev/oled_ssd130x.h ****         else
 4266              		.loc 12 357 54 view .LVU986
 4267 02ac 0EF0070B 		and	fp, lr, #7
 357:../../libDaisy//src/dev/oled_ssd130x.h ****         else
 4268              		.loc 12 357 42 view .LVU987
 4269 02b0 C244     		add	r10, r10, r8
 357:../../libDaisy//src/dev/oled_ssd130x.h ****         else
 4270              		.loc 12 357 48 view .LVU988
 4271 02b2 4FF0010E 		mov	lr, #1
 4272              	.LVL313:
 357:../../libDaisy//src/dev/oled_ssd130x.h ****         else
 4273              		.loc 12 357 48 view .LVU989
 4274 02b6 0EFA0BFE 		lsl	lr, lr, fp
 357:../../libDaisy//src/dev/oled_ssd130x.h ****         else
 4275              		.loc 12 357 42 view .LVU990
 4276 02ba 9AF814B0 		ldrb	fp, [r10, #20]	@ zero_extendqisi2
 4277 02be 4EEA0B0E 		orr	lr, lr, fp
 4278 02c2 8AF814E0 		strb	lr, [r10, #20]
ARM GAS  /var/folders/1y/_321xjh9623c014x9_qw12rr0000gn/T//cc1ZQ1Ea.s 			page 129


 4279              	.LVL314:
 357:../../libDaisy//src/dev/oled_ssd130x.h ****         else
 4280              		.loc 12 357 42 view .LVU991
 4281              	.LBE1203:
 4282              	.LBE1202:
 4283              	.LBE1201:
 371:../../libDaisy//src/hid/disp/display.h ****                 ((ChildType*)(this))
 4284              		.loc 4 371 13 view .LVU992
 4285 02c6 002F     		cmp	r7, #0
 4286 02c8 3FF47AAF 		beq	.L260
 4287 02cc 90E7     		b	.L307
 4288              	.L305:
 367:../../libDaisy//src/hid/disp/display.h ****             if(d2)
 4289              		.loc 4 367 43 view .LVU993
 4290 02ce 009D     		ldr	r5, [sp]
 4291 02d0 0CEB060E 		add	lr, ip, r6
 4292 02d4 A5EB000A 		sub	r10, r5, r0
 4293              	.LVL315:
 4294              	.LBB1208:
 4295              	.LBI1208:
  42:../../libDaisy//src/hid/disp/oled_display.h ****     {
 4296              		.loc 3 42 10 is_stmt 1 view .LVU994
 4297              	.LBB1209:
 4298              	.LBI1209:
 352:../../libDaisy//src/dev/oled_ssd130x.h ****     {
 4299              		.loc 12 352 10 view .LVU995
 4300              	.LBB1210:
 354:../../libDaisy//src/dev/oled_ssd130x.h ****             return;
 4301              		.loc 12 354 9 is_stmt 0 view .LVU996
 4302 02d8 BAF17F0F 		cmp	r10, #127
 4303 02dc 3FF66DAF 		bhi	.L256
 4304 02e0 BEF13F0F 		cmp	lr, #63
 4305 02e4 3FF669AF 		bhi	.L256
 357:../../libDaisy//src/dev/oled_ssd130x.h ****         else
 4306              		.loc 12 357 28 view .LVU997
 4307 02e8 4FEADE0B 		lsr	fp, lr, #3
 356:../../libDaisy//src/dev/oled_ssd130x.h ****             buffer_[x + (y / 8) * width] |= (1 << (y % 8));
 4308              		.loc 12 356 9 view .LVU998
 4309 02ec 019D     		ldr	r5, [sp, #4]
 357:../../libDaisy//src/dev/oled_ssd130x.h ****         else
 4310              		.loc 12 357 42 view .LVU999
 4311 02ee 0AEBCB1A 		add	r10, r10, fp, lsl #7
 4312              	.LVL316:
 356:../../libDaisy//src/dev/oled_ssd130x.h ****             buffer_[x + (y / 8) * width] |= (1 << (y % 8));
 4313              		.loc 12 356 9 view .LVU1000
 4314 02f2 002D     		cmp	r5, #0
 4315 02f4 6DD0     		beq	.L257
 357:../../libDaisy//src/dev/oled_ssd130x.h ****         else
 4316              		.loc 12 357 54 view .LVU1001
 4317 02f6 0EF0070B 		and	fp, lr, #7
 357:../../libDaisy//src/dev/oled_ssd130x.h ****         else
 4318              		.loc 12 357 42 view .LVU1002
 4319 02fa C244     		add	r10, r10, r8
 357:../../libDaisy//src/dev/oled_ssd130x.h ****         else
 4320              		.loc 12 357 48 view .LVU1003
 4321 02fc 4FF0010E 		mov	lr, #1
 4322              	.LVL317:
ARM GAS  /var/folders/1y/_321xjh9623c014x9_qw12rr0000gn/T//cc1ZQ1Ea.s 			page 130


 357:../../libDaisy//src/dev/oled_ssd130x.h ****         else
 4323              		.loc 12 357 48 view .LVU1004
 4324 0300 0EFA0BFE 		lsl	lr, lr, fp
 357:../../libDaisy//src/dev/oled_ssd130x.h ****         else
 4325              		.loc 12 357 42 view .LVU1005
 4326 0304 9AF814B0 		ldrb	fp, [r10, #20]	@ zero_extendqisi2
 4327 0308 4EEA0B0E 		orr	lr, lr, fp
 4328 030c 8AF814E0 		strb	lr, [r10, #20]
 4329              	.LVL318:
 357:../../libDaisy//src/dev/oled_ssd130x.h ****         else
 4330              		.loc 12 357 42 view .LVU1006
 4331              	.LBE1210:
 4332              	.LBE1209:
 4333              	.LBE1208:
 368:../../libDaisy//src/hid/disp/display.h ****                 ((ChildType*)(this))
 4334              		.loc 4 368 13 view .LVU1007
 4335 0310 0029     		cmp	r1, #0
 4336 0312 3FF454AF 		beq	.L258
 4337 0316 B7E7     		b	.L306
 4338              	.LVL319:
 4339              	.L245:
 358:../../libDaisy//src/hid/disp/display.h ****                     d2 = (t_sxy - t_syx < 0 && t_exy - t_eyx > 0);
 4340              		.loc 4 358 46 view .LVU1008
 4341 0318 F1EE10FA 		vmrs	APSR_nzcv, FPSCR
 4342 031c 7ED4     		bmi	.L311
 4343 031e 4A46     		mov	r2, r9
 4344              	.L249:
 4345              	.LVL320:
 359:../../libDaisy//src/hid/disp/display.h ****                     d3 = (t_sxny - t_syx < 0 && t_exny - t_eyx > 0);
 4346              		.loc 4 359 33 discriminator 6 view .LVU1009
 4347 0320 74EEC54A 		vsub.f32	s9, s9, s10
 4348              	.LVL321:
 359:../../libDaisy//src/hid/disp/display.h ****                     d3 = (t_sxny - t_syx < 0 && t_exny - t_eyx > 0);
 4349              		.loc 4 359 45 discriminator 6 view .LVU1010
 4350 0324 F5EEC04A 		vcmpe.f32	s9, #0
 4351 0328 F1EE10FA 		vmrs	APSR_nzcv, FPSCR
 4352 032c 6CD4     		bmi	.L312
 359:../../libDaisy//src/hid/disp/display.h ****                     d3 = (t_sxny - t_syx < 0 && t_exny - t_eyx > 0);
 4353              		.loc 4 359 45 view .LVU1011
 4354 032e 0021     		movs	r1, #0
 4355              	.LVL322:
 4356              	.L251:
 360:../../libDaisy//src/hid/disp/display.h ****                     d4 = (t_sxny - t_synx < 0 && t_exny - t_eynx > 0);
 4357              		.loc 4 360 34 discriminator 6 view .LVU1012
 4358 0330 35EEC55A 		vsub.f32	s10, s11, s10
 4359              	.LVL323:
 360:../../libDaisy//src/hid/disp/display.h ****                     d4 = (t_sxny - t_synx < 0 && t_exny - t_eynx > 0);
 4360              		.loc 4 360 46 discriminator 6 view .LVU1013
 4361 0334 B5EEC05A 		vcmpe.f32	s10, #0
 4362 0338 F1EE10FA 		vmrs	APSR_nzcv, FPSCR
 4363 033c 5AD4     		bmi	.L313
 360:../../libDaisy//src/hid/disp/display.h ****                     d4 = (t_sxny - t_synx < 0 && t_exny - t_eynx > 0);
 4364              		.loc 4 360 46 view .LVU1014
 4365 033e 0027     		movs	r7, #0
 4366              	.LVL324:
 4367              	.L253:
 361:../../libDaisy//src/hid/disp/display.h ****                 }
ARM GAS  /var/folders/1y/_321xjh9623c014x9_qw12rr0000gn/T//cc1ZQ1Ea.s 			page 131


 4368              		.loc 4 361 34 discriminator 6 view .LVU1015
 4369 0340 75EEC45A 		vsub.f32	s11, s11, s8
 4370              	.LVL325:
 361:../../libDaisy//src/hid/disp/display.h ****                 }
 4371              		.loc 4 361 47 discriminator 6 view .LVU1016
 4372 0344 F5EEC05A 		vcmpe.f32	s11, #0
 4373 0348 F1EE10FA 		vmrs	APSR_nzcv, FPSCR
 4374 034c 3FF529AF 		bmi	.L304
 361:../../libDaisy//src/hid/disp/display.h ****                 }
 4375              		.loc 4 361 47 view .LVU1017
 4376 0350 0024     		movs	r4, #0
 4377              	.LVL326:
 365:../../libDaisy//src/hid/disp/display.h ****                 ((ChildType*)(this))
 4378              		.loc 4 365 13 view .LVU1018
 4379 0352 002A     		cmp	r2, #0
 4380 0354 3FF431AF 		beq	.L256
 4381 0358 B9E7     		b	.L305
 4382              	.LVL327:
 4383              	.L309:
 383:../../libDaisy//src/hid/disp/display.h ****                 {
 4384              		.loc 4 383 32 discriminator 1 view .LVU1019
 4385 035a 9842     		cmp	r0, r3
 4386 035c 8FDB     		blt	.L265
 385:../../libDaisy//src/hid/disp/display.h ****                 }
 4387              		.loc 4 385 24 view .LVU1020
 4388 035e 0023     		movs	r3, #0
 4389              	.LVL328:
 385:../../libDaisy//src/hid/disp/display.h ****                 }
 4390              		.loc 4 385 24 view .LVU1021
 4391 0360 3BE7     		b	.L264
 4392              	.L317:
 4393 0362 00BFAFF3 		.align	3
 4393      0080
 4394              	.L316:
 4395 0368 7A008BFC 		.word	-57999238
 4396 036c FA210940 		.word	1074340346
 4397 0370 00000000 		.word	0
 4398 0374 00806640 		.word	1080459264
 4399              	.LVL329:
 4400              	.L261:
 4401              	.LBB1215:
 4402              	.LBB1190:
 4403              	.LBB1189:
 4404              	.LBB1187:
 4405              	.LBI1187:
 352:../../libDaisy//src/dev/oled_ssd130x.h ****     {
 4406              		.loc 12 352 10 is_stmt 1 view .LVU1022
 4407              	.LBB1188:
 359:../../libDaisy//src/dev/oled_ssd130x.h ****     }
 4408              		.loc 12 359 42 is_stmt 0 view .LVU1023
 4409 0378 C244     		add	r10, r10, r8
 4410              	.LVL330:
 359:../../libDaisy//src/dev/oled_ssd130x.h ****     }
 4411              		.loc 12 359 49 view .LVU1024
 4412 037a 4FF0010B 		mov	fp, #1
 4413              	.LVL331:
 359:../../libDaisy//src/dev/oled_ssd130x.h ****     }
ARM GAS  /var/folders/1y/_321xjh9623c014x9_qw12rr0000gn/T//cc1ZQ1Ea.s 			page 132


 4414              		.loc 12 359 55 view .LVU1025
 4415 037e 0EF0070E 		and	lr, lr, #7
 4416              	.LVL332:
 359:../../libDaisy//src/dev/oled_ssd130x.h ****     }
 4417              		.loc 12 359 49 view .LVU1026
 4418 0382 0BFA0EFE 		lsl	lr, fp, lr
 359:../../libDaisy//src/dev/oled_ssd130x.h ****     }
 4419              		.loc 12 359 42 view .LVU1027
 4420 0386 9AF814B0 		ldrb	fp, [r10, #20]	@ zero_extendqisi2
 4421 038a 2BEA0E0E 		bic	lr, fp, lr
 4422 038e 8AF814E0 		strb	lr, [r10, #20]
 4423              	.LVL333:
 359:../../libDaisy//src/dev/oled_ssd130x.h ****     }
 4424              		.loc 12 359 42 view .LVU1028
 4425 0392 15E7     		b	.L260
 4426              	.LVL334:
 4427              	.L259:
 359:../../libDaisy//src/dev/oled_ssd130x.h ****     }
 4428              		.loc 12 359 42 view .LVU1029
 4429              	.LBE1188:
 4430              	.LBE1187:
 4431              	.LBE1189:
 4432              	.LBE1190:
 4433              	.LBE1215:
 4434              	.LBB1216:
 4435              	.LBB1207:
 4436              	.LBB1206:
 4437              	.LBB1204:
 4438              	.LBI1204:
 352:../../libDaisy//src/dev/oled_ssd130x.h ****     {
 4439              		.loc 12 352 10 is_stmt 1 view .LVU1030
 4440              	.LBB1205:
 359:../../libDaisy//src/dev/oled_ssd130x.h ****     }
 4441              		.loc 12 359 42 is_stmt 0 view .LVU1031
 4442 0394 C244     		add	r10, r10, r8
 4443              	.LVL335:
 359:../../libDaisy//src/dev/oled_ssd130x.h ****     }
 4444              		.loc 12 359 49 view .LVU1032
 4445 0396 4FF0010B 		mov	fp, #1
 4446              	.LVL336:
 359:../../libDaisy//src/dev/oled_ssd130x.h ****     }
 4447              		.loc 12 359 55 view .LVU1033
 4448 039a 0EF0070E 		and	lr, lr, #7
 4449              	.LVL337:
 359:../../libDaisy//src/dev/oled_ssd130x.h ****     }
 4450              		.loc 12 359 49 view .LVU1034
 4451 039e 0BFA0EFE 		lsl	lr, fp, lr
 359:../../libDaisy//src/dev/oled_ssd130x.h ****     }
 4452              		.loc 12 359 42 view .LVU1035
 4453 03a2 9AF814B0 		ldrb	fp, [r10, #20]	@ zero_extendqisi2
 4454 03a6 2BEA0E0E 		bic	lr, fp, lr
 4455 03aa 8AF814E0 		strb	lr, [r10, #20]
 4456              	.LVL338:
 359:../../libDaisy//src/dev/oled_ssd130x.h ****     }
 4457              		.loc 12 359 42 view .LVU1036
 4458              	.LBE1205:
 4459              	.LBE1204:
ARM GAS  /var/folders/1y/_321xjh9623c014x9_qw12rr0000gn/T//cc1ZQ1Ea.s 			page 133


 4460              	.LBE1206:
 4461              	.LBE1207:
 4462              	.LBE1216:
 371:../../libDaisy//src/hid/disp/display.h ****                 ((ChildType*)(this))
 4463              		.loc 4 371 13 view .LVU1037
 4464 03ae 002F     		cmp	r7, #0
 4465 03b0 3FF406AF 		beq	.L260
 4466 03b4 1CE7     		b	.L307
 4467              	.LVL339:
 4468              	.L263:
 4469              	.LBB1217:
 4470              	.LBB1199:
 4471              	.LBB1197:
 4472              	.LBB1194:
 4473              	.LBI1194:
 352:../../libDaisy//src/dev/oled_ssd130x.h ****     {
 4474              		.loc 12 352 10 is_stmt 1 view .LVU1038
 4475              	.LBB1195:
 359:../../libDaisy//src/dev/oled_ssd130x.h ****     }
 4476              		.loc 12 359 42 is_stmt 0 view .LVU1039
 4477 03b6 C244     		add	r10, r10, r8
 4478              	.LVL340:
 359:../../libDaisy//src/dev/oled_ssd130x.h ****     }
 4479              		.loc 12 359 49 view .LVU1040
 4480 03b8 4FF0010B 		mov	fp, #1
 4481              	.LVL341:
 359:../../libDaisy//src/dev/oled_ssd130x.h ****     }
 4482              		.loc 12 359 55 view .LVU1041
 4483 03bc 0EF0070E 		and	lr, lr, #7
 4484              	.LVL342:
 359:../../libDaisy//src/dev/oled_ssd130x.h ****     }
 4485              		.loc 12 359 49 view .LVU1042
 4486 03c0 0BFA0EFE 		lsl	lr, fp, lr
 359:../../libDaisy//src/dev/oled_ssd130x.h ****     }
 4487              		.loc 12 359 42 view .LVU1043
 4488 03c4 9AF814B0 		ldrb	fp, [r10, #20]	@ zero_extendqisi2
 4489 03c8 2BEA0E0E 		bic	lr, fp, lr
 4490 03cc 8AF814E0 		strb	lr, [r10, #20]
 4491              	.LVL343:
 359:../../libDaisy//src/dev/oled_ssd130x.h ****     }
 4492              		.loc 12 359 42 view .LVU1044
 4493 03d0 F7E6     		b	.L262
 4494              	.LVL344:
 4495              	.L257:
 359:../../libDaisy//src/dev/oled_ssd130x.h ****     }
 4496              		.loc 12 359 42 view .LVU1045
 4497              	.LBE1195:
 4498              	.LBE1194:
 4499              	.LBE1197:
 4500              	.LBE1199:
 4501              	.LBE1217:
 4502              	.LBB1218:
 4503              	.LBB1214:
 4504              	.LBB1213:
 4505              	.LBB1211:
 4506              	.LBI1211:
 352:../../libDaisy//src/dev/oled_ssd130x.h ****     {
ARM GAS  /var/folders/1y/_321xjh9623c014x9_qw12rr0000gn/T//cc1ZQ1Ea.s 			page 134


 4507              		.loc 12 352 10 is_stmt 1 view .LVU1046
 4508              	.LBB1212:
 359:../../libDaisy//src/dev/oled_ssd130x.h ****     }
 4509              		.loc 12 359 42 is_stmt 0 view .LVU1047
 4510 03d2 C244     		add	r10, r10, r8
 4511              	.LVL345:
 359:../../libDaisy//src/dev/oled_ssd130x.h ****     }
 4512              		.loc 12 359 49 view .LVU1048
 4513 03d4 4FF0010B 		mov	fp, #1
 4514              	.LVL346:
 359:../../libDaisy//src/dev/oled_ssd130x.h ****     }
 4515              		.loc 12 359 55 view .LVU1049
 4516 03d8 0EF0070E 		and	lr, lr, #7
 4517              	.LVL347:
 359:../../libDaisy//src/dev/oled_ssd130x.h ****     }
 4518              		.loc 12 359 49 view .LVU1050
 4519 03dc 0BFA0EFE 		lsl	lr, fp, lr
 359:../../libDaisy//src/dev/oled_ssd130x.h ****     }
 4520              		.loc 12 359 42 view .LVU1051
 4521 03e0 9AF814B0 		ldrb	fp, [r10, #20]	@ zero_extendqisi2
 4522 03e4 2BEA0E0E 		bic	lr, fp, lr
 4523 03e8 8AF814E0 		strb	lr, [r10, #20]
 4524              	.LVL348:
 359:../../libDaisy//src/dev/oled_ssd130x.h ****     }
 4525              		.loc 12 359 42 view .LVU1052
 4526              	.LBE1212:
 4527              	.LBE1211:
 4528              	.LBE1213:
 4529              	.LBE1214:
 4530              	.LBE1218:
 368:../../libDaisy//src/hid/disp/display.h ****                 ((ChildType*)(this))
 4531              		.loc 4 368 13 view .LVU1053
 4532 03ec 0029     		cmp	r1, #0
 4533 03ee 3FF4E6AE 		beq	.L258
 4534 03f2 49E7     		b	.L306
 4535              	.LVL349:
 4536              	.L313:
 360:../../libDaisy//src/hid/disp/display.h ****                     d4 = (t_sxny - t_synx < 0 && t_exny - t_eynx > 0);
 4537              		.loc 4 360 56 discriminator 1 view .LVU1054
 4538 03f4 77EEE66A 		vsub.f32	s13, s15, s13
 4539              	.LVL350:
 360:../../libDaisy//src/hid/disp/display.h ****                     d4 = (t_sxny - t_synx < 0 && t_exny - t_eynx > 0);
 4540              		.loc 4 360 46 discriminator 1 view .LVU1055
 4541 03f8 F5EEC06A 		vcmpe.f32	s13, #0
 4542 03fc F1EE10FA 		vmrs	APSR_nzcv, FPSCR
 4543 0400 CCBF     		ite	gt
 4544 0402 0127     		movgt	r7, #1
 4545              	.LVL351:
 360:../../libDaisy//src/hid/disp/display.h ****                     d4 = (t_sxny - t_synx < 0 && t_exny - t_eynx > 0);
 4546              		.loc 4 360 46 discriminator 1 view .LVU1056
 4547 0404 0027     		movle	r7, #0
 4548 0406 9BE7     		b	.L253
 4549              	.LVL352:
 4550              	.L312:
 359:../../libDaisy//src/hid/disp/display.h ****                     d3 = (t_sxny - t_syx < 0 && t_exny - t_eyx > 0);
 4551              		.loc 4 359 54 discriminator 1 view .LVU1057
 4552 0408 36EE666A 		vsub.f32	s12, s12, s13
ARM GAS  /var/folders/1y/_321xjh9623c014x9_qw12rr0000gn/T//cc1ZQ1Ea.s 			page 135


 4553              	.LVL353:
 359:../../libDaisy//src/hid/disp/display.h ****                     d3 = (t_sxny - t_syx < 0 && t_exny - t_eyx > 0);
 4554              		.loc 4 359 45 discriminator 1 view .LVU1058
 4555 040c B5EEC06A 		vcmpe.f32	s12, #0
 4556 0410 F1EE10FA 		vmrs	APSR_nzcv, FPSCR
 4557 0414 CCBF     		ite	gt
 4558 0416 0121     		movgt	r1, #1
 4559 0418 0021     		movle	r1, #0
 4560 041a 89E7     		b	.L251
 4561              	.LVL354:
 4562              	.L311:
 358:../../libDaisy//src/hid/disp/display.h ****                     d2 = (t_sxy - t_syx < 0 && t_exy - t_eyx > 0);
 4563              		.loc 4 358 55 discriminator 1 view .LVU1059
 4564 041c 76EE473A 		vsub.f32	s7, s12, s14
 358:../../libDaisy//src/hid/disp/display.h ****                     d2 = (t_sxy - t_syx < 0 && t_exy - t_eyx > 0);
 4565              		.loc 4 358 46 discriminator 1 view .LVU1060
 4566 0420 F5EEC03A 		vcmpe.f32	s7, #0
 4567 0424 F1EE10FA 		vmrs	APSR_nzcv, FPSCR
 4568 0428 CCBF     		ite	gt
 4569 042a 0122     		movgt	r2, #1
 4570 042c 0022     		movle	r2, #0
 4571 042e 77E7     		b	.L249
 4572              	.LVL355:
 4573              	.L274:
 354:../../libDaisy//src/hid/disp/display.h ****                 }
 4574              		.loc 4 354 47 view .LVU1061
 4575 0430 0124     		movs	r4, #1
 4576              	.LVL356:
 365:../../libDaisy//src/hid/disp/display.h ****                 ((ChildType*)(this))
 4577              		.loc 4 365 13 view .LVU1062
 4578 0432 002A     		cmp	r2, #0
 4579 0434 3FF4C1AE 		beq	.L256
 365:../../libDaisy//src/hid/disp/display.h ****                 ((ChildType*)(this))
 4580              		.loc 4 365 13 view .LVU1063
 4581 0438 49E7     		b	.L305
 4582              	.LVL357:
 4583              	.L271:
 352:../../libDaisy//src/hid/disp/display.h ****                     d3 = (t_sxny - t_syx < 0 || t_exny - t_eyx > 0);
 4584              		.loc 4 352 33 view .LVU1064
 4585 043a 74EEC54A 		vsub.f32	s9, s9, s10
 4586              	.LVL358:
 351:../../libDaisy//src/hid/disp/display.h ****                     d2 = (t_sxy - t_syx < 0 || t_exy - t_eyx > 0);
 4587              		.loc 4 351 46 view .LVU1065
 4588 043e 0122     		movs	r2, #1
 4589              	.LVL359:
 352:../../libDaisy//src/hid/disp/display.h ****                     d3 = (t_sxny - t_syx < 0 || t_exny - t_eyx > 0);
 4590              		.loc 4 352 45 view .LVU1066
 4591 0440 F5EEC04A 		vcmpe.f32	s9, #0
 4592 0444 F1EE10FA 		vmrs	APSR_nzcv, FPSCR
 4593 0448 7FF589AE 		bpl	.L314
 4594              	.L272:
 353:../../libDaisy//src/hid/disp/display.h ****                     d4 = (t_sxny - t_synx < 0 || t_exny - t_eynx > 0);
 4595              		.loc 4 353 34 view .LVU1067
 4596 044c 35EEC55A 		vsub.f32	s10, s11, s10
 4597              	.LVL360:
 352:../../libDaisy//src/hid/disp/display.h ****                     d3 = (t_sxny - t_syx < 0 || t_exny - t_eyx > 0);
 4598              		.loc 4 352 45 view .LVU1068
ARM GAS  /var/folders/1y/_321xjh9623c014x9_qw12rr0000gn/T//cc1ZQ1Ea.s 			page 136


 4599 0450 0121     		movs	r1, #1
 4600              	.LVL361:
 353:../../libDaisy//src/hid/disp/display.h ****                     d4 = (t_sxny - t_synx < 0 || t_exny - t_eynx > 0);
 4601              		.loc 4 353 46 view .LVU1069
 4602 0452 B5EEC05A 		vcmpe.f32	s10, #0
 4603 0456 F1EE10FA 		vmrs	APSR_nzcv, FPSCR
 4604 045a 7FF591AE 		bpl	.L315
 4605              	.LVL362:
 4606              	.L273:
 353:../../libDaisy//src/hid/disp/display.h ****                     d4 = (t_sxny - t_synx < 0 || t_exny - t_eynx > 0);
 4607              		.loc 4 353 46 view .LVU1070
 4608 045e 0127     		movs	r7, #1
 4609              	.LVL363:
 353:../../libDaisy//src/hid/disp/display.h ****                     d4 = (t_sxny - t_synx < 0 || t_exny - t_eynx > 0);
 4610              		.loc 4 353 46 view .LVU1071
 4611 0460 97E6     		b	.L248
 4612              	.LVL364:
 4613              	.L240:
 308:../../libDaisy//src/hid/disp/display.h ****             sweep = -sweep;
 4614              		.loc 4 308 25 view .LVU1072
 4615 0462 DDE91223 		ldrd	r2, r3, [sp, #72]
 4616              	.LVL365:
 308:../../libDaisy//src/hid/disp/display.h ****             sweep = -sweep;
 4617              		.loc 4 308 25 view .LVU1073
 4618 0466 1344     		add	r3, r3, r2
 4619              	.LVL366:
 308:../../libDaisy//src/hid/disp/display.h ****             sweep = -sweep;
 4620              		.loc 4 308 25 view .LVU1074
 4621 0468 06EE102A 		vmov	s12, r2	@ int
 4622 046c 1293     		str	r3, [sp, #72]
 4623 046e 139B     		ldr	r3, [sp, #76]
 4624              	.LVL367:
 308:../../libDaisy//src/hid/disp/display.h ****             sweep = -sweep;
 4625              		.loc 4 308 25 view .LVU1075
 4626 0470 5B42     		rsbs	r3, r3, #0
 4627 0472 1393     		str	r3, [sp, #76]
 4628              	.LVL368:
 308:../../libDaisy//src/hid/disp/display.h ****             sweep = -sweep;
 4629              		.loc 4 308 25 view .LVU1076
 4630 0474 D8E5     		b	.L241
 4631              		.cfi_endproc
 4632              	.LFE5437:
 4634 0476 00BF     		.section	.text._ZN5daisy25OneBitGraphicsDisplayImplINS_11OledDisplayINS_13SSD130xDriverILj128ELj64
 4635              		.align	1
 4636              		.p2align 2,,3
 4637              		.weak	_ZN5daisy25OneBitGraphicsDisplayImplINS_11OledDisplayINS_13SSD130xDriverILj128ELj64ENS_24SSD
 4638              		.syntax unified
 4639              		.thumb
 4640              		.thumb_func
 4642              	_ZN5daisy25OneBitGraphicsDisplayImplINS_11OledDisplayINS_13SSD130xDriverILj128ELj64ENS_24SSD130x4Wi
 4643              	.LVL369:
 4644              	.LFB5436:
 257:../../libDaisy//src/hid/disp/display.h ****                   uint_fast8_t y1,
 4645              		.loc 4 257 10 is_stmt 1 view -0
 4646              		.cfi_startproc
 4647              		@ args = 12, pretend = 0, frame = 24
 4648              		@ frame_needed = 0, uses_anonymous_args = 0
ARM GAS  /var/folders/1y/_321xjh9623c014x9_qw12rr0000gn/T//cc1ZQ1Ea.s 			page 137


 257:../../libDaisy//src/hid/disp/display.h ****                   uint_fast8_t y1,
 4649              		.loc 4 257 10 is_stmt 0 view .LVU1078
 4650 0000 2DE9F04F 		push	{r4, r5, r6, r7, r8, r9, r10, fp, lr}
 4651              		.cfi_def_cfa_offset 36
 4652              		.cfi_offset 4, -36
 4653              		.cfi_offset 5, -32
 4654              		.cfi_offset 6, -28
 4655              		.cfi_offset 7, -24
 4656              		.cfi_offset 8, -20
 4657              		.cfi_offset 9, -16
 4658              		.cfi_offset 10, -12
 4659              		.cfi_offset 11, -8
 4660              		.cfi_offset 14, -4
 4661 0004 87B0     		sub	sp, sp, #28
 4662              		.cfi_def_cfa_offset 64
 257:../../libDaisy//src/hid/disp/display.h ****                   uint_fast8_t y1,
 4663              		.loc 4 257 10 view .LVU1079
 4664 0006 9DF84850 		ldrb	r5, [sp, #72]	@ zero_extendqisi2
 4665 000a 109C     		ldr	r4, [sp, #64]
 4666 000c 2E46     		mov	r6, r5
 4667 000e 0195     		str	r5, [sp, #4]
 4668 0010 9DF84450 		ldrb	r5, [sp, #68]	@ zero_extendqisi2
 4669              	.LBB1288:
 264:../../libDaisy//src/hid/disp/display.h ****         {
 4670              		.loc 4 264 9 view .LVU1080
 4671 0014 9EB3     		cbz	r6, .L319
 4672              	.LVL370:
 264:../../libDaisy//src/hid/disp/display.h ****         {
 4673              		.loc 4 264 9 view .LVU1081
 4674              	.LBE1288:
 4675              	.LBB1410:
 4676              	.LBB1411:
 266:../../libDaisy//src/hid/disp/display.h ****             {
 4677              		.loc 4 266 40 is_stmt 1 view .LVU1082
 4678 0016 9942     		cmp	r1, r3
 4679 0018 2ED8     		bhi	.L318
 4680 001a 9946     		mov	r9, r3
 4681              	.LVL371:
 4682              	.L322:
 4683              	.LBB1412:
 268:../../libDaisy//src/hid/disp/display.h ****                 {
 4684              		.loc 4 268 44 view .LVU1083
 4685 001c A242     		cmp	r2, r4
 4686 001e 28D8     		bhi	.L325
 4687              	.LBB1413:
 4688              	.LBB1414:
 4689              	.LBB1415:
 354:../../libDaisy//src/dev/oled_ssd130x.h ****             return;
 4690              		.loc 12 354 14 is_stmt 0 view .LVU1084
 4691 0020 7F29     		cmp	r1, #127
 4692 0022 1646     		mov	r6, r2
 4693 0024 94BF     		ite	ls
 4694 0026 0023     		movls	r3, #0
 4695 0028 0123     		movhi	r3, #1
 4696 002a 08E0     		b	.L326
 4697              	.LVL372:
 4698              	.L409:
ARM GAS  /var/folders/1y/_321xjh9623c014x9_qw12rr0000gn/T//cc1ZQ1Ea.s 			page 138


 357:../../libDaisy//src/dev/oled_ssd130x.h ****         else
 4699              		.loc 12 357 42 view .LVU1085
 4700 002c 9CF81480 		ldrb	r8, [ip, #20]	@ zero_extendqisi2
 4701 0030 4EEA080E 		orr	lr, lr, r8
 4702 0034 8CF814E0 		strb	lr, [ip, #20]
 4703              	.LVL373:
 4704              	.L323:
 357:../../libDaisy//src/dev/oled_ssd130x.h ****         else
 4705              		.loc 12 357 42 view .LVU1086
 4706              	.LBE1415:
 4707              	.LBE1414:
 4708              	.LBE1413:
 268:../../libDaisy//src/hid/disp/display.h ****                 {
 4709              		.loc 4 268 17 is_stmt 1 view .LVU1087
 4710 0038 0136     		adds	r6, r6, #1
 4711              	.LVL374:
 268:../../libDaisy//src/hid/disp/display.h ****                 {
 4712              		.loc 4 268 44 view .LVU1088
 4713 003a B442     		cmp	r4, r6
 4714 003c 19D3     		bcc	.L325
 4715              	.L326:
 4716              	.LVL375:
 4717              	.LBB1429:
 4718              	.LBI1413:
  42:../../libDaisy//src/hid/disp/oled_display.h ****     {
 4719              		.loc 3 42 10 view .LVU1089
 4720              	.LBB1426:
 4721              	.LBI1414:
 352:../../libDaisy//src/dev/oled_ssd130x.h ****     {
 4722              		.loc 12 352 10 view .LVU1090
 4723              	.LBB1423:
 354:../../libDaisy//src/dev/oled_ssd130x.h ****             return;
 4724              		.loc 12 354 9 is_stmt 0 view .LVU1091
 4725 003e 3F2E     		cmp	r6, #63
 4726 0040 FAD8     		bhi	.L323
 354:../../libDaisy//src/dev/oled_ssd130x.h ****             return;
 4727              		.loc 12 354 9 view .LVU1092
 4728 0042 002B     		cmp	r3, #0
 4729 0044 F8D1     		bne	.L323
 4730              	.LVL376:
 4731              	.LBB1416:
 4732              	.LBI1416:
 352:../../libDaisy//src/dev/oled_ssd130x.h ****     {
 4733              		.loc 12 352 10 is_stmt 1 view .LVU1093
 352:../../libDaisy//src/dev/oled_ssd130x.h ****     {
 4734              		.loc 12 352 10 is_stmt 0 view .LVU1094
 4735              	.LBE1416:
 357:../../libDaisy//src/dev/oled_ssd130x.h ****         else
 4736              		.loc 12 357 28 view .LVU1095
 4737 0046 4FEAD60C 		lsr	ip, r6, #3
 357:../../libDaisy//src/dev/oled_ssd130x.h ****         else
 4738              		.loc 12 357 54 view .LVU1096
 4739 004a 06F0070E 		and	lr, r6, #7
 357:../../libDaisy//src/dev/oled_ssd130x.h ****         else
 4740              		.loc 12 357 48 view .LVU1097
 4741 004e 4FF00108 		mov	r8, #1
 357:../../libDaisy//src/dev/oled_ssd130x.h ****         else
ARM GAS  /var/folders/1y/_321xjh9623c014x9_qw12rr0000gn/T//cc1ZQ1Ea.s 			page 139


 4742              		.loc 12 357 42 view .LVU1098
 4743 0052 01EBCC1C 		add	ip, r1, ip, lsl #7
 357:../../libDaisy//src/dev/oled_ssd130x.h ****         else
 4744              		.loc 12 357 48 view .LVU1099
 4745 0056 08FA0EFE 		lsl	lr, r8, lr
 357:../../libDaisy//src/dev/oled_ssd130x.h ****         else
 4746              		.loc 12 357 42 view .LVU1100
 4747 005a 8444     		add	ip, ip, r0
 356:../../libDaisy//src/dev/oled_ssd130x.h ****             buffer_[x + (y / 8) * width] |= (1 << (y % 8));
 4748              		.loc 12 356 9 view .LVU1101
 4749 005c 002D     		cmp	r5, #0
 4750 005e E5D1     		bne	.L409
 4751              	.LBB1420:
 4752              	.LBB1417:
 359:../../libDaisy//src/dev/oled_ssd130x.h ****     }
 4753              		.loc 12 359 42 view .LVU1102
 4754 0060 9CF814B0 		ldrb	fp, [ip, #20]	@ zero_extendqisi2
 4755              	.LBE1417:
 4756              	.LBE1420:
 4757              	.LBE1423:
 4758              	.LBE1426:
 4759              	.LBE1429:
 268:../../libDaisy//src/hid/disp/display.h ****                 {
 4760              		.loc 4 268 17 view .LVU1103
 4761 0064 0136     		adds	r6, r6, #1
 4762              	.LVL377:
 4763              	.LBB1430:
 4764              	.LBB1427:
 4765              	.LBB1424:
 4766              	.LBB1421:
 4767              	.LBB1418:
 359:../../libDaisy//src/dev/oled_ssd130x.h ****     }
 4768              		.loc 12 359 42 view .LVU1104
 4769 0066 2BEA0E0A 		bic	r10, fp, lr
 4770              	.LBE1418:
 4771              	.LBE1421:
 4772              	.LBE1424:
 4773              	.LBE1427:
 4774              	.LBE1430:
 268:../../libDaisy//src/hid/disp/display.h ****                 {
 4775              		.loc 4 268 44 view .LVU1105
 4776 006a B442     		cmp	r4, r6
 4777              	.LBB1431:
 4778              	.LBB1428:
 4779              	.LBB1425:
 4780              	.LBB1422:
 4781              	.LBB1419:
 359:../../libDaisy//src/dev/oled_ssd130x.h ****     }
 4782              		.loc 12 359 42 view .LVU1106
 4783 006c 8CF814A0 		strb	r10, [ip, #20]
 4784              	.LVL378:
 359:../../libDaisy//src/dev/oled_ssd130x.h ****     }
 4785              		.loc 12 359 42 view .LVU1107
 4786              	.LBE1419:
 4787              	.LBE1422:
 4788              	.LBE1425:
 4789              	.LBE1428:
ARM GAS  /var/folders/1y/_321xjh9623c014x9_qw12rr0000gn/T//cc1ZQ1Ea.s 			page 140


 4790              	.LBE1431:
 268:../../libDaisy//src/hid/disp/display.h ****                 {
 4791              		.loc 4 268 17 is_stmt 1 view .LVU1108
 268:../../libDaisy//src/hid/disp/display.h ****                 {
 4792              		.loc 4 268 44 view .LVU1109
 4793 0070 E5D2     		bcs	.L326
 4794              	.LVL379:
 4795              	.L325:
 268:../../libDaisy//src/hid/disp/display.h ****                 {
 4796              		.loc 4 268 44 is_stmt 0 view .LVU1110
 4797              	.LBE1412:
 266:../../libDaisy//src/hid/disp/display.h ****             {
 4798              		.loc 4 266 13 is_stmt 1 view .LVU1111
 4799 0072 0131     		adds	r1, r1, #1
 4800              	.LVL380:
 266:../../libDaisy//src/hid/disp/display.h ****             {
 4801              		.loc 4 266 40 view .LVU1112
 4802 0074 8945     		cmp	r9, r1
 4803 0076 D1D2     		bcs	.L322
 4804              	.LVL381:
 4805              	.L318:
 266:../../libDaisy//src/hid/disp/display.h ****             {
 4806              		.loc 4 266 40 is_stmt 0 view .LVU1113
 4807              	.LBE1411:
 4808              	.LBE1410:
 281:../../libDaisy//src/hid/disp/display.h **** 
 4809              		.loc 4 281 5 view .LVU1114
 4810 0078 07B0     		add	sp, sp, #28
 4811              		.cfi_remember_state
 4812              		.cfi_def_cfa_offset 36
 4813              		@ sp needed
 4814 007a BDE8F08F 		pop	{r4, r5, r6, r7, r8, r9, r10, fp, pc}
 4815              	.LVL382:
 4816              	.L319:
 4817              		.cfi_restore_state
 4818              	.LBB1432:
 4819              	.LBB1289:
 4820              	.LBI1289:
 221:../../libDaisy//src/hid/disp/display.h ****                   uint_fast8_t y1,
 4821              		.loc 4 221 10 is_stmt 1 view .LVU1115
 4822              	.LBB1290:
 227:../../libDaisy//src/hid/disp/display.h ****         int_fast16_t deltaY = abs((int_fast16_t)y2 - (int_fast16_t)y1);
 4823              		.loc 4 227 52 is_stmt 0 view .LVU1116
 4824 007e A3EB0108 		sub	r8, r3, r1
 227:../../libDaisy//src/hid/disp/display.h ****         int_fast16_t deltaY = abs((int_fast16_t)y2 - (int_fast16_t)y1);
 4825              		.loc 4 227 22 view .LVU1117
 4826 0082 B8F1000F 		cmp	r8, #0
 4827 0086 B8BF     		it	lt
 4828 0088 C8F10008 		rsblt	r8, r8, #0
 4829              	.LVL383:
 229:../../libDaisy//src/hid/disp/display.h ****         int_fast16_t signY  = ((y1 < y2) ? 1 : -1);
 4830              		.loc 4 229 42 view .LVU1118
 4831 008c 9942     		cmp	r1, r3
 4832 008e C0F04E81 		bcc	.L327
 4833              	.LVL384:
 4834              	.LBB1291:
 4835              	.LBI1291:
ARM GAS  /var/folders/1y/_321xjh9623c014x9_qw12rr0000gn/T//cc1ZQ1Ea.s 			page 141


  42:../../libDaisy//src/hid/disp/oled_display.h ****     {
 4836              		.loc 3 42 10 is_stmt 1 view .LVU1119
 4837              	.LBB1292:
 4838              	.LBI1292:
 352:../../libDaisy//src/dev/oled_ssd130x.h ****     {
 4839              		.loc 12 352 10 view .LVU1120
 4840              	.LBB1293:
 354:../../libDaisy//src/dev/oled_ssd130x.h ****             return;
 4841              		.loc 12 354 14 is_stmt 0 view .LVU1121
 4842 0092 7F2B     		cmp	r3, #127
 4843              	.LBE1293:
 4844              	.LBE1292:
 4845              	.LBE1291:
 229:../../libDaisy//src/hid/disp/display.h ****         int_fast16_t signY  = ((y1 < y2) ? 1 : -1);
 4846              		.loc 4 229 42 view .LVU1122
 4847 0094 4FF0FF3A 		mov	r10, #-1
 4848              	.LBB1304:
 4849              	.LBB1300:
 4850              	.LBB1296:
 354:../../libDaisy//src/dev/oled_ssd130x.h ****             return;
 4851              		.loc 12 354 14 view .LVU1123
 4852 0098 94BF     		ite	ls
 4853 009a 0026     		movls	r6, #0
 4854 009c 0126     		movhi	r6, #1
 354:../../libDaisy//src/dev/oled_ssd130x.h ****             return;
 4855              		.loc 12 354 28 view .LVU1124
 4856 009e 3F2A     		cmp	r2, #63
 354:../../libDaisy//src/dev/oled_ssd130x.h ****             return;
 4857              		.loc 12 354 14 view .LVU1125
 4858 00a0 0096     		str	r6, [sp]
 354:../../libDaisy//src/dev/oled_ssd130x.h ****             return;
 4859              		.loc 12 354 28 view .LVU1126
 4860 00a2 94BF     		ite	ls
 4861 00a4 0027     		movls	r7, #0
 4862 00a6 0127     		movhi	r7, #1
 4863 00a8 0297     		str	r7, [sp, #8]
 354:../../libDaisy//src/dev/oled_ssd130x.h ****             return;
 4864              		.loc 12 354 9 view .LVU1127
 4865 00aa A6B9     		cbnz	r6, .L328
 4866 00ac 9FB9     		cbnz	r7, .L328
 4867              	.LVL385:
 4868              	.L369:
 357:../../libDaisy//src/dev/oled_ssd130x.h ****         else
 4869              		.loc 12 357 28 view .LVU1128
 4870 00ae D608     		lsrs	r6, r2, #3
 357:../../libDaisy//src/dev/oled_ssd130x.h ****         else
 4871              		.loc 12 357 54 view .LVU1129
 4872 00b0 02F0070C 		and	ip, r2, #7
 357:../../libDaisy//src/dev/oled_ssd130x.h ****         else
 4873              		.loc 12 357 48 view .LVU1130
 4874 00b4 0127     		movs	r7, #1
 357:../../libDaisy//src/dev/oled_ssd130x.h ****         else
 4875              		.loc 12 357 42 view .LVU1131
 4876 00b6 03EBC616 		add	r6, r3, r6, lsl #7
 4877 00ba 0644     		add	r6, r6, r0
 356:../../libDaisy//src/dev/oled_ssd130x.h ****             buffer_[x + (y / 8) * width] |= (1 << (y % 8));
 4878              		.loc 12 356 9 view .LVU1132
ARM GAS  /var/folders/1y/_321xjh9623c014x9_qw12rr0000gn/T//cc1ZQ1Ea.s 			page 142


 4879 00bc 002D     		cmp	r5, #0
 4880 00be 00F09481 		beq	.L329
 357:../../libDaisy//src/dev/oled_ssd130x.h ****         else
 4881              		.loc 12 357 48 view .LVU1133
 4882 00c2 07FA0CF7 		lsl	r7, r7, ip
 357:../../libDaisy//src/dev/oled_ssd130x.h ****         else
 4883              		.loc 12 357 42 view .LVU1134
 4884 00c6 96F814C0 		ldrb	ip, [r6, #20]	@ zero_extendqisi2
 4885 00ca 47EA0C07 		orr	r7, r7, ip
 4886 00ce 3775     		strb	r7, [r6, #20]
 4887 00d0 0026     		movs	r6, #0
 4888 00d2 0296     		str	r6, [sp, #8]
 4889 00d4 0096     		str	r6, [sp]
 4890              	.L328:
 4891              	.LVL386:
 357:../../libDaisy//src/dev/oled_ssd130x.h ****         else
 4892              		.loc 12 357 42 view .LVU1135
 4893              	.LBE1296:
 4894              	.LBE1300:
 4895              	.LBE1304:
 239:../../libDaisy//src/hid/disp/display.h ****         {
 4896              		.loc 4 239 26 is_stmt 1 view .LVU1136
 4897 00d6 9942     		cmp	r1, r3
 4898 00d8 00F09781 		beq	.L410
 4899              	.L331:
 4900              	.LVL387:
 227:../../libDaisy//src/hid/disp/display.h ****         int_fast16_t deltaY = abs((int_fast16_t)y2 - (int_fast16_t)y1);
 4901              		.loc 4 227 22 is_stmt 0 view .LVU1137
 4902 00dc 4646     		mov	r6, r8
 4903 00de 9446     		mov	ip, r2
 4904 00e0 8E46     		mov	lr, r1
 4905              	.LVL388:
 4906              	.L333:
 4907              	.LBB1305:
 4908              	.LBI1305:
  42:../../libDaisy//src/hid/disp/oled_display.h ****     {
 4909              		.loc 3 42 10 is_stmt 1 view .LVU1138
 4910              	.LBB1306:
 4911              	.LBI1306:
 352:../../libDaisy//src/dev/oled_ssd130x.h ****     {
 4912              		.loc 12 352 10 view .LVU1139
 4913              	.LBB1307:
 354:../../libDaisy//src/dev/oled_ssd130x.h ****             return;
 4914              		.loc 12 354 9 is_stmt 0 view .LVU1140
 4915 00e2 BEF17F0F 		cmp	lr, #127
 4916 00e6 16D8     		bhi	.L334
 4917 00e8 BCF13F0F 		cmp	ip, #63
 4918 00ec 13D8     		bhi	.L334
 357:../../libDaisy//src/dev/oled_ssd130x.h ****         else
 4919              		.loc 12 357 28 view .LVU1141
 4920 00ee 4FEADC07 		lsr	r7, ip, #3
 357:../../libDaisy//src/dev/oled_ssd130x.h ****         else
 4921              		.loc 12 357 54 view .LVU1142
 4922 00f2 0CF0070B 		and	fp, ip, #7
 357:../../libDaisy//src/dev/oled_ssd130x.h ****         else
 4923              		.loc 12 357 48 view .LVU1143
 4924 00f6 4FF00109 		mov	r9, #1
ARM GAS  /var/folders/1y/_321xjh9623c014x9_qw12rr0000gn/T//cc1ZQ1Ea.s 			page 143


 357:../../libDaisy//src/dev/oled_ssd130x.h ****         else
 4925              		.loc 12 357 42 view .LVU1144
 4926 00fa 0EEBC717 		add	r7, lr, r7, lsl #7
 4927 00fe 0744     		add	r7, r7, r0
 356:../../libDaisy//src/dev/oled_ssd130x.h ****             buffer_[x + (y / 8) * width] |= (1 << (y % 8));
 4928              		.loc 12 356 9 view .LVU1145
 4929 0100 002D     		cmp	r5, #0
 4930 0102 00F03981 		beq	.L335
 357:../../libDaisy//src/dev/oled_ssd130x.h ****         else
 4931              		.loc 12 357 48 view .LVU1146
 4932 0106 09FA0BF9 		lsl	r9, r9, fp
 357:../../libDaisy//src/dev/oled_ssd130x.h ****         else
 4933              		.loc 12 357 42 view .LVU1147
 4934 010a 97F814B0 		ldrb	fp, [r7, #20]	@ zero_extendqisi2
 4935 010e 49EA0B09 		orr	r9, r9, fp
 4936 0112 87F81490 		strb	r9, [r7, #20]
 4937              	.L334:
 4938              	.LVL389:
 357:../../libDaisy//src/dev/oled_ssd130x.h ****         else
 4939              		.loc 12 357 42 view .LVU1148
 4940              	.LBE1307:
 4941              	.LBE1306:
 4942              	.LBE1305:
 243:../../libDaisy//src/hid/disp/display.h ****             {
 4943              		.loc 4 243 13 view .LVU1149
 4944 0116 7700     		lsls	r7, r6, #1
 4945              	.LVL390:
 246:../../libDaisy//src/hid/disp/display.h ****             }
 4946              		.loc 4 246 20 view .LVU1150
 4947 0118 18BF     		it	ne
 4948 011a D644     		addne	lr, lr, r10
 4949              	.LVL391:
 249:../../libDaisy//src/hid/disp/display.h ****             {
 4950              		.loc 4 249 13 view .LVU1151
 4951 011c B845     		cmp	r8, r7
 4952 011e 02DD     		ble	.L337
 251:../../libDaisy//src/hid/disp/display.h ****                 y1 += signY;
 4953              		.loc 4 251 23 view .LVU1152
 4954 0120 4644     		add	r6, r6, r8
 4955              	.LVL392:
 252:../../libDaisy//src/hid/disp/display.h ****             }
 4956              		.loc 4 252 20 view .LVU1153
 4957 0122 0CF1FF3C 		add	ip, ip, #-1
 4958              	.LVL393:
 4959              	.L337:
 239:../../libDaisy//src/hid/disp/display.h ****         {
 4960              		.loc 4 239 26 is_stmt 1 view .LVU1154
 4961 0126 7345     		cmp	r3, lr
 4962 0128 DBD1     		bne	.L333
 239:../../libDaisy//src/hid/disp/display.h ****         {
 4963              		.loc 4 239 26 is_stmt 0 view .LVU1155
 4964 012a 6245     		cmp	r2, ip
 4965 012c D9D1     		bne	.L333
 4966 012e 0026     		movs	r6, #0
 4967              	.LVL394:
 239:../../libDaisy//src/hid/disp/display.h ****         {
 4968              		.loc 4 239 26 view .LVU1156
ARM GAS  /var/folders/1y/_321xjh9623c014x9_qw12rr0000gn/T//cc1ZQ1Ea.s 			page 144


 4969 0130 0496     		str	r6, [sp, #16]
 4970              	.LVL395:
 4971              	.L330:
 239:../../libDaisy//src/hid/disp/display.h ****         {
 4972              		.loc 4 239 26 view .LVU1157
 4973              	.LBE1290:
 4974              	.LBE1289:
 4975              	.LBB1320:
 4976              	.LBI1320:
 221:../../libDaisy//src/hid/disp/display.h ****                   uint_fast8_t y1,
 4977              		.loc 4 221 10 is_stmt 1 view .LVU1158
 4978              	.LBB1321:
 228:../../libDaisy//src/hid/disp/display.h ****         int_fast16_t signX  = ((x1 < x2) ? 1 : -1);
 4979              		.loc 4 228 52 is_stmt 0 view .LVU1159
 4980 0132 A4EB0209 		sub	r9, r4, r2
 4981              	.LBB1322:
 4982              	.LBB1323:
 4983              	.LBB1324:
 354:../../libDaisy//src/dev/oled_ssd130x.h ****             return;
 4984              		.loc 12 354 9 view .LVU1160
 4985 0136 009F     		ldr	r7, [sp]
 4986              	.LBE1324:
 4987              	.LBE1323:
 4988              	.LBE1322:
 228:../../libDaisy//src/hid/disp/display.h ****         int_fast16_t signX  = ((x1 < x2) ? 1 : -1);
 4989              		.loc 4 228 22 view .LVU1161
 4990 0138 B9F1000F 		cmp	r9, #0
 4991 013c B8BF     		it	lt
 4992 013e C9F10009 		rsblt	r9, r9, #0
 4993              	.LVL396:
 4994              	.LBB1339:
 4995              	.LBB1333:
 4996              	.LBB1327:
 354:../../libDaisy//src/dev/oled_ssd130x.h ****             return;
 4997              		.loc 12 354 28 view .LVU1162
 4998 0142 3F2C     		cmp	r4, #63
 4999 0144 94BF     		ite	ls
 5000 0146 0026     		movls	r6, #0
 5001 0148 0126     		movhi	r6, #1
 5002              	.LBE1327:
 5003              	.LBE1333:
 5004              	.LBE1339:
 230:../../libDaisy//src/hid/disp/display.h ****         int_fast16_t error  = deltaX - deltaY;
 5005              		.loc 4 230 42 view .LVU1163
 5006 014a A242     		cmp	r2, r4
 231:../../libDaisy//src/hid/disp/display.h ****         int_fast16_t error2;
 5007              		.loc 4 231 22 view .LVU1164
 5008 014c C9F10008 		rsb	r8, r9, #0
 5009              	.LVL397:
 5010              	.LBB1340:
 5011              	.LBI1322:
  42:../../libDaisy//src/hid/disp/oled_display.h ****     {
 5012              		.loc 3 42 10 is_stmt 1 view .LVU1165
 5013              	.LBB1334:
 5014              	.LBI1323:
 352:../../libDaisy//src/dev/oled_ssd130x.h ****     {
 5015              		.loc 12 352 10 view .LVU1166
ARM GAS  /var/folders/1y/_321xjh9623c014x9_qw12rr0000gn/T//cc1ZQ1Ea.s 			page 145


 5016              	.LBB1328:
 354:../../libDaisy//src/dev/oled_ssd130x.h ****             return;
 5017              		.loc 12 354 28 is_stmt 0 view .LVU1167
 5018 0150 0396     		str	r6, [sp, #12]
 5019              	.LBE1328:
 5020              	.LBE1334:
 5021              	.LBE1340:
 230:../../libDaisy//src/hid/disp/display.h ****         int_fast16_t error  = deltaX - deltaY;
 5022              		.loc 4 230 42 view .LVU1168
 5023 0152 C0F02381 		bcc	.L338
 5024              	.LVL398:
 5025              	.LBB1341:
 5026              	.LBB1335:
 5027              	.LBB1329:
 354:../../libDaisy//src/dev/oled_ssd130x.h ****             return;
 5028              		.loc 12 354 9 view .LVU1169
 5029 0156 002F     		cmp	r7, #0
 5030 0158 40F05081 		bne	.L373
 5031 015c 002E     		cmp	r6, #0
 5032 015e 40F04D81 		bne	.L373
 5033              	.LBE1329:
 5034              	.LBE1335:
 5035              	.LBE1341:
 230:../../libDaisy//src/hid/disp/display.h ****         int_fast16_t error  = deltaX - deltaY;
 5036              		.loc 4 230 42 view .LVU1170
 5037 0162 4FF0FF36 		mov	r6, #-1
 5038 0166 0096     		str	r6, [sp]
 5039              	.LBB1342:
 5040              	.LBB1336:
 5041              	.LBB1330:
 357:../../libDaisy//src/dev/oled_ssd130x.h ****         else
 5042              		.loc 12 357 28 view .LVU1171
 5043 0168 E608     		lsrs	r6, r4, #3
 357:../../libDaisy//src/dev/oled_ssd130x.h ****         else
 5044              		.loc 12 357 42 view .LVU1172
 5045 016a 03EBC616 		add	r6, r3, r6, lsl #7
 5046 016e 0644     		add	r6, r6, r0
 356:../../libDaisy//src/dev/oled_ssd130x.h ****             buffer_[x + (y / 8) * width] |= (1 << (y % 8));
 5047              		.loc 12 356 9 view .LVU1173
 5048 0170 002D     		cmp	r5, #0
 5049 0172 00F01E81 		beq	.L340
 5050              	.LVL399:
 5051              	.L412:
 357:../../libDaisy//src/dev/oled_ssd130x.h ****         else
 5052              		.loc 12 357 48 view .LVU1174
 5053 0176 4FF0010C 		mov	ip, #1
 357:../../libDaisy//src/dev/oled_ssd130x.h ****         else
 5054              		.loc 12 357 54 view .LVU1175
 5055 017a 04F00707 		and	r7, r4, #7
 357:../../libDaisy//src/dev/oled_ssd130x.h ****         else
 5056              		.loc 12 357 48 view .LVU1176
 5057 017e 0CFA07F7 		lsl	r7, ip, r7
 357:../../libDaisy//src/dev/oled_ssd130x.h ****         else
 5058              		.loc 12 357 42 view .LVU1177
 5059 0182 96F814C0 		ldrb	ip, [r6, #20]	@ zero_extendqisi2
 5060 0186 47EA0C07 		orr	r7, r7, ip
 5061 018a 3775     		strb	r7, [r6, #20]
ARM GAS  /var/folders/1y/_321xjh9623c014x9_qw12rr0000gn/T//cc1ZQ1Ea.s 			page 146


 5062 018c 0026     		movs	r6, #0
 5063 018e 0396     		str	r6, [sp, #12]
 5064              	.L339:
 5065              	.LVL400:
 357:../../libDaisy//src/dev/oled_ssd130x.h ****         else
 5066              		.loc 12 357 42 view .LVU1178
 5067              	.LBE1330:
 5068              	.LBE1336:
 5069              	.LBE1342:
 239:../../libDaisy//src/hid/disp/display.h ****         {
 5070              		.loc 4 239 26 is_stmt 1 view .LVU1179
 5071 0190 A242     		cmp	r2, r4
 5072 0192 00F03D81 		beq	.L411
 5073              	.L342:
 5074              	.LVL401:
 230:../../libDaisy//src/hid/disp/display.h ****         int_fast16_t error  = deltaX - deltaY;
 5075              		.loc 4 230 42 is_stmt 0 view .LVU1180
 5076 0196 C446     		mov	ip, r8
 5077 0198 1646     		mov	r6, r2
 5078 019a 1F46     		mov	r7, r3
 5079 019c 0592     		str	r2, [sp, #20]
 5080              	.LVL402:
 5081              	.L344:
 5082              	.LBB1343:
 5083              	.LBI1343:
  42:../../libDaisy//src/hid/disp/oled_display.h ****     {
 5084              		.loc 3 42 10 is_stmt 1 view .LVU1181
 5085              	.LBB1344:
 5086              	.LBI1344:
 352:../../libDaisy//src/dev/oled_ssd130x.h ****     {
 5087              		.loc 12 352 10 view .LVU1182
 5088              	.LBB1345:
 354:../../libDaisy//src/dev/oled_ssd130x.h ****             return;
 5089              		.loc 12 354 9 is_stmt 0 view .LVU1183
 5090 019e 7F2F     		cmp	r7, #127
 5091 01a0 15D8     		bhi	.L345
 5092 01a2 3F2E     		cmp	r6, #63
 5093 01a4 13D8     		bhi	.L345
 357:../../libDaisy//src/dev/oled_ssd130x.h ****         else
 5094              		.loc 12 357 28 view .LVU1184
 5095 01a6 4FEAD60E 		lsr	lr, r6, #3
 357:../../libDaisy//src/dev/oled_ssd130x.h ****         else
 5096              		.loc 12 357 54 view .LVU1185
 5097 01aa 06F0070B 		and	fp, r6, #7
 357:../../libDaisy//src/dev/oled_ssd130x.h ****         else
 5098              		.loc 12 357 48 view .LVU1186
 5099 01ae 4FF0010A 		mov	r10, #1
 357:../../libDaisy//src/dev/oled_ssd130x.h ****         else
 5100              		.loc 12 357 42 view .LVU1187
 5101 01b2 07EBCE1E 		add	lr, r7, lr, lsl #7
 5102 01b6 8644     		add	lr, lr, r0
 356:../../libDaisy//src/dev/oled_ssd130x.h ****             buffer_[x + (y / 8) * width] |= (1 << (y % 8));
 5103              		.loc 12 356 9 view .LVU1188
 5104 01b8 002D     		cmp	r5, #0
 5105 01ba 00F0E680 		beq	.L346
 357:../../libDaisy//src/dev/oled_ssd130x.h ****         else
 5106              		.loc 12 357 48 view .LVU1189
ARM GAS  /var/folders/1y/_321xjh9623c014x9_qw12rr0000gn/T//cc1ZQ1Ea.s 			page 147


 5107 01be 0AFA0BFA 		lsl	r10, r10, fp
 357:../../libDaisy//src/dev/oled_ssd130x.h ****         else
 5108              		.loc 12 357 42 view .LVU1190
 5109 01c2 9EF814B0 		ldrb	fp, [lr, #20]	@ zero_extendqisi2
 5110 01c6 4AEA0B0A 		orr	r10, r10, fp
 5111 01ca 8EF814A0 		strb	r10, [lr, #20]
 5112              	.L345:
 5113              	.LVL403:
 357:../../libDaisy//src/dev/oled_ssd130x.h ****         else
 5114              		.loc 12 357 42 view .LVU1191
 5115              	.LBE1345:
 5116              	.LBE1344:
 5117              	.LBE1343:
 243:../../libDaisy//src/hid/disp/display.h ****             {
 5118              		.loc 4 243 13 view .LVU1192
 5119 01ce B8EB4C0F 		cmp	r8, ip, lsl #1
 242:../../libDaisy//src/hid/disp/display.h ****             if(error2 > -deltaY)
 5120              		.loc 4 242 20 view .LVU1193
 5121 01d2 4FEA4C0E 		lsl	lr, ip, #1
 5122              	.LVL404:
 243:../../libDaisy//src/hid/disp/display.h ****             {
 5123              		.loc 4 243 13 view .LVU1194
 5124 01d6 02DA     		bge	.L347
 245:../../libDaisy//src/hid/disp/display.h ****                 x1 += signX;
 5125              		.loc 4 245 23 view .LVU1195
 5126 01d8 ACEB090C 		sub	ip, ip, r9
 5127              	.LVL405:
 246:../../libDaisy//src/hid/disp/display.h ****             }
 5128              		.loc 4 246 20 view .LVU1196
 5129 01dc 013F     		subs	r7, r7, #1
 5130              	.LVL406:
 5131              	.L347:
 249:../../libDaisy//src/hid/disp/display.h ****             {
 5132              		.loc 4 249 13 view .LVU1197
 5133 01de BEF1000F 		cmp	lr, #0
 5134 01e2 01D0     		beq	.L348
 252:../../libDaisy//src/hid/disp/display.h ****             }
 5135              		.loc 4 252 20 view .LVU1198
 5136 01e4 009A     		ldr	r2, [sp]
 5137 01e6 1644     		add	r6, r6, r2
 5138              	.LVL407:
 5139              	.L348:
 239:../../libDaisy//src/hid/disp/display.h ****         {
 5140              		.loc 4 239 26 is_stmt 1 view .LVU1199
 5141 01e8 BB42     		cmp	r3, r7
 5142 01ea D8D1     		bne	.L344
 239:../../libDaisy//src/hid/disp/display.h ****         {
 5143              		.loc 4 239 26 is_stmt 0 view .LVU1200
 5144 01ec B442     		cmp	r4, r6
 5145 01ee D6D1     		bne	.L344
 5146 01f0 059A     		ldr	r2, [sp, #20]
 5147              	.LVL408:
 5148              	.L341:
 239:../../libDaisy//src/hid/disp/display.h ****         {
 5149              		.loc 4 239 26 view .LVU1201
 5150              	.LBE1321:
 5151              	.LBE1320:
ARM GAS  /var/folders/1y/_321xjh9623c014x9_qw12rr0000gn/T//cc1ZQ1Ea.s 			page 148


 5152              	.LBB1356:
 5153              	.LBI1356:
 221:../../libDaisy//src/hid/disp/display.h ****                   uint_fast8_t y1,
 5154              		.loc 4 221 10 is_stmt 1 view .LVU1202
 5155              	.LBB1357:
 227:../../libDaisy//src/hid/disp/display.h ****         int_fast16_t deltaY = abs((int_fast16_t)y2 - (int_fast16_t)y1);
 5156              		.loc 4 227 52 is_stmt 0 view .LVU1203
 5157 01f2 A1EB030E 		sub	lr, r1, r3
 227:../../libDaisy//src/hid/disp/display.h ****         int_fast16_t deltaY = abs((int_fast16_t)y2 - (int_fast16_t)y1);
 5158              		.loc 4 227 22 view .LVU1204
 5159 01f6 BEF1000F 		cmp	lr, #0
 5160 01fa B8BF     		it	lt
 5161 01fc CEF1000E 		rsblt	lr, lr, #0
 5162              	.LVL409:
 5163              	.LBB1358:
 5164              	.LBB1359:
 5165              	.LBB1360:
 354:../../libDaisy//src/dev/oled_ssd130x.h ****             return;
 5166              		.loc 12 354 14 view .LVU1205
 5167 0200 7F29     		cmp	r1, #127
 5168 0202 94BF     		ite	ls
 5169 0204 4FF0000A 		movls	r10, #0
 5170 0208 4FF0010A 		movhi	r10, #1
 5171              	.LBE1360:
 5172              	.LBE1359:
 5173              	.LBE1358:
 229:../../libDaisy//src/hid/disp/display.h ****         int_fast16_t signY  = ((y1 < y2) ? 1 : -1);
 5174              		.loc 4 229 42 view .LVU1206
 5175 020c 9942     		cmp	r1, r3
 5176 020e 8CBF     		ite	hi
 5177 0210 4FF00109 		movhi	r9, #1
 5178 0214 4FF0FF39 		movls	r9, #-1
 5179              	.LVL410:
 5180              	.LBB1367:
 5181              	.LBI1358:
  42:../../libDaisy//src/hid/disp/oled_display.h ****     {
 5182              		.loc 3 42 10 is_stmt 1 view .LVU1207
 5183              	.LBB1365:
 5184              	.LBI1359:
 352:../../libDaisy//src/dev/oled_ssd130x.h ****     {
 5185              		.loc 12 352 10 view .LVU1208
 5186              	.LBB1363:
 354:../../libDaisy//src/dev/oled_ssd130x.h ****             return;
 5187              		.loc 12 354 9 is_stmt 0 view .LVU1209
 5188 0218 BAF1000F 		cmp	r10, #0
 5189 021c 13D1     		bne	.L350
 5190 021e 039E     		ldr	r6, [sp, #12]
 5191 0220 8EB9     		cbnz	r6, .L350
 357:../../libDaisy//src/dev/oled_ssd130x.h ****         else
 5192              		.loc 12 357 28 view .LVU1210
 5193 0222 E608     		lsrs	r6, r4, #3
 357:../../libDaisy//src/dev/oled_ssd130x.h ****         else
 5194              		.loc 12 357 42 view .LVU1211
 5195 0224 01EBC616 		add	r6, r1, r6, lsl #7
 5196 0228 0644     		add	r6, r6, r0
 356:../../libDaisy//src/dev/oled_ssd130x.h ****             buffer_[x + (y / 8) * width] |= (1 << (y % 8));
 5197              		.loc 12 356 9 view .LVU1212
ARM GAS  /var/folders/1y/_321xjh9623c014x9_qw12rr0000gn/T//cc1ZQ1Ea.s 			page 149


 5198 022a 002D     		cmp	r5, #0
 5199 022c 00F0D380 		beq	.L351
 357:../../libDaisy//src/dev/oled_ssd130x.h ****         else
 5200              		.loc 12 357 48 view .LVU1213
 5201 0230 4FF0010C 		mov	ip, #1
 357:../../libDaisy//src/dev/oled_ssd130x.h ****         else
 5202              		.loc 12 357 54 view .LVU1214
 5203 0234 04F00707 		and	r7, r4, #7
 357:../../libDaisy//src/dev/oled_ssd130x.h ****         else
 5204              		.loc 12 357 48 view .LVU1215
 5205 0238 0CFA07F7 		lsl	r7, ip, r7
 357:../../libDaisy//src/dev/oled_ssd130x.h ****         else
 5206              		.loc 12 357 42 view .LVU1216
 5207 023c 96F814C0 		ldrb	ip, [r6, #20]	@ zero_extendqisi2
 5208 0240 47EA0C07 		orr	r7, r7, ip
 5209 0244 3775     		strb	r7, [r6, #20]
 5210              	.L350:
 5211              	.LVL411:
 357:../../libDaisy//src/dev/oled_ssd130x.h ****         else
 5212              		.loc 12 357 42 view .LVU1217
 5213              	.LBE1363:
 5214              	.LBE1365:
 5215              	.LBE1367:
 239:../../libDaisy//src/hid/disp/display.h ****         {
 5216              		.loc 4 239 26 is_stmt 1 view .LVU1218
 5217 0246 049E     		ldr	r6, [sp, #16]
 5218 0248 26BB     		cbnz	r6, .L352
 227:../../libDaisy//src/hid/disp/display.h ****         int_fast16_t deltaY = abs((int_fast16_t)y2 - (int_fast16_t)y1);
 5219              		.loc 4 227 22 is_stmt 0 view .LVU1219
 5220 024a 7746     		mov	r7, lr
 239:../../libDaisy//src/hid/disp/display.h ****         {
 5221              		.loc 4 239 26 view .LVU1220
 5222 024c 2646     		mov	r6, r4
 5223              	.LVL412:
 5224              	.L353:
 5225              	.LBB1368:
 5226              	.LBI1368:
  42:../../libDaisy//src/hid/disp/oled_display.h ****     {
 5227              		.loc 3 42 10 is_stmt 1 view .LVU1221
 5228              	.LBB1369:
 5229              	.LBI1369:
 352:../../libDaisy//src/dev/oled_ssd130x.h ****     {
 5230              		.loc 12 352 10 view .LVU1222
 5231              	.LBB1370:
 354:../../libDaisy//src/dev/oled_ssd130x.h ****             return;
 5232              		.loc 12 354 9 is_stmt 0 view .LVU1223
 5233 024e 7F2B     		cmp	r3, #127
 5234 0250 14D8     		bhi	.L355
 354:../../libDaisy//src/dev/oled_ssd130x.h ****             return;
 5235              		.loc 12 354 9 view .LVU1224
 5236 0252 3F2E     		cmp	r6, #63
 5237 0254 12D8     		bhi	.L355
 357:../../libDaisy//src/dev/oled_ssd130x.h ****         else
 5238              		.loc 12 357 28 view .LVU1225
 5239 0256 4FEAD60C 		lsr	ip, r6, #3
 357:../../libDaisy//src/dev/oled_ssd130x.h ****         else
 5240              		.loc 12 357 54 view .LVU1226
ARM GAS  /var/folders/1y/_321xjh9623c014x9_qw12rr0000gn/T//cc1ZQ1Ea.s 			page 150


 5241 025a 06F0070B 		and	fp, r6, #7
 357:../../libDaisy//src/dev/oled_ssd130x.h ****         else
 5242              		.loc 12 357 48 view .LVU1227
 5243 025e 4FF00108 		mov	r8, #1
 357:../../libDaisy//src/dev/oled_ssd130x.h ****         else
 5244              		.loc 12 357 42 view .LVU1228
 5245 0262 03EBCC1C 		add	ip, r3, ip, lsl #7
 5246 0266 8444     		add	ip, ip, r0
 356:../../libDaisy//src/dev/oled_ssd130x.h ****             buffer_[x + (y / 8) * width] |= (1 << (y % 8));
 5247              		.loc 12 356 9 view .LVU1229
 5248 0268 002D     		cmp	r5, #0
 5249 026a 73D0     		beq	.L356
 357:../../libDaisy//src/dev/oled_ssd130x.h ****         else
 5250              		.loc 12 357 48 view .LVU1230
 5251 026c 08FA0BF8 		lsl	r8, r8, fp
 357:../../libDaisy//src/dev/oled_ssd130x.h ****         else
 5252              		.loc 12 357 42 view .LVU1231
 5253 0270 9CF814B0 		ldrb	fp, [ip, #20]	@ zero_extendqisi2
 5254 0274 48EA0B08 		orr	r8, r8, fp
 5255 0278 8CF81480 		strb	r8, [ip, #20]
 5256              	.L355:
 5257              	.LVL413:
 357:../../libDaisy//src/dev/oled_ssd130x.h ****         else
 5258              		.loc 12 357 42 view .LVU1232
 5259              	.LBE1370:
 5260              	.LBE1369:
 5261              	.LBE1368:
 243:../../libDaisy//src/hid/disp/display.h ****             {
 5262              		.loc 4 243 13 view .LVU1233
 5263 027c 5FEA470C 		lsls	ip, r7, #1
 5264              	.LVL414:
 246:../../libDaisy//src/hid/disp/display.h ****             }
 5265              		.loc 4 246 20 view .LVU1234
 5266 0280 18BF     		it	ne
 5267 0282 4B44     		addne	r3, r3, r9
 5268              	.LVL415:
 249:../../libDaisy//src/hid/disp/display.h ****             {
 5269              		.loc 4 249 13 view .LVU1235
 5270 0284 E645     		cmp	lr, ip
 5271 0286 01DD     		ble	.L358
 251:../../libDaisy//src/hid/disp/display.h ****                 y1 += signY;
 5272              		.loc 4 251 23 view .LVU1236
 5273 0288 7744     		add	r7, r7, lr
 5274              	.LVL416:
 252:../../libDaisy//src/hid/disp/display.h ****             }
 5275              		.loc 4 252 20 view .LVU1237
 5276 028a 013E     		subs	r6, r6, #1
 5277              	.LVL417:
 5278              	.L358:
 239:../../libDaisy//src/hid/disp/display.h ****         {
 5279              		.loc 4 239 26 is_stmt 1 view .LVU1238
 5280 028c 9942     		cmp	r1, r3
 5281 028e DED1     		bne	.L353
 239:../../libDaisy//src/hid/disp/display.h ****         {
 5282              		.loc 4 239 26 is_stmt 0 view .LVU1239
 5283 0290 B442     		cmp	r4, r6
 5284 0292 DCD1     		bne	.L353
ARM GAS  /var/folders/1y/_321xjh9623c014x9_qw12rr0000gn/T//cc1ZQ1Ea.s 			page 151


 5285              	.LVL418:
 5286              	.L352:
 239:../../libDaisy//src/hid/disp/display.h ****         {
 5287              		.loc 4 239 26 view .LVU1240
 5288              	.LBE1357:
 5289              	.LBE1356:
 5290              	.LBB1379:
 5291              	.LBI1379:
 221:../../libDaisy//src/hid/disp/display.h ****                   uint_fast8_t y1,
 5292              		.loc 4 221 10 is_stmt 1 view .LVU1241
 5293              	.LBB1380:
 228:../../libDaisy//src/hid/disp/display.h ****         int_fast16_t signX  = ((x1 < x2) ? 1 : -1);
 5294              		.loc 4 228 52 is_stmt 0 view .LVU1242
 5295 0294 A2EB040E 		sub	lr, r2, r4
 228:../../libDaisy//src/hid/disp/display.h ****         int_fast16_t signX  = ((x1 < x2) ? 1 : -1);
 5296              		.loc 4 228 22 view .LVU1243
 5297 0298 BEF1000F 		cmp	lr, #0
 5298 029c B8BF     		it	lt
 5299 029e CEF1000E 		rsblt	lr, lr, #0
 5300              	.LVL419:
 230:../../libDaisy//src/hid/disp/display.h ****         int_fast16_t error  = deltaX - deltaY;
 5301              		.loc 4 230 42 view .LVU1244
 5302 02a2 A242     		cmp	r2, r4
 5303 02a4 8CBF     		ite	hi
 5304 02a6 4FF00108 		movhi	r8, #1
 5305 02aa 4FF0FF38 		movls	r8, #-1
 5306              	.LVL420:
 231:../../libDaisy//src/hid/disp/display.h ****         int_fast16_t error2;
 5307              		.loc 4 231 22 view .LVU1245
 5308 02ae CEF1000C 		rsb	ip, lr, #0
 5309              	.LVL421:
 5310              	.LBB1381:
 5311              	.LBI1381:
  42:../../libDaisy//src/hid/disp/oled_display.h ****     {
 5312              		.loc 3 42 10 is_stmt 1 view .LVU1246
 5313              	.LBB1382:
 5314              	.LBI1382:
 352:../../libDaisy//src/dev/oled_ssd130x.h ****     {
 5315              		.loc 12 352 10 view .LVU1247
 5316              	.LBB1383:
 354:../../libDaisy//src/dev/oled_ssd130x.h ****             return;
 5317              		.loc 12 354 9 is_stmt 0 view .LVU1248
 5318 02b2 BAF1000F 		cmp	r10, #0
 5319 02b6 0ED1     		bne	.L360
 5320 02b8 029B     		ldr	r3, [sp, #8]
 5321 02ba 63B9     		cbnz	r3, .L360
 357:../../libDaisy//src/dev/oled_ssd130x.h ****         else
 5322              		.loc 12 357 28 view .LVU1249
 5323 02bc D308     		lsrs	r3, r2, #3
 357:../../libDaisy//src/dev/oled_ssd130x.h ****         else
 5324              		.loc 12 357 54 view .LVU1250
 5325 02be 02F00707 		and	r7, r2, #7
 357:../../libDaisy//src/dev/oled_ssd130x.h ****         else
 5326              		.loc 12 357 48 view .LVU1251
 5327 02c2 0126     		movs	r6, #1
 357:../../libDaisy//src/dev/oled_ssd130x.h ****         else
 5328              		.loc 12 357 42 view .LVU1252
ARM GAS  /var/folders/1y/_321xjh9623c014x9_qw12rr0000gn/T//cc1ZQ1Ea.s 			page 152


 5329 02c4 01EBC313 		add	r3, r1, r3, lsl #7
 5330 02c8 0344     		add	r3, r3, r0
 356:../../libDaisy//src/dev/oled_ssd130x.h ****             buffer_[x + (y / 8) * width] |= (1 << (y % 8));
 5331              		.loc 12 356 9 view .LVU1253
 5332 02ca 002D     		cmp	r5, #0
 5333 02cc 7CD0     		beq	.L361
 357:../../libDaisy//src/dev/oled_ssd130x.h ****         else
 5334              		.loc 12 357 48 view .LVU1254
 5335 02ce BE40     		lsls	r6, r6, r7
 357:../../libDaisy//src/dev/oled_ssd130x.h ****         else
 5336              		.loc 12 357 42 view .LVU1255
 5337 02d0 1F7D     		ldrb	r7, [r3, #20]	@ zero_extendqisi2
 5338 02d2 3E43     		orrs	r6, r6, r7
 5339 02d4 1E75     		strb	r6, [r3, #20]
 5340              	.L360:
 5341              	.LVL422:
 357:../../libDaisy//src/dev/oled_ssd130x.h ****         else
 5342              		.loc 12 357 42 view .LVU1256
 5343              	.LBE1383:
 5344              	.LBE1382:
 5345              	.LBE1381:
 239:../../libDaisy//src/hid/disp/display.h ****         {
 5346              		.loc 4 239 26 is_stmt 1 view .LVU1257
 5347 02d6 019B     		ldr	r3, [sp, #4]
 5348 02d8 002B     		cmp	r3, #0
 5349 02da 7FF4CDAE 		bne	.L318
 5350 02de 6646     		mov	r6, ip
 5351 02e0 0B46     		mov	r3, r1
 5352              	.LVL423:
 5353              	.L362:
 5354              	.LBB1388:
 5355              	.LBI1388:
  42:../../libDaisy//src/hid/disp/oled_display.h ****     {
 5356              		.loc 3 42 10 view .LVU1258
 5357              	.LBB1389:
 5358              	.LBI1389:
 352:../../libDaisy//src/dev/oled_ssd130x.h ****     {
 5359              		.loc 12 352 10 view .LVU1259
 5360              	.LBB1390:
 354:../../libDaisy//src/dev/oled_ssd130x.h ****             return;
 5361              		.loc 12 354 9 is_stmt 0 view .LVU1260
 5362 02e2 7F2B     		cmp	r3, #127
 5363 02e4 12D8     		bhi	.L364
 354:../../libDaisy//src/dev/oled_ssd130x.h ****             return;
 5364              		.loc 12 354 9 view .LVU1261
 5365 02e6 3F2C     		cmp	r4, #63
 5366 02e8 10D8     		bhi	.L364
 357:../../libDaisy//src/dev/oled_ssd130x.h ****         else
 5367              		.loc 12 357 28 view .LVU1262
 5368 02ea E708     		lsrs	r7, r4, #3
 357:../../libDaisy//src/dev/oled_ssd130x.h ****         else
 5369              		.loc 12 357 54 view .LVU1263
 5370 02ec 04F0070A 		and	r10, r4, #7
 357:../../libDaisy//src/dev/oled_ssd130x.h ****         else
 5371              		.loc 12 357 48 view .LVU1264
 5372 02f0 4FF00109 		mov	r9, #1
 357:../../libDaisy//src/dev/oled_ssd130x.h ****         else
ARM GAS  /var/folders/1y/_321xjh9623c014x9_qw12rr0000gn/T//cc1ZQ1Ea.s 			page 153


 5373              		.loc 12 357 42 view .LVU1265
 5374 02f4 03EBC717 		add	r7, r3, r7, lsl #7
 5375 02f8 0744     		add	r7, r7, r0
 356:../../libDaisy//src/dev/oled_ssd130x.h ****             buffer_[x + (y / 8) * width] |= (1 << (y % 8));
 5376              		.loc 12 356 9 view .LVU1266
 5377 02fa A5B3     		cbz	r5, .L365
 357:../../libDaisy//src/dev/oled_ssd130x.h ****         else
 5378              		.loc 12 357 48 view .LVU1267
 5379 02fc 09FA0AF9 		lsl	r9, r9, r10
 357:../../libDaisy//src/dev/oled_ssd130x.h ****         else
 5380              		.loc 12 357 42 view .LVU1268
 5381 0300 97F814A0 		ldrb	r10, [r7, #20]	@ zero_extendqisi2
 5382 0304 49EA0A09 		orr	r9, r9, r10
 5383 0308 87F81490 		strb	r9, [r7, #20]
 5384              	.L364:
 5385              	.LVL424:
 357:../../libDaisy//src/dev/oled_ssd130x.h ****         else
 5386              		.loc 12 357 42 view .LVU1269
 5387              	.LBE1390:
 5388              	.LBE1389:
 5389              	.LBE1388:
 243:../../libDaisy//src/hid/disp/display.h ****             {
 5390              		.loc 4 243 13 view .LVU1270
 5391 030c BCEB460F 		cmp	ip, r6, lsl #1
 242:../../libDaisy//src/hid/disp/display.h ****             if(error2 > -deltaY)
 5392              		.loc 4 242 20 view .LVU1271
 5393 0310 4FEA4607 		lsl	r7, r6, #1
 5394              	.LVL425:
 243:../../libDaisy//src/hid/disp/display.h ****             {
 5395              		.loc 4 243 13 view .LVU1272
 5396 0314 02DA     		bge	.L366
 245:../../libDaisy//src/hid/disp/display.h ****                 x1 += signX;
 5397              		.loc 4 245 23 view .LVU1273
 5398 0316 A6EB0E06 		sub	r6, r6, lr
 5399              	.LVL426:
 246:../../libDaisy//src/hid/disp/display.h ****             }
 5400              		.loc 4 246 20 view .LVU1274
 5401 031a 013B     		subs	r3, r3, #1
 5402              	.LVL427:
 5403              	.L366:
 249:../../libDaisy//src/hid/disp/display.h ****             {
 5404              		.loc 4 249 13 view .LVU1275
 5405 031c 07B1     		cbz	r7, .L367
 252:../../libDaisy//src/hid/disp/display.h ****             }
 5406              		.loc 4 252 20 view .LVU1276
 5407 031e 4444     		add	r4, r4, r8
 5408              	.LVL428:
 5409              	.L367:
 239:../../libDaisy//src/hid/disp/display.h ****         {
 5410              		.loc 4 239 26 is_stmt 1 view .LVU1277
 5411 0320 9942     		cmp	r1, r3
 5412 0322 DED1     		bne	.L362
 239:../../libDaisy//src/hid/disp/display.h ****         {
 5413              		.loc 4 239 26 is_stmt 0 view .LVU1278
 5414 0324 A242     		cmp	r2, r4
 5415 0326 DCD1     		bne	.L362
 5416              	.LBE1380:
ARM GAS  /var/folders/1y/_321xjh9623c014x9_qw12rr0000gn/T//cc1ZQ1Ea.s 			page 154


 5417              	.LBE1379:
 5418              	.LBE1432:
 281:../../libDaisy//src/hid/disp/display.h **** 
 5419              		.loc 4 281 5 view .LVU1279
 5420 0328 07B0     		add	sp, sp, #28
 5421              		.cfi_remember_state
 5422              		.cfi_def_cfa_offset 36
 5423              		@ sp needed
 5424 032a BDE8F08F 		pop	{r4, r5, r6, r7, r8, r9, r10, fp, pc}
 5425              	.LVL429:
 5426              	.L327:
 5427              		.cfi_restore_state
 5428              	.LBB1433:
 5429              	.LBB1399:
 5430              	.LBB1316:
 5431              	.LBB1312:
  42:../../libDaisy//src/hid/disp/oled_display.h ****     {
 5432              		.loc 3 42 10 is_stmt 1 view .LVU1280
 5433              	.LBB1301:
 352:../../libDaisy//src/dev/oled_ssd130x.h ****     {
 5434              		.loc 12 352 10 view .LVU1281
 5435              	.LBB1297:
 354:../../libDaisy//src/dev/oled_ssd130x.h ****             return;
 5436              		.loc 12 354 28 is_stmt 0 view .LVU1282
 5437 032e 3F2A     		cmp	r2, #63
 5438              	.LBE1297:
 5439              	.LBE1301:
 5440              	.LBE1312:
 229:../../libDaisy//src/hid/disp/display.h ****         int_fast16_t signY  = ((y1 < y2) ? 1 : -1);
 5441              		.loc 4 229 42 view .LVU1283
 5442 0330 4FF0010A 		mov	r10, #1
 5443              	.LBB1313:
 5444              	.LBB1302:
 5445              	.LBB1298:
 354:../../libDaisy//src/dev/oled_ssd130x.h ****             return;
 5446              		.loc 12 354 28 view .LVU1284
 5447 0334 94BF     		ite	ls
 5448 0336 0026     		movls	r6, #0
 5449 0338 0126     		movhi	r6, #1
 354:../../libDaisy//src/dev/oled_ssd130x.h ****             return;
 5450              		.loc 12 354 14 view .LVU1285
 5451 033a 7F2B     		cmp	r3, #127
 354:../../libDaisy//src/dev/oled_ssd130x.h ****             return;
 5452              		.loc 12 354 28 view .LVU1286
 5453 033c 0296     		str	r6, [sp, #8]
 354:../../libDaisy//src/dev/oled_ssd130x.h ****             return;
 5454              		.loc 12 354 14 view .LVU1287
 5455 033e 94BF     		ite	ls
 5456 0340 0027     		movls	r7, #0
 5457 0342 0127     		movhi	r7, #1
 5458 0344 0097     		str	r7, [sp]
 354:../../libDaisy//src/dev/oled_ssd130x.h ****             return;
 5459              		.loc 12 354 9 view .LVU1288
 5460 0346 002E     		cmp	r6, #0
 5461 0348 7FF4C8AE 		bne	.L331
 5462 034c 002F     		cmp	r7, #0
 5463 034e 3FF4AEAE 		beq	.L369
ARM GAS  /var/folders/1y/_321xjh9623c014x9_qw12rr0000gn/T//cc1ZQ1Ea.s 			page 155


 5464 0352 C3E6     		b	.L331
 5465              	.LVL430:
 5466              	.L356:
 354:../../libDaisy//src/dev/oled_ssd130x.h ****             return;
 5467              		.loc 12 354 9 view .LVU1289
 5468              	.LBE1298:
 5469              	.LBE1302:
 5470              	.LBE1313:
 5471              	.LBE1316:
 5472              	.LBE1399:
 5473              	.LBB1400:
 5474              	.LBB1377:
 5475              	.LBB1375:
 5476              	.LBB1374:
 5477              	.LBB1373:
 5478              	.LBB1371:
 5479              	.LBI1371:
 352:../../libDaisy//src/dev/oled_ssd130x.h ****     {
 5480              		.loc 12 352 10 is_stmt 1 view .LVU1290
 5481              	.LBB1372:
 359:../../libDaisy//src/dev/oled_ssd130x.h ****     }
 5482              		.loc 12 359 49 is_stmt 0 view .LVU1291
 5483 0354 08FA0BFB 		lsl	fp, r8, fp
 359:../../libDaisy//src/dev/oled_ssd130x.h ****     }
 5484              		.loc 12 359 42 view .LVU1292
 5485 0358 9CF81480 		ldrb	r8, [ip, #20]	@ zero_extendqisi2
 5486 035c 28EA0B08 		bic	r8, r8, fp
 5487 0360 8CF81480 		strb	r8, [ip, #20]
 5488 0364 8AE7     		b	.L355
 5489              	.LVL431:
 5490              	.L365:
 359:../../libDaisy//src/dev/oled_ssd130x.h ****     }
 5491              		.loc 12 359 42 view .LVU1293
 5492              	.LBE1372:
 5493              	.LBE1371:
 5494              	.LBE1373:
 5495              	.LBE1374:
 5496              	.LBE1375:
 5497              	.LBE1377:
 5498              	.LBE1400:
 5499              	.LBB1401:
 5500              	.LBB1397:
 5501              	.LBB1395:
 5502              	.LBB1394:
 5503              	.LBB1393:
 5504              	.LBB1391:
 5505              	.LBI1391:
 352:../../libDaisy//src/dev/oled_ssd130x.h ****     {
 5506              		.loc 12 352 10 is_stmt 1 view .LVU1294
 5507              	.LBB1392:
 359:../../libDaisy//src/dev/oled_ssd130x.h ****     }
 5508              		.loc 12 359 49 is_stmt 0 view .LVU1295
 5509 0366 09FA0AFA 		lsl	r10, r9, r10
 359:../../libDaisy//src/dev/oled_ssd130x.h ****     }
 5510              		.loc 12 359 42 view .LVU1296
 5511 036a 97F81490 		ldrb	r9, [r7, #20]	@ zero_extendqisi2
 5512 036e 29EA0A09 		bic	r9, r9, r10
ARM GAS  /var/folders/1y/_321xjh9623c014x9_qw12rr0000gn/T//cc1ZQ1Ea.s 			page 156


 5513 0372 87F81490 		strb	r9, [r7, #20]
 5514 0376 C9E7     		b	.L364
 5515              	.LVL432:
 5516              	.L335:
 359:../../libDaisy//src/dev/oled_ssd130x.h ****     }
 5517              		.loc 12 359 42 view .LVU1297
 5518              	.LBE1392:
 5519              	.LBE1391:
 5520              	.LBE1393:
 5521              	.LBE1394:
 5522              	.LBE1395:
 5523              	.LBE1397:
 5524              	.LBE1401:
 5525              	.LBB1402:
 5526              	.LBB1317:
 5527              	.LBB1314:
 5528              	.LBB1311:
 5529              	.LBB1310:
 5530              	.LBB1308:
 5531              	.LBI1308:
 352:../../libDaisy//src/dev/oled_ssd130x.h ****     {
 5532              		.loc 12 352 10 is_stmt 1 view .LVU1298
 5533              	.LBB1309:
 359:../../libDaisy//src/dev/oled_ssd130x.h ****     }
 5534              		.loc 12 359 49 is_stmt 0 view .LVU1299
 5535 0378 09FA0BFB 		lsl	fp, r9, fp
 359:../../libDaisy//src/dev/oled_ssd130x.h ****     }
 5536              		.loc 12 359 42 view .LVU1300
 5537 037c 97F81490 		ldrb	r9, [r7, #20]	@ zero_extendqisi2
 5538 0380 29EA0B09 		bic	r9, r9, fp
 5539 0384 87F81490 		strb	r9, [r7, #20]
 5540 0388 C5E6     		b	.L334
 5541              	.LVL433:
 5542              	.L346:
 359:../../libDaisy//src/dev/oled_ssd130x.h ****     }
 5543              		.loc 12 359 42 view .LVU1301
 5544              	.LBE1309:
 5545              	.LBE1308:
 5546              	.LBE1310:
 5547              	.LBE1311:
 5548              	.LBE1314:
 5549              	.LBE1317:
 5550              	.LBE1402:
 5551              	.LBB1403:
 5552              	.LBB1353:
 5553              	.LBB1350:
 5554              	.LBB1349:
 5555              	.LBB1348:
 5556              	.LBB1346:
 5557              	.LBI1346:
 352:../../libDaisy//src/dev/oled_ssd130x.h ****     {
 5558              		.loc 12 352 10 is_stmt 1 view .LVU1302
 5559              	.LBB1347:
 359:../../libDaisy//src/dev/oled_ssd130x.h ****     }
 5560              		.loc 12 359 49 is_stmt 0 view .LVU1303
 5561 038a 0AFA0BFB 		lsl	fp, r10, fp
 359:../../libDaisy//src/dev/oled_ssd130x.h ****     }
ARM GAS  /var/folders/1y/_321xjh9623c014x9_qw12rr0000gn/T//cc1ZQ1Ea.s 			page 157


 5562              		.loc 12 359 42 view .LVU1304
 5563 038e 9EF814A0 		ldrb	r10, [lr, #20]	@ zero_extendqisi2
 5564 0392 2AEA0B0A 		bic	r10, r10, fp
 5565 0396 8EF814A0 		strb	r10, [lr, #20]
 5566 039a 18E7     		b	.L345
 5567              	.LVL434:
 5568              	.L338:
 359:../../libDaisy//src/dev/oled_ssd130x.h ****     }
 5569              		.loc 12 359 42 view .LVU1305
 5570              	.LBE1347:
 5571              	.LBE1346:
 5572              	.LBE1348:
 5573              	.LBE1349:
 5574              	.LBE1350:
 5575              	.LBB1351:
 5576              	.LBB1337:
 5577              	.LBB1331:
 354:../../libDaisy//src/dev/oled_ssd130x.h ****             return;
 5578              		.loc 12 354 9 view .LVU1306
 5579 039c 97BB     		cbnz	r7, .L377
 5580 039e 8EBB     		cbnz	r6, .L377
 5581              	.LBE1331:
 5582              	.LBE1337:
 5583              	.LBE1351:
 230:../../libDaisy//src/hid/disp/display.h ****         int_fast16_t error  = deltaX - deltaY;
 5584              		.loc 4 230 42 view .LVU1307
 5585 03a0 0126     		movs	r6, #1
 5586 03a2 0096     		str	r6, [sp]
 5587              	.LBB1352:
 5588              	.LBB1338:
 5589              	.LBB1332:
 357:../../libDaisy//src/dev/oled_ssd130x.h ****         else
 5590              		.loc 12 357 28 view .LVU1308
 5591 03a4 E608     		lsrs	r6, r4, #3
 357:../../libDaisy//src/dev/oled_ssd130x.h ****         else
 5592              		.loc 12 357 42 view .LVU1309
 5593 03a6 03EBC616 		add	r6, r3, r6, lsl #7
 5594 03aa 0644     		add	r6, r6, r0
 356:../../libDaisy//src/dev/oled_ssd130x.h ****             buffer_[x + (y / 8) * width] |= (1 << (y % 8));
 5595              		.loc 12 356 9 view .LVU1310
 5596 03ac 002D     		cmp	r5, #0
 5597 03ae 7FF4E2AE 		bne	.L412
 5598              	.LVL435:
 5599              	.L340:
 5600              	.LBB1325:
 5601              	.LBI1325:
 352:../../libDaisy//src/dev/oled_ssd130x.h ****     {
 5602              		.loc 12 352 10 is_stmt 1 view .LVU1311
 5603              	.LBB1326:
 359:../../libDaisy//src/dev/oled_ssd130x.h ****     }
 5604              		.loc 12 359 49 is_stmt 0 view .LVU1312
 5605 03b2 0127     		movs	r7, #1
 359:../../libDaisy//src/dev/oled_ssd130x.h ****     }
 5606              		.loc 12 359 55 view .LVU1313
 5607 03b4 04F0070C 		and	ip, r4, #7
 359:../../libDaisy//src/dev/oled_ssd130x.h ****     }
 5608              		.loc 12 359 42 view .LVU1314
ARM GAS  /var/folders/1y/_321xjh9623c014x9_qw12rr0000gn/T//cc1ZQ1Ea.s 			page 158


 5609 03b8 0395     		str	r5, [sp, #12]
 359:../../libDaisy//src/dev/oled_ssd130x.h ****     }
 5610              		.loc 12 359 49 view .LVU1315
 5611 03ba 07FA0CFC 		lsl	ip, r7, ip
 359:../../libDaisy//src/dev/oled_ssd130x.h ****     }
 5612              		.loc 12 359 42 view .LVU1316
 5613 03be 377D     		ldrb	r7, [r6, #20]	@ zero_extendqisi2
 5614 03c0 27EA0C07 		bic	r7, r7, ip
 5615 03c4 3775     		strb	r7, [r6, #20]
 5616 03c6 E3E6     		b	.L339
 5617              	.LVL436:
 5618              	.L361:
 359:../../libDaisy//src/dev/oled_ssd130x.h ****     }
 5619              		.loc 12 359 42 view .LVU1317
 5620              	.LBE1326:
 5621              	.LBE1325:
 5622              	.LBE1332:
 5623              	.LBE1338:
 5624              	.LBE1352:
 5625              	.LBE1353:
 5626              	.LBE1403:
 5627              	.LBB1404:
 5628              	.LBB1398:
 5629              	.LBB1396:
 5630              	.LBB1387:
 5631              	.LBB1386:
 5632              	.LBB1384:
 5633              	.LBI1384:
 352:../../libDaisy//src/dev/oled_ssd130x.h ****     {
 5634              		.loc 12 352 10 is_stmt 1 view .LVU1318
 5635              	.LBB1385:
 359:../../libDaisy//src/dev/oled_ssd130x.h ****     }
 5636              		.loc 12 359 49 is_stmt 0 view .LVU1319
 5637 03c8 06FA07F7 		lsl	r7, r6, r7
 359:../../libDaisy//src/dev/oled_ssd130x.h ****     }
 5638              		.loc 12 359 42 view .LVU1320
 5639 03cc 1E7D     		ldrb	r6, [r3, #20]	@ zero_extendqisi2
 5640 03ce 26EA0706 		bic	r6, r6, r7
 5641 03d2 1E75     		strb	r6, [r3, #20]
 5642 03d4 7FE7     		b	.L360
 5643              	.LVL437:
 5644              	.L351:
 359:../../libDaisy//src/dev/oled_ssd130x.h ****     }
 5645              		.loc 12 359 42 view .LVU1321
 5646              	.LBE1385:
 5647              	.LBE1384:
 5648              	.LBE1386:
 5649              	.LBE1387:
 5650              	.LBE1396:
 5651              	.LBE1398:
 5652              	.LBE1404:
 5653              	.LBB1405:
 5654              	.LBB1378:
 5655              	.LBB1376:
 5656              	.LBB1366:
 5657              	.LBB1364:
 5658              	.LBB1361:
ARM GAS  /var/folders/1y/_321xjh9623c014x9_qw12rr0000gn/T//cc1ZQ1Ea.s 			page 159


 5659              	.LBI1361:
 352:../../libDaisy//src/dev/oled_ssd130x.h ****     {
 5660              		.loc 12 352 10 is_stmt 1 view .LVU1322
 5661              	.LBB1362:
 359:../../libDaisy//src/dev/oled_ssd130x.h ****     }
 5662              		.loc 12 359 49 is_stmt 0 view .LVU1323
 5663 03d6 0127     		movs	r7, #1
 359:../../libDaisy//src/dev/oled_ssd130x.h ****     }
 5664              		.loc 12 359 55 view .LVU1324
 5665 03d8 04F0070C 		and	ip, r4, #7
 359:../../libDaisy//src/dev/oled_ssd130x.h ****     }
 5666              		.loc 12 359 49 view .LVU1325
 5667 03dc 07FA0CFC 		lsl	ip, r7, ip
 359:../../libDaisy//src/dev/oled_ssd130x.h ****     }
 5668              		.loc 12 359 42 view .LVU1326
 5669 03e0 377D     		ldrb	r7, [r6, #20]	@ zero_extendqisi2
 5670 03e2 27EA0C07 		bic	r7, r7, ip
 5671 03e6 3775     		strb	r7, [r6, #20]
 5672 03e8 2DE7     		b	.L350
 5673              	.LVL438:
 5674              	.L329:
 359:../../libDaisy//src/dev/oled_ssd130x.h ****     }
 5675              		.loc 12 359 42 view .LVU1327
 5676              	.LBE1362:
 5677              	.LBE1361:
 5678              	.LBE1364:
 5679              	.LBE1366:
 5680              	.LBE1376:
 5681              	.LBE1378:
 5682              	.LBE1405:
 5683              	.LBB1406:
 5684              	.LBB1318:
 5685              	.LBB1315:
 5686              	.LBB1303:
 5687              	.LBB1299:
 5688              	.LBB1294:
 5689              	.LBI1294:
 352:../../libDaisy//src/dev/oled_ssd130x.h ****     {
 5690              		.loc 12 352 10 is_stmt 1 view .LVU1328
 5691              	.LBB1295:
 359:../../libDaisy//src/dev/oled_ssd130x.h ****     }
 5692              		.loc 12 359 49 is_stmt 0 view .LVU1329
 5693 03ea 07FA0CFC 		lsl	ip, r7, ip
 359:../../libDaisy//src/dev/oled_ssd130x.h ****     }
 5694              		.loc 12 359 42 view .LVU1330
 5695 03ee 377D     		ldrb	r7, [r6, #20]	@ zero_extendqisi2
 5696 03f0 0295     		str	r5, [sp, #8]
 5697 03f2 27EA0C07 		bic	r7, r7, ip
 5698 03f6 0095     		str	r5, [sp]
 5699 03f8 3775     		strb	r7, [r6, #20]
 5700 03fa 6CE6     		b	.L328
 5701              	.LVL439:
 5702              	.L373:
 359:../../libDaisy//src/dev/oled_ssd130x.h ****     }
 5703              		.loc 12 359 42 view .LVU1331
 5704              	.LBE1295:
 5705              	.LBE1294:
ARM GAS  /var/folders/1y/_321xjh9623c014x9_qw12rr0000gn/T//cc1ZQ1Ea.s 			page 160


 5706              	.LBE1299:
 5707              	.LBE1303:
 5708              	.LBE1315:
 5709              	.LBE1318:
 5710              	.LBE1406:
 5711              	.LBB1407:
 5712              	.LBB1354:
 230:../../libDaisy//src/hid/disp/display.h ****         int_fast16_t error  = deltaX - deltaY;
 5713              		.loc 4 230 42 view .LVU1332
 5714 03fc 4FF0FF36 		mov	r6, #-1
 5715 0400 0096     		str	r6, [sp]
 5716 0402 C5E6     		b	.L339
 5717              	.LVL440:
 5718              	.L377:
 230:../../libDaisy//src/hid/disp/display.h ****         int_fast16_t error  = deltaX - deltaY;
 5719              		.loc 4 230 42 view .LVU1333
 5720 0404 0126     		movs	r6, #1
 5721 0406 0096     		str	r6, [sp]
 5722 0408 C5E6     		b	.L342
 5723              	.LVL441:
 5724              	.L410:
 230:../../libDaisy//src/hid/disp/display.h ****         int_fast16_t error  = deltaX - deltaY;
 5725              		.loc 4 230 42 view .LVU1334
 5726              	.LBE1354:
 5727              	.LBE1407:
 5728              	.LBB1408:
 5729              	.LBB1319:
 239:../../libDaisy//src/hid/disp/display.h ****         {
 5730              		.loc 4 239 19 view .LVU1335
 5731 040a 0126     		movs	r6, #1
 5732 040c 0496     		str	r6, [sp, #16]
 5733 040e 90E6     		b	.L330
 5734              	.LVL442:
 5735              	.L411:
 239:../../libDaisy//src/hid/disp/display.h ****         {
 5736              		.loc 4 239 19 view .LVU1336
 5737              	.LBE1319:
 5738              	.LBE1408:
 5739              	.LBB1409:
 5740              	.LBB1355:
 239:../../libDaisy//src/hid/disp/display.h ****         {
 5741              		.loc 4 239 33 view .LVU1337
 5742 0410 0126     		movs	r6, #1
 5743 0412 0196     		str	r6, [sp, #4]
 5744 0414 EDE6     		b	.L341
 5745              	.LBE1355:
 5746              	.LBE1409:
 5747              	.LBE1433:
 5748              		.cfi_endproc
 5749              	.LFE5436:
 5751 0416 00BF     		.section	.text._ZN5daisy5DubbyC2Ev,"axG",%progbits,_ZN5daisy5DubbyC5Ev,comdat
 5752              		.align	1
 5753              		.p2align 2,,3
 5754              		.weak	_ZN5daisy5DubbyC2Ev
 5755              		.syntax unified
 5756              		.thumb
 5757              		.thumb_func
ARM GAS  /var/folders/1y/_321xjh9623c014x9_qw12rr0000gn/T//cc1ZQ1Ea.s 			page 161


 5759              	_ZN5daisy5DubbyC2Ev:
 5760              	.LVL443:
 5761              	.LFB4818:
  76:Dubby.h       **** 
 5762              		.loc 1 76 5 is_stmt 1 view -0
 5763              		.cfi_startproc
 5764              		@ args = 0, pretend = 0, frame = 0
 5765              		@ frame_needed = 0, uses_anonymous_args = 0
  76:Dubby.h       **** 
 5766              		.loc 1 76 5 is_stmt 0 view .LVU1339
 5767 0000 2DE9F843 		push	{r3, r4, r5, r6, r7, r8, r9, lr}
 5768              		.cfi_def_cfa_offset 32
 5769              		.cfi_offset 3, -32
 5770              		.cfi_offset 4, -28
 5771              		.cfi_offset 5, -24
 5772              		.cfi_offset 6, -20
 5773              		.cfi_offset 7, -16
 5774              		.cfi_offset 8, -12
 5775              		.cfi_offset 9, -8
 5776              		.cfi_offset 14, -4
 5777              	.LBB1485:
  76:Dubby.h       **** 
 5778              		.loc 1 76 13 view .LVU1340
 5779 0004 314E     		ldr	r6, .L415
 5780              	.LBE1485:
  76:Dubby.h       **** 
 5781              		.loc 1 76 5 view .LVU1341
 5782 0006 0446     		mov	r4, r0
 5783              	.LBB1549:
 5784              	.LBB1486:
 5785              	.LBB1487:
 5786              	.LBB1488:
 5787              		.file 16 "../../libDaisy//src/per/qspi.h"
   1:../../libDaisy//src/per/qspi.h **** #ifndef DSY_QSPI
   2:../../libDaisy//src/per/qspi.h **** #define DSY_QSPI /**< Macro */
   3:../../libDaisy//src/per/qspi.h **** 
   4:../../libDaisy//src/per/qspi.h **** #ifndef UNIT_TEST // for unit tests, a dummy implementation
   5:../../libDaisy//src/per/qspi.h **** 
   6:../../libDaisy//src/per/qspi.h **** #include <cstdint>
   7:../../libDaisy//src/per/qspi.h **** #include "daisy_core.h" // Added for dsy_gpio_pin typedef
   8:../../libDaisy//src/per/qspi.h **** 
   9:../../libDaisy//src/per/qspi.h **** #define DSY_QSPI_TEXT       \
  10:../../libDaisy//src/per/qspi.h ****     __attribute__((section( \
  11:../../libDaisy//src/per/qspi.h ****         ".qspiflash_text"))) /**< used for reading memory in memory_mapped mode. */
  12:../../libDaisy//src/per/qspi.h **** #define DSY_QSPI_DATA       \
  13:../../libDaisy//src/per/qspi.h ****     __attribute__((section( \
  14:../../libDaisy//src/per/qspi.h ****         ".qspiflash_data"))) /**< used for reading memory in memory_mapped mode. */
  15:../../libDaisy//src/per/qspi.h **** #define DSY_QSPI_BSS        \
  16:../../libDaisy//src/per/qspi.h ****     __attribute__((section( \
  17:../../libDaisy//src/per/qspi.h ****         ".qspiflash_bss"))) /**< used for reading memory in memory_mapped mode. */
  18:../../libDaisy//src/per/qspi.h **** 
  19:../../libDaisy//src/per/qspi.h **** namespace daisy
  20:../../libDaisy//src/per/qspi.h **** {
  21:../../libDaisy//src/per/qspi.h **** /** @addtogroup serial
  22:../../libDaisy//src/per/qspi.h **** @{
  23:../../libDaisy//src/per/qspi.h **** */
  24:../../libDaisy//src/per/qspi.h **** 
ARM GAS  /var/folders/1y/_321xjh9623c014x9_qw12rr0000gn/T//cc1ZQ1Ea.s 			page 162


  25:../../libDaisy//src/per/qspi.h **** /** 
  26:../../libDaisy//src/per/qspi.h ****  Driver for QSPI peripheral to interface with external flash memory. \n 
  27:../../libDaisy//src/per/qspi.h ****     Currently supported QSPI Devices: \n 
  28:../../libDaisy//src/per/qspi.h ****     * IS25LP080D
  29:../../libDaisy//src/per/qspi.h **** */
  30:../../libDaisy//src/per/qspi.h **** class QSPIHandle
  31:../../libDaisy//src/per/qspi.h **** {
  32:../../libDaisy//src/per/qspi.h ****   public:
  33:../../libDaisy//src/per/qspi.h ****     enum Result
  34:../../libDaisy//src/per/qspi.h ****     {
  35:../../libDaisy//src/per/qspi.h ****         OK = 0,
  36:../../libDaisy//src/per/qspi.h ****         ERR
  37:../../libDaisy//src/per/qspi.h ****     };
  38:../../libDaisy//src/per/qspi.h **** 
  39:../../libDaisy//src/per/qspi.h ****     /** Indicates the current status of the module. 
  40:../../libDaisy//src/per/qspi.h ****          *  Warnings are indicated by a leading W.
  41:../../libDaisy//src/per/qspi.h ****          *  Errors are indicated by a leading E and cause an immediate exit.
  42:../../libDaisy//src/per/qspi.h ****          * 
  43:../../libDaisy//src/per/qspi.h ****          *  \param GOOD - No errors have been reported.
  44:../../libDaisy//src/per/qspi.h ****          *  \param E_HAL_ERROR - HAL code did not return HAL_OK.
  45:../../libDaisy//src/per/qspi.h ****          *  \param E_SWITCHING_MODES - An error was encountered while switching QSPI peripheral mod
  46:../../libDaisy//src/per/qspi.h ****          *  \param E_INVALID_MODE - QSPI should not be written to while the program is executing fr
  47:../../libDaisy//src/per/qspi.h ****          */
  48:../../libDaisy//src/per/qspi.h ****     enum Status
  49:../../libDaisy//src/per/qspi.h ****     {
  50:../../libDaisy//src/per/qspi.h ****         GOOD = 0,
  51:../../libDaisy//src/per/qspi.h ****         E_HAL_ERROR,
  52:../../libDaisy//src/per/qspi.h ****         E_SWITCHING_MODES,
  53:../../libDaisy//src/per/qspi.h ****         E_INVALID_MODE,
  54:../../libDaisy//src/per/qspi.h ****     };
  55:../../libDaisy//src/per/qspi.h **** 
  56:../../libDaisy//src/per/qspi.h ****     /** Configuration structure for interfacing with QSPI Driver */
  57:../../libDaisy//src/per/qspi.h ****     struct Config
  58:../../libDaisy//src/per/qspi.h ****     {
  59:../../libDaisy//src/per/qspi.h ****         /** Flash Devices supported. (Both of these are more-or-less the same, just different sizes
  60:../../libDaisy//src/per/qspi.h ****         enum Device
  61:../../libDaisy//src/per/qspi.h ****         {
  62:../../libDaisy//src/per/qspi.h ****             IS25LP080D,  /**< & */
  63:../../libDaisy//src/per/qspi.h ****             IS25LP064A,  /**< & */
  64:../../libDaisy//src/per/qspi.h ****             DEVICE_LAST, /**< & */
  65:../../libDaisy//src/per/qspi.h ****         };
  66:../../libDaisy//src/per/qspi.h **** 
  67:../../libDaisy//src/per/qspi.h ****         /** 
  68:../../libDaisy//src/per/qspi.h ****         Modes of operation.
  69:../../libDaisy//src/per/qspi.h ****         Memory Mapped mode: QSPI configured so that the QSPI can be
  70:../../libDaisy//src/per/qspi.h ****         read from starting address 0x90000000. Writing is not
  71:../../libDaisy//src/per/qspi.h ****         possible in this mode. \n 
  72:../../libDaisy//src/per/qspi.h ****         Indirect Polling mode: Device driver enabled. 
  73:../../libDaisy//src/per/qspi.h ****         */
  74:../../libDaisy//src/per/qspi.h ****         enum Mode
  75:../../libDaisy//src/per/qspi.h ****         {
  76:../../libDaisy//src/per/qspi.h ****             MEMORY_MAPPED,    /**< & */
  77:../../libDaisy//src/per/qspi.h ****             INDIRECT_POLLING, /**< & */
  78:../../libDaisy//src/per/qspi.h ****             MODE_LAST,
  79:../../libDaisy//src/per/qspi.h ****         };
  80:../../libDaisy//src/per/qspi.h **** 
  81:../../libDaisy//src/per/qspi.h ****         //SCK,  CE# (active low)
ARM GAS  /var/folders/1y/_321xjh9623c014x9_qw12rr0000gn/T//cc1ZQ1Ea.s 			page 163


  82:../../libDaisy//src/per/qspi.h ****         struct
  83:../../libDaisy//src/per/qspi.h ****         {
  84:../../libDaisy//src/per/qspi.h ****             dsy_gpio_pin io0; /**< & */
  85:../../libDaisy//src/per/qspi.h ****             dsy_gpio_pin io1; /**< & */
  86:../../libDaisy//src/per/qspi.h ****             dsy_gpio_pin io2; /**< & */
  87:../../libDaisy//src/per/qspi.h ****             dsy_gpio_pin io3; /**< & */
  88:../../libDaisy//src/per/qspi.h ****             dsy_gpio_pin clk; /**< & */
  89:../../libDaisy//src/per/qspi.h ****             dsy_gpio_pin ncs; /**< & */
  90:../../libDaisy//src/per/qspi.h ****         } pin_config;
  91:../../libDaisy//src/per/qspi.h **** 
  92:../../libDaisy//src/per/qspi.h ****         Device device;
  93:../../libDaisy//src/per/qspi.h ****         Mode   mode;
  94:../../libDaisy//src/per/qspi.h ****     };
  95:../../libDaisy//src/per/qspi.h **** 
  96:../../libDaisy//src/per/qspi.h ****     /** 
  97:../../libDaisy//src/per/qspi.h ****         Initializes QSPI peripheral, and Resets, and prepares memory for access.
  98:../../libDaisy//src/per/qspi.h ****         \param config should be populated with the mode, device and pin_config before calling this 
  99:../../libDaisy//src/per/qspi.h ****         \return Result::OK or Result::ERR
 100:../../libDaisy//src/per/qspi.h ****         */
 101:../../libDaisy//src/per/qspi.h ****     Result Init(const Config& config);
 102:../../libDaisy//src/per/qspi.h **** 
 103:../../libDaisy//src/per/qspi.h ****     /** Returns the current config. */
 104:../../libDaisy//src/per/qspi.h ****     const Config& GetConfig() const;
 105:../../libDaisy//src/per/qspi.h **** 
 106:../../libDaisy//src/per/qspi.h ****     // Couldn't this just be called before anything else in init? That
 107:../../libDaisy//src/per/qspi.h ****     // would make manually calling it unnecessary.
 108:../../libDaisy//src/per/qspi.h ****     /** 
 109:../../libDaisy//src/per/qspi.h ****         Deinitializes the peripheral
 110:../../libDaisy//src/per/qspi.h ****         This should be called before reinitializing QSPI in a different mode.
 111:../../libDaisy//src/per/qspi.h ****         \return Result::OK or Result::ERR
 112:../../libDaisy//src/per/qspi.h ****         */
 113:../../libDaisy//src/per/qspi.h ****     Result DeInit();
 114:../../libDaisy//src/per/qspi.h **** 
 115:../../libDaisy//src/per/qspi.h ****     /** 
 116:../../libDaisy//src/per/qspi.h ****         Writes a single page to to the specified address on the QSPI chip.
 117:../../libDaisy//src/per/qspi.h ****         For IS25LP*, page size is 256 bytes.
 118:../../libDaisy//src/per/qspi.h ****         \param address Address to write to
 119:../../libDaisy//src/per/qspi.h ****         \param size Buffer size
 120:../../libDaisy//src/per/qspi.h ****         \param buffer Buffer to write
 121:../../libDaisy//src/per/qspi.h ****         \return Result::OK or Result::ERR
 122:../../libDaisy//src/per/qspi.h ****         */
 123:../../libDaisy//src/per/qspi.h ****     Result WritePage(uint32_t address, uint32_t size, uint8_t* buffer);
 124:../../libDaisy//src/per/qspi.h **** 
 125:../../libDaisy//src/per/qspi.h ****     /** 
 126:../../libDaisy//src/per/qspi.h ****         Writes data in buffer to to the QSPI. Starting at address to address+size 
 127:../../libDaisy//src/per/qspi.h ****         \param address Address to write to
 128:../../libDaisy//src/per/qspi.h ****         \param size Buffer size
 129:../../libDaisy//src/per/qspi.h ****         \param buffer Buffer to write
 130:../../libDaisy//src/per/qspi.h ****         \return Result::OK or Result::ERR
 131:../../libDaisy//src/per/qspi.h ****         */
 132:../../libDaisy//src/per/qspi.h ****     Result Write(uint32_t address, uint32_t size, uint8_t* buffer);
 133:../../libDaisy//src/per/qspi.h **** 
 134:../../libDaisy//src/per/qspi.h ****     /** 
 135:../../libDaisy//src/per/qspi.h ****         Erases the area specified on the chip.
 136:../../libDaisy//src/per/qspi.h ****         Erasures will happen by 4K, 32K or 64K increments.
 137:../../libDaisy//src/per/qspi.h ****         Smallest erase possible is 4kB at a time. (on IS25LP*)
 138:../../libDaisy//src/per/qspi.h ****         \param start_addr Address to begin erasing from
ARM GAS  /var/folders/1y/_321xjh9623c014x9_qw12rr0000gn/T//cc1ZQ1Ea.s 			page 164


 139:../../libDaisy//src/per/qspi.h ****         \param end_addr  Address to stop erasing at
 140:../../libDaisy//src/per/qspi.h ****         \return Result::OK or Result::ERR
 141:../../libDaisy//src/per/qspi.h ****         */
 142:../../libDaisy//src/per/qspi.h ****     Result Erase(uint32_t start_addr, uint32_t end_addr);
 143:../../libDaisy//src/per/qspi.h **** 
 144:../../libDaisy//src/per/qspi.h ****     /**  
 145:../../libDaisy//src/per/qspi.h ****          Erases a single sector of the chip.  
 146:../../libDaisy//src/per/qspi.h ****         TODO: Document the size of this function. 
 147:../../libDaisy//src/per/qspi.h ****         \param address Address of sector to erase
 148:../../libDaisy//src/per/qspi.h ****         \return Result::OK or Result::ERR
 149:../../libDaisy//src/per/qspi.h ****         */
 150:../../libDaisy//src/per/qspi.h ****     Result EraseSector(uint32_t address);
 151:../../libDaisy//src/per/qspi.h **** 
 152:../../libDaisy//src/per/qspi.h ****     /** Returns the current class status. Useful for debugging.
 153:../../libDaisy//src/per/qspi.h ****      *  \returns Status
 154:../../libDaisy//src/per/qspi.h ****      */
 155:../../libDaisy//src/per/qspi.h ****     Status GetStatus();
 156:../../libDaisy//src/per/qspi.h **** 
 157:../../libDaisy//src/per/qspi.h ****     /** Returns a pointer to the actual memory used 
 158:../../libDaisy//src/per/qspi.h ****      *  The memory at this address is read-only
 159:../../libDaisy//src/per/qspi.h ****      *  to write to it use the Write function.
 160:../../libDaisy//src/per/qspi.h ****      * 
 161:../../libDaisy//src/per/qspi.h ****      *  \param offset returns the pointer starting this 
 162:../../libDaisy//src/per/qspi.h ****      *                many bytes into the memory
 163:../../libDaisy//src/per/qspi.h ****     */
 164:../../libDaisy//src/per/qspi.h ****     void* GetData(uint32_t offset = 0);
 165:../../libDaisy//src/per/qspi.h **** 
 166:../../libDaisy//src/per/qspi.h ****     QSPIHandle() : pimpl_(nullptr) {}
 5788              		.loc 16 166 34 view .LVU1342
 5789 0008 0025     		movs	r5, #0
 5790              	.LBE1488:
 5791              	.LBE1487:
 5792              	.LBE1486:
  76:Dubby.h       **** 
 5793              		.loc 1 76 13 view .LVU1343
 5794 000a 06F10C03 		add	r3, r6, #12
 5795 000e 04F10C09 		add	r9, r4, #12
 5796 0012 06F11C08 		add	r8, r6, #28
 5797 0016 04F15C07 		add	r7, r4, #92
 5798 001a 06F1340E 		add	lr, r6, #52
 5799 001e 04F1740C 		add	ip, r4, #116
 5800 0022 96E80700 		ldm	r6, {r0, r1, r2}
 5801              	.LVL444:
  76:Dubby.h       **** 
 5802              		.loc 1 76 13 view .LVU1344
 5803 0026 84E80700 		stm	r4, {r0, r1, r2}
 5804 002a 0FCB     		ldm	r3, {r0, r1, r2, r3}
 5805 002c 89E80F00 		stm	r9, {r0, r1, r2, r3}
 5806              	.LVL445:
 5807              	.LBB1499:
 5808              	.LBI1486:
  21:../../libDaisy//src/daisy_seed.h ****     ~DaisySeed() {}
 5809              		.loc 7 21 5 is_stmt 1 view .LVU1345
 5810              	.LBB1490:
 5811              	.LBI1487:
 5812              		.loc 16 166 5 view .LVU1346
 5813              	.LBE1490:
ARM GAS  /var/folders/1y/_321xjh9623c014x9_qw12rr0000gn/T//cc1ZQ1Ea.s 			page 165


 5814              	.LBE1499:
  76:Dubby.h       **** 
 5815              		.loc 1 76 13 is_stmt 0 view .LVU1347
 5816 0030 B8E80F00 		ldmia	r8!, {r0, r1, r2, r3}
 5817              	.LBB1500:
 5818              	.LBB1491:
 5819              	.LBB1489:
 5820              		.loc 16 166 34 view .LVU1348
 5821 0034 E561     		str	r5, [r4, #28]
 5822              	.LVL446:
 5823              		.loc 16 166 34 view .LVU1349
 5824              	.LBE1489:
 5825              	.LBE1491:
 5826              	.LBB1492:
 5827              	.LBI1492:
  95:../../libDaisy//src/hid/audio.h ****     ~AudioHandle() {}
 5828              		.loc 11 95 5 is_stmt 1 view .LVU1350
 5829              	.LBB1493:
  95:../../libDaisy//src/hid/audio.h ****     ~AudioHandle() {}
 5830              		.loc 11 95 35 is_stmt 0 view .LVU1351
 5831 0036 2563     		str	r5, [r4, #48]
 5832              	.LVL447:
  95:../../libDaisy//src/hid/audio.h ****     ~AudioHandle() {}
 5833              		.loc 11 95 35 view .LVU1352
 5834              	.LBE1493:
 5835              	.LBE1492:
 5836              	.LBB1494:
 5837              	.LBI1494:
  92:../../libDaisy//src/per/adc.h ****     ~AdcHandle() {}
 5838              		.loc 10 92 5 is_stmt 1 view .LVU1353
  92:../../libDaisy//src/per/adc.h ****     ~AdcHandle() {}
 5839              		.loc 10 92 5 is_stmt 0 view .LVU1354
 5840              	.LBE1494:
 5841              	.LBB1495:
 5842              	.LBI1495:
 5843              		.file 17 "../../libDaisy//src/per/dac.h"
   1:../../libDaisy//src/per/dac.h **** #pragma once
   2:../../libDaisy//src/per/dac.h **** #ifndef DSY_DAC_H
   3:../../libDaisy//src/per/dac.h **** #define DSY_DAC_H
   4:../../libDaisy//src/per/dac.h **** 
   5:../../libDaisy//src/per/dac.h **** #include "daisy_core.h"
   6:../../libDaisy//src/per/dac.h **** 
   7:../../libDaisy//src/per/dac.h **** namespace daisy
   8:../../libDaisy//src/per/dac.h **** {
   9:../../libDaisy//src/per/dac.h **** /** @brief DAC handle for Built-in DAC Peripheral 
  10:../../libDaisy//src/per/dac.h ****  *  @ingroup per_analog
  11:../../libDaisy//src/per/dac.h ****  ** 
  12:../../libDaisy//src/per/dac.h ****  ** For now only Normal Mode is supported,
  13:../../libDaisy//src/per/dac.h ****  ** Sample and hold mode provides reduced power consumption, but requires a bit more setup.
  14:../../libDaisy//src/per/dac.h ****  **
  15:../../libDaisy//src/per/dac.h ****  ** For now connecting the DAC through other internal peripherals is also not supported.
  16:../../libDaisy//src/per/dac.h ****  **
  17:../../libDaisy//src/per/dac.h ****  ** Since the DAC channels have dedicated pins we don't need to pass in a pin config like with
  18:../../libDaisy//src/per/dac.h ****  ** other modules. However, it is still important to not try to use the DAC pins for anything else.
  19:../../libDaisy//src/per/dac.h ****  ** DAC Channel 1 is on PA4, and DAC Channel 2 is on PA5
  20:../../libDaisy//src/per/dac.h ****  ***/
  21:../../libDaisy//src/per/dac.h **** class DacHandle
ARM GAS  /var/folders/1y/_321xjh9623c014x9_qw12rr0000gn/T//cc1ZQ1Ea.s 			page 166


  22:../../libDaisy//src/per/dac.h **** {
  23:../../libDaisy//src/per/dac.h ****   public:
  24:../../libDaisy//src/per/dac.h ****     /** Return Values for the DacHandle class */
  25:../../libDaisy//src/per/dac.h ****     enum class Result
  26:../../libDaisy//src/per/dac.h ****     {
  27:../../libDaisy//src/per/dac.h ****         OK,
  28:../../libDaisy//src/per/dac.h ****         ERR,
  29:../../libDaisy//src/per/dac.h ****     };
  30:../../libDaisy//src/per/dac.h **** 
  31:../../libDaisy//src/per/dac.h ****     /** Selects which channel(s) will be configured for use. */
  32:../../libDaisy//src/per/dac.h ****     enum class Channel
  33:../../libDaisy//src/per/dac.h ****     {
  34:../../libDaisy//src/per/dac.h ****         ONE,
  35:../../libDaisy//src/per/dac.h ****         TWO,
  36:../../libDaisy//src/per/dac.h ****         BOTH,
  37:../../libDaisy//src/per/dac.h ****     };
  38:../../libDaisy//src/per/dac.h **** 
  39:../../libDaisy//src/per/dac.h ****     /** Sets the Mode for the DAC channels.
  40:../../libDaisy//src/per/dac.h ****      **
  41:../../libDaisy//src/per/dac.h ****      ** Polling mode uses the blocking mode to transmit a single value at a time.
  42:../../libDaisy//src/per/dac.h ****      **
  43:../../libDaisy//src/per/dac.h ****      ** DMA mode uses a buffer, and periodically transmits it triggering a 
  44:../../libDaisy//src/per/dac.h ****      ** callback to fill the buffer when it is ready for more samples.
  45:../../libDaisy//src/per/dac.h ****      ***/
  46:../../libDaisy//src/per/dac.h ****     enum class Mode
  47:../../libDaisy//src/per/dac.h ****     {
  48:../../libDaisy//src/per/dac.h ****         POLLING,
  49:../../libDaisy//src/per/dac.h ****         DMA,
  50:../../libDaisy//src/per/dac.h ****     };
  51:../../libDaisy//src/per/dac.h **** 
  52:../../libDaisy//src/per/dac.h ****     /** Sets the number of bits per sample transmitted out of the DAC.
  53:../../libDaisy//src/per/dac.h ****      ** The output range will be: 0V - VDDA
  54:../../libDaisy//src/per/dac.h ****      ** The resolution will be roughly: bitdepth / (VDDA - 0V) 
  55:../../libDaisy//src/per/dac.h ****      ***/
  56:../../libDaisy//src/per/dac.h ****     enum class BitDepth
  57:../../libDaisy//src/per/dac.h ****     {
  58:../../libDaisy//src/per/dac.h ****         BITS_8,
  59:../../libDaisy//src/per/dac.h ****         BITS_12
  60:../../libDaisy//src/per/dac.h ****     };
  61:../../libDaisy//src/per/dac.h **** 
  62:../../libDaisy//src/per/dac.h ****     /** Sets whether the DAC output is buffered for higher drive ability. */
  63:../../libDaisy//src/per/dac.h ****     enum class BufferState
  64:../../libDaisy//src/per/dac.h ****     {
  65:../../libDaisy//src/per/dac.h ****         ENABLED,
  66:../../libDaisy//src/per/dac.h ****         DISABLED,
  67:../../libDaisy//src/per/dac.h ****     };
  68:../../libDaisy//src/per/dac.h **** 
  69:../../libDaisy//src/per/dac.h ****     /** Configuration structure for initializing the DAC structure. */
  70:../../libDaisy//src/per/dac.h ****     struct Config
  71:../../libDaisy//src/per/dac.h ****     {
  72:../../libDaisy//src/per/dac.h ****         /** Target Samplerate in Hz used to configure the internal 
  73:../../libDaisy//src/per/dac.h ****          ** timebase for DMA mode. Does nothing in POLLING mode.
  74:../../libDaisy//src/per/dac.h ****          ** If the value is 0 at Init time this will default to 48000Hz 
  75:../../libDaisy//src/per/dac.h ****          ** otherwise the driver will attempt meet the target.*/
  76:../../libDaisy//src/per/dac.h ****         uint32_t target_samplerate;
  77:../../libDaisy//src/per/dac.h **** 
  78:../../libDaisy//src/per/dac.h ****         Channel     chn;
ARM GAS  /var/folders/1y/_321xjh9623c014x9_qw12rr0000gn/T//cc1ZQ1Ea.s 			page 167


  79:../../libDaisy//src/per/dac.h ****         Mode        mode;
  80:../../libDaisy//src/per/dac.h ****         BitDepth    bitdepth;
  81:../../libDaisy//src/per/dac.h ****         BufferState buff_state;
  82:../../libDaisy//src/per/dac.h ****     };
  83:../../libDaisy//src/per/dac.h **** 
  84:../../libDaisy//src/per/dac.h ****     DacHandle() : pimpl_(nullptr) {}
 5844              		.loc 17 84 5 is_stmt 1 view .LVU1355
 5845              	.LBB1496:
 5846              		.loc 17 84 33 is_stmt 0 view .LVU1356
 5847 0038 E563     		str	r5, [r4, #60]
 5848              	.LVL448:
 5849              		.loc 17 84 33 view .LVU1357
 5850              	.LBE1496:
 5851              	.LBE1495:
 5852              	.LBB1497:
 5853              	.LBI1497:
  40:../../libDaisy//src/hid/usb.h **** 
 5854              		.loc 9 40 5 is_stmt 1 view .LVU1358
  40:../../libDaisy//src/hid/usb.h **** 
 5855              		.loc 9 40 5 is_stmt 0 view .LVU1359
 5856              	.LBE1497:
 5857              	.LBB1498:
 5858              	.LBI1498:
  77:../../libDaisy//src/sys/system.h ****     ~System() {}
 5859              		.loc 8 77 5 is_stmt 1 view .LVU1360
  77:../../libDaisy//src/sys/system.h ****     ~System() {}
 5860              		.loc 8 77 5 is_stmt 0 view .LVU1361
 5861              	.LBE1498:
 5862              	.LBE1500:
  76:Dubby.h       **** 
 5863              		.loc 1 76 13 view .LVU1362
 5864 003a A4F85850 		strh	r5, [r4, #88]	@ movhi
 5865 003e 0FC7     		stmia	r7!, {r0, r1, r2, r3}
 5866 0040 98E80300 		ldm	r8, {r0, r1}
 5867 0044 87E80300 		stm	r7, {r0, r1}
 5868 0048 BEE80F00 		ldmia	lr!, {r0, r1, r2, r3}
 5869 004c ACE80F00 		stmia	ip!, {r0, r1, r2, r3}
 5870 0050 BEE80F00 		ldmia	lr!, {r0, r1, r2, r3}
 5871 0054 ACE80F00 		stmia	ip!, {r0, r1, r2, r3}
 5872 0058 9EE80F00 		ldm	lr, {r0, r1, r2, r3}
 5873 005c 8CE80F00 		stm	ip, {r0, r1, r2, r3}
 5874              	.LVL449:
 5875              	.LBB1501:
 5876              	.LBI1501:
  20:../../libDaisy//src/hid/encoder.h ****     ~Encoder() {}
 5877              		.loc 5 20 5 is_stmt 1 view .LVU1363
 5878              	.LBB1502:
 5879              	.LBI1502:
  41:../../libDaisy//src/hid/switch.h ****     ~Switch() {}
 5880              		.loc 6 41 5 view .LVU1364
  41:../../libDaisy//src/hid/switch.h ****     ~Switch() {}
 5881              		.loc 6 41 5 is_stmt 0 view .LVU1365
 5882              	.LBE1502:
 5883              	.LBE1501:
  76:Dubby.h       **** 
 5884              		.loc 1 76 13 is_stmt 1 view .LVU1366
  76:Dubby.h       **** 
ARM GAS  /var/folders/1y/_321xjh9623c014x9_qw12rr0000gn/T//cc1ZQ1Ea.s 			page 168


 5885              		.loc 1 76 13 view .LVU1367
  76:Dubby.h       **** 
 5886              		.loc 1 76 13 view .LVU1368
 5887 0060 2946     		mov	r1, r5
 5888 0062 4FF40072 		mov	r2, #512
 5889 0066 04F51070 		add	r0, r4, #576
 5890 006a FFF7FEFF 		bl	memset
 5891              	.LVL450:
 5892              	.LBB1503:
 5893              	.LBB1504:
  17:../../libDaisy//src/hid/disp/oled_display.h ****     virtual ~OledDisplay() {}
 5894              		.loc 3 17 19 is_stmt 0 view .LVU1369
 5895 006e 184A     		ldr	r2, .L415+4
 5896              	.LBE1504:
 5897              	.LBE1503:
 5898              	.LBB1513:
 5899              	.LBB1514:
 5900              	.LBB1515:
 5901              	.LBB1516:
 5902              	.LBB1517:
  36:../../libDaisy//src/hid/midi.h ****             rx     = {DSY_GPIOB, 7};
 5903              		.loc 2 36 20 view .LVU1370
 5904 0070 04F51043 		add	r3, r4, #36864
 5905              	.LBE1517:
 5906              	.LBE1516:
 5907              	.LBE1515:
 5908              	.LBE1514:
 5909              	.LBE1513:
  76:Dubby.h       **** 
 5910              		.loc 1 76 13 view .LVU1371
 5911 0074 C4F84054 		str	r5, [r4, #1088]
 5912              	.LBB1543:
 5913              	.LBB1511:
  17:../../libDaisy//src/hid/disp/oled_display.h ****     virtual ~OledDisplay() {}
 5914              		.loc 3 17 19 view .LVU1372
 5915 0078 C4F85024 		str	r2, [r4, #1104]
 5916              	.LBE1511:
 5917              	.LBE1543:
 5918              	.LBE1549:
  76:Dubby.h       **** 
 5919              		.loc 1 76 14 view .LVU1373
 5920 007c 2046     		mov	r0, r4
 5921              	.LBB1550:
 5922              	.LBB1544:
 5923              	.LBB1539:
 5924              	.LBB1528:
 5925              	.LBB1523:
 5926              	.LBB1518:
  37:../../libDaisy//src/hid/midi.h ****             tx     = {DSY_GPIOB, 6};
 5927              		.loc 2 37 20 view .LVU1374
 5928 007e B6F86420 		ldrh	r2, [r6, #100]
 5929              	.LBE1518:
 5930              	.LBE1523:
 5931              	.LBE1528:
 5932              	.LBE1539:
 5933              	.LBE1544:
  76:Dubby.h       **** 
ARM GAS  /var/folders/1y/_321xjh9623c014x9_qw12rr0000gn/T//cc1ZQ1Ea.s 			page 169


 5934              		.loc 1 76 13 view .LVU1375
 5935 0082 C4F84454 		str	r5, [r4, #1092]
 5936 0086 C4F84854 		str	r5, [r4, #1096]
 5937 008a C4F84C54 		str	r5, [r4, #1100]
 5938              	.LVL451:
 5939              	.LBB1545:
 5940              	.LBI1503:
  17:../../libDaisy//src/hid/disp/oled_display.h ****     virtual ~OledDisplay() {}
 5941              		.loc 3 17 5 is_stmt 1 view .LVU1376
 5942              	.LBB1512:
 5943              	.LBB1505:
 5944              	.LBI1505:
 218:../../libDaisy//src/hid/disp/display.h ****     virtual ~OneBitGraphicsDisplayImpl() {}
 5945              		.loc 4 218 5 view .LVU1377
 5946              	.LBB1506:
 5947              	.LBI1506:
  22:../../libDaisy//src/hid/disp/display.h ****     virtual ~OneBitGraphicsDisplay() {}
 5948              		.loc 4 22 5 view .LVU1378
  22:../../libDaisy//src/hid/disp/display.h ****     virtual ~OneBitGraphicsDisplay() {}
 5949              		.loc 4 22 5 is_stmt 0 view .LVU1379
 5950              	.LBE1506:
 5951              	.LBE1505:
 5952              	.LBB1507:
 5953              	.LBI1507:
 245:../../libDaisy//src/dev/oled_ssd130x.h **** {
 5954              		.loc 12 245 7 is_stmt 1 view .LVU1380
 5955              	.LBB1508:
 5956              	.LBI1508:
  65:../../libDaisy//src/dev/oled_ssd130x.h **** {
 5957              		.loc 12 65 7 view .LVU1381
 5958              	.LBB1509:
 5959              	.LBI1509:
 5960              		.file 18 "../../libDaisy//src/per/spi.h"
   1:../../libDaisy//src/per/spi.h **** #pragma once
   2:../../libDaisy//src/per/spi.h **** #ifndef DSY_SPI_H
   3:../../libDaisy//src/per/spi.h **** #define DSY_SPI_H
   4:../../libDaisy//src/per/spi.h **** 
   5:../../libDaisy//src/per/spi.h **** #include "daisy_core.h"
   6:../../libDaisy//src/per/spi.h **** 
   7:../../libDaisy//src/per/spi.h **** /* TODO:
   8:../../libDaisy//src/per/spi.h **** - Add documentation
   9:../../libDaisy//src/per/spi.h **** - Add IT
  10:../../libDaisy//src/per/spi.h **** */
  11:../../libDaisy//src/per/spi.h **** 
  12:../../libDaisy//src/per/spi.h **** namespace daisy
  13:../../libDaisy//src/per/spi.h **** {
  14:../../libDaisy//src/per/spi.h **** /** @addtogroup serial
  15:../../libDaisy//src/per/spi.h **** @{
  16:../../libDaisy//src/per/spi.h **** */
  17:../../libDaisy//src/per/spi.h **** 
  18:../../libDaisy//src/per/spi.h **** /**  Handler for serial peripheral interface */
  19:../../libDaisy//src/per/spi.h **** class SpiHandle
  20:../../libDaisy//src/per/spi.h **** {
  21:../../libDaisy//src/per/spi.h ****   public:
  22:../../libDaisy//src/per/spi.h ****     struct Config
  23:../../libDaisy//src/per/spi.h ****     {
  24:../../libDaisy//src/per/spi.h ****         enum class Peripheral
ARM GAS  /var/folders/1y/_321xjh9623c014x9_qw12rr0000gn/T//cc1ZQ1Ea.s 			page 170


  25:../../libDaisy//src/per/spi.h ****         {
  26:../../libDaisy//src/per/spi.h ****             SPI_1,
  27:../../libDaisy//src/per/spi.h ****             SPI_2,
  28:../../libDaisy//src/per/spi.h ****             SPI_3,
  29:../../libDaisy//src/per/spi.h ****             SPI_4,
  30:../../libDaisy//src/per/spi.h ****             SPI_5,
  31:../../libDaisy//src/per/spi.h ****             SPI_6,
  32:../../libDaisy//src/per/spi.h ****         };
  33:../../libDaisy//src/per/spi.h **** 
  34:../../libDaisy//src/per/spi.h ****         enum class Mode
  35:../../libDaisy//src/per/spi.h ****         {
  36:../../libDaisy//src/per/spi.h ****             MASTER,
  37:../../libDaisy//src/per/spi.h ****             SLAVE,
  38:../../libDaisy//src/per/spi.h ****         };
  39:../../libDaisy//src/per/spi.h **** 
  40:../../libDaisy//src/per/spi.h ****         enum class Direction
  41:../../libDaisy//src/per/spi.h ****         {
  42:../../libDaisy//src/per/spi.h ****             TWO_LINES,
  43:../../libDaisy//src/per/spi.h ****             TWO_LINES_TX_ONLY,
  44:../../libDaisy//src/per/spi.h ****             TWO_LINES_RX_ONLY,
  45:../../libDaisy//src/per/spi.h ****             ONE_LINE,
  46:../../libDaisy//src/per/spi.h ****         };
  47:../../libDaisy//src/per/spi.h **** 
  48:../../libDaisy//src/per/spi.h ****         enum class ClockPolarity
  49:../../libDaisy//src/per/spi.h ****         {
  50:../../libDaisy//src/per/spi.h ****             LOW,
  51:../../libDaisy//src/per/spi.h ****             HIGH,
  52:../../libDaisy//src/per/spi.h ****         };
  53:../../libDaisy//src/per/spi.h **** 
  54:../../libDaisy//src/per/spi.h ****         enum class ClockPhase
  55:../../libDaisy//src/per/spi.h ****         {
  56:../../libDaisy//src/per/spi.h ****             ONE_EDGE,
  57:../../libDaisy//src/per/spi.h ****             TWO_EDGE,
  58:../../libDaisy//src/per/spi.h ****         };
  59:../../libDaisy//src/per/spi.h **** 
  60:../../libDaisy//src/per/spi.h ****         enum class NSS
  61:../../libDaisy//src/per/spi.h ****         {
  62:../../libDaisy//src/per/spi.h ****             SOFT,
  63:../../libDaisy//src/per/spi.h ****             HARD_INPUT,
  64:../../libDaisy//src/per/spi.h ****             HARD_OUTPUT,
  65:../../libDaisy//src/per/spi.h ****         };
  66:../../libDaisy//src/per/spi.h **** 
  67:../../libDaisy//src/per/spi.h ****         enum class BaudPrescaler
  68:../../libDaisy//src/per/spi.h ****         {
  69:../../libDaisy//src/per/spi.h ****             PS_2,
  70:../../libDaisy//src/per/spi.h ****             PS_4,
  71:../../libDaisy//src/per/spi.h ****             PS_8,
  72:../../libDaisy//src/per/spi.h ****             PS_16,
  73:../../libDaisy//src/per/spi.h ****             PS_32,
  74:../../libDaisy//src/per/spi.h ****             PS_64,
  75:../../libDaisy//src/per/spi.h ****             PS_128,
  76:../../libDaisy//src/per/spi.h ****             PS_256,
  77:../../libDaisy//src/per/spi.h ****         };
  78:../../libDaisy//src/per/spi.h **** 
  79:../../libDaisy//src/per/spi.h ****         struct
  80:../../libDaisy//src/per/spi.h ****         {
  81:../../libDaisy//src/per/spi.h ****             dsy_gpio_pin sclk; /**< & */
ARM GAS  /var/folders/1y/_321xjh9623c014x9_qw12rr0000gn/T//cc1ZQ1Ea.s 			page 171


  82:../../libDaisy//src/per/spi.h ****             dsy_gpio_pin miso; /**< & */
  83:../../libDaisy//src/per/spi.h ****             dsy_gpio_pin mosi; /**< & */
  84:../../libDaisy//src/per/spi.h ****             dsy_gpio_pin nss;  /**< & */
  85:../../libDaisy//src/per/spi.h ****         } pin_config;
  86:../../libDaisy//src/per/spi.h **** 
  87:../../libDaisy//src/per/spi.h ****         Config()
  88:../../libDaisy//src/per/spi.h ****         {
  89:../../libDaisy//src/per/spi.h ****             // user must specify periph, mode, direction, nss, and pin_config
  90:../../libDaisy//src/per/spi.h ****             datasize       = 8;
  91:../../libDaisy//src/per/spi.h ****             clock_polarity = ClockPolarity::LOW;
  92:../../libDaisy//src/per/spi.h ****             clock_phase    = ClockPhase::ONE_EDGE;
  93:../../libDaisy//src/per/spi.h ****             baud_prescaler = BaudPrescaler::PS_8;
  94:../../libDaisy//src/per/spi.h ****         }
  95:../../libDaisy//src/per/spi.h **** 
  96:../../libDaisy//src/per/spi.h ****         Peripheral    periph;
  97:../../libDaisy//src/per/spi.h ****         Mode          mode;
  98:../../libDaisy//src/per/spi.h ****         Direction     direction;
  99:../../libDaisy//src/per/spi.h ****         unsigned long datasize;
 100:../../libDaisy//src/per/spi.h ****         ClockPolarity clock_polarity;
 101:../../libDaisy//src/per/spi.h ****         ClockPhase    clock_phase;
 102:../../libDaisy//src/per/spi.h ****         NSS           nss;
 103:../../libDaisy//src/per/spi.h ****         BaudPrescaler baud_prescaler;
 104:../../libDaisy//src/per/spi.h ****     };
 105:../../libDaisy//src/per/spi.h **** 
 106:../../libDaisy//src/per/spi.h ****     SpiHandle() : pimpl_(nullptr) {}
 5961              		.loc 18 106 5 view .LVU1382
 5962              	.LBB1510:
 5963              		.loc 18 106 33 is_stmt 0 view .LVU1383
 5964 008e C4F85854 		str	r5, [r4, #1112]
 5965              	.LVL452:
 5966              		.loc 18 106 33 view .LVU1384
 5967              	.LBE1510:
 5968              	.LBE1509:
 5969              	.LBE1508:
 5970              	.LBE1507:
 5971              	.LBE1512:
 5972              	.LBE1545:
 5973              	.LBB1546:
 5974              	.LBI1513:
  84:../../libDaisy//src/hid/midi.h ****     ~MidiHandler() {}
 5975              		.loc 2 84 5 is_stmt 1 view .LVU1385
 5976              	.LBB1540:
 5977              	.LBB1529:
 5978              	.LBI1529:
 5979              		.file 19 "../../libDaisy//src/per/uart.h"
   1:../../libDaisy//src/per/uart.h **** /* 
   2:../../libDaisy//src/per/uart.h **** TODO
   3:../../libDaisy//src/per/uart.h **** - UART1 defaults to DMA, add flexible config for DMA on all periphs
   4:../../libDaisy//src/per/uart.h **** - Transmit function improvements.
   5:../../libDaisy//src/per/uart.h **** - Overflow handling, etc. for Rx Queue.
   6:../../libDaisy//src/per/uart.h **** */
   7:../../libDaisy//src/per/uart.h **** 
   8:../../libDaisy//src/per/uart.h **** #pragma once
   9:../../libDaisy//src/per/uart.h **** #ifndef DSY_UART_H
  10:../../libDaisy//src/per/uart.h **** #define DSY_UART_H /**< macro */
  11:../../libDaisy//src/per/uart.h **** #include "daisy_core.h"
  12:../../libDaisy//src/per/uart.h **** 
ARM GAS  /var/folders/1y/_321xjh9623c014x9_qw12rr0000gn/T//cc1ZQ1Ea.s 			page 172


  13:../../libDaisy//src/per/uart.h **** 
  14:../../libDaisy//src/per/uart.h **** namespace daisy
  15:../../libDaisy//src/per/uart.h **** {
  16:../../libDaisy//src/per/uart.h **** /** @addtogroup serial
  17:../../libDaisy//src/per/uart.h ****     @{
  18:../../libDaisy//src/per/uart.h ****     */
  19:../../libDaisy//src/per/uart.h **** 
  20:../../libDaisy//src/per/uart.h **** /** 
  21:../../libDaisy//src/per/uart.h ****     Uart Peripheral
  22:../../libDaisy//src/per/uart.h ****     @author shensley
  23:../../libDaisy//src/per/uart.h ****     @date March 2020
  24:../../libDaisy//src/per/uart.h ****     */
  25:../../libDaisy//src/per/uart.h **** class UartHandler
  26:../../libDaisy//src/per/uart.h **** {
  27:../../libDaisy//src/per/uart.h ****   public:
  28:../../libDaisy//src/per/uart.h ****     struct Config
  29:../../libDaisy//src/per/uart.h ****     {
  30:../../libDaisy//src/per/uart.h ****         enum class Peripheral
  31:../../libDaisy//src/per/uart.h ****         {
  32:../../libDaisy//src/per/uart.h ****             USART_1,
  33:../../libDaisy//src/per/uart.h ****             USART_2,
  34:../../libDaisy//src/per/uart.h ****             USART_3,
  35:../../libDaisy//src/per/uart.h ****             UART_4,
  36:../../libDaisy//src/per/uart.h ****             UART_5,
  37:../../libDaisy//src/per/uart.h ****             USART_6,
  38:../../libDaisy//src/per/uart.h ****             UART_7,
  39:../../libDaisy//src/per/uart.h ****             UART_8,
  40:../../libDaisy//src/per/uart.h ****             LPUART_1,
  41:../../libDaisy//src/per/uart.h ****         };
  42:../../libDaisy//src/per/uart.h **** 
  43:../../libDaisy//src/per/uart.h ****         enum class StopBits
  44:../../libDaisy//src/per/uart.h ****         {
  45:../../libDaisy//src/per/uart.h ****             BITS_0_5,
  46:../../libDaisy//src/per/uart.h ****             BITS_1,
  47:../../libDaisy//src/per/uart.h ****             BITS_1_5,
  48:../../libDaisy//src/per/uart.h ****             BITS_2,
  49:../../libDaisy//src/per/uart.h ****         };
  50:../../libDaisy//src/per/uart.h **** 
  51:../../libDaisy//src/per/uart.h ****         enum class Parity
  52:../../libDaisy//src/per/uart.h ****         {
  53:../../libDaisy//src/per/uart.h ****             NONE,
  54:../../libDaisy//src/per/uart.h ****             EVEN,
  55:../../libDaisy//src/per/uart.h ****             ODD,
  56:../../libDaisy//src/per/uart.h ****         };
  57:../../libDaisy//src/per/uart.h **** 
  58:../../libDaisy//src/per/uart.h ****         enum class Mode
  59:../../libDaisy//src/per/uart.h ****         {
  60:../../libDaisy//src/per/uart.h ****             RX,
  61:../../libDaisy//src/per/uart.h ****             TX,
  62:../../libDaisy//src/per/uart.h ****             TX_RX,
  63:../../libDaisy//src/per/uart.h ****         };
  64:../../libDaisy//src/per/uart.h **** 
  65:../../libDaisy//src/per/uart.h ****         enum class WordLength
  66:../../libDaisy//src/per/uart.h ****         {
  67:../../libDaisy//src/per/uart.h ****             BITS_7,
  68:../../libDaisy//src/per/uart.h ****             BITS_8,
  69:../../libDaisy//src/per/uart.h ****             BITS_9,
ARM GAS  /var/folders/1y/_321xjh9623c014x9_qw12rr0000gn/T//cc1ZQ1Ea.s 			page 173


  70:../../libDaisy//src/per/uart.h ****         };
  71:../../libDaisy//src/per/uart.h **** 
  72:../../libDaisy//src/per/uart.h ****         struct
  73:../../libDaisy//src/per/uart.h ****         {
  74:../../libDaisy//src/per/uart.h ****             dsy_gpio_pin tx; /**< & */
  75:../../libDaisy//src/per/uart.h ****             dsy_gpio_pin rx; /**< & */
  76:../../libDaisy//src/per/uart.h ****         } pin_config;        /**< & */
  77:../../libDaisy//src/per/uart.h **** 
  78:../../libDaisy//src/per/uart.h ****         Config()
  79:../../libDaisy//src/per/uart.h ****         {
  80:../../libDaisy//src/per/uart.h ****             // user must init periph, pin_config, and mode
  81:../../libDaisy//src/per/uart.h ****             stopbits   = StopBits::BITS_1;
  82:../../libDaisy//src/per/uart.h ****             parity     = Parity::NONE;
  83:../../libDaisy//src/per/uart.h ****             wordlength = WordLength::BITS_8;
  84:../../libDaisy//src/per/uart.h ****             baudrate   = 4800;
  85:../../libDaisy//src/per/uart.h ****             // baudrate   = 31250;
  86:../../libDaisy//src/per/uart.h ****         }
  87:../../libDaisy//src/per/uart.h **** 
  88:../../libDaisy//src/per/uart.h ****         Peripheral periph;
  89:../../libDaisy//src/per/uart.h ****         StopBits   stopbits;
  90:../../libDaisy//src/per/uart.h ****         Parity     parity;
  91:../../libDaisy//src/per/uart.h ****         Mode       mode;
  92:../../libDaisy//src/per/uart.h ****         WordLength wordlength;
  93:../../libDaisy//src/per/uart.h ****         uint32_t   baudrate;
  94:../../libDaisy//src/per/uart.h ****     };
  95:../../libDaisy//src/per/uart.h **** 
  96:../../libDaisy//src/per/uart.h **** 
  97:../../libDaisy//src/per/uart.h ****     UartHandler() : pimpl_(nullptr) {}
 5980              		.loc 19 97 5 view .LVU1386
 5981              	.LBB1530:
 5982              		.loc 19 97 35 is_stmt 0 view .LVU1387
 5983 0092 C4F86458 		str	r5, [r4, #2148]
 5984              	.LVL453:
 5985              		.loc 19 97 35 view .LVU1388
 5986              	.LBE1530:
 5987              	.LBE1529:
 5988              	.LBB1531:
 5989              	.LBI1531:
 5990              		.file 20 "../../libDaisy//src/util/ringbuffer.h"
   1:../../libDaisy//src/util/ringbuffer.h **** #pragma once
   2:../../libDaisy//src/util/ringbuffer.h **** #ifndef DSY_RINGBUFFER_H
   3:../../libDaisy//src/util/ringbuffer.h **** #define DSY_RINGBUFFER_H
   4:../../libDaisy//src/util/ringbuffer.h **** 
   5:../../libDaisy//src/util/ringbuffer.h **** #include <algorithm>
   6:../../libDaisy//src/util/ringbuffer.h **** 
   7:../../libDaisy//src/util/ringbuffer.h **** namespace daisy
   8:../../libDaisy//src/util/ringbuffer.h **** {
   9:../../libDaisy//src/util/ringbuffer.h **** /** @addtogroup utility
  10:../../libDaisy//src/util/ringbuffer.h ****     @{
  11:../../libDaisy//src/util/ringbuffer.h **** */
  12:../../libDaisy//src/util/ringbuffer.h **** 
  13:../../libDaisy//src/util/ringbuffer.h **** /**
  14:../../libDaisy//src/util/ringbuffer.h **** Utility Ring Buffer \n 
  15:../../libDaisy//src/util/ringbuffer.h **** imported from pichenettes/stmlib
  16:../../libDaisy//src/util/ringbuffer.h **** */
  17:../../libDaisy//src/util/ringbuffer.h **** template <typename T, size_t size>
  18:../../libDaisy//src/util/ringbuffer.h **** class RingBuffer
ARM GAS  /var/folders/1y/_321xjh9623c014x9_qw12rr0000gn/T//cc1ZQ1Ea.s 			page 174


  19:../../libDaisy//src/util/ringbuffer.h **** {
  20:../../libDaisy//src/util/ringbuffer.h ****   public:
  21:../../libDaisy//src/util/ringbuffer.h ****     RingBuffer() {}
 5991              		.loc 20 21 5 is_stmt 1 view .LVU1389
 5992              		.loc 20 21 5 is_stmt 0 view .LVU1390
 5993              	.LBE1531:
 5994              	.LBB1532:
 5995              	.LBI1515:
  86:../../libDaisy//src/hid/midi.h **** 
  87:../../libDaisy//src/hid/midi.h ****     struct Config
 5996              		.loc 2 87 12 is_stmt 1 view .LVU1391
 5997              	.LBB1524:
 5998              	.LBI1516:
  34:../../libDaisy//src/hid/midi.h ****         {
 5999              		.loc 2 34 9 view .LVU1392
 6000              	.LBB1519:
  36:../../libDaisy//src/hid/midi.h ****             rx     = {DSY_GPIOB, 7};
 6001              		.loc 2 36 13 view .LVU1393
 6002              	.LBE1519:
 6003              	.LBE1524:
 6004              	.LBE1532:
  84:../../libDaisy//src/hid/midi.h ****     ~MidiHandler() {}
 6005              		.loc 2 84 19 is_stmt 0 view .LVU1394
 6006 0096 4FF60F04 		movw	r4, #63503
 6007              	.LVL454:
 6008              	.LBB1533:
 6009              	.LBB1525:
 6010              	.LBB1520:
  38:../../libDaisy//src/hid/midi.h ****         }
 6011              		.loc 2 38 20 view .LVU1395
 6012 009a B6F86810 		ldrh	r1, [r6, #104]
  37:../../libDaisy//src/hid/midi.h ****             tx     = {DSY_GPIOB, 6};
 6013              		.loc 2 37 20 view .LVU1396
 6014 009e A3F81029 		strh	r2, [r3, #2320]	@ movhi
 6015              	.LBE1520:
 6016              	.LBE1525:
 6017              	.LBE1533:
  84:../../libDaisy//src/hid/midi.h ****     ~MidiHandler() {}
 6018              		.loc 2 84 19 view .LVU1397
 6019 00a2 0C4A     		ldr	r2, .L415+8
 6020              	.LBB1534:
 6021              	.LBB1526:
 6022              	.LBB1521:
  38:../../libDaisy//src/hid/midi.h ****         }
 6023              		.loc 2 38 20 view .LVU1398
 6024 00a4 A3F81219 		strh	r1, [r3, #2322]	@ movhi
 6025              	.LBE1521:
 6026              	.LBE1526:
 6027              	.LBE1534:
  84:../../libDaisy//src/hid/midi.h ****     ~MidiHandler() {}
 6028              		.loc 2 84 19 view .LVU1399
 6029 00a8 0721     		movs	r1, #7
 6030 00aa C3F81829 		str	r2, [r3, #2328]
 6031              	.LBE1540:
 6032              	.LBE1546:
  76:Dubby.h       **** 
 6033              		.loc 1 76 13 view .LVU1400
ARM GAS  /var/folders/1y/_321xjh9623c014x9_qw12rr0000gn/T//cc1ZQ1Ea.s 			page 175


 6034 00ae 0822     		movs	r2, #8
 6035              	.LBB1547:
 6036              	.LBB1541:
 6037              	.LBB1535:
 6038              	.LBB1527:
 6039              	.LBB1522:
  36:../../libDaisy//src/hid/midi.h ****             rx     = {DSY_GPIOB, 7};
 6040              		.loc 2 36 20 view .LVU1401
 6041 00b0 C3F80C59 		str	r5, [r3, #2316]
  37:../../libDaisy//src/hid/midi.h ****             tx     = {DSY_GPIOB, 6};
 6042              		.loc 2 37 13 is_stmt 1 view .LVU1402
  38:../../libDaisy//src/hid/midi.h ****         }
 6043              		.loc 2 38 13 view .LVU1403
 6044              	.LVL455:
  38:../../libDaisy//src/hid/midi.h ****         }
 6045              		.loc 2 38 13 is_stmt 0 view .LVU1404
 6046              	.LBE1522:
 6047              	.LBE1527:
 6048              	.LBE1535:
 6049              	.LBB1536:
 6050              	.LBI1536:
  25:../../libDaisy//src/hid/midi.h ****     ~MidiUartTransport() {}
 6051              		.loc 2 25 5 is_stmt 1 view .LVU1405
 6052              	.LBB1537:
 6053              	.LBI1537:
 6054              		.loc 19 97 5 view .LVU1406
 6055              	.LBB1538:
 6056              		.loc 19 97 35 is_stmt 0 view .LVU1407
 6057 00b4 C3F81459 		str	r5, [r3, #2324]
 6058              	.LBE1538:
 6059              	.LBE1537:
 6060              	.LBE1536:
 6061              	.LBE1541:
 6062              	.LBE1547:
  76:Dubby.h       **** 
 6063              		.loc 1 76 13 view .LVU1408
 6064 00b8 83F82859 		strb	r5, [r3, #2344]
 6065              	.LBB1548:
 6066              	.LBB1542:
  84:../../libDaisy//src/hid/midi.h ****     ~MidiHandler() {}
 6067              		.loc 2 84 19 view .LVU1409
 6068 00bc A3F81C49 		strh	r4, [r3, #2332]	@ movhi
 6069 00c0 83F81E19 		strb	r1, [r3, #2334]
 6070              	.LVL456:
  84:../../libDaisy//src/hid/midi.h ****     ~MidiHandler() {}
 6071              		.loc 2 84 19 view .LVU1410
 6072              	.LBE1542:
 6073              	.LBE1548:
  76:Dubby.h       **** 
 6074              		.loc 1 76 13 view .LVU1411
 6075 00c4 C3F82429 		str	r2, [r3, #2340]
 6076              	.LBE1550:
  76:Dubby.h       **** 
 6077              		.loc 1 76 14 view .LVU1412
 6078 00c8 BDE8F883 		pop	{r3, r4, r5, r6, r7, r8, r9, pc}
 6079              	.L416:
 6080              		.align	2
ARM GAS  /var/folders/1y/_321xjh9623c014x9_qw12rr0000gn/T//cc1ZQ1Ea.s 			page 176


 6081              	.L415:
 6082 00cc 00000000 		.word	.LANCHOR0
 6083 00d0 08000000 		.word	_ZTVN5daisy11OledDisplayINS_13SSD130xDriverILj128ELj64ENS_24SSD130x4WireSpiTransportEEEEE+8
 6084 00d4 80707FF0 		.word	-260083584
 6085              		.cfi_endproc
 6086              	.LFE4818:
 6088              		.weak	_ZN5daisy5DubbyC1Ev
 6089              		.thumb_set _ZN5daisy5DubbyC1Ev,_ZN5daisy5DubbyC2Ev
 6090              		.section	.text._Z17HandleMidiMessageN5daisy9MidiEventE,"ax",%progbits
 6091              		.align	1
 6092              		.p2align 2,,3
 6093              		.global	_Z17HandleMidiMessageN5daisy9MidiEventE
 6094              		.syntax unified
 6095              		.thumb
 6096              		.thumb_func
 6098              	_Z17HandleMidiMessageN5daisy9MidiEventE:
 6099              	.LFB4824:
  29:DubbyPlayground.cpp **** 
  30:DubbyPlayground.cpp **** void HandleMidiMessage(MidiEvent m)
  31:DubbyPlayground.cpp **** {
 6100              		.loc 13 31 1 is_stmt 1 view -0
 6101              		.cfi_startproc
 6102              		@ args = 144, pretend = 16, frame = 0
 6103              		@ frame_needed = 0, uses_anonymous_args = 0
 6104              		@ link register save eliminated.
 6105 0000 84B0     		sub	sp, sp, #16
 6106              		.cfi_def_cfa_offset 16
 6107              		.loc 13 31 1 is_stmt 0 view .LVU1414
 6108 0002 8DE80F00 		stm	sp, {r0, r1, r2, r3}
 6109              	.LVL457:
  32:DubbyPlayground.cpp ****     switch(m.type)
 6110              		.loc 13 32 5 is_stmt 1 view .LVU1415
  33:DubbyPlayground.cpp ****     {
  34:DubbyPlayground.cpp ****         case NoteOn:
  35:DubbyPlayground.cpp ****         {
  36:DubbyPlayground.cpp ****             NoteOnEvent p = m.AsNoteOn();
  37:DubbyPlayground.cpp ****             p = m.AsNoteOn(); // p.note, p.velocity
  38:DubbyPlayground.cpp ****             break;
  39:DubbyPlayground.cpp ****         }
  40:DubbyPlayground.cpp ****         case NoteOff:
  41:DubbyPlayground.cpp ****         {
  42:DubbyPlayground.cpp ****             NoteOffEvent p = m.AsNoteOff();
  43:DubbyPlayground.cpp ****             break;
  44:DubbyPlayground.cpp ****         }
  45:DubbyPlayground.cpp ****         default: break;
  46:DubbyPlayground.cpp ****     }
  47:DubbyPlayground.cpp **** }
 6111              		.loc 13 47 1 is_stmt 0 view .LVU1416
 6112 0006 04B0     		add	sp, sp, #16
 6113              		.cfi_def_cfa_offset 0
 6114 0008 7047     		bx	lr
 6115              		.cfi_endproc
 6116              	.LFE4824:
 6118 000a 00BF     		.section	.text._Z14MIDISendNoteOnhhh,"ax",%progbits
 6119              		.align	1
 6120              		.p2align 2,,3
 6121              		.global	_Z14MIDISendNoteOnhhh
ARM GAS  /var/folders/1y/_321xjh9623c014x9_qw12rr0000gn/T//cc1ZQ1Ea.s 			page 177


 6122              		.syntax unified
 6123              		.thumb
 6124              		.thumb_func
 6126              	_Z14MIDISendNoteOnhhh:
 6127              	.LVL458:
 6128              	.LFB4825:
  48:DubbyPlayground.cpp **** 
  49:DubbyPlayground.cpp **** void MIDISendNoteOn(uint8_t channel, uint8_t note, uint8_t velocity) {
 6129              		.loc 13 49 70 is_stmt 1 view -0
 6130              		.cfi_startproc
 6131              		@ args = 0, pretend = 0, frame = 8
 6132              		@ frame_needed = 0, uses_anonymous_args = 0
  50:DubbyPlayground.cpp ****     uint8_t data[3] = { 0 };
 6133              		.loc 13 50 5 view .LVU1418
  51:DubbyPlayground.cpp ****     
  52:DubbyPlayground.cpp ****     data[0] = (channel & 0x0F) + 0x90;  // limit channel byte, add status byte
 6134              		.loc 13 52 5 view .LVU1419
  49:DubbyPlayground.cpp ****     uint8_t data[3] = { 0 };
 6135              		.loc 13 49 70 is_stmt 0 view .LVU1420
 6136 0000 00B5     		push	{lr}
 6137              		.cfi_def_cfa_offset 4
 6138              		.cfi_offset 14, -4
 6139              		.loc 13 52 24 view .LVU1421
 6140 0002 00F00F00 		and	r0, r0, #15
 6141              	.LVL459:
  49:DubbyPlayground.cpp ****     uint8_t data[3] = { 0 };
 6142              		.loc 13 49 70 view .LVU1422
 6143 0006 83B0     		sub	sp, sp, #12
 6144              		.cfi_def_cfa_offset 16
  49:DubbyPlayground.cpp ****     uint8_t data[3] = { 0 };
 6145              		.loc 13 49 70 view .LVU1423
 6146 0008 8E46     		mov	lr, r1
  53:DubbyPlayground.cpp ****     data[1] = note & 0x7F;              // remove MSB on data
  54:DubbyPlayground.cpp ****     data[2] = velocity & 0x7F;
 6147              		.loc 13 54 24 view .LVU1424
 6148 000a 02F07F0C 		and	ip, r2, #127
  52:DubbyPlayground.cpp ****     data[1] = note & 0x7F;              // remove MSB on data
 6149              		.loc 13 52 32 view .LVU1425
 6150 000e A0F17003 		sub	r3, r0, #112
 6151              	.LBB1551:
 6152              	.LBB1552:
 6153              	.LBB1553:
  66:../../libDaisy//src/hid/midi.h **** 
 6154              		.loc 2 66 65 view .LVU1426
 6155 0012 01A9     		add	r1, sp, #4
 6156              	.LVL460:
  66:../../libDaisy//src/hid/midi.h **** 
 6157              		.loc 2 66 65 view .LVU1427
 6158              	.LBE1553:
 6159              	.LBE1552:
 6160              	.LBE1551:
  53:DubbyPlayground.cpp ****     data[1] = note & 0x7F;              // remove MSB on data
 6161              		.loc 13 53 20 view .LVU1428
 6162 0014 0EF07F0E 		and	lr, lr, #127
 6163              	.LBB1558:
 6164              	.LBB1556:
 6165              	.LBB1554:
ARM GAS  /var/folders/1y/_321xjh9623c014x9_qw12rr0000gn/T//cc1ZQ1Ea.s 			page 178


  66:../../libDaisy//src/hid/midi.h **** 
 6166              		.loc 2 66 65 view .LVU1429
 6167 0018 0322     		movs	r2, #3
 6168              	.LVL461:
  66:../../libDaisy//src/hid/midi.h **** 
 6169              		.loc 2 66 65 view .LVU1430
 6170 001a 0648     		ldr	r0, .L421
 6171              	.LBE1554:
 6172              	.LBE1556:
 6173              	.LBE1558:
  53:DubbyPlayground.cpp ****     data[1] = note & 0x7F;              // remove MSB on data
 6174              		.loc 13 53 13 view .LVU1431
 6175 001c 8DF805E0 		strb	lr, [sp, #5]
 6176              		.loc 13 54 13 view .LVU1432
 6177 0020 8DF806C0 		strb	ip, [sp, #6]
  52:DubbyPlayground.cpp ****     data[1] = note & 0x7F;              // remove MSB on data
 6178              		.loc 13 52 13 view .LVU1433
 6179 0024 8DF80430 		strb	r3, [sp, #4]
  53:DubbyPlayground.cpp ****     data[1] = note & 0x7F;              // remove MSB on data
 6180              		.loc 13 53 5 is_stmt 1 view .LVU1434
 6181              		.loc 13 54 5 view .LVU1435
  55:DubbyPlayground.cpp **** 
  56:DubbyPlayground.cpp ****     dubby.midi.SendMessage(data, 3);
 6182              		.loc 13 56 5 view .LVU1436
 6183              	.LVL462:
 6184              	.LBB1559:
 6185              	.LBI1551:
  88:../../libDaisy//src/hid/midi.h ****     {
  89:../../libDaisy//src/hid/midi.h ****         typename Transport::Config transport_config;
  90:../../libDaisy//src/hid/midi.h ****     };
  91:../../libDaisy//src/hid/midi.h **** 
  92:../../libDaisy//src/hid/midi.h ****     /** Initializes the MidiHandler 
  93:../../libDaisy//src/hid/midi.h ****      *  \param config Configuration structure used to define specifics to the MIDI Handler.
  94:../../libDaisy//src/hid/midi.h ****      */
  95:../../libDaisy//src/hid/midi.h ****     void Init(Config config)
  96:../../libDaisy//src/hid/midi.h ****     {
  97:../../libDaisy//src/hid/midi.h ****         config_ = config;
  98:../../libDaisy//src/hid/midi.h **** 
  99:../../libDaisy//src/hid/midi.h ****         transport_.Init(config_.transport_config);
 100:../../libDaisy//src/hid/midi.h **** 
 101:../../libDaisy//src/hid/midi.h ****         event_q_.Init();
 102:../../libDaisy//src/hid/midi.h ****         incoming_message_.type = MessageLast;
 103:../../libDaisy//src/hid/midi.h ****         pstate_                = ParserEmpty;
 104:../../libDaisy//src/hid/midi.h ****     }
 105:../../libDaisy//src/hid/midi.h **** 
 106:../../libDaisy//src/hid/midi.h ****     /** Starts listening on the selected input mode(s). MidiEvent Queue will begin to fill, and can
 107:../../libDaisy//src/hid/midi.h ****     void StartReceive() { transport_.StartRx(); }
 108:../../libDaisy//src/hid/midi.h **** 
 109:../../libDaisy//src/hid/midi.h ****     /** Start listening */
 110:../../libDaisy//src/hid/midi.h ****     void Listen()
 111:../../libDaisy//src/hid/midi.h ****     {
 112:../../libDaisy//src/hid/midi.h ****         uint32_t now;
 113:../../libDaisy//src/hid/midi.h ****         now = System::GetNow();
 114:../../libDaisy//src/hid/midi.h ****         while(transport_.Readable())
 115:../../libDaisy//src/hid/midi.h ****         {
 116:../../libDaisy//src/hid/midi.h ****             last_read_ = now;
 117:../../libDaisy//src/hid/midi.h ****             Parse(transport_.Rx());
ARM GAS  /var/folders/1y/_321xjh9623c014x9_qw12rr0000gn/T//cc1ZQ1Ea.s 			page 179


 118:../../libDaisy//src/hid/midi.h ****         }
 119:../../libDaisy//src/hid/midi.h **** 
 120:../../libDaisy//src/hid/midi.h ****         // In case of UART Error, (particularly
 121:../../libDaisy//src/hid/midi.h ****         //  overrun error), UART disables itself.
 122:../../libDaisy//src/hid/midi.h ****         // Flush the buff, and restart.
 123:../../libDaisy//src/hid/midi.h ****         if(!transport_.RxActive())
 124:../../libDaisy//src/hid/midi.h ****         {
 125:../../libDaisy//src/hid/midi.h ****             pstate_ = ParserEmpty;
 126:../../libDaisy//src/hid/midi.h ****             transport_.FlushRx();
 127:../../libDaisy//src/hid/midi.h ****             StartReceive();
 128:../../libDaisy//src/hid/midi.h ****         }
 129:../../libDaisy//src/hid/midi.h ****     }
 130:../../libDaisy//src/hid/midi.h **** 
 131:../../libDaisy//src/hid/midi.h ****     /** Checks if there are unhandled messages in the queue 
 132:../../libDaisy//src/hid/midi.h ****     \return True if there are events to be handled, else false.
 133:../../libDaisy//src/hid/midi.h ****      */
 134:../../libDaisy//src/hid/midi.h ****     bool HasEvents() const { return event_q_.readable(); }
 135:../../libDaisy//src/hid/midi.h **** 
 136:../../libDaisy//src/hid/midi.h **** 
 137:../../libDaisy//src/hid/midi.h ****     /** Pops the oldest unhandled MidiEvent from the internal queue
 138:../../libDaisy//src/hid/midi.h ****     \return The event to be handled
 139:../../libDaisy//src/hid/midi.h ****      */
 140:../../libDaisy//src/hid/midi.h ****     MidiEvent PopEvent() { return event_q_.Read(); }
 141:../../libDaisy//src/hid/midi.h **** 
 142:../../libDaisy//src/hid/midi.h ****     /** SendMessage
 143:../../libDaisy//src/hid/midi.h ****     Send raw bytes as message
 144:../../libDaisy//src/hid/midi.h ****     */
 145:../../libDaisy//src/hid/midi.h ****     void SendMessage(uint8_t* bytes, size_t size)
 6186              		.loc 2 145 10 view .LVU1437
 6187              	.LBB1557:
 6188              	.LBI1552:
  66:../../libDaisy//src/hid/midi.h **** 
 6189              		.loc 2 66 20 view .LVU1438
 6190              	.LBB1555:
  66:../../libDaisy//src/hid/midi.h **** 
 6191              		.loc 2 66 53 view .LVU1439
  66:../../libDaisy//src/hid/midi.h **** 
 6192              		.loc 2 66 65 is_stmt 0 view .LVU1440
 6193 0028 FFF7FEFF 		bl	_ZN5daisy11UartHandler6PollTxEPhj
 6194              	.LVL463:
  66:../../libDaisy//src/hid/midi.h **** 
 6195              		.loc 2 66 65 view .LVU1441
 6196              	.LBE1555:
 6197              	.LBE1557:
 6198              	.LBE1559:
  57:DubbyPlayground.cpp **** }
 6199              		.loc 13 57 1 view .LVU1442
 6200 002c 03B0     		add	sp, sp, #12
 6201              		.cfi_def_cfa_offset 4
 6202              		@ sp needed
 6203 002e 5DF804FB 		ldr	pc, [sp], #4
 6204              	.L422:
 6205 0032 00BF     		.align	2
 6206              	.L421:
 6207 0034 14990000 		.word	dubby+39188
 6208              		.cfi_endproc
 6209              	.LFE4825:
ARM GAS  /var/folders/1y/_321xjh9623c014x9_qw12rr0000gn/T//cc1ZQ1Ea.s 			page 180


 6211              		.section	.text._Z15MIDISendNoteOffhh,"ax",%progbits
 6212              		.align	1
 6213              		.p2align 2,,3
 6214              		.global	_Z15MIDISendNoteOffhh
 6215              		.syntax unified
 6216              		.thumb
 6217              		.thumb_func
 6219              	_Z15MIDISendNoteOffhh:
 6220              	.LVL464:
 6221              	.LFB4826:
  58:DubbyPlayground.cpp **** 
  59:DubbyPlayground.cpp **** void MIDISendNoteOff(uint8_t channel, uint8_t note) {
 6222              		.loc 13 59 53 is_stmt 1 view -0
 6223              		.cfi_startproc
 6224              		@ args = 0, pretend = 0, frame = 8
 6225              		@ frame_needed = 0, uses_anonymous_args = 0
  60:DubbyPlayground.cpp ****     uint8_t data[3] = { 0 };
 6226              		.loc 13 60 5 view .LVU1444
  59:DubbyPlayground.cpp ****     uint8_t data[3] = { 0 };
 6227              		.loc 13 59 53 is_stmt 0 view .LVU1445
 6228 0000 00B5     		push	{lr}
 6229              		.cfi_def_cfa_offset 4
 6230              		.cfi_offset 14, -4
 6231              		.loc 13 60 13 view .LVU1446
 6232 0002 0023     		movs	r3, #0
  59:DubbyPlayground.cpp ****     uint8_t data[3] = { 0 };
 6233              		.loc 13 59 53 view .LVU1447
 6234 0004 83B0     		sub	sp, sp, #12
 6235              		.cfi_def_cfa_offset 16
  61:DubbyPlayground.cpp **** 
  62:DubbyPlayground.cpp ****     data[0] = (channel & 0x0F) + 0x80;  // limit channel byte, add status byte
 6236              		.loc 13 62 24 view .LVU1448
 6237 0006 00F00F00 		and	r0, r0, #15
 6238              	.LVL465:
  63:DubbyPlayground.cpp ****     data[1] = note & 0x7F;              // remove MSB on data
 6239              		.loc 13 63 20 view .LVU1449
 6240 000a 01F07F0C 		and	ip, r1, #127
  60:DubbyPlayground.cpp **** 
 6241              		.loc 13 60 13 view .LVU1450
 6242 000e 8DF80630 		strb	r3, [sp, #6]
  62:DubbyPlayground.cpp ****     data[1] = note & 0x7F;              // remove MSB on data
 6243              		.loc 13 62 5 is_stmt 1 view .LVU1451
 6244              	.LBB1560:
 6245              	.LBB1561:
 6246              	.LBB1562:
  66:../../libDaisy//src/hid/midi.h **** 
 6247              		.loc 2 66 65 is_stmt 0 view .LVU1452
 6248 0012 0322     		movs	r2, #3
 6249              	.LBE1562:
 6250              	.LBE1561:
 6251              	.LBE1560:
  62:DubbyPlayground.cpp ****     data[1] = note & 0x7F;              // remove MSB on data
 6252              		.loc 13 62 32 view .LVU1453
 6253 0014 A0F18003 		sub	r3, r0, #128
 6254              	.LBB1567:
 6255              	.LBB1565:
 6256              	.LBB1563:
ARM GAS  /var/folders/1y/_321xjh9623c014x9_qw12rr0000gn/T//cc1ZQ1Ea.s 			page 181


  66:../../libDaisy//src/hid/midi.h **** 
 6257              		.loc 2 66 65 view .LVU1454
 6258 0018 01A9     		add	r1, sp, #4
 6259              	.LVL466:
  66:../../libDaisy//src/hid/midi.h **** 
 6260              		.loc 2 66 65 view .LVU1455
 6261 001a 0548     		ldr	r0, .L425
 6262              	.LBE1563:
 6263              	.LBE1565:
 6264              	.LBE1567:
 6265              		.loc 13 63 13 view .LVU1456
 6266 001c 8DF805C0 		strb	ip, [sp, #5]
  62:DubbyPlayground.cpp ****     data[1] = note & 0x7F;              // remove MSB on data
 6267              		.loc 13 62 13 view .LVU1457
 6268 0020 8DF80430 		strb	r3, [sp, #4]
 6269              		.loc 13 63 5 is_stmt 1 view .LVU1458
  64:DubbyPlayground.cpp ****     data[2] = 0 & 0x7F;
 6270              		.loc 13 64 5 view .LVU1459
  65:DubbyPlayground.cpp **** 
  66:DubbyPlayground.cpp ****     dubby.midi.SendMessage(data, 3);
 6271              		.loc 13 66 5 view .LVU1460
 6272              	.LVL467:
 6273              	.LBB1568:
 6274              	.LBI1560:
 6275              		.loc 2 145 10 view .LVU1461
 6276              	.LBB1566:
 6277              	.LBI1561:
  66:../../libDaisy//src/hid/midi.h **** 
 6278              		.loc 2 66 20 view .LVU1462
 6279              	.LBB1564:
  66:../../libDaisy//src/hid/midi.h **** 
 6280              		.loc 2 66 53 view .LVU1463
  66:../../libDaisy//src/hid/midi.h **** 
 6281              		.loc 2 66 65 is_stmt 0 view .LVU1464
 6282 0024 FFF7FEFF 		bl	_ZN5daisy11UartHandler6PollTxEPhj
 6283              	.LVL468:
  66:../../libDaisy//src/hid/midi.h **** 
 6284              		.loc 2 66 65 view .LVU1465
 6285              	.LBE1564:
 6286              	.LBE1566:
 6287              	.LBE1568:
  67:DubbyPlayground.cpp **** }
 6288              		.loc 13 67 1 view .LVU1466
 6289 0028 03B0     		add	sp, sp, #12
 6290              		.cfi_def_cfa_offset 4
 6291              		@ sp needed
 6292 002a 5DF804FB 		ldr	pc, [sp], #4
 6293              	.L426:
 6294 002e 00BF     		.align	2
 6295              	.L425:
 6296 0030 14990000 		.word	dubby+39188
 6297              		.cfi_endproc
 6298              	.LFE4826:
 6300              		.section	.text._ZN5daisy11MidiHandlerINS_17MidiUartTransportEE5ParseEh,"axG",%progbits,_ZN5daisy11
 6301              		.align	1
 6302              		.p2align 2,,3
 6303              		.weak	_ZN5daisy11MidiHandlerINS_17MidiUartTransportEE5ParseEh
ARM GAS  /var/folders/1y/_321xjh9623c014x9_qw12rr0000gn/T//cc1ZQ1Ea.s 			page 182


 6304              		.syntax unified
 6305              		.thumb
 6306              		.thumb_func
 6308              	_ZN5daisy11MidiHandlerINS_17MidiUartTransportEE5ParseEh:
 6309              	.LVL469:
 6310              	.LFB5286:
 146:../../libDaisy//src/hid/midi.h ****     {
 147:../../libDaisy//src/hid/midi.h ****         transport_.Tx(bytes, size);
 148:../../libDaisy//src/hid/midi.h ****     }
 149:../../libDaisy//src/hid/midi.h **** 
 150:../../libDaisy//src/hid/midi.h ****     /** Feed in bytes to state machine from a queue.
 151:../../libDaisy//src/hid/midi.h ****     Populates internal FIFO queue with MIDI Messages
 152:../../libDaisy//src/hid/midi.h ****     For example with uart:
 153:../../libDaisy//src/hid/midi.h ****     midi.Parse(uart.PopRx());
 154:../../libDaisy//src/hid/midi.h ****     \param byte &
 155:../../libDaisy//src/hid/midi.h ****     */
 156:../../libDaisy//src/hid/midi.h ****     void Parse(uint8_t byte)
 6311              		.loc 2 156 10 is_stmt 1 view -0
 6312              		.cfi_startproc
 6313              		@ args = 0, pretend = 0, frame = 288
 6314              		@ frame_needed = 0, uses_anonymous_args = 0
 6315              		.loc 2 156 10 is_stmt 0 view .LVU1468
 6316 0000 2DE9F041 		push	{r4, r5, r6, r7, r8, lr}
 6317              		.cfi_def_cfa_offset 24
 6318              		.cfi_offset 4, -24
 6319              		.cfi_offset 5, -20
 6320              		.cfi_offset 6, -16
 6321              		.cfi_offset 7, -12
 6322              		.cfi_offset 8, -8
 6323              		.cfi_offset 14, -4
 157:../../libDaisy//src/hid/midi.h ****     {
 158:../../libDaisy//src/hid/midi.h ****         // reset parser when status byte is received
 159:../../libDaisy//src/hid/midi.h ****         if((byte & kStatusByteMask) && pstate_ != ParserSysEx)
 6324              		.loc 2 159 20 view .LVU1469
 6325 0004 00F51044 		add	r4, r0, #36864
 156:../../libDaisy//src/hid/midi.h ****     {
 6326              		.loc 2 156 10 view .LVU1470
 6327 0008 C8B0     		sub	sp, sp, #288
 6328              		.cfi_def_cfa_offset 312
 156:../../libDaisy//src/hid/midi.h ****     {
 6329              		.loc 2 156 10 view .LVU1471
 6330 000a 0546     		mov	r5, r0
 6331              		.loc 2 159 18 view .LVU1472
 6332 000c 94F8B430 		ldrb	r3, [r4, #180]	@ zero_extendqisi2
 6333              		.loc 2 159 9 view .LVU1473
 6334 0010 1942     		tst	r1, r3
 6335              		.loc 2 159 37 view .LVU1474
 6336 0012 0379     		ldrb	r3, [r0, #4]	@ zero_extendqisi2
 6337              		.loc 2 159 9 view .LVU1475
 6338 0014 18D0     		beq	.L428
 6339              		.loc 2 159 37 discriminator 1 view .LVU1476
 6340 0016 032B     		cmp	r3, #3
 6341 0018 1CD0     		beq	.L429
 160:../../libDaisy//src/hid/midi.h ****         {
 161:../../libDaisy//src/hid/midi.h ****             pstate_ = ParserEmpty;
 6342              		.loc 2 161 21 view .LVU1477
 6343 001a 0022     		movs	r2, #0
ARM GAS  /var/folders/1y/_321xjh9623c014x9_qw12rr0000gn/T//cc1ZQ1Ea.s 			page 183


 6344 001c 0271     		strb	r2, [r0, #4]
 162:../../libDaisy//src/hid/midi.h ****         }
 163:../../libDaisy//src/hid/midi.h ****         switch(pstate_)
 164:../../libDaisy//src/hid/midi.h ****         {
 165:../../libDaisy//src/hid/midi.h ****             case ParserEmpty:
 166:../../libDaisy//src/hid/midi.h ****                 // check byte for valid Status Byte
 167:../../libDaisy//src/hid/midi.h ****                 if(byte & kStatusByteMask)
 168:../../libDaisy//src/hid/midi.h ****                 {
 169:../../libDaisy//src/hid/midi.h ****                     // Get MessageType, and Channel
 170:../../libDaisy//src/hid/midi.h ****                     incoming_message_.channel = byte & kChannelMask;
 6345              		.loc 2 170 54 view .LVU1478
 6346 001e 94F8B830 		ldrb	r3, [r4, #184]	@ zero_extendqisi2
 6347 0022 0B40     		ands	r3, r3, r1
 6348 0024 C360     		str	r3, [r0, #12]
 171:../../libDaisy//src/hid/midi.h ****                     incoming_message_.type    = static_cast<MidiMessageType>(
 172:../../libDaisy//src/hid/midi.h ****                         (byte & kMessageMask) >> 4);
 6349              		.loc 2 172 31 view .LVU1479
 6350 0026 94F8B530 		ldrb	r3, [r4, #181]	@ zero_extendqisi2
 6351              		.loc 2 172 47 view .LVU1480
 6352 002a 0B40     		ands	r3, r3, r1
 6353 002c 1B09     		lsrs	r3, r3, #4
 173:../../libDaisy//src/hid/midi.h **** 
 174:../../libDaisy//src/hid/midi.h ****                     // Validate, and move on.
 175:../../libDaisy//src/hid/midi.h ****                     if(incoming_message_.type < MessageLast)
 6354              		.loc 2 175 21 view .LVU1481
 6355 002e 092B     		cmp	r3, #9
 171:../../libDaisy//src/hid/midi.h ****                     incoming_message_.type    = static_cast<MidiMessageType>(
 6356              		.loc 2 171 47 view .LVU1482
 6357 0030 0372     		strb	r3, [r0, #8]
 6358              		.loc 2 175 21 view .LVU1483
 6359 0032 06D8     		bhi	.L427
 176:../../libDaisy//src/hid/midi.h ****                     {
 177:../../libDaisy//src/hid/midi.h ****                         pstate_ = ParserHasStatus;
 6360              		.loc 2 177 33 view .LVU1484
 6361 0034 0120     		movs	r0, #1
 6362              	.LVL470:
 178:../../libDaisy//src/hid/midi.h ****                         // Mark this status byte as running_status
 179:../../libDaisy//src/hid/midi.h ****                         running_status_ = incoming_message_.type;
 180:../../libDaisy//src/hid/midi.h **** 
 181:../../libDaisy//src/hid/midi.h ****                         if(running_status_ == SystemCommon)
 6363              		.loc 2 181 25 view .LVU1485
 6364 0036 072B     		cmp	r3, #7
 177:../../libDaisy//src/hid/midi.h ****                         // Mark this status byte as running_status
 6365              		.loc 2 177 33 view .LVU1486
 6366 0038 2871     		strb	r0, [r5, #4]
 179:../../libDaisy//src/hid/midi.h **** 
 6367              		.loc 2 179 41 view .LVU1487
 6368 003a 84F8A430 		strb	r3, [r4, #164]
 6369              		.loc 2 181 25 view .LVU1488
 6370 003e 00F0E880 		beq	.L485
 6371              	.LVL471:
 6372              	.L427:
 182:../../libDaisy//src/hid/midi.h ****                         {
 183:../../libDaisy//src/hid/midi.h ****                             incoming_message_.channel = 0;
 184:../../libDaisy//src/hid/midi.h ****                             //system real time = 1111 1xxx
 185:../../libDaisy//src/hid/midi.h ****                             if(byte & 0x08)
 186:../../libDaisy//src/hid/midi.h ****                             {
ARM GAS  /var/folders/1y/_321xjh9623c014x9_qw12rr0000gn/T//cc1ZQ1Ea.s 			page 184


 187:../../libDaisy//src/hid/midi.h ****                                 incoming_message_.type = SystemRealTime;
 188:../../libDaisy//src/hid/midi.h ****                                 running_status_        = SystemRealTime;
 189:../../libDaisy//src/hid/midi.h ****                                 incoming_message_.srt_type
 190:../../libDaisy//src/hid/midi.h ****                                     = static_cast<SystemRealTimeType>(
 191:../../libDaisy//src/hid/midi.h ****                                         byte & kSystemRealTimeMask);
 192:../../libDaisy//src/hid/midi.h **** 
 193:../../libDaisy//src/hid/midi.h ****                                 //short circuit to start
 194:../../libDaisy//src/hid/midi.h ****                                 pstate_ = ParserEmpty;
 195:../../libDaisy//src/hid/midi.h ****                                 event_q_.Write(incoming_message_);
 196:../../libDaisy//src/hid/midi.h ****                             }
 197:../../libDaisy//src/hid/midi.h ****                             //system common
 198:../../libDaisy//src/hid/midi.h ****                             else
 199:../../libDaisy//src/hid/midi.h ****                             {
 200:../../libDaisy//src/hid/midi.h ****                                 incoming_message_.sc_type
 201:../../libDaisy//src/hid/midi.h ****                                     = static_cast<SystemCommonType>(byte
 202:../../libDaisy//src/hid/midi.h ****                                                                     & 0x07);
 203:../../libDaisy//src/hid/midi.h ****                                 //sysex
 204:../../libDaisy//src/hid/midi.h ****                                 if(incoming_message_.sc_type == SystemExclusive)
 205:../../libDaisy//src/hid/midi.h ****                                 {
 206:../../libDaisy//src/hid/midi.h ****                                     pstate_ = ParserSysEx;
 207:../../libDaisy//src/hid/midi.h ****                                     incoming_message_.sysex_message_len = 0;
 208:../../libDaisy//src/hid/midi.h ****                                 }
 209:../../libDaisy//src/hid/midi.h ****                                 //short circuit
 210:../../libDaisy//src/hid/midi.h ****                                 else if(incoming_message_.sc_type > SongSelect)
 211:../../libDaisy//src/hid/midi.h ****                                 {
 212:../../libDaisy//src/hid/midi.h ****                                     pstate_ = ParserEmpty;
 213:../../libDaisy//src/hid/midi.h ****                                     event_q_.Write(incoming_message_);
 214:../../libDaisy//src/hid/midi.h ****                                 }
 215:../../libDaisy//src/hid/midi.h ****                             }
 216:../../libDaisy//src/hid/midi.h ****                         }
 217:../../libDaisy//src/hid/midi.h ****                     }
 218:../../libDaisy//src/hid/midi.h ****                     // Else we'll keep waiting for a valid incoming status byte
 219:../../libDaisy//src/hid/midi.h ****                 }
 220:../../libDaisy//src/hid/midi.h ****                 else
 221:../../libDaisy//src/hid/midi.h ****                 {
 222:../../libDaisy//src/hid/midi.h ****                     // Handle as running status
 223:../../libDaisy//src/hid/midi.h ****                     incoming_message_.type    = running_status_;
 224:../../libDaisy//src/hid/midi.h ****                     incoming_message_.data[0] = byte & kDataByteMask;
 225:../../libDaisy//src/hid/midi.h ****                     //check for single byte running status, really this only applies to channel pre
 226:../../libDaisy//src/hid/midi.h ****                     if(running_status_ == ChannelPressure
 227:../../libDaisy//src/hid/midi.h ****                        || running_status_ == ProgramChange
 228:../../libDaisy//src/hid/midi.h ****                        || incoming_message_.sc_type == MTCQuarterFrame
 229:../../libDaisy//src/hid/midi.h ****                        || incoming_message_.sc_type == SongSelect)
 230:../../libDaisy//src/hid/midi.h ****                     {
 231:../../libDaisy//src/hid/midi.h ****                         //Send the single byte update
 232:../../libDaisy//src/hid/midi.h ****                         pstate_ = ParserEmpty;
 233:../../libDaisy//src/hid/midi.h ****                         event_q_.Write(incoming_message_);
 234:../../libDaisy//src/hid/midi.h ****                     }
 235:../../libDaisy//src/hid/midi.h ****                     else
 236:../../libDaisy//src/hid/midi.h ****                     {
 237:../../libDaisy//src/hid/midi.h ****                         pstate_
 238:../../libDaisy//src/hid/midi.h ****                             = ParserHasData0; //we need to get the 2nd byte yet.
 239:../../libDaisy//src/hid/midi.h ****                     }
 240:../../libDaisy//src/hid/midi.h ****                 }
 241:../../libDaisy//src/hid/midi.h ****                 break;
 242:../../libDaisy//src/hid/midi.h ****             case ParserHasStatus:
 243:../../libDaisy//src/hid/midi.h ****                 if((byte & kStatusByteMask) == 0)
ARM GAS  /var/folders/1y/_321xjh9623c014x9_qw12rr0000gn/T//cc1ZQ1Ea.s 			page 185


 244:../../libDaisy//src/hid/midi.h ****                 {
 245:../../libDaisy//src/hid/midi.h ****                     incoming_message_.data[0] = byte & kDataByteMask;
 246:../../libDaisy//src/hid/midi.h ****                     if(running_status_ == ChannelPressure
 247:../../libDaisy//src/hid/midi.h ****                        || running_status_ == ProgramChange
 248:../../libDaisy//src/hid/midi.h ****                        || incoming_message_.sc_type == MTCQuarterFrame
 249:../../libDaisy//src/hid/midi.h ****                        || incoming_message_.sc_type == SongSelect)
 250:../../libDaisy//src/hid/midi.h ****                     {
 251:../../libDaisy//src/hid/midi.h ****                         //these are just one data byte, so we short circuit back to start
 252:../../libDaisy//src/hid/midi.h ****                         pstate_ = ParserEmpty;
 253:../../libDaisy//src/hid/midi.h ****                         event_q_.Write(incoming_message_);
 254:../../libDaisy//src/hid/midi.h ****                     }
 255:../../libDaisy//src/hid/midi.h ****                     else
 256:../../libDaisy//src/hid/midi.h ****                     {
 257:../../libDaisy//src/hid/midi.h ****                         pstate_ = ParserHasData0;
 258:../../libDaisy//src/hid/midi.h ****                     }
 259:../../libDaisy//src/hid/midi.h **** 
 260:../../libDaisy//src/hid/midi.h ****                     //ChannelModeMessages (reserved Control Changes)
 261:../../libDaisy//src/hid/midi.h ****                     if(running_status_ == ControlChange
 262:../../libDaisy//src/hid/midi.h ****                        && incoming_message_.data[0] > 119)
 263:../../libDaisy//src/hid/midi.h ****                     {
 264:../../libDaisy//src/hid/midi.h ****                         incoming_message_.type = ChannelMode;
 265:../../libDaisy//src/hid/midi.h ****                         running_status_        = ChannelMode;
 266:../../libDaisy//src/hid/midi.h ****                         incoming_message_.cm_type
 267:../../libDaisy//src/hid/midi.h ****                             = static_cast<ChannelModeType>(
 268:../../libDaisy//src/hid/midi.h ****                                 incoming_message_.data[0] - 120);
 269:../../libDaisy//src/hid/midi.h ****                     }
 270:../../libDaisy//src/hid/midi.h ****                 }
 271:../../libDaisy//src/hid/midi.h ****                 else
 272:../../libDaisy//src/hid/midi.h ****                 {
 273:../../libDaisy//src/hid/midi.h ****                     // invalid message go back to start ;p
 274:../../libDaisy//src/hid/midi.h ****                     pstate_ = ParserEmpty;
 275:../../libDaisy//src/hid/midi.h ****                 }
 276:../../libDaisy//src/hid/midi.h ****                 break;
 277:../../libDaisy//src/hid/midi.h ****             case ParserHasData0:
 278:../../libDaisy//src/hid/midi.h ****                 if((byte & kStatusByteMask) == 0)
 279:../../libDaisy//src/hid/midi.h ****                 {
 280:../../libDaisy//src/hid/midi.h ****                     incoming_message_.data[1] = byte & kDataByteMask;
 281:../../libDaisy//src/hid/midi.h **** 
 282:../../libDaisy//src/hid/midi.h ****                     //velocity 0 NoteOns are NoteOffs
 283:../../libDaisy//src/hid/midi.h ****                     if(running_status_ == NoteOn
 284:../../libDaisy//src/hid/midi.h ****                        && incoming_message_.data[1] == 0)
 285:../../libDaisy//src/hid/midi.h ****                     {
 286:../../libDaisy//src/hid/midi.h ****                         incoming_message_.type = NoteOff;
 287:../../libDaisy//src/hid/midi.h ****                     }
 288:../../libDaisy//src/hid/midi.h **** 
 289:../../libDaisy//src/hid/midi.h ****                     // At this point the message is valid, and we can add this MidiEvent to the que
 290:../../libDaisy//src/hid/midi.h ****                     event_q_.Write(incoming_message_);
 291:../../libDaisy//src/hid/midi.h ****                 }
 292:../../libDaisy//src/hid/midi.h ****                 else
 293:../../libDaisy//src/hid/midi.h ****                 {
 294:../../libDaisy//src/hid/midi.h ****                     // invalid message go back to start ;p
 295:../../libDaisy//src/hid/midi.h ****                     pstate_ = ParserEmpty;
 296:../../libDaisy//src/hid/midi.h ****                 }
 297:../../libDaisy//src/hid/midi.h ****                 // Regardless, of whether the data was valid or not we go back to empty
 298:../../libDaisy//src/hid/midi.h ****                 // because either the message is queued for handling or its not.
 299:../../libDaisy//src/hid/midi.h ****                 pstate_ = ParserEmpty;
 300:../../libDaisy//src/hid/midi.h ****                 break;
ARM GAS  /var/folders/1y/_321xjh9623c014x9_qw12rr0000gn/T//cc1ZQ1Ea.s 			page 186


 301:../../libDaisy//src/hid/midi.h ****             case ParserSysEx:
 302:../../libDaisy//src/hid/midi.h ****                 // end of sysex
 303:../../libDaisy//src/hid/midi.h ****                 if(byte == 0xf7)
 304:../../libDaisy//src/hid/midi.h ****                 {
 305:../../libDaisy//src/hid/midi.h ****                     pstate_ = ParserEmpty;
 306:../../libDaisy//src/hid/midi.h ****                     event_q_.Write(incoming_message_);
 307:../../libDaisy//src/hid/midi.h ****                 }
 308:../../libDaisy//src/hid/midi.h ****                 else if(incoming_message_.sysex_message_len < SYSEX_BUFFER_LEN)
 309:../../libDaisy//src/hid/midi.h ****                 {
 310:../../libDaisy//src/hid/midi.h ****                     incoming_message_
 311:../../libDaisy//src/hid/midi.h ****                         .sysex_data[incoming_message_.sysex_message_len]
 312:../../libDaisy//src/hid/midi.h ****                         = byte;
 313:../../libDaisy//src/hid/midi.h ****                     incoming_message_.sysex_message_len++;
 314:../../libDaisy//src/hid/midi.h ****                 }
 315:../../libDaisy//src/hid/midi.h ****                 break;
 316:../../libDaisy//src/hid/midi.h ****             default: break;
 317:../../libDaisy//src/hid/midi.h ****         }
 318:../../libDaisy//src/hid/midi.h ****     }
 6373              		.loc 2 318 5 view .LVU1489
 6374 0042 48B0     		add	sp, sp, #288
 6375              		.cfi_remember_state
 6376              		.cfi_def_cfa_offset 24
 6377              		@ sp needed
 6378 0044 BDE8F081 		pop	{r4, r5, r6, r7, r8, pc}
 6379              	.LVL472:
 6380              	.L428:
 6381              		.cfi_restore_state
 163:../../libDaisy//src/hid/midi.h ****         {
 6382              		.loc 2 163 9 view .LVU1490
 6383 0048 032B     		cmp	r3, #3
 6384 004a FAD8     		bhi	.L427
 6385 004c DFE803F0 		tbb	[pc, r3]
 6386              	.L451:
 6387 0050 8D       		.byte	(.L437-.L451)/2
 6388 0051 11       		.byte	(.L441-.L451)/2
 6389 0052 58       		.byte	(.L446-.L451)/2
 6390 0053 02       		.byte	(.L429-.L451)/2
 6391              		.p2align 1
 6392              	.L429:
 303:../../libDaisy//src/hid/midi.h ****                 {
 6393              		.loc 2 303 17 view .LVU1491
 6394 0054 F729     		cmp	r1, #247
 6395 0056 00F0C380 		beq	.L486
 308:../../libDaisy//src/hid/midi.h ****                 {
 6396              		.loc 2 308 22 view .LVU1492
 6397 005a 95F99220 		ldrsb	r2, [r5, #146]
 308:../../libDaisy//src/hid/midi.h ****                 {
 6398              		.loc 2 308 43 view .LVU1493
 6399 005e 95F89230 		ldrb	r3, [r5, #146]	@ zero_extendqisi2
 308:../../libDaisy//src/hid/midi.h ****                 {
 6400              		.loc 2 308 22 view .LVU1494
 6401 0062 002A     		cmp	r2, #0
 6402 0064 EDDB     		blt	.L427
 312:../../libDaisy//src/hid/midi.h ****                     incoming_message_.sysex_message_len++;
 6403              		.loc 2 312 25 view .LVU1495
 6404 0066 EA18     		adds	r2, r5, r3
 313:../../libDaisy//src/hid/midi.h ****                 }
ARM GAS  /var/folders/1y/_321xjh9623c014x9_qw12rr0000gn/T//cc1ZQ1Ea.s 			page 187


 6405              		.loc 2 313 21 view .LVU1496
 6406 0068 0133     		adds	r3, r3, #1
 312:../../libDaisy//src/hid/midi.h ****                     incoming_message_.sysex_message_len++;
 6407              		.loc 2 312 25 view .LVU1497
 6408 006a 9174     		strb	r1, [r2, #18]
 313:../../libDaisy//src/hid/midi.h ****                 }
 6409              		.loc 2 313 21 view .LVU1498
 6410 006c 85F89230 		strb	r3, [r5, #146]
 6411              		.loc 2 318 5 view .LVU1499
 6412 0070 E7E7     		b	.L427
 6413              	.L441:
 245:../../libDaisy//src/hid/midi.h ****                     if(running_status_ == ChannelPressure
 6414              		.loc 2 245 54 view .LVU1500
 6415 0072 94F8B680 		ldrb	r8, [r4, #182]	@ zero_extendqisi2
 6416 0076 01EA0808 		and	r8, r1, r8
 245:../../libDaisy//src/hid/midi.h ****                     if(running_status_ == ChannelPressure
 6417              		.loc 2 245 47 view .LVU1501
 6418 007a 85F81080 		strb	r8, [r5, #16]
 246:../../libDaisy//src/hid/midi.h ****                        || running_status_ == ProgramChange
 6419              		.loc 2 246 24 view .LVU1502
 6420 007e 94F8A470 		ldrb	r7, [r4, #164]	@ zero_extendqisi2
 246:../../libDaisy//src/hid/midi.h ****                        || running_status_ == ProgramChange
 6421              		.loc 2 246 21 view .LVU1503
 6422 0082 3B1F     		subs	r3, r7, #4
 6423 0084 012B     		cmp	r3, #1
 6424 0086 06D9     		bls	.L442
 248:../../libDaisy//src/hid/midi.h ****                        || incoming_message_.sc_type == SongSelect)
 6425              		.loc 2 248 24 view .LVU1504
 6426 0088 95F89330 		ldrb	r3, [r5, #147]	@ zero_extendqisi2
 249:../../libDaisy//src/hid/midi.h ****                     {
 6427              		.loc 2 249 24 view .LVU1505
 6428 008c 03F0FD03 		and	r3, r3, #253
 6429 0090 012B     		cmp	r3, #1
 6430 0092 40F0BB80 		bne	.L443
 6431              	.L442:
 252:../../libDaisy//src/hid/midi.h ****                         event_q_.Write(incoming_message_);
 6432              		.loc 2 252 33 view .LVU1506
 6433 0096 0023     		movs	r3, #0
 6434 0098 6E46     		mov	r6, sp
 6435 009a 9022     		movs	r2, #144
 6436 009c 05F10801 		add	r1, r5, #8
 6437              	.LVL473:
 252:../../libDaisy//src/hid/midi.h ****                         event_q_.Write(incoming_message_);
 6438              		.loc 2 252 33 view .LVU1507
 6439 00a0 3046     		mov	r0, r6
 6440              	.LVL474:
 252:../../libDaisy//src/hid/midi.h ****                         event_q_.Write(incoming_message_);
 6441              		.loc 2 252 33 view .LVU1508
 6442 00a2 2B71     		strb	r3, [r5, #4]
 6443              	.LVL475:
 252:../../libDaisy//src/hid/midi.h ****                         event_q_.Write(incoming_message_);
 6444              		.loc 2 252 33 view .LVU1509
 6445 00a4 FFF7FEFF 		bl	memcpy
 6446              	.LVL476:
 6447              	.LBB1605:
 6448              	.LBI1605:
  22:../../libDaisy//src/util/ringbuffer.h **** 
ARM GAS  /var/folders/1y/_321xjh9623c014x9_qw12rr0000gn/T//cc1ZQ1Ea.s 			page 188


  23:../../libDaisy//src/util/ringbuffer.h ****     /** Initializes the Ring Buffer */
  24:../../libDaisy//src/util/ringbuffer.h ****     inline void Init() { read_ptr_ = write_ptr_ = 0; }
  25:../../libDaisy//src/util/ringbuffer.h **** 
  26:../../libDaisy//src/util/ringbuffer.h ****     /** \return The total size of the ring buffer */
  27:../../libDaisy//src/util/ringbuffer.h ****     inline size_t capacity() const { return size; }
  28:../../libDaisy//src/util/ringbuffer.h **** 
  29:../../libDaisy//src/util/ringbuffer.h ****     /** \return the number of samples that can be written to ring buffer without overwriting unread
  30:../../libDaisy//src/util/ringbuffer.h ****     inline size_t writable() const
  31:../../libDaisy//src/util/ringbuffer.h ****     {
  32:../../libDaisy//src/util/ringbuffer.h ****         return (read_ptr_ - write_ptr_ - 1) % size;
  33:../../libDaisy//src/util/ringbuffer.h ****     }
  34:../../libDaisy//src/util/ringbuffer.h **** 
  35:../../libDaisy//src/util/ringbuffer.h ****     /** \return number of unread elements in ring buffer */
  36:../../libDaisy//src/util/ringbuffer.h ****     inline size_t readable() const { return (write_ptr_ - read_ptr_) % size; }
  37:../../libDaisy//src/util/ringbuffer.h **** 
  38:../../libDaisy//src/util/ringbuffer.h ****     /** \returns True, if the buffer is empty. */
  39:../../libDaisy//src/util/ringbuffer.h ****     inline bool isEmpty() const { return write_ptr_ == read_ptr_; }
  40:../../libDaisy//src/util/ringbuffer.h **** 
  41:../../libDaisy//src/util/ringbuffer.h ****     /** Writes the value to the next available position in the ring buffer
  42:../../libDaisy//src/util/ringbuffer.h ****     \param v Value to write
  43:../../libDaisy//src/util/ringbuffer.h ****     */
  44:../../libDaisy//src/util/ringbuffer.h ****     inline void Write(T v)
 6449              		.loc 20 44 17 is_stmt 1 view .LVU1510
 6450              	.L444:
 6451              	.LBB1606:
  45:../../libDaisy//src/util/ringbuffer.h ****     {
  46:../../libDaisy//src/util/ringbuffer.h ****         while(!writable())
 6452              		.loc 20 46 24 view .LVU1511
 6453              	.LBB1607:
 6454              	.LBI1607:
  30:../../libDaisy//src/util/ringbuffer.h ****     {
 6455              		.loc 20 30 19 view .LVU1512
 6456              	.LBB1608:
  32:../../libDaisy//src/util/ringbuffer.h ****     }
 6457              		.loc 20 32 17 is_stmt 0 view .LVU1513
 6458 00a8 D4F89830 		ldr	r3, [r4, #152]
  32:../../libDaisy//src/util/ringbuffer.h ****     }
 6459              		.loc 20 32 29 view .LVU1514
 6460 00ac D4F89C20 		ldr	r2, [r4, #156]
 6461              	.LVL477:
  32:../../libDaisy//src/util/ringbuffer.h ****     }
 6462              		.loc 20 32 40 view .LVU1515
 6463 00b0 013B     		subs	r3, r3, #1
 6464 00b2 9B1A     		subs	r3, r3, r2
  32:../../libDaisy//src/util/ringbuffer.h ****     }
 6465              		.loc 20 32 47 view .LVU1516
 6466 00b4 DBB2     		uxtb	r3, r3
 6467              	.LBE1608:
 6468              	.LBE1607:
 6469              		.loc 20 46 24 view .LVU1517
 6470 00b6 002B     		cmp	r3, #0
 6471 00b8 F6D0     		beq	.L444
 6472              	.LVL478:
 6473              		.loc 20 46 24 view .LVU1518
 6474 00ba 9022     		movs	r2, #144
 6475 00bc 3146     		mov	r1, r6
 6476 00be 0DEB0200 		add	r0, sp, r2
ARM GAS  /var/folders/1y/_321xjh9623c014x9_qw12rr0000gn/T//cc1ZQ1Ea.s 			page 189


 6477 00c2 FFF7FEFF 		bl	memcpy
 6478              	.LVL479:
 6479              	.LBB1609:
 6480              	.LBI1609:
  47:../../libDaisy//src/util/ringbuffer.h ****             ;
  48:../../libDaisy//src/util/ringbuffer.h ****         Overwrite(v);
  49:../../libDaisy//src/util/ringbuffer.h ****     }
  50:../../libDaisy//src/util/ringbuffer.h **** 
  51:../../libDaisy//src/util/ringbuffer.h ****     /** Writes the new element to the ring buffer, overwriting unread data if necessary. 
  52:../../libDaisy//src/util/ringbuffer.h ****     \param v Value to overwrite
  53:../../libDaisy//src/util/ringbuffer.h ****      */
  54:../../libDaisy//src/util/ringbuffer.h ****     inline void Overwrite(T v)
 6481              		.loc 20 54 17 is_stmt 1 view .LVU1519
 6482              	.LBB1610:
  55:../../libDaisy//src/util/ringbuffer.h ****     {
  56:../../libDaisy//src/util/ringbuffer.h ****         size_t w   = write_ptr_;
 6483              		.loc 20 56 16 is_stmt 0 view .LVU1520
 6484 00c6 D4F89C60 		ldr	r6, [r4, #156]
 6485              	.LVL480:
  57:../../libDaisy//src/util/ringbuffer.h ****         buffer_[w] = v;
 6486              		.loc 20 57 9 view .LVU1521
 6487 00ca 24A9     		add	r1, sp, #144
 6488 00cc 9022     		movs	r2, #144
 6489 00ce 06EBC600 		add	r0, r6, r6, lsl #3
  58:../../libDaisy//src/util/ringbuffer.h ****         write_ptr_ = (w + 1) % size;
 6490              		.loc 20 58 25 view .LVU1522
 6491 00d2 0136     		adds	r6, r6, #1
 6492              	.LVL481:
  57:../../libDaisy//src/util/ringbuffer.h ****         buffer_[w] = v;
 6493              		.loc 20 57 9 view .LVU1523
 6494 00d4 05EB0010 		add	r0, r5, r0, lsl #4
 6495              		.loc 20 58 30 view .LVU1524
 6496 00d8 F6B2     		uxtb	r6, r6
 6497              	.LVL482:
  57:../../libDaisy//src/util/ringbuffer.h ****         buffer_[w] = v;
 6498              		.loc 20 57 9 view .LVU1525
 6499 00da 9830     		adds	r0, r0, #152
 6500 00dc FFF7FEFF 		bl	memcpy
 6501              	.LVL483:
 6502              		.loc 20 58 20 view .LVU1526
 6503 00e0 C4F89C60 		str	r6, [r4, #156]
 6504              	.LVL484:
 6505              	.L445:
 6506              		.loc 20 58 20 view .LVU1527
 6507              	.LBE1610:
 6508              	.LBE1609:
 6509              	.LBE1606:
 6510              	.LBE1605:
 262:../../libDaisy//src/hid/midi.h ****                     {
 6511              		.loc 2 262 24 view .LVU1528
 6512 00e4 B8F1770F 		cmp	r8, #119
 6513 00e8 ABD9     		bls	.L427
 6514 00ea 032F     		cmp	r7, #3
 6515 00ec A9D1     		bne	.L427
 264:../../libDaisy//src/hid/midi.h ****                         running_status_        = ChannelMode;
 6516              		.loc 2 264 48 view .LVU1529
 6517 00ee 0923     		movs	r3, #9
ARM GAS  /var/folders/1y/_321xjh9623c014x9_qw12rr0000gn/T//cc1ZQ1Ea.s 			page 190


 268:../../libDaisy//src/hid/midi.h ****                     }
 6518              		.loc 2 268 59 view .LVU1530
 6519 00f0 A8F17801 		sub	r1, r8, #120
 264:../../libDaisy//src/hid/midi.h ****                         running_status_        = ChannelMode;
 6520              		.loc 2 264 48 view .LVU1531
 6521 00f4 2B72     		strb	r3, [r5, #8]
 265:../../libDaisy//src/hid/midi.h ****                         incoming_message_.cm_type
 6522              		.loc 2 265 48 view .LVU1532
 6523 00f6 84F8A430 		strb	r3, [r4, #164]
 267:../../libDaisy//src/hid/midi.h ****                                 incoming_message_.data[0] - 120);
 6524              		.loc 2 267 29 view .LVU1533
 6525 00fa 85F89510 		strb	r1, [r5, #149]
 6526 00fe A0E7     		b	.L427
 6527              	.LVL485:
 6528              	.L446:
 280:../../libDaisy//src/hid/midi.h **** 
 6529              		.loc 2 280 54 view .LVU1534
 6530 0100 94F8B630 		ldrb	r3, [r4, #182]	@ zero_extendqisi2
 6531 0104 1940     		ands	r1, r1, r3
 6532              	.LVL486:
 280:../../libDaisy//src/hid/midi.h **** 
 6533              		.loc 2 280 47 view .LVU1535
 6534 0106 6974     		strb	r1, [r5, #17]
 283:../../libDaisy//src/hid/midi.h ****                        && incoming_message_.data[1] == 0)
 6535              		.loc 2 283 21 view .LVU1536
 6536 0108 94F8A430 		ldrb	r3, [r4, #164]	@ zero_extendqisi2
 284:../../libDaisy//src/hid/midi.h ****                     {
 6537              		.loc 2 284 24 view .LVU1537
 6538 010c 012B     		cmp	r3, #1
 6539 010e 02D1     		bne	.L447
 6540 0110 0029     		cmp	r1, #0
 6541 0112 00F08C80 		beq	.L487
 6542              	.L447:
 6543              	.LVL487:
 284:../../libDaisy//src/hid/midi.h ****                     {
 6544              		.loc 2 284 24 view .LVU1538
 6545 0116 6E46     		mov	r6, sp
 6546 0118 9022     		movs	r2, #144
 6547 011a 05F10801 		add	r1, r5, #8
 6548 011e 3046     		mov	r0, r6
 6549              	.LVL488:
 284:../../libDaisy//src/hid/midi.h ****                     {
 6550              		.loc 2 284 24 view .LVU1539
 6551 0120 FFF7FEFF 		bl	memcpy
 6552              	.LVL489:
 6553              	.LBB1611:
 6554              	.LBI1611:
  44:../../libDaisy//src/util/ringbuffer.h ****     {
 6555              		.loc 20 44 17 is_stmt 1 view .LVU1540
 6556              	.L448:
 6557              	.LBB1612:
  46:../../libDaisy//src/util/ringbuffer.h ****             ;
 6558              		.loc 20 46 24 view .LVU1541
 6559              	.LBB1613:
 6560              	.LBI1613:
  30:../../libDaisy//src/util/ringbuffer.h ****     {
 6561              		.loc 20 30 19 view .LVU1542
ARM GAS  /var/folders/1y/_321xjh9623c014x9_qw12rr0000gn/T//cc1ZQ1Ea.s 			page 191


 6562              	.LBB1614:
  32:../../libDaisy//src/util/ringbuffer.h ****     }
 6563              		.loc 20 32 17 is_stmt 0 view .LVU1543
 6564 0124 D4F89830 		ldr	r3, [r4, #152]
  32:../../libDaisy//src/util/ringbuffer.h ****     }
 6565              		.loc 20 32 29 view .LVU1544
 6566 0128 D4F89C20 		ldr	r2, [r4, #156]
 6567              	.LVL490:
  32:../../libDaisy//src/util/ringbuffer.h ****     }
 6568              		.loc 20 32 40 view .LVU1545
 6569 012c 013B     		subs	r3, r3, #1
 6570 012e 9B1A     		subs	r3, r3, r2
  32:../../libDaisy//src/util/ringbuffer.h ****     }
 6571              		.loc 20 32 47 view .LVU1546
 6572 0130 DBB2     		uxtb	r3, r3
 6573              	.LBE1614:
 6574              	.LBE1613:
  46:../../libDaisy//src/util/ringbuffer.h ****             ;
 6575              		.loc 20 46 24 view .LVU1547
 6576 0132 002B     		cmp	r3, #0
 6577 0134 F6D0     		beq	.L448
 6578              	.LVL491:
  46:../../libDaisy//src/util/ringbuffer.h ****             ;
 6579              		.loc 20 46 24 view .LVU1548
 6580 0136 9022     		movs	r2, #144
 6581 0138 3146     		mov	r1, r6
 6582 013a 0DEB0200 		add	r0, sp, r2
 6583 013e FFF7FEFF 		bl	memcpy
 6584              	.LVL492:
 6585              	.LBB1615:
 6586              	.LBI1615:
  54:../../libDaisy//src/util/ringbuffer.h ****     {
 6587              		.loc 20 54 17 is_stmt 1 view .LVU1549
 6588              	.LBB1616:
  56:../../libDaisy//src/util/ringbuffer.h ****         buffer_[w] = v;
 6589              		.loc 20 56 16 is_stmt 0 view .LVU1550
 6590 0142 D4F89C60 		ldr	r6, [r4, #156]
 6591              	.LVL493:
  57:../../libDaisy//src/util/ringbuffer.h ****         write_ptr_ = (w + 1) % size;
 6592              		.loc 20 57 9 view .LVU1551
 6593 0146 24A9     		add	r1, sp, #144
 6594 0148 9022     		movs	r2, #144
 6595 014a 06EBC600 		add	r0, r6, r6, lsl #3
 6596              		.loc 20 58 25 view .LVU1552
 6597 014e 0136     		adds	r6, r6, #1
 6598              	.LVL494:
  57:../../libDaisy//src/util/ringbuffer.h ****         write_ptr_ = (w + 1) % size;
 6599              		.loc 20 57 9 view .LVU1553
 6600 0150 05EB0010 		add	r0, r5, r0, lsl #4
 6601              		.loc 20 58 30 view .LVU1554
 6602 0154 F6B2     		uxtb	r6, r6
 6603              	.LVL495:
  57:../../libDaisy//src/util/ringbuffer.h ****         write_ptr_ = (w + 1) % size;
 6604              		.loc 20 57 9 view .LVU1555
 6605 0156 9830     		adds	r0, r0, #152
 6606 0158 FFF7FEFF 		bl	memcpy
 6607              	.LVL496:
ARM GAS  /var/folders/1y/_321xjh9623c014x9_qw12rr0000gn/T//cc1ZQ1Ea.s 			page 192


 6608              	.LBE1616:
 6609              	.LBE1615:
 6610              	.LBE1612:
 6611              	.LBE1611:
 299:../../libDaisy//src/hid/midi.h ****                 break;
 6612              		.loc 2 299 25 view .LVU1556
 6613 015c 0023     		movs	r3, #0
 6614              	.LBB1620:
 6615              	.LBB1619:
 6616              	.LBB1618:
 6617              	.LBB1617:
 6618              		.loc 20 58 20 view .LVU1557
 6619 015e C4F89C60 		str	r6, [r4, #156]
 6620              	.LVL497:
 6621              		.loc 20 58 20 view .LVU1558
 6622              	.LBE1617:
 6623              	.LBE1618:
 6624              	.LBE1619:
 6625              	.LBE1620:
 299:../../libDaisy//src/hid/midi.h ****                 break;
 6626              		.loc 2 299 25 view .LVU1559
 6627 0162 2B71     		strb	r3, [r5, #4]
 6628              		.loc 2 318 5 view .LVU1560
 6629 0164 48B0     		add	sp, sp, #288
 6630              		.cfi_remember_state
 6631              		.cfi_def_cfa_offset 24
 6632              		@ sp needed
 6633 0166 BDE8F081 		pop	{r4, r5, r6, r7, r8, pc}
 6634              	.LVL498:
 6635              	.L437:
 6636              		.cfi_restore_state
 223:../../libDaisy//src/hid/midi.h ****                     incoming_message_.data[0] = byte & kDataByteMask;
 6637              		.loc 2 223 49 view .LVU1561
 6638 016a 94F8A430 		ldrb	r3, [r4, #164]	@ zero_extendqisi2
 223:../../libDaisy//src/hid/midi.h ****                     incoming_message_.data[0] = byte & kDataByteMask;
 6639              		.loc 2 223 47 view .LVU1562
 6640 016e 2B72     		strb	r3, [r5, #8]
 226:../../libDaisy//src/hid/midi.h ****                        || running_status_ == ProgramChange
 6641              		.loc 2 226 21 view .LVU1563
 6642 0170 043B     		subs	r3, r3, #4
 224:../../libDaisy//src/hid/midi.h ****                     //check for single byte running status, really this only applies to channel pre
 6643              		.loc 2 224 54 view .LVU1564
 6644 0172 94F8B620 		ldrb	r2, [r4, #182]	@ zero_extendqisi2
 226:../../libDaisy//src/hid/midi.h ****                        || running_status_ == ProgramChange
 6645              		.loc 2 226 21 view .LVU1565
 6646 0176 012B     		cmp	r3, #1
 224:../../libDaisy//src/hid/midi.h ****                     //check for single byte running status, really this only applies to channel pre
 6647              		.loc 2 224 54 view .LVU1566
 6648 0178 01EA0201 		and	r1, r1, r2
 6649              	.LVL499:
 224:../../libDaisy//src/hid/midi.h ****                     //check for single byte running status, really this only applies to channel pre
 6650              		.loc 2 224 47 view .LVU1567
 6651 017c 2974     		strb	r1, [r5, #16]
 226:../../libDaisy//src/hid/midi.h ****                        || running_status_ == ProgramChange
 6652              		.loc 2 226 21 view .LVU1568
 6653 017e 05D9     		bls	.L438
 228:../../libDaisy//src/hid/midi.h ****                        || incoming_message_.sc_type == SongSelect)
ARM GAS  /var/folders/1y/_321xjh9623c014x9_qw12rr0000gn/T//cc1ZQ1Ea.s 			page 193


 6654              		.loc 2 228 24 view .LVU1569
 6655 0180 95F89330 		ldrb	r3, [r5, #147]	@ zero_extendqisi2
 229:../../libDaisy//src/hid/midi.h ****                     {
 6656              		.loc 2 229 24 view .LVU1570
 6657 0184 03F0FD03 		and	r3, r3, #253
 6658 0188 012B     		cmp	r3, #1
 6659 018a 3CD1     		bne	.L439
 6660              	.L438:
 232:../../libDaisy//src/hid/midi.h ****                         event_q_.Write(incoming_message_);
 6661              		.loc 2 232 33 view .LVU1571
 6662 018c 0023     		movs	r3, #0
 6663 018e 6E46     		mov	r6, sp
 6664 0190 9022     		movs	r2, #144
 6665 0192 05F10801 		add	r1, r5, #8
 6666 0196 3046     		mov	r0, r6
 6667              	.LVL500:
 232:../../libDaisy//src/hid/midi.h ****                         event_q_.Write(incoming_message_);
 6668              		.loc 2 232 33 view .LVU1572
 6669 0198 2B71     		strb	r3, [r5, #4]
 6670              	.LVL501:
 232:../../libDaisy//src/hid/midi.h ****                         event_q_.Write(incoming_message_);
 6671              		.loc 2 232 33 view .LVU1573
 6672 019a FFF7FEFF 		bl	memcpy
 6673              	.LVL502:
 6674              	.LBB1621:
 6675              	.LBI1621:
  44:../../libDaisy//src/util/ringbuffer.h ****     {
 6676              		.loc 20 44 17 is_stmt 1 view .LVU1574
 6677              	.L440:
 6678              	.LBB1622:
  46:../../libDaisy//src/util/ringbuffer.h ****             ;
 6679              		.loc 20 46 24 view .LVU1575
 6680              	.LBB1623:
 6681              	.LBI1623:
  30:../../libDaisy//src/util/ringbuffer.h ****     {
 6682              		.loc 20 30 19 view .LVU1576
 6683              	.LBB1624:
  32:../../libDaisy//src/util/ringbuffer.h ****     }
 6684              		.loc 20 32 17 is_stmt 0 view .LVU1577
 6685 019e D4F89830 		ldr	r3, [r4, #152]
  32:../../libDaisy//src/util/ringbuffer.h ****     }
 6686              		.loc 20 32 29 view .LVU1578
 6687 01a2 D4F89C20 		ldr	r2, [r4, #156]
 6688              	.LVL503:
  32:../../libDaisy//src/util/ringbuffer.h ****     }
 6689              		.loc 20 32 40 view .LVU1579
 6690 01a6 013B     		subs	r3, r3, #1
 6691 01a8 9B1A     		subs	r3, r3, r2
  32:../../libDaisy//src/util/ringbuffer.h ****     }
 6692              		.loc 20 32 47 view .LVU1580
 6693 01aa DBB2     		uxtb	r3, r3
 6694              	.LBE1624:
 6695              	.LBE1623:
  46:../../libDaisy//src/util/ringbuffer.h ****             ;
 6696              		.loc 20 46 24 view .LVU1581
 6697 01ac 002B     		cmp	r3, #0
 6698 01ae F6D0     		beq	.L440
ARM GAS  /var/folders/1y/_321xjh9623c014x9_qw12rr0000gn/T//cc1ZQ1Ea.s 			page 194


 6699              	.LVL504:
 6700              	.L484:
  46:../../libDaisy//src/util/ringbuffer.h ****             ;
 6701              		.loc 20 46 24 view .LVU1582
 6702 01b0 9022     		movs	r2, #144
 6703 01b2 3146     		mov	r1, r6
 6704 01b4 0DEB0200 		add	r0, sp, r2
 6705 01b8 FFF7FEFF 		bl	memcpy
 6706              	.LVL505:
 6707              	.LBE1622:
 6708              	.LBE1621:
 6709              	.LBB1625:
 6710              	.LBB1626:
 6711              	.LBB1627:
 6712              	.LBI1627:
  54:../../libDaisy//src/util/ringbuffer.h ****     {
 6713              		.loc 20 54 17 is_stmt 1 view .LVU1583
 6714              	.LBB1628:
  56:../../libDaisy//src/util/ringbuffer.h ****         buffer_[w] = v;
 6715              		.loc 20 56 16 is_stmt 0 view .LVU1584
 6716 01bc D4F89C60 		ldr	r6, [r4, #156]
 6717              	.LVL506:
  57:../../libDaisy//src/util/ringbuffer.h ****         write_ptr_ = (w + 1) % size;
 6718              		.loc 20 57 9 view .LVU1585
 6719 01c0 24A9     		add	r1, sp, #144
 6720 01c2 9022     		movs	r2, #144
 6721 01c4 06EBC600 		add	r0, r6, r6, lsl #3
 6722              		.loc 20 58 25 view .LVU1586
 6723 01c8 0136     		adds	r6, r6, #1
 6724              	.LVL507:
  57:../../libDaisy//src/util/ringbuffer.h ****         write_ptr_ = (w + 1) % size;
 6725              		.loc 20 57 9 view .LVU1587
 6726 01ca 05EB0010 		add	r0, r5, r0, lsl #4
 6727              		.loc 20 58 30 view .LVU1588
 6728 01ce F6B2     		uxtb	r6, r6
 6729              	.LVL508:
  57:../../libDaisy//src/util/ringbuffer.h ****         write_ptr_ = (w + 1) % size;
 6730              		.loc 20 57 9 view .LVU1589
 6731 01d0 9830     		adds	r0, r0, #152
 6732 01d2 FFF7FEFF 		bl	memcpy
 6733              	.LVL509:
 6734              		.loc 20 58 20 view .LVU1590
 6735 01d6 C4F89C60 		str	r6, [r4, #156]
 6736              		.loc 20 58 20 view .LVU1591
 6737              	.LBE1628:
 6738              	.LBE1627:
 6739              	.LBE1626:
 6740              	.LBE1625:
 6741              		.loc 2 318 5 view .LVU1592
 6742 01da 48B0     		add	sp, sp, #288
 6743              		.cfi_remember_state
 6744              		.cfi_def_cfa_offset 24
 6745              		@ sp needed
 6746 01dc BDE8F081 		pop	{r4, r5, r6, r7, r8, pc}
 6747              	.LVL510:
 6748              	.L486:
 6749              		.cfi_restore_state
ARM GAS  /var/folders/1y/_321xjh9623c014x9_qw12rr0000gn/T//cc1ZQ1Ea.s 			page 195


 305:../../libDaisy//src/hid/midi.h ****                     event_q_.Write(incoming_message_);
 6750              		.loc 2 305 29 view .LVU1593
 6751 01e0 0023     		movs	r3, #0
 6752 01e2 6E46     		mov	r6, sp
 6753 01e4 9022     		movs	r2, #144
 6754 01e6 05F10801 		add	r1, r5, #8
 6755              	.LVL511:
 305:../../libDaisy//src/hid/midi.h ****                     event_q_.Write(incoming_message_);
 6756              		.loc 2 305 29 view .LVU1594
 6757 01ea 3046     		mov	r0, r6
 6758              	.LVL512:
 305:../../libDaisy//src/hid/midi.h ****                     event_q_.Write(incoming_message_);
 6759              		.loc 2 305 29 view .LVU1595
 6760 01ec 2B71     		strb	r3, [r5, #4]
 6761              	.LVL513:
 305:../../libDaisy//src/hid/midi.h ****                     event_q_.Write(incoming_message_);
 6762              		.loc 2 305 29 view .LVU1596
 6763 01ee FFF7FEFF 		bl	memcpy
 6764              	.LVL514:
 6765              	.LBB1632:
 6766              	.LBI1625:
  44:../../libDaisy//src/util/ringbuffer.h ****     {
 6767              		.loc 20 44 17 is_stmt 1 view .LVU1597
 6768              	.L450:
 6769              	.LBB1631:
  46:../../libDaisy//src/util/ringbuffer.h ****             ;
 6770              		.loc 20 46 24 view .LVU1598
 6771              	.LBB1629:
 6772              	.LBI1629:
  30:../../libDaisy//src/util/ringbuffer.h ****     {
 6773              		.loc 20 30 19 view .LVU1599
 6774              	.LBB1630:
  32:../../libDaisy//src/util/ringbuffer.h ****     }
 6775              		.loc 20 32 17 is_stmt 0 view .LVU1600
 6776 01f2 D4F89830 		ldr	r3, [r4, #152]
  32:../../libDaisy//src/util/ringbuffer.h ****     }
 6777              		.loc 20 32 29 view .LVU1601
 6778 01f6 D4F89C20 		ldr	r2, [r4, #156]
 6779              	.LVL515:
  32:../../libDaisy//src/util/ringbuffer.h ****     }
 6780              		.loc 20 32 40 view .LVU1602
 6781 01fa 013B     		subs	r3, r3, #1
 6782 01fc 9B1A     		subs	r3, r3, r2
  32:../../libDaisy//src/util/ringbuffer.h ****     }
 6783              		.loc 20 32 47 view .LVU1603
 6784 01fe DBB2     		uxtb	r3, r3
 6785              	.LBE1630:
 6786              	.LBE1629:
  46:../../libDaisy//src/util/ringbuffer.h ****             ;
 6787              		.loc 20 46 24 view .LVU1604
 6788 0200 002B     		cmp	r3, #0
 6789 0202 F6D0     		beq	.L450
 6790 0204 D4E7     		b	.L484
 6791              	.LVL516:
 6792              	.L439:
  46:../../libDaisy//src/util/ringbuffer.h ****             ;
 6793              		.loc 20 46 24 view .LVU1605
ARM GAS  /var/folders/1y/_321xjh9623c014x9_qw12rr0000gn/T//cc1ZQ1Ea.s 			page 196


 6794              	.LBE1631:
 6795              	.LBE1632:
 238:../../libDaisy//src/hid/midi.h ****                     }
 6796              		.loc 2 238 29 view .LVU1606
 6797 0206 0223     		movs	r3, #2
 6798 0208 2B71     		strb	r3, [r5, #4]
 6799 020a 1AE7     		b	.L427
 6800              	.LVL517:
 6801              	.L443:
 257:../../libDaisy//src/hid/midi.h ****                     }
 6802              		.loc 2 257 33 view .LVU1607
 6803 020c 0223     		movs	r3, #2
 6804 020e 2B71     		strb	r3, [r5, #4]
 6805 0210 68E7     		b	.L445
 6806              	.LVL518:
 6807              	.L485:
 185:../../libDaisy//src/hid/midi.h ****                             {
 6808              		.loc 2 185 29 view .LVU1608
 6809 0212 11F00800 		ands	r0, r1, #8
 183:../../libDaisy//src/hid/midi.h ****                             //system real time = 1111 1xxx
 6810              		.loc 2 183 55 view .LVU1609
 6811 0216 EA60     		str	r2, [r5, #12]
 185:../../libDaisy//src/hid/midi.h ****                             {
 6812              		.loc 2 185 29 view .LVU1610
 6813 0218 36D1     		bne	.L488
 202:../../libDaisy//src/hid/midi.h ****                                 //sysex
 6814              		.loc 2 202 69 view .LVU1611
 6815 021a 01F00703 		and	r3, r1, #7
 201:../../libDaisy//src/hid/midi.h ****                                                                     & 0x07);
 6816              		.loc 2 201 37 view .LVU1612
 6817 021e 85F89330 		strb	r3, [r5, #147]
 204:../../libDaisy//src/hid/midi.h ****                                 {
 6818              		.loc 2 204 33 view .LVU1613
 6819 0222 3BB9     		cbnz	r3, .L435
 206:../../libDaisy//src/hid/midi.h ****                                     incoming_message_.sysex_message_len = 0;
 6820              		.loc 2 206 45 view .LVU1614
 6821 0224 0322     		movs	r2, #3
 207:../../libDaisy//src/hid/midi.h ****                                 }
 6822              		.loc 2 207 73 view .LVU1615
 6823 0226 85F89230 		strb	r3, [r5, #146]
 206:../../libDaisy//src/hid/midi.h ****                                     incoming_message_.sysex_message_len = 0;
 6824              		.loc 2 206 45 view .LVU1616
 6825 022a 2A71     		strb	r2, [r5, #4]
 6826 022c 09E7     		b	.L427
 6827              	.LVL519:
 6828              	.L487:
 286:../../libDaisy//src/hid/midi.h ****                     }
 6829              		.loc 2 286 48 view .LVU1617
 6830 022e 0023     		movs	r3, #0
 6831 0230 2B72     		strb	r3, [r5, #8]
 6832 0232 70E7     		b	.L447
 6833              	.LVL520:
 6834              	.L435:
 210:../../libDaisy//src/hid/midi.h ****                                 {
 6835              		.loc 2 210 38 view .LVU1618
 6836 0234 4B07     		lsls	r3, r1, #29
 6837 0236 7FF504AF 		bpl	.L427
ARM GAS  /var/folders/1y/_321xjh9623c014x9_qw12rr0000gn/T//cc1ZQ1Ea.s 			page 197


 6838 023a 6E46     		mov	r6, sp
 212:../../libDaisy//src/hid/midi.h ****                                     event_q_.Write(incoming_message_);
 6839              		.loc 2 212 45 view .LVU1619
 6840 023c 2871     		strb	r0, [r5, #4]
 6841              	.LVL521:
 212:../../libDaisy//src/hid/midi.h ****                                     event_q_.Write(incoming_message_);
 6842              		.loc 2 212 45 view .LVU1620
 6843 023e 9022     		movs	r2, #144
 6844 0240 05F10801 		add	r1, r5, #8
 6845              	.LVL522:
 212:../../libDaisy//src/hid/midi.h ****                                     event_q_.Write(incoming_message_);
 6846              		.loc 2 212 45 view .LVU1621
 6847 0244 3046     		mov	r0, r6
 6848 0246 FFF7FEFF 		bl	memcpy
 6849              	.LVL523:
 6850              	.LBB1633:
 6851              	.LBI1633:
  44:../../libDaisy//src/util/ringbuffer.h ****     {
 6852              		.loc 20 44 17 is_stmt 1 view .LVU1622
 6853              	.L436:
 6854              	.LBB1634:
  46:../../libDaisy//src/util/ringbuffer.h ****             ;
 6855              		.loc 20 46 24 view .LVU1623
 6856              	.LBB1635:
 6857              	.LBI1635:
  30:../../libDaisy//src/util/ringbuffer.h ****     {
 6858              		.loc 20 30 19 view .LVU1624
 6859              	.LBB1636:
  32:../../libDaisy//src/util/ringbuffer.h ****     }
 6860              		.loc 20 32 17 is_stmt 0 view .LVU1625
 6861 024a D4F89830 		ldr	r3, [r4, #152]
  32:../../libDaisy//src/util/ringbuffer.h ****     }
 6862              		.loc 20 32 29 view .LVU1626
 6863 024e D4F89C20 		ldr	r2, [r4, #156]
 6864              	.LVL524:
  32:../../libDaisy//src/util/ringbuffer.h ****     }
 6865              		.loc 20 32 40 view .LVU1627
 6866 0252 013B     		subs	r3, r3, #1
 6867 0254 9B1A     		subs	r3, r3, r2
  32:../../libDaisy//src/util/ringbuffer.h ****     }
 6868              		.loc 20 32 47 view .LVU1628
 6869 0256 DBB2     		uxtb	r3, r3
 6870              	.LBE1636:
 6871              	.LBE1635:
  46:../../libDaisy//src/util/ringbuffer.h ****             ;
 6872              		.loc 20 46 24 view .LVU1629
 6873 0258 002B     		cmp	r3, #0
 6874 025a F6D0     		beq	.L436
 6875              	.LVL525:
 6876              	.L483:
  46:../../libDaisy//src/util/ringbuffer.h ****             ;
 6877              		.loc 20 46 24 view .LVU1630
 6878 025c 9022     		movs	r2, #144
 6879 025e 3146     		mov	r1, r6
 6880 0260 0DEB0200 		add	r0, sp, r2
 6881 0264 FFF7FEFF 		bl	memcpy
 6882              	.LVL526:
ARM GAS  /var/folders/1y/_321xjh9623c014x9_qw12rr0000gn/T//cc1ZQ1Ea.s 			page 198


 6883              	.LBB1637:
 6884              	.LBI1637:
  54:../../libDaisy//src/util/ringbuffer.h ****     {
 6885              		.loc 20 54 17 is_stmt 1 view .LVU1631
 6886              	.LBB1638:
  56:../../libDaisy//src/util/ringbuffer.h ****         buffer_[w] = v;
 6887              		.loc 20 56 16 is_stmt 0 view .LVU1632
 6888 0268 D4F89C60 		ldr	r6, [r4, #156]
 6889              	.LVL527:
  57:../../libDaisy//src/util/ringbuffer.h ****         write_ptr_ = (w + 1) % size;
 6890              		.loc 20 57 9 view .LVU1633
 6891 026c 24A9     		add	r1, sp, #144
 6892 026e 9022     		movs	r2, #144
 6893 0270 06EBC600 		add	r0, r6, r6, lsl #3
 6894 0274 05EB0010 		add	r0, r5, r0, lsl #4
 6895 0278 9830     		adds	r0, r0, #152
 6896 027a FFF7FEFF 		bl	memcpy
 6897              	.LVL528:
 6898              		.loc 20 58 25 view .LVU1634
 6899 027e 731C     		adds	r3, r6, #1
 6900              		.loc 20 58 30 view .LVU1635
 6901 0280 DBB2     		uxtb	r3, r3
 6902              		.loc 20 58 20 view .LVU1636
 6903 0282 C4F89C30 		str	r3, [r4, #156]
 6904              	.LVL529:
 6905              		.loc 20 58 20 view .LVU1637
 6906              	.LBE1638:
 6907              	.LBE1637:
 6908              	.LBE1634:
 6909              	.LBE1633:
 6910 0286 DCE6     		b	.L427
 6911              	.LVL530:
 6912              	.L488:
 187:../../libDaisy//src/hid/midi.h ****                                 running_status_        = SystemRealTime;
 6913              		.loc 2 187 56 view .LVU1638
 6914 0288 0823     		movs	r3, #8
 6915 028a 6E46     		mov	r6, sp
 6916 028c 2B72     		strb	r3, [r5, #8]
 6917 028e 3046     		mov	r0, r6
 188:../../libDaisy//src/hid/midi.h ****                                 incoming_message_.srt_type
 6918              		.loc 2 188 56 view .LVU1639
 6919 0290 84F8A430 		strb	r3, [r4, #164]
 191:../../libDaisy//src/hid/midi.h **** 
 6920              		.loc 2 191 46 view .LVU1640
 6921 0294 94F8BA30 		ldrb	r3, [r4, #186]	@ zero_extendqisi2
 194:../../libDaisy//src/hid/midi.h ****                                 event_q_.Write(incoming_message_);
 6922              		.loc 2 194 41 view .LVU1641
 6923 0298 2A71     		strb	r2, [r5, #4]
 6924              	.LVL531:
 194:../../libDaisy//src/hid/midi.h ****                                 event_q_.Write(incoming_message_);
 6925              		.loc 2 194 41 view .LVU1642
 6926 029a 9022     		movs	r2, #144
 191:../../libDaisy//src/hid/midi.h **** 
 6927              		.loc 2 191 46 view .LVU1643
 6928 029c 1940     		ands	r1, r1, r3
 6929              	.LVL532:
 190:../../libDaisy//src/hid/midi.h ****                                         byte & kSystemRealTimeMask);
ARM GAS  /var/folders/1y/_321xjh9623c014x9_qw12rr0000gn/T//cc1ZQ1Ea.s 			page 199


 6930              		.loc 2 190 37 view .LVU1644
 6931 029e 85F89410 		strb	r1, [r5, #148]
 6932 02a2 05F10801 		add	r1, r5, #8
 6933 02a6 FFF7FEFF 		bl	memcpy
 6934              	.LVL533:
 6935              	.LBB1639:
 6936              	.LBI1639:
  44:../../libDaisy//src/util/ringbuffer.h ****     {
 6937              		.loc 20 44 17 is_stmt 1 view .LVU1645
 6938              	.L434:
 6939              	.LBB1640:
  46:../../libDaisy//src/util/ringbuffer.h ****             ;
 6940              		.loc 20 46 24 view .LVU1646
 6941              	.LBB1641:
 6942              	.LBI1641:
  30:../../libDaisy//src/util/ringbuffer.h ****     {
 6943              		.loc 20 30 19 view .LVU1647
 6944              	.LBB1642:
  32:../../libDaisy//src/util/ringbuffer.h ****     }
 6945              		.loc 20 32 17 is_stmt 0 view .LVU1648
 6946 02aa D4F89830 		ldr	r3, [r4, #152]
  32:../../libDaisy//src/util/ringbuffer.h ****     }
 6947              		.loc 20 32 29 view .LVU1649
 6948 02ae D4F89C20 		ldr	r2, [r4, #156]
 6949              	.LVL534:
  32:../../libDaisy//src/util/ringbuffer.h ****     }
 6950              		.loc 20 32 40 view .LVU1650
 6951 02b2 013B     		subs	r3, r3, #1
 6952 02b4 9B1A     		subs	r3, r3, r2
  32:../../libDaisy//src/util/ringbuffer.h ****     }
 6953              		.loc 20 32 47 view .LVU1651
 6954 02b6 DBB2     		uxtb	r3, r3
 6955              	.LBE1642:
 6956              	.LBE1641:
  46:../../libDaisy//src/util/ringbuffer.h ****             ;
 6957              		.loc 20 46 24 view .LVU1652
 6958 02b8 002B     		cmp	r3, #0
 6959 02ba F6D0     		beq	.L434
 6960 02bc CEE7     		b	.L483
 6961              	.LBE1640:
 6962              	.LBE1639:
 6963              		.cfi_endproc
 6964              	.LFE5286:
 6966 02be 00BF     		.section	.text.startup.main,"ax",%progbits
 6967              		.align	1
 6968              		.p2align 2,,3
 6969              		.global	main
 6970              		.syntax unified
 6971              		.thumb
 6972              		.thumb_func
 6974              	main:
 6975              	.LFB4827:
  68:DubbyPlayground.cpp **** 
  69:DubbyPlayground.cpp **** 
  70:DubbyPlayground.cpp **** int main(void)
  71:DubbyPlayground.cpp **** {
 6976              		.loc 13 71 1 is_stmt 1 view -0
ARM GAS  /var/folders/1y/_321xjh9623c014x9_qw12rr0000gn/T//cc1ZQ1Ea.s 			page 200


 6977              		.cfi_startproc
 6978              		@ Volatile: function does not return.
 6979              		@ args = 0, pretend = 0, frame = 0
 6980              		@ frame_needed = 0, uses_anonymous_args = 0
  72:DubbyPlayground.cpp **** 	dubby.seed.Init();
 6981              		.loc 13 72 2 view .LVU1654
  71:DubbyPlayground.cpp **** 	dubby.seed.Init();
 6982              		.loc 13 71 1 is_stmt 0 view .LVU1655
 6983 0000 08B5     		push	{r3, lr}
 6984              		.cfi_def_cfa_offset 8
 6985              		.cfi_offset 3, -8
 6986              		.cfi_offset 14, -4
 6987              		.loc 13 72 17 view .LVU1656
 6988 0002 0021     		movs	r1, #0
 6989 0004 2C48     		ldr	r0, .L502
 6990 0006 FFF7FEFF 		bl	_ZN5daisy9DaisySeed4InitEb
 6991              	.LVL535:
  73:DubbyPlayground.cpp **** 	// dubby.seed.StartLog(true);
  74:DubbyPlayground.cpp **** 
  75:DubbyPlayground.cpp ****     dubby.Init();
 6992              		.loc 13 75 5 is_stmt 1 view .LVU1657
 6993              		.loc 13 75 15 is_stmt 0 view .LVU1658
 6994 000a 2C48     		ldr	r0, .L502+4
 6995 000c 2C4C     		ldr	r4, .L502+8
 6996 000e FFF7FEFF 		bl	_ZN5daisy5Dubby4InitEv
 6997              	.LVL536:
  76:DubbyPlayground.cpp ****     
  77:DubbyPlayground.cpp **** 	dubby.seed.SetAudioBlockSize(AUDIO_BLOCK_SIZE); // number of samples handled per callback
 6998              		.loc 13 77 2 is_stmt 1 view .LVU1659
 6999              		.loc 13 77 30 is_stmt 0 view .LVU1660
 7000 0012 8021     		movs	r1, #128
 7001 0014 2848     		ldr	r0, .L502
 7002 0016 FFF7FEFF 		bl	_ZN5daisy9DaisySeed17SetAudioBlockSizeEj
 7003              	.LVL537:
  78:DubbyPlayground.cpp **** 	dubby.seed.SetAudioSampleRate(SaiHandle::Config::SampleRate::SAI_48KHZ);
 7004              		.loc 13 78 2 is_stmt 1 view .LVU1661
 7005              		.loc 13 78 31 is_stmt 0 view .LVU1662
 7006 001a 0321     		movs	r1, #3
 7007 001c 2648     		ldr	r0, .L502
 7008 001e FFF7FEFF 		bl	_ZN5daisy9DaisySeed18SetAudioSampleRateENS_9SaiHandle6Config10SampleRateE
 7009              	.LVL538:
  79:DubbyPlayground.cpp ****     dubby.ProcessAllControls();
 7010              		.loc 13 79 5 is_stmt 1 view .LVU1663
 7011              		.loc 13 79 29 is_stmt 0 view .LVU1664
 7012 0022 A4F51040 		sub	r0, r4, #36864
 7013 0026 FFF7FEFF 		bl	_ZN5daisy5Dubby18ProcessAllControlsEv
 7014              	.LVL539:
  80:DubbyPlayground.cpp **** 
  81:DubbyPlayground.cpp ****     dubby.DrawLogo(); 
 7015              		.loc 13 81 5 is_stmt 1 view .LVU1665
 7016              		.loc 13 81 19 is_stmt 0 view .LVU1666
 7017 002a A4F51040 		sub	r0, r4, #36864
 7018 002e FFF7FEFF 		bl	_ZN5daisy5Dubby8DrawLogoEv
 7019              	.LVL540:
  82:DubbyPlayground.cpp ****     System::Delay(1000);
 7020              		.loc 13 82 5 is_stmt 1 view .LVU1667
 7021              		.loc 13 82 18 is_stmt 0 view .LVU1668
ARM GAS  /var/folders/1y/_321xjh9623c014x9_qw12rr0000gn/T//cc1ZQ1Ea.s 			page 201


 7022 0032 4FF47A70 		mov	r0, #1000
 7023 0036 FFF7FEFF 		bl	_ZN5daisy6System5DelayEm
 7024              	.LVL541:
  83:DubbyPlayground.cpp **** 	dubby.seed.StartAudio(AudioCallback);
 7025              		.loc 13 83 2 is_stmt 1 view .LVU1669
 7026              		.loc 13 83 23 is_stmt 0 view .LVU1670
 7027 003a 2249     		ldr	r1, .L502+12
 7028 003c 1E48     		ldr	r0, .L502
 7029 003e FFF7FEFF 		bl	_ZN5daisy9DaisySeed10StartAudioEPFvPKPKfPPfjE
 7030              	.LVL542:
  84:DubbyPlayground.cpp ****     dubby.UpdateMenu(0, false);
 7031              		.loc 13 84 5 is_stmt 1 view .LVU1671
 7032              		.loc 13 84 21 is_stmt 0 view .LVU1672
 7033 0042 0022     		movs	r2, #0
 7034 0044 A4F51040 		sub	r0, r4, #36864
 7035 0048 1146     		mov	r1, r2
 7036 004a FFF7FEFF 		bl	_ZN5daisy5Dubby10UpdateMenuEib
 7037              	.LVL543:
  85:DubbyPlayground.cpp ****     
  86:DubbyPlayground.cpp ****     dubby.midi.StartReceive();
 7038              		.loc 13 86 5 is_stmt 1 view .LVU1673
 7039              	.LBB1673:
 7040              	.LBI1673:
 107:../../libDaisy//src/hid/midi.h **** 
 7041              		.loc 2 107 10 view .LVU1674
 7042              	.LBB1674:
 7043              	.LBB1675:
 7044              	.LBI1675:
  61:../../libDaisy//src/hid/midi.h ****     inline size_t  Readable() { return uart_.Readable(); }
 7045              		.loc 2 61 20 view .LVU1675
 7046              	.LBB1676:
  61:../../libDaisy//src/hid/midi.h ****     inline size_t  Readable() { return uart_.Readable(); }
 7047              		.loc 2 61 32 view .LVU1676
  61:../../libDaisy//src/hid/midi.h ****     inline size_t  Readable() { return uart_.Readable(); }
 7048              		.loc 2 61 45 is_stmt 0 view .LVU1677
 7049 004e 04F61410 		addw	r0, r4, #2324
 7050 0052 FFF7FEFF 		bl	_ZN5daisy11UartHandler7StartRxEv
 7051              	.LVL544:
 7052              	.L493:
  61:../../libDaisy//src/hid/midi.h ****     inline size_t  Readable() { return uart_.Readable(); }
 7053              		.loc 2 61 45 view .LVU1678
 7054              	.LBE1676:
 7055              	.LBE1675:
 7056              	.LBE1674:
 7057              	.LBE1673:
  87:DubbyPlayground.cpp **** 
  88:DubbyPlayground.cpp **** 	while(1) { 
 7058              		.loc 13 88 2 is_stmt 1 view .LVU1679
  89:DubbyPlayground.cpp ****         dubby.ProcessAllControls();
 7059              		.loc 13 89 9 view .LVU1680
 7060              		.loc 13 89 33 is_stmt 0 view .LVU1681
 7061 0056 1948     		ldr	r0, .L502+4
 7062 0058 FFF7FEFF 		bl	_ZN5daisy5Dubby18ProcessAllControlsEv
 7063              	.LVL545:
  90:DubbyPlayground.cpp ****         dubby.UpdateDisplay();
 7064              		.loc 13 90 9 is_stmt 1 view .LVU1682
 7065              		.loc 13 90 28 is_stmt 0 view .LVU1683
ARM GAS  /var/folders/1y/_321xjh9623c014x9_qw12rr0000gn/T//cc1ZQ1Ea.s 			page 202


 7066 005c 1748     		ldr	r0, .L502+4
 7067 005e FFF7FEFF 		bl	_ZN5daisy5Dubby13UpdateDisplayEv
 7068              	.LVL546:
  91:DubbyPlayground.cpp **** 
  92:DubbyPlayground.cpp ****         dubby.midi.Listen();
 7069              		.loc 13 92 9 is_stmt 1 view .LVU1684
 7070              	.LBB1677:
 7071              	.LBI1677:
 110:../../libDaisy//src/hid/midi.h ****     {
 7072              		.loc 2 110 10 view .LVU1685
 7073              	.LBB1678:
 113:../../libDaisy//src/hid/midi.h ****         while(transport_.Readable())
 7074              		.loc 2 113 29 is_stmt 0 view .LVU1686
 7075 0062 FFF7FEFF 		bl	_ZN5daisy6System6GetNowEv
 7076              	.LVL547:
 7077 0066 0546     		mov	r5, r0
 7078              	.LVL548:
 113:../../libDaisy//src/hid/midi.h ****         while(transport_.Readable())
 7079              		.loc 2 113 29 view .LVU1687
 7080 0068 07E0     		b	.L491
 7081              	.LVL549:
 7082              	.L501:
 116:../../libDaisy//src/hid/midi.h ****             Parse(transport_.Rx());
 7083              		.loc 2 116 24 view .LVU1688
 7084 006a C4F80459 		str	r5, [r4, #2308]
 7085              	.LVL550:
 7086              	.LBB1679:
 7087              	.LBI1679:
  63:../../libDaisy//src/hid/midi.h ****     inline bool    RxActive() { return uart_.RxActive(); }
 7088              		.loc 2 63 20 is_stmt 1 view .LVU1689
 7089              	.LBB1680:
  63:../../libDaisy//src/hid/midi.h ****     inline bool    RxActive() { return uart_.RxActive(); }
 7090              		.loc 2 63 27 view .LVU1690
  63:../../libDaisy//src/hid/midi.h ****     inline bool    RxActive() { return uart_.RxActive(); }
 7091              		.loc 2 63 45 is_stmt 0 view .LVU1691
 7092 006e FFF7FEFF 		bl	_ZN5daisy11UartHandler5PopRxEv
 7093              	.LVL551:
  63:../../libDaisy//src/hid/midi.h ****     inline bool    RxActive() { return uart_.RxActive(); }
 7094              		.loc 2 63 45 view .LVU1692
 7095 0072 0146     		mov	r1, r0
 7096              	.LBE1680:
 7097              	.LBE1679:
 117:../../libDaisy//src/hid/midi.h ****         }
 7098              		.loc 2 117 18 view .LVU1693
 7099 0074 1448     		ldr	r0, .L502+16
 7100              	.LVL552:
 117:../../libDaisy//src/hid/midi.h ****         }
 7101              		.loc 2 117 18 view .LVU1694
 7102 0076 FFF7FEFF 		bl	_ZN5daisy11MidiHandlerINS_17MidiUartTransportEE5ParseEh
 7103              	.LVL553:
 7104              	.L491:
 114:../../libDaisy//src/hid/midi.h ****         {
 7105              		.loc 2 114 34 is_stmt 1 view .LVU1695
 7106              	.LBB1682:
 7107              	.LBI1682:
  62:../../libDaisy//src/hid/midi.h ****     inline uint8_t Rx() { return uart_.PopRx(); }
 7108              		.loc 2 62 20 view .LVU1696
ARM GAS  /var/folders/1y/_321xjh9623c014x9_qw12rr0000gn/T//cc1ZQ1Ea.s 			page 203


 7109              	.LBB1683:
  62:../../libDaisy//src/hid/midi.h ****     inline uint8_t Rx() { return uart_.PopRx(); }
 7110              		.loc 2 62 33 view .LVU1697
  62:../../libDaisy//src/hid/midi.h ****     inline uint8_t Rx() { return uart_.PopRx(); }
 7111              		.loc 2 62 54 is_stmt 0 view .LVU1698
 7112 007a 1448     		ldr	r0, .L502+20
 7113              	.LVL554:
  62:../../libDaisy//src/hid/midi.h ****     inline uint8_t Rx() { return uart_.PopRx(); }
 7114              		.loc 2 62 54 view .LVU1699
 7115 007c FFF7FEFF 		bl	_ZN5daisy11UartHandler8ReadableEv
 7116              	.LVL555:
  62:../../libDaisy//src/hid/midi.h ****     inline uint8_t Rx() { return uart_.PopRx(); }
 7117              		.loc 2 62 54 view .LVU1700
 7118 0080 0346     		mov	r3, r0
 7119              	.LBE1683:
 7120              	.LBE1682:
 7121              	.LBB1684:
 7122              	.LBB1681:
  63:../../libDaisy//src/hid/midi.h ****     inline bool    RxActive() { return uart_.RxActive(); }
 7123              		.loc 2 63 45 view .LVU1701
 7124 0082 1248     		ldr	r0, .L502+20
 7125              	.LBE1681:
 7126              	.LBE1684:
 114:../../libDaisy//src/hid/midi.h ****         {
 7127              		.loc 2 114 34 view .LVU1702
 7128 0084 002B     		cmp	r3, #0
 7129 0086 F0D1     		bne	.L501
 7130              	.LVL556:
 7131              	.L490:
 114:../../libDaisy//src/hid/midi.h ****         {
 7132              		.loc 2 114 34 view .LVU1703
 7133              	.LBE1678:
 7134              	.LBE1677:
  93:DubbyPlayground.cpp ****         // Handle MIDI Events
  94:DubbyPlayground.cpp ****         while(dubby.midi.HasEvents())
 7135              		.loc 13 94 9 is_stmt 1 view .LVU1704
 7136              		.loc 13 94 35 view .LVU1705
 7137              	.LBB1685:
 7138              	.LBI1685:
 134:../../libDaisy//src/hid/midi.h **** 
 7139              		.loc 2 134 10 view .LVU1706
 7140              	.LBB1686:
 7141              	.LBI1686:
  36:../../libDaisy//src/util/ringbuffer.h **** 
 7142              		.loc 20 36 19 view .LVU1707
 7143              	.LBB1687:
  36:../../libDaisy//src/util/ringbuffer.h **** 
 7144              		.loc 20 36 46 is_stmt 0 view .LVU1708
 7145 0088 D4F80039 		ldr	r3, [r4, #2304]
  36:../../libDaisy//src/util/ringbuffer.h **** 
 7146              		.loc 20 36 59 view .LVU1709
 7147 008c D4F8FC28 		ldr	r2, [r4, #2300]
 7148              	.LVL557:
  36:../../libDaisy//src/util/ringbuffer.h **** 
 7149              		.loc 20 36 57 view .LVU1710
 7150 0090 9B1A     		subs	r3, r3, r2
  36:../../libDaisy//src/util/ringbuffer.h **** 
ARM GAS  /var/folders/1y/_321xjh9623c014x9_qw12rr0000gn/T//cc1ZQ1Ea.s 			page 204


 7151              		.loc 20 36 72 view .LVU1711
 7152 0092 DBB2     		uxtb	r3, r3
 7153              	.LBE1687:
 7154              	.LBE1686:
 7155              	.LBE1685:
 7156              		.loc 13 94 35 view .LVU1712
 7157 0094 002B     		cmp	r3, #0
 7158 0096 DED0     		beq	.L493
 7159              	.L494:
 7160              	.LBB1689:
 7161              	.LBB1690:
 7162              	.LBB1691:
  59:../../libDaisy//src/util/ringbuffer.h ****     }
  60:../../libDaisy//src/util/ringbuffer.h **** 
  61:../../libDaisy//src/util/ringbuffer.h ****     /** Reads the first available element from the ring buffer
  62:../../libDaisy//src/util/ringbuffer.h ****     \return read value
  63:../../libDaisy//src/util/ringbuffer.h ****      */
  64:../../libDaisy//src/util/ringbuffer.h ****     inline T Read()
  65:../../libDaisy//src/util/ringbuffer.h ****     {
  66:../../libDaisy//src/util/ringbuffer.h ****         while(!readable())
 7163              		.loc 20 66 24 is_stmt 1 view .LVU1713
 7164              	.LVL558:
 7165              	.LBB1692:
 7166              	.LBI1692:
  36:../../libDaisy//src/util/ringbuffer.h **** 
 7167              		.loc 20 36 19 view .LVU1714
 7168              	.LBB1693:
  36:../../libDaisy//src/util/ringbuffer.h **** 
 7169              		.loc 20 36 46 is_stmt 0 view .LVU1715
 7170 0098 D4F80039 		ldr	r3, [r4, #2304]
  36:../../libDaisy//src/util/ringbuffer.h **** 
 7171              		.loc 20 36 59 view .LVU1716
 7172 009c D4F8FC28 		ldr	r2, [r4, #2300]
 7173              	.LVL559:
  36:../../libDaisy//src/util/ringbuffer.h **** 
 7174              		.loc 20 36 57 view .LVU1717
 7175 00a0 9B1A     		subs	r3, r3, r2
  36:../../libDaisy//src/util/ringbuffer.h **** 
 7176              		.loc 20 36 72 view .LVU1718
 7177 00a2 DBB2     		uxtb	r3, r3
 7178              	.LBE1693:
 7179              	.LBE1692:
 7180              		.loc 20 66 24 view .LVU1719
 7181 00a4 002B     		cmp	r3, #0
 7182 00a6 F7D0     		beq	.L494
 7183              	.LVL560:
 7184              	.LBB1694:
 7185              	.LBI1694:
  67:../../libDaisy//src/util/ringbuffer.h ****             ;
  68:../../libDaisy//src/util/ringbuffer.h ****         return ImmediateRead();
  69:../../libDaisy//src/util/ringbuffer.h ****     }
  70:../../libDaisy//src/util/ringbuffer.h **** 
  71:../../libDaisy//src/util/ringbuffer.h ****     /** Reads next element from ring buffer immediately
  72:../../libDaisy//src/util/ringbuffer.h ****     \return read value
  73:../../libDaisy//src/util/ringbuffer.h ****      */
  74:../../libDaisy//src/util/ringbuffer.h ****     inline T ImmediateRead()
 7186              		.loc 20 74 14 is_stmt 1 view .LVU1720
ARM GAS  /var/folders/1y/_321xjh9623c014x9_qw12rr0000gn/T//cc1ZQ1Ea.s 			page 205


 7187              	.LBB1695:
  75:../../libDaisy//src/util/ringbuffer.h ****     {
  76:../../libDaisy//src/util/ringbuffer.h ****         size_t r      = read_ptr_;
 7188              		.loc 20 76 16 is_stmt 0 view .LVU1721
 7189 00a8 D4F8FC38 		ldr	r3, [r4, #2300]
 7190              	.LVL561:
  77:../../libDaisy//src/util/ringbuffer.h ****         T      result = buffer_[r];
  78:../../libDaisy//src/util/ringbuffer.h ****         read_ptr_     = (r + 1) % size;
 7191              		.loc 20 78 28 view .LVU1722
 7192 00ac 0133     		adds	r3, r3, #1
 7193              		.loc 20 78 33 view .LVU1723
 7194 00ae DBB2     		uxtb	r3, r3
 7195              		.loc 20 78 23 view .LVU1724
 7196 00b0 C4F8FC38 		str	r3, [r4, #2300]
 7197              	.LVL562:
 7198              		.loc 20 78 23 view .LVU1725
 7199              	.LBE1695:
 7200              	.LBE1694:
 7201              	.LBE1691:
 7202              	.LBE1690:
 7203              	.LBE1689:
 7204              		.loc 13 94 9 is_stmt 1 view .LVU1726
 7205              		.loc 13 94 35 view .LVU1727
 7206              	.LBB1696:
 134:../../libDaisy//src/hid/midi.h **** 
 7207              		.loc 2 134 10 view .LVU1728
 7208              	.LBB1688:
  36:../../libDaisy//src/util/ringbuffer.h **** 
 7209              		.loc 20 36 19 view .LVU1729
 7210 00b4 E8E7     		b	.L490
 7211              	.L503:
 7212 00b6 00BF     		.align	2
 7213              	.L502:
 7214 00b8 1C000000 		.word	dubby+28
 7215 00bc 00000000 		.word	dubby
 7216 00c0 00900000 		.word	dubby+36864
 7217 00c4 00000000 		.word	_Z13AudioCallbackPKPKfPPfj
 7218 00c8 64080000 		.word	dubby+2148
 7219 00cc 14990000 		.word	dubby+39188
 7220              	.LBE1688:
 7221              	.LBE1696:
 7222              		.cfi_endproc
 7223              	.LFE4827:
 7225              		.section	.text.startup._GLOBAL__sub_I_dubby,"ax",%progbits
 7226              		.align	1
 7227              		.p2align 2,,3
 7228              		.syntax unified
 7229              		.thumb
 7230              		.thumb_func
 7232              	_GLOBAL__sub_I_dubby:
 7233              	.LFB5449:
  95:DubbyPlayground.cpp ****         {
  96:DubbyPlayground.cpp ****             HandleMidiMessage(dubby.midi.PopEvent());
  97:DubbyPlayground.cpp ****         }
  98:DubbyPlayground.cpp **** 	}
  99:DubbyPlayground.cpp **** }
 7234              		.loc 13 99 1 view -0
ARM GAS  /var/folders/1y/_321xjh9623c014x9_qw12rr0000gn/T//cc1ZQ1Ea.s 			page 206


 7235              		.cfi_startproc
 7236              		@ args = 0, pretend = 0, frame = 0
 7237              		@ frame_needed = 0, uses_anonymous_args = 0
 7238              	.LBB1699:
 7239              	.LBI1699:
 7240              		.loc 13 99 1 view .LVU1731
 7241              	.LVL563:
 7242              		.loc 13 99 1 is_stmt 0 view .LVU1732
 7243              	.LBE1699:
 7244 0000 10B5     		push	{r4, lr}
 7245              		.cfi_def_cfa_offset 8
 7246              		.cfi_offset 4, -8
 7247              		.cfi_offset 14, -4
 7248              	.LBB1702:
 7249              	.LBB1700:
   8:DubbyPlayground.cpp **** 
 7250              		.loc 13 8 7 view .LVU1733
 7251 0002 054C     		ldr	r4, .L506
 7252 0004 2046     		mov	r0, r4
 7253 0006 FFF7FEFF 		bl	_ZN5daisy5DubbyC1Ev
 7254              	.LVL564:
 7255 000a 2046     		mov	r0, r4
 7256 000c 034A     		ldr	r2, .L506+4
 7257 000e 0449     		ldr	r1, .L506+8
 7258              	.LBE1700:
 7259              	.LBE1702:
 7260              		.loc 13 99 1 view .LVU1734
 7261 0010 BDE81040 		pop	{r4, lr}
 7262              		.cfi_restore 14
 7263              		.cfi_restore 4
 7264              		.cfi_def_cfa_offset 0
 7265              	.LBB1703:
 7266              	.LBB1701:
   8:DubbyPlayground.cpp **** 
 7267              		.loc 13 8 7 view .LVU1735
 7268 0014 FFF7FEBF 		b	__aeabi_atexit
 7269              	.LVL565:
 7270              	.L507:
 7271              		.align	2
 7272              	.L506:
 7273 0018 00000000 		.word	dubby
 7274 001c 00000000 		.word	__dso_handle
 7275 0020 00000000 		.word	_ZN5daisy5DubbyD1Ev
 7276              	.LBE1701:
 7277              	.LBE1703:
 7278              		.cfi_endproc
 7279              	.LFE5449:
 7281              		.section	.init_array,"aw",%init_array
 7282              		.align	2
 7283 0000 00000000 		.word	_GLOBAL__sub_I_dubby(target1)
 7284              		.weak	_ZTVN5daisy11OledDisplayINS_13SSD130xDriverILj128ELj64ENS_24SSD130x4WireSpiTransportEEEEE
 7285              		.section	.rodata._ZTVN5daisy11OledDisplayINS_13SSD130xDriverILj128ELj64ENS_24SSD130x4WireSpiTransp
 7286              		.align	2
 7289              	_ZTVN5daisy11OledDisplayINS_13SSD130xDriverILj128ELj64ENS_24SSD130x4WireSpiTransportEEEEE:
 7290 0000 00000000 		.word	0
 7291 0004 00000000 		.word	0
 7292 0008 00000000 		.word	_ZN5daisy11OledDisplayINS_13SSD130xDriverILj128ELj64ENS_24SSD130x4WireSpiTransportEEEED1Ev
ARM GAS  /var/folders/1y/_321xjh9623c014x9_qw12rr0000gn/T//cc1ZQ1Ea.s 			page 207


 7293 000c 00000000 		.word	_ZN5daisy11OledDisplayINS_13SSD130xDriverILj128ELj64ENS_24SSD130x4WireSpiTransportEEEED0Ev
 7294 0010 00000000 		.word	_ZNK5daisy11OledDisplayINS_13SSD130xDriverILj128ELj64ENS_24SSD130x4WireSpiTransportEEEE6Heig
 7295 0014 00000000 		.word	_ZNK5daisy11OledDisplayINS_13SSD130xDriverILj128ELj64ENS_24SSD130x4WireSpiTransportEEEE5Widt
 7296 0018 00000000 		.word	_ZN5daisy11OledDisplayINS_13SSD130xDriverILj128ELj64ENS_24SSD130x4WireSpiTransportEEEE4FillE
 7297 001c 00000000 		.word	_ZN5daisy11OledDisplayINS_13SSD130xDriverILj128ELj64ENS_24SSD130x4WireSpiTransportEEEE9DrawP
 7298 0020 00000000 		.word	_ZN5daisy25OneBitGraphicsDisplayImplINS_11OledDisplayINS_13SSD130xDriverILj128ELj64ENS_24SSD
 7299 0024 00000000 		.word	_ZN5daisy25OneBitGraphicsDisplayImplINS_11OledDisplayINS_13SSD130xDriverILj128ELj64ENS_24SSD
 7300 0028 00000000 		.word	_ZN5daisy25OneBitGraphicsDisplayImplINS_11OledDisplayINS_13SSD130xDriverILj128ELj64ENS_24SSD
 7301 002c 00000000 		.word	_ZN5daisy25OneBitGraphicsDisplayImplINS_11OledDisplayINS_13SSD130xDriverILj128ELj64ENS_24SSD
 7302 0030 00000000 		.word	_ZN5daisy25OneBitGraphicsDisplayImplINS_11OledDisplayINS_13SSD130xDriverILj128ELj64ENS_24SSD
 7303 0034 00000000 		.word	_ZN5daisy25OneBitGraphicsDisplayImplINS_11OledDisplayINS_13SSD130xDriverILj128ELj64ENS_24SSD
 7304 0038 00000000 		.word	_ZN5daisy11OledDisplayINS_13SSD130xDriverILj128ELj64ENS_24SSD130x4WireSpiTransportEEEE6Updat
 7305              		.global	dubby
 7306              		.section	.rodata
 7307              		.align	2
 7308              		.set	.LANCHOR0,. + 0
 7309              	.LC13:
 7310 0000 00000000 		.word	.LC0
 7311 0004 08000000 		.word	.LC1
 7312 0008 10000000 		.word	.LC2
 7313              	.LC14:
 7314 000c 18000000 		.word	.LC4
 7315 0010 20000000 		.word	.LC5
 7316 0014 28000000 		.word	.LC6
 7317 0018 34000000 		.word	.LC7
 7318              	.LC9:
 7319 001c 08000000 		.word	8
 7320 0020 37000000 		.word	55
 7321 0024 32000000 		.word	50
 7322 0028 37000000 		.word	55
 7323 002c 5C000000 		.word	92
 7324 0030 37000000 		.word	55
 7325              	.LC10:
 7326 0034 00000000 		.word	0
 7327 0038 35000000 		.word	53
 7328 003c 2B000000 		.word	43
 7329 0040 3F000000 		.word	63
 7330 0044 2B000000 		.word	43
 7331 0048 35000000 		.word	53
 7332 004c 55000000 		.word	85
 7333 0050 3F000000 		.word	63
 7334 0054 55000000 		.word	85
 7335 0058 35000000 		.word	53
 7336 005c 7F000000 		.word	127
 7337 0060 3F000000 		.word	63
 7338              	.LC11:
 7339 0064 01       		.byte	1
 7340 0065 07       		.byte	7
 7341 0066 0000     		.space	2
 7342              	.LC12:
 7343 0068 01       		.byte	1
 7344 0069 06       		.byte	6
 7345 006a 0000     		.space	2
 7346              	.LC15:
 7347 006c 0000     		.ascii	"\000\000"
 7348 006e 00       		.space	1
 7349              		.section	.bss.dubby,"aw",%nobits
ARM GAS  /var/folders/1y/_321xjh9623c014x9_qw12rr0000gn/T//cc1ZQ1Ea.s 			page 208


 7350              		.align	2
 7353              	dubby:
 7354 0000 00000000 		.space	39220
 7354      00000000 
 7354      00000000 
 7354      00000000 
 7354      00000000 
 7355              		.text
 7356              	.Letext0:
 7357              		.file 21 "/Library/DaisyToolchain/0.2.0/arm/arm-none-eabi/include/machine/_default_types.h"
 7358              		.file 22 "/Library/DaisyToolchain/0.2.0/arm/arm-none-eabi/include/sys/_stdint.h"
 7359              		.file 23 "/Library/DaisyToolchain/0.2.0/arm/arm-none-eabi/include/stdint.h"
 7360              		.file 24 "/Library/DaisyToolchain/0.2.0/arm/lib/gcc/arm-none-eabi/10.3.1/include/stddef.h"
 7361              		.file 25 "/Library/DaisyToolchain/0.2.0/arm/arm-none-eabi/include/c++/10.3.1/bits/std_abs.h"
 7362              		.file 26 "/Library/DaisyToolchain/0.2.0/arm/arm-none-eabi/include/c++/10.3.1/cstdint"
 7363              		.file 27 "/Library/DaisyToolchain/0.2.0/arm/arm-none-eabi/include/c++/10.3.1/cstdlib"
 7364              		.file 28 "/Library/DaisyToolchain/0.2.0/arm/arm-none-eabi/include/c++/10.3.1/type_traits"
 7365              		.file 29 "/Library/DaisyToolchain/0.2.0/arm/arm-none-eabi/include/c++/10.3.1/debug/debug.h"
 7366              		.file 30 "/Library/DaisyToolchain/0.2.0/arm/arm-none-eabi/include/c++/10.3.1/cwchar"
 7367              		.file 31 "/Library/DaisyToolchain/0.2.0/arm/arm-none-eabi/include/c++/10.3.1/bits/stl_pair.h"
 7368              		.file 32 "/Library/DaisyToolchain/0.2.0/arm/arm-none-eabi/include/c++/10.3.1/bits/exception_ptr.h"
 7369              		.file 33 "/Library/DaisyToolchain/0.2.0/arm/arm-none-eabi/include/c++/10.3.1/arm-none-eabi/thumb/v
 7370              		.file 34 "/Library/DaisyToolchain/0.2.0/arm/arm-none-eabi/include/c++/10.3.1/clocale"
 7371              		.file 35 "/Library/DaisyToolchain/0.2.0/arm/arm-none-eabi/include/c++/10.3.1/cstdio"
 7372              		.file 36 "/Library/DaisyToolchain/0.2.0/arm/arm-none-eabi/include/c++/10.3.1/bits/basic_string.h"
 7373              		.file 37 "/Library/DaisyToolchain/0.2.0/arm/arm-none-eabi/include/c++/10.3.1/bits/stl_iterator.h"
 7374              		.file 38 "/Library/DaisyToolchain/0.2.0/arm/arm-none-eabi/include/c++/10.3.1/cstring"
 7375              		.file 39 "/Library/DaisyToolchain/0.2.0/arm/arm-none-eabi/include/c++/10.3.1/bits/algorithmfwd.h"
 7376              		.file 40 "/Library/DaisyToolchain/0.2.0/arm/arm-none-eabi/include/c++/10.3.1/cstdarg"
 7377              		.file 41 "/Library/DaisyToolchain/0.2.0/arm/arm-none-eabi/include/c++/10.3.1/bits/predefined_ops.h
 7378              		.file 42 "/Library/DaisyToolchain/0.2.0/arm/arm-none-eabi/include/sys/_types.h"
 7379              		.file 43 "/Library/DaisyToolchain/0.2.0/arm/arm-none-eabi/include/sys/reent.h"
 7380              		.file 44 "/Library/DaisyToolchain/0.2.0/arm/arm-none-eabi/include/sys/lock.h"
 7381              		.file 45 "/Library/DaisyToolchain/0.2.0/arm/arm-none-eabi/include/math.h"
 7382              		.file 46 "/Library/DaisyToolchain/0.2.0/arm/arm-none-eabi/include/stdlib.h"
 7383              		.file 47 "/Library/DaisyToolchain/0.2.0/arm/arm-none-eabi/include/c++/10.3.1/math.h"
 7384              		.file 48 "../../DaisySP//Source/Control/adenv.h"
 7385              		.file 49 "../../DaisySP//Source/Utility/dsp.h"
 7386              		.file 50 "/Library/DaisyToolchain/0.2.0/arm/lib/gcc/arm-none-eabi/10.3.1/include/stdarg.h"
 7387              		.file 51 "/Library/DaisyToolchain/0.2.0/arm/arm-none-eabi/include/wchar.h"
 7388              		.file 52 "/Library/DaisyToolchain/0.2.0/arm/arm-none-eabi/include/locale.h"
 7389              		.file 53 "/Library/DaisyToolchain/0.2.0/arm/arm-none-eabi/include/stdio.h"
 7390              		.file 54 "/Library/DaisyToolchain/0.2.0/arm/arm-none-eabi/include/c++/10.3.1/stdlib.h"
 7391              		.file 55 "/Library/DaisyToolchain/0.2.0/arm/arm-none-eabi/include/string.h"
 7392              		.file 56 "../../libDaisy//src/daisy_core.h"
 7393              		.file 57 "../../libDaisy//src/per/tim.h"
 7394              		.file 58 "../../libDaisy//src/per/sai.h"
 7395              		.file 59 "../../libDaisy//src/hid/MidiEvent.h"
 7396              		.file 60 "../../libDaisy//src/hid/ctrl.h"
 7397              		.file 61 "../../libDaisy//src/hid/gatein.h"
 7398              		.file 62 "../../libDaisy//src/util/wav_format.h"
 7399              		.file 63 "../../libDaisy//src/dev/max11300.h"
 7400              		.file 64 "../../libDaisy//src/per/gpio.h"
 7401              		.file 65 "../../libDaisy//src/dev/sdram.h"
 7402              		.file 66 "../../libDaisy//src/util/oled_fonts.h"
 7403              		.file 67 "../../libDaisy//src/dev/sr_595.h"
 7404              		.file 68 "./bitmaps/bmps.h"
ARM GAS  /var/folders/1y/_321xjh9623c014x9_qw12rr0000gn/T//cc1ZQ1Ea.s 			page 209


 7405              		.file 69 "/Library/DaisyToolchain/0.2.0/arm/arm-none-eabi/include/c++/10.3.1/new"
 7406              		.file 70 "<built-in>"
ARM GAS  /var/folders/1y/_321xjh9623c014x9_qw12rr0000gn/T//cc1ZQ1Ea.s 			page 210


DEFINED SYMBOLS
                            *ABS*:0000000000000000 DubbyPlayground.cpp
/var/folders/1y/_321xjh9623c014x9_qw12rr0000gn/T//cc1ZQ1Ea.s:16     .rodata.str1.4:0000000000000000 $d
/var/folders/1y/_321xjh9623c014x9_qw12rr0000gn/T//cc1ZQ1Ea.s:41     .text._ZN5daisy5DubbyD2Ev:0000000000000000 $t
/var/folders/1y/_321xjh9623c014x9_qw12rr0000gn/T//cc1ZQ1Ea.s:48     .text._ZN5daisy5DubbyD2Ev:0000000000000000 _ZN5daisy5DubbyD2Ev
/var/folders/1y/_321xjh9623c014x9_qw12rr0000gn/T//cc1ZQ1Ea.s:48     .text._ZN5daisy5DubbyD2Ev:0000000000000000 _ZN5daisy5DubbyD1Ev
/var/folders/1y/_321xjh9623c014x9_qw12rr0000gn/T//cc1ZQ1Ea.s:130    .text._ZN5daisy11OledDisplayINS_13SSD130xDriverILj128ELj64ENS_24SSD130x4WireSpiTransportEEEED2Ev:0000000000000000 $t
/var/folders/1y/_321xjh9623c014x9_qw12rr0000gn/T//cc1ZQ1Ea.s:137    .text._ZN5daisy11OledDisplayINS_13SSD130xDriverILj128ELj64ENS_24SSD130x4WireSpiTransportEEEED2Ev:0000000000000000 _ZN5daisy11OledDisplayINS_13SSD130xDriverILj128ELj64ENS_24SSD130x4WireSpiTransportEEEED2Ev
/var/folders/1y/_321xjh9623c014x9_qw12rr0000gn/T//cc1ZQ1Ea.s:137    .text._ZN5daisy11OledDisplayINS_13SSD130xDriverILj128ELj64ENS_24SSD130x4WireSpiTransportEEEED2Ev:0000000000000000 _ZN5daisy11OledDisplayINS_13SSD130xDriverILj128ELj64ENS_24SSD130x4WireSpiTransportEEEED1Ev
/var/folders/1y/_321xjh9623c014x9_qw12rr0000gn/T//cc1ZQ1Ea.s:162    .text._ZNK5daisy11OledDisplayINS_13SSD130xDriverILj128ELj64ENS_24SSD130x4WireSpiTransportEEEE6HeightEv:0000000000000000 $t
/var/folders/1y/_321xjh9623c014x9_qw12rr0000gn/T//cc1ZQ1Ea.s:169    .text._ZNK5daisy11OledDisplayINS_13SSD130xDriverILj128ELj64ENS_24SSD130x4WireSpiTransportEEEE6HeightEv:0000000000000000 _ZNK5daisy11OledDisplayINS_13SSD130xDriverILj128ELj64ENS_24SSD130x4WireSpiTransportEEEE6HeightEv
/var/folders/1y/_321xjh9623c014x9_qw12rr0000gn/T//cc1ZQ1Ea.s:186    .text._ZNK5daisy11OledDisplayINS_13SSD130xDriverILj128ELj64ENS_24SSD130x4WireSpiTransportEEEE5WidthEv:0000000000000000 $t
/var/folders/1y/_321xjh9623c014x9_qw12rr0000gn/T//cc1ZQ1Ea.s:193    .text._ZNK5daisy11OledDisplayINS_13SSD130xDriverILj128ELj64ENS_24SSD130x4WireSpiTransportEEEE5WidthEv:0000000000000000 _ZNK5daisy11OledDisplayINS_13SSD130xDriverILj128ELj64ENS_24SSD130x4WireSpiTransportEEEE5WidthEv
/var/folders/1y/_321xjh9623c014x9_qw12rr0000gn/T//cc1ZQ1Ea.s:210    .text._ZN5daisy11OledDisplayINS_13SSD130xDriverILj128ELj64ENS_24SSD130x4WireSpiTransportEEEE4FillEb:0000000000000000 $t
/var/folders/1y/_321xjh9623c014x9_qw12rr0000gn/T//cc1ZQ1Ea.s:217    .text._ZN5daisy11OledDisplayINS_13SSD130xDriverILj128ELj64ENS_24SSD130x4WireSpiTransportEEEE4FillEb:0000000000000000 _ZN5daisy11OledDisplayINS_13SSD130xDriverILj128ELj64ENS_24SSD130x4WireSpiTransportEEEE4FillEb
/var/folders/1y/_321xjh9623c014x9_qw12rr0000gn/T//cc1ZQ1Ea.s:249    .text._Z13AudioCallbackPKPKfPPfj:0000000000000000 $t
/var/folders/1y/_321xjh9623c014x9_qw12rr0000gn/T//cc1ZQ1Ea.s:256    .text._Z13AudioCallbackPKPKfPPfj:0000000000000000 _Z13AudioCallbackPKPKfPPfj
/var/folders/1y/_321xjh9623c014x9_qw12rr0000gn/T//cc1ZQ1Ea.s:463    .text._Z13AudioCallbackPKPKfPPfj:00000000000000e8 $d
/var/folders/1y/_321xjh9623c014x9_qw12rr0000gn/T//cc1ZQ1Ea.s:7353   .bss.dubby:0000000000000000 dubby
/var/folders/1y/_321xjh9623c014x9_qw12rr0000gn/T//cc1ZQ1Ea.s:475    .text._ZN5daisy11OledDisplayINS_13SSD130xDriverILj128ELj64ENS_24SSD130x4WireSpiTransportEEEED0Ev:0000000000000000 $t
/var/folders/1y/_321xjh9623c014x9_qw12rr0000gn/T//cc1ZQ1Ea.s:482    .text._ZN5daisy11OledDisplayINS_13SSD130xDriverILj128ELj64ENS_24SSD130x4WireSpiTransportEEEED0Ev:0000000000000000 _ZN5daisy11OledDisplayINS_13SSD130xDriverILj128ELj64ENS_24SSD130x4WireSpiTransportEEEED0Ev
/var/folders/1y/_321xjh9623c014x9_qw12rr0000gn/T//cc1ZQ1Ea.s:522    .text._ZN5daisy11OledDisplayINS_13SSD130xDriverILj128ELj64ENS_24SSD130x4WireSpiTransportEEEE6UpdateEv:0000000000000000 $t
/var/folders/1y/_321xjh9623c014x9_qw12rr0000gn/T//cc1ZQ1Ea.s:529    .text._ZN5daisy11OledDisplayINS_13SSD130xDriverILj128ELj64ENS_24SSD130x4WireSpiTransportEEEE6UpdateEv:0000000000000000 _ZN5daisy11OledDisplayINS_13SSD130xDriverILj128ELj64ENS_24SSD130x4WireSpiTransportEEEE6UpdateEv
/var/folders/1y/_321xjh9623c014x9_qw12rr0000gn/T//cc1ZQ1Ea.s:716    .text._ZN5daisy25OneBitGraphicsDisplayImplINS_11OledDisplayINS_13SSD130xDriverILj128ELj64ENS_24SSD130x4WireSpiTransportEEEEEE11WriteStringEPKc7FontDefb:0000000000000000 $t
/var/folders/1y/_321xjh9623c014x9_qw12rr0000gn/T//cc1ZQ1Ea.s:723    .text._ZN5daisy25OneBitGraphicsDisplayImplINS_11OledDisplayINS_13SSD130xDriverILj128ELj64ENS_24SSD130x4WireSpiTransportEEEEEE11WriteStringEPKc7FontDefb:0000000000000000 _ZN5daisy25OneBitGraphicsDisplayImplINS_11OledDisplayINS_13SSD130xDriverILj128ELj64ENS_24SSD130x4WireSpiTransportEEEEEE11WriteStringEPKc7FontDefb
/var/folders/1y/_321xjh9623c014x9_qw12rr0000gn/T//cc1ZQ1Ea.s:1180   .text._ZN5daisy25OneBitGraphicsDisplayImplINS_11OledDisplayINS_13SSD130xDriverILj128ELj64ENS_24SSD130x4WireSpiTransportEEEEEE11WriteStringEPKc7FontDefb:00000000000001b8 $d
/var/folders/1y/_321xjh9623c014x9_qw12rr0000gn/T//cc1ZQ1Ea.s:1190   .text._ZN5daisy25OneBitGraphicsDisplayImplINS_11OledDisplayINS_13SSD130xDriverILj128ELj64ENS_24SSD130x4WireSpiTransportEEEEEE9WriteCharEc7FontDefb:0000000000000000 $t
/var/folders/1y/_321xjh9623c014x9_qw12rr0000gn/T//cc1ZQ1Ea.s:1197   .text._ZN5daisy25OneBitGraphicsDisplayImplINS_11OledDisplayINS_13SSD130xDriverILj128ELj64ENS_24SSD130x4WireSpiTransportEEEEEE9WriteCharEc7FontDefb:0000000000000000 _ZN5daisy25OneBitGraphicsDisplayImplINS_11OledDisplayINS_13SSD130xDriverILj128ELj64ENS_24SSD130x4WireSpiTransportEEEEEE9WriteCharEc7FontDefb
/var/folders/1y/_321xjh9623c014x9_qw12rr0000gn/T//cc1ZQ1Ea.s:1623   .text._ZN5daisy25OneBitGraphicsDisplayImplINS_11OledDisplayINS_13SSD130xDriverILj128ELj64ENS_24SSD130x4WireSpiTransportEEEEEE9WriteCharEc7FontDefb:0000000000000198 $d
/var/folders/1y/_321xjh9623c014x9_qw12rr0000gn/T//cc1ZQ1Ea.s:1631   .text._ZN5daisy25OneBitGraphicsDisplayImplINS_11OledDisplayINS_13SSD130xDriverILj128ELj64ENS_24SSD130x4WireSpiTransportEEEEEE18WriteStringAlignedEPKcRK7FontDefNS_9RectangleENS_9AlignmentEb:0000000000000000 $t
/var/folders/1y/_321xjh9623c014x9_qw12rr0000gn/T//cc1ZQ1Ea.s:1638   .text._ZN5daisy25OneBitGraphicsDisplayImplINS_11OledDisplayINS_13SSD130xDriverILj128ELj64ENS_24SSD130x4WireSpiTransportEEEEEE18WriteStringAlignedEPKcRK7FontDefNS_9RectangleENS_9AlignmentEb:0000000000000000 _ZN5daisy25OneBitGraphicsDisplayImplINS_11OledDisplayINS_13SSD130xDriverILj128ELj64ENS_24SSD130x4WireSpiTransportEEEEEE18WriteStringAlignedEPKcRK7FontDefNS_9RectangleENS_9AlignmentEb
/var/folders/1y/_321xjh9623c014x9_qw12rr0000gn/T//cc1ZQ1Ea.s:1777   .text._ZN5daisy25OneBitGraphicsDisplayImplINS_11OledDisplayINS_13SSD130xDriverILj128ELj64ENS_24SSD130x4WireSpiTransportEEEEEE18WriteStringAlignedEPKcRK7FontDefNS_9RectangleENS_9AlignmentEb:0000000000000046 $d
/var/folders/1y/_321xjh9623c014x9_qw12rr0000gn/T//cc1ZQ1Ea.s:1786   .text._ZN5daisy25OneBitGraphicsDisplayImplINS_11OledDisplayINS_13SSD130xDriverILj128ELj64ENS_24SSD130x4WireSpiTransportEEEEEE18WriteStringAlignedEPKcRK7FontDefNS_9RectangleENS_9AlignmentEb:0000000000000058 $t
/var/folders/1y/_321xjh9623c014x9_qw12rr0000gn/T//cc1ZQ1Ea.s:2994   .text._ZN5daisy25OneBitGraphicsDisplayImplINS_11OledDisplayINS_13SSD130xDriverILj128ELj64ENS_24SSD130x4WireSpiTransportEEEEEE18WriteStringAlignedEPKcRK7FontDefNS_9RectangleENS_9AlignmentEb:000000000000031c $d
/var/folders/1y/_321xjh9623c014x9_qw12rr0000gn/T//cc1ZQ1Ea.s:3003   .text._ZN5daisy25OneBitGraphicsDisplayImplINS_11OledDisplayINS_13SSD130xDriverILj128ELj64ENS_24SSD130x4WireSpiTransportEEEEEE18WriteStringAlignedEPKcRK7FontDefNS_9RectangleENS_9AlignmentEb:0000000000000324 $t
/var/folders/1y/_321xjh9623c014x9_qw12rr0000gn/T//cc1ZQ1Ea.s:3319   .text._ZN5daisy25OneBitGraphicsDisplayImplINS_11OledDisplayINS_13SSD130xDriverILj128ELj64ENS_24SSD130x4WireSpiTransportEEEEEE18WriteStringAlignedEPKcRK7FontDefNS_9RectangleENS_9AlignmentEb:00000000000003e4 $d
/var/folders/1y/_321xjh9623c014x9_qw12rr0000gn/T//cc1ZQ1Ea.s:3327   .text._ZN5daisy11OledDisplayINS_13SSD130xDriverILj128ELj64ENS_24SSD130x4WireSpiTransportEEEE9DrawPixelEjjb:0000000000000000 $t
/var/folders/1y/_321xjh9623c014x9_qw12rr0000gn/T//cc1ZQ1Ea.s:3334   .text._ZN5daisy11OledDisplayINS_13SSD130xDriverILj128ELj64ENS_24SSD130x4WireSpiTransportEEEE9DrawPixelEjjb:0000000000000000 _ZN5daisy11OledDisplayINS_13SSD130xDriverILj128ELj64ENS_24SSD130x4WireSpiTransportEEEE9DrawPixelEjjb
/var/folders/1y/_321xjh9623c014x9_qw12rr0000gn/T//cc1ZQ1Ea.s:3411   .text._ZN5daisy25OneBitGraphicsDisplayImplINS_11OledDisplayINS_13SSD130xDriverILj128ELj64ENS_24SSD130x4WireSpiTransportEEEEEE8DrawLineEjjjjb:0000000000000000 $t
/var/folders/1y/_321xjh9623c014x9_qw12rr0000gn/T//cc1ZQ1Ea.s:3418   .text._ZN5daisy25OneBitGraphicsDisplayImplINS_11OledDisplayINS_13SSD130xDriverILj128ELj64ENS_24SSD130x4WireSpiTransportEEEEEE8DrawLineEjjjjb:0000000000000000 _ZN5daisy25OneBitGraphicsDisplayImplINS_11OledDisplayINS_13SSD130xDriverILj128ELj64ENS_24SSD130x4WireSpiTransportEEEEEE8DrawLineEjjjjb
/var/folders/1y/_321xjh9623c014x9_qw12rr0000gn/T//cc1ZQ1Ea.s:3703   .text._ZN5daisy25OneBitGraphicsDisplayImplINS_11OledDisplayINS_13SSD130xDriverILj128ELj64ENS_24SSD130x4WireSpiTransportEEEEEE7DrawArcEjjjiib:0000000000000000 $t
/var/folders/1y/_321xjh9623c014x9_qw12rr0000gn/T//cc1ZQ1Ea.s:3710   .text._ZN5daisy25OneBitGraphicsDisplayImplINS_11OledDisplayINS_13SSD130xDriverILj128ELj64ENS_24SSD130x4WireSpiTransportEEEEEE7DrawArcEjjjiib:0000000000000000 _ZN5daisy25OneBitGraphicsDisplayImplINS_11OledDisplayINS_13SSD130xDriverILj128ELj64ENS_24SSD130x4WireSpiTransportEEEEEE7DrawArcEjjjiib
/var/folders/1y/_321xjh9623c014x9_qw12rr0000gn/T//cc1ZQ1Ea.s:4395   .text._ZN5daisy25OneBitGraphicsDisplayImplINS_11OledDisplayINS_13SSD130xDriverILj128ELj64ENS_24SSD130x4WireSpiTransportEEEEEE7DrawArcEjjjiib:0000000000000368 $d
/var/folders/1y/_321xjh9623c014x9_qw12rr0000gn/T//cc1ZQ1Ea.s:4409   .text._ZN5daisy25OneBitGraphicsDisplayImplINS_11OledDisplayINS_13SSD130xDriverILj128ELj64ENS_24SSD130x4WireSpiTransportEEEEEE7DrawArcEjjjiib:0000000000000378 $t
/var/folders/1y/_321xjh9623c014x9_qw12rr0000gn/T//cc1ZQ1Ea.s:4635   .text._ZN5daisy25OneBitGraphicsDisplayImplINS_11OledDisplayINS_13SSD130xDriverILj128ELj64ENS_24SSD130x4WireSpiTransportEEEEEE8DrawRectEjjjjbb:0000000000000000 $t
/var/folders/1y/_321xjh9623c014x9_qw12rr0000gn/T//cc1ZQ1Ea.s:4642   .text._ZN5daisy25OneBitGraphicsDisplayImplINS_11OledDisplayINS_13SSD130xDriverILj128ELj64ENS_24SSD130x4WireSpiTransportEEEEEE8DrawRectEjjjjbb:0000000000000000 _ZN5daisy25OneBitGraphicsDisplayImplINS_11OledDisplayINS_13SSD130xDriverILj128ELj64ENS_24SSD130x4WireSpiTransportEEEEEE8DrawRectEjjjjbb
/var/folders/1y/_321xjh9623c014x9_qw12rr0000gn/T//cc1ZQ1Ea.s:5752   .text._ZN5daisy5DubbyC2Ev:0000000000000000 $t
/var/folders/1y/_321xjh9623c014x9_qw12rr0000gn/T//cc1ZQ1Ea.s:5759   .text._ZN5daisy5DubbyC2Ev:0000000000000000 _ZN5daisy5DubbyC2Ev
/var/folders/1y/_321xjh9623c014x9_qw12rr0000gn/T//cc1ZQ1Ea.s:6082   .text._ZN5daisy5DubbyC2Ev:00000000000000cc $d
/var/folders/1y/_321xjh9623c014x9_qw12rr0000gn/T//cc1ZQ1Ea.s:7289   .rodata._ZTVN5daisy11OledDisplayINS_13SSD130xDriverILj128ELj64ENS_24SSD130x4WireSpiTransportEEEEE:0000000000000000 _ZTVN5daisy11OledDisplayINS_13SSD130xDriverILj128ELj64ENS_24SSD130x4WireSpiTransportEEEEE
/var/folders/1y/_321xjh9623c014x9_qw12rr0000gn/T//cc1ZQ1Ea.s:5759   .text._ZN5daisy5DubbyC2Ev:0000000000000000 _ZN5daisy5DubbyC1Ev
/var/folders/1y/_321xjh9623c014x9_qw12rr0000gn/T//cc1ZQ1Ea.s:6091   .text._Z17HandleMidiMessageN5daisy9MidiEventE:0000000000000000 $t
/var/folders/1y/_321xjh9623c014x9_qw12rr0000gn/T//cc1ZQ1Ea.s:6098   .text._Z17HandleMidiMessageN5daisy9MidiEventE:0000000000000000 _Z17HandleMidiMessageN5daisy9MidiEventE
/var/folders/1y/_321xjh9623c014x9_qw12rr0000gn/T//cc1ZQ1Ea.s:6119   .text._Z14MIDISendNoteOnhhh:0000000000000000 $t
/var/folders/1y/_321xjh9623c014x9_qw12rr0000gn/T//cc1ZQ1Ea.s:6126   .text._Z14MIDISendNoteOnhhh:0000000000000000 _Z14MIDISendNoteOnhhh
/var/folders/1y/_321xjh9623c014x9_qw12rr0000gn/T//cc1ZQ1Ea.s:6207   .text._Z14MIDISendNoteOnhhh:0000000000000034 $d
/var/folders/1y/_321xjh9623c014x9_qw12rr0000gn/T//cc1ZQ1Ea.s:6212   .text._Z15MIDISendNoteOffhh:0000000000000000 $t
ARM GAS  /var/folders/1y/_321xjh9623c014x9_qw12rr0000gn/T//cc1ZQ1Ea.s 			page 211


/var/folders/1y/_321xjh9623c014x9_qw12rr0000gn/T//cc1ZQ1Ea.s:6219   .text._Z15MIDISendNoteOffhh:0000000000000000 _Z15MIDISendNoteOffhh
/var/folders/1y/_321xjh9623c014x9_qw12rr0000gn/T//cc1ZQ1Ea.s:6296   .text._Z15MIDISendNoteOffhh:0000000000000030 $d
/var/folders/1y/_321xjh9623c014x9_qw12rr0000gn/T//cc1ZQ1Ea.s:6301   .text._ZN5daisy11MidiHandlerINS_17MidiUartTransportEE5ParseEh:0000000000000000 $t
/var/folders/1y/_321xjh9623c014x9_qw12rr0000gn/T//cc1ZQ1Ea.s:6308   .text._ZN5daisy11MidiHandlerINS_17MidiUartTransportEE5ParseEh:0000000000000000 _ZN5daisy11MidiHandlerINS_17MidiUartTransportEE5ParseEh
/var/folders/1y/_321xjh9623c014x9_qw12rr0000gn/T//cc1ZQ1Ea.s:6387   .text._ZN5daisy11MidiHandlerINS_17MidiUartTransportEE5ParseEh:0000000000000050 $d
/var/folders/1y/_321xjh9623c014x9_qw12rr0000gn/T//cc1ZQ1Ea.s:6391   .text._ZN5daisy11MidiHandlerINS_17MidiUartTransportEE5ParseEh:0000000000000054 $t
/var/folders/1y/_321xjh9623c014x9_qw12rr0000gn/T//cc1ZQ1Ea.s:6967   .text.startup.main:0000000000000000 $t
/var/folders/1y/_321xjh9623c014x9_qw12rr0000gn/T//cc1ZQ1Ea.s:6974   .text.startup.main:0000000000000000 main
/var/folders/1y/_321xjh9623c014x9_qw12rr0000gn/T//cc1ZQ1Ea.s:7214   .text.startup.main:00000000000000b8 $d
/var/folders/1y/_321xjh9623c014x9_qw12rr0000gn/T//cc1ZQ1Ea.s:7226   .text.startup._GLOBAL__sub_I_dubby:0000000000000000 $t
/var/folders/1y/_321xjh9623c014x9_qw12rr0000gn/T//cc1ZQ1Ea.s:7232   .text.startup._GLOBAL__sub_I_dubby:0000000000000000 _GLOBAL__sub_I_dubby
/var/folders/1y/_321xjh9623c014x9_qw12rr0000gn/T//cc1ZQ1Ea.s:7273   .text.startup._GLOBAL__sub_I_dubby:0000000000000018 $d
/var/folders/1y/_321xjh9623c014x9_qw12rr0000gn/T//cc1ZQ1Ea.s:7282   .init_array:0000000000000000 $d
/var/folders/1y/_321xjh9623c014x9_qw12rr0000gn/T//cc1ZQ1Ea.s:7286   .rodata._ZTVN5daisy11OledDisplayINS_13SSD130xDriverILj128ELj64ENS_24SSD130x4WireSpiTransportEEEEE:0000000000000000 $d
/var/folders/1y/_321xjh9623c014x9_qw12rr0000gn/T//cc1ZQ1Ea.s:7307   .rodata:0000000000000000 $d
/var/folders/1y/_321xjh9623c014x9_qw12rr0000gn/T//cc1ZQ1Ea.s:7350   .bss.dubby:0000000000000000 $d
                           .group:0000000000000000 _ZN5daisy5DubbyD5Ev
                           .group:0000000000000000 _ZN5daisy11OledDisplayINS_13SSD130xDriverILj128ELj64ENS_24SSD130x4WireSpiTransportEEEED5Ev
                           .group:0000000000000000 _ZN5daisy5DubbyC5Ev

UNDEFINED SYMBOLS
memset
_ZN5daisy5Dubby12GetKnobValueENS0_4CtrlE
sqrt
_ZdlPvj
dsy_gpio_write
_ZN5daisy9SpiHandle16BlockingTransmitEPhjm
cosf
sinf
_ZN5daisy11UartHandler6PollTxEPhj
memcpy
_ZN5daisy9DaisySeed4InitEb
_ZN5daisy5Dubby4InitEv
_ZN5daisy9DaisySeed17SetAudioBlockSizeEj
_ZN5daisy9DaisySeed18SetAudioSampleRateENS_9SaiHandle6Config10SampleRateE
_ZN5daisy5Dubby18ProcessAllControlsEv
_ZN5daisy5Dubby8DrawLogoEv
_ZN5daisy6System5DelayEm
_ZN5daisy9DaisySeed10StartAudioEPFvPKPKfPPfjE
_ZN5daisy5Dubby10UpdateMenuEib
_ZN5daisy11UartHandler7StartRxEv
_ZN5daisy5Dubby13UpdateDisplayEv
_ZN5daisy6System6GetNowEv
_ZN5daisy11UartHandler5PopRxEv
_ZN5daisy11UartHandler8ReadableEv
__aeabi_atexit
__dso_handle
