ARM GAS  /var/folders/1y/_321xjh9623c014x9_qw12rr0000gn/T//ccqHcGuP.s 			page 1


   1              		.cpu cortex-m7
   2              		.arch armv7e-m
   3              		.fpu fpv5-d16
   4              		.eabi_attribute 28, 1
   5              		.eabi_attribute 20, 1
   6              		.eabi_attribute 21, 1
   7              		.eabi_attribute 23, 3
   8              		.eabi_attribute 24, 1
   9              		.eabi_attribute 25, 1
  10              		.eabi_attribute 26, 1
  11              		.eabi_attribute 30, 2
  12              		.eabi_attribute 34, 1
  13              		.eabi_attribute 18, 4
  14              		.file	"Dubby.cpp"
  15              		.text
  16              	.Ltext0:
  17              		.cfi_sections	.debug_frame
  18              		.section	.text._ZNK5daisy11OledDisplayINS_13SSD130xDriverILj128ELj64ENS_24SSD130x4WireSpiTransport
  19              		.align	1
  20              		.p2align 2,,3
  21              		.weak	_ZNK5daisy11OledDisplayINS_13SSD130xDriverILj128ELj64ENS_24SSD130x4WireSpiTransportEEEE6Heig
  22              		.syntax unified
  23              		.thumb
  24              		.thumb_func
  26              	_ZNK5daisy11OledDisplayINS_13SSD130xDriverILj128ELj64ENS_24SSD130x4WireSpiTransportEEEE6HeightEv:
  27              	.LVL0:
  28              	.LFB2646:
  29              		.file 1 "../../libDaisy//src/hid/disp/oled_display.h"
   1:../../libDaisy//src/hid/disp/oled_display.h **** #pragma once
   2:../../libDaisy//src/hid/disp/oled_display.h **** #ifndef DSY_OLED_DISPLAY_H
   3:../../libDaisy//src/hid/disp/oled_display.h **** #define DSY_OLED_DISPLAY_H /**< Macro */
   4:../../libDaisy//src/hid/disp/oled_display.h **** 
   5:../../libDaisy//src/hid/disp/oled_display.h **** #include "display.h"
   6:../../libDaisy//src/hid/disp/oled_display.h **** 
   7:../../libDaisy//src/hid/disp/oled_display.h **** namespace daisy
   8:../../libDaisy//src/hid/disp/oled_display.h **** {
   9:../../libDaisy//src/hid/disp/oled_display.h **** /** 
  10:../../libDaisy//src/hid/disp/oled_display.h ****  * This class is for drawing to a monochrome OLED display. 
  11:../../libDaisy//src/hid/disp/oled_display.h ****  * @ingroup device
  12:../../libDaisy//src/hid/disp/oled_display.h **** */
  13:../../libDaisy//src/hid/disp/oled_display.h **** template <typename DisplayDriver>
  14:../../libDaisy//src/hid/disp/oled_display.h **** class OledDisplay : public OneBitGraphicsDisplayImpl<OledDisplay<DisplayDriver>>
  15:../../libDaisy//src/hid/disp/oled_display.h **** {
  16:../../libDaisy//src/hid/disp/oled_display.h ****   public:
  17:../../libDaisy//src/hid/disp/oled_display.h ****     OledDisplay() {}
  18:../../libDaisy//src/hid/disp/oled_display.h ****     virtual ~OledDisplay() {}
  19:../../libDaisy//src/hid/disp/oled_display.h **** 
  20:../../libDaisy//src/hid/disp/oled_display.h ****     struct Config
  21:../../libDaisy//src/hid/disp/oled_display.h ****     {
  22:../../libDaisy//src/hid/disp/oled_display.h ****         typename DisplayDriver::Config driver_config;
  23:../../libDaisy//src/hid/disp/oled_display.h ****     };
  24:../../libDaisy//src/hid/disp/oled_display.h **** 
  25:../../libDaisy//src/hid/disp/oled_display.h ****     void Init(Config config) { driver_.Init(config.driver_config); }
  26:../../libDaisy//src/hid/disp/oled_display.h **** 
  27:../../libDaisy//src/hid/disp/oled_display.h ****     uint16_t Height() const override { return driver_.Height(); }
  30              		.loc 1 27 14 view -0
  31              		.cfi_startproc
ARM GAS  /var/folders/1y/_321xjh9623c014x9_qw12rr0000gn/T//ccqHcGuP.s 			page 2


  32              		@ args = 0, pretend = 0, frame = 0
  33              		@ frame_needed = 0, uses_anonymous_args = 0
  34              		@ link register save eliminated.
  35              		.loc 1 27 65 is_stmt 0 view .LVU1
  36 0000 4020     		movs	r0, #64
  37              	.LVL1:
  38              		.loc 1 27 65 view .LVU2
  39 0002 7047     		bx	lr
  40              		.cfi_endproc
  41              	.LFE2646:
  43              		.section	.text._ZNK5daisy11OledDisplayINS_13SSD130xDriverILj128ELj64ENS_24SSD130x4WireSpiTransport
  44              		.align	1
  45              		.p2align 2,,3
  46              		.weak	_ZNK5daisy11OledDisplayINS_13SSD130xDriverILj128ELj64ENS_24SSD130x4WireSpiTransportEEEE5Widt
  47              		.syntax unified
  48              		.thumb
  49              		.thumb_func
  51              	_ZNK5daisy11OledDisplayINS_13SSD130xDriverILj128ELj64ENS_24SSD130x4WireSpiTransportEEEE5WidthEv:
  52              	.LVL2:
  53              	.LFB2647:
  28:../../libDaisy//src/hid/disp/oled_display.h ****     uint16_t Width() const override { return driver_.Width(); }
  54              		.loc 1 28 14 is_stmt 1 view -0
  55              		.cfi_startproc
  56              		@ args = 0, pretend = 0, frame = 0
  57              		@ frame_needed = 0, uses_anonymous_args = 0
  58              		@ link register save eliminated.
  59              		.loc 1 28 63 is_stmt 0 view .LVU4
  60 0000 8020     		movs	r0, #128
  61              	.LVL3:
  62              		.loc 1 28 63 view .LVU5
  63 0002 7047     		bx	lr
  64              		.cfi_endproc
  65              	.LFE2647:
  67              		.section	.text._ZN5daisy5Dubby11RenderScopeEv.part.0,"ax",%progbits
  68              		.align	1
  69              		.p2align 2,,3
  70              		.syntax unified
  71              		.thumb
  72              		.thumb_func
  74              	_ZN5daisy5Dubby11RenderScopeEv.part.0:
  75              	.LVL4:
  76              	.LFB2658:
  77              		.file 2 "Dubby.cpp"
   1:Dubby.cpp     **** #include "Dubby.h"
   2:Dubby.cpp     **** 
   3:Dubby.cpp     **** using namespace daisy;
   4:Dubby.cpp     **** 
   5:Dubby.cpp     **** // Hardware Definitions
   6:Dubby.cpp     **** #define PIN_GATE_IN_1 32
   7:Dubby.cpp     **** #define PIN_GATE_IN_2 23
   8:Dubby.cpp     **** #define PIN_GATE_IN_3 17
   9:Dubby.cpp     **** #define PIN_GATE_IN_4 19
  10:Dubby.cpp     **** #define PIN_KNOB_1 18
  11:Dubby.cpp     **** #define PIN_KNOB_2 15
  12:Dubby.cpp     **** #define PIN_KNOB_3 21
  13:Dubby.cpp     **** #define PIN_KNOB_4 22
  14:Dubby.cpp     **** #define PIN_JS_CLICK 3
ARM GAS  /var/folders/1y/_321xjh9623c014x9_qw12rr0000gn/T//ccqHcGuP.s 			page 3


  15:Dubby.cpp     **** #define PIN_JS_V 20
  16:Dubby.cpp     **** #define PIN_JS_H 16
  17:Dubby.cpp     **** #define PIN_ENC_CLICK 4
  18:Dubby.cpp     **** #define PIN_ENC_A 6
  19:Dubby.cpp     **** #define PIN_ENC_B 5 
  20:Dubby.cpp     **** #define PIN_OLED_DC 9
  21:Dubby.cpp     **** #define PIN_OLED_RESET 31
  22:Dubby.cpp     **** 
  23:Dubby.cpp     **** #define OLED_WIDTH 128
  24:Dubby.cpp     **** #define OLED_HEIGHT 64
  25:Dubby.cpp     **** 
  26:Dubby.cpp     **** #define PANE_X_START 1
  27:Dubby.cpp     **** #define PANE_X_END 126
  28:Dubby.cpp     **** #define PANE_Y_START 1
  29:Dubby.cpp     **** #define PANE_Y_END 51
  30:Dubby.cpp     **** 
  31:Dubby.cpp     **** #define SUBMENU_X_START 1
  32:Dubby.cpp     **** #define SUBMENU_X_END 63
  33:Dubby.cpp     **** #define SUBMENU_Y_START 1
  34:Dubby.cpp     **** #define SUBMENU_Y_END 11
  35:Dubby.cpp     **** 
  36:Dubby.cpp     **** void Dubby::Init() 
  37:Dubby.cpp     **** {
  38:Dubby.cpp     ****     InitControls();
  39:Dubby.cpp     ****     InitButtons();
  40:Dubby.cpp     ****     
  41:Dubby.cpp     ****     screen_update_period_ = 17; // roughly 60Hz
  42:Dubby.cpp     ****     screen_update_last_   = seed.system.GetNow();
  43:Dubby.cpp     **** 
  44:Dubby.cpp     ****     for (int i = 0; i < 5; i++) 
  45:Dubby.cpp     ****     {
  46:Dubby.cpp     ****         submenuBoxBounding[i][0] = SUBMENU_X_START;
  47:Dubby.cpp     ****         submenuBoxBounding[i][1] = SUBMENU_Y_START + i * 10;
  48:Dubby.cpp     ****         submenuBoxBounding[i][2] = SUBMENU_X_END;
  49:Dubby.cpp     ****         submenuBoxBounding[i][3] = SUBMENU_Y_END + i * 10;
  50:Dubby.cpp     ****     }
  51:Dubby.cpp     **** 
  52:Dubby.cpp     ****     InitDisplay();
  53:Dubby.cpp     ****     InitEncoder();
  54:Dubby.cpp     ****     InitAudio();
  55:Dubby.cpp     **** }
  56:Dubby.cpp     **** 
  57:Dubby.cpp     **** void Dubby::InitControls()
  58:Dubby.cpp     **** {
  59:Dubby.cpp     ****     AdcChannelConfig cfg[CTRL_LAST];
  60:Dubby.cpp     **** 
  61:Dubby.cpp     ****     // Init ADC channels with Pins
  62:Dubby.cpp     ****     cfg[CTRL_1].InitSingle(seed.GetPin(PIN_KNOB_1));
  63:Dubby.cpp     ****     cfg[CTRL_2].InitSingle(seed.GetPin(PIN_KNOB_2));
  64:Dubby.cpp     ****     cfg[CTRL_3].InitSingle(seed.GetPin(PIN_KNOB_3));
  65:Dubby.cpp     ****     cfg[CTRL_4].InitSingle(seed.GetPin(PIN_KNOB_4));
  66:Dubby.cpp     ****     cfg[CTRL_5].InitSingle(seed.GetPin(PIN_JS_H));
  67:Dubby.cpp     ****     cfg[CTRL_6].InitSingle(seed.GetPin(PIN_JS_V));
  68:Dubby.cpp     **** 
  69:Dubby.cpp     ****     // Initialize ADC
  70:Dubby.cpp     ****     seed.adc.Init(cfg, CTRL_LAST);
  71:Dubby.cpp     **** 
ARM GAS  /var/folders/1y/_321xjh9623c014x9_qw12rr0000gn/T//ccqHcGuP.s 			page 4


  72:Dubby.cpp     ****     // Initialize analogInputs, with flip set to true
  73:Dubby.cpp     ****     for(size_t i = 0; i < CTRL_LAST; i++)
  74:Dubby.cpp     ****     {
  75:Dubby.cpp     ****         analogInputs[i].Init(seed.adc.GetPtr(i), seed.AudioCallbackRate(), true);
  76:Dubby.cpp     ****     }
  77:Dubby.cpp     **** 
  78:Dubby.cpp     ****     seed.adc.Start();
  79:Dubby.cpp     **** }
  80:Dubby.cpp     **** 
  81:Dubby.cpp     **** void Dubby::InitButtons()
  82:Dubby.cpp     **** {
  83:Dubby.cpp     ****     //Set button to pins, to be updated at a 1kHz  samplerate
  84:Dubby.cpp     ****     buttons[0].Init(seed.GetPin(PIN_GATE_IN_1), 1000);
  85:Dubby.cpp     ****     buttons[1].Init(seed.GetPin(PIN_GATE_IN_2), 1000);
  86:Dubby.cpp     ****     buttons[2].Init(seed.GetPin(PIN_GATE_IN_3), 1000);
  87:Dubby.cpp     ****     buttons[3].Init(seed.GetPin(PIN_GATE_IN_4), 1000);
  88:Dubby.cpp     **** }
  89:Dubby.cpp     **** 
  90:Dubby.cpp     **** 
  91:Dubby.cpp     **** void Dubby::InitDisplay() 
  92:Dubby.cpp     **** {
  93:Dubby.cpp     ****     /** Configure the Display */
  94:Dubby.cpp     ****     OledDisplay<SSD130x4WireSpi128x64Driver>::Config disp_cfg;
  95:Dubby.cpp     ****     disp_cfg.driver_config.transport_config.pin_config.dc    = seed.GetPin(9);
  96:Dubby.cpp     ****     disp_cfg.driver_config.transport_config.pin_config.reset = seed.GetPin(31);
  97:Dubby.cpp     ****     /** And Initialize */
  98:Dubby.cpp     ****     display.Init(disp_cfg);
  99:Dubby.cpp     **** }
 100:Dubby.cpp     **** 
 101:Dubby.cpp     **** void Dubby::UpdateDisplay() 
 102:Dubby.cpp     **** {
 103:Dubby.cpp     ****     if (encoder.TimeHeldMs() > 300) 
 104:Dubby.cpp     ****     {
 105:Dubby.cpp     ****         if (!menuActive) 
 106:Dubby.cpp     ****         {
 107:Dubby.cpp     ****             HightlightMenuItem();
 108:Dubby.cpp     ****             menuActive = true;
 109:Dubby.cpp     ****         }
 110:Dubby.cpp     **** 
 111:Dubby.cpp     ****         if (encoder.Increment()) UpdateMenu(encoder.Increment(), true);
 112:Dubby.cpp     ****     } 
 113:Dubby.cpp     **** 
 114:Dubby.cpp     ****     switch(menuItemSelected) 
 115:Dubby.cpp     ****     {
 116:Dubby.cpp     ****         case MENU1:
 117:Dubby.cpp     ****             RenderScope();
 118:Dubby.cpp     ****             break;
 119:Dubby.cpp     ****         case MENU2:
 120:Dubby.cpp     ****             UpdateMixerPane();
 121:Dubby.cpp     ****             break;
 122:Dubby.cpp     ****         case MENU3:
 123:Dubby.cpp     ****             if (encoder.Pressed() && preferencesMenuItemSelected == OPTION4) ResetToBootloader();
 124:Dubby.cpp     ****             if (encoder.Increment() && !menuActive) UpdatePreferencesMenu(encoder.Increment());
 125:Dubby.cpp     ****             break;
 126:Dubby.cpp     ****         default:
 127:Dubby.cpp     ****             break;
 128:Dubby.cpp     ****     }
ARM GAS  /var/folders/1y/_321xjh9623c014x9_qw12rr0000gn/T//ccqHcGuP.s 			page 5


 129:Dubby.cpp     ****     
 130:Dubby.cpp     ****     if (encoder.TimeHeldMs() < 300 && menuActive)
 131:Dubby.cpp     ****     {
 132:Dubby.cpp     ****         menuActive = false;
 133:Dubby.cpp     ****         
 134:Dubby.cpp     ****         ReleaseMenu();
 135:Dubby.cpp     ****         UpdateSubmenu();
 136:Dubby.cpp     ****     }
 137:Dubby.cpp     **** }
 138:Dubby.cpp     **** 
 139:Dubby.cpp     **** void Dubby::DrawLogo() 
 140:Dubby.cpp     **** {
 141:Dubby.cpp     ****     DrawBitmap(0);   
 142:Dubby.cpp     **** }
 143:Dubby.cpp     **** 
 144:Dubby.cpp     **** void Dubby::DrawBitmap(int bitmapIndex)
 145:Dubby.cpp     **** {
 146:Dubby.cpp     ****     display.Fill(false);
 147:Dubby.cpp     ****     display.SetCursor(30, 30);
 148:Dubby.cpp     ****     
 149:Dubby.cpp     ****     for (int x = 0; x < OLED_WIDTH; x += 8) {
 150:Dubby.cpp     ****         for (int y = 0; y < OLED_HEIGHT; y++) {
 151:Dubby.cpp     ****             // Calculate the index in the array
 152:Dubby.cpp     ****             int byteIndex = (y * OLED_WIDTH + x) / 8;
 153:Dubby.cpp     **** 
 154:Dubby.cpp     ****             // Get the byte containing 8 pixels
 155:Dubby.cpp     ****             char byte = bitmaps[bitmapIndex][byteIndex];
 156:Dubby.cpp     **** 
 157:Dubby.cpp     ****             // Process 8 pixels in the byte
 158:Dubby.cpp     ****             for (int bitIndex = 0; bitIndex < 8; bitIndex++) {
 159:Dubby.cpp     **** 
 160:Dubby.cpp     ****                 // Get the pixel value (0 or 1)
 161:Dubby.cpp     ****                 char pixel = (byte >> (7 - bitIndex)) & 0x01;
 162:Dubby.cpp     **** 
 163:Dubby.cpp     ****                 bool isWhite = (pixel == 1);
 164:Dubby.cpp     **** 
 165:Dubby.cpp     ****                 display.DrawPixel(x + bitIndex, y, isWhite);
 166:Dubby.cpp     ****             }
 167:Dubby.cpp     **** 
 168:Dubby.cpp     ****             if (y % 6 == 0) display.Update();
 169:Dubby.cpp     ****         }
 170:Dubby.cpp     ****     }
 171:Dubby.cpp     **** }
 172:Dubby.cpp     **** 
 173:Dubby.cpp     **** void Dubby::UpdateMenu(int increment, bool higlight) 
 174:Dubby.cpp     **** {
 175:Dubby.cpp     ****     if ((menuItemSelected >= 0 && increment == 1 && menuItemSelected < 2) || (increment != 1 && men
 176:Dubby.cpp     ****         menuItemSelected = (MenuItems)(menuItemSelected + increment);
 177:Dubby.cpp     **** 
 178:Dubby.cpp     ****     display.Fill(false);
 179:Dubby.cpp     **** 
 180:Dubby.cpp     ****     if (higlight) HightlightMenuItem();
 181:Dubby.cpp     ****     else ReleaseMenu();
 182:Dubby.cpp     ****     
 183:Dubby.cpp     ****     UpdateSubmenu();
 184:Dubby.cpp     **** 
 185:Dubby.cpp     ****     display.Update();
ARM GAS  /var/folders/1y/_321xjh9623c014x9_qw12rr0000gn/T//ccqHcGuP.s 			page 6


 186:Dubby.cpp     **** }
 187:Dubby.cpp     **** 
 188:Dubby.cpp     **** void Dubby::HightlightMenuItem() 
 189:Dubby.cpp     **** {
 190:Dubby.cpp     ****     display.DrawRect(menuBoxBounding[menuItemSelected][0], menuBoxBounding[menuItemSelected][1], me
 191:Dubby.cpp     **** 
 192:Dubby.cpp     ****     for (int i = 0; i < 3; i++) 
 193:Dubby.cpp     ****     {
 194:Dubby.cpp     ****         display.SetCursor(menuTextCursors[i][0], menuTextCursors[i][1]);
 195:Dubby.cpp     ****         display.WriteString(GetTextForEnum(MAINMENU, i), Font_6x8, i == menuItemSelected ? false : 
 196:Dubby.cpp     ****     }
 197:Dubby.cpp     **** 
 198:Dubby.cpp     ****     display.DrawRect(PANE_X_START - 1, PANE_Y_START - 1, PANE_X_END + 1, PANE_Y_END + 1, true);
 199:Dubby.cpp     **** 
 200:Dubby.cpp     ****     display.Update();
 201:Dubby.cpp     **** }
 202:Dubby.cpp     **** 
 203:Dubby.cpp     **** void Dubby::ReleaseMenu() 
 204:Dubby.cpp     **** {        
 205:Dubby.cpp     ****     display.Fill(false);
 206:Dubby.cpp     ****     display.DrawRect(menuBoxBounding[menuItemSelected][0], menuBoxBounding[menuItemSelected][1], me
 207:Dubby.cpp     **** 
 208:Dubby.cpp     ****     for (int i = 0; i < MENU_LAST; i++) 
 209:Dubby.cpp     ****     {
 210:Dubby.cpp     ****         display.SetCursor(menuTextCursors[i][0], menuTextCursors[i][1]);
 211:Dubby.cpp     ****         display.WriteString(GetTextForEnum(MAINMENU, i), Font_6x8, true);
 212:Dubby.cpp     ****     }
 213:Dubby.cpp     **** 
 214:Dubby.cpp     ****     display.Update();
 215:Dubby.cpp     **** }
 216:Dubby.cpp     **** 
 217:Dubby.cpp     **** void Dubby::UpdateMixerPane() 
 218:Dubby.cpp     **** {
 219:Dubby.cpp     ****     if(seed.system.GetNow() - screen_update_last_ > screen_update_period_)
 220:Dubby.cpp     ****     {
 221:Dubby.cpp     ****         screen_update_last_ = seed.system.GetNow();
 222:Dubby.cpp     ****         for (int i = 0; i < 4; i++) UpdateBar(i);
 223:Dubby.cpp     ****     }
 224:Dubby.cpp     **** }
 225:Dubby.cpp     **** 
 226:Dubby.cpp     **** void Dubby::UpdateSubmenu()
 227:Dubby.cpp     **** {
 228:Dubby.cpp     ****     switch(menuItemSelected) 
 229:Dubby.cpp     ****     {
 230:Dubby.cpp     ****         case MENU1:
 231:Dubby.cpp     ****             RenderScope();
 232:Dubby.cpp     ****             break;
 233:Dubby.cpp     ****         case MENU2:
 234:Dubby.cpp     ****             // for (int i = 0; i < 4; i++) UpdateBar(i);
 235:Dubby.cpp     ****             break;
 236:Dubby.cpp     ****         case MENU3:
 237:Dubby.cpp     ****             DisplayPreferencesMenu();
 238:Dubby.cpp     ****             break;
 239:Dubby.cpp     ****         default:
 240:Dubby.cpp     ****             break;
 241:Dubby.cpp     ****     }
 242:Dubby.cpp     **** 
ARM GAS  /var/folders/1y/_321xjh9623c014x9_qw12rr0000gn/T//ccqHcGuP.s 			page 7


 243:Dubby.cpp     ****     display.Update();
 244:Dubby.cpp     **** }
 245:Dubby.cpp     **** 
 246:Dubby.cpp     **** void Dubby::UpdateBar(int i) 
 247:Dubby.cpp     **** {
 248:Dubby.cpp     ****     display.DrawRect((i * 32)  + margin, 1, ((i + 1) * 31) - margin, 51, false, true);
 249:Dubby.cpp     ****     display.DrawRect((i * 32)  + margin, int(abs(1.0f - GetKnobValue(static_cast<Dubby::Ctrl>(i))) 
 250:Dubby.cpp     ****     display.DrawRect((i * 32)  + margin, int(abs((currentLevels[i] * 5.0f) - 1.0f) * 51.0f) + 1, ((
 251:Dubby.cpp     ****     
 252:Dubby.cpp     ****     display.Update();
 253:Dubby.cpp     **** }
 254:Dubby.cpp     **** 
 255:Dubby.cpp     **** void Dubby::RenderScope()
  78              		.loc 2 255 6 is_stmt 1 view -0
  79              		.cfi_startproc
  80              		@ args = 0, pretend = 0, frame = 32
  81              		@ frame_needed = 0, uses_anonymous_args = 0
  82              	.LBB265:
 256:Dubby.cpp     **** {
 257:Dubby.cpp     ****     if(seed.system.GetNow() - screen_update_last_ > screen_update_period_)
 258:Dubby.cpp     ****     {
 259:Dubby.cpp     ****         screen_update_last_ = seed.system.GetNow();
  83              		.loc 2 259 9 view .LVU7
  84              	.LBE265:
 255:Dubby.cpp     **** {
  85              		.loc 2 255 6 is_stmt 0 view .LVU8
  86 0000 2DE9F04F 		push	{r4, r5, r6, r7, r8, r9, r10, fp, lr}
  87              		.cfi_def_cfa_offset 36
  88              		.cfi_offset 4, -36
  89              		.cfi_offset 5, -32
  90              		.cfi_offset 6, -28
  91              		.cfi_offset 7, -24
  92              		.cfi_offset 8, -20
  93              		.cfi_offset 9, -16
  94              		.cfi_offset 10, -12
  95              		.cfi_offset 11, -8
  96              		.cfi_offset 14, -4
  97 0004 8246     		mov	r10, r0
  98              	.LBB342:
  99              	.LBB266:
 100              	.LBB267:
 101              	.LBB268:
 102              		.file 3 "../../libDaisy//src/hid/disp/display.h"
   1:../../libDaisy//src/hid/disp/display.h **** #pragma once
   2:../../libDaisy//src/hid/disp/display.h **** #ifndef DSY_DISPLAY_H
   3:../../libDaisy//src/hid/disp/display.h **** #define DSY_DISPLAY_H /**< Macro */
   4:../../libDaisy//src/hid/disp/display.h **** #include <cmath>
   5:../../libDaisy//src/hid/disp/display.h **** #include "util/oled_fonts.h"
   6:../../libDaisy//src/hid/disp/display.h **** #include "daisy_core.h"
   7:../../libDaisy//src/hid/disp/display.h **** #include "graphics_common.h"
   8:../../libDaisy//src/hid/disp/display.h **** 
   9:../../libDaisy//src/hid/disp/display.h **** #ifndef deg2rad
  10:../../libDaisy//src/hid/disp/display.h **** #define deg2rad(deg) ((deg)*3.141592 / 180.0)
  11:../../libDaisy//src/hid/disp/display.h **** #endif
  12:../../libDaisy//src/hid/disp/display.h **** 
  13:../../libDaisy//src/hid/disp/display.h **** namespace daisy
  14:../../libDaisy//src/hid/disp/display.h **** {
ARM GAS  /var/folders/1y/_321xjh9623c014x9_qw12rr0000gn/T//ccqHcGuP.s 			page 8


  15:../../libDaisy//src/hid/disp/display.h **** /** 
  16:../../libDaisy//src/hid/disp/display.h ****  * This interface is used as a base class for all types of 1bit-per-pixel
  17:../../libDaisy//src/hid/disp/display.h ****  * graphics displays.
  18:../../libDaisy//src/hid/disp/display.h **** */
  19:../../libDaisy//src/hid/disp/display.h **** class OneBitGraphicsDisplay
  20:../../libDaisy//src/hid/disp/display.h **** {
  21:../../libDaisy//src/hid/disp/display.h ****   public:
  22:../../libDaisy//src/hid/disp/display.h ****     OneBitGraphicsDisplay() {}
  23:../../libDaisy//src/hid/disp/display.h ****     virtual ~OneBitGraphicsDisplay() {}
  24:../../libDaisy//src/hid/disp/display.h **** 
  25:../../libDaisy//src/hid/disp/display.h ****     virtual uint16_t Height() const = 0;
  26:../../libDaisy//src/hid/disp/display.h ****     virtual uint16_t Width() const  = 0;
  27:../../libDaisy//src/hid/disp/display.h **** 
  28:../../libDaisy//src/hid/disp/display.h ****     Rectangle GetBounds() const
  29:../../libDaisy//src/hid/disp/display.h ****     {
  30:../../libDaisy//src/hid/disp/display.h ****         return Rectangle(int16_t(Width()), int16_t(Height()));
  31:../../libDaisy//src/hid/disp/display.h ****     }
  32:../../libDaisy//src/hid/disp/display.h **** 
  33:../../libDaisy//src/hid/disp/display.h **** 
  34:../../libDaisy//src/hid/disp/display.h ****     size_t CurrentX() { return currentX_; };
  35:../../libDaisy//src/hid/disp/display.h ****     size_t CurrentY() { return currentY_; };
  36:../../libDaisy//src/hid/disp/display.h **** 
  37:../../libDaisy//src/hid/disp/display.h ****     /** 
  38:../../libDaisy//src/hid/disp/display.h ****     Fills the entire display with either on/off.
  39:../../libDaisy//src/hid/disp/display.h ****     \param on Sets on or off.
  40:../../libDaisy//src/hid/disp/display.h ****     */
  41:../../libDaisy//src/hid/disp/display.h ****     virtual void Fill(bool on) = 0;
  42:../../libDaisy//src/hid/disp/display.h **** 
  43:../../libDaisy//src/hid/disp/display.h ****     /**
  44:../../libDaisy//src/hid/disp/display.h ****     Sets the pixel at the specified coordinate to be on/off.
  45:../../libDaisy//src/hid/disp/display.h ****     \param x   x Coordinate
  46:../../libDaisy//src/hid/disp/display.h ****     \param y   y coordinate
  47:../../libDaisy//src/hid/disp/display.h ****     \param on  on or off
  48:../../libDaisy//src/hid/disp/display.h ****     */
  49:../../libDaisy//src/hid/disp/display.h ****     virtual void DrawPixel(uint_fast8_t x, uint_fast8_t y, bool on) = 0;
  50:../../libDaisy//src/hid/disp/display.h **** 
  51:../../libDaisy//src/hid/disp/display.h ****     /**
  52:../../libDaisy//src/hid/disp/display.h ****     Draws a line from (x1, y1) to (y1, y2)
  53:../../libDaisy//src/hid/disp/display.h ****     \param x1  x Coordinate of the starting point
  54:../../libDaisy//src/hid/disp/display.h ****     \param y1  y Coordinate of the starting point
  55:../../libDaisy//src/hid/disp/display.h ****     \param x2  x Coordinate of the ending point
  56:../../libDaisy//src/hid/disp/display.h ****     \param y2  y Coordinate of the ending point
  57:../../libDaisy//src/hid/disp/display.h ****     \param on  on or off
  58:../../libDaisy//src/hid/disp/display.h ****     */
  59:../../libDaisy//src/hid/disp/display.h ****     virtual void DrawLine(uint_fast8_t x1,
  60:../../libDaisy//src/hid/disp/display.h ****                           uint_fast8_t y1,
  61:../../libDaisy//src/hid/disp/display.h ****                           uint_fast8_t x2,
  62:../../libDaisy//src/hid/disp/display.h ****                           uint_fast8_t y2,
  63:../../libDaisy//src/hid/disp/display.h ****                           bool         on)
  64:../../libDaisy//src/hid/disp/display.h ****         = 0;
  65:../../libDaisy//src/hid/disp/display.h **** 
  66:../../libDaisy//src/hid/disp/display.h ****     /**
  67:../../libDaisy//src/hid/disp/display.h ****     Draws a rectangle based on two coordinates.
  68:../../libDaisy//src/hid/disp/display.h ****     \param x1 x Coordinate of the first point
  69:../../libDaisy//src/hid/disp/display.h ****     \param y1 y Coordinate of the first point
  70:../../libDaisy//src/hid/disp/display.h ****     \param x2 x Coordinate of the second point
  71:../../libDaisy//src/hid/disp/display.h ****     \param y2 y Coordinate of the second point
ARM GAS  /var/folders/1y/_321xjh9623c014x9_qw12rr0000gn/T//ccqHcGuP.s 			page 9


  72:../../libDaisy//src/hid/disp/display.h ****     \param on on or off
  73:../../libDaisy//src/hid/disp/display.h ****     \param fill fill the rectangle or draw only the outline
  74:../../libDaisy//src/hid/disp/display.h ****     */
  75:../../libDaisy//src/hid/disp/display.h ****     virtual void DrawRect(uint_fast8_t x1,
  76:../../libDaisy//src/hid/disp/display.h ****                           uint_fast8_t y1,
  77:../../libDaisy//src/hid/disp/display.h ****                           uint_fast8_t x2,
  78:../../libDaisy//src/hid/disp/display.h ****                           uint_fast8_t y2,
  79:../../libDaisy//src/hid/disp/display.h ****                           bool         on,
  80:../../libDaisy//src/hid/disp/display.h ****                           bool         fill = false)
  81:../../libDaisy//src/hid/disp/display.h ****         = 0;
  82:../../libDaisy//src/hid/disp/display.h **** 
  83:../../libDaisy//src/hid/disp/display.h ****     /**
  84:../../libDaisy//src/hid/disp/display.h ****     Draws a rectangle.
  85:../../libDaisy//src/hid/disp/display.h ****     \param rect the rectangle
  86:../../libDaisy//src/hid/disp/display.h ****     \param on   on or off
  87:../../libDaisy//src/hid/disp/display.h ****     \param fill fill the rectangle or draw only the outline
  88:../../libDaisy//src/hid/disp/display.h ****     */
  89:../../libDaisy//src/hid/disp/display.h ****     void DrawRect(const Rectangle& rect, bool on, bool fill = false)
  90:../../libDaisy//src/hid/disp/display.h ****     {
  91:../../libDaisy//src/hid/disp/display.h ****         DrawRect(rect.GetX(),
  92:../../libDaisy//src/hid/disp/display.h ****                  rect.GetY(),
  93:../../libDaisy//src/hid/disp/display.h ****                  rect.GetRight(),
  94:../../libDaisy//src/hid/disp/display.h ****                  rect.GetBottom(),
  95:../../libDaisy//src/hid/disp/display.h ****                  on,
  96:../../libDaisy//src/hid/disp/display.h ****                  fill);
  97:../../libDaisy//src/hid/disp/display.h ****     }
  98:../../libDaisy//src/hid/disp/display.h **** 
  99:../../libDaisy//src/hid/disp/display.h ****     /**
 100:../../libDaisy//src/hid/disp/display.h ****     Draws an arc around the specified coordinate
 101:../../libDaisy//src/hid/disp/display.h ****     \param x           x Coordinate of the center of the arc
 102:../../libDaisy//src/hid/disp/display.h ****     \param y           y Coordinate of the center of the arc
 103:../../libDaisy//src/hid/disp/display.h ****     \param radius      radius of the arc
 104:../../libDaisy//src/hid/disp/display.h ****     \param start_angle angle where to start the arc
 105:../../libDaisy//src/hid/disp/display.h ****     \param sweep       total angle of the arc
 106:../../libDaisy//src/hid/disp/display.h ****     \param on  on or off
 107:../../libDaisy//src/hid/disp/display.h ****     */
 108:../../libDaisy//src/hid/disp/display.h ****     virtual void DrawArc(uint_fast8_t x,
 109:../../libDaisy//src/hid/disp/display.h ****                          uint_fast8_t y,
 110:../../libDaisy//src/hid/disp/display.h ****                          uint_fast8_t radius,
 111:../../libDaisy//src/hid/disp/display.h ****                          int_fast16_t start_angle,
 112:../../libDaisy//src/hid/disp/display.h ****                          int_fast16_t sweep,
 113:../../libDaisy//src/hid/disp/display.h ****                          bool         on)
 114:../../libDaisy//src/hid/disp/display.h ****         = 0;
 115:../../libDaisy//src/hid/disp/display.h **** 
 116:../../libDaisy//src/hid/disp/display.h ****     /**
 117:../../libDaisy//src/hid/disp/display.h ****     Draws a circle around the specified coordinate
 118:../../libDaisy//src/hid/disp/display.h ****     \param x           x Coordinate of the center of the circle
 119:../../libDaisy//src/hid/disp/display.h ****     \param y           y Coordinate of the center of the circle
 120:../../libDaisy//src/hid/disp/display.h ****     \param radius      radius of the circle
 121:../../libDaisy//src/hid/disp/display.h ****     \param on  on or off
 122:../../libDaisy//src/hid/disp/display.h ****     */
 123:../../libDaisy//src/hid/disp/display.h ****     void
 124:../../libDaisy//src/hid/disp/display.h ****     DrawCircle(uint_fast8_t x, uint_fast8_t y, uint_fast8_t radius, bool on)
 125:../../libDaisy//src/hid/disp/display.h ****     {
 126:../../libDaisy//src/hid/disp/display.h ****         DrawArc(x, y, radius, 0, 360, on);
 127:../../libDaisy//src/hid/disp/display.h ****     };
 128:../../libDaisy//src/hid/disp/display.h **** 
ARM GAS  /var/folders/1y/_321xjh9623c014x9_qw12rr0000gn/T//ccqHcGuP.s 			page 10


 129:../../libDaisy//src/hid/disp/display.h ****     /** 
 130:../../libDaisy//src/hid/disp/display.h ****     Writes the character with the specific FontDef
 131:../../libDaisy//src/hid/disp/display.h ****     to the display buffer at the current Cursor position.
 132:../../libDaisy//src/hid/disp/display.h ****     \param ch character to be written
 133:../../libDaisy//src/hid/disp/display.h ****     \param font font to be written in
 134:../../libDaisy//src/hid/disp/display.h ****     \param on    on or off
 135:../../libDaisy//src/hid/disp/display.h ****     \return &
 136:../../libDaisy//src/hid/disp/display.h ****     */
 137:../../libDaisy//src/hid/disp/display.h ****     virtual char WriteChar(char ch, FontDef font, bool on) = 0;
 138:../../libDaisy//src/hid/disp/display.h **** 
 139:../../libDaisy//src/hid/disp/display.h ****     /** 
 140:../../libDaisy//src/hid/disp/display.h ****     Similar to WriteChar, except it will handle an entire String.
 141:../../libDaisy//src/hid/disp/display.h ****     Wrapping does not happen automatically, so the width
 142:../../libDaisy//src/hid/disp/display.h ****     of the string must be kept within the dimensions of the screen.
 143:../../libDaisy//src/hid/disp/display.h ****     \param str string to be written
 144:../../libDaisy//src/hid/disp/display.h ****     \param font font to use
 145:../../libDaisy//src/hid/disp/display.h ****     \param on  on or off
 146:../../libDaisy//src/hid/disp/display.h ****     \return &
 147:../../libDaisy//src/hid/disp/display.h ****     */
 148:../../libDaisy//src/hid/disp/display.h ****     virtual char WriteString(const char* str, FontDef font, bool on) = 0;
 149:../../libDaisy//src/hid/disp/display.h **** 
 150:../../libDaisy//src/hid/disp/display.h ****     /** 
 151:../../libDaisy//src/hid/disp/display.h ****     Similar to WriteString but justified within a bounding box.
 152:../../libDaisy//src/hid/disp/display.h ****     \param str          string to be written
 153:../../libDaisy//src/hid/disp/display.h ****     \param font         font to use
 154:../../libDaisy//src/hid/disp/display.h ****     \param boundingBox  the bounding box to draw the text in
 155:../../libDaisy//src/hid/disp/display.h ****     \param alignment    the alignment to use
 156:../../libDaisy//src/hid/disp/display.h ****     \param on           on or off
 157:../../libDaisy//src/hid/disp/display.h ****     \return The rectangle that was drawn to
 158:../../libDaisy//src/hid/disp/display.h ****     */
 159:../../libDaisy//src/hid/disp/display.h ****     virtual Rectangle WriteStringAligned(const char*    str,
 160:../../libDaisy//src/hid/disp/display.h ****                                          const FontDef& font,
 161:../../libDaisy//src/hid/disp/display.h ****                                          Rectangle      boundingBox,
 162:../../libDaisy//src/hid/disp/display.h ****                                          Alignment      alignment,
 163:../../libDaisy//src/hid/disp/display.h ****                                          bool           on)
 164:../../libDaisy//src/hid/disp/display.h ****         = 0;
 165:../../libDaisy//src/hid/disp/display.h **** 
 166:../../libDaisy//src/hid/disp/display.h ****     /** 
 167:../../libDaisy//src/hid/disp/display.h ****     Moves the 'Cursor' position used for WriteChar, and WriteStr to the specified coordinate.
 168:../../libDaisy//src/hid/disp/display.h ****     \param x x pos
 169:../../libDaisy//src/hid/disp/display.h ****     \param y y pos
 170:../../libDaisy//src/hid/disp/display.h ****     */
 171:../../libDaisy//src/hid/disp/display.h ****     void SetCursor(uint16_t x, uint16_t y)
 172:../../libDaisy//src/hid/disp/display.h ****     {
 173:../../libDaisy//src/hid/disp/display.h ****         currentX_ = (x >= Width()) ? Width() - 1 : x;
 174:../../libDaisy//src/hid/disp/display.h ****         currentY_ = (y >= Height()) ? Height() - 1 : y;
 175:../../libDaisy//src/hid/disp/display.h ****     }
 176:../../libDaisy//src/hid/disp/display.h **** 
 177:../../libDaisy//src/hid/disp/display.h ****     /** 
 178:../../libDaisy//src/hid/disp/display.h ****     Writes the current display buffer to the OLED device using SPI or I2C depending on 
 179:../../libDaisy//src/hid/disp/display.h ****     how the object was initialized.
 180:../../libDaisy//src/hid/disp/display.h ****     */
 181:../../libDaisy//src/hid/disp/display.h ****     virtual void Update() = 0;
 182:../../libDaisy//src/hid/disp/display.h **** 
 183:../../libDaisy//src/hid/disp/display.h ****   protected:
 184:../../libDaisy//src/hid/disp/display.h ****     uint16_t currentX_;
 185:../../libDaisy//src/hid/disp/display.h ****     uint16_t currentY_;
ARM GAS  /var/folders/1y/_321xjh9623c014x9_qw12rr0000gn/T//ccqHcGuP.s 			page 11


 186:../../libDaisy//src/hid/disp/display.h **** };
 187:../../libDaisy//src/hid/disp/display.h **** 
 188:../../libDaisy//src/hid/disp/display.h **** /** This class is intended as a intermediary class for your actual implementation of the OneBitGrap
 189:../../libDaisy//src/hid/disp/display.h ****  *  interface. It uses the CRTP design pattern where the template argument is the child class. It p
 190:../../libDaisy//src/hid/disp/display.h ****  *  implementations for most of the functions, except DrawPixel(), Update() and Fill(), which you'l
 191:../../libDaisy//src/hid/disp/display.h ****  *  to provide in your child class.
 192:../../libDaisy//src/hid/disp/display.h ****  *  The main goal of this class is to provide common drawing functions without relying on massive a
 193:../../libDaisy//src/hid/disp/display.h ****  *  virtual function calls that would result in a performance loss. To achieve this, any drawing fu
 194:../../libDaisy//src/hid/disp/display.h ****  *  is implemented here and internally calls other drawing functions (e.g. DrawRect() which interna
 195:../../libDaisy//src/hid/disp/display.h ****  *  DrawPixel() and DrawLine()) makes these calls via the qualified name of these functions to expl
 196:../../libDaisy//src/hid/disp/display.h ****  *  suppress the virtual dispatch mechanism like this:
 197:../../libDaisy//src/hid/disp/display.h ****  * 
 198:../../libDaisy//src/hid/disp/display.h ****  *      ChildType::DrawPixel(...); // no virtual function call; direct call into the child class fu
 199:../../libDaisy//src/hid/disp/display.h ****  *  
 200:../../libDaisy//src/hid/disp/display.h ****  *  To create a custom OneBitGraphicsDisplay implementation, you can 
 201:../../libDaisy//src/hid/disp/display.h ****  *  A) inherit from OneBitGraphicsDisplay directly and provide all the drawing functions yourself
 202:../../libDaisy//src/hid/disp/display.h ****  *  B) Inherit from OneBitGraphicsDisplayImpl and only provide DrawPixel(), Fill() and Update()
 203:../../libDaisy//src/hid/disp/display.h ****  *     like this:
 204:../../libDaisy//src/hid/disp/display.h ****  *  
 205:../../libDaisy//src/hid/disp/display.h ****  *      class MyDisplayClass : public OneBitGraphicsDisplayImpl<MyDisplayClass> 
 206:../../libDaisy//src/hid/disp/display.h ****  *      {
 207:../../libDaisy//src/hid/disp/display.h ****  *      public:
 208:../../libDaisy//src/hid/disp/display.h ****  *          void Fill() override { ... };
 209:../../libDaisy//src/hid/disp/display.h ****  *          void DrawPixel(uint_fast8_t x, uint_fast8_t y, bool on) override { ... };
 210:../../libDaisy//src/hid/disp/display.h ****  *          void Update() override { ... }
 211:../../libDaisy//src/hid/disp/display.h ****  *      };
 212:../../libDaisy//src/hid/disp/display.h ****  *  
 213:../../libDaisy//src/hid/disp/display.h ****  */
 214:../../libDaisy//src/hid/disp/display.h **** template <class ChildType>
 215:../../libDaisy//src/hid/disp/display.h **** class OneBitGraphicsDisplayImpl : public OneBitGraphicsDisplay
 216:../../libDaisy//src/hid/disp/display.h **** {
 217:../../libDaisy//src/hid/disp/display.h ****   public:
 218:../../libDaisy//src/hid/disp/display.h ****     OneBitGraphicsDisplayImpl() {}
 219:../../libDaisy//src/hid/disp/display.h ****     virtual ~OneBitGraphicsDisplayImpl() {}
 220:../../libDaisy//src/hid/disp/display.h **** 
 221:../../libDaisy//src/hid/disp/display.h ****     void DrawLine(uint_fast8_t x1,
 222:../../libDaisy//src/hid/disp/display.h ****                   uint_fast8_t y1,
 223:../../libDaisy//src/hid/disp/display.h ****                   uint_fast8_t x2,
 224:../../libDaisy//src/hid/disp/display.h ****                   uint_fast8_t y2,
 225:../../libDaisy//src/hid/disp/display.h ****                   bool         on) override
 226:../../libDaisy//src/hid/disp/display.h ****     {
 227:../../libDaisy//src/hid/disp/display.h ****         int_fast16_t deltaX = abs((int_fast16_t)x2 - (int_fast16_t)x1);
 228:../../libDaisy//src/hid/disp/display.h ****         int_fast16_t deltaY = abs((int_fast16_t)y2 - (int_fast16_t)y1);
 229:../../libDaisy//src/hid/disp/display.h ****         int_fast16_t signX  = ((x1 < x2) ? 1 : -1);
 230:../../libDaisy//src/hid/disp/display.h ****         int_fast16_t signY  = ((y1 < y2) ? 1 : -1);
 231:../../libDaisy//src/hid/disp/display.h ****         int_fast16_t error  = deltaX - deltaY;
 232:../../libDaisy//src/hid/disp/display.h ****         int_fast16_t error2;
 233:../../libDaisy//src/hid/disp/display.h **** 
 234:../../libDaisy//src/hid/disp/display.h ****         // If we write "ChildType::DrawPixel(x2, y2, on);", we end up with
 235:../../libDaisy//src/hid/disp/display.h ****         // all sorts of weird compiler errors when the Child class is a template
 236:../../libDaisy//src/hid/disp/display.h ****         // class. The only way around this is to use this very verbose syntax:
 237:../../libDaisy//src/hid/disp/display.h ****         ((ChildType*)(this))->ChildType::DrawPixel(x2, y2, on);
 238:../../libDaisy//src/hid/disp/display.h **** 
 239:../../libDaisy//src/hid/disp/display.h ****         while((x1 != x2) || (y1 != y2))
 240:../../libDaisy//src/hid/disp/display.h ****         {
 241:../../libDaisy//src/hid/disp/display.h ****             ((ChildType*)(this))->ChildType::DrawPixel(x1, y1, on);
 242:../../libDaisy//src/hid/disp/display.h ****             error2 = error * 2;
ARM GAS  /var/folders/1y/_321xjh9623c014x9_qw12rr0000gn/T//ccqHcGuP.s 			page 12


 243:../../libDaisy//src/hid/disp/display.h ****             if(error2 > -deltaY)
 244:../../libDaisy//src/hid/disp/display.h ****             {
 245:../../libDaisy//src/hid/disp/display.h ****                 error -= deltaY;
 246:../../libDaisy//src/hid/disp/display.h ****                 x1 += signX;
 247:../../libDaisy//src/hid/disp/display.h ****             }
 248:../../libDaisy//src/hid/disp/display.h **** 
 249:../../libDaisy//src/hid/disp/display.h ****             if(error2 < deltaX)
 250:../../libDaisy//src/hid/disp/display.h ****             {
 251:../../libDaisy//src/hid/disp/display.h ****                 error += deltaX;
 252:../../libDaisy//src/hid/disp/display.h ****                 y1 += signY;
 253:../../libDaisy//src/hid/disp/display.h ****             }
 254:../../libDaisy//src/hid/disp/display.h ****         }
 255:../../libDaisy//src/hid/disp/display.h ****     }
 256:../../libDaisy//src/hid/disp/display.h **** 
 257:../../libDaisy//src/hid/disp/display.h ****     void DrawRect(uint_fast8_t x1,
 258:../../libDaisy//src/hid/disp/display.h ****                   uint_fast8_t y1,
 259:../../libDaisy//src/hid/disp/display.h ****                   uint_fast8_t x2,
 260:../../libDaisy//src/hid/disp/display.h ****                   uint_fast8_t y2,
 261:../../libDaisy//src/hid/disp/display.h ****                   bool         on,
 262:../../libDaisy//src/hid/disp/display.h ****                   bool         fill = false) override
 263:../../libDaisy//src/hid/disp/display.h ****     {
 264:../../libDaisy//src/hid/disp/display.h ****         if(fill)
 265:../../libDaisy//src/hid/disp/display.h ****         {
 266:../../libDaisy//src/hid/disp/display.h ****             for(uint_fast8_t x = x1; x <= x2; x++)
 103              		.loc 3 266 30 view .LVU9
 104 0006 0125     		movs	r5, #1
 105              	.LBE268:
 106              	.LBE267:
 107              	.LBE266:
 108              	.LBE342:
 255:Dubby.cpp     **** {
 109              		.loc 2 255 6 view .LVU10
 110 0008 89B0     		sub	sp, sp, #36
 111              		.cfi_def_cfa_offset 72
 112              	.LBB343:
 113              		.loc 2 259 49 view .LVU11
 114 000a FFF7FEFF 		bl	_ZN5daisy6System6GetNowEv
 115              	.LVL5:
 116              		.loc 2 259 29 view .LVU12
 117 000e CAF86C08 		str	r0, [r10, #2156]
 260:Dubby.cpp     ****         display.DrawRect(PANE_X_START, PANE_Y_START, PANE_X_END, PANE_Y_END, false, true);
 118              		.loc 2 260 9 is_stmt 1 view .LVU13
 119              	.LVL6:
 120              	.LBB287:
 121              	.LBI266:
 257:../../libDaisy//src/hid/disp/display.h ****                   uint_fast8_t y1,
 122              		.loc 3 257 10 view .LVU14
 123              	.LBB285:
 124              	.LBI267:
 257:../../libDaisy//src/hid/disp/display.h ****                   uint_fast8_t y1,
 125              		.loc 3 257 10 view .LVU15
 126              	.LBB283:
 127              		.loc 3 266 40 view .LVU16
 128              	.L6:
 129              	.LBB269:
 267:../../libDaisy//src/hid/disp/display.h ****             {
 268:../../libDaisy//src/hid/disp/display.h ****                 for(uint_fast8_t y = y1; y <= y2; y++)
ARM GAS  /var/folders/1y/_321xjh9623c014x9_qw12rr0000gn/T//ccqHcGuP.s 			page 13


 130              		.loc 3 268 44 view .LVU17
 131              		.loc 3 268 34 is_stmt 0 view .LVU18
 132 0012 0122     		movs	r2, #1
 133              	.LVL7:
 134              	.L5:
 135              	.LBB270:
 136              	.LBI270:
  29:../../libDaisy//src/hid/disp/oled_display.h **** 
  30:../../libDaisy//src/hid/disp/oled_display.h ****     /** 
  31:../../libDaisy//src/hid/disp/oled_display.h ****     Fills the entire display with either on/off.
  32:../../libDaisy//src/hid/disp/oled_display.h ****     \param on Sets on or off.
  33:../../libDaisy//src/hid/disp/oled_display.h ****     */
  34:../../libDaisy//src/hid/disp/oled_display.h ****     void Fill(bool on) override { driver_.Fill(on); }
  35:../../libDaisy//src/hid/disp/oled_display.h **** 
  36:../../libDaisy//src/hid/disp/oled_display.h ****     /**
  37:../../libDaisy//src/hid/disp/oled_display.h ****     Sets the pixel at the specified coordinate to be on/off.
  38:../../libDaisy//src/hid/disp/oled_display.h ****     \param x   x Coordinate
  39:../../libDaisy//src/hid/disp/oled_display.h ****     \param y   y coordinate
  40:../../libDaisy//src/hid/disp/oled_display.h ****     \param on  on or off
  41:../../libDaisy//src/hid/disp/oled_display.h ****     */
  42:../../libDaisy//src/hid/disp/oled_display.h ****     void DrawPixel(uint_fast8_t x, uint_fast8_t y, bool on) override
 137              		.loc 1 42 10 is_stmt 1 view .LVU19
 138              	.LBB271:
 139              	.LBI271:
 140              		.file 4 "../../libDaisy//src/dev/oled_ssd130x.h"
   1:../../libDaisy//src/dev/oled_ssd130x.h **** #pragma once
   2:../../libDaisy//src/dev/oled_ssd130x.h **** #ifndef SA_OLED_SSD130X_H
   3:../../libDaisy//src/dev/oled_ssd130x.h **** #define SA_OLED_SSD130X_H /**< & */
   4:../../libDaisy//src/dev/oled_ssd130x.h **** 
   5:../../libDaisy//src/dev/oled_ssd130x.h **** #include "per/i2c.h"
   6:../../libDaisy//src/dev/oled_ssd130x.h **** #include "per/spi.h"
   7:../../libDaisy//src/dev/oled_ssd130x.h **** #include "per/gpio.h"
   8:../../libDaisy//src/dev/oled_ssd130x.h **** #include "sys/system.h"
   9:../../libDaisy//src/dev/oled_ssd130x.h **** 
  10:../../libDaisy//src/dev/oled_ssd130x.h **** namespace daisy
  11:../../libDaisy//src/dev/oled_ssd130x.h **** {
  12:../../libDaisy//src/dev/oled_ssd130x.h **** /**
  13:../../libDaisy//src/dev/oled_ssd130x.h ****  * I2C Transport for SSD1306 / SSD1309 OLED display devices
  14:../../libDaisy//src/dev/oled_ssd130x.h ****  */
  15:../../libDaisy//src/dev/oled_ssd130x.h **** class SSD130xI2CTransport
  16:../../libDaisy//src/dev/oled_ssd130x.h **** {
  17:../../libDaisy//src/dev/oled_ssd130x.h ****   public:
  18:../../libDaisy//src/dev/oled_ssd130x.h ****     struct Config
  19:../../libDaisy//src/dev/oled_ssd130x.h ****     {
  20:../../libDaisy//src/dev/oled_ssd130x.h ****         Config()
  21:../../libDaisy//src/dev/oled_ssd130x.h ****         {
  22:../../libDaisy//src/dev/oled_ssd130x.h ****             // Intialize using defaults
  23:../../libDaisy//src/dev/oled_ssd130x.h ****             Defaults();
  24:../../libDaisy//src/dev/oled_ssd130x.h ****         }
  25:../../libDaisy//src/dev/oled_ssd130x.h ****         I2CHandle::Config i2c_config;
  26:../../libDaisy//src/dev/oled_ssd130x.h ****         uint8_t           i2c_address;
  27:../../libDaisy//src/dev/oled_ssd130x.h ****         void              Defaults()
  28:../../libDaisy//src/dev/oled_ssd130x.h ****         {
  29:../../libDaisy//src/dev/oled_ssd130x.h ****             i2c_config.periph         = I2CHandle::Config::Peripheral::I2C_1;
  30:../../libDaisy//src/dev/oled_ssd130x.h ****             i2c_config.speed          = I2CHandle::Config::Speed::I2C_1MHZ;
  31:../../libDaisy//src/dev/oled_ssd130x.h ****             i2c_config.mode           = I2CHandle::Config::Mode::I2C_MASTER;
  32:../../libDaisy//src/dev/oled_ssd130x.h ****             i2c_config.pin_config.scl = {DSY_GPIOB, 8};
ARM GAS  /var/folders/1y/_321xjh9623c014x9_qw12rr0000gn/T//ccqHcGuP.s 			page 14


  33:../../libDaisy//src/dev/oled_ssd130x.h ****             i2c_config.pin_config.sda = {DSY_GPIOB, 9};
  34:../../libDaisy//src/dev/oled_ssd130x.h ****             i2c_address               = 0x3C;
  35:../../libDaisy//src/dev/oled_ssd130x.h ****         }
  36:../../libDaisy//src/dev/oled_ssd130x.h ****     };
  37:../../libDaisy//src/dev/oled_ssd130x.h ****     void Init(const Config& config)
  38:../../libDaisy//src/dev/oled_ssd130x.h ****     {
  39:../../libDaisy//src/dev/oled_ssd130x.h ****         i2c_address_ = config.i2c_address;
  40:../../libDaisy//src/dev/oled_ssd130x.h ****         i2c_.Init(config.i2c_config);
  41:../../libDaisy//src/dev/oled_ssd130x.h ****     };
  42:../../libDaisy//src/dev/oled_ssd130x.h ****     void SendCommand(uint8_t cmd)
  43:../../libDaisy//src/dev/oled_ssd130x.h ****     {
  44:../../libDaisy//src/dev/oled_ssd130x.h ****         uint8_t buf[2] = {0X00, cmd};
  45:../../libDaisy//src/dev/oled_ssd130x.h ****         i2c_.TransmitBlocking(i2c_address_, buf, 2, 1000);
  46:../../libDaisy//src/dev/oled_ssd130x.h ****     };
  47:../../libDaisy//src/dev/oled_ssd130x.h **** 
  48:../../libDaisy//src/dev/oled_ssd130x.h ****     void SendData(uint8_t* buff, size_t size)
  49:../../libDaisy//src/dev/oled_ssd130x.h ****     {
  50:../../libDaisy//src/dev/oled_ssd130x.h ****         for(size_t i = 0; i < size; i++)
  51:../../libDaisy//src/dev/oled_ssd130x.h ****         {
  52:../../libDaisy//src/dev/oled_ssd130x.h ****             uint8_t buf[2] = {0X40, buff[i]};
  53:../../libDaisy//src/dev/oled_ssd130x.h ****             i2c_.TransmitBlocking(i2c_address_, buf, 2, 1000);
  54:../../libDaisy//src/dev/oled_ssd130x.h ****         }
  55:../../libDaisy//src/dev/oled_ssd130x.h ****     };
  56:../../libDaisy//src/dev/oled_ssd130x.h **** 
  57:../../libDaisy//src/dev/oled_ssd130x.h ****   private:
  58:../../libDaisy//src/dev/oled_ssd130x.h ****     daisy::I2CHandle i2c_;
  59:../../libDaisy//src/dev/oled_ssd130x.h ****     uint8_t          i2c_address_;
  60:../../libDaisy//src/dev/oled_ssd130x.h **** };
  61:../../libDaisy//src/dev/oled_ssd130x.h **** 
  62:../../libDaisy//src/dev/oled_ssd130x.h **** /**
  63:../../libDaisy//src/dev/oled_ssd130x.h ****  * 4 Wire SPI Transport for SSD1306 / SSD1309 OLED display devices
  64:../../libDaisy//src/dev/oled_ssd130x.h ****  */
  65:../../libDaisy//src/dev/oled_ssd130x.h **** class SSD130x4WireSpiTransport
  66:../../libDaisy//src/dev/oled_ssd130x.h **** {
  67:../../libDaisy//src/dev/oled_ssd130x.h ****   public:
  68:../../libDaisy//src/dev/oled_ssd130x.h ****     struct Config
  69:../../libDaisy//src/dev/oled_ssd130x.h ****     {
  70:../../libDaisy//src/dev/oled_ssd130x.h ****         Config()
  71:../../libDaisy//src/dev/oled_ssd130x.h ****         {
  72:../../libDaisy//src/dev/oled_ssd130x.h ****             // Initialize using defaults
  73:../../libDaisy//src/dev/oled_ssd130x.h ****             Defaults();
  74:../../libDaisy//src/dev/oled_ssd130x.h ****         }
  75:../../libDaisy//src/dev/oled_ssd130x.h ****         SpiHandle::Config spi_config;
  76:../../libDaisy//src/dev/oled_ssd130x.h ****         struct
  77:../../libDaisy//src/dev/oled_ssd130x.h ****         {
  78:../../libDaisy//src/dev/oled_ssd130x.h ****             dsy_gpio_pin dc;    /**< & */
  79:../../libDaisy//src/dev/oled_ssd130x.h ****             dsy_gpio_pin reset; /**< & */
  80:../../libDaisy//src/dev/oled_ssd130x.h ****         } pin_config;
  81:../../libDaisy//src/dev/oled_ssd130x.h ****         void Defaults()
  82:../../libDaisy//src/dev/oled_ssd130x.h ****         {
  83:../../libDaisy//src/dev/oled_ssd130x.h ****             // SPI peripheral config
  84:../../libDaisy//src/dev/oled_ssd130x.h ****             spi_config.periph = SpiHandle::Config::Peripheral::SPI_1;
  85:../../libDaisy//src/dev/oled_ssd130x.h ****             spi_config.mode   = SpiHandle::Config::Mode::MASTER;
  86:../../libDaisy//src/dev/oled_ssd130x.h ****             spi_config.direction
  87:../../libDaisy//src/dev/oled_ssd130x.h ****                 = SpiHandle::Config::Direction::TWO_LINES_TX_ONLY;
  88:../../libDaisy//src/dev/oled_ssd130x.h ****             spi_config.datasize       = 8;
  89:../../libDaisy//src/dev/oled_ssd130x.h ****             spi_config.clock_polarity = SpiHandle::Config::ClockPolarity::LOW;
ARM GAS  /var/folders/1y/_321xjh9623c014x9_qw12rr0000gn/T//ccqHcGuP.s 			page 15


  90:../../libDaisy//src/dev/oled_ssd130x.h ****             spi_config.clock_phase    = SpiHandle::Config::ClockPhase::ONE_EDGE;
  91:../../libDaisy//src/dev/oled_ssd130x.h ****             spi_config.nss            = SpiHandle::Config::NSS::HARD_OUTPUT;
  92:../../libDaisy//src/dev/oled_ssd130x.h ****             spi_config.baud_prescaler = SpiHandle::Config::BaudPrescaler::PS_8;
  93:../../libDaisy//src/dev/oled_ssd130x.h ****             // SPI pin config
  94:../../libDaisy//src/dev/oled_ssd130x.h ****             spi_config.pin_config.sclk = {DSY_GPIOG, 11};
  95:../../libDaisy//src/dev/oled_ssd130x.h ****             spi_config.pin_config.miso = {DSY_GPIOX, 0};
  96:../../libDaisy//src/dev/oled_ssd130x.h ****             spi_config.pin_config.mosi = {DSY_GPIOB, 5};
  97:../../libDaisy//src/dev/oled_ssd130x.h ****             spi_config.pin_config.nss  = {DSY_GPIOG, 10};
  98:../../libDaisy//src/dev/oled_ssd130x.h ****             // SSD130x control pin config
  99:../../libDaisy//src/dev/oled_ssd130x.h ****             pin_config.dc    = {DSY_GPIOB, 4};
 100:../../libDaisy//src/dev/oled_ssd130x.h ****             pin_config.reset = {DSY_GPIOB, 15};
 101:../../libDaisy//src/dev/oled_ssd130x.h ****         }
 102:../../libDaisy//src/dev/oled_ssd130x.h ****     };
 103:../../libDaisy//src/dev/oled_ssd130x.h ****     void Init(const Config& config)
 104:../../libDaisy//src/dev/oled_ssd130x.h ****     {
 105:../../libDaisy//src/dev/oled_ssd130x.h ****         // Initialize both GPIO
 106:../../libDaisy//src/dev/oled_ssd130x.h ****         pin_dc_.mode = DSY_GPIO_MODE_OUTPUT_PP;
 107:../../libDaisy//src/dev/oled_ssd130x.h ****         pin_dc_.pin  = config.pin_config.dc;
 108:../../libDaisy//src/dev/oled_ssd130x.h ****         dsy_gpio_init(&pin_dc_);
 109:../../libDaisy//src/dev/oled_ssd130x.h ****         pin_reset_.mode = DSY_GPIO_MODE_OUTPUT_PP;
 110:../../libDaisy//src/dev/oled_ssd130x.h ****         pin_reset_.pin  = config.pin_config.reset;
 111:../../libDaisy//src/dev/oled_ssd130x.h ****         dsy_gpio_init(&pin_reset_);
 112:../../libDaisy//src/dev/oled_ssd130x.h **** 
 113:../../libDaisy//src/dev/oled_ssd130x.h ****         // Initialize SPI
 114:../../libDaisy//src/dev/oled_ssd130x.h ****         spi_.Init(config.spi_config);
 115:../../libDaisy//src/dev/oled_ssd130x.h **** 
 116:../../libDaisy//src/dev/oled_ssd130x.h ****         // Reset and Configure OLED.
 117:../../libDaisy//src/dev/oled_ssd130x.h ****         dsy_gpio_write(&pin_reset_, 0);
 118:../../libDaisy//src/dev/oled_ssd130x.h ****         System::Delay(10);
 119:../../libDaisy//src/dev/oled_ssd130x.h ****         dsy_gpio_write(&pin_reset_, 1);
 120:../../libDaisy//src/dev/oled_ssd130x.h ****         System::Delay(10);
 121:../../libDaisy//src/dev/oled_ssd130x.h ****     };
 122:../../libDaisy//src/dev/oled_ssd130x.h ****     void SendCommand(uint8_t cmd)
 123:../../libDaisy//src/dev/oled_ssd130x.h ****     {
 124:../../libDaisy//src/dev/oled_ssd130x.h ****         dsy_gpio_write(&pin_dc_, 0);
 125:../../libDaisy//src/dev/oled_ssd130x.h ****         spi_.BlockingTransmit(&cmd, 1);
 126:../../libDaisy//src/dev/oled_ssd130x.h ****     };
 127:../../libDaisy//src/dev/oled_ssd130x.h **** 
 128:../../libDaisy//src/dev/oled_ssd130x.h ****     void SendData(uint8_t* buff, size_t size)
 129:../../libDaisy//src/dev/oled_ssd130x.h ****     {
 130:../../libDaisy//src/dev/oled_ssd130x.h ****         dsy_gpio_write(&pin_dc_, 1);
 131:../../libDaisy//src/dev/oled_ssd130x.h ****         spi_.BlockingTransmit(buff, size);
 132:../../libDaisy//src/dev/oled_ssd130x.h ****     };
 133:../../libDaisy//src/dev/oled_ssd130x.h **** 
 134:../../libDaisy//src/dev/oled_ssd130x.h ****   private:
 135:../../libDaisy//src/dev/oled_ssd130x.h ****     SpiHandle spi_;
 136:../../libDaisy//src/dev/oled_ssd130x.h ****     dsy_gpio  pin_reset_;
 137:../../libDaisy//src/dev/oled_ssd130x.h ****     dsy_gpio  pin_dc_;
 138:../../libDaisy//src/dev/oled_ssd130x.h **** };
 139:../../libDaisy//src/dev/oled_ssd130x.h **** 
 140:../../libDaisy//src/dev/oled_ssd130x.h **** /**
 141:../../libDaisy//src/dev/oled_ssd130x.h ****  * Soft SPI Transport for SSD1306 / SSD1309 OLED display devices
 142:../../libDaisy//src/dev/oled_ssd130x.h ****  */
 143:../../libDaisy//src/dev/oled_ssd130x.h **** class SSD130x4WireSoftSpiTransport
 144:../../libDaisy//src/dev/oled_ssd130x.h **** {
 145:../../libDaisy//src/dev/oled_ssd130x.h ****   public:
 146:../../libDaisy//src/dev/oled_ssd130x.h ****     struct Config
ARM GAS  /var/folders/1y/_321xjh9623c014x9_qw12rr0000gn/T//ccqHcGuP.s 			page 16


 147:../../libDaisy//src/dev/oled_ssd130x.h ****     {
 148:../../libDaisy//src/dev/oled_ssd130x.h ****         Config()
 149:../../libDaisy//src/dev/oled_ssd130x.h ****         {
 150:../../libDaisy//src/dev/oled_ssd130x.h ****             // Initialize using defaults
 151:../../libDaisy//src/dev/oled_ssd130x.h ****             Defaults();
 152:../../libDaisy//src/dev/oled_ssd130x.h ****         }
 153:../../libDaisy//src/dev/oled_ssd130x.h ****         struct
 154:../../libDaisy//src/dev/oled_ssd130x.h ****         {
 155:../../libDaisy//src/dev/oled_ssd130x.h ****             uint32_t     sclk_delay;
 156:../../libDaisy//src/dev/oled_ssd130x.h ****             dsy_gpio_pin sclk;
 157:../../libDaisy//src/dev/oled_ssd130x.h ****             dsy_gpio_pin mosi;
 158:../../libDaisy//src/dev/oled_ssd130x.h ****             dsy_gpio_pin dc;
 159:../../libDaisy//src/dev/oled_ssd130x.h ****             dsy_gpio_pin reset;
 160:../../libDaisy//src/dev/oled_ssd130x.h ****         } pin_config;
 161:../../libDaisy//src/dev/oled_ssd130x.h ****         void Defaults()
 162:../../libDaisy//src/dev/oled_ssd130x.h ****         {
 163:../../libDaisy//src/dev/oled_ssd130x.h ****             pin_config.sclk_delay = 0; // fast as possible?!
 164:../../libDaisy//src/dev/oled_ssd130x.h ****             // SPI peripheral config
 165:../../libDaisy//src/dev/oled_ssd130x.h ****             pin_config.sclk = {DSY_GPIOD, 3}; /**< D10 - SPI2 SCK  */
 166:../../libDaisy//src/dev/oled_ssd130x.h ****             pin_config.mosi = {DSY_GPIOC, 3}; /**< D9  - SPI2 MOSI */
 167:../../libDaisy//src/dev/oled_ssd130x.h ****             // SSD130x control pin config
 168:../../libDaisy//src/dev/oled_ssd130x.h ****             pin_config.dc    = {DSY_GPIOC, 11}; //D2
 169:../../libDaisy//src/dev/oled_ssd130x.h ****             pin_config.reset = {DSY_GPIOC, 10}; //D3
 170:../../libDaisy//src/dev/oled_ssd130x.h ****         }
 171:../../libDaisy//src/dev/oled_ssd130x.h ****     };
 172:../../libDaisy//src/dev/oled_ssd130x.h ****     void Init(const Config& config)
 173:../../libDaisy//src/dev/oled_ssd130x.h ****     {
 174:../../libDaisy//src/dev/oled_ssd130x.h ****         // Initialize both GPIO
 175:../../libDaisy//src/dev/oled_ssd130x.h ****         pin_sclk_.mode = DSY_GPIO_MODE_OUTPUT_PP;
 176:../../libDaisy//src/dev/oled_ssd130x.h ****         pin_sclk_.pin  = config.pin_config.sclk;
 177:../../libDaisy//src/dev/oled_ssd130x.h ****         dsy_gpio_init(&pin_sclk_);
 178:../../libDaisy//src/dev/oled_ssd130x.h ****         dsy_gpio_write(&pin_sclk_, 1); //ClockPolarity::LOW
 179:../../libDaisy//src/dev/oled_ssd130x.h ****         clk_delay      = config.pin_config.sclk_delay;
 180:../../libDaisy//src/dev/oled_ssd130x.h ****         pin_mosi_.mode = DSY_GPIO_MODE_OUTPUT_PP;
 181:../../libDaisy//src/dev/oled_ssd130x.h ****         pin_mosi_.pin  = config.pin_config.mosi;
 182:../../libDaisy//src/dev/oled_ssd130x.h ****         dsy_gpio_init(&pin_mosi_);
 183:../../libDaisy//src/dev/oled_ssd130x.h ****         dsy_gpio_write(&pin_mosi_, 0);
 184:../../libDaisy//src/dev/oled_ssd130x.h **** 
 185:../../libDaisy//src/dev/oled_ssd130x.h ****         pin_dc_.mode = DSY_GPIO_MODE_OUTPUT_PP;
 186:../../libDaisy//src/dev/oled_ssd130x.h ****         pin_dc_.pin  = config.pin_config.dc;
 187:../../libDaisy//src/dev/oled_ssd130x.h ****         dsy_gpio_init(&pin_dc_);
 188:../../libDaisy//src/dev/oled_ssd130x.h ****         pin_reset_.mode = DSY_GPIO_MODE_OUTPUT_PP;
 189:../../libDaisy//src/dev/oled_ssd130x.h ****         pin_reset_.pin  = config.pin_config.reset;
 190:../../libDaisy//src/dev/oled_ssd130x.h ****         dsy_gpio_init(&pin_reset_);
 191:../../libDaisy//src/dev/oled_ssd130x.h **** 
 192:../../libDaisy//src/dev/oled_ssd130x.h ****         // Reset and Configure OLED.
 193:../../libDaisy//src/dev/oled_ssd130x.h ****         dsy_gpio_write(&pin_reset_, 0);
 194:../../libDaisy//src/dev/oled_ssd130x.h ****         System::Delay(10);
 195:../../libDaisy//src/dev/oled_ssd130x.h ****         dsy_gpio_write(&pin_reset_, 1);
 196:../../libDaisy//src/dev/oled_ssd130x.h ****         System::Delay(10);
 197:../../libDaisy//src/dev/oled_ssd130x.h ****     };
 198:../../libDaisy//src/dev/oled_ssd130x.h ****     void SendCommand(uint8_t cmd)
 199:../../libDaisy//src/dev/oled_ssd130x.h ****     {
 200:../../libDaisy//src/dev/oled_ssd130x.h ****         dsy_gpio_write(&pin_dc_, 0);
 201:../../libDaisy//src/dev/oled_ssd130x.h ****         SoftSpiTransmit(cmd);
 202:../../libDaisy//src/dev/oled_ssd130x.h ****     };
 203:../../libDaisy//src/dev/oled_ssd130x.h **** 
ARM GAS  /var/folders/1y/_321xjh9623c014x9_qw12rr0000gn/T//ccqHcGuP.s 			page 17


 204:../../libDaisy//src/dev/oled_ssd130x.h ****     void SendData(uint8_t* buff, size_t size)
 205:../../libDaisy//src/dev/oled_ssd130x.h ****     {
 206:../../libDaisy//src/dev/oled_ssd130x.h ****         dsy_gpio_write(&pin_dc_, 1);
 207:../../libDaisy//src/dev/oled_ssd130x.h ****         for(size_t i = 0; i < size; i++)
 208:../../libDaisy//src/dev/oled_ssd130x.h ****             SoftSpiTransmit(buff[i]);
 209:../../libDaisy//src/dev/oled_ssd130x.h ****     };
 210:../../libDaisy//src/dev/oled_ssd130x.h **** 
 211:../../libDaisy//src/dev/oled_ssd130x.h ****   private:
 212:../../libDaisy//src/dev/oled_ssd130x.h ****     void SoftSpiTransmit(uint8_t val)
 213:../../libDaisy//src/dev/oled_ssd130x.h ****     {
 214:../../libDaisy//src/dev/oled_ssd130x.h ****         // bit flip
 215:../../libDaisy//src/dev/oled_ssd130x.h ****         val = ((val & 0x01) << 7) | ((val & 0x02) << 5) | ((val & 0x04) << 3)
 216:../../libDaisy//src/dev/oled_ssd130x.h ****               | ((val & 0x08) << 1) | ((val & 0x10) >> 1) | ((val & 0x20) >> 3)
 217:../../libDaisy//src/dev/oled_ssd130x.h ****               | ((val & 0x40) >> 5) | ((val & 0x80) >> 7);
 218:../../libDaisy//src/dev/oled_ssd130x.h **** 
 219:../../libDaisy//src/dev/oled_ssd130x.h ****         for(uint8_t bit = 0u; bit < 8u; bit++)
 220:../../libDaisy//src/dev/oled_ssd130x.h ****         {
 221:../../libDaisy//src/dev/oled_ssd130x.h ****             dsy_gpio_write(&pin_mosi_, ((val & (1 << bit)) ? 1 : 0));
 222:../../libDaisy//src/dev/oled_ssd130x.h **** 
 223:../../libDaisy//src/dev/oled_ssd130x.h ****             System::DelayTicks(clk_delay);
 224:../../libDaisy//src/dev/oled_ssd130x.h **** 
 225:../../libDaisy//src/dev/oled_ssd130x.h ****             dsy_gpio_toggle(&pin_sclk_);
 226:../../libDaisy//src/dev/oled_ssd130x.h **** 
 227:../../libDaisy//src/dev/oled_ssd130x.h ****             System::DelayTicks(clk_delay);
 228:../../libDaisy//src/dev/oled_ssd130x.h **** 
 229:../../libDaisy//src/dev/oled_ssd130x.h ****             dsy_gpio_toggle(&pin_sclk_);
 230:../../libDaisy//src/dev/oled_ssd130x.h ****         }
 231:../../libDaisy//src/dev/oled_ssd130x.h ****     }
 232:../../libDaisy//src/dev/oled_ssd130x.h **** 
 233:../../libDaisy//src/dev/oled_ssd130x.h ****     uint32_t clk_delay;
 234:../../libDaisy//src/dev/oled_ssd130x.h ****     dsy_gpio pin_sclk_;
 235:../../libDaisy//src/dev/oled_ssd130x.h ****     dsy_gpio pin_mosi_;
 236:../../libDaisy//src/dev/oled_ssd130x.h ****     dsy_gpio pin_reset_;
 237:../../libDaisy//src/dev/oled_ssd130x.h ****     dsy_gpio pin_dc_;
 238:../../libDaisy//src/dev/oled_ssd130x.h **** };
 239:../../libDaisy//src/dev/oled_ssd130x.h **** 
 240:../../libDaisy//src/dev/oled_ssd130x.h **** 
 241:../../libDaisy//src/dev/oled_ssd130x.h **** /**
 242:../../libDaisy//src/dev/oled_ssd130x.h ****  * A driver implementation for the SSD1306/SSD1309
 243:../../libDaisy//src/dev/oled_ssd130x.h ****  */
 244:../../libDaisy//src/dev/oled_ssd130x.h **** template <size_t width, size_t height, typename Transport>
 245:../../libDaisy//src/dev/oled_ssd130x.h **** class SSD130xDriver
 246:../../libDaisy//src/dev/oled_ssd130x.h **** {
 247:../../libDaisy//src/dev/oled_ssd130x.h ****   public:
 248:../../libDaisy//src/dev/oled_ssd130x.h ****     struct Config
 249:../../libDaisy//src/dev/oled_ssd130x.h ****     {
 250:../../libDaisy//src/dev/oled_ssd130x.h ****         typename Transport::Config transport_config;
 251:../../libDaisy//src/dev/oled_ssd130x.h ****     };
 252:../../libDaisy//src/dev/oled_ssd130x.h **** 
 253:../../libDaisy//src/dev/oled_ssd130x.h ****     void Init(Config config)
 254:../../libDaisy//src/dev/oled_ssd130x.h ****     {
 255:../../libDaisy//src/dev/oled_ssd130x.h ****         transport_.Init(config.transport_config);
 256:../../libDaisy//src/dev/oled_ssd130x.h **** 
 257:../../libDaisy//src/dev/oled_ssd130x.h ****         // Init routine...
 258:../../libDaisy//src/dev/oled_ssd130x.h **** 
 259:../../libDaisy//src/dev/oled_ssd130x.h ****         // Display Off
 260:../../libDaisy//src/dev/oled_ssd130x.h ****         transport_.SendCommand(0xaE);
ARM GAS  /var/folders/1y/_321xjh9623c014x9_qw12rr0000gn/T//ccqHcGuP.s 			page 18


 261:../../libDaisy//src/dev/oled_ssd130x.h ****         // Dimension dependent commands...
 262:../../libDaisy//src/dev/oled_ssd130x.h ****         switch(height)
 263:../../libDaisy//src/dev/oled_ssd130x.h ****         {
 264:../../libDaisy//src/dev/oled_ssd130x.h ****             case 16:
 265:../../libDaisy//src/dev/oled_ssd130x.h ****                 // Display Clock Divide Ratio
 266:../../libDaisy//src/dev/oled_ssd130x.h ****                 transport_.SendCommand(0xD5);
 267:../../libDaisy//src/dev/oled_ssd130x.h ****                 transport_.SendCommand(0x60);
 268:../../libDaisy//src/dev/oled_ssd130x.h ****                 // Multiplex Ratio
 269:../../libDaisy//src/dev/oled_ssd130x.h ****                 transport_.SendCommand(0xA8);
 270:../../libDaisy//src/dev/oled_ssd130x.h ****                 transport_.SendCommand(0x0F);
 271:../../libDaisy//src/dev/oled_ssd130x.h ****                 // COM Pins
 272:../../libDaisy//src/dev/oled_ssd130x.h ****                 transport_.SendCommand(0xDA);
 273:../../libDaisy//src/dev/oled_ssd130x.h ****                 transport_.SendCommand(0x02);
 274:../../libDaisy//src/dev/oled_ssd130x.h ****                 break;
 275:../../libDaisy//src/dev/oled_ssd130x.h ****             case 32:
 276:../../libDaisy//src/dev/oled_ssd130x.h ****                 // Display Clock Divide Ratio
 277:../../libDaisy//src/dev/oled_ssd130x.h ****                 transport_.SendCommand(0xD5);
 278:../../libDaisy//src/dev/oled_ssd130x.h ****                 transport_.SendCommand(0x80);
 279:../../libDaisy//src/dev/oled_ssd130x.h ****                 // Multiplex Ratio
 280:../../libDaisy//src/dev/oled_ssd130x.h ****                 transport_.SendCommand(0xA8);
 281:../../libDaisy//src/dev/oled_ssd130x.h ****                 transport_.SendCommand(0x1F);
 282:../../libDaisy//src/dev/oled_ssd130x.h ****                 // COM Pins
 283:../../libDaisy//src/dev/oled_ssd130x.h ****                 transport_.SendCommand(0xDA);
 284:../../libDaisy//src/dev/oled_ssd130x.h ****                 if(width == 64)
 285:../../libDaisy//src/dev/oled_ssd130x.h ****                 {
 286:../../libDaisy//src/dev/oled_ssd130x.h ****                     transport_.SendCommand(0x12);
 287:../../libDaisy//src/dev/oled_ssd130x.h ****                 }
 288:../../libDaisy//src/dev/oled_ssd130x.h ****                 else
 289:../../libDaisy//src/dev/oled_ssd130x.h ****                 {
 290:../../libDaisy//src/dev/oled_ssd130x.h ****                     transport_.SendCommand(0x02);
 291:../../libDaisy//src/dev/oled_ssd130x.h ****                 }
 292:../../libDaisy//src/dev/oled_ssd130x.h **** 
 293:../../libDaisy//src/dev/oled_ssd130x.h ****                 break;
 294:../../libDaisy//src/dev/oled_ssd130x.h ****             case 48:
 295:../../libDaisy//src/dev/oled_ssd130x.h ****                 // Display Clock Divide Ratio
 296:../../libDaisy//src/dev/oled_ssd130x.h ****                 transport_.SendCommand(0xD5);
 297:../../libDaisy//src/dev/oled_ssd130x.h ****                 transport_.SendCommand(0x80);
 298:../../libDaisy//src/dev/oled_ssd130x.h ****                 // Multiplex Ratio
 299:../../libDaisy//src/dev/oled_ssd130x.h ****                 transport_.SendCommand(0xA8);
 300:../../libDaisy//src/dev/oled_ssd130x.h ****                 transport_.SendCommand(0x2F);
 301:../../libDaisy//src/dev/oled_ssd130x.h ****                 // COM Pins
 302:../../libDaisy//src/dev/oled_ssd130x.h ****                 transport_.SendCommand(0xDA);
 303:../../libDaisy//src/dev/oled_ssd130x.h ****                 transport_.SendCommand(0x12);
 304:../../libDaisy//src/dev/oled_ssd130x.h ****                 break;
 305:../../libDaisy//src/dev/oled_ssd130x.h ****             default: // 128
 306:../../libDaisy//src/dev/oled_ssd130x.h ****                 // Display Clock Divide Ratio
 307:../../libDaisy//src/dev/oled_ssd130x.h ****                 transport_.SendCommand(0xD5);
 308:../../libDaisy//src/dev/oled_ssd130x.h ****                 transport_.SendCommand(0x80);
 309:../../libDaisy//src/dev/oled_ssd130x.h ****                 // Multiplex Ratio
 310:../../libDaisy//src/dev/oled_ssd130x.h ****                 transport_.SendCommand(0xA8);
 311:../../libDaisy//src/dev/oled_ssd130x.h ****                 transport_.SendCommand(0x3F);
 312:../../libDaisy//src/dev/oled_ssd130x.h ****                 // COM Pins
 313:../../libDaisy//src/dev/oled_ssd130x.h ****                 transport_.SendCommand(0xDA);
 314:../../libDaisy//src/dev/oled_ssd130x.h ****                 transport_.SendCommand(0x12);
 315:../../libDaisy//src/dev/oled_ssd130x.h ****                 break;
 316:../../libDaisy//src/dev/oled_ssd130x.h ****         }
 317:../../libDaisy//src/dev/oled_ssd130x.h **** 
ARM GAS  /var/folders/1y/_321xjh9623c014x9_qw12rr0000gn/T//ccqHcGuP.s 			page 19


 318:../../libDaisy//src/dev/oled_ssd130x.h ****         // Display Offset
 319:../../libDaisy//src/dev/oled_ssd130x.h ****         transport_.SendCommand(0xD3);
 320:../../libDaisy//src/dev/oled_ssd130x.h ****         transport_.SendCommand(0x00);
 321:../../libDaisy//src/dev/oled_ssd130x.h ****         // Start Line Address
 322:../../libDaisy//src/dev/oled_ssd130x.h ****         transport_.SendCommand(0x40);
 323:../../libDaisy//src/dev/oled_ssd130x.h ****         // Normal Display
 324:../../libDaisy//src/dev/oled_ssd130x.h ****         transport_.SendCommand(0xA6);
 325:../../libDaisy//src/dev/oled_ssd130x.h ****         // All On Resume
 326:../../libDaisy//src/dev/oled_ssd130x.h ****         transport_.SendCommand(0xA4);
 327:../../libDaisy//src/dev/oled_ssd130x.h ****         // Charge Pump
 328:../../libDaisy//src/dev/oled_ssd130x.h ****         transport_.SendCommand(0x8D);
 329:../../libDaisy//src/dev/oled_ssd130x.h ****         transport_.SendCommand(0x14);
 330:../../libDaisy//src/dev/oled_ssd130x.h ****         // Set Segment Remap
 331:../../libDaisy//src/dev/oled_ssd130x.h ****         transport_.SendCommand(0xA1);
 332:../../libDaisy//src/dev/oled_ssd130x.h ****         // COM Output Scan Direction
 333:../../libDaisy//src/dev/oled_ssd130x.h ****         transport_.SendCommand(0xC8);
 334:../../libDaisy//src/dev/oled_ssd130x.h ****         // Contrast Control
 335:../../libDaisy//src/dev/oled_ssd130x.h ****         transport_.SendCommand(0x81);
 336:../../libDaisy//src/dev/oled_ssd130x.h ****         transport_.SendCommand(0x8F);
 337:../../libDaisy//src/dev/oled_ssd130x.h ****         // Pre Charge
 338:../../libDaisy//src/dev/oled_ssd130x.h ****         transport_.SendCommand(0xD9);
 339:../../libDaisy//src/dev/oled_ssd130x.h ****         transport_.SendCommand(0x25);
 340:../../libDaisy//src/dev/oled_ssd130x.h ****         // VCOM Detect
 341:../../libDaisy//src/dev/oled_ssd130x.h ****         transport_.SendCommand(0xDB);
 342:../../libDaisy//src/dev/oled_ssd130x.h ****         transport_.SendCommand(0x34);
 343:../../libDaisy//src/dev/oled_ssd130x.h **** 
 344:../../libDaisy//src/dev/oled_ssd130x.h **** 
 345:../../libDaisy//src/dev/oled_ssd130x.h ****         // Display On
 346:../../libDaisy//src/dev/oled_ssd130x.h ****         transport_.SendCommand(0xAF); //--turn on oled panel
 347:../../libDaisy//src/dev/oled_ssd130x.h ****     };
 348:../../libDaisy//src/dev/oled_ssd130x.h **** 
 349:../../libDaisy//src/dev/oled_ssd130x.h ****     size_t Width() const { return width; };
 350:../../libDaisy//src/dev/oled_ssd130x.h ****     size_t Height() const { return height; };
 351:../../libDaisy//src/dev/oled_ssd130x.h **** 
 352:../../libDaisy//src/dev/oled_ssd130x.h ****     void DrawPixel(uint_fast8_t x, uint_fast8_t y, bool on)
 141              		.loc 4 352 10 view .LVU20
 142              	.LBB272:
 143              	.LBI272:
 144              		.loc 4 352 10 view .LVU21
 145              	.LBB273:
 353:../../libDaisy//src/dev/oled_ssd130x.h ****     {
 354:../../libDaisy//src/dev/oled_ssd130x.h ****         if(x >= width || y >= height)
 355:../../libDaisy//src/dev/oled_ssd130x.h ****             return;
 356:../../libDaisy//src/dev/oled_ssd130x.h ****         if(on)
 357:../../libDaisy//src/dev/oled_ssd130x.h ****             buffer_[x + (y / 8) * width] |= (1 << (y % 8));
 358:../../libDaisy//src/dev/oled_ssd130x.h ****         else
 359:../../libDaisy//src/dev/oled_ssd130x.h ****             buffer_[x + (y / 8) * width] &= ~(1 << (y % 8));
 146              		.loc 4 359 28 is_stmt 0 view .LVU22
 147 0014 D308     		lsrs	r3, r2, #3
 148              		.loc 4 359 55 view .LVU23
 149 0016 02F00701 		and	r1, r2, #7
 150              		.loc 4 359 49 view .LVU24
 151 001a 0124     		movs	r4, #1
 152              		.loc 4 359 42 view .LVU25
 153 001c 05EBC313 		add	r3, r5, r3, lsl #7
 154              		.loc 4 359 49 view .LVU26
 155 0020 04FA01F0 		lsl	r0, r4, r1
ARM GAS  /var/folders/1y/_321xjh9623c014x9_qw12rr0000gn/T//ccqHcGuP.s 			page 20


 156              	.LBE273:
 157              	.LBE272:
 158              	.LBE271:
 159              	.LBE270:
 160              		.loc 3 268 17 view .LVU27
 161 0024 2244     		add	r2, r2, r4
 162              	.LVL8:
 163              	.LBB280:
 164              	.LBB278:
 165              	.LBB276:
 166              	.LBB274:
 167              		.loc 4 359 42 view .LVU28
 168 0026 5344     		add	r3, r3, r10
 169              	.LBE274:
 170              	.LBE276:
 171              	.LBE278:
 172              	.LBE280:
 173              		.loc 3 268 44 view .LVU29
 174 0028 342A     		cmp	r2, #52
 175              	.LBB281:
 176              	.LBB279:
 177              	.LBB277:
 178              	.LBB275:
 179              		.loc 4 359 42 view .LVU30
 180 002a 93F86414 		ldrb	r1, [r3, #1124]	@ zero_extendqisi2
 181 002e 21EA0001 		bic	r1, r1, r0
 182 0032 83F86414 		strb	r1, [r3, #1124]
 183              	.LVL9:
 184              		.loc 4 359 42 view .LVU31
 185              	.LBE275:
 186              	.LBE277:
 187              	.LBE279:
 188              	.LBE281:
 189              		.loc 3 268 17 is_stmt 1 view .LVU32
 190              		.loc 3 268 44 view .LVU33
 191 0036 EDD1     		bne	.L5
 192              	.LBE269:
 266:../../libDaisy//src/hid/disp/display.h ****             {
 193              		.loc 3 266 13 view .LVU34
 194 0038 2544     		add	r5, r5, r4
 195              	.LVL10:
 266:../../libDaisy//src/hid/disp/display.h ****             {
 196              		.loc 3 266 40 view .LVU35
 197 003a 7F2D     		cmp	r5, #127
 198 003c E9D1     		bne	.L6
 199 003e 0023     		movs	r3, #0
 200 0040 0AF51072 		add	r2, r10, #576
 201              	.LVL11:
 266:../../libDaisy//src/hid/disp/display.h ****             {
 202              		.loc 3 266 40 is_stmt 0 view .LVU36
 203 0044 A146     		mov	r9, r4
 204              	.LBE283:
 205              	.LBE285:
 206              	.LBE287:
 261:Dubby.cpp     ****         int prev_x = 0;
 262:Dubby.cpp     ****         int prev_y = (OLED_HEIGHT - 15) / 2;
 207              		.loc 2 262 13 view .LVU37
ARM GAS  /var/folders/1y/_321xjh9623c014x9_qw12rr0000gn/T//ccqHcGuP.s 			page 21


 208 0046 1826     		movs	r6, #24
 209              	.LBB288:
 210              	.LBB286:
 211              	.LBB284:
 266:../../libDaisy//src/hid/disp/display.h ****             {
 212              		.loc 3 266 40 view .LVU38
 213 0048 0193     		str	r3, [sp, #4]
 214 004a 0492     		str	r2, [sp, #16]
 215 004c 06E0     		b	.L21
 216              	.LVL12:
 217              	.L9:
 266:../../libDaisy//src/hid/disp/display.h ****             {
 218              		.loc 3 266 40 view .LVU39
 219 004e 019B     		ldr	r3, [sp, #4]
 220 0050 09F10109 		add	r9, r9, #1
 221              	.LVL13:
 222              	.LBB282:
 223              		.loc 3 268 34 view .LVU40
 224 0054 2646     		mov	r6, r4
 225 0056 7E33     		adds	r3, r3, #126
 226 0058 0193     		str	r3, [sp, #4]
 227              	.LBE282:
 228              	.LBE284:
 229              	.LBE286:
 230              	.LBE288:
 231              	.LBB289:
 232              	.LBB290:
 263:Dubby.cpp     ****         for(size_t i = 0; i < AUDIO_BLOCK_SIZE; i++)
 264:Dubby.cpp     ****         {
 265:Dubby.cpp     ****             int y = 1 + std::min(std::max((OLED_HEIGHT - 15) / 2
 266:Dubby.cpp     ****                                         - int(scope_buffer[i] * 150),
 267:Dubby.cpp     ****                                     0),
 268:Dubby.cpp     ****                             OLED_HEIGHT - 15);
 269:Dubby.cpp     ****             int x = 1 + i * (OLED_WIDTH - 2) / AUDIO_BLOCK_SIZE;
 270:Dubby.cpp     ****             if(i != 0)
 271:Dubby.cpp     ****             {
 272:Dubby.cpp     ****                 display.DrawLine(prev_x, prev_y, x, y, true);
 273:Dubby.cpp     ****             }
 274:Dubby.cpp     ****             prev_x = x;
 233              		.loc 2 274 20 view .LVU41
 234 005a 2B46     		mov	r3, r5
 235              	.LVL14:
 236              	.L21:
 265:Dubby.cpp     ****                                         - int(scope_buffer[i] * 150),
 237              		.loc 2 265 13 is_stmt 1 view .LVU42
 238              	.LBB291:
 239              	.LBI291:
 240              		.file 5 "/Library/DaisyToolchain/0.2.0/arm/arm-none-eabi/include/c++/10.3.1/bits/stl_algobase.h"
   1:/Library/DaisyToolchain/0.2.0/arm/arm-none-eabi/include/c++/10.3.1/bits/stl_algobase.h **** // Core algorithmic facilities -*- C++ -*-
   2:/Library/DaisyToolchain/0.2.0/arm/arm-none-eabi/include/c++/10.3.1/bits/stl_algobase.h **** 
   3:/Library/DaisyToolchain/0.2.0/arm/arm-none-eabi/include/c++/10.3.1/bits/stl_algobase.h **** // Copyright (C) 2001-2020 Free Software Foundation, Inc.
   4:/Library/DaisyToolchain/0.2.0/arm/arm-none-eabi/include/c++/10.3.1/bits/stl_algobase.h **** //
   5:/Library/DaisyToolchain/0.2.0/arm/arm-none-eabi/include/c++/10.3.1/bits/stl_algobase.h **** // This file is part of the GNU ISO C++ Library.  This library is free
   6:/Library/DaisyToolchain/0.2.0/arm/arm-none-eabi/include/c++/10.3.1/bits/stl_algobase.h **** // software; you can redistribute it and/or modify it under the
   7:/Library/DaisyToolchain/0.2.0/arm/arm-none-eabi/include/c++/10.3.1/bits/stl_algobase.h **** // terms of the GNU General Public License as published by the
   8:/Library/DaisyToolchain/0.2.0/arm/arm-none-eabi/include/c++/10.3.1/bits/stl_algobase.h **** // Free Software Foundation; either version 3, or (at your option)
   9:/Library/DaisyToolchain/0.2.0/arm/arm-none-eabi/include/c++/10.3.1/bits/stl_algobase.h **** // any later version.
ARM GAS  /var/folders/1y/_321xjh9623c014x9_qw12rr0000gn/T//ccqHcGuP.s 			page 22


  10:/Library/DaisyToolchain/0.2.0/arm/arm-none-eabi/include/c++/10.3.1/bits/stl_algobase.h **** 
  11:/Library/DaisyToolchain/0.2.0/arm/arm-none-eabi/include/c++/10.3.1/bits/stl_algobase.h **** // This library is distributed in the hope that it will be useful,
  12:/Library/DaisyToolchain/0.2.0/arm/arm-none-eabi/include/c++/10.3.1/bits/stl_algobase.h **** // but WITHOUT ANY WARRANTY; without even the implied warranty of
  13:/Library/DaisyToolchain/0.2.0/arm/arm-none-eabi/include/c++/10.3.1/bits/stl_algobase.h **** // MERCHANTABILITY or FITNESS FOR A PARTICULAR PURPOSE.  See the
  14:/Library/DaisyToolchain/0.2.0/arm/arm-none-eabi/include/c++/10.3.1/bits/stl_algobase.h **** // GNU General Public License for more details.
  15:/Library/DaisyToolchain/0.2.0/arm/arm-none-eabi/include/c++/10.3.1/bits/stl_algobase.h **** 
  16:/Library/DaisyToolchain/0.2.0/arm/arm-none-eabi/include/c++/10.3.1/bits/stl_algobase.h **** // Under Section 7 of GPL version 3, you are granted additional
  17:/Library/DaisyToolchain/0.2.0/arm/arm-none-eabi/include/c++/10.3.1/bits/stl_algobase.h **** // permissions described in the GCC Runtime Library Exception, version
  18:/Library/DaisyToolchain/0.2.0/arm/arm-none-eabi/include/c++/10.3.1/bits/stl_algobase.h **** // 3.1, as published by the Free Software Foundation.
  19:/Library/DaisyToolchain/0.2.0/arm/arm-none-eabi/include/c++/10.3.1/bits/stl_algobase.h **** 
  20:/Library/DaisyToolchain/0.2.0/arm/arm-none-eabi/include/c++/10.3.1/bits/stl_algobase.h **** // You should have received a copy of the GNU General Public License and
  21:/Library/DaisyToolchain/0.2.0/arm/arm-none-eabi/include/c++/10.3.1/bits/stl_algobase.h **** // a copy of the GCC Runtime Library Exception along with this program;
  22:/Library/DaisyToolchain/0.2.0/arm/arm-none-eabi/include/c++/10.3.1/bits/stl_algobase.h **** // see the files COPYING3 and COPYING.RUNTIME respectively.  If not, see
  23:/Library/DaisyToolchain/0.2.0/arm/arm-none-eabi/include/c++/10.3.1/bits/stl_algobase.h **** // <http://www.gnu.org/licenses/>.
  24:/Library/DaisyToolchain/0.2.0/arm/arm-none-eabi/include/c++/10.3.1/bits/stl_algobase.h **** 
  25:/Library/DaisyToolchain/0.2.0/arm/arm-none-eabi/include/c++/10.3.1/bits/stl_algobase.h **** /*
  26:/Library/DaisyToolchain/0.2.0/arm/arm-none-eabi/include/c++/10.3.1/bits/stl_algobase.h ****  *
  27:/Library/DaisyToolchain/0.2.0/arm/arm-none-eabi/include/c++/10.3.1/bits/stl_algobase.h ****  * Copyright (c) 1994
  28:/Library/DaisyToolchain/0.2.0/arm/arm-none-eabi/include/c++/10.3.1/bits/stl_algobase.h ****  * Hewlett-Packard Company
  29:/Library/DaisyToolchain/0.2.0/arm/arm-none-eabi/include/c++/10.3.1/bits/stl_algobase.h ****  *
  30:/Library/DaisyToolchain/0.2.0/arm/arm-none-eabi/include/c++/10.3.1/bits/stl_algobase.h ****  * Permission to use, copy, modify, distribute and sell this software
  31:/Library/DaisyToolchain/0.2.0/arm/arm-none-eabi/include/c++/10.3.1/bits/stl_algobase.h ****  * and its documentation for any purpose is hereby granted without fee,
  32:/Library/DaisyToolchain/0.2.0/arm/arm-none-eabi/include/c++/10.3.1/bits/stl_algobase.h ****  * provided that the above copyright notice appear in all copies and
  33:/Library/DaisyToolchain/0.2.0/arm/arm-none-eabi/include/c++/10.3.1/bits/stl_algobase.h ****  * that both that copyright notice and this permission notice appear
  34:/Library/DaisyToolchain/0.2.0/arm/arm-none-eabi/include/c++/10.3.1/bits/stl_algobase.h ****  * in supporting documentation.  Hewlett-Packard Company makes no
  35:/Library/DaisyToolchain/0.2.0/arm/arm-none-eabi/include/c++/10.3.1/bits/stl_algobase.h ****  * representations about the suitability of this software for any
  36:/Library/DaisyToolchain/0.2.0/arm/arm-none-eabi/include/c++/10.3.1/bits/stl_algobase.h ****  * purpose.  It is provided "as is" without express or implied warranty.
  37:/Library/DaisyToolchain/0.2.0/arm/arm-none-eabi/include/c++/10.3.1/bits/stl_algobase.h ****  *
  38:/Library/DaisyToolchain/0.2.0/arm/arm-none-eabi/include/c++/10.3.1/bits/stl_algobase.h ****  *
  39:/Library/DaisyToolchain/0.2.0/arm/arm-none-eabi/include/c++/10.3.1/bits/stl_algobase.h ****  * Copyright (c) 1996-1998
  40:/Library/DaisyToolchain/0.2.0/arm/arm-none-eabi/include/c++/10.3.1/bits/stl_algobase.h ****  * Silicon Graphics Computer Systems, Inc.
  41:/Library/DaisyToolchain/0.2.0/arm/arm-none-eabi/include/c++/10.3.1/bits/stl_algobase.h ****  *
  42:/Library/DaisyToolchain/0.2.0/arm/arm-none-eabi/include/c++/10.3.1/bits/stl_algobase.h ****  * Permission to use, copy, modify, distribute and sell this software
  43:/Library/DaisyToolchain/0.2.0/arm/arm-none-eabi/include/c++/10.3.1/bits/stl_algobase.h ****  * and its documentation for any purpose is hereby granted without fee,
  44:/Library/DaisyToolchain/0.2.0/arm/arm-none-eabi/include/c++/10.3.1/bits/stl_algobase.h ****  * provided that the above copyright notice appear in all copies and
  45:/Library/DaisyToolchain/0.2.0/arm/arm-none-eabi/include/c++/10.3.1/bits/stl_algobase.h ****  * that both that copyright notice and this permission notice appear
  46:/Library/DaisyToolchain/0.2.0/arm/arm-none-eabi/include/c++/10.3.1/bits/stl_algobase.h ****  * in supporting documentation.  Silicon Graphics makes no
  47:/Library/DaisyToolchain/0.2.0/arm/arm-none-eabi/include/c++/10.3.1/bits/stl_algobase.h ****  * representations about the suitability of this software for any
  48:/Library/DaisyToolchain/0.2.0/arm/arm-none-eabi/include/c++/10.3.1/bits/stl_algobase.h ****  * purpose.  It is provided "as is" without express or implied warranty.
  49:/Library/DaisyToolchain/0.2.0/arm/arm-none-eabi/include/c++/10.3.1/bits/stl_algobase.h ****  */
  50:/Library/DaisyToolchain/0.2.0/arm/arm-none-eabi/include/c++/10.3.1/bits/stl_algobase.h **** 
  51:/Library/DaisyToolchain/0.2.0/arm/arm-none-eabi/include/c++/10.3.1/bits/stl_algobase.h **** /** @file bits/stl_algobase.h
  52:/Library/DaisyToolchain/0.2.0/arm/arm-none-eabi/include/c++/10.3.1/bits/stl_algobase.h ****  *  This is an internal header file, included by other library headers.
  53:/Library/DaisyToolchain/0.2.0/arm/arm-none-eabi/include/c++/10.3.1/bits/stl_algobase.h ****  *  Do not attempt to use it directly. @headername{algorithm}
  54:/Library/DaisyToolchain/0.2.0/arm/arm-none-eabi/include/c++/10.3.1/bits/stl_algobase.h ****  */
  55:/Library/DaisyToolchain/0.2.0/arm/arm-none-eabi/include/c++/10.3.1/bits/stl_algobase.h **** 
  56:/Library/DaisyToolchain/0.2.0/arm/arm-none-eabi/include/c++/10.3.1/bits/stl_algobase.h **** #ifndef _STL_ALGOBASE_H
  57:/Library/DaisyToolchain/0.2.0/arm/arm-none-eabi/include/c++/10.3.1/bits/stl_algobase.h **** #define _STL_ALGOBASE_H 1
  58:/Library/DaisyToolchain/0.2.0/arm/arm-none-eabi/include/c++/10.3.1/bits/stl_algobase.h **** 
  59:/Library/DaisyToolchain/0.2.0/arm/arm-none-eabi/include/c++/10.3.1/bits/stl_algobase.h **** #include <bits/c++config.h>
  60:/Library/DaisyToolchain/0.2.0/arm/arm-none-eabi/include/c++/10.3.1/bits/stl_algobase.h **** #include <bits/functexcept.h>
  61:/Library/DaisyToolchain/0.2.0/arm/arm-none-eabi/include/c++/10.3.1/bits/stl_algobase.h **** #include <bits/cpp_type_traits.h>
  62:/Library/DaisyToolchain/0.2.0/arm/arm-none-eabi/include/c++/10.3.1/bits/stl_algobase.h **** #include <ext/type_traits.h>
  63:/Library/DaisyToolchain/0.2.0/arm/arm-none-eabi/include/c++/10.3.1/bits/stl_algobase.h **** #include <ext/numeric_traits.h>
  64:/Library/DaisyToolchain/0.2.0/arm/arm-none-eabi/include/c++/10.3.1/bits/stl_algobase.h **** #include <bits/stl_pair.h>
  65:/Library/DaisyToolchain/0.2.0/arm/arm-none-eabi/include/c++/10.3.1/bits/stl_algobase.h **** #include <bits/stl_iterator_base_types.h>
  66:/Library/DaisyToolchain/0.2.0/arm/arm-none-eabi/include/c++/10.3.1/bits/stl_algobase.h **** #include <bits/stl_iterator_base_funcs.h>
ARM GAS  /var/folders/1y/_321xjh9623c014x9_qw12rr0000gn/T//ccqHcGuP.s 			page 23


  67:/Library/DaisyToolchain/0.2.0/arm/arm-none-eabi/include/c++/10.3.1/bits/stl_algobase.h **** #include <bits/stl_iterator.h>
  68:/Library/DaisyToolchain/0.2.0/arm/arm-none-eabi/include/c++/10.3.1/bits/stl_algobase.h **** #include <bits/concept_check.h>
  69:/Library/DaisyToolchain/0.2.0/arm/arm-none-eabi/include/c++/10.3.1/bits/stl_algobase.h **** #include <debug/debug.h>
  70:/Library/DaisyToolchain/0.2.0/arm/arm-none-eabi/include/c++/10.3.1/bits/stl_algobase.h **** #include <bits/move.h> // For std::swap
  71:/Library/DaisyToolchain/0.2.0/arm/arm-none-eabi/include/c++/10.3.1/bits/stl_algobase.h **** #include <bits/predefined_ops.h>
  72:/Library/DaisyToolchain/0.2.0/arm/arm-none-eabi/include/c++/10.3.1/bits/stl_algobase.h **** #if __cplusplus >= 201103L
  73:/Library/DaisyToolchain/0.2.0/arm/arm-none-eabi/include/c++/10.3.1/bits/stl_algobase.h **** # include <type_traits>
  74:/Library/DaisyToolchain/0.2.0/arm/arm-none-eabi/include/c++/10.3.1/bits/stl_algobase.h **** #endif
  75:/Library/DaisyToolchain/0.2.0/arm/arm-none-eabi/include/c++/10.3.1/bits/stl_algobase.h **** #if __cplusplus > 201703L
  76:/Library/DaisyToolchain/0.2.0/arm/arm-none-eabi/include/c++/10.3.1/bits/stl_algobase.h **** # include <compare>
  77:/Library/DaisyToolchain/0.2.0/arm/arm-none-eabi/include/c++/10.3.1/bits/stl_algobase.h **** #endif
  78:/Library/DaisyToolchain/0.2.0/arm/arm-none-eabi/include/c++/10.3.1/bits/stl_algobase.h **** 
  79:/Library/DaisyToolchain/0.2.0/arm/arm-none-eabi/include/c++/10.3.1/bits/stl_algobase.h **** namespace std _GLIBCXX_VISIBILITY(default)
  80:/Library/DaisyToolchain/0.2.0/arm/arm-none-eabi/include/c++/10.3.1/bits/stl_algobase.h **** {
  81:/Library/DaisyToolchain/0.2.0/arm/arm-none-eabi/include/c++/10.3.1/bits/stl_algobase.h **** _GLIBCXX_BEGIN_NAMESPACE_VERSION
  82:/Library/DaisyToolchain/0.2.0/arm/arm-none-eabi/include/c++/10.3.1/bits/stl_algobase.h **** 
  83:/Library/DaisyToolchain/0.2.0/arm/arm-none-eabi/include/c++/10.3.1/bits/stl_algobase.h ****   /*
  84:/Library/DaisyToolchain/0.2.0/arm/arm-none-eabi/include/c++/10.3.1/bits/stl_algobase.h ****    * A constexpr wrapper for __builtin_memcmp.
  85:/Library/DaisyToolchain/0.2.0/arm/arm-none-eabi/include/c++/10.3.1/bits/stl_algobase.h ****    * @param __num The number of elements of type _Tp (not bytes).
  86:/Library/DaisyToolchain/0.2.0/arm/arm-none-eabi/include/c++/10.3.1/bits/stl_algobase.h ****    */
  87:/Library/DaisyToolchain/0.2.0/arm/arm-none-eabi/include/c++/10.3.1/bits/stl_algobase.h ****   template<typename _Tp, typename _Up>
  88:/Library/DaisyToolchain/0.2.0/arm/arm-none-eabi/include/c++/10.3.1/bits/stl_algobase.h ****     _GLIBCXX14_CONSTEXPR
  89:/Library/DaisyToolchain/0.2.0/arm/arm-none-eabi/include/c++/10.3.1/bits/stl_algobase.h ****     inline int
  90:/Library/DaisyToolchain/0.2.0/arm/arm-none-eabi/include/c++/10.3.1/bits/stl_algobase.h ****     __memcmp(const _Tp* __first1, const _Up* __first2, size_t __num)
  91:/Library/DaisyToolchain/0.2.0/arm/arm-none-eabi/include/c++/10.3.1/bits/stl_algobase.h ****     {
  92:/Library/DaisyToolchain/0.2.0/arm/arm-none-eabi/include/c++/10.3.1/bits/stl_algobase.h **** #if __cplusplus >= 201103L
  93:/Library/DaisyToolchain/0.2.0/arm/arm-none-eabi/include/c++/10.3.1/bits/stl_algobase.h ****       static_assert(sizeof(_Tp) == sizeof(_Up), "can be compared with memcmp");
  94:/Library/DaisyToolchain/0.2.0/arm/arm-none-eabi/include/c++/10.3.1/bits/stl_algobase.h **** #endif
  95:/Library/DaisyToolchain/0.2.0/arm/arm-none-eabi/include/c++/10.3.1/bits/stl_algobase.h **** #ifdef __cpp_lib_is_constant_evaluated
  96:/Library/DaisyToolchain/0.2.0/arm/arm-none-eabi/include/c++/10.3.1/bits/stl_algobase.h ****       if (std::is_constant_evaluated())
  97:/Library/DaisyToolchain/0.2.0/arm/arm-none-eabi/include/c++/10.3.1/bits/stl_algobase.h **** 	{
  98:/Library/DaisyToolchain/0.2.0/arm/arm-none-eabi/include/c++/10.3.1/bits/stl_algobase.h **** 	  for(; __num > 0; ++__first1, ++__first2, --__num)
  99:/Library/DaisyToolchain/0.2.0/arm/arm-none-eabi/include/c++/10.3.1/bits/stl_algobase.h **** 	    if (*__first1 != *__first2)
 100:/Library/DaisyToolchain/0.2.0/arm/arm-none-eabi/include/c++/10.3.1/bits/stl_algobase.h **** 	      return *__first1 < *__first2 ? -1 : 1;
 101:/Library/DaisyToolchain/0.2.0/arm/arm-none-eabi/include/c++/10.3.1/bits/stl_algobase.h **** 	  return 0;
 102:/Library/DaisyToolchain/0.2.0/arm/arm-none-eabi/include/c++/10.3.1/bits/stl_algobase.h **** 	}
 103:/Library/DaisyToolchain/0.2.0/arm/arm-none-eabi/include/c++/10.3.1/bits/stl_algobase.h ****       else
 104:/Library/DaisyToolchain/0.2.0/arm/arm-none-eabi/include/c++/10.3.1/bits/stl_algobase.h **** #endif
 105:/Library/DaisyToolchain/0.2.0/arm/arm-none-eabi/include/c++/10.3.1/bits/stl_algobase.h **** 	return __builtin_memcmp(__first1, __first2, sizeof(_Tp) * __num);
 106:/Library/DaisyToolchain/0.2.0/arm/arm-none-eabi/include/c++/10.3.1/bits/stl_algobase.h ****     }
 107:/Library/DaisyToolchain/0.2.0/arm/arm-none-eabi/include/c++/10.3.1/bits/stl_algobase.h **** 
 108:/Library/DaisyToolchain/0.2.0/arm/arm-none-eabi/include/c++/10.3.1/bits/stl_algobase.h **** #if __cplusplus < 201103L
 109:/Library/DaisyToolchain/0.2.0/arm/arm-none-eabi/include/c++/10.3.1/bits/stl_algobase.h ****   // See http://gcc.gnu.org/ml/libstdc++/2004-08/msg00167.html: in a
 110:/Library/DaisyToolchain/0.2.0/arm/arm-none-eabi/include/c++/10.3.1/bits/stl_algobase.h ****   // nutshell, we are partially implementing the resolution of DR 187,
 111:/Library/DaisyToolchain/0.2.0/arm/arm-none-eabi/include/c++/10.3.1/bits/stl_algobase.h ****   // when it's safe, i.e., the value_types are equal.
 112:/Library/DaisyToolchain/0.2.0/arm/arm-none-eabi/include/c++/10.3.1/bits/stl_algobase.h ****   template<bool _BoolType>
 113:/Library/DaisyToolchain/0.2.0/arm/arm-none-eabi/include/c++/10.3.1/bits/stl_algobase.h ****     struct __iter_swap
 114:/Library/DaisyToolchain/0.2.0/arm/arm-none-eabi/include/c++/10.3.1/bits/stl_algobase.h ****     {
 115:/Library/DaisyToolchain/0.2.0/arm/arm-none-eabi/include/c++/10.3.1/bits/stl_algobase.h ****       template<typename _ForwardIterator1, typename _ForwardIterator2>
 116:/Library/DaisyToolchain/0.2.0/arm/arm-none-eabi/include/c++/10.3.1/bits/stl_algobase.h **** 	static void
 117:/Library/DaisyToolchain/0.2.0/arm/arm-none-eabi/include/c++/10.3.1/bits/stl_algobase.h **** 	iter_swap(_ForwardIterator1 __a, _ForwardIterator2 __b)
 118:/Library/DaisyToolchain/0.2.0/arm/arm-none-eabi/include/c++/10.3.1/bits/stl_algobase.h **** 	{
 119:/Library/DaisyToolchain/0.2.0/arm/arm-none-eabi/include/c++/10.3.1/bits/stl_algobase.h **** 	  typedef typename iterator_traits<_ForwardIterator1>::value_type
 120:/Library/DaisyToolchain/0.2.0/arm/arm-none-eabi/include/c++/10.3.1/bits/stl_algobase.h **** 	    _ValueType1;
 121:/Library/DaisyToolchain/0.2.0/arm/arm-none-eabi/include/c++/10.3.1/bits/stl_algobase.h **** 	  _ValueType1 __tmp = *__a;
 122:/Library/DaisyToolchain/0.2.0/arm/arm-none-eabi/include/c++/10.3.1/bits/stl_algobase.h **** 	  *__a = *__b;
 123:/Library/DaisyToolchain/0.2.0/arm/arm-none-eabi/include/c++/10.3.1/bits/stl_algobase.h **** 	  *__b = __tmp;
ARM GAS  /var/folders/1y/_321xjh9623c014x9_qw12rr0000gn/T//ccqHcGuP.s 			page 24


 124:/Library/DaisyToolchain/0.2.0/arm/arm-none-eabi/include/c++/10.3.1/bits/stl_algobase.h **** 	}
 125:/Library/DaisyToolchain/0.2.0/arm/arm-none-eabi/include/c++/10.3.1/bits/stl_algobase.h ****     };
 126:/Library/DaisyToolchain/0.2.0/arm/arm-none-eabi/include/c++/10.3.1/bits/stl_algobase.h **** 
 127:/Library/DaisyToolchain/0.2.0/arm/arm-none-eabi/include/c++/10.3.1/bits/stl_algobase.h ****   template<>
 128:/Library/DaisyToolchain/0.2.0/arm/arm-none-eabi/include/c++/10.3.1/bits/stl_algobase.h ****     struct __iter_swap<true>
 129:/Library/DaisyToolchain/0.2.0/arm/arm-none-eabi/include/c++/10.3.1/bits/stl_algobase.h ****     {
 130:/Library/DaisyToolchain/0.2.0/arm/arm-none-eabi/include/c++/10.3.1/bits/stl_algobase.h ****       template<typename _ForwardIterator1, typename _ForwardIterator2>
 131:/Library/DaisyToolchain/0.2.0/arm/arm-none-eabi/include/c++/10.3.1/bits/stl_algobase.h **** 	static void
 132:/Library/DaisyToolchain/0.2.0/arm/arm-none-eabi/include/c++/10.3.1/bits/stl_algobase.h **** 	iter_swap(_ForwardIterator1 __a, _ForwardIterator2 __b)
 133:/Library/DaisyToolchain/0.2.0/arm/arm-none-eabi/include/c++/10.3.1/bits/stl_algobase.h **** 	{
 134:/Library/DaisyToolchain/0.2.0/arm/arm-none-eabi/include/c++/10.3.1/bits/stl_algobase.h **** 	  swap(*__a, *__b);
 135:/Library/DaisyToolchain/0.2.0/arm/arm-none-eabi/include/c++/10.3.1/bits/stl_algobase.h **** 	}
 136:/Library/DaisyToolchain/0.2.0/arm/arm-none-eabi/include/c++/10.3.1/bits/stl_algobase.h ****     };
 137:/Library/DaisyToolchain/0.2.0/arm/arm-none-eabi/include/c++/10.3.1/bits/stl_algobase.h **** #endif // C++03
 138:/Library/DaisyToolchain/0.2.0/arm/arm-none-eabi/include/c++/10.3.1/bits/stl_algobase.h **** 
 139:/Library/DaisyToolchain/0.2.0/arm/arm-none-eabi/include/c++/10.3.1/bits/stl_algobase.h ****   /**
 140:/Library/DaisyToolchain/0.2.0/arm/arm-none-eabi/include/c++/10.3.1/bits/stl_algobase.h ****    *  @brief Swaps the contents of two iterators.
 141:/Library/DaisyToolchain/0.2.0/arm/arm-none-eabi/include/c++/10.3.1/bits/stl_algobase.h ****    *  @ingroup mutating_algorithms
 142:/Library/DaisyToolchain/0.2.0/arm/arm-none-eabi/include/c++/10.3.1/bits/stl_algobase.h ****    *  @param  __a  An iterator.
 143:/Library/DaisyToolchain/0.2.0/arm/arm-none-eabi/include/c++/10.3.1/bits/stl_algobase.h ****    *  @param  __b  Another iterator.
 144:/Library/DaisyToolchain/0.2.0/arm/arm-none-eabi/include/c++/10.3.1/bits/stl_algobase.h ****    *  @return   Nothing.
 145:/Library/DaisyToolchain/0.2.0/arm/arm-none-eabi/include/c++/10.3.1/bits/stl_algobase.h ****    *
 146:/Library/DaisyToolchain/0.2.0/arm/arm-none-eabi/include/c++/10.3.1/bits/stl_algobase.h ****    *  This function swaps the values pointed to by two iterators, not the
 147:/Library/DaisyToolchain/0.2.0/arm/arm-none-eabi/include/c++/10.3.1/bits/stl_algobase.h ****    *  iterators themselves.
 148:/Library/DaisyToolchain/0.2.0/arm/arm-none-eabi/include/c++/10.3.1/bits/stl_algobase.h ****   */
 149:/Library/DaisyToolchain/0.2.0/arm/arm-none-eabi/include/c++/10.3.1/bits/stl_algobase.h ****   template<typename _ForwardIterator1, typename _ForwardIterator2>
 150:/Library/DaisyToolchain/0.2.0/arm/arm-none-eabi/include/c++/10.3.1/bits/stl_algobase.h ****     _GLIBCXX20_CONSTEXPR
 151:/Library/DaisyToolchain/0.2.0/arm/arm-none-eabi/include/c++/10.3.1/bits/stl_algobase.h ****     inline void
 152:/Library/DaisyToolchain/0.2.0/arm/arm-none-eabi/include/c++/10.3.1/bits/stl_algobase.h ****     iter_swap(_ForwardIterator1 __a, _ForwardIterator2 __b)
 153:/Library/DaisyToolchain/0.2.0/arm/arm-none-eabi/include/c++/10.3.1/bits/stl_algobase.h ****     {
 154:/Library/DaisyToolchain/0.2.0/arm/arm-none-eabi/include/c++/10.3.1/bits/stl_algobase.h ****       // concept requirements
 155:/Library/DaisyToolchain/0.2.0/arm/arm-none-eabi/include/c++/10.3.1/bits/stl_algobase.h ****       __glibcxx_function_requires(_Mutable_ForwardIteratorConcept<
 156:/Library/DaisyToolchain/0.2.0/arm/arm-none-eabi/include/c++/10.3.1/bits/stl_algobase.h **** 				  _ForwardIterator1>)
 157:/Library/DaisyToolchain/0.2.0/arm/arm-none-eabi/include/c++/10.3.1/bits/stl_algobase.h ****       __glibcxx_function_requires(_Mutable_ForwardIteratorConcept<
 158:/Library/DaisyToolchain/0.2.0/arm/arm-none-eabi/include/c++/10.3.1/bits/stl_algobase.h **** 				  _ForwardIterator2>)
 159:/Library/DaisyToolchain/0.2.0/arm/arm-none-eabi/include/c++/10.3.1/bits/stl_algobase.h **** 
 160:/Library/DaisyToolchain/0.2.0/arm/arm-none-eabi/include/c++/10.3.1/bits/stl_algobase.h **** #if __cplusplus < 201103L
 161:/Library/DaisyToolchain/0.2.0/arm/arm-none-eabi/include/c++/10.3.1/bits/stl_algobase.h ****       typedef typename iterator_traits<_ForwardIterator1>::value_type
 162:/Library/DaisyToolchain/0.2.0/arm/arm-none-eabi/include/c++/10.3.1/bits/stl_algobase.h **** 	_ValueType1;
 163:/Library/DaisyToolchain/0.2.0/arm/arm-none-eabi/include/c++/10.3.1/bits/stl_algobase.h ****       typedef typename iterator_traits<_ForwardIterator2>::value_type
 164:/Library/DaisyToolchain/0.2.0/arm/arm-none-eabi/include/c++/10.3.1/bits/stl_algobase.h **** 	_ValueType2;
 165:/Library/DaisyToolchain/0.2.0/arm/arm-none-eabi/include/c++/10.3.1/bits/stl_algobase.h **** 
 166:/Library/DaisyToolchain/0.2.0/arm/arm-none-eabi/include/c++/10.3.1/bits/stl_algobase.h ****       __glibcxx_function_requires(_ConvertibleConcept<_ValueType1,
 167:/Library/DaisyToolchain/0.2.0/arm/arm-none-eabi/include/c++/10.3.1/bits/stl_algobase.h **** 				  _ValueType2>)
 168:/Library/DaisyToolchain/0.2.0/arm/arm-none-eabi/include/c++/10.3.1/bits/stl_algobase.h ****       __glibcxx_function_requires(_ConvertibleConcept<_ValueType2,
 169:/Library/DaisyToolchain/0.2.0/arm/arm-none-eabi/include/c++/10.3.1/bits/stl_algobase.h **** 				  _ValueType1>)
 170:/Library/DaisyToolchain/0.2.0/arm/arm-none-eabi/include/c++/10.3.1/bits/stl_algobase.h **** 
 171:/Library/DaisyToolchain/0.2.0/arm/arm-none-eabi/include/c++/10.3.1/bits/stl_algobase.h ****       typedef typename iterator_traits<_ForwardIterator1>::reference
 172:/Library/DaisyToolchain/0.2.0/arm/arm-none-eabi/include/c++/10.3.1/bits/stl_algobase.h **** 	_ReferenceType1;
 173:/Library/DaisyToolchain/0.2.0/arm/arm-none-eabi/include/c++/10.3.1/bits/stl_algobase.h ****       typedef typename iterator_traits<_ForwardIterator2>::reference
 174:/Library/DaisyToolchain/0.2.0/arm/arm-none-eabi/include/c++/10.3.1/bits/stl_algobase.h **** 	_ReferenceType2;
 175:/Library/DaisyToolchain/0.2.0/arm/arm-none-eabi/include/c++/10.3.1/bits/stl_algobase.h ****       std::__iter_swap<__are_same<_ValueType1, _ValueType2>::__value
 176:/Library/DaisyToolchain/0.2.0/arm/arm-none-eabi/include/c++/10.3.1/bits/stl_algobase.h **** 	&& __are_same<_ValueType1&, _ReferenceType1>::__value
 177:/Library/DaisyToolchain/0.2.0/arm/arm-none-eabi/include/c++/10.3.1/bits/stl_algobase.h **** 	&& __are_same<_ValueType2&, _ReferenceType2>::__value>::
 178:/Library/DaisyToolchain/0.2.0/arm/arm-none-eabi/include/c++/10.3.1/bits/stl_algobase.h **** 	iter_swap(__a, __b);
 179:/Library/DaisyToolchain/0.2.0/arm/arm-none-eabi/include/c++/10.3.1/bits/stl_algobase.h **** #else
 180:/Library/DaisyToolchain/0.2.0/arm/arm-none-eabi/include/c++/10.3.1/bits/stl_algobase.h ****       // _GLIBCXX_RESOLVE_LIB_DEFECTS
ARM GAS  /var/folders/1y/_321xjh9623c014x9_qw12rr0000gn/T//ccqHcGuP.s 			page 25


 181:/Library/DaisyToolchain/0.2.0/arm/arm-none-eabi/include/c++/10.3.1/bits/stl_algobase.h ****       // 187. iter_swap underspecified
 182:/Library/DaisyToolchain/0.2.0/arm/arm-none-eabi/include/c++/10.3.1/bits/stl_algobase.h ****       swap(*__a, *__b);
 183:/Library/DaisyToolchain/0.2.0/arm/arm-none-eabi/include/c++/10.3.1/bits/stl_algobase.h **** #endif
 184:/Library/DaisyToolchain/0.2.0/arm/arm-none-eabi/include/c++/10.3.1/bits/stl_algobase.h ****     }
 185:/Library/DaisyToolchain/0.2.0/arm/arm-none-eabi/include/c++/10.3.1/bits/stl_algobase.h **** 
 186:/Library/DaisyToolchain/0.2.0/arm/arm-none-eabi/include/c++/10.3.1/bits/stl_algobase.h ****   /**
 187:/Library/DaisyToolchain/0.2.0/arm/arm-none-eabi/include/c++/10.3.1/bits/stl_algobase.h ****    *  @brief Swap the elements of two sequences.
 188:/Library/DaisyToolchain/0.2.0/arm/arm-none-eabi/include/c++/10.3.1/bits/stl_algobase.h ****    *  @ingroup mutating_algorithms
 189:/Library/DaisyToolchain/0.2.0/arm/arm-none-eabi/include/c++/10.3.1/bits/stl_algobase.h ****    *  @param  __first1  A forward iterator.
 190:/Library/DaisyToolchain/0.2.0/arm/arm-none-eabi/include/c++/10.3.1/bits/stl_algobase.h ****    *  @param  __last1   A forward iterator.
 191:/Library/DaisyToolchain/0.2.0/arm/arm-none-eabi/include/c++/10.3.1/bits/stl_algobase.h ****    *  @param  __first2  A forward iterator.
 192:/Library/DaisyToolchain/0.2.0/arm/arm-none-eabi/include/c++/10.3.1/bits/stl_algobase.h ****    *  @return   An iterator equal to @p first2+(last1-first1).
 193:/Library/DaisyToolchain/0.2.0/arm/arm-none-eabi/include/c++/10.3.1/bits/stl_algobase.h ****    *
 194:/Library/DaisyToolchain/0.2.0/arm/arm-none-eabi/include/c++/10.3.1/bits/stl_algobase.h ****    *  Swaps each element in the range @p [first1,last1) with the
 195:/Library/DaisyToolchain/0.2.0/arm/arm-none-eabi/include/c++/10.3.1/bits/stl_algobase.h ****    *  corresponding element in the range @p [first2,(last1-first1)).
 196:/Library/DaisyToolchain/0.2.0/arm/arm-none-eabi/include/c++/10.3.1/bits/stl_algobase.h ****    *  The ranges must not overlap.
 197:/Library/DaisyToolchain/0.2.0/arm/arm-none-eabi/include/c++/10.3.1/bits/stl_algobase.h ****   */
 198:/Library/DaisyToolchain/0.2.0/arm/arm-none-eabi/include/c++/10.3.1/bits/stl_algobase.h ****   template<typename _ForwardIterator1, typename _ForwardIterator2>
 199:/Library/DaisyToolchain/0.2.0/arm/arm-none-eabi/include/c++/10.3.1/bits/stl_algobase.h ****     _GLIBCXX20_CONSTEXPR
 200:/Library/DaisyToolchain/0.2.0/arm/arm-none-eabi/include/c++/10.3.1/bits/stl_algobase.h ****     _ForwardIterator2
 201:/Library/DaisyToolchain/0.2.0/arm/arm-none-eabi/include/c++/10.3.1/bits/stl_algobase.h ****     swap_ranges(_ForwardIterator1 __first1, _ForwardIterator1 __last1,
 202:/Library/DaisyToolchain/0.2.0/arm/arm-none-eabi/include/c++/10.3.1/bits/stl_algobase.h **** 		_ForwardIterator2 __first2)
 203:/Library/DaisyToolchain/0.2.0/arm/arm-none-eabi/include/c++/10.3.1/bits/stl_algobase.h ****     {
 204:/Library/DaisyToolchain/0.2.0/arm/arm-none-eabi/include/c++/10.3.1/bits/stl_algobase.h ****       // concept requirements
 205:/Library/DaisyToolchain/0.2.0/arm/arm-none-eabi/include/c++/10.3.1/bits/stl_algobase.h ****       __glibcxx_function_requires(_Mutable_ForwardIteratorConcept<
 206:/Library/DaisyToolchain/0.2.0/arm/arm-none-eabi/include/c++/10.3.1/bits/stl_algobase.h **** 				  _ForwardIterator1>)
 207:/Library/DaisyToolchain/0.2.0/arm/arm-none-eabi/include/c++/10.3.1/bits/stl_algobase.h ****       __glibcxx_function_requires(_Mutable_ForwardIteratorConcept<
 208:/Library/DaisyToolchain/0.2.0/arm/arm-none-eabi/include/c++/10.3.1/bits/stl_algobase.h **** 				  _ForwardIterator2>)
 209:/Library/DaisyToolchain/0.2.0/arm/arm-none-eabi/include/c++/10.3.1/bits/stl_algobase.h ****       __glibcxx_requires_valid_range(__first1, __last1);
 210:/Library/DaisyToolchain/0.2.0/arm/arm-none-eabi/include/c++/10.3.1/bits/stl_algobase.h **** 
 211:/Library/DaisyToolchain/0.2.0/arm/arm-none-eabi/include/c++/10.3.1/bits/stl_algobase.h ****       for (; __first1 != __last1; ++__first1, (void)++__first2)
 212:/Library/DaisyToolchain/0.2.0/arm/arm-none-eabi/include/c++/10.3.1/bits/stl_algobase.h **** 	std::iter_swap(__first1, __first2);
 213:/Library/DaisyToolchain/0.2.0/arm/arm-none-eabi/include/c++/10.3.1/bits/stl_algobase.h ****       return __first2;
 214:/Library/DaisyToolchain/0.2.0/arm/arm-none-eabi/include/c++/10.3.1/bits/stl_algobase.h ****     }
 215:/Library/DaisyToolchain/0.2.0/arm/arm-none-eabi/include/c++/10.3.1/bits/stl_algobase.h **** 
 216:/Library/DaisyToolchain/0.2.0/arm/arm-none-eabi/include/c++/10.3.1/bits/stl_algobase.h ****   /**
 217:/Library/DaisyToolchain/0.2.0/arm/arm-none-eabi/include/c++/10.3.1/bits/stl_algobase.h ****    *  @brief This does what you think it does.
 218:/Library/DaisyToolchain/0.2.0/arm/arm-none-eabi/include/c++/10.3.1/bits/stl_algobase.h ****    *  @ingroup sorting_algorithms
 219:/Library/DaisyToolchain/0.2.0/arm/arm-none-eabi/include/c++/10.3.1/bits/stl_algobase.h ****    *  @param  __a  A thing of arbitrary type.
 220:/Library/DaisyToolchain/0.2.0/arm/arm-none-eabi/include/c++/10.3.1/bits/stl_algobase.h ****    *  @param  __b  Another thing of arbitrary type.
 221:/Library/DaisyToolchain/0.2.0/arm/arm-none-eabi/include/c++/10.3.1/bits/stl_algobase.h ****    *  @return   The lesser of the parameters.
 222:/Library/DaisyToolchain/0.2.0/arm/arm-none-eabi/include/c++/10.3.1/bits/stl_algobase.h ****    *
 223:/Library/DaisyToolchain/0.2.0/arm/arm-none-eabi/include/c++/10.3.1/bits/stl_algobase.h ****    *  This is the simple classic generic implementation.  It will work on
 224:/Library/DaisyToolchain/0.2.0/arm/arm-none-eabi/include/c++/10.3.1/bits/stl_algobase.h ****    *  temporary expressions, since they are only evaluated once, unlike a
 225:/Library/DaisyToolchain/0.2.0/arm/arm-none-eabi/include/c++/10.3.1/bits/stl_algobase.h ****    *  preprocessor macro.
 226:/Library/DaisyToolchain/0.2.0/arm/arm-none-eabi/include/c++/10.3.1/bits/stl_algobase.h ****   */
 227:/Library/DaisyToolchain/0.2.0/arm/arm-none-eabi/include/c++/10.3.1/bits/stl_algobase.h ****   template<typename _Tp>
 228:/Library/DaisyToolchain/0.2.0/arm/arm-none-eabi/include/c++/10.3.1/bits/stl_algobase.h ****     _GLIBCXX14_CONSTEXPR
 229:/Library/DaisyToolchain/0.2.0/arm/arm-none-eabi/include/c++/10.3.1/bits/stl_algobase.h ****     inline const _Tp&
 230:/Library/DaisyToolchain/0.2.0/arm/arm-none-eabi/include/c++/10.3.1/bits/stl_algobase.h ****     min(const _Tp& __a, const _Tp& __b)
 231:/Library/DaisyToolchain/0.2.0/arm/arm-none-eabi/include/c++/10.3.1/bits/stl_algobase.h ****     {
 232:/Library/DaisyToolchain/0.2.0/arm/arm-none-eabi/include/c++/10.3.1/bits/stl_algobase.h ****       // concept requirements
 233:/Library/DaisyToolchain/0.2.0/arm/arm-none-eabi/include/c++/10.3.1/bits/stl_algobase.h ****       __glibcxx_function_requires(_LessThanComparableConcept<_Tp>)
 234:/Library/DaisyToolchain/0.2.0/arm/arm-none-eabi/include/c++/10.3.1/bits/stl_algobase.h ****       //return __b < __a ? __b : __a;
 235:/Library/DaisyToolchain/0.2.0/arm/arm-none-eabi/include/c++/10.3.1/bits/stl_algobase.h ****       if (__b < __a)
 236:/Library/DaisyToolchain/0.2.0/arm/arm-none-eabi/include/c++/10.3.1/bits/stl_algobase.h **** 	return __b;
 237:/Library/DaisyToolchain/0.2.0/arm/arm-none-eabi/include/c++/10.3.1/bits/stl_algobase.h ****       return __a;
ARM GAS  /var/folders/1y/_321xjh9623c014x9_qw12rr0000gn/T//ccqHcGuP.s 			page 26


 238:/Library/DaisyToolchain/0.2.0/arm/arm-none-eabi/include/c++/10.3.1/bits/stl_algobase.h ****     }
 239:/Library/DaisyToolchain/0.2.0/arm/arm-none-eabi/include/c++/10.3.1/bits/stl_algobase.h **** 
 240:/Library/DaisyToolchain/0.2.0/arm/arm-none-eabi/include/c++/10.3.1/bits/stl_algobase.h ****   /**
 241:/Library/DaisyToolchain/0.2.0/arm/arm-none-eabi/include/c++/10.3.1/bits/stl_algobase.h ****    *  @brief This does what you think it does.
 242:/Library/DaisyToolchain/0.2.0/arm/arm-none-eabi/include/c++/10.3.1/bits/stl_algobase.h ****    *  @ingroup sorting_algorithms
 243:/Library/DaisyToolchain/0.2.0/arm/arm-none-eabi/include/c++/10.3.1/bits/stl_algobase.h ****    *  @param  __a  A thing of arbitrary type.
 244:/Library/DaisyToolchain/0.2.0/arm/arm-none-eabi/include/c++/10.3.1/bits/stl_algobase.h ****    *  @param  __b  Another thing of arbitrary type.
 245:/Library/DaisyToolchain/0.2.0/arm/arm-none-eabi/include/c++/10.3.1/bits/stl_algobase.h ****    *  @return   The greater of the parameters.
 246:/Library/DaisyToolchain/0.2.0/arm/arm-none-eabi/include/c++/10.3.1/bits/stl_algobase.h ****    *
 247:/Library/DaisyToolchain/0.2.0/arm/arm-none-eabi/include/c++/10.3.1/bits/stl_algobase.h ****    *  This is the simple classic generic implementation.  It will work on
 248:/Library/DaisyToolchain/0.2.0/arm/arm-none-eabi/include/c++/10.3.1/bits/stl_algobase.h ****    *  temporary expressions, since they are only evaluated once, unlike a
 249:/Library/DaisyToolchain/0.2.0/arm/arm-none-eabi/include/c++/10.3.1/bits/stl_algobase.h ****    *  preprocessor macro.
 250:/Library/DaisyToolchain/0.2.0/arm/arm-none-eabi/include/c++/10.3.1/bits/stl_algobase.h ****   */
 251:/Library/DaisyToolchain/0.2.0/arm/arm-none-eabi/include/c++/10.3.1/bits/stl_algobase.h ****   template<typename _Tp>
 252:/Library/DaisyToolchain/0.2.0/arm/arm-none-eabi/include/c++/10.3.1/bits/stl_algobase.h ****     _GLIBCXX14_CONSTEXPR
 253:/Library/DaisyToolchain/0.2.0/arm/arm-none-eabi/include/c++/10.3.1/bits/stl_algobase.h ****     inline const _Tp&
 254:/Library/DaisyToolchain/0.2.0/arm/arm-none-eabi/include/c++/10.3.1/bits/stl_algobase.h ****     max(const _Tp& __a, const _Tp& __b)
 241              		.loc 5 254 5 view .LVU43
 242              	.LBE291:
 266:Dubby.cpp     ****                                     0),
 243              		.loc 2 266 61 is_stmt 0 view .LVU44
 244 005c 049A     		ldr	r2, [sp, #16]
 266:Dubby.cpp     ****                                     0),
 245              		.loc 2 266 63 view .LVU45
 246 005e 9FED617A 		vldr.32	s14, .L44
 266:Dubby.cpp     ****                                     0),
 247              		.loc 2 266 61 view .LVU46
 248 0062 F2EC017A 		vldmia.32	r2!, {s15}
 266:Dubby.cpp     ****                                     0),
 249              		.loc 2 266 63 view .LVU47
 250 0066 67EE877A 		vmul.f32	s15, s15, s14
 266:Dubby.cpp     ****                                     0),
 251              		.loc 2 266 61 view .LVU48
 252 006a 0492     		str	r2, [sp, #16]
 266:Dubby.cpp     ****                                     0),
 253              		.loc 2 266 43 view .LVU49
 254 006c FDEEE77A 		vcvt.s32.f32	s15, s15
 255              	.LBB294:
 256              	.LBB292:
 255:/Library/DaisyToolchain/0.2.0/arm/arm-none-eabi/include/c++/10.3.1/bits/stl_algobase.h ****     {
 256:/Library/DaisyToolchain/0.2.0/arm/arm-none-eabi/include/c++/10.3.1/bits/stl_algobase.h ****       // concept requirements
 257:/Library/DaisyToolchain/0.2.0/arm/arm-none-eabi/include/c++/10.3.1/bits/stl_algobase.h ****       __glibcxx_function_requires(_LessThanComparableConcept<_Tp>)
 258:/Library/DaisyToolchain/0.2.0/arm/arm-none-eabi/include/c++/10.3.1/bits/stl_algobase.h ****       //return  __a < __b ? __b : __a;
 259:/Library/DaisyToolchain/0.2.0/arm/arm-none-eabi/include/c++/10.3.1/bits/stl_algobase.h ****       if (__a < __b)
 257              		.loc 5 259 7 view .LVU50
 258 0070 17EE902A 		vmov	r2, s15	@ int
 259 0074 D2F11804 		rsbs	r4, r2, #24
 260 0078 00F1AD80 		bmi	.L26
 261              	.LVL15:
 262              		.loc 5 259 7 view .LVU51
 263              	.LBE292:
 264              	.LBE294:
 265              	.LBB295:
 266              	.LBI295:
 230:/Library/DaisyToolchain/0.2.0/arm/arm-none-eabi/include/c++/10.3.1/bits/stl_algobase.h ****     {
 267              		.loc 5 230 5 is_stmt 1 view .LVU52
 268              	.LBB296:
ARM GAS  /var/folders/1y/_321xjh9623c014x9_qw12rr0000gn/T//ccqHcGuP.s 			page 27


 235:/Library/DaisyToolchain/0.2.0/arm/arm-none-eabi/include/c++/10.3.1/bits/stl_algobase.h **** 	return __b;
 269              		.loc 5 235 7 is_stmt 0 view .LVU53
 270 007c 312C     		cmp	r4, #49
 271 007e 40F3AB80 		ble	.L7
 272 0082 3224     		movs	r4, #50
 273              	.LVL16:
 274              	.L8:
 235:/Library/DaisyToolchain/0.2.0/arm/arm-none-eabi/include/c++/10.3.1/bits/stl_algobase.h **** 	return __b;
 275              		.loc 5 235 7 view .LVU54
 276              	.LBE296:
 277              	.LBE295:
 269:Dubby.cpp     ****             if(i != 0)
 278              		.loc 2 269 13 is_stmt 1 view .LVU55
 269:Dubby.cpp     ****             if(i != 0)
 279              		.loc 2 269 46 is_stmt 0 view .LVU56
 280 0084 019A     		ldr	r2, [sp, #4]
 270:Dubby.cpp     ****             {
 281              		.loc 2 270 13 view .LVU57
 282 0086 B9F1010F 		cmp	r9, #1
 269:Dubby.cpp     ****             if(i != 0)
 283              		.loc 2 269 46 view .LVU58
 284 008a 4FEAD215 		lsr	r5, r2, #7
 269:Dubby.cpp     ****             if(i != 0)
 285              		.loc 2 269 23 view .LVU59
 286 008e 05F10105 		add	r5, r5, #1
 287              	.LVL17:
 270:Dubby.cpp     ****             {
 288              		.loc 2 270 13 is_stmt 1 view .LVU60
 289 0092 DCD0     		beq	.L9
 272:Dubby.cpp     ****             }
 290              		.loc 2 272 17 view .LVU61
 291              	.LBB297:
 292              	.LBB298:
 227:../../libDaisy//src/hid/disp/display.h ****         int_fast16_t deltaY = abs((int_fast16_t)y2 - (int_fast16_t)y1);
 293              		.loc 3 227 52 is_stmt 0 view .LVU62
 294 0094 EF1A     		subs	r7, r5, r3
 228:../../libDaisy//src/hid/disp/display.h ****         int_fast16_t signX  = ((x1 < x2) ? 1 : -1);
 295              		.loc 3 228 52 view .LVU63
 296 0096 A4EB060E 		sub	lr, r4, r6
 297              	.LBE298:
 298              	.LBE297:
 272:Dubby.cpp     ****             }
 299              		.loc 2 272 33 view .LVU64
 300 009a 1946     		mov	r1, r3
 301 009c 3246     		mov	r2, r6
 302              	.LVL18:
 303              	.LBB317:
 304              	.LBI297:
 221:../../libDaisy//src/hid/disp/display.h ****                   uint_fast8_t y1,
 305              		.loc 3 221 10 is_stmt 1 view .LVU65
 306              	.LBB315:
 227:../../libDaisy//src/hid/disp/display.h ****         int_fast16_t deltaY = abs((int_fast16_t)y2 - (int_fast16_t)y1);
 307              		.loc 3 227 22 is_stmt 0 view .LVU66
 308 009e 002F     		cmp	r7, #0
 309 00a0 B8BF     		it	lt
 310 00a2 7F42     		rsblt	r7, r7, #0
 311              	.LVL19:
ARM GAS  /var/folders/1y/_321xjh9623c014x9_qw12rr0000gn/T//ccqHcGuP.s 			page 28


 228:../../libDaisy//src/hid/disp/display.h ****         int_fast16_t signX  = ((x1 < x2) ? 1 : -1);
 312              		.loc 3 228 22 view .LVU67
 313 00a4 BEF1000F 		cmp	lr, #0
 314 00a8 B8BF     		it	lt
 315 00aa CEF1000E 		rsblt	lr, lr, #0
 316              	.LVL20:
 229:../../libDaisy//src/hid/disp/display.h ****         int_fast16_t signY  = ((y1 < y2) ? 1 : -1);
 317              		.loc 3 229 42 view .LVU68
 318 00ae 9D42     		cmp	r5, r3
 319 00b0 8CBF     		ite	hi
 320 00b2 0120     		movhi	r0, #1
 321 00b4 4FF0FF30 		movls	r0, #-1
 230:../../libDaisy//src/hid/disp/display.h ****         int_fast16_t error  = deltaX - deltaY;
 322              		.loc 3 230 42 view .LVU69
 323 00b8 A642     		cmp	r6, r4
 229:../../libDaisy//src/hid/disp/display.h ****         int_fast16_t signY  = ((y1 < y2) ? 1 : -1);
 324              		.loc 3 229 42 view .LVU70
 325 00ba 0290     		str	r0, [sp, #8]
 326              	.LVL21:
 231:../../libDaisy//src/hid/disp/display.h ****         int_fast16_t error2;
 327              		.loc 3 231 22 view .LVU71
 328 00bc A7EB0E00 		sub	r0, r7, lr
 329              	.LVL22:
 231:../../libDaisy//src/hid/disp/display.h ****         int_fast16_t error2;
 330              		.loc 3 231 22 view .LVU72
 331 00c0 0590     		str	r0, [sp, #20]
 230:../../libDaisy//src/hid/disp/display.h ****         int_fast16_t error  = deltaX - deltaY;
 332              		.loc 3 230 42 view .LVU73
 333 00c2 C0F08B80 		bcc	.L24
 334              	.LVL23:
 335              	.LBB299:
 336              	.LBI299:
 337              		.loc 1 42 10 is_stmt 1 view .LVU74
 338              	.LBB300:
 339              	.LBI300:
 352:../../libDaisy//src/dev/oled_ssd130x.h ****     {
 340              		.loc 4 352 10 view .LVU75
 341              	.LBE300:
 342              	.LBE299:
 230:../../libDaisy//src/hid/disp/display.h ****         int_fast16_t error  = deltaX - deltaY;
 343              		.loc 3 230 42 is_stmt 0 view .LVU76
 344 00c6 4FF0FF30 		mov	r0, #-1
 345              	.LVL24:
 230:../../libDaisy//src/hid/disp/display.h ****         int_fast16_t error  = deltaX - deltaY;
 346              		.loc 3 230 42 view .LVU77
 347 00ca 0390     		str	r0, [sp, #12]
 348              	.LVL25:
 349              	.L23:
 350              	.LBB306:
 351              	.LBB303:
 352              	.LBB301:
 357:../../libDaisy//src/dev/oled_ssd130x.h ****         else
 353              		.loc 4 357 28 view .LVU78
 354 00cc 4FEAD40C 		lsr	ip, r4, #3
 357:../../libDaisy//src/dev/oled_ssd130x.h ****         else
 355              		.loc 4 357 48 view .LVU79
 356 00d0 4FF0010B 		mov	fp, #1
ARM GAS  /var/folders/1y/_321xjh9623c014x9_qw12rr0000gn/T//ccqHcGuP.s 			page 29


 357:../../libDaisy//src/dev/oled_ssd130x.h ****         else
 357              		.loc 4 357 54 view .LVU80
 358 00d4 04F00708 		and	r8, r4, #7
 359              	.LBE301:
 360              	.LBE303:
 361              	.LBE306:
 239:../../libDaisy//src/hid/disp/display.h ****         {
 362              		.loc 3 239 26 view .LVU81
 363 00d8 9D42     		cmp	r5, r3
 364              	.LBB307:
 365              	.LBB304:
 366              	.LBB302:
 357:../../libDaisy//src/dev/oled_ssd130x.h ****         else
 367              		.loc 4 357 42 view .LVU82
 368 00da 05EBCC1C 		add	ip, r5, ip, lsl #7
 357:../../libDaisy//src/dev/oled_ssd130x.h ****         else
 369              		.loc 4 357 48 view .LVU83
 370 00de 0BFA08F8 		lsl	r8, fp, r8
 357:../../libDaisy//src/dev/oled_ssd130x.h ****         else
 371              		.loc 4 357 42 view .LVU84
 372 00e2 D444     		add	ip, ip, r10
 373 00e4 9CF864B4 		ldrb	fp, [ip, #1124]	@ zero_extendqisi2
 374 00e8 48EA0B08 		orr	r8, r8, fp
 375 00ec 8CF86484 		strb	r8, [ip, #1124]
 376              	.LVL26:
 357:../../libDaisy//src/dev/oled_ssd130x.h ****         else
 377              		.loc 4 357 42 view .LVU85
 378              	.LBE302:
 379              	.LBE304:
 380              	.LBE307:
 239:../../libDaisy//src/hid/disp/display.h ****         {
 381              		.loc 3 239 26 is_stmt 1 view .LVU86
 382 00f0 01D1     		bne	.L14
 383 00f2 A642     		cmp	r6, r4
 384 00f4 28D0     		beq	.L12
 385              	.L14:
 386              	.LVL27:
 243:../../libDaisy//src/hid/disp/display.h ****             {
 387              		.loc 3 243 23 is_stmt 0 view .LVU87
 388 00f6 CEF10008 		rsb	r8, lr, #0
 389 00fa 0598     		ldr	r0, [sp, #20]
 390              	.LVL28:
 391              	.L16:
 392              	.LBB308:
 393              	.LBI308:
 394              		.loc 1 42 10 is_stmt 1 view .LVU88
 395              	.LBB309:
 396              	.LBI309:
 352:../../libDaisy//src/dev/oled_ssd130x.h ****     {
 397              		.loc 4 352 10 view .LVU89
 398              	.LBB310:
 357:../../libDaisy//src/dev/oled_ssd130x.h ****         else
 399              		.loc 4 357 48 is_stmt 0 view .LVU90
 400 00fc 4FF0010C 		mov	ip, #1
 357:../../libDaisy//src/dev/oled_ssd130x.h ****         else
 401              		.loc 4 357 28 view .LVU91
 402 0100 D308     		lsrs	r3, r2, #3
ARM GAS  /var/folders/1y/_321xjh9623c014x9_qw12rr0000gn/T//ccqHcGuP.s 			page 30


 357:../../libDaisy//src/dev/oled_ssd130x.h ****         else
 403              		.loc 4 357 54 view .LVU92
 404 0102 02F00706 		and	r6, r2, #7
 354:../../libDaisy//src/dev/oled_ssd130x.h ****             return;
 405              		.loc 4 354 9 view .LVU93
 406 0106 7F29     		cmp	r1, #127
 357:../../libDaisy//src/dev/oled_ssd130x.h ****         else
 407              		.loc 4 357 42 view .LVU94
 408 0108 01EBC313 		add	r3, r1, r3, lsl #7
 409              	.LBE310:
 410              	.LBE309:
 411              	.LBE308:
 242:../../libDaisy//src/hid/disp/display.h ****             if(error2 > -deltaY)
 412              		.loc 3 242 20 view .LVU95
 413 010c 00FA0CFB 		lsl	fp, r0, ip
 414              	.LVL29:
 415              	.LBB313:
 416              	.LBB312:
 417              	.LBB311:
 357:../../libDaisy//src/dev/oled_ssd130x.h ****         else
 418              		.loc 4 357 48 view .LVU96
 419 0110 0CFA06F6 		lsl	r6, ip, r6
 354:../../libDaisy//src/dev/oled_ssd130x.h ****             return;
 420              		.loc 4 354 9 view .LVU97
 421 0114 08D8     		bhi	.L17
 422 0116 3F2A     		cmp	r2, #63
 357:../../libDaisy//src/dev/oled_ssd130x.h ****         else
 423              		.loc 4 357 42 view .LVU98
 424 0118 5344     		add	r3, r3, r10
 354:../../libDaisy//src/dev/oled_ssd130x.h ****             return;
 425              		.loc 4 354 9 view .LVU99
 426 011a 05D8     		bhi	.L17
 357:../../libDaisy//src/dev/oled_ssd130x.h ****         else
 427              		.loc 4 357 42 view .LVU100
 428 011c 93F864C4 		ldrb	ip, [r3, #1124]	@ zero_extendqisi2
 429 0120 46EA0C06 		orr	r6, r6, ip
 430 0124 83F86464 		strb	r6, [r3, #1124]
 431              	.L17:
 357:../../libDaisy//src/dev/oled_ssd130x.h ****         else
 432              		.loc 4 357 42 view .LVU101
 433              	.LBE311:
 434              	.LBE312:
 435              	.LBE313:
 243:../../libDaisy//src/hid/disp/display.h ****             {
 436              		.loc 3 243 13 view .LVU102
 437 0128 B8EB400F 		cmp	r8, r0, lsl #1
 438 012c 03DA     		bge	.L18
 246:../../libDaisy//src/hid/disp/display.h ****             }
 439              		.loc 3 246 20 view .LVU103
 440 012e 029B     		ldr	r3, [sp, #8]
 245:../../libDaisy//src/hid/disp/display.h ****                 x1 += signX;
 441              		.loc 3 245 23 view .LVU104
 442 0130 A0EB0E00 		sub	r0, r0, lr
 443              	.LVL30:
 246:../../libDaisy//src/hid/disp/display.h ****             }
 444              		.loc 3 246 20 view .LVU105
 445 0134 1944     		add	r1, r1, r3
ARM GAS  /var/folders/1y/_321xjh9623c014x9_qw12rr0000gn/T//ccqHcGuP.s 			page 31


 446              	.LVL31:
 447              	.L18:
 249:../../libDaisy//src/hid/disp/display.h ****             {
 448              		.loc 3 249 13 view .LVU106
 449 0136 5F45     		cmp	r7, fp
 450 0138 02DD     		ble	.L19
 252:../../libDaisy//src/hid/disp/display.h ****             }
 451              		.loc 3 252 20 view .LVU107
 452 013a 039B     		ldr	r3, [sp, #12]
 251:../../libDaisy//src/hid/disp/display.h ****                 y1 += signY;
 453              		.loc 3 251 23 view .LVU108
 454 013c 3844     		add	r0, r0, r7
 455              	.LVL32:
 252:../../libDaisy//src/hid/disp/display.h ****             }
 456              		.loc 3 252 20 view .LVU109
 457 013e 1A44     		add	r2, r2, r3
 458              	.LVL33:
 459              	.L19:
 239:../../libDaisy//src/hid/disp/display.h ****         {
 460              		.loc 3 239 26 is_stmt 1 view .LVU110
 461 0140 8D42     		cmp	r5, r1
 462 0142 DBD1     		bne	.L16
 239:../../libDaisy//src/hid/disp/display.h ****         {
 463              		.loc 3 239 26 is_stmt 0 view .LVU111
 464 0144 9442     		cmp	r4, r2
 465 0146 D9D1     		bne	.L16
 466              	.LVL34:
 467              	.L12:
 239:../../libDaisy//src/hid/disp/display.h ****         {
 468              		.loc 3 239 26 view .LVU112
 469              	.LBE315:
 470              	.LBE317:
 471              		.loc 2 274 13 is_stmt 1 view .LVU113
 275:Dubby.cpp     ****             prev_y = y;
 472              		.loc 2 275 13 view .LVU114
 473              		.loc 2 275 13 is_stmt 0 view .LVU115
 474              	.LBE290:
 263:Dubby.cpp     ****         {
 475              		.loc 2 263 9 is_stmt 1 view .LVU116
 263:Dubby.cpp     ****         {
 476              		.loc 2 263 29 view .LVU117
 477 0148 B9F1800F 		cmp	r9, #128
 478 014c 7FF47FAF 		bne	.L9
 479              	.LBE289:
 480              	.LBB321:
 481              	.LBB322:
 482              	.LBB323:
 483              	.LBB324:
 484              	.LBB325:
 124:../../libDaisy//src/dev/oled_ssd130x.h ****         spi_.BlockingTransmit(&cmd, 1);
 485              		.loc 4 124 24 is_stmt 0 view .LVU118
 486 0150 0AF58B67 		add	r7, r10, #1112
 487 0154 0AF58C66 		add	r6, r10, #1120
 488 0158 0AF26444 		addw	r4, r10, #1124
 125:../../libDaisy//src/dev/oled_ssd130x.h ****     };
 489              		.loc 4 125 30 view .LVU119
 490 015c B025     		movs	r5, #176
ARM GAS  /var/folders/1y/_321xjh9623c014x9_qw12rr0000gn/T//ccqHcGuP.s 			page 32


 491              	.LVL35:
 492              	.L22:
 125:../../libDaisy//src/dev/oled_ssd130x.h ****     };
 493              		.loc 4 125 30 view .LVU120
 494 015e 4FF00008 		mov	r8, #0
 124:../../libDaisy//src/dev/oled_ssd130x.h ****         spi_.BlockingTransmit(&cmd, 1);
 495              		.loc 4 124 23 view .LVU121
 496 0162 3046     		mov	r0, r6
 497 0164 8DF81F50 		strb	r5, [sp, #31]
 498              	.LVL36:
 124:../../libDaisy//src/dev/oled_ssd130x.h ****         spi_.BlockingTransmit(&cmd, 1);
 499              		.loc 4 124 23 view .LVU122
 500              	.LBE325:
 501              	.LBI324:
 122:../../libDaisy//src/dev/oled_ssd130x.h ****     {
 502              		.loc 4 122 10 is_stmt 1 view .LVU123
 503              	.LBB326:
 124:../../libDaisy//src/dev/oled_ssd130x.h ****         spi_.BlockingTransmit(&cmd, 1);
 504              		.loc 4 124 9 view .LVU124
 505              	.LBE326:
 506              	.LBE324:
 360:../../libDaisy//src/dev/oled_ssd130x.h ****     }
 361:../../libDaisy//src/dev/oled_ssd130x.h **** 
 362:../../libDaisy//src/dev/oled_ssd130x.h ****     void Fill(bool on)
 363:../../libDaisy//src/dev/oled_ssd130x.h ****     {
 364:../../libDaisy//src/dev/oled_ssd130x.h ****         for(size_t i = 0; i < sizeof(buffer_); i++)
 365:../../libDaisy//src/dev/oled_ssd130x.h ****         {
 366:../../libDaisy//src/dev/oled_ssd130x.h ****             buffer_[i] = on ? 0xff : 0x00;
 367:../../libDaisy//src/dev/oled_ssd130x.h ****         }
 368:../../libDaisy//src/dev/oled_ssd130x.h ****     };
 369:../../libDaisy//src/dev/oled_ssd130x.h **** 
 370:../../libDaisy//src/dev/oled_ssd130x.h ****     /**
 371:../../libDaisy//src/dev/oled_ssd130x.h ****      * Update the display 
 372:../../libDaisy//src/dev/oled_ssd130x.h ****     */
 373:../../libDaisy//src/dev/oled_ssd130x.h ****     void Update()
 374:../../libDaisy//src/dev/oled_ssd130x.h ****     {
 375:../../libDaisy//src/dev/oled_ssd130x.h ****         uint8_t i;
 376:../../libDaisy//src/dev/oled_ssd130x.h ****         uint8_t high_column_addr;
 377:../../libDaisy//src/dev/oled_ssd130x.h ****         switch(height)
 378:../../libDaisy//src/dev/oled_ssd130x.h ****         {
 379:../../libDaisy//src/dev/oled_ssd130x.h ****             case 32: high_column_addr = 0x12; break;
 380:../../libDaisy//src/dev/oled_ssd130x.h **** 
 381:../../libDaisy//src/dev/oled_ssd130x.h ****             default: high_column_addr = 0x10; break;
 382:../../libDaisy//src/dev/oled_ssd130x.h ****         }
 383:../../libDaisy//src/dev/oled_ssd130x.h ****         for(i = 0; i < (height / 8); i++)
 507              		.loc 4 383 22 is_stmt 0 view .LVU125
 508 0168 0135     		adds	r5, r5, #1
 509              	.LVL37:
 510              	.LBB329:
 511              	.LBB327:
 124:../../libDaisy//src/dev/oled_ssd130x.h ****         spi_.BlockingTransmit(&cmd, 1);
 512              		.loc 4 124 23 view .LVU126
 513 016a 4146     		mov	r1, r8
 514 016c FFF7FEFF 		bl	dsy_gpio_write
 515              	.LVL38:
 125:../../libDaisy//src/dev/oled_ssd130x.h ****     };
 516              		.loc 4 125 9 is_stmt 1 view .LVU127
ARM GAS  /var/folders/1y/_321xjh9623c014x9_qw12rr0000gn/T//ccqHcGuP.s 			page 33


 125:../../libDaisy//src/dev/oled_ssd130x.h ****     };
 517              		.loc 4 125 30 is_stmt 0 view .LVU128
 518 0170 6423     		movs	r3, #100
 519 0172 0122     		movs	r2, #1
 520 0174 0DF11F01 		add	r1, sp, #31
 521 0178 3846     		mov	r0, r7
 522              	.LBE327:
 523              	.LBE329:
 524              		.loc 4 383 22 view .LVU129
 525 017a EDB2     		uxtb	r5, r5
 526              	.LBB330:
 527              	.LBB328:
 125:../../libDaisy//src/dev/oled_ssd130x.h ****     };
 528              		.loc 4 125 30 view .LVU130
 529 017c FFF7FEFF 		bl	_ZN5daisy9SpiHandle16BlockingTransmitEPhjm
 530              	.LVL39:
 125:../../libDaisy//src/dev/oled_ssd130x.h ****     };
 531              		.loc 4 125 30 view .LVU131
 532              	.LBE328:
 533              	.LBE330:
 534              	.LBB331:
 535              	.LBB332:
 124:../../libDaisy//src/dev/oled_ssd130x.h ****         spi_.BlockingTransmit(&cmd, 1);
 536              		.loc 4 124 23 view .LVU132
 537 0180 4146     		mov	r1, r8
 538 0182 3046     		mov	r0, r6
 539 0184 8DF81F80 		strb	r8, [sp, #31]
 540              	.LVL40:
 124:../../libDaisy//src/dev/oled_ssd130x.h ****         spi_.BlockingTransmit(&cmd, 1);
 541              		.loc 4 124 23 view .LVU133
 542              	.LBE332:
 543              	.LBI331:
 122:../../libDaisy//src/dev/oled_ssd130x.h ****     {
 544              		.loc 4 122 10 is_stmt 1 view .LVU134
 545              	.LBB333:
 124:../../libDaisy//src/dev/oled_ssd130x.h ****         spi_.BlockingTransmit(&cmd, 1);
 546              		.loc 4 124 9 view .LVU135
 124:../../libDaisy//src/dev/oled_ssd130x.h ****         spi_.BlockingTransmit(&cmd, 1);
 547              		.loc 4 124 23 is_stmt 0 view .LVU136
 548 0188 FFF7FEFF 		bl	dsy_gpio_write
 549              	.LVL41:
 125:../../libDaisy//src/dev/oled_ssd130x.h ****     };
 550              		.loc 4 125 9 is_stmt 1 view .LVU137
 125:../../libDaisy//src/dev/oled_ssd130x.h ****     };
 551              		.loc 4 125 30 is_stmt 0 view .LVU138
 552 018c 0122     		movs	r2, #1
 553 018e 6423     		movs	r3, #100
 554 0190 0DF11F01 		add	r1, sp, #31
 555 0194 3846     		mov	r0, r7
 556 0196 FFF7FEFF 		bl	_ZN5daisy9SpiHandle16BlockingTransmitEPhjm
 557              	.LVL42:
 125:../../libDaisy//src/dev/oled_ssd130x.h ****     };
 558              		.loc 4 125 30 view .LVU139
 559 019a 1023     		movs	r3, #16
 560              	.LBE333:
 561              	.LBE331:
 562              	.LBB334:
ARM GAS  /var/folders/1y/_321xjh9623c014x9_qw12rr0000gn/T//ccqHcGuP.s 			page 34


 563              	.LBB335:
 124:../../libDaisy//src/dev/oled_ssd130x.h ****         spi_.BlockingTransmit(&cmd, 1);
 564              		.loc 4 124 23 view .LVU140
 565 019c 4146     		mov	r1, r8
 566 019e 3046     		mov	r0, r6
 567 01a0 8DF81F30 		strb	r3, [sp, #31]
 568              	.LVL43:
 124:../../libDaisy//src/dev/oled_ssd130x.h ****         spi_.BlockingTransmit(&cmd, 1);
 569              		.loc 4 124 23 view .LVU141
 570              	.LBE335:
 571              	.LBI334:
 122:../../libDaisy//src/dev/oled_ssd130x.h ****     {
 572              		.loc 4 122 10 is_stmt 1 view .LVU142
 573              	.LBB336:
 124:../../libDaisy//src/dev/oled_ssd130x.h ****         spi_.BlockingTransmit(&cmd, 1);
 574              		.loc 4 124 9 view .LVU143
 124:../../libDaisy//src/dev/oled_ssd130x.h ****         spi_.BlockingTransmit(&cmd, 1);
 575              		.loc 4 124 23 is_stmt 0 view .LVU144
 576 01a4 FFF7FEFF 		bl	dsy_gpio_write
 577              	.LVL44:
 125:../../libDaisy//src/dev/oled_ssd130x.h ****     };
 578              		.loc 4 125 9 is_stmt 1 view .LVU145
 125:../../libDaisy//src/dev/oled_ssd130x.h ****     };
 579              		.loc 4 125 30 is_stmt 0 view .LVU146
 580 01a8 6423     		movs	r3, #100
 581 01aa 0122     		movs	r2, #1
 582 01ac 0DF11F01 		add	r1, sp, #31
 583 01b0 3846     		mov	r0, r7
 584 01b2 FFF7FEFF 		bl	_ZN5daisy9SpiHandle16BlockingTransmitEPhjm
 585              	.LVL45:
 125:../../libDaisy//src/dev/oled_ssd130x.h ****     };
 586              		.loc 4 125 30 view .LVU147
 587              	.LBE336:
 588              	.LBE334:
 589              	.LBB337:
 590              	.LBI337:
 128:../../libDaisy//src/dev/oled_ssd130x.h ****     {
 591              		.loc 4 128 10 is_stmt 1 view .LVU148
 592              	.LBB338:
 130:../../libDaisy//src/dev/oled_ssd130x.h ****         spi_.BlockingTransmit(buff, size);
 593              		.loc 4 130 9 view .LVU149
 130:../../libDaisy//src/dev/oled_ssd130x.h ****         spi_.BlockingTransmit(buff, size);
 594              		.loc 4 130 23 is_stmt 0 view .LVU150
 595 01b6 0121     		movs	r1, #1
 596 01b8 3046     		mov	r0, r6
 597 01ba FFF7FEFF 		bl	dsy_gpio_write
 598              	.LVL46:
 131:../../libDaisy//src/dev/oled_ssd130x.h ****     };
 599              		.loc 4 131 9 is_stmt 1 view .LVU151
 131:../../libDaisy//src/dev/oled_ssd130x.h ****     };
 600              		.loc 4 131 30 is_stmt 0 view .LVU152
 601 01be 8022     		movs	r2, #128
 602 01c0 2146     		mov	r1, r4
 603 01c2 6423     		movs	r3, #100
 604 01c4 3846     		mov	r0, r7
 605              	.LBE338:
 606              	.LBE337:
ARM GAS  /var/folders/1y/_321xjh9623c014x9_qw12rr0000gn/T//ccqHcGuP.s 			page 35


 607              		.loc 4 383 22 view .LVU153
 608 01c6 1444     		add	r4, r4, r2
 609              	.LVL47:
 610              	.LBB340:
 611              	.LBB339:
 131:../../libDaisy//src/dev/oled_ssd130x.h ****     };
 612              		.loc 4 131 30 view .LVU154
 613 01c8 FFF7FEFF 		bl	_ZN5daisy9SpiHandle16BlockingTransmitEPhjm
 614              	.LVL48:
 131:../../libDaisy//src/dev/oled_ssd130x.h ****     };
 615              		.loc 4 131 30 view .LVU155
 616              	.LBE339:
 617              	.LBE340:
 618              		.loc 4 383 9 is_stmt 1 view .LVU156
 619              		.loc 4 383 22 view .LVU157
 620 01cc B82D     		cmp	r5, #184
 621 01ce C6D1     		bne	.L22
 622              	.LBE323:
 623              	.LBE322:
 624              	.LBE321:
 625              	.LBE343:
 276:Dubby.cpp     ****         }
 277:Dubby.cpp     **** 
 278:Dubby.cpp     ****         display.Update();
 279:Dubby.cpp     ****     }   
 280:Dubby.cpp     **** }
 626              		.loc 2 280 1 is_stmt 0 view .LVU158
 627 01d0 09B0     		add	sp, sp, #36
 628              		.cfi_remember_state
 629              		.cfi_def_cfa_offset 36
 630              		@ sp needed
 631 01d2 BDE8F08F 		pop	{r4, r5, r6, r7, r8, r9, r10, fp, pc}
 632              	.LVL49:
 633              	.L26:
 634              		.cfi_restore_state
 635              	.LBB344:
 636              	.LBB341:
 637              	.LBB320:
 638              	.LBB318:
 639              	.LBB293:
 640              		.loc 2 280 1 view .LVU159
 641 01d6 0024     		movs	r4, #0
 642              	.LVL50:
 643              	.L7:
 644              		.loc 2 280 1 view .LVU160
 645              	.LBE293:
 646              	.LBE318:
 268:Dubby.cpp     ****             int x = 1 + i * (OLED_WIDTH - 2) / AUDIO_BLOCK_SIZE;
 647              		.loc 2 268 45 view .LVU161
 648 01d8 0134     		adds	r4, r4, #1
 649 01da 53E7     		b	.L8
 650              	.LVL51:
 651              	.L24:
 652              	.LBB319:
 653              	.LBB316:
 654              	.LBB314:
 655              		.loc 1 42 10 is_stmt 1 view .LVU162
ARM GAS  /var/folders/1y/_321xjh9623c014x9_qw12rr0000gn/T//ccqHcGuP.s 			page 36


 656              	.LBB305:
 352:../../libDaisy//src/dev/oled_ssd130x.h ****     {
 657              		.loc 4 352 10 view .LVU163
 658              	.LBE305:
 659              	.LBE314:
 230:../../libDaisy//src/hid/disp/display.h ****         int_fast16_t error  = deltaX - deltaY;
 660              		.loc 3 230 42 is_stmt 0 view .LVU164
 661 01dc 0120     		movs	r0, #1
 662 01de 0390     		str	r0, [sp, #12]
 663 01e0 74E7     		b	.L23
 664              	.L45:
 665 01e2 00BF     		.align	2
 666              	.L44:
 667 01e4 00001643 		.word	1125515264
 668              	.LBE316:
 669              	.LBE319:
 670              	.LBE320:
 671              	.LBE341:
 672              	.LBE344:
 673              		.cfi_endproc
 674              	.LFE2658:
 676              		.section	.text._ZN5daisy5Dubby12InitControlsEv,"ax",%progbits
 677              		.align	1
 678              		.p2align 2,,3
 679              		.global	_ZN5daisy5Dubby12InitControlsEv
 680              		.syntax unified
 681              		.thumb
 682              		.thumb_func
 684              	_ZN5daisy5Dubby12InitControlsEv:
 685              	.LVL52:
 686              	.LFB2569:
  58:Dubby.cpp     ****     AdcChannelConfig cfg[CTRL_LAST];
 687              		.loc 2 58 1 is_stmt 1 view -0
 688              		.cfi_startproc
 689              		@ args = 0, pretend = 0, frame = 136
 690              		@ frame_needed = 0, uses_anonymous_args = 0
  59:Dubby.cpp     **** 
 691              		.loc 2 59 5 view .LVU166
  62:Dubby.cpp     ****     cfg[CTRL_2].InitSingle(seed.GetPin(PIN_KNOB_2));
 692              		.loc 2 62 5 view .LVU167
  58:Dubby.cpp     ****     AdcChannelConfig cfg[CTRL_LAST];
 693              		.loc 2 58 1 is_stmt 0 view .LVU168
 694 0000 F0B5     		push	{r4, r5, r6, r7, lr}
 695              		.cfi_def_cfa_offset 20
 696              		.cfi_offset 4, -20
 697              		.cfi_offset 5, -16
 698              		.cfi_offset 6, -12
 699              		.cfi_offset 7, -8
 700              		.cfi_offset 14, -4
 701 0002 0546     		mov	r5, r0
 702 0004 A3B0     		sub	sp, sp, #140
 703              		.cfi_def_cfa_offset 160
  62:Dubby.cpp     ****     cfg[CTRL_2].InitSingle(seed.GetPin(PIN_KNOB_2));
 704              		.loc 2 62 27 view .LVU169
 705 0006 1220     		movs	r0, #18
 706              	.LVL53:
 707              	.LBB345:
ARM GAS  /var/folders/1y/_321xjh9623c014x9_qw12rr0000gn/T//ccqHcGuP.s 			page 37


  73:Dubby.cpp     ****     {
 708              		.loc 2 73 16 view .LVU170
 709 0008 0024     		movs	r4, #0
 710              	.LBE345:
  62:Dubby.cpp     ****     cfg[CTRL_2].InitSingle(seed.GetPin(PIN_KNOB_2));
 711              		.loc 2 62 27 view .LVU171
 712 000a FFF7FEFF 		bl	_ZN5daisy9DaisySeed6GetPinEh
 713              	.LVL54:
 714 000e 0346     		mov	r3, r0	@ movhi
 715 0010 08A8     		add	r0, sp, #32
  70:Dubby.cpp     **** 
 716              		.loc 2 70 18 view .LVU172
 717 0012 05F13406 		add	r6, r5, #52
  62:Dubby.cpp     ****     cfg[CTRL_2].InitSingle(seed.GetPin(PIN_KNOB_2));
 718              		.loc 2 62 27 view .LVU173
 719 0016 ADF80830 		strh	r3, [sp, #8]	@ movhi
 720              	.LBB346:
  75:Dubby.cpp     ****     }
 721              		.loc 2 75 29 view .LVU174
 722 001a 05F11C07 		add	r7, r5, #28
 723              	.LBE346:
  62:Dubby.cpp     ****     cfg[CTRL_2].InitSingle(seed.GetPin(PIN_KNOB_2));
 724              		.loc 2 62 27 view .LVU175
 725 001e 0299     		ldr	r1, [sp, #8]
 726 0020 05F58E75 		add	r5, r5, #284
 727              	.LVL55:
  62:Dubby.cpp     ****     cfg[CTRL_2].InitSingle(seed.GetPin(PIN_KNOB_2));
 728              		.loc 2 62 27 view .LVU176
 729 0024 FFF7FEFF 		bl	_ZN5daisy16AdcChannelConfig10InitSingleE12dsy_gpio_pin
 730              	.LVL56:
  63:Dubby.cpp     ****     cfg[CTRL_3].InitSingle(seed.GetPin(PIN_KNOB_3));
 731              		.loc 2 63 5 is_stmt 1 view .LVU177
  63:Dubby.cpp     ****     cfg[CTRL_3].InitSingle(seed.GetPin(PIN_KNOB_3));
 732              		.loc 2 63 27 is_stmt 0 view .LVU178
 733 0028 0F20     		movs	r0, #15
 734 002a FFF7FEFF 		bl	_ZN5daisy9DaisySeed6GetPinEh
 735              	.LVL57:
 736 002e 0346     		mov	r3, r0	@ movhi
 737 0030 0DF13100 		add	r0, sp, #49
 738 0034 ADF80C30 		strh	r3, [sp, #12]	@ movhi
 739 0038 0399     		ldr	r1, [sp, #12]
 740 003a FFF7FEFF 		bl	_ZN5daisy16AdcChannelConfig10InitSingleE12dsy_gpio_pin
 741              	.LVL58:
  64:Dubby.cpp     ****     cfg[CTRL_4].InitSingle(seed.GetPin(PIN_KNOB_4));
 742              		.loc 2 64 5 is_stmt 1 view .LVU179
  64:Dubby.cpp     ****     cfg[CTRL_4].InitSingle(seed.GetPin(PIN_KNOB_4));
 743              		.loc 2 64 27 is_stmt 0 view .LVU180
 744 003e 1520     		movs	r0, #21
 745 0040 FFF7FEFF 		bl	_ZN5daisy9DaisySeed6GetPinEh
 746              	.LVL59:
 747 0044 0346     		mov	r3, r0	@ movhi
 748 0046 0DF14200 		add	r0, sp, #66
 749 004a ADF81030 		strh	r3, [sp, #16]	@ movhi
 750 004e 0499     		ldr	r1, [sp, #16]
 751 0050 FFF7FEFF 		bl	_ZN5daisy16AdcChannelConfig10InitSingleE12dsy_gpio_pin
 752              	.LVL60:
  65:Dubby.cpp     ****     cfg[CTRL_5].InitSingle(seed.GetPin(PIN_JS_H));
ARM GAS  /var/folders/1y/_321xjh9623c014x9_qw12rr0000gn/T//ccqHcGuP.s 			page 38


 753              		.loc 2 65 5 is_stmt 1 view .LVU181
  65:Dubby.cpp     ****     cfg[CTRL_5].InitSingle(seed.GetPin(PIN_JS_H));
 754              		.loc 2 65 27 is_stmt 0 view .LVU182
 755 0054 1620     		movs	r0, #22
 756 0056 FFF7FEFF 		bl	_ZN5daisy9DaisySeed6GetPinEh
 757              	.LVL61:
 758 005a 0346     		mov	r3, r0	@ movhi
 759 005c 0DF15300 		add	r0, sp, #83
 760 0060 ADF81430 		strh	r3, [sp, #20]	@ movhi
 761 0064 0599     		ldr	r1, [sp, #20]
 762 0066 FFF7FEFF 		bl	_ZN5daisy16AdcChannelConfig10InitSingleE12dsy_gpio_pin
 763              	.LVL62:
  66:Dubby.cpp     ****     cfg[CTRL_6].InitSingle(seed.GetPin(PIN_JS_V));
 764              		.loc 2 66 5 is_stmt 1 view .LVU183
  66:Dubby.cpp     ****     cfg[CTRL_6].InitSingle(seed.GetPin(PIN_JS_V));
 765              		.loc 2 66 27 is_stmt 0 view .LVU184
 766 006a 1020     		movs	r0, #16
 767 006c FFF7FEFF 		bl	_ZN5daisy9DaisySeed6GetPinEh
 768              	.LVL63:
 769 0070 0346     		mov	r3, r0	@ movhi
 770 0072 19A8     		add	r0, sp, #100
 771 0074 ADF81830 		strh	r3, [sp, #24]	@ movhi
 772 0078 0699     		ldr	r1, [sp, #24]
 773 007a FFF7FEFF 		bl	_ZN5daisy16AdcChannelConfig10InitSingleE12dsy_gpio_pin
 774              	.LVL64:
  67:Dubby.cpp     **** 
 775              		.loc 2 67 5 is_stmt 1 view .LVU185
  67:Dubby.cpp     **** 
 776              		.loc 2 67 27 is_stmt 0 view .LVU186
 777 007e 1420     		movs	r0, #20
 778 0080 FFF7FEFF 		bl	_ZN5daisy9DaisySeed6GetPinEh
 779              	.LVL65:
 780 0084 0346     		mov	r3, r0	@ movhi
 781 0086 0DF17500 		add	r0, sp, #117
 782 008a ADF81C30 		strh	r3, [sp, #28]	@ movhi
 783 008e 0799     		ldr	r1, [sp, #28]
 784 0090 FFF7FEFF 		bl	_ZN5daisy16AdcChannelConfig10InitSingleE12dsy_gpio_pin
 785              	.LVL66:
  70:Dubby.cpp     **** 
 786              		.loc 2 70 5 is_stmt 1 view .LVU187
  70:Dubby.cpp     **** 
 787              		.loc 2 70 18 is_stmt 0 view .LVU188
 788 0094 0423     		movs	r3, #4
 789 0096 0622     		movs	r2, #6
 790 0098 08A9     		add	r1, sp, #32
 791 009a 3046     		mov	r0, r6
 792 009c FFF7FEFF 		bl	_ZN5daisy9AdcHandle4InitEPNS_16AdcChannelConfigEjNS0_12OverSamplingE
 793              	.LVL67:
  73:Dubby.cpp     ****     {
 794              		.loc 2 73 5 is_stmt 1 view .LVU189
 795              	.LBB347:
  73:Dubby.cpp     ****     {
 796              		.loc 2 73 25 view .LVU190
 797              	.L47:
  75:Dubby.cpp     ****     }
 798              		.loc 2 75 9 discriminator 2 view .LVU191
  75:Dubby.cpp     ****     }
ARM GAS  /var/folders/1y/_321xjh9623c014x9_qw12rr0000gn/T//ccqHcGuP.s 			page 39


 799              		.loc 2 75 29 is_stmt 0 discriminator 2 view .LVU192
 800 00a0 E1B2     		uxtb	r1, r4
 801 00a2 3046     		mov	r0, r6
 802 00a4 FFF7FEFF 		bl	_ZNK5daisy9AdcHandle6GetPtrEh
 803              	.LVL68:
 804 00a8 0146     		mov	r1, r0
  73:Dubby.cpp     ****     {
 805              		.loc 2 73 5 discriminator 2 view .LVU193
 806 00aa 0134     		adds	r4, r4, #1
 807              	.LVL69:
  75:Dubby.cpp     ****     }
 808              		.loc 2 75 29 discriminator 2 view .LVU194
 809 00ac 3846     		mov	r0, r7
 810 00ae 0191     		str	r1, [sp, #4]
 811 00b0 FFF7FEFF 		bl	_ZNK5daisy9DaisySeed17AudioCallbackRateEv
 812              	.LVL70:
 813 00b4 2846     		mov	r0, r5
 814 00b6 DFED070A 		vldr.32	s1, .L50
 815 00ba 0023     		movs	r3, #0
 816 00bc 0122     		movs	r2, #1
 817 00be 0199     		ldr	r1, [sp, #4]
  73:Dubby.cpp     ****     {
 818              		.loc 2 73 25 discriminator 2 view .LVU195
 819 00c0 2035     		adds	r5, r5, #32
  75:Dubby.cpp     ****     }
 820              		.loc 2 75 29 discriminator 2 view .LVU196
 821 00c2 FFF7FEFF 		bl	_ZN5daisy13AnalogControl4InitEPtfbbf
 822              	.LVL71:
  73:Dubby.cpp     ****     {
 823              		.loc 2 73 5 is_stmt 1 discriminator 2 view .LVU197
  73:Dubby.cpp     ****     {
 824              		.loc 2 73 25 discriminator 2 view .LVU198
 825 00c6 062C     		cmp	r4, #6
 826 00c8 EAD1     		bne	.L47
 827              	.LBE347:
  78:Dubby.cpp     **** }
 828              		.loc 2 78 5 view .LVU199
  78:Dubby.cpp     **** }
 829              		.loc 2 78 19 is_stmt 0 view .LVU200
 830 00ca 3046     		mov	r0, r6
 831 00cc FFF7FEFF 		bl	_ZN5daisy9AdcHandle5StartEv
 832              	.LVL72:
  79:Dubby.cpp     **** 
 833              		.loc 2 79 1 view .LVU201
 834 00d0 23B0     		add	sp, sp, #140
 835              		.cfi_def_cfa_offset 20
 836              		@ sp needed
 837 00d2 F0BD     		pop	{r4, r5, r6, r7, pc}
 838              	.LVL73:
 839              	.L51:
  79:Dubby.cpp     **** 
 840              		.loc 2 79 1 view .LVU202
 841              		.align	2
 842              	.L50:
 843 00d4 6F12033B 		.word	990057071
 844              		.cfi_endproc
 845              	.LFE2569:
ARM GAS  /var/folders/1y/_321xjh9623c014x9_qw12rr0000gn/T//ccqHcGuP.s 			page 40


 847              		.section	.text._ZN5daisy5Dubby11InitButtonsEv,"ax",%progbits
 848              		.align	1
 849              		.p2align 2,,3
 850              		.global	_ZN5daisy5Dubby11InitButtonsEv
 851              		.syntax unified
 852              		.thumb
 853              		.thumb_func
 855              	_ZN5daisy5Dubby11InitButtonsEv:
 856              	.LVL74:
 857              	.LFB2570:
  82:Dubby.cpp     ****     //Set button to pins, to be updated at a 1kHz  samplerate
 858              		.loc 2 82 1 is_stmt 1 view -0
 859              		.cfi_startproc
 860              		@ args = 0, pretend = 0, frame = 16
 861              		@ frame_needed = 0, uses_anonymous_args = 0
  84:Dubby.cpp     ****     buttons[1].Init(seed.GetPin(PIN_GATE_IN_2), 1000);
 862              		.loc 2 84 5 view .LVU204
  82:Dubby.cpp     ****     //Set button to pins, to be updated at a 1kHz  samplerate
 863              		.loc 2 82 1 is_stmt 0 view .LVU205
 864 0000 10B5     		push	{r4, lr}
 865              		.cfi_def_cfa_offset 8
 866              		.cfi_offset 4, -8
 867              		.cfi_offset 14, -4
 868 0002 0446     		mov	r4, r0
  84:Dubby.cpp     ****     buttons[1].Init(seed.GetPin(PIN_GATE_IN_2), 1000);
 869              		.loc 2 84 20 view .LVU206
 870 0004 2020     		movs	r0, #32
 871              	.LVL75:
  82:Dubby.cpp     ****     //Set button to pins, to be updated at a 1kHz  samplerate
 872              		.loc 2 82 1 view .LVU207
 873 0006 2DED028B 		vpush.64	{d8}
 874              		.cfi_def_cfa_offset 16
 875              		.cfi_offset 80, -16
 876              		.cfi_offset 81, -12
 877 000a 84B0     		sub	sp, sp, #16
 878              		.cfi_def_cfa_offset 32
  84:Dubby.cpp     ****     buttons[1].Init(seed.GetPin(PIN_GATE_IN_2), 1000);
 879              		.loc 2 84 20 view .LVU208
 880 000c 9FED1C8A 		vldr.32	s16, .L54
 881 0010 FFF7FEFF 		bl	_ZN5daisy9DaisySeed6GetPinEh
 882              	.LVL76:
 883 0014 0346     		mov	r3, r0	@ movhi
 884 0016 B0EE480A 		vmov.f32	s0, s16
 885 001a 04F50070 		add	r0, r4, #512
 886 001e ADF80030 		strh	r3, [sp]	@ movhi
 887 0022 0099     		ldr	r1, [sp]
 888 0024 FFF7FEFF 		bl	_ZN5daisy6Switch4InitE12dsy_gpio_pinf
 889              	.LVL77:
  85:Dubby.cpp     ****     buttons[2].Init(seed.GetPin(PIN_GATE_IN_3), 1000);
 890              		.loc 2 85 5 is_stmt 1 view .LVU209
  85:Dubby.cpp     ****     buttons[2].Init(seed.GetPin(PIN_GATE_IN_3), 1000);
 891              		.loc 2 85 20 is_stmt 0 view .LVU210
 892 0028 1720     		movs	r0, #23
 893 002a FFF7FEFF 		bl	_ZN5daisy9DaisySeed6GetPinEh
 894              	.LVL78:
 895 002e 0346     		mov	r3, r0	@ movhi
 896 0030 B0EE480A 		vmov.f32	s0, s16
ARM GAS  /var/folders/1y/_321xjh9623c014x9_qw12rr0000gn/T//ccqHcGuP.s 			page 41


 897 0034 04F50470 		add	r0, r4, #528
 898 0038 ADF80430 		strh	r3, [sp, #4]	@ movhi
 899 003c 0199     		ldr	r1, [sp, #4]
 900 003e FFF7FEFF 		bl	_ZN5daisy6Switch4InitE12dsy_gpio_pinf
 901              	.LVL79:
  86:Dubby.cpp     ****     buttons[3].Init(seed.GetPin(PIN_GATE_IN_4), 1000);
 902              		.loc 2 86 5 is_stmt 1 view .LVU211
  86:Dubby.cpp     ****     buttons[3].Init(seed.GetPin(PIN_GATE_IN_4), 1000);
 903              		.loc 2 86 20 is_stmt 0 view .LVU212
 904 0042 1120     		movs	r0, #17
 905 0044 FFF7FEFF 		bl	_ZN5daisy9DaisySeed6GetPinEh
 906              	.LVL80:
 907 0048 0346     		mov	r3, r0	@ movhi
 908 004a B0EE480A 		vmov.f32	s0, s16
 909 004e 04F50870 		add	r0, r4, #544
 910 0052 ADF80830 		strh	r3, [sp, #8]	@ movhi
 911 0056 0299     		ldr	r1, [sp, #8]
 912 0058 FFF7FEFF 		bl	_ZN5daisy6Switch4InitE12dsy_gpio_pinf
 913              	.LVL81:
  87:Dubby.cpp     **** }
 914              		.loc 2 87 5 is_stmt 1 view .LVU213
  87:Dubby.cpp     **** }
 915              		.loc 2 87 20 is_stmt 0 view .LVU214
 916 005c 1320     		movs	r0, #19
 917 005e FFF7FEFF 		bl	_ZN5daisy9DaisySeed6GetPinEh
 918              	.LVL82:
 919 0062 0346     		mov	r3, r0	@ movhi
 920 0064 B0EE480A 		vmov.f32	s0, s16
 921 0068 04F50C70 		add	r0, r4, #560
 922 006c ADF80C30 		strh	r3, [sp, #12]	@ movhi
 923 0070 0399     		ldr	r1, [sp, #12]
  88:Dubby.cpp     **** 
 924              		.loc 2 88 1 view .LVU215
 925 0072 04B0     		add	sp, sp, #16
 926              		.cfi_def_cfa_offset 16
 927              		@ sp needed
 928 0074 BDEC028B 		vldm	sp!, {d8}
 929              		.cfi_restore 80
 930              		.cfi_restore 81
 931              		.cfi_def_cfa_offset 8
 932 0078 BDE81040 		pop	{r4, lr}
 933              		.cfi_restore 14
 934              		.cfi_restore 4
 935              		.cfi_def_cfa_offset 0
 936              	.LVL83:
  87:Dubby.cpp     **** }
 937              		.loc 2 87 20 view .LVU216
 938 007c FFF7FEBF 		b	_ZN5daisy6Switch4InitE12dsy_gpio_pinf
 939              	.LVL84:
 940              	.L55:
  87:Dubby.cpp     **** }
 941              		.loc 2 87 20 view .LVU217
 942              		.align	2
 943              	.L54:
 944 0080 00007A44 		.word	1148846080
 945              		.cfi_endproc
 946              	.LFE2570:
ARM GAS  /var/folders/1y/_321xjh9623c014x9_qw12rr0000gn/T//ccqHcGuP.s 			page 42


 948              		.section	.text._ZN5daisy5Dubby10DrawBitmapEi,"ax",%progbits
 949              		.align	1
 950              		.p2align 2,,3
 951              		.global	_ZN5daisy5Dubby10DrawBitmapEi
 952              		.syntax unified
 953              		.thumb
 954              		.thumb_func
 956              	_ZN5daisy5Dubby10DrawBitmapEi:
 957              	.LVL85:
 958              	.LFB2580:
 145:Dubby.cpp     ****     display.Fill(false);
 959              		.loc 2 145 1 is_stmt 1 view -0
 960              		.cfi_startproc
 961              		@ args = 0, pretend = 0, frame = 24
 962              		@ frame_needed = 0, uses_anonymous_args = 0
 145:Dubby.cpp     ****     display.Fill(false);
 963              		.loc 2 145 1 is_stmt 0 view .LVU219
 964 0000 0B46     		mov	r3, r1
 965              	.LBB384:
 966              	.LBB385:
 967              	.LBB386:
 366:../../libDaisy//src/dev/oled_ssd130x.h ****         }
 968              		.loc 4 366 24 view .LVU220
 969 0002 0021     		movs	r1, #0
 970              	.LVL86:
 366:../../libDaisy//src/dev/oled_ssd130x.h ****         }
 971              		.loc 4 366 24 view .LVU221
 972 0004 4FF48062 		mov	r2, #1024
 973 0008 9B02     		lsls	r3, r3, #10
 974              	.LVL87:
 366:../../libDaisy//src/dev/oled_ssd130x.h ****         }
 975              		.loc 4 366 24 view .LVU222
 976              	.LBE386:
 977              	.LBE385:
 978              	.LBE384:
 145:Dubby.cpp     ****     display.Fill(false);
 979              		.loc 2 145 1 view .LVU223
 980 000a 2DE9F04F 		push	{r4, r5, r6, r7, r8, r9, r10, fp, lr}
 981              		.cfi_def_cfa_offset 36
 982              		.cfi_offset 4, -36
 983              		.cfi_offset 5, -32
 984              		.cfi_offset 6, -28
 985              		.cfi_offset 7, -24
 986              		.cfi_offset 8, -20
 987              		.cfi_offset 9, -16
 988              		.cfi_offset 10, -12
 989              		.cfi_offset 11, -8
 990              		.cfi_offset 14, -4
 991 000e 8246     		mov	r10, r0
 146:Dubby.cpp     ****     display.SetCursor(30, 30);
 992              		.loc 2 146 5 is_stmt 1 view .LVU224
 993              	.LVL88:
 994              	.LBB391:
 995              	.LBI384:
  34:../../libDaisy//src/hid/disp/oled_display.h **** 
 996              		.loc 1 34 10 view .LVU225
 997              	.LBB389:
ARM GAS  /var/folders/1y/_321xjh9623c014x9_qw12rr0000gn/T//ccqHcGuP.s 			page 43


 998              	.LBI385:
 362:../../libDaisy//src/dev/oled_ssd130x.h ****     {
 999              		.loc 4 362 10 view .LVU226
 1000              	.LBB387:
 364:../../libDaisy//src/dev/oled_ssd130x.h ****         {
 1001              		.loc 4 364 29 view .LVU227
 1002              	.LBE387:
 1003              	.LBE389:
 1004              	.LBE391:
 145:Dubby.cpp     ****     display.Fill(false);
 1005              		.loc 2 145 1 is_stmt 0 view .LVU228
 1006 0010 87B0     		sub	sp, sp, #28
 1007              		.cfi_def_cfa_offset 64
 1008 0012 00F26440 		addw	r0, r0, #1124
 1009              	.LVL89:
 1010              	.LBB392:
 149:Dubby.cpp     ****         for (int y = 0; y < OLED_HEIGHT; y++) {
 1011              		.loc 2 149 14 view .LVU229
 1012 0016 8B46     		mov	fp, r1
 1013 0018 0293     		str	r3, [sp, #8]
 1014 001a 0390     		str	r0, [sp, #12]
 1015              	.LBE392:
 1016              	.LBB462:
 1017              	.LBB390:
 1018              	.LBB388:
 366:../../libDaisy//src/dev/oled_ssd130x.h ****         }
 1019              		.loc 4 366 24 view .LVU230
 1020 001c FFF7FEFF 		bl	memset
 1021              	.LVL90:
 366:../../libDaisy//src/dev/oled_ssd130x.h ****         }
 1022              		.loc 4 366 24 view .LVU231
 1023              	.LBE388:
 1024              	.LBE390:
 1025              	.LBE462:
 147:Dubby.cpp     ****     
 1026              		.loc 2 147 5 is_stmt 1 view .LVU232
 1027              	.LBB463:
 1028              	.LBI463:
 171:../../libDaisy//src/hid/disp/display.h ****     {
 1029              		.loc 3 171 10 view .LVU233
 1030              	.LBB464:
 173:../../libDaisy//src/hid/disp/display.h ****         currentY_ = (y >= Height()) ? Height() - 1 : y;
 1031              		.loc 3 173 9 view .LVU234
 174:../../libDaisy//src/hid/disp/display.h ****     }
 1032              		.loc 3 174 9 view .LVU235
 173:../../libDaisy//src/hid/disp/display.h ****         currentY_ = (y >= Height()) ? Height() - 1 : y;
 1033              		.loc 3 173 19 is_stmt 0 view .LVU236
 1034 0020 4FF01E13 		mov	r3, #1966110
 1035 0024 CAF85434 		str	r3, [r10, #1108]
 1036              	.LVL91:
 173:../../libDaisy//src/hid/disp/display.h ****         currentY_ = (y >= Height()) ? Height() - 1 : y;
 1037              		.loc 3 173 19 view .LVU237
 1038              	.LBE464:
 1039              	.LBE463:
 1040              	.LBB465:
 149:Dubby.cpp     ****         for (int y = 0; y < OLED_HEIGHT; y++) {
 1041              		.loc 2 149 23 is_stmt 1 view .LVU238
ARM GAS  /var/folders/1y/_321xjh9623c014x9_qw12rr0000gn/T//ccqHcGuP.s 			page 44


 1042              	.L65:
 1043              	.LBB393:
 150:Dubby.cpp     ****             // Calculate the index in the array
 1044              		.loc 2 150 27 view .LVU239
 1045 0028 0BF26443 		addw	r3, fp, #1124
 150:Dubby.cpp     ****             // Calculate the index in the array
 1046              		.loc 2 150 18 is_stmt 0 view .LVU240
 1047 002c 4FF00009 		mov	r9, #0
 1048 0030 0193     		str	r3, [sp, #4]
 1049              	.LVL92:
 1050              	.L62:
 1051              	.LBB394:
 152:Dubby.cpp     **** 
 1052              		.loc 2 152 13 is_stmt 1 view .LVU241
 155:Dubby.cpp     **** 
 1053              		.loc 2 155 13 view .LVU242
 158:Dubby.cpp     **** 
 1054              		.loc 2 158 13 view .LVU243
 1055              	.LBB395:
 158:Dubby.cpp     **** 
 1056              		.loc 2 158 45 view .LVU244
 1057              	.LBB396:
 1058              	.LBB397:
 1059              	.LBB398:
 1060              	.LBB399:
 1061              	.LBB400:
 1062              	.LBB401:
 359:../../libDaisy//src/dev/oled_ssd130x.h ****     }
 1063              		.loc 4 359 55 is_stmt 0 view .LVU245
 1064 0032 09F00702 		and	r2, r9, #7
 1065              	.LBE401:
 1066              	.LBE400:
 1067              	.LBE399:
 1068              	.LBE398:
 1069              	.LBE397:
 1070              	.LBE396:
 1071              	.LBE395:
 155:Dubby.cpp     **** 
 1072              		.loc 2 155 18 view .LVU246
 1073 0036 3B48     		ldr	r0, .L72
 1074              	.LBB435:
 1075              	.LBB431:
 1076              	.LBB425:
 1077              	.LBB419:
 1078              	.LBB413:
 1079              	.LBB407:
 1080              	.LBB402:
 359:../../libDaisy//src/dev/oled_ssd130x.h ****     }
 1081              		.loc 4 359 49 view .LVU247
 1082 0038 0124     		movs	r4, #1
 1083              	.LBE402:
 1084              	.LBE407:
 1085              	.LBE413:
 1086              	.LBE419:
 1087              	.LBE425:
 1088              	.LBE431:
 1089              	.LBE435:
ARM GAS  /var/folders/1y/_321xjh9623c014x9_qw12rr0000gn/T//ccqHcGuP.s 			page 45


 152:Dubby.cpp     **** 
 1090              		.loc 2 152 17 view .LVU248
 1091 003a 0BEBC911 		add	r1, fp, r9, lsl #7
 1092              	.LBB436:
 1093              	.LBB432:
 1094              	.LBB426:
 1095              	.LBB420:
 1096              	.LBB414:
 1097              	.LBB408:
 1098              	.LBB403:
 359:../../libDaisy//src/dev/oled_ssd130x.h ****     }
 1099              		.loc 4 359 28 view .LVU249
 1100 003e 4FEAD903 		lsr	r3, r9, #3
 359:../../libDaisy//src/dev/oled_ssd130x.h ****     }
 1101              		.loc 4 359 49 view .LVU250
 1102 0042 9440     		lsls	r4, r4, r2
 1103              	.LBE403:
 1104              	.LBE408:
 1105              	.LBE414:
 1106              	.LBE420:
 1107              	.LBE426:
 1108              	.LBE432:
 1109              	.LBE436:
 155:Dubby.cpp     **** 
 1110              		.loc 2 155 18 view .LVU251
 1111 0044 00EBE101 		add	r1, r0, r1, asr #3
 1112 0048 0198     		ldr	r0, [sp, #4]
 1113              	.LBB437:
 1114              	.LBB433:
 161:Dubby.cpp     **** 
 1115              		.loc 2 161 31 view .LVU252
 1116 004a 0722     		movs	r2, #7
 1117              	.LBB427:
 1118              	.LBB421:
 1119              	.LBB415:
 1120              	.LBB409:
 1121              	.LBB404:
 359:../../libDaisy//src/dev/oled_ssd130x.h ****     }
 1122              		.loc 4 359 42 view .LVU253
 1123 004c 64B2     		sxtb	r4, r4
 1124 004e 00EBC313 		add	r3, r0, r3, lsl #7
 1125              	.LBE404:
 1126              	.LBE409:
 1127              	.LBE415:
 1128              	.LBE421:
 1129              	.LBE427:
 161:Dubby.cpp     **** 
 1130              		.loc 2 161 31 view .LVU254
 1131 0052 0298     		ldr	r0, [sp, #8]
 1132              	.LBB428:
 1133              	.LBB422:
 1134              	.LBB416:
 1135              	.LBB410:
 1136              	.LBB405:
 359:../../libDaisy//src/dev/oled_ssd130x.h ****     }
 1137              		.loc 4 359 42 view .LVU255
 1138 0054 E543     		mvns	r5, r4
ARM GAS  /var/folders/1y/_321xjh9623c014x9_qw12rr0000gn/T//ccqHcGuP.s 			page 46


 1139              	.LBE405:
 1140              	.LBE410:
 1141              	.LBE416:
 1142              	.LBE422:
 1143              	.LBE428:
 161:Dubby.cpp     **** 
 1144              		.loc 2 161 31 view .LVU256
 1145 0056 085C     		ldrb	r0, [r1, r0]	@ zero_extendqisi2
 1146 0058 5344     		add	r3, r3, r10
 1147              	.LVL93:
 1148              	.L59:
 161:Dubby.cpp     **** 
 1149              		.loc 2 161 17 is_stmt 1 discriminator 2 view .LVU257
 163:Dubby.cpp     **** 
 1150              		.loc 2 163 17 discriminator 2 view .LVU258
 165:Dubby.cpp     ****             }
 1151              		.loc 2 165 17 discriminator 2 view .LVU259
 1152              	.LBB429:
 1153              	.LBI397:
 1154              		.loc 1 42 10 discriminator 2 view .LVU260
 1155              	.LBB423:
 1156              	.LBI398:
 352:../../libDaisy//src/dev/oled_ssd130x.h ****     {
 1157              		.loc 4 352 10 discriminator 2 view .LVU261
 1158              	.LBB417:
 1159              	.LBB411:
 1160              	.LBI400:
 352:../../libDaisy//src/dev/oled_ssd130x.h ****     {
 1161              		.loc 4 352 10 discriminator 2 view .LVU262
 352:../../libDaisy//src/dev/oled_ssd130x.h ****     {
 1162              		.loc 4 352 10 is_stmt 0 discriminator 2 view .LVU263
 1163              	.LBE411:
 1164              	.LBE417:
 1165              	.LBE423:
 1166              	.LBE429:
 161:Dubby.cpp     **** 
 1167              		.loc 2 161 36 discriminator 2 view .LVU264
 1168 005a 40FA02F1 		asr	r1, r0, r2
 1169              	.LBE433:
 158:Dubby.cpp     **** 
 1170              		.loc 2 158 45 discriminator 2 view .LVU265
 1171 005e 013A     		subs	r2, r2, #1
 1172 0060 0133     		adds	r3, r3, #1
 1173              	.LBB434:
 1174              	.LBB430:
 1175              	.LBB424:
 1176              	.LBB418:
 356:../../libDaisy//src/dev/oled_ssd130x.h ****             buffer_[x + (y / 8) * width] |= (1 << (y % 8));
 1177              		.loc 4 356 9 discriminator 2 view .LVU266
 1178 0062 11F0010F 		tst	r1, #1
 357:../../libDaisy//src/dev/oled_ssd130x.h ****         else
 1179              		.loc 4 357 42 discriminator 2 view .LVU267
 1180 0066 13F8011C 		ldrb	r1, [r3, #-1]	@ zero_extendqisi2
 1181 006a 14BF     		ite	ne
 1182 006c 2143     		orrne	r1, r1, r4
 1183              	.LBB412:
 1184              	.LBB406:
ARM GAS  /var/folders/1y/_321xjh9623c014x9_qw12rr0000gn/T//ccqHcGuP.s 			page 47


 359:../../libDaisy//src/dev/oled_ssd130x.h ****     }
 1185              		.loc 4 359 42 discriminator 2 view .LVU268
 1186 006e 2940     		andeq	r1, r1, r5
 1187 0070 03F8011C 		strb	r1, [r3, #-1]
 1188              	.LVL94:
 359:../../libDaisy//src/dev/oled_ssd130x.h ****     }
 1189              		.loc 4 359 42 discriminator 2 view .LVU269
 1190              	.LBE406:
 1191              	.LBE412:
 1192              	.LBE418:
 1193              	.LBE424:
 1194              	.LBE430:
 1195              	.LBE434:
 158:Dubby.cpp     **** 
 1196              		.loc 2 158 13 is_stmt 1 discriminator 2 view .LVU270
 158:Dubby.cpp     **** 
 1197              		.loc 2 158 45 discriminator 2 view .LVU271
 1198 0074 511C     		adds	r1, r2, #1
 1199 0076 F0D1     		bne	.L59
 1200              	.LBE437:
 168:Dubby.cpp     ****         }
 1201              		.loc 2 168 13 view .LVU272
 1202              	.LBB438:
 1203 0078 2B4B     		ldr	r3, .L72+4
 1204              	.LBE438:
 1205 007a 2C4A     		ldr	r2, .L72+8
 1206              	.LBB439:
 1207 007c 03FB09F3 		mul	r3, r3, r9
 1208              	.LBE439:
 1209 0080 B2EB730F 		cmp	r2, r3, ror #1
 1210 0084 0CD2     		bcs	.L60
 1211              	.L63:
 168:Dubby.cpp     ****         }
 1212              		.loc 2 168 13 is_stmt 0 view .LVU273
 1213              	.LBE394:
 150:Dubby.cpp     ****             // Calculate the index in the array
 1214              		.loc 2 150 9 is_stmt 1 view .LVU274
 1215 0086 09F10109 		add	r9, r9, #1
 1216              	.LVL95:
 150:Dubby.cpp     ****             // Calculate the index in the array
 1217              		.loc 2 150 27 view .LVU275
 1218 008a B9F1400F 		cmp	r9, #64
 1219 008e D0D1     		bne	.L62
 1220              	.LBE393:
 149:Dubby.cpp     ****         for (int y = 0; y < OLED_HEIGHT; y++) {
 1221              		.loc 2 149 5 discriminator 2 view .LVU276
 149:Dubby.cpp     ****         for (int y = 0; y < OLED_HEIGHT; y++) {
 1222              		.loc 2 149 39 is_stmt 0 discriminator 2 view .LVU277
 1223 0090 0BF1080B 		add	fp, fp, #8
 1224              	.LVL96:
 149:Dubby.cpp     ****         for (int y = 0; y < OLED_HEIGHT; y++) {
 1225              		.loc 2 149 23 is_stmt 1 discriminator 2 view .LVU278
 1226 0094 BBF1800F 		cmp	fp, #128
 1227 0098 C6D1     		bne	.L65
 1228              	.LBE465:
 171:Dubby.cpp     **** 
 1229              		.loc 2 171 1 is_stmt 0 view .LVU279
ARM GAS  /var/folders/1y/_321xjh9623c014x9_qw12rr0000gn/T//ccqHcGuP.s 			page 48


 1230 009a 07B0     		add	sp, sp, #28
 1231              		.cfi_remember_state
 1232              		.cfi_def_cfa_offset 36
 1233              		@ sp needed
 1234 009c BDE8F08F 		pop	{r4, r5, r6, r7, r8, r9, r10, fp, pc}
 1235              	.LVL97:
 1236              	.L60:
 1237              		.cfi_restore_state
 1238              	.LBB466:
 1239              	.LBB461:
 1240              	.LBB460:
 1241              	.LBB440:
 1242              	.LBB441:
 1243              	.LBB442:
 1244              	.LBB443:
 1245              	.LBB444:
 124:../../libDaisy//src/dev/oled_ssd130x.h ****         spi_.BlockingTransmit(&cmd, 1);
 1246              		.loc 4 124 24 view .LVU280
 1247 00a0 0AF58B66 		add	r6, r10, #1112
 1248 00a4 0AF58C65 		add	r5, r10, #1120
 1249 00a8 DDF80C80 		ldr	r8, [sp, #12]
 125:../../libDaisy//src/dev/oled_ssd130x.h ****     };
 1250              		.loc 4 125 30 view .LVU281
 1251 00ac B024     		movs	r4, #176
 1252              	.L64:
 1253              	.LVL98:
 124:../../libDaisy//src/dev/oled_ssd130x.h ****         spi_.BlockingTransmit(&cmd, 1);
 1254              		.loc 4 124 23 view .LVU282
 1255 00ae 0021     		movs	r1, #0
 1256 00b0 2846     		mov	r0, r5
 1257 00b2 8DF81740 		strb	r4, [sp, #23]
 1258              	.LVL99:
 124:../../libDaisy//src/dev/oled_ssd130x.h ****         spi_.BlockingTransmit(&cmd, 1);
 1259              		.loc 4 124 23 view .LVU283
 1260              	.LBE444:
 1261              	.LBI443:
 122:../../libDaisy//src/dev/oled_ssd130x.h ****     {
 1262              		.loc 4 122 10 is_stmt 1 view .LVU284
 1263              	.LBB445:
 124:../../libDaisy//src/dev/oled_ssd130x.h ****         spi_.BlockingTransmit(&cmd, 1);
 1264              		.loc 4 124 9 view .LVU285
 1265              	.LBE445:
 1266              	.LBE443:
 1267              		.loc 4 383 22 is_stmt 0 view .LVU286
 1268 00b6 0134     		adds	r4, r4, #1
 1269              	.LVL100:
 1270              		.loc 4 383 22 view .LVU287
 1271 00b8 0F46     		mov	r7, r1
 1272              	.LBB447:
 1273              	.LBB446:
 124:../../libDaisy//src/dev/oled_ssd130x.h ****         spi_.BlockingTransmit(&cmd, 1);
 1274              		.loc 4 124 23 view .LVU288
 1275 00ba FFF7FEFF 		bl	dsy_gpio_write
 1276              	.LVL101:
 125:../../libDaisy//src/dev/oled_ssd130x.h ****     };
 1277              		.loc 4 125 9 is_stmt 1 view .LVU289
 125:../../libDaisy//src/dev/oled_ssd130x.h ****     };
ARM GAS  /var/folders/1y/_321xjh9623c014x9_qw12rr0000gn/T//ccqHcGuP.s 			page 49


 1278              		.loc 4 125 30 is_stmt 0 view .LVU290
 1279 00be 6423     		movs	r3, #100
 1280 00c0 0122     		movs	r2, #1
 1281 00c2 0DF11701 		add	r1, sp, #23
 1282 00c6 3046     		mov	r0, r6
 1283 00c8 FFF7FEFF 		bl	_ZN5daisy9SpiHandle16BlockingTransmitEPhjm
 1284              	.LVL102:
 125:../../libDaisy//src/dev/oled_ssd130x.h ****     };
 1285              		.loc 4 125 30 view .LVU291
 1286              	.LBE446:
 1287              	.LBE447:
 1288              	.LBB448:
 1289              	.LBB449:
 124:../../libDaisy//src/dev/oled_ssd130x.h ****         spi_.BlockingTransmit(&cmd, 1);
 1290              		.loc 4 124 23 view .LVU292
 1291 00cc 3946     		mov	r1, r7
 1292 00ce 2846     		mov	r0, r5
 1293 00d0 8DF81770 		strb	r7, [sp, #23]
 1294              	.LVL103:
 124:../../libDaisy//src/dev/oled_ssd130x.h ****         spi_.BlockingTransmit(&cmd, 1);
 1295              		.loc 4 124 23 view .LVU293
 1296              	.LBE449:
 1297              	.LBI448:
 122:../../libDaisy//src/dev/oled_ssd130x.h ****     {
 1298              		.loc 4 122 10 is_stmt 1 view .LVU294
 1299              	.LBB450:
 124:../../libDaisy//src/dev/oled_ssd130x.h ****         spi_.BlockingTransmit(&cmd, 1);
 1300              		.loc 4 124 9 view .LVU295
 124:../../libDaisy//src/dev/oled_ssd130x.h ****         spi_.BlockingTransmit(&cmd, 1);
 1301              		.loc 4 124 23 is_stmt 0 view .LVU296
 1302 00d4 FFF7FEFF 		bl	dsy_gpio_write
 1303              	.LVL104:
 125:../../libDaisy//src/dev/oled_ssd130x.h ****     };
 1304              		.loc 4 125 9 is_stmt 1 view .LVU297
 125:../../libDaisy//src/dev/oled_ssd130x.h ****     };
 1305              		.loc 4 125 30 is_stmt 0 view .LVU298
 1306 00d8 0122     		movs	r2, #1
 1307 00da 6423     		movs	r3, #100
 1308 00dc 0DF11701 		add	r1, sp, #23
 1309 00e0 3046     		mov	r0, r6
 1310              	.LBE450:
 1311              	.LBE448:
 1312              		.loc 4 383 22 view .LVU299
 1313 00e2 E4B2     		uxtb	r4, r4
 1314              	.LBB452:
 1315              	.LBB451:
 125:../../libDaisy//src/dev/oled_ssd130x.h ****     };
 1316              		.loc 4 125 30 view .LVU300
 1317 00e4 FFF7FEFF 		bl	_ZN5daisy9SpiHandle16BlockingTransmitEPhjm
 1318              	.LVL105:
 125:../../libDaisy//src/dev/oled_ssd130x.h ****     };
 1319              		.loc 4 125 30 view .LVU301
 1320 00e8 1023     		movs	r3, #16
 1321              	.LBE451:
 1322              	.LBE452:
 1323              	.LBB453:
 1324              	.LBB454:
ARM GAS  /var/folders/1y/_321xjh9623c014x9_qw12rr0000gn/T//ccqHcGuP.s 			page 50


 124:../../libDaisy//src/dev/oled_ssd130x.h ****         spi_.BlockingTransmit(&cmd, 1);
 1325              		.loc 4 124 23 view .LVU302
 1326 00ea 3946     		mov	r1, r7
 1327 00ec 2846     		mov	r0, r5
 1328 00ee 8DF81730 		strb	r3, [sp, #23]
 1329              	.LVL106:
 124:../../libDaisy//src/dev/oled_ssd130x.h ****         spi_.BlockingTransmit(&cmd, 1);
 1330              		.loc 4 124 23 view .LVU303
 1331              	.LBE454:
 1332              	.LBI453:
 122:../../libDaisy//src/dev/oled_ssd130x.h ****     {
 1333              		.loc 4 122 10 is_stmt 1 view .LVU304
 1334              	.LBB455:
 124:../../libDaisy//src/dev/oled_ssd130x.h ****         spi_.BlockingTransmit(&cmd, 1);
 1335              		.loc 4 124 9 view .LVU305
 124:../../libDaisy//src/dev/oled_ssd130x.h ****         spi_.BlockingTransmit(&cmd, 1);
 1336              		.loc 4 124 23 is_stmt 0 view .LVU306
 1337 00f2 FFF7FEFF 		bl	dsy_gpio_write
 1338              	.LVL107:
 125:../../libDaisy//src/dev/oled_ssd130x.h ****     };
 1339              		.loc 4 125 9 is_stmt 1 view .LVU307
 125:../../libDaisy//src/dev/oled_ssd130x.h ****     };
 1340              		.loc 4 125 30 is_stmt 0 view .LVU308
 1341 00f6 6423     		movs	r3, #100
 1342 00f8 0122     		movs	r2, #1
 1343 00fa 0DF11701 		add	r1, sp, #23
 1344 00fe 3046     		mov	r0, r6
 1345 0100 FFF7FEFF 		bl	_ZN5daisy9SpiHandle16BlockingTransmitEPhjm
 1346              	.LVL108:
 125:../../libDaisy//src/dev/oled_ssd130x.h ****     };
 1347              		.loc 4 125 30 view .LVU309
 1348              	.LBE455:
 1349              	.LBE453:
 1350              	.LBB456:
 1351              	.LBI456:
 128:../../libDaisy//src/dev/oled_ssd130x.h ****     {
 1352              		.loc 4 128 10 is_stmt 1 view .LVU310
 1353              	.LBB457:
 130:../../libDaisy//src/dev/oled_ssd130x.h ****         spi_.BlockingTransmit(buff, size);
 1354              		.loc 4 130 9 view .LVU311
 130:../../libDaisy//src/dev/oled_ssd130x.h ****         spi_.BlockingTransmit(buff, size);
 1355              		.loc 4 130 23 is_stmt 0 view .LVU312
 1356 0104 0121     		movs	r1, #1
 1357 0106 2846     		mov	r0, r5
 1358 0108 FFF7FEFF 		bl	dsy_gpio_write
 1359              	.LVL109:
 131:../../libDaisy//src/dev/oled_ssd130x.h ****     };
 1360              		.loc 4 131 9 is_stmt 1 view .LVU313
 131:../../libDaisy//src/dev/oled_ssd130x.h ****     };
 1361              		.loc 4 131 30 is_stmt 0 view .LVU314
 1362 010c 4146     		mov	r1, r8
 1363 010e 6423     		movs	r3, #100
 1364 0110 8022     		movs	r2, #128
 1365 0112 3046     		mov	r0, r6
 1366              	.LBE457:
 1367              	.LBE456:
 1368              		.loc 4 383 22 view .LVU315
ARM GAS  /var/folders/1y/_321xjh9623c014x9_qw12rr0000gn/T//ccqHcGuP.s 			page 51


 1369 0114 08F18008 		add	r8, r8, #128
 1370              	.LVL110:
 1371              	.LBB459:
 1372              	.LBB458:
 131:../../libDaisy//src/dev/oled_ssd130x.h ****     };
 1373              		.loc 4 131 30 view .LVU316
 1374 0118 FFF7FEFF 		bl	_ZN5daisy9SpiHandle16BlockingTransmitEPhjm
 1375              	.LVL111:
 131:../../libDaisy//src/dev/oled_ssd130x.h ****     };
 1376              		.loc 4 131 30 view .LVU317
 1377              	.LBE458:
 1378              	.LBE459:
 1379              		.loc 4 383 9 is_stmt 1 view .LVU318
 1380              		.loc 4 383 22 view .LVU319
 1381 011c B82C     		cmp	r4, #184
 1382 011e C6D1     		bne	.L64
 1383 0120 B1E7     		b	.L63
 1384              	.L73:
 1385 0122 00BF     		.align	2
 1386              	.L72:
 1387 0124 00000000 		.word	.LANCHOR0
 1388 0128 ABAAAAAA 		.word	-1431655765
 1389 012c AAAAAA2A 		.word	715827882
 1390              	.LBE442:
 1391              	.LBE441:
 1392              	.LBE440:
 1393              	.LBE460:
 1394              	.LBE461:
 1395              	.LBE466:
 1396              		.cfi_endproc
 1397              	.LFE2580:
 1399              		.section	.text._ZN5daisy5Dubby8DrawLogoEv,"ax",%progbits
 1400              		.align	1
 1401              		.p2align 2,,3
 1402              		.global	_ZN5daisy5Dubby8DrawLogoEv
 1403              		.syntax unified
 1404              		.thumb
 1405              		.thumb_func
 1407              	_ZN5daisy5Dubby8DrawLogoEv:
 1408              	.LVL112:
 1409              	.LFB2579:
 140:Dubby.cpp     ****     DrawBitmap(0);   
 1410              		.loc 2 140 1 view -0
 1411              		.cfi_startproc
 1412              		@ args = 0, pretend = 0, frame = 0
 1413              		@ frame_needed = 0, uses_anonymous_args = 0
 1414              		@ link register save eliminated.
 141:Dubby.cpp     **** }
 1415              		.loc 2 141 5 view .LVU321
 141:Dubby.cpp     **** }
 1416              		.loc 2 141 15 is_stmt 0 view .LVU322
 1417 0000 0021     		movs	r1, #0
 1418 0002 FFF7FEBF 		b	_ZN5daisy5Dubby10DrawBitmapEi
 1419              	.LVL113:
 141:Dubby.cpp     **** }
 1420              		.loc 2 141 15 view .LVU323
 1421              		.cfi_endproc
ARM GAS  /var/folders/1y/_321xjh9623c014x9_qw12rr0000gn/T//ccqHcGuP.s 			page 52


 1422              	.LFE2579:
 1424 0006 00BF     		.section	.text._ZN5daisy5Dubby9UpdateBarEi,"ax",%progbits
 1425              		.align	1
 1426              		.p2align 2,,3
 1427              		.global	_ZN5daisy5Dubby9UpdateBarEi
 1428              		.syntax unified
 1429              		.thumb
 1430              		.thumb_func
 1432              	_ZN5daisy5Dubby9UpdateBarEi:
 1433              	.LVL114:
 1434              	.LFB2586:
 247:Dubby.cpp     ****     display.DrawRect((i * 32)  + margin, 1, ((i + 1) * 31) - margin, 51, false, true);
 1435              		.loc 2 247 1 is_stmt 1 view -0
 1436              		.cfi_startproc
 1437              		@ args = 0, pretend = 0, frame = 40
 1438              		@ frame_needed = 0, uses_anonymous_args = 0
 248:Dubby.cpp     ****     display.DrawRect((i * 32)  + margin, int(abs(1.0f - GetKnobValue(static_cast<Dubby::Ctrl>(i))) 
 1439              		.loc 2 248 5 view .LVU325
 248:Dubby.cpp     ****     display.DrawRect((i * 32)  + margin, int(abs(1.0f - GetKnobValue(static_cast<Dubby::Ctrl>(i))) 
 1440              		.loc 2 248 49 is_stmt 0 view .LVU326
 1441 0000 4B1C     		adds	r3, r1, #1
 248:Dubby.cpp     ****     display.DrawRect((i * 32)  + margin, int(abs(1.0f - GetKnobValue(static_cast<Dubby::Ctrl>(i))) 
 1442              		.loc 2 248 34 view .LVU327
 1443 0002 D0F86428 		ldr	r2, [r0, #2148]
 248:Dubby.cpp     ****     display.DrawRect((i * 32)  + margin, int(abs(1.0f - GetKnobValue(static_cast<Dubby::Ctrl>(i))) 
 1444              		.loc 2 248 54 view .LVU328
 1445 0006 C3EB4313 		rsb	r3, r3, r3, lsl #5
 247:Dubby.cpp     ****     display.DrawRect((i * 32)  + margin, 1, ((i + 1) * 31) - margin, 51, false, true);
 1446              		.loc 2 247 1 view .LVU329
 1447 000a 2DE9F04F 		push	{r4, r5, r6, r7, r8, r9, r10, fp, lr}
 1448              		.cfi_def_cfa_offset 36
 1449              		.cfi_offset 4, -36
 1450              		.cfi_offset 5, -32
 1451              		.cfi_offset 6, -28
 1452              		.cfi_offset 7, -24
 1453              		.cfi_offset 8, -20
 1454              		.cfi_offset 9, -16
 1455              		.cfi_offset 10, -12
 1456              		.cfi_offset 11, -8
 1457              		.cfi_offset 14, -4
 248:Dubby.cpp     ****     display.DrawRect((i * 32)  + margin, int(abs(1.0f - GetKnobValue(static_cast<Dubby::Ctrl>(i))) 
 1458              		.loc 2 248 32 view .LVU330
 1459 000e 02EB4115 		add	r5, r2, r1, lsl #5
 248:Dubby.cpp     ****     display.DrawRect((i * 32)  + margin, int(abs(1.0f - GetKnobValue(static_cast<Dubby::Ctrl>(i))) 
 1460              		.loc 2 248 60 view .LVU331
 1461 0012 9A1A     		subs	r2, r3, r2
 247:Dubby.cpp     ****     display.DrawRect((i * 32)  + margin, 1, ((i + 1) * 31) - margin, 51, false, true);
 1462              		.loc 2 247 1 view .LVU332
 1463 0014 8BB0     		sub	sp, sp, #44
 1464              		.cfi_def_cfa_offset 80
 248:Dubby.cpp     ****     display.DrawRect((i * 32)  + margin, int(abs(1.0f - GetKnobValue(static_cast<Dubby::Ctrl>(i))) 
 1465              		.loc 2 248 25 view .LVU333
 1466 0016 4C01     		lsls	r4, r1, #5
 1467              	.LBB581:
 1468              	.LBB582:
 1469              	.LBB583:
 266:../../libDaisy//src/hid/disp/display.h ****             {
ARM GAS  /var/folders/1y/_321xjh9623c014x9_qw12rr0000gn/T//ccqHcGuP.s 			page 53


 1470              		.loc 3 266 40 view .LVU334
 1471 0018 9542     		cmp	r5, r2
 1472              	.LBE583:
 1473              	.LBE582:
 1474              	.LBE581:
 248:Dubby.cpp     ****     display.DrawRect((i * 32)  + margin, int(abs(1.0f - GetKnobValue(static_cast<Dubby::Ctrl>(i))) 
 1475              		.loc 2 248 21 view .LVU335
 1476 001a 9446     		mov	ip, r2
 247:Dubby.cpp     ****     display.DrawRect((i * 32)  + margin, 1, ((i + 1) * 31) - margin, 51, false, true);
 1477              		.loc 2 247 1 view .LVU336
 1478 001c 0291     		str	r1, [sp, #8]
 248:Dubby.cpp     ****     display.DrawRect((i * 32)  + margin, int(abs(1.0f - GetKnobValue(static_cast<Dubby::Ctrl>(i))) 
 1479              		.loc 2 248 25 view .LVU337
 1480 001e 0594     		str	r4, [sp, #20]
 248:Dubby.cpp     ****     display.DrawRect((i * 32)  + margin, int(abs(1.0f - GetKnobValue(static_cast<Dubby::Ctrl>(i))) 
 1481              		.loc 2 248 54 view .LVU338
 1482 0020 0693     		str	r3, [sp, #24]
 1483              	.LVL115:
 1484              	.LBB600:
 1485              	.LBI581:
 257:../../libDaisy//src/hid/disp/display.h ****                   uint_fast8_t y1,
 1486              		.loc 3 257 10 is_stmt 1 view .LVU339
 1487              	.LBB599:
 1488              	.LBI582:
 257:../../libDaisy//src/hid/disp/display.h ****                   uint_fast8_t y1,
 1489              		.loc 3 257 10 view .LVU340
 1490              	.LBB598:
 266:../../libDaisy//src/hid/disp/display.h ****             {
 1491              		.loc 3 266 40 view .LVU341
 1492 0022 18D8     		bhi	.L81
 1493 0024 2E46     		mov	r6, r5
 1494              	.LVL116:
 1495              	.L76:
 1496              	.LBB584:
 1497              		.loc 3 268 34 is_stmt 0 view .LVU342
 1498 0026 0121     		movs	r1, #1
 1499              	.L80:
 1500              	.LVL117:
 1501              	.LBB585:
 1502              	.LBI585:
 1503              		.loc 1 42 10 is_stmt 1 view .LVU343
 1504              	.LBB586:
 1505              	.LBI586:
 352:../../libDaisy//src/dev/oled_ssd130x.h ****     {
 1506              		.loc 4 352 10 view .LVU344
 1507              	.LBB587:
 1508              	.LBB588:
 1509              	.LBI588:
 352:../../libDaisy//src/dev/oled_ssd130x.h ****     {
 1510              		.loc 4 352 10 view .LVU345
 352:../../libDaisy//src/dev/oled_ssd130x.h ****     {
 1511              		.loc 4 352 10 is_stmt 0 view .LVU346
 1512              	.LBE588:
 1513              	.LBE587:
 1514              	.LBE586:
 1515              	.LBE585:
 1516              		.loc 3 268 17 is_stmt 1 view .LVU347
ARM GAS  /var/folders/1y/_321xjh9623c014x9_qw12rr0000gn/T//ccqHcGuP.s 			page 54


 1517              		.loc 3 268 44 view .LVU348
 1518              	.LBB597:
 1519              	.LBB596:
 1520              	.LBB595:
 1521              	.LBB592:
 1522              	.LBB589:
 359:../../libDaisy//src/dev/oled_ssd130x.h ****     }
 1523              		.loc 4 359 28 is_stmt 0 view .LVU349
 1524 0028 CB08     		lsrs	r3, r1, #3
 359:../../libDaisy//src/dev/oled_ssd130x.h ****     }
 1525              		.loc 4 359 55 view .LVU350
 1526 002a 01F00707 		and	r7, r1, #7
 359:../../libDaisy//src/dev/oled_ssd130x.h ****     }
 1527              		.loc 4 359 49 view .LVU351
 1528 002e 0124     		movs	r4, #1
 1529              	.LBE589:
 1530              	.LBE592:
 354:../../libDaisy//src/dev/oled_ssd130x.h ****             return;
 1531              		.loc 4 354 9 view .LVU352
 1532 0030 7F2E     		cmp	r6, #127
 1533              	.LBB593:
 1534              	.LBB590:
 359:../../libDaisy//src/dev/oled_ssd130x.h ****     }
 1535              		.loc 4 359 42 view .LVU353
 1536 0032 06EBC313 		add	r3, r6, r3, lsl #7
 1537 0036 2144     		add	r1, r1, r4
 1538              	.LVL118:
 359:../../libDaisy//src/dev/oled_ssd130x.h ****     }
 1539              		.loc 4 359 49 view .LVU354
 1540 0038 04FA07F4 		lsl	r4, r4, r7
 359:../../libDaisy//src/dev/oled_ssd130x.h ****     }
 1541              		.loc 4 359 42 view .LVU355
 1542 003c 0344     		add	r3, r3, r0
 1543              	.LBE590:
 1544              	.LBE593:
 354:../../libDaisy//src/dev/oled_ssd130x.h ****             return;
 1545              		.loc 4 354 9 view .LVU356
 1546 003e 05D8     		bhi	.L79
 1547              	.LBB594:
 1548              	.LBB591:
 359:../../libDaisy//src/dev/oled_ssd130x.h ****     }
 1549              		.loc 4 359 42 view .LVU357
 1550 0040 93F86474 		ldrb	r7, [r3, #1124]	@ zero_extendqisi2
 1551 0044 27EA0404 		bic	r4, r7, r4
 1552 0048 83F86444 		strb	r4, [r3, #1124]
 1553              	.L79:
 1554              	.LBE591:
 1555              	.LBE594:
 1556              	.LBE595:
 1557              	.LBE596:
 1558              	.LBE597:
 1559              		.loc 3 268 44 view .LVU358
 1560 004c 3429     		cmp	r1, #52
 1561 004e EBD1     		bne	.L80
 1562              	.LBE584:
 266:../../libDaisy//src/hid/disp/display.h ****             {
 1563              		.loc 3 266 13 is_stmt 1 view .LVU359
ARM GAS  /var/folders/1y/_321xjh9623c014x9_qw12rr0000gn/T//ccqHcGuP.s 			page 55


 1564 0050 0136     		adds	r6, r6, #1
 1565              	.LVL119:
 266:../../libDaisy//src/hid/disp/display.h ****             {
 1566              		.loc 3 266 40 view .LVU360
 1567 0052 B242     		cmp	r2, r6
 1568 0054 E7D2     		bcs	.L76
 1569              	.LVL120:
 1570              	.L81:
 266:../../libDaisy//src/hid/disp/display.h ****             {
 1571              		.loc 3 266 40 is_stmt 0 view .LVU361
 1572              	.LBE598:
 1573              	.LBE599:
 1574              	.LBE600:
 249:Dubby.cpp     ****     display.DrawRect((i * 32)  + margin, int(abs((currentLevels[i] * 5.0f) - 1.0f) * 51.0f) + 1, ((
 1575              		.loc 2 249 5 is_stmt 1 view .LVU362
 1576              	.LBB601:
 1577              	.LBI601:
 281:Dubby.cpp     **** 
 282:Dubby.cpp     **** void Dubby::DisplayPreferencesMenu()
 283:Dubby.cpp     **** {
 284:Dubby.cpp     ****     display.DrawRect(PANE_X_START, PANE_Y_START, PANE_X_END, PANE_Y_END, false, true);
 285:Dubby.cpp     **** 
 286:Dubby.cpp     ****     for (int i = 0; i < PREFERENCESMENU_LAST; i++)
 287:Dubby.cpp     ****     {
 288:Dubby.cpp     ****         display.SetCursor(5, 3 + (i * 10));
 289:Dubby.cpp     ****         display.WriteString(GetTextForEnum(PREFERENCESMENU, i), Font_6x8, true);
 290:Dubby.cpp     **** 
 291:Dubby.cpp     ****         if (preferencesMenuItemSelected == i)
 292:Dubby.cpp     ****             display.DrawRect(submenuBoxBounding[i][0], submenuBoxBounding[i][1], submenuBoxBounding
 293:Dubby.cpp     ****     }
 294:Dubby.cpp     **** 
 295:Dubby.cpp     ****     display.Update();
 296:Dubby.cpp     **** }
 297:Dubby.cpp     **** 
 298:Dubby.cpp     **** void Dubby::UpdatePreferencesMenu(int increment) 
 299:Dubby.cpp     **** {
 300:Dubby.cpp     ****     if (((preferencesMenuItemSelected >= 0 && increment == 1 && preferencesMenuItemSelected < PREFE
 301:Dubby.cpp     ****     {
 302:Dubby.cpp     ****         preferencesMenuItemSelected = (PreferenesMenuItems)(preferencesMenuItemSelected + increment
 303:Dubby.cpp     ****         
 304:Dubby.cpp     ****         DisplayPreferencesMenu();
 305:Dubby.cpp     ****     }
 306:Dubby.cpp     **** }
 307:Dubby.cpp     **** 
 308:Dubby.cpp     **** void Dubby::ResetToBootloader() 
 309:Dubby.cpp     **** {
 310:Dubby.cpp     ****     DrawBitmap(1);
 311:Dubby.cpp     **** 
 312:Dubby.cpp     ****     display.SetCursor(20, 55);
 313:Dubby.cpp     ****     display.WriteString("FIRMWARE UPDATE", Font_6x8, true);
 314:Dubby.cpp     **** 
 315:Dubby.cpp     ****     display.Update();
 316:Dubby.cpp     **** 
 317:Dubby.cpp     ****     System::ResetToBootloader();
 318:Dubby.cpp     **** }
 319:Dubby.cpp     **** 
 320:Dubby.cpp     **** void Dubby::InitEncoder()
ARM GAS  /var/folders/1y/_321xjh9623c014x9_qw12rr0000gn/T//ccqHcGuP.s 			page 56


 321:Dubby.cpp     **** {
 322:Dubby.cpp     ****     encoder.Init(seed.GetPin(PIN_ENC_A),
 323:Dubby.cpp     ****                 seed.GetPin(PIN_ENC_B),
 324:Dubby.cpp     ****                 seed.GetPin(PIN_ENC_CLICK));
 325:Dubby.cpp     **** }
 326:Dubby.cpp     **** 
 327:Dubby.cpp     **** void Dubby::ProcessAllControls()
 328:Dubby.cpp     **** {
 329:Dubby.cpp     ****     ProcessAnalogControls();
 330:Dubby.cpp     ****     ProcessDigitalControls();
 331:Dubby.cpp     **** }
 332:Dubby.cpp     **** 
 333:Dubby.cpp     **** void Dubby::ProcessAnalogControls()
 334:Dubby.cpp     **** {
 335:Dubby.cpp     ****     for(size_t i = 0; i < CTRL_LAST; i++)
 336:Dubby.cpp     ****         analogInputs[i].Process();
 337:Dubby.cpp     **** }
 338:Dubby.cpp     **** 
 339:Dubby.cpp     **** void Dubby::ProcessDigitalControls()
 340:Dubby.cpp     **** {
 341:Dubby.cpp     ****     encoder.Debounce();
 342:Dubby.cpp     ****     
 343:Dubby.cpp     ****     for (int i = 0; i < 4; i++) buttons[i].Debounce();
 344:Dubby.cpp     **** }
 345:Dubby.cpp     **** 
 346:Dubby.cpp     **** float Dubby::GetKnobValue(Ctrl k)
 1578              		.loc 2 346 7 view .LVU363
 1579              	.LBE601:
 347:Dubby.cpp     **** {
 348:Dubby.cpp     ****     return (analogInputs[k].Value());
 1580              		.loc 2 348 5 view .LVU364
 1581              	.LBB608:
 1582              	.LBB602:
 1583              	.LBI602:
 1584              		.file 6 "../../libDaisy//src/hid/ctrl.h"
   1:../../libDaisy//src/hid/ctrl.h **** #pragma once
   2:../../libDaisy//src/hid/ctrl.h **** #ifndef DSY_KNOB_H
   3:../../libDaisy//src/hid/ctrl.h **** #define DSY_KNOB_H /**< & */
   4:../../libDaisy//src/hid/ctrl.h **** #include <stdint.h>
   5:../../libDaisy//src/hid/ctrl.h **** 
   6:../../libDaisy//src/hid/ctrl.h **** #ifdef __cplusplus
   7:../../libDaisy//src/hid/ctrl.h **** namespace daisy
   8:../../libDaisy//src/hid/ctrl.h **** {
   9:../../libDaisy//src/hid/ctrl.h **** /**
  10:../../libDaisy//src/hid/ctrl.h ****     @brief Hardware Interface for control inputs \n 
  11:../../libDaisy//src/hid/ctrl.h ****     Primarily designed for ADC input controls such as \n 
  12:../../libDaisy//src/hid/ctrl.h ****     potentiometers, and control voltage. \n 
  13:../../libDaisy//src/hid/ctrl.h ****     @author Stephen Hensley
  14:../../libDaisy//src/hid/ctrl.h ****     @date November 2019
  15:../../libDaisy//src/hid/ctrl.h ****     @ingroup controls
  16:../../libDaisy//src/hid/ctrl.h **** */
  17:../../libDaisy//src/hid/ctrl.h **** class AnalogControl
  18:../../libDaisy//src/hid/ctrl.h **** {
  19:../../libDaisy//src/hid/ctrl.h ****   public:
  20:../../libDaisy//src/hid/ctrl.h ****     /** Constructor */
  21:../../libDaisy//src/hid/ctrl.h ****     AnalogControl() {}
  22:../../libDaisy//src/hid/ctrl.h ****     /** destructor */
ARM GAS  /var/folders/1y/_321xjh9623c014x9_qw12rr0000gn/T//ccqHcGuP.s 			page 57


  23:../../libDaisy//src/hid/ctrl.h ****     ~AnalogControl() {}
  24:../../libDaisy//src/hid/ctrl.h **** 
  25:../../libDaisy//src/hid/ctrl.h ****     /** 
  26:../../libDaisy//src/hid/ctrl.h ****     Initializes the control
  27:../../libDaisy//src/hid/ctrl.h ****     \param *adcptr is a pointer to the raw adc read value -- This can be acquired with dsy_adc_get_
  28:../../libDaisy//src/hid/ctrl.h ****     \param sr is the samplerate in Hz that the Process function will be called at.
  29:../../libDaisy//src/hid/ctrl.h ****     \param flip determines whether the input is flipped (i.e. 1.f - input) or not before being proc
  30:../../libDaisy//src/hid/ctrl.h ****     \param invert determines whether the input is inverted (i.e. -1.f * input) or note before being
  31:../../libDaisy//src/hid/ctrl.h ****     \param slew_seconds is the slew time in seconds that it takes for the control to change to a ne
  32:../../libDaisy//src/hid/ctrl.h ****     */
  33:../../libDaisy//src/hid/ctrl.h ****     void Init(uint16_t *adcptr,
  34:../../libDaisy//src/hid/ctrl.h ****               float     sr,
  35:../../libDaisy//src/hid/ctrl.h ****               bool      flip         = false,
  36:../../libDaisy//src/hid/ctrl.h ****               bool      invert       = false,
  37:../../libDaisy//src/hid/ctrl.h ****               float     slew_seconds = 0.002f);
  38:../../libDaisy//src/hid/ctrl.h **** 
  39:../../libDaisy//src/hid/ctrl.h ****     /** 
  40:../../libDaisy//src/hid/ctrl.h ****     This Initializes the AnalogControl for a -5V to 5V inverted input
  41:../../libDaisy//src/hid/ctrl.h ****     All of the Init details are the same otherwise
  42:../../libDaisy//src/hid/ctrl.h ****     \param *adcptr Pointer to analog digital converter
  43:../../libDaisy//src/hid/ctrl.h ****     \param sr Audio engine sample rate
  44:../../libDaisy//src/hid/ctrl.h ****     */
  45:../../libDaisy//src/hid/ctrl.h ****     void InitBipolarCv(uint16_t *adcptr, float sr);
  46:../../libDaisy//src/hid/ctrl.h **** 
  47:../../libDaisy//src/hid/ctrl.h ****     /** 
  48:../../libDaisy//src/hid/ctrl.h ****     Filters, and transforms a raw ADC read into a normalized range.
  49:../../libDaisy//src/hid/ctrl.h ****     this should be called at the rate of specified by samplerate at Init time.   
  50:../../libDaisy//src/hid/ctrl.h ****     Default Initializations will return 0.0 -> 1.0
  51:../../libDaisy//src/hid/ctrl.h ****     Bi-polar CV inputs will return -1.0 -> 1.0
  52:../../libDaisy//src/hid/ctrl.h ****     */
  53:../../libDaisy//src/hid/ctrl.h ****     float Process();
  54:../../libDaisy//src/hid/ctrl.h **** 
  55:../../libDaisy//src/hid/ctrl.h ****     /** Returns the current stored value, without reprocessing */
  56:../../libDaisy//src/hid/ctrl.h ****     inline float Value() const { return val_; }
 1585              		.loc 6 56 18 view .LVU365
 1586              	.LBB603:
 1587              		.loc 6 56 34 view .LVU366
 1588              		.loc 6 56 34 is_stmt 0 view .LVU367
 1589              	.LBE603:
 1590              	.LBE602:
 1591              	.LBE608:
 1592              	.LBB609:
 1593              	.LBI609:
 1594              		.file 7 "/Library/DaisyToolchain/0.2.0/arm/arm-none-eabi/include/c++/10.3.1/bits/std_abs.h"
   1:/Library/DaisyToolchain/0.2.0/arm/arm-none-eabi/include/c++/10.3.1/bits/std_abs.h **** // -*- C++ -*- C library enhancements header.
   2:/Library/DaisyToolchain/0.2.0/arm/arm-none-eabi/include/c++/10.3.1/bits/std_abs.h **** 
   3:/Library/DaisyToolchain/0.2.0/arm/arm-none-eabi/include/c++/10.3.1/bits/std_abs.h **** // Copyright (C) 2016-2020 Free Software Foundation, Inc.
   4:/Library/DaisyToolchain/0.2.0/arm/arm-none-eabi/include/c++/10.3.1/bits/std_abs.h **** //
   5:/Library/DaisyToolchain/0.2.0/arm/arm-none-eabi/include/c++/10.3.1/bits/std_abs.h **** // This file is part of the GNU ISO C++ Library.  This library is free
   6:/Library/DaisyToolchain/0.2.0/arm/arm-none-eabi/include/c++/10.3.1/bits/std_abs.h **** // software; you can redistribute it and/or modify it under the
   7:/Library/DaisyToolchain/0.2.0/arm/arm-none-eabi/include/c++/10.3.1/bits/std_abs.h **** // terms of the GNU General Public License as published by the
   8:/Library/DaisyToolchain/0.2.0/arm/arm-none-eabi/include/c++/10.3.1/bits/std_abs.h **** // Free Software Foundation; either version 3, or (at your option)
   9:/Library/DaisyToolchain/0.2.0/arm/arm-none-eabi/include/c++/10.3.1/bits/std_abs.h **** // any later version.
  10:/Library/DaisyToolchain/0.2.0/arm/arm-none-eabi/include/c++/10.3.1/bits/std_abs.h **** 
  11:/Library/DaisyToolchain/0.2.0/arm/arm-none-eabi/include/c++/10.3.1/bits/std_abs.h **** // This library is distributed in the hope that it will be useful,
  12:/Library/DaisyToolchain/0.2.0/arm/arm-none-eabi/include/c++/10.3.1/bits/std_abs.h **** // but WITHOUT ANY WARRANTY; without even the implied warranty of
  13:/Library/DaisyToolchain/0.2.0/arm/arm-none-eabi/include/c++/10.3.1/bits/std_abs.h **** // MERCHANTABILITY or FITNESS FOR A PARTICULAR PURPOSE.  See the
ARM GAS  /var/folders/1y/_321xjh9623c014x9_qw12rr0000gn/T//ccqHcGuP.s 			page 58


  14:/Library/DaisyToolchain/0.2.0/arm/arm-none-eabi/include/c++/10.3.1/bits/std_abs.h **** // GNU General Public License for more details.
  15:/Library/DaisyToolchain/0.2.0/arm/arm-none-eabi/include/c++/10.3.1/bits/std_abs.h **** 
  16:/Library/DaisyToolchain/0.2.0/arm/arm-none-eabi/include/c++/10.3.1/bits/std_abs.h **** // Under Section 7 of GPL version 3, you are granted additional
  17:/Library/DaisyToolchain/0.2.0/arm/arm-none-eabi/include/c++/10.3.1/bits/std_abs.h **** // permissions described in the GCC Runtime Library Exception, version
  18:/Library/DaisyToolchain/0.2.0/arm/arm-none-eabi/include/c++/10.3.1/bits/std_abs.h **** // 3.1, as published by the Free Software Foundation.
  19:/Library/DaisyToolchain/0.2.0/arm/arm-none-eabi/include/c++/10.3.1/bits/std_abs.h **** 
  20:/Library/DaisyToolchain/0.2.0/arm/arm-none-eabi/include/c++/10.3.1/bits/std_abs.h **** // You should have received a copy of the GNU General Public License and
  21:/Library/DaisyToolchain/0.2.0/arm/arm-none-eabi/include/c++/10.3.1/bits/std_abs.h **** // a copy of the GCC Runtime Library Exception along with this program;
  22:/Library/DaisyToolchain/0.2.0/arm/arm-none-eabi/include/c++/10.3.1/bits/std_abs.h **** // see the files COPYING3 and COPYING.RUNTIME respectively.  If not, see
  23:/Library/DaisyToolchain/0.2.0/arm/arm-none-eabi/include/c++/10.3.1/bits/std_abs.h **** // <http://www.gnu.org/licenses/>.
  24:/Library/DaisyToolchain/0.2.0/arm/arm-none-eabi/include/c++/10.3.1/bits/std_abs.h **** 
  25:/Library/DaisyToolchain/0.2.0/arm/arm-none-eabi/include/c++/10.3.1/bits/std_abs.h **** /** @file include/bits/std_abs.h
  26:/Library/DaisyToolchain/0.2.0/arm/arm-none-eabi/include/c++/10.3.1/bits/std_abs.h ****  *  This is an internal header file, included by other library headers.
  27:/Library/DaisyToolchain/0.2.0/arm/arm-none-eabi/include/c++/10.3.1/bits/std_abs.h ****  *  Do not attempt to use it directly. @headername{cmath, cstdlib}
  28:/Library/DaisyToolchain/0.2.0/arm/arm-none-eabi/include/c++/10.3.1/bits/std_abs.h ****  */
  29:/Library/DaisyToolchain/0.2.0/arm/arm-none-eabi/include/c++/10.3.1/bits/std_abs.h **** 
  30:/Library/DaisyToolchain/0.2.0/arm/arm-none-eabi/include/c++/10.3.1/bits/std_abs.h **** #ifndef _GLIBCXX_BITS_STD_ABS_H
  31:/Library/DaisyToolchain/0.2.0/arm/arm-none-eabi/include/c++/10.3.1/bits/std_abs.h **** #define _GLIBCXX_BITS_STD_ABS_H
  32:/Library/DaisyToolchain/0.2.0/arm/arm-none-eabi/include/c++/10.3.1/bits/std_abs.h **** 
  33:/Library/DaisyToolchain/0.2.0/arm/arm-none-eabi/include/c++/10.3.1/bits/std_abs.h **** #pragma GCC system_header
  34:/Library/DaisyToolchain/0.2.0/arm/arm-none-eabi/include/c++/10.3.1/bits/std_abs.h **** 
  35:/Library/DaisyToolchain/0.2.0/arm/arm-none-eabi/include/c++/10.3.1/bits/std_abs.h **** #include <bits/c++config.h>
  36:/Library/DaisyToolchain/0.2.0/arm/arm-none-eabi/include/c++/10.3.1/bits/std_abs.h **** 
  37:/Library/DaisyToolchain/0.2.0/arm/arm-none-eabi/include/c++/10.3.1/bits/std_abs.h **** #define _GLIBCXX_INCLUDE_NEXT_C_HEADERS
  38:/Library/DaisyToolchain/0.2.0/arm/arm-none-eabi/include/c++/10.3.1/bits/std_abs.h **** #include_next <stdlib.h>
  39:/Library/DaisyToolchain/0.2.0/arm/arm-none-eabi/include/c++/10.3.1/bits/std_abs.h **** #ifdef __CORRECT_ISO_CPP_MATH_H_PROTO
  40:/Library/DaisyToolchain/0.2.0/arm/arm-none-eabi/include/c++/10.3.1/bits/std_abs.h **** # include_next <math.h>
  41:/Library/DaisyToolchain/0.2.0/arm/arm-none-eabi/include/c++/10.3.1/bits/std_abs.h **** #endif
  42:/Library/DaisyToolchain/0.2.0/arm/arm-none-eabi/include/c++/10.3.1/bits/std_abs.h **** #undef _GLIBCXX_INCLUDE_NEXT_C_HEADERS
  43:/Library/DaisyToolchain/0.2.0/arm/arm-none-eabi/include/c++/10.3.1/bits/std_abs.h **** 
  44:/Library/DaisyToolchain/0.2.0/arm/arm-none-eabi/include/c++/10.3.1/bits/std_abs.h **** #undef abs
  45:/Library/DaisyToolchain/0.2.0/arm/arm-none-eabi/include/c++/10.3.1/bits/std_abs.h **** 
  46:/Library/DaisyToolchain/0.2.0/arm/arm-none-eabi/include/c++/10.3.1/bits/std_abs.h **** extern "C++"
  47:/Library/DaisyToolchain/0.2.0/arm/arm-none-eabi/include/c++/10.3.1/bits/std_abs.h **** {
  48:/Library/DaisyToolchain/0.2.0/arm/arm-none-eabi/include/c++/10.3.1/bits/std_abs.h **** namespace std _GLIBCXX_VISIBILITY(default)
  49:/Library/DaisyToolchain/0.2.0/arm/arm-none-eabi/include/c++/10.3.1/bits/std_abs.h **** {
  50:/Library/DaisyToolchain/0.2.0/arm/arm-none-eabi/include/c++/10.3.1/bits/std_abs.h **** _GLIBCXX_BEGIN_NAMESPACE_VERSION
  51:/Library/DaisyToolchain/0.2.0/arm/arm-none-eabi/include/c++/10.3.1/bits/std_abs.h **** 
  52:/Library/DaisyToolchain/0.2.0/arm/arm-none-eabi/include/c++/10.3.1/bits/std_abs.h ****   using ::abs;
  53:/Library/DaisyToolchain/0.2.0/arm/arm-none-eabi/include/c++/10.3.1/bits/std_abs.h **** 
  54:/Library/DaisyToolchain/0.2.0/arm/arm-none-eabi/include/c++/10.3.1/bits/std_abs.h **** #ifndef __CORRECT_ISO_CPP_STDLIB_H_PROTO
  55:/Library/DaisyToolchain/0.2.0/arm/arm-none-eabi/include/c++/10.3.1/bits/std_abs.h ****   inline long
  56:/Library/DaisyToolchain/0.2.0/arm/arm-none-eabi/include/c++/10.3.1/bits/std_abs.h ****   abs(long __i) { return __builtin_labs(__i); }
  57:/Library/DaisyToolchain/0.2.0/arm/arm-none-eabi/include/c++/10.3.1/bits/std_abs.h **** #endif
  58:/Library/DaisyToolchain/0.2.0/arm/arm-none-eabi/include/c++/10.3.1/bits/std_abs.h **** 
  59:/Library/DaisyToolchain/0.2.0/arm/arm-none-eabi/include/c++/10.3.1/bits/std_abs.h **** #ifdef _GLIBCXX_USE_LONG_LONG
  60:/Library/DaisyToolchain/0.2.0/arm/arm-none-eabi/include/c++/10.3.1/bits/std_abs.h ****   inline long long
  61:/Library/DaisyToolchain/0.2.0/arm/arm-none-eabi/include/c++/10.3.1/bits/std_abs.h ****   abs(long long __x) { return __builtin_llabs (__x); }
  62:/Library/DaisyToolchain/0.2.0/arm/arm-none-eabi/include/c++/10.3.1/bits/std_abs.h **** #endif
  63:/Library/DaisyToolchain/0.2.0/arm/arm-none-eabi/include/c++/10.3.1/bits/std_abs.h **** 
  64:/Library/DaisyToolchain/0.2.0/arm/arm-none-eabi/include/c++/10.3.1/bits/std_abs.h **** // _GLIBCXX_RESOLVE_LIB_DEFECTS
  65:/Library/DaisyToolchain/0.2.0/arm/arm-none-eabi/include/c++/10.3.1/bits/std_abs.h **** // 2192. Validity and return type of std::abs(0u) is unclear
  66:/Library/DaisyToolchain/0.2.0/arm/arm-none-eabi/include/c++/10.3.1/bits/std_abs.h **** // 2294. <cstdlib> should declare abs(double)
  67:/Library/DaisyToolchain/0.2.0/arm/arm-none-eabi/include/c++/10.3.1/bits/std_abs.h **** // 2735. std::abs(short), std::abs(signed char) and others should return int
  68:/Library/DaisyToolchain/0.2.0/arm/arm-none-eabi/include/c++/10.3.1/bits/std_abs.h **** 
  69:/Library/DaisyToolchain/0.2.0/arm/arm-none-eabi/include/c++/10.3.1/bits/std_abs.h **** #ifndef __CORRECT_ISO_CPP_MATH_H_PROTO
  70:/Library/DaisyToolchain/0.2.0/arm/arm-none-eabi/include/c++/10.3.1/bits/std_abs.h ****   inline _GLIBCXX_CONSTEXPR double
ARM GAS  /var/folders/1y/_321xjh9623c014x9_qw12rr0000gn/T//ccqHcGuP.s 			page 59


  71:/Library/DaisyToolchain/0.2.0/arm/arm-none-eabi/include/c++/10.3.1/bits/std_abs.h ****   abs(double __x)
  72:/Library/DaisyToolchain/0.2.0/arm/arm-none-eabi/include/c++/10.3.1/bits/std_abs.h ****   { return __builtin_fabs(__x); }
  73:/Library/DaisyToolchain/0.2.0/arm/arm-none-eabi/include/c++/10.3.1/bits/std_abs.h **** 
  74:/Library/DaisyToolchain/0.2.0/arm/arm-none-eabi/include/c++/10.3.1/bits/std_abs.h ****   inline _GLIBCXX_CONSTEXPR float
  75:/Library/DaisyToolchain/0.2.0/arm/arm-none-eabi/include/c++/10.3.1/bits/std_abs.h ****   abs(float __x)
 1595              		.loc 7 75 3 is_stmt 1 view .LVU368
 1596              	.LBB610:
  76:/Library/DaisyToolchain/0.2.0/arm/arm-none-eabi/include/c++/10.3.1/bits/std_abs.h ****   { return __builtin_fabsf(__x); }
 1597              		.loc 7 76 5 view .LVU369
 1598              		.loc 7 76 5 is_stmt 0 view .LVU370
 1599              	.LBE610:
 1600              	.LBE609:
 1601              	.LBB612:
 1602              	.LBB606:
 1603              	.LBB604:
 1604              		.loc 6 56 41 view .LVU371
 1605 0056 9DF80830 		ldrb	r3, [sp, #8]	@ zero_extendqisi2
 1606              	.LBE604:
 1607              	.LBE606:
 1608              	.LBE612:
 249:Dubby.cpp     ****     display.DrawRect((i * 32)  + margin, int(abs((currentLevels[i] * 5.0f) - 1.0f) * 51.0f) + 1, ((
 1609              		.loc 2 249 49 view .LVU372
 1610 005a F7EE007A 		vmov.f32	s15, #1.0e+0
 249:Dubby.cpp     ****     display.DrawRect((i * 32)  + margin, int(abs((currentLevels[i] * 5.0f) - 1.0f) * 51.0f) + 1, ((
 1611              		.loc 2 249 100 view .LVU373
 1612 005e 9FEDC97A 		vldr.32	s14, .L179
 1613              	.LBB613:
 1614              	.LBB614:
 1615              	.LBB615:
 227:../../libDaisy//src/hid/disp/display.h ****         int_fast16_t deltaY = abs((int_fast16_t)y2 - (int_fast16_t)y1);
 1616              		.loc 3 227 52 view .LVU374
 1617 0062 A2EB050A 		sub	r10, r2, r5
 1618              	.LBE615:
 1619              	.LBE614:
 1620              	.LBE613:
 1621              	.LBB692:
 1622              	.LBB607:
 1623              	.LBB605:
 1624              		.loc 6 56 41 view .LVU375
 1625 0066 00EB4313 		add	r3, r0, r3, lsl #5
 1626              	.LBE605:
 1627              	.LBE607:
 1628              	.LBE692:
 1629              	.LBB693:
 1630              	.LBB642:
 1631              	.LBB637:
 227:../../libDaisy//src/hid/disp/display.h ****         int_fast16_t deltaY = abs((int_fast16_t)y2 - (int_fast16_t)y1);
 1632              		.loc 3 227 22 view .LVU376
 1633 006a BAF1000F 		cmp	r10, #0
 1634              	.LBE637:
 1635              	.LBE642:
 1636              	.LBE693:
 249:Dubby.cpp     ****     display.DrawRect((i * 32)  + margin, int(abs((currentLevels[i] * 5.0f) - 1.0f) * 51.0f) + 1, ((
 1637              		.loc 2 249 49 view .LVU377
 1638 006e D3ED4A6A 		vldr.32	s13, [r3, #296]
 1639              	.LBB694:
 1640              	.LBB643:
ARM GAS  /var/folders/1y/_321xjh9623c014x9_qw12rr0000gn/T//ccqHcGuP.s 			page 60


 1641              	.LBB638:
 227:../../libDaisy//src/hid/disp/display.h ****         int_fast16_t deltaY = abs((int_fast16_t)y2 - (int_fast16_t)y1);
 1642              		.loc 3 227 22 view .LVU378
 1643 0072 B8BF     		it	lt
 1644 0074 CAF1000A 		rsblt	r10, r10, #0
 229:../../libDaisy//src/hid/disp/display.h ****         int_fast16_t signY  = ((y1 < y2) ? 1 : -1);
 1645              		.loc 3 229 42 view .LVU379
 1646 0078 9542     		cmp	r5, r2
 1647              	.LBE638:
 1648              	.LBE643:
 1649              	.LBE694:
 249:Dubby.cpp     ****     display.DrawRect((i * 32)  + margin, int(abs((currentLevels[i] * 5.0f) - 1.0f) * 51.0f) + 1, ((
 1650              		.loc 2 249 49 view .LVU380
 1651 007a 77EEE67A 		vsub.f32	s15, s15, s13
 1652              	.LBB695:
 1653              	.LBB611:
 1654              		.loc 7 76 31 view .LVU381
 1655 007e F0EEE77A 		vabs.f32	s15, s15
 1656              	.LBE611:
 1657              	.LBE695:
 249:Dubby.cpp     ****     display.DrawRect((i * 32)  + margin, int(abs((currentLevels[i] * 5.0f) - 1.0f) * 51.0f) + 1, ((
 1658              		.loc 2 249 100 view .LVU382
 1659 0082 67EE877A 		vmul.f32	s15, s15, s14
 249:Dubby.cpp     ****     display.DrawRect((i * 32)  + margin, int(abs((currentLevels[i] * 5.0f) - 1.0f) * 51.0f) + 1, ((
 1660              		.loc 2 249 42 view .LVU383
 1661 0086 FDEEE77A 		vcvt.s32.f32	s15, s15
 249:Dubby.cpp     ****     display.DrawRect((i * 32)  + margin, int(abs((currentLevels[i] * 5.0f) - 1.0f) * 51.0f) + 1, ((
 1662              		.loc 2 249 109 view .LVU384
 1663 008a 17EE903A 		vmov	r3, s15	@ int
 1664 008e 03F10107 		add	r7, r3, #1
 1665              	.LVL121:
 1666              	.LBB696:
 1667              	.LBI613:
 257:../../libDaisy//src/hid/disp/display.h ****                   uint_fast8_t y1,
 1668              		.loc 3 257 10 is_stmt 1 view .LVU385
 1669              	.LBB644:
 1670              	.LBI614:
 221:../../libDaisy//src/hid/disp/display.h ****                   uint_fast8_t y1,
 1671              		.loc 3 221 10 view .LVU386
 1672              	.LBB639:
 229:../../libDaisy//src/hid/disp/display.h ****         int_fast16_t signY  = ((y1 < y2) ? 1 : -1);
 1673              		.loc 3 229 42 is_stmt 0 view .LVU387
 1674 0092 80F08D81 		bcs	.L178
 1675              	.LVL122:
 1676              	.LBB616:
 1677              	.LBI616:
 1678              		.loc 1 42 10 is_stmt 1 view .LVU388
 1679              	.LBB617:
 1680              	.LBB618:
 1681              	.LBB619:
 354:../../libDaisy//src/dev/oled_ssd130x.h ****             return;
 1682              		.loc 4 354 14 is_stmt 0 view .LVU389
 1683 0096 7F2A     		cmp	r2, #127
 1684              	.LBE619:
 1685              	.LBE618:
  43:../../libDaisy//src/hid/disp/oled_display.h ****     {
  44:../../libDaisy//src/hid/disp/oled_display.h ****         driver_.DrawPixel(x, y, on);
ARM GAS  /var/folders/1y/_321xjh9623c014x9_qw12rr0000gn/T//ccqHcGuP.s 			page 61


 1686              		.loc 1 44 26 view .LVU390
 1687 0098 00F58B64 		add	r4, r0, #1112
 1688              	.LVL123:
 1689              	.LBB623:
 1690              	.LBI618:
 352:../../libDaisy//src/dev/oled_ssd130x.h ****     {
 1691              		.loc 4 352 10 is_stmt 1 view .LVU391
 1692              	.LBE623:
 1693              	.LBE617:
 1694              	.LBE616:
 229:../../libDaisy//src/hid/disp/display.h ****         int_fast16_t signY  = ((y1 < y2) ? 1 : -1);
 1695              		.loc 3 229 42 is_stmt 0 view .LVU392
 1696 009c 4FF0010B 		mov	fp, #1
 1697              	.LBB631:
 1698              	.LBB628:
 1699              	.LBB624:
 1700              	.LBB620:
 354:../../libDaisy//src/dev/oled_ssd130x.h ****             return;
 1701              		.loc 4 354 14 view .LVU393
 1702 00a0 94BF     		ite	ls
 1703 00a2 0023     		movls	r3, #0
 1704 00a4 0123     		movhi	r3, #1
 354:../../libDaisy//src/dev/oled_ssd130x.h ****             return;
 1705              		.loc 4 354 28 view .LVU394
 1706 00a6 3F2F     		cmp	r7, #63
 354:../../libDaisy//src/dev/oled_ssd130x.h ****             return;
 1707              		.loc 4 354 14 view .LVU395
 1708 00a8 0393     		str	r3, [sp, #12]
 354:../../libDaisy//src/dev/oled_ssd130x.h ****             return;
 1709              		.loc 4 354 28 view .LVU396
 1710 00aa 94BF     		ite	ls
 1711 00ac 0021     		movls	r1, #0
 1712 00ae 0121     		movhi	r1, #1
 1713 00b0 0491     		str	r1, [sp, #16]
 354:../../libDaisy//src/dev/oled_ssd130x.h ****             return;
 1714              		.loc 4 354 9 view .LVU397
 1715 00b2 13B9     		cbnz	r3, .L84
 1716 00b4 0029     		cmp	r1, #0
 1717 00b6 00F08B81 		beq	.L121
 1718              	.LVL124:
 1719              	.L84:
 354:../../libDaisy//src/dev/oled_ssd130x.h ****             return;
 1720              		.loc 4 354 9 view .LVU398
 1721              	.LBE620:
 1722              	.LBE624:
 1723              	.LBE628:
 1724              	.LBE631:
 227:../../libDaisy//src/hid/disp/display.h ****         int_fast16_t deltaY = abs((int_fast16_t)y2 - (int_fast16_t)y1);
 1725              		.loc 3 227 22 view .LVU399
 1726 00ba D046     		mov	r8, r10
 1727              	.LBE639:
 1728              	.LBE644:
 1729              	.LBE696:
 249:Dubby.cpp     ****     display.DrawRect((i * 32)  + margin, int(abs((currentLevels[i] * 5.0f) - 1.0f) * 51.0f) + 1, ((
 1730              		.loc 2 249 21 view .LVU400
 1731 00bc 3E46     		mov	r6, r7
 248:Dubby.cpp     ****     display.DrawRect((i * 32)  + margin, int(abs(1.0f - GetKnobValue(static_cast<Dubby::Ctrl>(i))) 
ARM GAS  /var/folders/1y/_321xjh9623c014x9_qw12rr0000gn/T//ccqHcGuP.s 			page 62


 1732              		.loc 2 248 21 view .LVU401
 1733 00be AE46     		mov	lr, r5
 1734              	.L86:
 1735              	.LVL125:
 1736              	.LBB697:
 1737              	.LBB645:
 1738              	.LBB640:
 1739              	.LBB632:
 1740              	.LBI632:
  42:../../libDaisy//src/hid/disp/oled_display.h ****     {
 1741              		.loc 1 42 10 is_stmt 1 view .LVU402
 1742              	.LBB633:
 1743              	.LBI633:
 352:../../libDaisy//src/dev/oled_ssd130x.h ****     {
 1744              		.loc 4 352 10 view .LVU403
 1745              	.LBB634:
 357:../../libDaisy//src/dev/oled_ssd130x.h ****         else
 1746              		.loc 4 357 28 is_stmt 0 view .LVU404
 1747 00c0 F108     		lsrs	r1, r6, #3
 357:../../libDaisy//src/dev/oled_ssd130x.h ****         else
 1748              		.loc 4 357 54 view .LVU405
 1749 00c2 06F00703 		and	r3, r6, #7
 357:../../libDaisy//src/dev/oled_ssd130x.h ****         else
 1750              		.loc 4 357 48 view .LVU406
 1751 00c6 4FF00109 		mov	r9, #1
 354:../../libDaisy//src/dev/oled_ssd130x.h ****             return;
 1752              		.loc 4 354 9 view .LVU407
 1753 00ca BEF17F0F 		cmp	lr, #127
 357:../../libDaisy//src/dev/oled_ssd130x.h ****         else
 1754              		.loc 4 357 42 view .LVU408
 1755 00ce 0EEBC111 		add	r1, lr, r1, lsl #7
 357:../../libDaisy//src/dev/oled_ssd130x.h ****         else
 1756              		.loc 4 357 48 view .LVU409
 1757 00d2 09FA03F3 		lsl	r3, r9, r3
 354:../../libDaisy//src/dev/oled_ssd130x.h ****             return;
 1758              		.loc 4 354 9 view .LVU410
 1759 00d6 08D8     		bhi	.L87
 1760 00d8 3F2E     		cmp	r6, #63
 357:../../libDaisy//src/dev/oled_ssd130x.h ****         else
 1761              		.loc 4 357 42 view .LVU411
 1762 00da 0144     		add	r1, r1, r0
 354:../../libDaisy//src/dev/oled_ssd130x.h ****             return;
 1763              		.loc 4 354 9 view .LVU412
 1764 00dc 05D8     		bhi	.L87
 357:../../libDaisy//src/dev/oled_ssd130x.h ****         else
 1765              		.loc 4 357 42 view .LVU413
 1766 00de 91F86494 		ldrb	r9, [r1, #1124]	@ zero_extendqisi2
 1767 00e2 43EA0903 		orr	r3, r3, r9
 1768 00e6 81F86434 		strb	r3, [r1, #1124]
 1769              	.L87:
 357:../../libDaisy//src/dev/oled_ssd130x.h ****         else
 1770              		.loc 4 357 42 view .LVU414
 1771              	.LBE634:
 1772              	.LBE633:
 1773              	.LBE632:
 243:../../libDaisy//src/hid/disp/display.h ****             {
 1774              		.loc 3 243 13 view .LVU415
ARM GAS  /var/folders/1y/_321xjh9623c014x9_qw12rr0000gn/T//ccqHcGuP.s 			page 63


 1775 00ea 5FEA4803 		lsls	r3, r8, #1
 246:../../libDaisy//src/hid/disp/display.h ****             }
 1776              		.loc 3 246 20 view .LVU416
 1777 00ee 18BF     		it	ne
 1778 00f0 DE44     		addne	lr, lr, fp
 1779              	.LVL126:
 249:../../libDaisy//src/hid/disp/display.h ****             {
 1780              		.loc 3 249 13 view .LVU417
 1781 00f2 9A45     		cmp	r10, r3
 1782 00f4 01DD     		ble	.L89
 251:../../libDaisy//src/hid/disp/display.h ****                 y1 += signY;
 1783              		.loc 3 251 23 view .LVU418
 1784 00f6 D044     		add	r8, r8, r10
 1785              	.LVL127:
 252:../../libDaisy//src/hid/disp/display.h ****             }
 1786              		.loc 3 252 20 view .LVU419
 1787 00f8 013E     		subs	r6, r6, #1
 1788              	.LVL128:
 1789              	.L89:
 239:../../libDaisy//src/hid/disp/display.h ****         {
 1790              		.loc 3 239 26 is_stmt 1 view .LVU420
 1791 00fa 7245     		cmp	r2, lr
 1792 00fc E0D1     		bne	.L86
 239:../../libDaisy//src/hid/disp/display.h ****         {
 1793              		.loc 3 239 26 is_stmt 0 view .LVU421
 1794 00fe B742     		cmp	r7, r6
 1795 0100 DED1     		bne	.L86
 1796 0102 0023     		movs	r3, #0
 1797 0104 0793     		str	r3, [sp, #28]
 1798              	.LVL129:
 1799              	.L83:
 239:../../libDaisy//src/hid/disp/display.h ****         {
 1800              		.loc 3 239 26 view .LVU422
 1801              	.LBE640:
 1802              	.LBE645:
 1803              	.LBB646:
 1804              	.LBI646:
 221:../../libDaisy//src/hid/disp/display.h ****                   uint_fast8_t y1,
 1805              		.loc 3 221 10 is_stmt 1 view .LVU423
 1806              	.LBB647:
 228:../../libDaisy//src/hid/disp/display.h ****         int_fast16_t signX  = ((x1 < x2) ? 1 : -1);
 1807              		.loc 3 228 52 is_stmt 0 view .LVU424
 1808 0106 C7F13303 		rsb	r3, r7, #51
 230:../../libDaisy//src/hid/disp/display.h ****         int_fast16_t error  = deltaX - deltaY;
 1809              		.loc 3 230 42 view .LVU425
 1810 010a 332F     		cmp	r7, #51
 228:../../libDaisy//src/hid/disp/display.h ****         int_fast16_t signX  = ((x1 < x2) ? 1 : -1);
 1811              		.loc 3 228 22 view .LVU426
 1812 010c 83EAE371 		eor	r1, r3, r3, asr #31
 1813 0110 A1EBE371 		sub	r1, r1, r3, asr #31
 1814 0114 0B46     		mov	r3, r1
 230:../../libDaisy//src/hid/disp/display.h ****         int_fast16_t error  = deltaX - deltaY;
 1815              		.loc 3 230 42 view .LVU427
 1816 0116 B4BF     		ite	lt
 1817 0118 0123     		movlt	r3, #1
 1818 011a 4FF0FF33 		movge	r3, #-1
 231:../../libDaisy//src/hid/disp/display.h ****         int_fast16_t error2;
ARM GAS  /var/folders/1y/_321xjh9623c014x9_qw12rr0000gn/T//ccqHcGuP.s 			page 64


 1819              		.loc 3 231 22 view .LVU428
 1820 011e C1F1000A 		rsb	r10, r1, #0
 228:../../libDaisy//src/hid/disp/display.h ****         int_fast16_t signX  = ((x1 < x2) ? 1 : -1);
 1821              		.loc 3 228 22 view .LVU429
 1822 0122 0091     		str	r1, [sp]
 1823              	.LVL130:
 230:../../libDaisy//src/hid/disp/display.h ****         int_fast16_t error  = deltaX - deltaY;
 1824              		.loc 3 230 42 view .LVU430
 1825 0124 0193     		str	r3, [sp, #4]
 1826              	.LVL131:
 1827              	.LBB648:
 1828              	.LBI648:
  42:../../libDaisy//src/hid/disp/oled_display.h ****     {
 1829              		.loc 1 42 10 is_stmt 1 view .LVU431
 1830              	.LBB649:
 1831              	.LBI649:
 352:../../libDaisy//src/dev/oled_ssd130x.h ****     {
 1832              		.loc 4 352 10 view .LVU432
 1833              	.LBB650:
 354:../../libDaisy//src/dev/oled_ssd130x.h ****             return;
 1834              		.loc 4 354 9 is_stmt 0 view .LVU433
 1835 0126 039B     		ldr	r3, [sp, #12]
 1836              	.LVL132:
 354:../../libDaisy//src/dev/oled_ssd130x.h ****             return;
 1837              		.loc 4 354 9 view .LVU434
 1838 0128 43B9     		cbnz	r3, .L91
 357:../../libDaisy//src/dev/oled_ssd130x.h ****         else
 1839              		.loc 4 357 42 view .LVU435
 1840 012a 02F54073 		add	r3, r2, #768
 1841 012e 0344     		add	r3, r3, r0
 1842 0130 93F86414 		ldrb	r1, [r3, #1124]	@ zero_extendqisi2
 1843              	.LVL133:
 357:../../libDaisy//src/dev/oled_ssd130x.h ****         else
 1844              		.loc 4 357 42 view .LVU436
 1845 0134 41F00801 		orr	r1, r1, #8
 1846 0138 83F86414 		strb	r1, [r3, #1124]
 1847              	.L91:
 1848              	.LVL134:
 357:../../libDaisy//src/dev/oled_ssd130x.h ****         else
 1849              		.loc 4 357 42 view .LVU437
 1850              	.LBE650:
 1851              	.LBE649:
 1852              	.LBE648:
 239:../../libDaisy//src/hid/disp/display.h ****         {
 1853              		.loc 3 239 26 is_stmt 1 view .LVU438
 1854 013c 332F     		cmp	r7, #51
 1855 013e 29D0     		beq	.L92
 1856 0140 5646     		mov	r6, r10
 1857 0142 3946     		mov	r1, r7
 1858              	.LBE647:
 1859              	.LBE646:
 1860              	.LBE697:
 248:Dubby.cpp     ****     display.DrawRect((i * 32)  + margin, int(abs(1.0f - GetKnobValue(static_cast<Dubby::Ctrl>(i))) 
 1861              		.loc 2 248 21 is_stmt 0 view .LVU439
 1862 0144 9646     		mov	lr, r2
 1863              	.LVL135:
 1864              	.L93:
ARM GAS  /var/folders/1y/_321xjh9623c014x9_qw12rr0000gn/T//ccqHcGuP.s 			page 65


 1865              	.LBB698:
 1866              	.LBB658:
 1867              	.LBB657:
 1868              	.LBB651:
 1869              	.LBI651:
  42:../../libDaisy//src/hid/disp/oled_display.h ****     {
 1870              		.loc 1 42 10 is_stmt 1 view .LVU440
 1871              	.LBB652:
 1872              	.LBI652:
 352:../../libDaisy//src/dev/oled_ssd130x.h ****     {
 1873              		.loc 4 352 10 view .LVU441
 1874              	.LBB653:
 357:../../libDaisy//src/dev/oled_ssd130x.h ****         else
 1875              		.loc 4 357 48 is_stmt 0 view .LVU442
 1876 0146 4FF0010B 		mov	fp, #1
 357:../../libDaisy//src/dev/oled_ssd130x.h ****         else
 1877              		.loc 4 357 28 view .LVU443
 1878 014a CB08     		lsrs	r3, r1, #3
 357:../../libDaisy//src/dev/oled_ssd130x.h ****         else
 1879              		.loc 4 357 54 view .LVU444
 1880 014c 01F00708 		and	r8, r1, #7
 354:../../libDaisy//src/dev/oled_ssd130x.h ****             return;
 1881              		.loc 4 354 9 view .LVU445
 1882 0150 BEF17F0F 		cmp	lr, #127
 357:../../libDaisy//src/dev/oled_ssd130x.h ****         else
 1883              		.loc 4 357 42 view .LVU446
 1884 0154 0EEBC313 		add	r3, lr, r3, lsl #7
 1885              	.LBE653:
 1886              	.LBE652:
 1887              	.LBE651:
 242:../../libDaisy//src/hid/disp/display.h ****             if(error2 > -deltaY)
 1888              		.loc 3 242 20 view .LVU447
 1889 0158 06FA0BF9 		lsl	r9, r6, fp
 1890              	.LVL136:
 1891              	.LBB656:
 1892              	.LBB655:
 1893              	.LBB654:
 357:../../libDaisy//src/dev/oled_ssd130x.h ****         else
 1894              		.loc 4 357 48 view .LVU448
 1895 015c 0BFA08F8 		lsl	r8, fp, r8
 354:../../libDaisy//src/dev/oled_ssd130x.h ****             return;
 1896              		.loc 4 354 9 view .LVU449
 1897 0160 08D8     		bhi	.L95
 354:../../libDaisy//src/dev/oled_ssd130x.h ****             return;
 1898              		.loc 4 354 9 view .LVU450
 1899 0162 3F29     		cmp	r1, #63
 357:../../libDaisy//src/dev/oled_ssd130x.h ****         else
 1900              		.loc 4 357 42 view .LVU451
 1901 0164 0344     		add	r3, r3, r0
 354:../../libDaisy//src/dev/oled_ssd130x.h ****             return;
 1902              		.loc 4 354 9 view .LVU452
 1903 0166 05D8     		bhi	.L95
 357:../../libDaisy//src/dev/oled_ssd130x.h ****         else
 1904              		.loc 4 357 42 view .LVU453
 1905 0168 93F864B4 		ldrb	fp, [r3, #1124]	@ zero_extendqisi2
 1906 016c 48EA0B08 		orr	r8, r8, fp
 1907 0170 83F86484 		strb	r8, [r3, #1124]
ARM GAS  /var/folders/1y/_321xjh9623c014x9_qw12rr0000gn/T//ccqHcGuP.s 			page 66


 1908              	.L95:
 357:../../libDaisy//src/dev/oled_ssd130x.h ****         else
 1909              		.loc 4 357 42 view .LVU454
 1910              	.LBE654:
 1911              	.LBE655:
 1912              	.LBE656:
 243:../../libDaisy//src/hid/disp/display.h ****             {
 1913              		.loc 3 243 13 view .LVU455
 1914 0174 BAEB460F 		cmp	r10, r6, lsl #1
 1915 0178 03DA     		bge	.L96
 245:../../libDaisy//src/hid/disp/display.h ****                 x1 += signX;
 1916              		.loc 3 245 23 view .LVU456
 1917 017a 009B     		ldr	r3, [sp]
 246:../../libDaisy//src/hid/disp/display.h ****             }
 1918              		.loc 3 246 20 view .LVU457
 1919 017c 0EF1FF3E 		add	lr, lr, #-1
 1920              	.LVL137:
 245:../../libDaisy//src/hid/disp/display.h ****                 x1 += signX;
 1921              		.loc 3 245 23 view .LVU458
 1922 0180 F61A     		subs	r6, r6, r3
 1923              	.LVL138:
 1924              	.L96:
 249:../../libDaisy//src/hid/disp/display.h ****             {
 1925              		.loc 3 249 13 view .LVU459
 1926 0182 B9F1000F 		cmp	r9, #0
 1927 0186 01D0     		beq	.L97
 252:../../libDaisy//src/hid/disp/display.h ****             }
 1928              		.loc 3 252 20 view .LVU460
 1929 0188 019B     		ldr	r3, [sp, #4]
 1930 018a 1944     		add	r1, r1, r3
 1931              	.LVL139:
 1932              	.L97:
 239:../../libDaisy//src/hid/disp/display.h ****         {
 1933              		.loc 3 239 26 is_stmt 1 view .LVU461
 1934 018c 7245     		cmp	r2, lr
 1935 018e DAD1     		bne	.L93
 239:../../libDaisy//src/hid/disp/display.h ****         {
 1936              		.loc 3 239 26 is_stmt 0 view .LVU462
 1937 0190 3329     		cmp	r1, #51
 1938 0192 D8D1     		bne	.L93
 1939              	.LVL140:
 1940              	.L92:
 239:../../libDaisy//src/hid/disp/display.h ****         {
 1941              		.loc 3 239 26 view .LVU463
 1942              	.LBE657:
 1943              	.LBE658:
 1944              	.LBB659:
 1945              	.LBI659:
 221:../../libDaisy//src/hid/disp/display.h ****                   uint_fast8_t y1,
 1946              		.loc 3 221 10 is_stmt 1 view .LVU464
 1947              	.LBB660:
 227:../../libDaisy//src/hid/disp/display.h ****         int_fast16_t deltaY = abs((int_fast16_t)y2 - (int_fast16_t)y1);
 1948              		.loc 3 227 52 is_stmt 0 view .LVU465
 1949 0194 A5EB0208 		sub	r8, r5, r2
 229:../../libDaisy//src/hid/disp/display.h ****         int_fast16_t signY  = ((y1 < y2) ? 1 : -1);
 1950              		.loc 3 229 42 view .LVU466
 1951 0198 9542     		cmp	r5, r2
ARM GAS  /var/folders/1y/_321xjh9623c014x9_qw12rr0000gn/T//ccqHcGuP.s 			page 67


 1952 019a 8CBF     		ite	hi
 1953 019c 0122     		movhi	r2, #1
 1954 019e 4FF0FF32 		movls	r2, #-1
 227:../../libDaisy//src/hid/disp/display.h ****         int_fast16_t deltaY = abs((int_fast16_t)y2 - (int_fast16_t)y1);
 1955              		.loc 3 227 22 view .LVU467
 1956 01a2 B8F1000F 		cmp	r8, #0
 1957 01a6 B8BF     		it	lt
 1958 01a8 C8F10008 		rsblt	r8, r8, #0
 1959              	.LVL141:
 1960              	.LBB661:
 1961              	.LBI661:
  42:../../libDaisy//src/hid/disp/oled_display.h ****     {
 1962              		.loc 1 42 10 is_stmt 1 view .LVU468
 1963              	.LBB662:
 1964              	.LBI662:
 352:../../libDaisy//src/dev/oled_ssd130x.h ****     {
 1965              		.loc 4 352 10 view .LVU469
 1966              	.LBB663:
 354:../../libDaisy//src/dev/oled_ssd130x.h ****             return;
 1967              		.loc 4 354 9 is_stmt 0 view .LVU470
 1968 01ac 7F2D     		cmp	r5, #127
 1969 01ae 08D8     		bhi	.L99
 357:../../libDaisy//src/dev/oled_ssd130x.h ****         else
 1970              		.loc 4 357 42 view .LVU471
 1971 01b0 05F54073 		add	r3, r5, #768
 1972 01b4 0344     		add	r3, r3, r0
 1973 01b6 93F86414 		ldrb	r1, [r3, #1124]	@ zero_extendqisi2
 1974 01ba 41F00801 		orr	r1, r1, #8
 1975 01be 83F86414 		strb	r1, [r3, #1124]
 1976              	.L99:
 1977              	.LVL142:
 357:../../libDaisy//src/dev/oled_ssd130x.h ****         else
 1978              		.loc 4 357 42 view .LVU472
 1979              	.LBE663:
 1980              	.LBE662:
 1981              	.LBE661:
 239:../../libDaisy//src/hid/disp/display.h ****         {
 1982              		.loc 3 239 26 is_stmt 1 view .LVU473
 1983 01c2 079B     		ldr	r3, [sp, #28]
 1984 01c4 0BBB     		cbnz	r3, .L100
 227:../../libDaisy//src/hid/disp/display.h ****         int_fast16_t deltaY = abs((int_fast16_t)y2 - (int_fast16_t)y1);
 1985              		.loc 3 227 22 is_stmt 0 view .LVU474
 1986 01c6 C646     		mov	lr, r8
 239:../../libDaisy//src/hid/disp/display.h ****         {
 1987              		.loc 3 239 26 view .LVU475
 1988 01c8 3326     		movs	r6, #51
 1989              	.LVL143:
 1990              	.L101:
 1991              	.LBB664:
 1992              	.LBI664:
  42:../../libDaisy//src/hid/disp/oled_display.h ****     {
 1993              		.loc 1 42 10 is_stmt 1 view .LVU476
 1994              	.LBB665:
 1995              	.LBI665:
 352:../../libDaisy//src/dev/oled_ssd130x.h ****     {
 1996              		.loc 4 352 10 view .LVU477
 1997              	.LBB666:
ARM GAS  /var/folders/1y/_321xjh9623c014x9_qw12rr0000gn/T//ccqHcGuP.s 			page 68


 357:../../libDaisy//src/dev/oled_ssd130x.h ****         else
 1998              		.loc 4 357 28 is_stmt 0 view .LVU478
 1999 01ca F308     		lsrs	r3, r6, #3
 357:../../libDaisy//src/dev/oled_ssd130x.h ****         else
 2000              		.loc 4 357 54 view .LVU479
 2001 01cc 06F00709 		and	r9, r6, #7
 357:../../libDaisy//src/dev/oled_ssd130x.h ****         else
 2002              		.loc 4 357 48 view .LVU480
 2003 01d0 0121     		movs	r1, #1
 354:../../libDaisy//src/dev/oled_ssd130x.h ****             return;
 2004              		.loc 4 354 9 view .LVU481
 2005 01d2 BCF17F0F 		cmp	ip, #127
 357:../../libDaisy//src/dev/oled_ssd130x.h ****         else
 2006              		.loc 4 357 42 view .LVU482
 2007 01d6 0CEBC313 		add	r3, ip, r3, lsl #7
 357:../../libDaisy//src/dev/oled_ssd130x.h ****         else
 2008              		.loc 4 357 48 view .LVU483
 2009 01da 01FA09F1 		lsl	r1, r1, r9
 354:../../libDaisy//src/dev/oled_ssd130x.h ****             return;
 2010              		.loc 4 354 9 view .LVU484
 2011 01de 08D8     		bhi	.L103
 354:../../libDaisy//src/dev/oled_ssd130x.h ****             return;
 2012              		.loc 4 354 9 view .LVU485
 2013 01e0 3F2E     		cmp	r6, #63
 357:../../libDaisy//src/dev/oled_ssd130x.h ****         else
 2014              		.loc 4 357 42 view .LVU486
 2015 01e2 0344     		add	r3, r3, r0
 354:../../libDaisy//src/dev/oled_ssd130x.h ****             return;
 2016              		.loc 4 354 9 view .LVU487
 2017 01e4 05D8     		bhi	.L103
 357:../../libDaisy//src/dev/oled_ssd130x.h ****         else
 2018              		.loc 4 357 42 view .LVU488
 2019 01e6 93F86494 		ldrb	r9, [r3, #1124]	@ zero_extendqisi2
 2020 01ea 41EA0901 		orr	r1, r1, r9
 2021 01ee 83F86414 		strb	r1, [r3, #1124]
 2022              	.L103:
 357:../../libDaisy//src/dev/oled_ssd130x.h ****         else
 2023              		.loc 4 357 42 view .LVU489
 2024              	.LBE666:
 2025              	.LBE665:
 2026              	.LBE664:
 243:../../libDaisy//src/hid/disp/display.h ****             {
 2027              		.loc 3 243 13 view .LVU490
 2028 01f2 5FEA4E03 		lsls	r3, lr, #1
 246:../../libDaisy//src/hid/disp/display.h ****             }
 2029              		.loc 3 246 20 view .LVU491
 2030 01f6 18BF     		it	ne
 2031 01f8 9444     		addne	ip, ip, r2
 2032              	.LVL144:
 249:../../libDaisy//src/hid/disp/display.h ****             {
 2033              		.loc 3 249 13 view .LVU492
 2034 01fa 9845     		cmp	r8, r3
 2035 01fc 01DD     		ble	.L105
 251:../../libDaisy//src/hid/disp/display.h ****                 y1 += signY;
 2036              		.loc 3 251 23 view .LVU493
 2037 01fe C644     		add	lr, lr, r8
 2038              	.LVL145:
ARM GAS  /var/folders/1y/_321xjh9623c014x9_qw12rr0000gn/T//ccqHcGuP.s 			page 69


 252:../../libDaisy//src/hid/disp/display.h ****             }
 2039              		.loc 3 252 20 view .LVU494
 2040 0200 013E     		subs	r6, r6, #1
 2041              	.LVL146:
 2042              	.L105:
 239:../../libDaisy//src/hid/disp/display.h ****         {
 2043              		.loc 3 239 26 is_stmt 1 view .LVU495
 2044 0202 6545     		cmp	r5, ip
 2045 0204 E1D1     		bne	.L101
 239:../../libDaisy//src/hid/disp/display.h ****         {
 2046              		.loc 3 239 26 is_stmt 0 view .LVU496
 2047 0206 332E     		cmp	r6, #51
 2048 0208 DFD1     		bne	.L101
 2049              	.LVL147:
 2050              	.L100:
 239:../../libDaisy//src/hid/disp/display.h ****         {
 2051              		.loc 3 239 26 view .LVU497
 2052              	.LBE660:
 2053              	.LBE659:
 2054              	.LBB667:
 2055              	.LBI667:
 221:../../libDaisy//src/hid/disp/display.h ****                   uint_fast8_t y1,
 2056              		.loc 3 221 10 is_stmt 1 view .LVU498
 2057              	.LBB668:
 228:../../libDaisy//src/hid/disp/display.h ****         int_fast16_t signX  = ((x1 < x2) ? 1 : -1);
 2058              		.loc 3 228 52 is_stmt 0 view .LVU499
 2059 020a 17EE903A 		vmov	r3, s15	@ int
 2060 020e A3F1320C 		sub	ip, r3, #50
 228:../../libDaisy//src/hid/disp/display.h ****         int_fast16_t signX  = ((x1 < x2) ? 1 : -1);
 2061              		.loc 3 228 22 view .LVU500
 2062 0212 BCF1000F 		cmp	ip, #0
 2063 0216 B8BF     		it	lt
 2064 0218 CCF1000C 		rsblt	ip, ip, #0
 2065              	.LVL148:
 230:../../libDaisy//src/hid/disp/display.h ****         int_fast16_t error  = deltaX - deltaY;
 2066              		.loc 3 230 42 view .LVU501
 2067 021c 332F     		cmp	r7, #51
 231:../../libDaisy//src/hid/disp/display.h ****         int_fast16_t error2;
 2068              		.loc 3 231 22 view .LVU502
 2069 021e CCF10006 		rsb	r6, ip, #0
 230:../../libDaisy//src/hid/disp/display.h ****         int_fast16_t error  = deltaX - deltaY;
 2070              		.loc 3 230 42 view .LVU503
 2071 0222 00F3B180 		bgt	.L106
 2072              	.LVL149:
 2073              	.LBB669:
 2074              	.LBI669:
  42:../../libDaisy//src/hid/disp/oled_display.h ****     {
 2075              		.loc 1 42 10 is_stmt 1 view .LVU504
 2076              	.LBB670:
 2077              	.LBI670:
 352:../../libDaisy//src/dev/oled_ssd130x.h ****     {
 2078              		.loc 4 352 10 view .LVU505
 2079              	.LBB671:
 354:../../libDaisy//src/dev/oled_ssd130x.h ****             return;
 2080              		.loc 4 354 9 is_stmt 0 view .LVU506
 2081 0226 7F2D     		cmp	r5, #127
 2082              	.LBE671:
ARM GAS  /var/folders/1y/_321xjh9623c014x9_qw12rr0000gn/T//ccqHcGuP.s 			page 70


 2083              	.LBE670:
 2084              	.LBE669:
 230:../../libDaisy//src/hid/disp/display.h ****         int_fast16_t error  = deltaX - deltaY;
 2085              		.loc 3 230 42 view .LVU507
 2086 0228 4FF0FF3A 		mov	r10, #-1
 2087              	.LBB678:
 2088              	.LBB675:
 2089              	.LBB672:
 354:../../libDaisy//src/dev/oled_ssd130x.h ****             return;
 2090              		.loc 4 354 9 view .LVU508
 2091 022c 03D8     		bhi	.L107
 2092 022e 049B     		ldr	r3, [sp, #16]
 2093 0230 002B     		cmp	r3, #0
 2094 0232 00F0AF80 		beq	.L122
 2095              	.LVL150:
 2096              	.L107:
 354:../../libDaisy//src/dev/oled_ssd130x.h ****             return;
 2097              		.loc 4 354 9 view .LVU509
 2098              	.LBE672:
 2099              	.LBE675:
 2100              	.LBE678:
 239:../../libDaisy//src/hid/disp/display.h ****         {
 2101              		.loc 3 239 26 is_stmt 1 view .LVU510
 2102 0236 332F     		cmp	r7, #51
 2103 0238 26D0     		beq	.L108
 2104 023a B146     		mov	r9, r6
 2105              	.L109:
 2106              	.LVL151:
 230:../../libDaisy//src/hid/disp/display.h ****         int_fast16_t error  = deltaX - deltaY;
 2107              		.loc 3 230 42 is_stmt 0 view .LVU511
 2108 023c 2946     		mov	r1, r5
 2109 023e 3322     		movs	r2, #51
 2110              	.L111:
 2111              	.LVL152:
 2112              	.LBB679:
 2113              	.LBI679:
  42:../../libDaisy//src/hid/disp/oled_display.h ****     {
 2114              		.loc 1 42 10 is_stmt 1 view .LVU512
 2115              	.LBB680:
 2116              	.LBI680:
 352:../../libDaisy//src/dev/oled_ssd130x.h ****     {
 2117              		.loc 4 352 10 view .LVU513
 2118              	.LBB681:
 357:../../libDaisy//src/dev/oled_ssd130x.h ****         else
 2119              		.loc 4 357 48 is_stmt 0 view .LVU514
 2120 0240 4FF0010B 		mov	fp, #1
 357:../../libDaisy//src/dev/oled_ssd130x.h ****         else
 2121              		.loc 4 357 28 view .LVU515
 2122 0244 D308     		lsrs	r3, r2, #3
 357:../../libDaisy//src/dev/oled_ssd130x.h ****         else
 2123              		.loc 4 357 54 view .LVU516
 2124 0246 02F0070E 		and	lr, r2, #7
 354:../../libDaisy//src/dev/oled_ssd130x.h ****             return;
 2125              		.loc 4 354 9 view .LVU517
 2126 024a 7F29     		cmp	r1, #127
 357:../../libDaisy//src/dev/oled_ssd130x.h ****         else
 2127              		.loc 4 357 42 view .LVU518
ARM GAS  /var/folders/1y/_321xjh9623c014x9_qw12rr0000gn/T//ccqHcGuP.s 			page 71


 2128 024c 01EBC313 		add	r3, r1, r3, lsl #7
 2129              	.LBE681:
 2130              	.LBE680:
 2131              	.LBE679:
 242:../../libDaisy//src/hid/disp/display.h ****             if(error2 > -deltaY)
 2132              		.loc 3 242 20 view .LVU519
 2133 0250 06FA0BF8 		lsl	r8, r6, fp
 2134              	.LVL153:
 2135              	.LBB684:
 2136              	.LBB683:
 2137              	.LBB682:
 357:../../libDaisy//src/dev/oled_ssd130x.h ****         else
 2138              		.loc 4 357 48 view .LVU520
 2139 0254 0BFA0EFE 		lsl	lr, fp, lr
 354:../../libDaisy//src/dev/oled_ssd130x.h ****             return;
 2140              		.loc 4 354 9 view .LVU521
 2141 0258 08D8     		bhi	.L112
 2142 025a 3F2A     		cmp	r2, #63
 357:../../libDaisy//src/dev/oled_ssd130x.h ****         else
 2143              		.loc 4 357 42 view .LVU522
 2144 025c 0344     		add	r3, r3, r0
 354:../../libDaisy//src/dev/oled_ssd130x.h ****             return;
 2145              		.loc 4 354 9 view .LVU523
 2146 025e 05D8     		bhi	.L112
 357:../../libDaisy//src/dev/oled_ssd130x.h ****         else
 2147              		.loc 4 357 42 view .LVU524
 2148 0260 93F864B4 		ldrb	fp, [r3, #1124]	@ zero_extendqisi2
 2149 0264 4EEA0B0E 		orr	lr, lr, fp
 2150 0268 83F864E4 		strb	lr, [r3, #1124]
 2151              	.L112:
 357:../../libDaisy//src/dev/oled_ssd130x.h ****         else
 2152              		.loc 4 357 42 view .LVU525
 2153              	.LBE682:
 2154              	.LBE683:
 2155              	.LBE684:
 243:../../libDaisy//src/hid/disp/display.h ****             {
 2156              		.loc 3 243 13 view .LVU526
 2157 026c B9EB460F 		cmp	r9, r6, lsl #1
 2158 0270 02DA     		bge	.L113
 246:../../libDaisy//src/hid/disp/display.h ****             }
 2159              		.loc 3 246 20 view .LVU527
 2160 0272 0139     		subs	r1, r1, #1
 2161              	.LVL154:
 245:../../libDaisy//src/hid/disp/display.h ****                 x1 += signX;
 2162              		.loc 3 245 23 view .LVU528
 2163 0274 A6EB0C06 		sub	r6, r6, ip
 2164              	.LVL155:
 2165              	.L113:
 249:../../libDaisy//src/hid/disp/display.h ****             {
 2166              		.loc 3 249 13 view .LVU529
 2167 0278 B8F1000F 		cmp	r8, #0
 2168 027c 00D0     		beq	.L114
 252:../../libDaisy//src/hid/disp/display.h ****             }
 2169              		.loc 3 252 20 view .LVU530
 2170 027e 5244     		add	r2, r2, r10
 2171              	.LVL156:
 2172              	.L114:
ARM GAS  /var/folders/1y/_321xjh9623c014x9_qw12rr0000gn/T//ccqHcGuP.s 			page 72


 239:../../libDaisy//src/hid/disp/display.h ****         {
 2173              		.loc 3 239 26 is_stmt 1 view .LVU531
 2174 0280 8D42     		cmp	r5, r1
 2175 0282 DDD1     		bne	.L111
 239:../../libDaisy//src/hid/disp/display.h ****         {
 2176              		.loc 3 239 26 is_stmt 0 view .LVU532
 2177 0284 9742     		cmp	r7, r2
 2178 0286 DBD1     		bne	.L111
 2179              	.LVL157:
 2180              	.L108:
 239:../../libDaisy//src/hid/disp/display.h ****         {
 2181              		.loc 3 239 26 view .LVU533
 2182              	.LBE668:
 2183              	.LBE667:
 2184              	.LBE698:
 250:Dubby.cpp     ****     
 2185              		.loc 2 250 5 is_stmt 1 view .LVU534
 250:Dubby.cpp     ****     
 2186              		.loc 2 250 66 is_stmt 0 view .LVU535
 2187 0288 029B     		ldr	r3, [sp, #8]
 250:Dubby.cpp     ****     
 2188              		.loc 2 250 49 view .LVU536
 2189 028a F1EE046A 		vmov.f32	s13, #5.0e+0
 2190 028e FFEE007A 		vmov.f32	s15, #-1.0e+0
 250:Dubby.cpp     ****     
 2191              		.loc 2 250 84 view .LVU537
 2192 0292 9FED3C7A 		vldr.32	s14, .L179
 250:Dubby.cpp     ****     
 2193              		.loc 2 250 66 view .LVU538
 2194 0296 03F58873 		add	r3, r3, #272
 250:Dubby.cpp     ****     
 2195              		.loc 2 250 32 view .LVU539
 2196 029a 059D     		ldr	r5, [sp, #20]
 250:Dubby.cpp     ****     
 2197              		.loc 2 250 113 view .LVU540
 2198 029c 069A     		ldr	r2, [sp, #24]
 250:Dubby.cpp     ****     
 2199              		.loc 2 250 66 view .LVU541
 2200 029e 00EB8303 		add	r3, r0, r3, lsl #2
 250:Dubby.cpp     ****     
 2201              		.loc 2 250 49 view .LVU542
 2202 02a2 93ED006A 		vldr.32	s12, [r3]
 250:Dubby.cpp     ****     
 2203              		.loc 2 250 34 view .LVU543
 2204 02a6 D0F86438 		ldr	r3, [r0, #2148]
 250:Dubby.cpp     ****     
 2205              		.loc 2 250 49 view .LVU544
 2206 02aa E6EE267A 		vfma.f32	s15, s12, s13
 2207              	.LVL158:
 2208              	.LBB699:
 2209              	.LBI699:
  75:/Library/DaisyToolchain/0.2.0/arm/arm-none-eabi/include/c++/10.3.1/bits/std_abs.h ****   { return __builtin_fabsf(__x); }
 2210              		.loc 7 75 3 is_stmt 1 view .LVU545
 2211              	.LBB700:
 2212              		.loc 7 76 5 view .LVU546
 2213              		.loc 7 76 5 is_stmt 0 view .LVU547
 2214              	.LBE700:
ARM GAS  /var/folders/1y/_321xjh9623c014x9_qw12rr0000gn/T//ccqHcGuP.s 			page 73


 2215              	.LBE699:
 250:Dubby.cpp     ****     
 2216              		.loc 2 250 32 view .LVU548
 2217 02ae 1D44     		add	r5, r5, r3
 250:Dubby.cpp     ****     
 2218              		.loc 2 250 113 view .LVU549
 2219 02b0 A2EB030C 		sub	ip, r2, r3
 2220              	.LVL159:
 2221              	.LBB702:
 2222              	.LBB703:
 2223              	.LBB704:
 266:../../libDaisy//src/hid/disp/display.h ****             {
 2224              		.loc 3 266 40 view .LVU550
 2225 02b4 6545     		cmp	r5, ip
 2226              	.LBE704:
 2227              	.LBE703:
 2228              	.LBE702:
 2229              	.LBB713:
 2230              	.LBB701:
 2231              		.loc 7 76 31 view .LVU551
 2232 02b6 F0EEE77A 		vabs.f32	s15, s15
 2233              	.LBE701:
 2234              	.LBE713:
 250:Dubby.cpp     ****     
 2235              		.loc 2 250 84 view .LVU552
 2236 02ba 67EE877A 		vmul.f32	s15, s15, s14
 250:Dubby.cpp     ****     
 2237              		.loc 2 250 42 view .LVU553
 2238 02be FDEEE77A 		vcvt.s32.f32	s15, s15
 2239 02c2 17EE906A 		vmov	r6, s15	@ int
 250:Dubby.cpp     ****     
 2240              		.loc 2 250 93 view .LVU554
 2241 02c6 06F10106 		add	r6, r6, #1
 2242              	.LVL160:
 2243              	.LBB714:
 2244              	.LBI702:
 257:../../libDaisy//src/hid/disp/display.h ****                   uint_fast8_t y1,
 2245              		.loc 3 257 10 is_stmt 1 view .LVU555
 2246              	.LBB712:
 2247              	.LBI703:
 257:../../libDaisy//src/hid/disp/display.h ****                   uint_fast8_t y1,
 2248              		.loc 3 257 10 view .LVU556
 2249              	.LBB711:
 266:../../libDaisy//src/hid/disp/display.h ****             {
 2250              		.loc 3 266 40 view .LVU557
 2251 02ca 18D8     		bhi	.L118
 2252              	.LVL161:
 2253              	.L115:
 2254              	.LBB705:
 2255              		.loc 3 268 44 view .LVU558
 2256 02cc 332E     		cmp	r6, #51
 2257 02ce 13DC     		bgt	.L120
 2258              		.loc 3 268 44 is_stmt 0 view .LVU559
 2259 02d0 3246     		mov	r2, r6
 2260              	.LVL162:
 2261              	.L117:
 2262              	.LBB706:
ARM GAS  /var/folders/1y/_321xjh9623c014x9_qw12rr0000gn/T//ccqHcGuP.s 			page 74


 2263              	.LBI706:
  42:../../libDaisy//src/hid/disp/oled_display.h ****     {
 2264              		.loc 1 42 10 is_stmt 1 view .LVU560
 2265              	.LBB707:
 2266              	.LBI707:
 352:../../libDaisy//src/dev/oled_ssd130x.h ****     {
 2267              		.loc 4 352 10 view .LVU561
 352:../../libDaisy//src/dev/oled_ssd130x.h ****     {
 2268              		.loc 4 352 10 is_stmt 0 view .LVU562
 2269              	.LBE707:
 2270              	.LBE706:
 2271              		.loc 3 268 17 is_stmt 1 view .LVU563
 2272              		.loc 3 268 44 view .LVU564
 2273              	.LBB710:
 2274              	.LBB709:
 2275              	.LBB708:
 357:../../libDaisy//src/dev/oled_ssd130x.h ****         else
 2276              		.loc 4 357 28 is_stmt 0 view .LVU565
 2277 02d2 D308     		lsrs	r3, r2, #3
 357:../../libDaisy//src/dev/oled_ssd130x.h ****         else
 2278              		.loc 4 357 54 view .LVU566
 2279 02d4 02F00707 		and	r7, r2, #7
 357:../../libDaisy//src/dev/oled_ssd130x.h ****         else
 2280              		.loc 4 357 48 view .LVU567
 2281 02d8 0121     		movs	r1, #1
 354:../../libDaisy//src/dev/oled_ssd130x.h ****             return;
 2282              		.loc 4 354 9 view .LVU568
 2283 02da 7F2D     		cmp	r5, #127
 357:../../libDaisy//src/dev/oled_ssd130x.h ****         else
 2284              		.loc 4 357 42 view .LVU569
 2285 02dc 05EBC313 		add	r3, r5, r3, lsl #7
 2286 02e0 0A44     		add	r2, r2, r1
 2287              	.LVL163:
 357:../../libDaisy//src/dev/oled_ssd130x.h ****         else
 2288              		.loc 4 357 48 view .LVU570
 2289 02e2 01FA07F1 		lsl	r1, r1, r7
 357:../../libDaisy//src/dev/oled_ssd130x.h ****         else
 2290              		.loc 4 357 42 view .LVU571
 2291 02e6 0344     		add	r3, r3, r0
 354:../../libDaisy//src/dev/oled_ssd130x.h ****             return;
 2292              		.loc 4 354 9 view .LVU572
 2293 02e8 04D8     		bhi	.L119
 357:../../libDaisy//src/dev/oled_ssd130x.h ****         else
 2294              		.loc 4 357 42 view .LVU573
 2295 02ea 93F86474 		ldrb	r7, [r3, #1124]	@ zero_extendqisi2
 2296 02ee 3943     		orrs	r1, r1, r7
 2297 02f0 83F86414 		strb	r1, [r3, #1124]
 2298              	.L119:
 2299              	.LBE708:
 2300              	.LBE709:
 2301              	.LBE710:
 2302              		.loc 3 268 44 view .LVU574
 2303 02f4 342A     		cmp	r2, #52
 2304 02f6 ECD1     		bne	.L117
 2305              	.LVL164:
 2306              	.L120:
 2307              		.loc 3 268 44 view .LVU575
ARM GAS  /var/folders/1y/_321xjh9623c014x9_qw12rr0000gn/T//ccqHcGuP.s 			page 75


 2308              	.LBE705:
 266:../../libDaisy//src/hid/disp/display.h ****             {
 2309              		.loc 3 266 13 is_stmt 1 view .LVU576
 2310 02f8 0135     		adds	r5, r5, #1
 2311              	.LVL165:
 266:../../libDaisy//src/hid/disp/display.h ****             {
 2312              		.loc 3 266 40 view .LVU577
 2313 02fa AC45     		cmp	ip, r5
 2314 02fc E6D2     		bcs	.L115
 2315              	.L118:
 266:../../libDaisy//src/hid/disp/display.h ****             {
 2316              		.loc 3 266 40 is_stmt 0 view .LVU578
 2317              	.LBE711:
 2318              	.LBE712:
 2319              	.LBE714:
 2320              	.LBB715:
 2321              	.LBB716:
 2322              	.LBB717:
 2323              	.LBB718:
 2324              	.LBB719:
 124:../../libDaisy//src/dev/oled_ssd130x.h ****         spi_.BlockingTransmit(&cmd, 1);
 2325              		.loc 4 124 24 view .LVU579
 2326 02fe 00F58C67 		add	r7, r0, #1120
 2327 0302 04F10C06 		add	r6, r4, #12
 2328              	.LVL166:
 124:../../libDaisy//src/dev/oled_ssd130x.h ****         spi_.BlockingTransmit(&cmd, 1);
 2329              		.loc 4 124 24 view .LVU580
 2330 0306 04F20C49 		addw	r9, r4, #1036
 2331 030a B025     		movs	r5, #176
 2332              	.LVL167:
 2333              	.L116:
 124:../../libDaisy//src/dev/oled_ssd130x.h ****         spi_.BlockingTransmit(&cmd, 1);
 2334              		.loc 4 124 24 view .LVU581
 2335 030c 4FF00008 		mov	r8, #0
 124:../../libDaisy//src/dev/oled_ssd130x.h ****         spi_.BlockingTransmit(&cmd, 1);
 2336              		.loc 4 124 23 view .LVU582
 2337 0310 3846     		mov	r0, r7
 2338 0312 8DF82750 		strb	r5, [sp, #39]
 2339              	.LVL168:
 124:../../libDaisy//src/dev/oled_ssd130x.h ****         spi_.BlockingTransmit(&cmd, 1);
 2340              		.loc 4 124 23 view .LVU583
 2341              	.LBE719:
 2342              	.LBI718:
 122:../../libDaisy//src/dev/oled_ssd130x.h ****     {
 2343              		.loc 4 122 10 is_stmt 1 view .LVU584
 2344              	.LBB720:
 124:../../libDaisy//src/dev/oled_ssd130x.h ****         spi_.BlockingTransmit(&cmd, 1);
 2345              		.loc 4 124 9 view .LVU585
 2346              	.LBE720:
 2347              	.LBE718:
 2348              		.loc 4 383 22 is_stmt 0 view .LVU586
 2349 0316 0135     		adds	r5, r5, #1
 2350              	.LVL169:
 2351              	.LBB723:
 2352              	.LBB721:
 124:../../libDaisy//src/dev/oled_ssd130x.h ****         spi_.BlockingTransmit(&cmd, 1);
 2353              		.loc 4 124 23 view .LVU587
ARM GAS  /var/folders/1y/_321xjh9623c014x9_qw12rr0000gn/T//ccqHcGuP.s 			page 76


 2354 0318 4146     		mov	r1, r8
 2355 031a FFF7FEFF 		bl	dsy_gpio_write
 2356              	.LVL170:
 125:../../libDaisy//src/dev/oled_ssd130x.h ****     };
 2357              		.loc 4 125 9 is_stmt 1 view .LVU588
 125:../../libDaisy//src/dev/oled_ssd130x.h ****     };
 2358              		.loc 4 125 30 is_stmt 0 view .LVU589
 2359 031e 6423     		movs	r3, #100
 2360 0320 0122     		movs	r2, #1
 2361 0322 0DF12701 		add	r1, sp, #39
 2362 0326 2046     		mov	r0, r4
 2363              	.LBE721:
 2364              	.LBE723:
 2365              		.loc 4 383 22 view .LVU590
 2366 0328 EDB2     		uxtb	r5, r5
 2367              	.LBB724:
 2368              	.LBB722:
 125:../../libDaisy//src/dev/oled_ssd130x.h ****     };
 2369              		.loc 4 125 30 view .LVU591
 2370 032a FFF7FEFF 		bl	_ZN5daisy9SpiHandle16BlockingTransmitEPhjm
 2371              	.LVL171:
 125:../../libDaisy//src/dev/oled_ssd130x.h ****     };
 2372              		.loc 4 125 30 view .LVU592
 2373              	.LBE722:
 2374              	.LBE724:
 2375              	.LBB725:
 2376              	.LBB726:
 124:../../libDaisy//src/dev/oled_ssd130x.h ****         spi_.BlockingTransmit(&cmd, 1);
 2377              		.loc 4 124 23 view .LVU593
 2378 032e 4146     		mov	r1, r8
 2379 0330 3846     		mov	r0, r7
 2380 0332 8DF82780 		strb	r8, [sp, #39]
 2381              	.LVL172:
 124:../../libDaisy//src/dev/oled_ssd130x.h ****         spi_.BlockingTransmit(&cmd, 1);
 2382              		.loc 4 124 23 view .LVU594
 2383              	.LBE726:
 2384              	.LBI725:
 122:../../libDaisy//src/dev/oled_ssd130x.h ****     {
 2385              		.loc 4 122 10 is_stmt 1 view .LVU595
 2386              	.LBB727:
 124:../../libDaisy//src/dev/oled_ssd130x.h ****         spi_.BlockingTransmit(&cmd, 1);
 2387              		.loc 4 124 9 view .LVU596
 124:../../libDaisy//src/dev/oled_ssd130x.h ****         spi_.BlockingTransmit(&cmd, 1);
 2388              		.loc 4 124 23 is_stmt 0 view .LVU597
 2389 0336 FFF7FEFF 		bl	dsy_gpio_write
 2390              	.LVL173:
 125:../../libDaisy//src/dev/oled_ssd130x.h ****     };
 2391              		.loc 4 125 9 is_stmt 1 view .LVU598
 125:../../libDaisy//src/dev/oled_ssd130x.h ****     };
 2392              		.loc 4 125 30 is_stmt 0 view .LVU599
 2393 033a 0122     		movs	r2, #1
 2394 033c 6423     		movs	r3, #100
 2395 033e 0DF12701 		add	r1, sp, #39
 2396 0342 2046     		mov	r0, r4
 2397 0344 FFF7FEFF 		bl	_ZN5daisy9SpiHandle16BlockingTransmitEPhjm
 2398              	.LVL174:
 125:../../libDaisy//src/dev/oled_ssd130x.h ****     };
ARM GAS  /var/folders/1y/_321xjh9623c014x9_qw12rr0000gn/T//ccqHcGuP.s 			page 77


 2399              		.loc 4 125 30 view .LVU600
 2400 0348 1023     		movs	r3, #16
 2401              	.LBE727:
 2402              	.LBE725:
 2403              	.LBB728:
 2404              	.LBB729:
 124:../../libDaisy//src/dev/oled_ssd130x.h ****         spi_.BlockingTransmit(&cmd, 1);
 2405              		.loc 4 124 23 view .LVU601
 2406 034a 4146     		mov	r1, r8
 2407 034c 3846     		mov	r0, r7
 2408 034e 8DF82730 		strb	r3, [sp, #39]
 2409              	.LVL175:
 124:../../libDaisy//src/dev/oled_ssd130x.h ****         spi_.BlockingTransmit(&cmd, 1);
 2410              		.loc 4 124 23 view .LVU602
 2411              	.LBE729:
 2412              	.LBI728:
 122:../../libDaisy//src/dev/oled_ssd130x.h ****     {
 2413              		.loc 4 122 10 is_stmt 1 view .LVU603
 2414              	.LBB730:
 124:../../libDaisy//src/dev/oled_ssd130x.h ****         spi_.BlockingTransmit(&cmd, 1);
 2415              		.loc 4 124 9 view .LVU604
 124:../../libDaisy//src/dev/oled_ssd130x.h ****         spi_.BlockingTransmit(&cmd, 1);
 2416              		.loc 4 124 23 is_stmt 0 view .LVU605
 2417 0352 FFF7FEFF 		bl	dsy_gpio_write
 2418              	.LVL176:
 125:../../libDaisy//src/dev/oled_ssd130x.h ****     };
 2419              		.loc 4 125 9 is_stmt 1 view .LVU606
 125:../../libDaisy//src/dev/oled_ssd130x.h ****     };
 2420              		.loc 4 125 30 is_stmt 0 view .LVU607
 2421 0356 6423     		movs	r3, #100
 2422 0358 0122     		movs	r2, #1
 2423 035a 0DF12701 		add	r1, sp, #39
 2424 035e 2046     		mov	r0, r4
 2425 0360 FFF7FEFF 		bl	_ZN5daisy9SpiHandle16BlockingTransmitEPhjm
 2426              	.LVL177:
 125:../../libDaisy//src/dev/oled_ssd130x.h ****     };
 2427              		.loc 4 125 30 view .LVU608
 2428              	.LBE730:
 2429              	.LBE728:
 2430              	.LBB731:
 2431              	.LBI731:
 128:../../libDaisy//src/dev/oled_ssd130x.h ****     {
 2432              		.loc 4 128 10 is_stmt 1 view .LVU609
 2433              	.LBB732:
 130:../../libDaisy//src/dev/oled_ssd130x.h ****         spi_.BlockingTransmit(buff, size);
 2434              		.loc 4 130 9 view .LVU610
 130:../../libDaisy//src/dev/oled_ssd130x.h ****         spi_.BlockingTransmit(buff, size);
 2435              		.loc 4 130 23 is_stmt 0 view .LVU611
 2436 0364 0121     		movs	r1, #1
 2437 0366 3846     		mov	r0, r7
 2438 0368 FFF7FEFF 		bl	dsy_gpio_write
 2439              	.LVL178:
 131:../../libDaisy//src/dev/oled_ssd130x.h ****     };
 2440              		.loc 4 131 9 is_stmt 1 view .LVU612
 131:../../libDaisy//src/dev/oled_ssd130x.h ****     };
 2441              		.loc 4 131 30 is_stmt 0 view .LVU613
 2442 036c 8022     		movs	r2, #128
ARM GAS  /var/folders/1y/_321xjh9623c014x9_qw12rr0000gn/T//ccqHcGuP.s 			page 78


 2443 036e 3146     		mov	r1, r6
 2444 0370 6423     		movs	r3, #100
 2445              	.LBE732:
 2446              	.LBE731:
 2447              		.loc 4 383 22 view .LVU614
 2448 0372 1644     		add	r6, r6, r2
 2449              	.LVL179:
 2450              	.LBB734:
 2451              	.LBB733:
 131:../../libDaisy//src/dev/oled_ssd130x.h ****     };
 2452              		.loc 4 131 30 view .LVU615
 2453 0374 2046     		mov	r0, r4
 2454 0376 FFF7FEFF 		bl	_ZN5daisy9SpiHandle16BlockingTransmitEPhjm
 2455              	.LVL180:
 131:../../libDaisy//src/dev/oled_ssd130x.h ****     };
 2456              		.loc 4 131 30 view .LVU616
 2457              	.LBE733:
 2458              	.LBE734:
 2459              		.loc 4 383 9 is_stmt 1 view .LVU617
 2460              		.loc 4 383 22 view .LVU618
 2461 037a B145     		cmp	r9, r6
 2462 037c C6D1     		bne	.L116
 2463              	.LBE717:
 2464              	.LBE716:
 2465              	.LBE715:
 253:Dubby.cpp     **** 
 2466              		.loc 2 253 1 is_stmt 0 view .LVU619
 2467 037e 0BB0     		add	sp, sp, #44
 2468              		.cfi_remember_state
 2469              		.cfi_def_cfa_offset 36
 2470              		@ sp needed
 2471 0380 BDE8F08F 		pop	{r4, r5, r6, r7, r8, r9, r10, fp, pc}
 2472              	.LVL181:
 2473              	.L180:
 253:Dubby.cpp     **** 
 2474              		.loc 2 253 1 view .LVU620
 2475              		.align	2
 2476              	.L179:
 2477 0384 00004C42 		.word	1112276992
 2478              	.LVL182:
 2479              	.L106:
 2480              		.cfi_restore_state
 2481              	.LBB735:
 2482              	.LBB689:
 2483              	.LBB687:
 2484              	.LBB685:
  42:../../libDaisy//src/hid/disp/oled_display.h ****     {
 2485              		.loc 1 42 10 is_stmt 1 view .LVU621
 2486              	.LBB676:
 352:../../libDaisy//src/dev/oled_ssd130x.h ****     {
 2487              		.loc 4 352 10 view .LVU622
 2488              	.LBB673:
 354:../../libDaisy//src/dev/oled_ssd130x.h ****             return;
 2489              		.loc 4 354 9 is_stmt 0 view .LVU623
 2490 0388 7F2D     		cmp	r5, #127
 2491 038a 38D8     		bhi	.L132
 2492 038c 049B     		ldr	r3, [sp, #16]
ARM GAS  /var/folders/1y/_321xjh9623c014x9_qw12rr0000gn/T//ccqHcGuP.s 			page 79


 2493 038e B3BB     		cbnz	r3, .L132
 2494              	.LBE673:
 2495              	.LBE676:
 2496              	.LBE685:
 230:../../libDaisy//src/hid/disp/display.h ****         int_fast16_t error  = deltaX - deltaY;
 2497              		.loc 3 230 42 view .LVU624
 2498 0390 4FF0010A 		mov	r10, #1
 2499              	.LVL183:
 2500              	.L122:
 2501              	.LBB686:
 2502              	.LBB677:
 2503              	.LBB674:
 357:../../libDaisy//src/dev/oled_ssd130x.h ****         else
 2504              		.loc 4 357 28 view .LVU625
 2505 0394 FB08     		lsrs	r3, r7, #3
 357:../../libDaisy//src/dev/oled_ssd130x.h ****         else
 2506              		.loc 4 357 54 view .LVU626
 2507 0396 07F00701 		and	r1, r7, #7
 357:../../libDaisy//src/dev/oled_ssd130x.h ****         else
 2508              		.loc 4 357 48 view .LVU627
 2509 039a 0122     		movs	r2, #1
 2510              	.LVL184:
 357:../../libDaisy//src/dev/oled_ssd130x.h ****         else
 2511              		.loc 4 357 42 view .LVU628
 2512 039c 05EBC313 		add	r3, r5, r3, lsl #7
 357:../../libDaisy//src/dev/oled_ssd130x.h ****         else
 2513              		.loc 4 357 48 view .LVU629
 2514 03a0 8A40     		lsls	r2, r2, r1
 357:../../libDaisy//src/dev/oled_ssd130x.h ****         else
 2515              		.loc 4 357 42 view .LVU630
 2516 03a2 0344     		add	r3, r3, r0
 2517 03a4 93F86414 		ldrb	r1, [r3, #1124]	@ zero_extendqisi2
 2518 03a8 0A43     		orrs	r2, r2, r1
 2519 03aa 83F86424 		strb	r2, [r3, #1124]
 2520 03ae 42E7     		b	.L107
 2521              	.LVL185:
 2522              	.L178:
 357:../../libDaisy//src/dev/oled_ssd130x.h ****         else
 2523              		.loc 4 357 42 view .LVU631
 2524              	.LBE674:
 2525              	.LBE677:
 2526              	.LBE686:
 2527              	.LBE687:
 2528              	.LBE689:
 2529              	.LBB690:
 2530              	.LBB641:
 2531              	.LBB635:
  42:../../libDaisy//src/hid/disp/oled_display.h ****     {
 2532              		.loc 1 42 10 is_stmt 1 view .LVU632
 2533              	.LBB629:
 2534              	.LBB625:
 2535              	.LBB621:
 354:../../libDaisy//src/dev/oled_ssd130x.h ****             return;
 2536              		.loc 4 354 14 is_stmt 0 view .LVU633
 2537 03b0 7F2A     		cmp	r2, #127
 2538              	.LBE621:
 2539              	.LBE625:
ARM GAS  /var/folders/1y/_321xjh9623c014x9_qw12rr0000gn/T//ccqHcGuP.s 			page 80


 2540              		.loc 1 44 26 view .LVU634
 2541 03b2 00F58B64 		add	r4, r0, #1112
 2542              	.LVL186:
 2543              	.LBB626:
 352:../../libDaisy//src/dev/oled_ssd130x.h ****     {
 2544              		.loc 4 352 10 is_stmt 1 view .LVU635
 2545              	.LBE626:
 2546              	.LBE629:
 2547              	.LBE635:
 229:../../libDaisy//src/hid/disp/display.h ****         int_fast16_t signY  = ((y1 < y2) ? 1 : -1);
 2548              		.loc 3 229 42 is_stmt 0 view .LVU636
 2549 03b6 4FF0FF3B 		mov	fp, #-1
 2550              	.LBB636:
 2551              	.LBB630:
 2552              	.LBB627:
 2553              	.LBB622:
 354:../../libDaisy//src/dev/oled_ssd130x.h ****             return;
 2554              		.loc 4 354 14 view .LVU637
 2555 03ba 94BF     		ite	ls
 2556 03bc 0023     		movls	r3, #0
 2557 03be 0123     		movhi	r3, #1
 354:../../libDaisy//src/dev/oled_ssd130x.h ****             return;
 2558              		.loc 4 354 28 view .LVU638
 2559 03c0 3F2F     		cmp	r7, #63
 354:../../libDaisy//src/dev/oled_ssd130x.h ****             return;
 2560              		.loc 4 354 14 view .LVU639
 2561 03c2 0393     		str	r3, [sp, #12]
 354:../../libDaisy//src/dev/oled_ssd130x.h ****             return;
 2562              		.loc 4 354 28 view .LVU640
 2563 03c4 94BF     		ite	ls
 2564 03c6 0021     		movls	r1, #0
 2565 03c8 0121     		movhi	r1, #1
 2566 03ca 0491     		str	r1, [sp, #16]
 354:../../libDaisy//src/dev/oled_ssd130x.h ****             return;
 2567              		.loc 4 354 9 view .LVU641
 2568 03cc 8BB9     		cbnz	r3, .L82
 2569 03ce 81B9     		cbnz	r1, .L82
 2570              	.LVL187:
 2571              	.L121:
 357:../../libDaisy//src/dev/oled_ssd130x.h ****         else
 2572              		.loc 4 357 28 view .LVU642
 2573 03d0 FB08     		lsrs	r3, r7, #3
 357:../../libDaisy//src/dev/oled_ssd130x.h ****         else
 2574              		.loc 4 357 48 view .LVU643
 2575 03d2 0126     		movs	r6, #1
 357:../../libDaisy//src/dev/oled_ssd130x.h ****         else
 2576              		.loc 4 357 54 view .LVU644
 2577 03d4 07F00701 		and	r1, r7, #7
 357:../../libDaisy//src/dev/oled_ssd130x.h ****         else
 2578              		.loc 4 357 42 view .LVU645
 2579 03d8 02EBC313 		add	r3, r2, r3, lsl #7
 357:../../libDaisy//src/dev/oled_ssd130x.h ****         else
 2580              		.loc 4 357 48 view .LVU646
 2581 03dc 06FA01F1 		lsl	r1, r6, r1
 357:../../libDaisy//src/dev/oled_ssd130x.h ****         else
 2582              		.loc 4 357 42 view .LVU647
 2583 03e0 0344     		add	r3, r3, r0
ARM GAS  /var/folders/1y/_321xjh9623c014x9_qw12rr0000gn/T//ccqHcGuP.s 			page 81


 2584 03e2 93F86464 		ldrb	r6, [r3, #1124]	@ zero_extendqisi2
 2585 03e6 3143     		orrs	r1, r1, r6
 2586 03e8 83F86414 		strb	r1, [r3, #1124]
 2587 03ec 0023     		movs	r3, #0
 2588 03ee CDE90333 		strd	r3, r3, [sp, #12]
 2589              	.L82:
 2590              	.LVL188:
 357:../../libDaisy//src/dev/oled_ssd130x.h ****         else
 2591              		.loc 4 357 42 view .LVU648
 2592              	.LBE622:
 2593              	.LBE627:
 2594              	.LBE630:
 2595              	.LBE636:
 239:../../libDaisy//src/hid/disp/display.h ****         {
 2596              		.loc 3 239 26 is_stmt 1 view .LVU649
 2597 03f2 9542     		cmp	r5, r2
 2598 03f4 7FF461AE 		bne	.L84
 239:../../libDaisy//src/hid/disp/display.h ****         {
 2599              		.loc 3 239 19 is_stmt 0 view .LVU650
 2600 03f8 0123     		movs	r3, #1
 2601 03fa 0793     		str	r3, [sp, #28]
 2602 03fc 83E6     		b	.L83
 2603              	.LVL189:
 2604              	.L132:
 239:../../libDaisy//src/hid/disp/display.h ****         {
 2605              		.loc 3 239 19 view .LVU651
 2606              	.LBE641:
 2607              	.LBE690:
 2608              	.LBB691:
 2609              	.LBB688:
 231:../../libDaisy//src/hid/disp/display.h ****         int_fast16_t error2;
 2610              		.loc 3 231 22 view .LVU652
 2611 03fe B146     		mov	r9, r6
 230:../../libDaisy//src/hid/disp/display.h ****         int_fast16_t error  = deltaX - deltaY;
 2612              		.loc 3 230 42 view .LVU653
 2613 0400 4FF0010A 		mov	r10, #1
 2614 0404 1AE7     		b	.L109
 2615              	.LBE688:
 2616              	.LBE691:
 2617              	.LBE735:
 2618              		.cfi_endproc
 2619              	.LFE2586:
 2621 0406 00BF     		.section	.text._ZN5daisy5Dubby15UpdateMixerPaneEv,"ax",%progbits
 2622              		.align	1
 2623              		.p2align 2,,3
 2624              		.global	_ZN5daisy5Dubby15UpdateMixerPaneEv
 2625              		.syntax unified
 2626              		.thumb
 2627              		.thumb_func
 2629              	_ZN5daisy5Dubby15UpdateMixerPaneEv:
 2630              	.LVL190:
 2631              	.LFB2584:
 218:Dubby.cpp     ****     if(seed.system.GetNow() - screen_update_last_ > screen_update_period_)
 2632              		.loc 2 218 1 is_stmt 1 view -0
 2633              		.cfi_startproc
 2634              		@ args = 0, pretend = 0, frame = 0
 2635              		@ frame_needed = 0, uses_anonymous_args = 0
ARM GAS  /var/folders/1y/_321xjh9623c014x9_qw12rr0000gn/T//ccqHcGuP.s 			page 82


 219:Dubby.cpp     ****     {
 2636              		.loc 2 219 5 view .LVU655
 218:Dubby.cpp     ****     if(seed.system.GetNow() - screen_update_last_ > screen_update_period_)
 2637              		.loc 2 218 1 is_stmt 0 view .LVU656
 2638 0000 38B5     		push	{r3, r4, r5, lr}
 2639              		.cfi_def_cfa_offset 16
 2640              		.cfi_offset 3, -16
 2641              		.cfi_offset 4, -12
 2642              		.cfi_offset 5, -8
 2643              		.cfi_offset 14, -4
 218:Dubby.cpp     ****     if(seed.system.GetNow() - screen_update_last_ > screen_update_period_)
 2644              		.loc 2 218 1 view .LVU657
 2645 0002 0446     		mov	r4, r0
 2646              	.LBB743:
 219:Dubby.cpp     ****     {
 2647              		.loc 2 219 26 view .LVU658
 2648 0004 FFF7FEFF 		bl	_ZN5daisy6System6GetNowEv
 2649              	.LVL191:
 219:Dubby.cpp     ****     {
 2650              		.loc 2 219 29 view .LVU659
 2651 0008 D4F86C28 		ldr	r2, [r4, #2156]
 219:Dubby.cpp     ****     {
 2652              		.loc 2 219 5 view .LVU660
 2653 000c D4F87038 		ldr	r3, [r4, #2160]
 219:Dubby.cpp     ****     {
 2654              		.loc 2 219 29 view .LVU661
 2655 0010 801A     		subs	r0, r0, r2
 219:Dubby.cpp     ****     {
 2656              		.loc 2 219 5 view .LVU662
 2657 0012 9842     		cmp	r0, r3
 2658 0014 00D8     		bhi	.L186
 2659              	.LBE743:
 224:Dubby.cpp     **** 
 2660              		.loc 2 224 1 view .LVU663
 2661 0016 38BD     		pop	{r3, r4, r5, pc}
 2662              	.LVL192:
 2663              	.L186:
 2664              	.LBB744:
 2665              	.LBI744:
 217:Dubby.cpp     **** {
 2666              		.loc 2 217 6 is_stmt 1 view .LVU664
 2667              	.LBB745:
 221:Dubby.cpp     ****         for (int i = 0; i < 4; i++) UpdateBar(i);
 2668              		.loc 2 221 9 view .LVU665
 2669              	.LBB746:
 222:Dubby.cpp     ****     }
 2670              		.loc 2 222 18 is_stmt 0 view .LVU666
 2671 0018 0025     		movs	r5, #0
 2672              	.LBE746:
 221:Dubby.cpp     ****         for (int i = 0; i < 4; i++) UpdateBar(i);
 2673              		.loc 2 221 49 view .LVU667
 2674 001a FFF7FEFF 		bl	_ZN5daisy6System6GetNowEv
 2675              	.LVL193:
 221:Dubby.cpp     ****         for (int i = 0; i < 4; i++) UpdateBar(i);
 2676              		.loc 2 221 29 view .LVU668
 2677 001e C4F86C08 		str	r0, [r4, #2156]
 222:Dubby.cpp     ****     }
ARM GAS  /var/folders/1y/_321xjh9623c014x9_qw12rr0000gn/T//ccqHcGuP.s 			page 83


 2678              		.loc 2 222 9 is_stmt 1 view .LVU669
 2679              	.LVL194:
 2680              	.LBB747:
 222:Dubby.cpp     ****     }
 2681              		.loc 2 222 27 view .LVU670
 2682              	.L183:
 222:Dubby.cpp     ****     }
 2683              		.loc 2 222 37 view .LVU671
 222:Dubby.cpp     ****     }
 2684              		.loc 2 222 46 is_stmt 0 view .LVU672
 2685 0022 2946     		mov	r1, r5
 222:Dubby.cpp     ****     }
 2686              		.loc 2 222 9 view .LVU673
 2687 0024 0135     		adds	r5, r5, #1
 2688              	.LVL195:
 222:Dubby.cpp     ****     }
 2689              		.loc 2 222 46 view .LVU674
 2690 0026 2046     		mov	r0, r4
 2691 0028 FFF7FEFF 		bl	_ZN5daisy5Dubby9UpdateBarEi
 2692              	.LVL196:
 222:Dubby.cpp     ****     }
 2693              		.loc 2 222 9 is_stmt 1 view .LVU675
 222:Dubby.cpp     ****     }
 2694              		.loc 2 222 27 view .LVU676
 2695 002c 042D     		cmp	r5, #4
 2696 002e F8D1     		bne	.L183
 2697              	.LBE747:
 2698              	.LBE745:
 2699              	.LBE744:
 224:Dubby.cpp     **** 
 2700              		.loc 2 224 1 is_stmt 0 view .LVU677
 2701 0030 38BD     		pop	{r3, r4, r5, pc}
 224:Dubby.cpp     **** 
 2702              		.loc 2 224 1 view .LVU678
 2703              		.cfi_endproc
 2704              	.LFE2584:
 2706 0032 00BF     		.section	.text._ZN5daisy5Dubby11RenderScopeEv,"ax",%progbits
 2707              		.align	1
 2708              		.p2align 2,,3
 2709              		.global	_ZN5daisy5Dubby11RenderScopeEv
 2710              		.syntax unified
 2711              		.thumb
 2712              		.thumb_func
 2714              	_ZN5daisy5Dubby11RenderScopeEv:
 2715              	.LVL197:
 2716              	.LFB2587:
 256:Dubby.cpp     ****     if(seed.system.GetNow() - screen_update_last_ > screen_update_period_)
 2717              		.loc 2 256 1 is_stmt 1 view -0
 2718              		.cfi_startproc
 2719              		@ args = 0, pretend = 0, frame = 0
 2720              		@ frame_needed = 0, uses_anonymous_args = 0
 257:Dubby.cpp     ****     {
 2721              		.loc 2 257 5 view .LVU680
 256:Dubby.cpp     ****     if(seed.system.GetNow() - screen_update_last_ > screen_update_period_)
 2722              		.loc 2 256 1 is_stmt 0 view .LVU681
 2723 0000 10B5     		push	{r4, lr}
 2724              		.cfi_def_cfa_offset 8
ARM GAS  /var/folders/1y/_321xjh9623c014x9_qw12rr0000gn/T//ccqHcGuP.s 			page 84


 2725              		.cfi_offset 4, -8
 2726              		.cfi_offset 14, -4
 256:Dubby.cpp     ****     if(seed.system.GetNow() - screen_update_last_ > screen_update_period_)
 2727              		.loc 2 256 1 view .LVU682
 2728 0002 0446     		mov	r4, r0
 2729              	.LBB749:
 257:Dubby.cpp     ****     {
 2730              		.loc 2 257 26 view .LVU683
 2731 0004 FFF7FEFF 		bl	_ZN5daisy6System6GetNowEv
 2732              	.LVL198:
 257:Dubby.cpp     ****     {
 2733              		.loc 2 257 29 view .LVU684
 2734 0008 D4F86C28 		ldr	r2, [r4, #2156]
 257:Dubby.cpp     ****     {
 2735              		.loc 2 257 5 view .LVU685
 2736 000c D4F87038 		ldr	r3, [r4, #2160]
 257:Dubby.cpp     ****     {
 2737              		.loc 2 257 29 view .LVU686
 2738 0010 801A     		subs	r0, r0, r2
 257:Dubby.cpp     ****     {
 2739              		.loc 2 257 5 view .LVU687
 2740 0012 9842     		cmp	r0, r3
 2741 0014 00D8     		bhi	.L190
 2742              	.LBE749:
 280:Dubby.cpp     **** 
 2743              		.loc 2 280 1 view .LVU688
 2744 0016 10BD     		pop	{r4, pc}
 2745              	.LVL199:
 2746              	.L190:
 280:Dubby.cpp     **** 
 2747              		.loc 2 280 1 view .LVU689
 2748 0018 2046     		mov	r0, r4
 2749 001a BDE81040 		pop	{r4, lr}
 2750              		.cfi_restore 14
 2751              		.cfi_restore 4
 2752              		.cfi_def_cfa_offset 0
 2753              	.LVL200:
 280:Dubby.cpp     **** 
 2754              		.loc 2 280 1 view .LVU690
 2755 001e FFF7FEBF 		b	_ZN5daisy5Dubby11RenderScopeEv.part.0
 2756              	.LVL201:
 280:Dubby.cpp     **** 
 2757              		.loc 2 280 1 view .LVU691
 2758              		.cfi_endproc
 2759              	.LFE2587:
 2761 0022 00BF     		.section	.text._ZN5daisy5Dubby11InitEncoderEv,"ax",%progbits
 2762              		.align	1
 2763              		.p2align 2,,3
 2764              		.global	_ZN5daisy5Dubby11InitEncoderEv
 2765              		.syntax unified
 2766              		.thumb
 2767              		.thumb_func
 2769              	_ZN5daisy5Dubby11InitEncoderEv:
 2770              	.LVL202:
 2771              	.LFB2591:
 321:Dubby.cpp     ****     encoder.Init(seed.GetPin(PIN_ENC_A),
 2772              		.loc 2 321 1 is_stmt 1 view -0
ARM GAS  /var/folders/1y/_321xjh9623c014x9_qw12rr0000gn/T//ccqHcGuP.s 			page 85


 2773              		.cfi_startproc
 2774              		@ args = 0, pretend = 0, frame = 16
 2775              		@ frame_needed = 0, uses_anonymous_args = 0
 322:Dubby.cpp     ****                 seed.GetPin(PIN_ENC_B),
 2776              		.loc 2 322 5 view .LVU693
 321:Dubby.cpp     ****     encoder.Init(seed.GetPin(PIN_ENC_A),
 2777              		.loc 2 321 1 is_stmt 0 view .LVU694
 2778 0000 10B5     		push	{r4, lr}
 2779              		.cfi_def_cfa_offset 8
 2780              		.cfi_offset 4, -8
 2781              		.cfi_offset 14, -4
 2782 0002 0446     		mov	r4, r0
 2783 0004 84B0     		sub	sp, sp, #16
 2784              		.cfi_def_cfa_offset 24
 322:Dubby.cpp     ****                 seed.GetPin(PIN_ENC_B),
 2785              		.loc 2 322 17 view .LVU695
 2786 0006 0620     		movs	r0, #6
 2787              	.LVL203:
 322:Dubby.cpp     ****                 seed.GetPin(PIN_ENC_B),
 2788              		.loc 2 322 17 view .LVU696
 2789 0008 FFF7FEFF 		bl	_ZN5daisy9DaisySeed6GetPinEh
 2790              	.LVL204:
 2791 000c 0346     		mov	r3, r0	@ movhi
 2792 000e 0520     		movs	r0, #5
 2793 0010 ADF80430 		strh	r3, [sp, #4]	@ movhi
 2794 0014 FFF7FEFF 		bl	_ZN5daisy9DaisySeed6GetPinEh
 2795              	.LVL205:
 2796 0018 0346     		mov	r3, r0	@ movhi
 2797 001a 0420     		movs	r0, #4
 2798 001c ADF80830 		strh	r3, [sp, #8]	@ movhi
 2799 0020 FFF7FEFF 		bl	_ZN5daisy9DaisySeed6GetPinEh
 2800              	.LVL206:
 2801 0024 ADF80C00 		strh	r0, [sp, #12]	@ movhi
 2802 0028 04F1F400 		add	r0, r4, #244
 2803 002c 9FED040A 		vldr.32	s0, .L193
 2804 0030 039B     		ldr	r3, [sp, #12]
 2805 0032 DDE90112 		ldrd	r1, r2, [sp, #4]
 325:Dubby.cpp     **** 
 2806              		.loc 2 325 1 view .LVU697
 2807 0036 04B0     		add	sp, sp, #16
 2808              		.cfi_def_cfa_offset 8
 2809              		@ sp needed
 2810 0038 BDE81040 		pop	{r4, lr}
 2811              		.cfi_restore 14
 2812              		.cfi_restore 4
 2813              		.cfi_def_cfa_offset 0
 2814              	.LVL207:
 322:Dubby.cpp     ****                 seed.GetPin(PIN_ENC_B),
 2815              		.loc 2 322 17 view .LVU698
 2816 003c FFF7FEBF 		b	_ZN5daisy7Encoder4InitE12dsy_gpio_pinS1_S1_f
 2817              	.LVL208:
 2818              	.L194:
 322:Dubby.cpp     ****                 seed.GetPin(PIN_ENC_B),
 2819              		.loc 2 322 17 view .LVU699
 2820              		.align	2
 2821              	.L193:
 2822 0040 00000000 		.word	0
ARM GAS  /var/folders/1y/_321xjh9623c014x9_qw12rr0000gn/T//ccqHcGuP.s 			page 86


 2823              		.cfi_endproc
 2824              	.LFE2591:
 2826              		.section	.text._ZN5daisy5Dubby18ProcessAllControlsEv,"ax",%progbits
 2827              		.align	1
 2828              		.p2align 2,,3
 2829              		.global	_ZN5daisy5Dubby18ProcessAllControlsEv
 2830              		.syntax unified
 2831              		.thumb
 2832              		.thumb_func
 2834              	_ZN5daisy5Dubby18ProcessAllControlsEv:
 2835              	.LVL209:
 2836              	.LFB2592:
 328:Dubby.cpp     ****     ProcessAnalogControls();
 2837              		.loc 2 328 1 is_stmt 1 view -0
 2838              		.cfi_startproc
 2839              		@ args = 0, pretend = 0, frame = 0
 2840              		@ frame_needed = 0, uses_anonymous_args = 0
 329:Dubby.cpp     ****     ProcessDigitalControls();
 2841              		.loc 2 329 5 view .LVU701
 328:Dubby.cpp     ****     ProcessAnalogControls();
 2842              		.loc 2 328 1 is_stmt 0 view .LVU702
 2843 0000 70B5     		push	{r4, r5, r6, lr}
 2844              		.cfi_def_cfa_offset 16
 2845              		.cfi_offset 4, -16
 2846              		.cfi_offset 5, -12
 2847              		.cfi_offset 6, -8
 2848              		.cfi_offset 14, -4
 328:Dubby.cpp     ****     ProcessAnalogControls();
 2849              		.loc 2 328 1 view .LVU703
 2850 0002 0546     		mov	r5, r0
 2851              	.LVL210:
 2852              	.LBB755:
 2853              	.LBI755:
 333:Dubby.cpp     **** {
 2854              		.loc 2 333 6 is_stmt 1 view .LVU704
 2855              	.LBE755:
 335:Dubby.cpp     ****         analogInputs[i].Process();
 2856              		.loc 2 335 5 view .LVU705
 2857              	.LBB757:
 2858              	.LBB756:
 335:Dubby.cpp     ****         analogInputs[i].Process();
 2859              		.loc 2 335 25 view .LVU706
 2860 0004 00F58E74 		add	r4, r0, #284
 2861 0008 00F5EE76 		add	r6, r0, #476
 2862              	.LVL211:
 2863              	.L196:
 336:Dubby.cpp     **** }
 2864              		.loc 2 336 9 view .LVU707
 336:Dubby.cpp     **** }
 2865              		.loc 2 336 32 is_stmt 0 view .LVU708
 2866 000c 2046     		mov	r0, r4
 335:Dubby.cpp     ****         analogInputs[i].Process();
 2867              		.loc 2 335 25 view .LVU709
 2868 000e 2034     		adds	r4, r4, #32
 336:Dubby.cpp     **** }
 2869              		.loc 2 336 32 view .LVU710
 2870 0010 FFF7FEFF 		bl	_ZN5daisy13AnalogControl7ProcessEv
ARM GAS  /var/folders/1y/_321xjh9623c014x9_qw12rr0000gn/T//ccqHcGuP.s 			page 87


 2871              	.LVL212:
 335:Dubby.cpp     ****         analogInputs[i].Process();
 2872              		.loc 2 335 5 is_stmt 1 view .LVU711
 335:Dubby.cpp     ****         analogInputs[i].Process();
 2873              		.loc 2 335 25 view .LVU712
 2874 0014 B442     		cmp	r4, r6
 2875 0016 F9D1     		bne	.L196
 2876              	.LVL213:
 335:Dubby.cpp     ****         analogInputs[i].Process();
 2877              		.loc 2 335 25 is_stmt 0 view .LVU713
 2878              	.LBE756:
 2879              	.LBE757:
 330:Dubby.cpp     **** }
 2880              		.loc 2 330 5 is_stmt 1 view .LVU714
 2881              	.LBB758:
 2882              	.LBI758:
 339:Dubby.cpp     **** {
 2883              		.loc 2 339 6 view .LVU715
 2884              	.LBB759:
 341:Dubby.cpp     ****     
 2885              		.loc 2 341 5 view .LVU716
 341:Dubby.cpp     ****     
 2886              		.loc 2 341 21 is_stmt 0 view .LVU717
 2887 0018 05F1F400 		add	r0, r5, #244
 2888 001c FFF7FEFF 		bl	_ZN5daisy7Encoder8DebounceEv
 2889              	.LVL214:
 343:Dubby.cpp     **** }
 2890              		.loc 2 343 5 is_stmt 1 view .LVU718
 2891              	.LBB760:
 343:Dubby.cpp     **** }
 2892              		.loc 2 343 23 view .LVU719
 343:Dubby.cpp     **** }
 2893              		.loc 2 343 33 view .LVU720
 343:Dubby.cpp     **** }
 2894              		.loc 2 343 52 is_stmt 0 view .LVU721
 2895 0020 05F50070 		add	r0, r5, #512
 2896 0024 FFF7FEFF 		bl	_ZN5daisy6Switch8DebounceEv
 2897              	.LVL215:
 343:Dubby.cpp     **** }
 2898              		.loc 2 343 5 is_stmt 1 view .LVU722
 343:Dubby.cpp     **** }
 2899              		.loc 2 343 23 view .LVU723
 343:Dubby.cpp     **** }
 2900              		.loc 2 343 33 view .LVU724
 343:Dubby.cpp     **** }
 2901              		.loc 2 343 52 is_stmt 0 view .LVU725
 2902 0028 05F50470 		add	r0, r5, #528
 2903 002c FFF7FEFF 		bl	_ZN5daisy6Switch8DebounceEv
 2904              	.LVL216:
 343:Dubby.cpp     **** }
 2905              		.loc 2 343 5 is_stmt 1 view .LVU726
 343:Dubby.cpp     **** }
 2906              		.loc 2 343 23 view .LVU727
 343:Dubby.cpp     **** }
 2907              		.loc 2 343 33 view .LVU728
 343:Dubby.cpp     **** }
 2908              		.loc 2 343 52 is_stmt 0 view .LVU729
ARM GAS  /var/folders/1y/_321xjh9623c014x9_qw12rr0000gn/T//ccqHcGuP.s 			page 88


 2909 0030 05F50870 		add	r0, r5, #544
 2910 0034 FFF7FEFF 		bl	_ZN5daisy6Switch8DebounceEv
 2911              	.LVL217:
 343:Dubby.cpp     **** }
 2912              		.loc 2 343 5 is_stmt 1 view .LVU730
 343:Dubby.cpp     **** }
 2913              		.loc 2 343 23 view .LVU731
 343:Dubby.cpp     **** }
 2914              		.loc 2 343 33 view .LVU732
 343:Dubby.cpp     **** }
 2915              		.loc 2 343 52 is_stmt 0 view .LVU733
 2916 0038 05F50C70 		add	r0, r5, #560
 2917              	.LBE760:
 2918              	.LBE759:
 2919              	.LBE758:
 331:Dubby.cpp     **** 
 2920              		.loc 2 331 1 view .LVU734
 2921 003c BDE87040 		pop	{r4, r5, r6, lr}
 2922              		.cfi_restore 14
 2923              		.cfi_restore 6
 2924              		.cfi_restore 5
 2925              		.cfi_restore 4
 2926              		.cfi_def_cfa_offset 0
 2927              	.LVL218:
 2928              	.LBB763:
 2929              	.LBB762:
 2930              	.LBB761:
 343:Dubby.cpp     **** }
 2931              		.loc 2 343 52 view .LVU735
 2932 0040 FFF7FEBF 		b	_ZN5daisy6Switch8DebounceEv
 2933              	.LVL219:
 343:Dubby.cpp     **** }
 2934              		.loc 2 343 52 view .LVU736
 2935              	.LBE761:
 2936              	.LBE762:
 2937              	.LBE763:
 2938              		.cfi_endproc
 2939              	.LFE2592:
 2941              		.section	.text._ZN5daisy5Dubby21ProcessAnalogControlsEv,"ax",%progbits
 2942              		.align	1
 2943              		.p2align 2,,3
 2944              		.global	_ZN5daisy5Dubby21ProcessAnalogControlsEv
 2945              		.syntax unified
 2946              		.thumb
 2947              		.thumb_func
 2949              	_ZN5daisy5Dubby21ProcessAnalogControlsEv:
 2950              	.LVL220:
 2951              	.LFB2593:
 334:Dubby.cpp     ****     for(size_t i = 0; i < CTRL_LAST; i++)
 2952              		.loc 2 334 1 is_stmt 1 view -0
 2953              		.cfi_startproc
 2954              		@ args = 0, pretend = 0, frame = 0
 2955              		@ frame_needed = 0, uses_anonymous_args = 0
 335:Dubby.cpp     ****         analogInputs[i].Process();
 2956              		.loc 2 335 5 view .LVU738
 2957              	.LBB764:
 335:Dubby.cpp     ****         analogInputs[i].Process();
ARM GAS  /var/folders/1y/_321xjh9623c014x9_qw12rr0000gn/T//ccqHcGuP.s 			page 89


 2958              		.loc 2 335 25 view .LVU739
 2959              	.LBE764:
 334:Dubby.cpp     ****     for(size_t i = 0; i < CTRL_LAST; i++)
 2960              		.loc 2 334 1 is_stmt 0 view .LVU740
 2961 0000 38B5     		push	{r3, r4, r5, lr}
 2962              		.cfi_def_cfa_offset 16
 2963              		.cfi_offset 3, -16
 2964              		.cfi_offset 4, -12
 2965              		.cfi_offset 5, -8
 2966              		.cfi_offset 14, -4
 2967 0002 00F58E74 		add	r4, r0, #284
 2968 0006 00F5EE75 		add	r5, r0, #476
 2969              	.LVL221:
 2970              	.L200:
 2971              	.LBB765:
 336:Dubby.cpp     **** }
 2972              		.loc 2 336 9 is_stmt 1 discriminator 2 view .LVU741
 336:Dubby.cpp     **** }
 2973              		.loc 2 336 32 is_stmt 0 discriminator 2 view .LVU742
 2974 000a 2046     		mov	r0, r4
 335:Dubby.cpp     ****         analogInputs[i].Process();
 2975              		.loc 2 335 25 discriminator 2 view .LVU743
 2976 000c 2034     		adds	r4, r4, #32
 336:Dubby.cpp     **** }
 2977              		.loc 2 336 32 discriminator 2 view .LVU744
 2978 000e FFF7FEFF 		bl	_ZN5daisy13AnalogControl7ProcessEv
 2979              	.LVL222:
 335:Dubby.cpp     ****         analogInputs[i].Process();
 2980              		.loc 2 335 5 is_stmt 1 discriminator 2 view .LVU745
 335:Dubby.cpp     ****         analogInputs[i].Process();
 2981              		.loc 2 335 25 discriminator 2 view .LVU746
 2982 0012 AC42     		cmp	r4, r5
 2983 0014 F9D1     		bne	.L200
 2984              	.LBE765:
 337:Dubby.cpp     **** 
 2985              		.loc 2 337 1 is_stmt 0 view .LVU747
 2986 0016 38BD     		pop	{r3, r4, r5, pc}
 337:Dubby.cpp     **** 
 2987              		.loc 2 337 1 view .LVU748
 2988              		.cfi_endproc
 2989              	.LFE2593:
 2991              		.section	.text._ZN5daisy5Dubby22ProcessDigitalControlsEv,"ax",%progbits
 2992              		.align	1
 2993              		.p2align 2,,3
 2994              		.global	_ZN5daisy5Dubby22ProcessDigitalControlsEv
 2995              		.syntax unified
 2996              		.thumb
 2997              		.thumb_func
 2999              	_ZN5daisy5Dubby22ProcessDigitalControlsEv:
 3000              	.LVL223:
 3001              	.LFB2594:
 340:Dubby.cpp     ****     encoder.Debounce();
 3002              		.loc 2 340 1 is_stmt 1 view -0
 3003              		.cfi_startproc
 3004              		@ args = 0, pretend = 0, frame = 0
 3005              		@ frame_needed = 0, uses_anonymous_args = 0
 341:Dubby.cpp     ****     
ARM GAS  /var/folders/1y/_321xjh9623c014x9_qw12rr0000gn/T//ccqHcGuP.s 			page 90


 3006              		.loc 2 341 5 view .LVU750
 340:Dubby.cpp     ****     encoder.Debounce();
 3007              		.loc 2 340 1 is_stmt 0 view .LVU751
 3008 0000 10B5     		push	{r4, lr}
 3009              		.cfi_def_cfa_offset 8
 3010              		.cfi_offset 4, -8
 3011              		.cfi_offset 14, -4
 340:Dubby.cpp     ****     encoder.Debounce();
 3012              		.loc 2 340 1 view .LVU752
 3013 0002 0446     		mov	r4, r0
 341:Dubby.cpp     ****     
 3014              		.loc 2 341 21 view .LVU753
 3015 0004 F430     		adds	r0, r0, #244
 3016              	.LVL224:
 341:Dubby.cpp     ****     
 3017              		.loc 2 341 21 view .LVU754
 3018 0006 FFF7FEFF 		bl	_ZN5daisy7Encoder8DebounceEv
 3019              	.LVL225:
 343:Dubby.cpp     **** }
 3020              		.loc 2 343 5 is_stmt 1 view .LVU755
 3021              	.LBB766:
 343:Dubby.cpp     **** }
 3022              		.loc 2 343 23 view .LVU756
 343:Dubby.cpp     **** }
 3023              		.loc 2 343 33 view .LVU757
 343:Dubby.cpp     **** }
 3024              		.loc 2 343 52 is_stmt 0 view .LVU758
 3025 000a 04F50070 		add	r0, r4, #512
 3026 000e FFF7FEFF 		bl	_ZN5daisy6Switch8DebounceEv
 3027              	.LVL226:
 343:Dubby.cpp     **** }
 3028              		.loc 2 343 5 is_stmt 1 view .LVU759
 343:Dubby.cpp     **** }
 3029              		.loc 2 343 23 view .LVU760
 343:Dubby.cpp     **** }
 3030              		.loc 2 343 33 view .LVU761
 343:Dubby.cpp     **** }
 3031              		.loc 2 343 52 is_stmt 0 view .LVU762
 3032 0012 04F50470 		add	r0, r4, #528
 3033 0016 FFF7FEFF 		bl	_ZN5daisy6Switch8DebounceEv
 3034              	.LVL227:
 343:Dubby.cpp     **** }
 3035              		.loc 2 343 5 is_stmt 1 view .LVU763
 343:Dubby.cpp     **** }
 3036              		.loc 2 343 23 view .LVU764
 343:Dubby.cpp     **** }
 3037              		.loc 2 343 33 view .LVU765
 343:Dubby.cpp     **** }
 3038              		.loc 2 343 52 is_stmt 0 view .LVU766
 3039 001a 04F50870 		add	r0, r4, #544
 3040 001e FFF7FEFF 		bl	_ZN5daisy6Switch8DebounceEv
 3041              	.LVL228:
 343:Dubby.cpp     **** }
 3042              		.loc 2 343 5 is_stmt 1 view .LVU767
 343:Dubby.cpp     **** }
 3043              		.loc 2 343 23 view .LVU768
 343:Dubby.cpp     **** }
ARM GAS  /var/folders/1y/_321xjh9623c014x9_qw12rr0000gn/T//ccqHcGuP.s 			page 91


 3044              		.loc 2 343 33 view .LVU769
 343:Dubby.cpp     **** }
 3045              		.loc 2 343 52 is_stmt 0 view .LVU770
 3046 0022 04F50C70 		add	r0, r4, #560
 3047              	.LBE766:
 344:Dubby.cpp     **** 
 3048              		.loc 2 344 1 view .LVU771
 3049 0026 BDE81040 		pop	{r4, lr}
 3050              		.cfi_restore 14
 3051              		.cfi_restore 4
 3052              		.cfi_def_cfa_offset 0
 3053              	.LVL229:
 3054              	.LBB767:
 343:Dubby.cpp     **** }
 3055              		.loc 2 343 52 view .LVU772
 3056 002a FFF7FEBF 		b	_ZN5daisy6Switch8DebounceEv
 3057              	.LVL230:
 343:Dubby.cpp     **** }
 3058              		.loc 2 343 52 view .LVU773
 3059              	.LBE767:
 3060              		.cfi_endproc
 3061              	.LFE2594:
 3063 002e 00BF     		.section	.text._ZN5daisy5Dubby12GetKnobValueENS0_4CtrlE,"ax",%progbits
 3064              		.align	1
 3065              		.p2align 2,,3
 3066              		.global	_ZN5daisy5Dubby12GetKnobValueENS0_4CtrlE
 3067              		.syntax unified
 3068              		.thumb
 3069              		.thumb_func
 3071              	_ZN5daisy5Dubby12GetKnobValueENS0_4CtrlE:
 3072              	.LVL231:
 3073              	.LFB2595:
 347:Dubby.cpp     ****     return (analogInputs[k].Value());
 3074              		.loc 2 347 1 is_stmt 1 view -0
 3075              		.cfi_startproc
 3076              		@ args = 0, pretend = 0, frame = 0
 3077              		@ frame_needed = 0, uses_anonymous_args = 0
 3078              		@ link register save eliminated.
 3079              		.loc 2 348 5 view .LVU775
 3080              	.LBB768:
 3081              	.LBI768:
 3082              		.loc 6 56 18 view .LVU776
 3083              	.LBB769:
 3084              		.loc 6 56 34 view .LVU777
 3085              		.loc 6 56 41 is_stmt 0 view .LVU778
 3086 0000 00EB4111 		add	r1, r0, r1, lsl #5
 3087              	.LVL232:
 3088              		.loc 6 56 41 view .LVU779
 3089              	.LBE769:
 3090              	.LBE768:
 349:Dubby.cpp     **** }
 3091              		.loc 2 349 1 view .LVU780
 3092 0004 91ED4A0A 		vldr.32	s0, [r1, #296]
 3093 0008 7047     		bx	lr
 3094              		.cfi_endproc
 3095              	.LFE2595:
 3097 000a 00BF     		.section	.text._ZN5daisy5Dubby9InitAudioEv,"ax",%progbits
ARM GAS  /var/folders/1y/_321xjh9623c014x9_qw12rr0000gn/T//ccqHcGuP.s 			page 92


 3098              		.align	1
 3099              		.p2align 2,,3
 3100              		.global	_ZN5daisy5Dubby9InitAudioEv
 3101              		.syntax unified
 3102              		.thumb
 3103              		.thumb_func
 3105              	_ZN5daisy5Dubby9InitAudioEv:
 3106              	.LVL233:
 3107              	.LFB2596:
 350:Dubby.cpp     **** 
 351:Dubby.cpp     **** void Dubby::InitAudio() 
 352:Dubby.cpp     **** {
 3108              		.loc 2 352 1 is_stmt 1 view -0
 3109              		.cfi_startproc
 3110              		@ args = 0, pretend = 0, frame = 136
 3111              		@ frame_needed = 0, uses_anonymous_args = 0
 353:Dubby.cpp     ****     // Handle Seed Audio as-is and then
 354:Dubby.cpp     ****     SaiHandle::Config sai_config[2];
 3112              		.loc 2 354 5 view .LVU782
 355:Dubby.cpp     ****     // Internal Codec
 356:Dubby.cpp     ****     if(seed.CheckBoardVersion() == DaisySeed::BoardVersion::DAISY_SEED_1_1)
 3113              		.loc 2 356 5 view .LVU783
 352:Dubby.cpp     ****     // Handle Seed Audio as-is and then
 3114              		.loc 2 352 1 is_stmt 0 view .LVU784
 3115 0000 2DE9F041 		push	{r4, r5, r6, r7, r8, lr}
 3116              		.cfi_def_cfa_offset 24
 3117              		.cfi_offset 4, -24
 3118              		.cfi_offset 5, -20
 3119              		.cfi_offset 6, -16
 3120              		.cfi_offset 7, -12
 3121              		.cfi_offset 8, -8
 3122              		.cfi_offset 14, -4
 3123 0004 0746     		mov	r7, r0
 3124 0006 A2B0     		sub	sp, sp, #136
 3125              		.cfi_def_cfa_offset 160
 3126              		.loc 2 356 30 view .LVU785
 3127 0008 1C30     		adds	r0, r0, #28
 3128              	.LVL234:
 357:Dubby.cpp     ****     {
 358:Dubby.cpp     ****         sai_config[0].pin_config.sa = {DSY_GPIOE, 6};
 3129              		.loc 2 358 37 view .LVU786
 3130 000a 3F4D     		ldr	r5, .L211
 356:Dubby.cpp     ****     {
 3131              		.loc 2 356 30 view .LVU787
 3132 000c FFF7FEFF 		bl	_ZN5daisy9DaisySeed17CheckBoardVersionEv
 3133              	.LVL235:
 356:Dubby.cpp     ****     {
 3134              		.loc 2 356 5 view .LVU788
 3135 0010 0128     		cmp	r0, #1
 359:Dubby.cpp     ****         sai_config[0].pin_config.sb = {DSY_GPIOE, 3};
 360:Dubby.cpp     ****         sai_config[0].a_dir         = SaiHandle::Config::Direction::RECEIVE;
 361:Dubby.cpp     ****         sai_config[0].b_dir         = SaiHandle::Config::Direction::TRANSMIT;
 3136              		.loc 2 361 37 view .LVU789
 3137 0012 4FF00001 		mov	r1, #0
 356:Dubby.cpp     ****     {
 3138              		.loc 2 356 5 view .LVU790
 3139 0016 6DD0     		beq	.L210
ARM GAS  /var/folders/1y/_321xjh9623c014x9_qw12rr0000gn/T//ccqHcGuP.s 			page 93


 362:Dubby.cpp     ****     }
 363:Dubby.cpp     ****     else
 364:Dubby.cpp     ****     {
 365:Dubby.cpp     ****         sai_config[0].pin_config.sa = {DSY_GPIOE, 6};
 3140              		.loc 2 365 9 is_stmt 1 view .LVU791
 3141              		.loc 2 365 37 is_stmt 0 view .LVU792
 3142 0018 2B88     		ldrh	r3, [r5]
 366:Dubby.cpp     ****         sai_config[0].pin_config.sb = {DSY_GPIOE, 3};
 367:Dubby.cpp     ****         sai_config[0].a_dir         = SaiHandle::Config::Direction::TRANSMIT;
 368:Dubby.cpp     ****         sai_config[0].b_dir         = SaiHandle::Config::Direction::RECEIVE;
 3143              		.loc 2 368 37 view .LVU793
 3144 001a 0122     		movs	r2, #1
 365:Dubby.cpp     ****         sai_config[0].pin_config.sb = {DSY_GPIOE, 3};
 3145              		.loc 2 365 37 view .LVU794
 3146 001c ADF84230 		strh	r3, [sp, #66]	@ movhi
 366:Dubby.cpp     ****         sai_config[0].pin_config.sb = {DSY_GPIOE, 3};
 3147              		.loc 2 366 9 is_stmt 1 view .LVU795
 366:Dubby.cpp     ****         sai_config[0].pin_config.sb = {DSY_GPIOE, 3};
 3148              		.loc 2 366 37 is_stmt 0 view .LVU796
 3149 0020 AB88     		ldrh	r3, [r5, #4]
 3150              		.loc 2 368 37 view .LVU797
 3151 0022 CDE91612 		strd	r1, r2, [sp, #88]
 366:Dubby.cpp     ****         sai_config[0].pin_config.sb = {DSY_GPIOE, 3};
 3152              		.loc 2 366 37 view .LVU798
 3153 0026 ADF84430 		strh	r3, [sp, #68]	@ movhi
 367:Dubby.cpp     ****         sai_config[0].b_dir         = SaiHandle::Config::Direction::RECEIVE;
 3154              		.loc 2 367 9 is_stmt 1 view .LVU799
 3155              		.loc 2 368 9 view .LVU800
 3156              	.L208:
 369:Dubby.cpp     ****     }
 370:Dubby.cpp     ****     sai_config[0].periph          = SaiHandle::Config::Peripheral::SAI_1;
 3157              		.loc 2 370 5 view .LVU801
 371:Dubby.cpp     ****     sai_config[0].sr              = SaiHandle::Config::SampleRate::SAI_48KHZ;
 372:Dubby.cpp     ****     sai_config[0].bit_depth       = SaiHandle::Config::BitDepth::SAI_24BIT;
 373:Dubby.cpp     ****     sai_config[0].a_sync          = SaiHandle::Config::Sync::MASTER;
 374:Dubby.cpp     ****     sai_config[0].b_sync          = SaiHandle::Config::Sync::SLAVE;
 375:Dubby.cpp     ****     sai_config[0].pin_config.fs   = {DSY_GPIOE, 4};
 3158              		.loc 2 375 35 is_stmt 0 view .LVU802
 3159 002a 2B89     		ldrh	r3, [r5, #8]
 370:Dubby.cpp     ****     sai_config[0].sr              = SaiHandle::Config::SampleRate::SAI_48KHZ;
 3160              		.loc 2 370 35 view .LVU803
 3161 002c 0024     		movs	r4, #0
 372:Dubby.cpp     ****     sai_config[0].a_sync          = SaiHandle::Config::Sync::MASTER;
 3162              		.loc 2 372 35 view .LVU804
 3163 002e 0126     		movs	r6, #1
 371:Dubby.cpp     ****     sai_config[0].sr              = SaiHandle::Config::SampleRate::SAI_48KHZ;
 3164              		.loc 2 371 35 view .LVU805
 3165 0030 4FF00308 		mov	r8, #3
 3166              		.loc 2 375 35 view .LVU806
 3167 0034 ADF83E30 		strh	r3, [sp, #62]	@ movhi
 376:Dubby.cpp     ****     sai_config[0].pin_config.mclk = {DSY_GPIOE, 2};
 377:Dubby.cpp     ****     sai_config[0].pin_config.sck  = {DSY_GPIOE, 5};
 378:Dubby.cpp     **** 
 379:Dubby.cpp     ****     // External Codec
 380:Dubby.cpp     **** 
 381:Dubby.cpp     ****     I2CHandle::Config i2c_cfg;
 382:Dubby.cpp     ****     i2c_cfg.periph         = I2CHandle::Config::Peripheral::I2C_1;
ARM GAS  /var/folders/1y/_321xjh9623c014x9_qw12rr0000gn/T//ccqHcGuP.s 			page 94


 383:Dubby.cpp     ****     i2c_cfg.mode           = I2CHandle::Config::Mode::I2C_MASTER;
 384:Dubby.cpp     ****     i2c_cfg.speed          = I2CHandle::Config::Speed::I2C_400KHZ;
 385:Dubby.cpp     ****     i2c_cfg.pin_config.scl = {DSY_GPIOB, 8};
 386:Dubby.cpp     ****     i2c_cfg.pin_config.sda = {DSY_GPIOB, 9};
 387:Dubby.cpp     **** 
 388:Dubby.cpp     ****     I2CHandle i2c2;
 389:Dubby.cpp     ****     i2c2.Init(i2c_cfg);
 3168              		.loc 2 389 14 view .LVU807
 3169 0038 09A9     		add	r1, sp, #36
 376:Dubby.cpp     ****     sai_config[0].pin_config.mclk = {DSY_GPIOE, 2};
 3170              		.loc 2 376 35 view .LVU808
 3171 003a AB89     		ldrh	r3, [r5, #12]
 3172              		.loc 2 389 14 view .LVU809
 3173 003c 6846     		mov	r0, sp
 370:Dubby.cpp     ****     sai_config[0].sr              = SaiHandle::Config::SampleRate::SAI_48KHZ;
 3174              		.loc 2 370 35 view .LVU810
 3175 003e 0E94     		str	r4, [sp, #56]
 371:Dubby.cpp     ****     sai_config[0].bit_depth       = SaiHandle::Config::BitDepth::SAI_24BIT;
 3176              		.loc 2 371 5 is_stmt 1 view .LVU811
 376:Dubby.cpp     ****     sai_config[0].pin_config.mclk = {DSY_GPIOE, 2};
 3177              		.loc 2 376 35 is_stmt 0 view .LVU812
 3178 0040 ADF83C30 		strh	r3, [sp, #60]	@ movhi
 377:Dubby.cpp     **** 
 3179              		.loc 2 377 35 view .LVU813
 3180 0044 2B8A     		ldrh	r3, [r5, #16]
 382:Dubby.cpp     ****     i2c_cfg.mode           = I2CHandle::Config::Mode::I2C_MASTER;
 3181              		.loc 2 382 28 view .LVU814
 3182 0046 0994     		str	r4, [sp, #36]
 377:Dubby.cpp     **** 
 3183              		.loc 2 377 35 view .LVU815
 3184 0048 ADF84030 		strh	r3, [sp, #64]	@ movhi
 385:Dubby.cpp     ****     i2c_cfg.pin_config.sda = {DSY_GPIOB, 9};
 3185              		.loc 2 385 28 view .LVU816
 3186 004c AB8A     		ldrh	r3, [r5, #20]
 3187              	.LBB770:
 3188              	.LBB771:
 3189              	.LBB772:
 3190              		.file 8 "../../libDaisy//src/per/i2c.h"
   1:../../libDaisy//src/per/i2c.h **** #pragma once
   2:../../libDaisy//src/per/i2c.h **** #include "daisy_core.h"
   3:../../libDaisy//src/per/i2c.h **** 
   4:../../libDaisy//src/per/i2c.h **** namespace daisy
   5:../../libDaisy//src/per/i2c.h **** {
   6:../../libDaisy//src/per/i2c.h **** /** A handle for interacting with an I2C peripheral. This is a dumb
   7:../../libDaisy//src/per/i2c.h ****  *  gateway that internally points to one of the four I2C peripherals
   8:../../libDaisy//src/per/i2c.h ****  *  after it was initialised. It can then be copied and passed around.
   9:../../libDaisy//src/per/i2c.h ****  *  Use an I2CHandle like this:
  10:../../libDaisy//src/per/i2c.h ****  *  
  11:../../libDaisy//src/per/i2c.h ****  *      // setup the configuration
  12:../../libDaisy//src/per/i2c.h ****  *      I2CHandle::Config i2c_conf;
  13:../../libDaisy//src/per/i2c.h ****  *      i2c_conf.periph = I2CHandle::Config::Peripheral::I2C_1;
  14:../../libDaisy//src/per/i2c.h ****  *      i2c_conf.speed  = I2CHandle::Config::Speed::I2C_400KHZ;
  15:../../libDaisy//src/per/i2c.h ****  *      i2c_conf.mode   = I2CHandle::Config::Mode::Master;
  16:../../libDaisy//src/per/i2c.h ****  *      i2c_conf.pin_config.scl  = {DSY_GPIOB, 8};
  17:../../libDaisy//src/per/i2c.h ****  *      i2c_conf.pin_config.sda  = {DSY_GPIOB, 9};
  18:../../libDaisy//src/per/i2c.h ****  *      // initialise the peripheral
  19:../../libDaisy//src/per/i2c.h ****  *      I2CHandle i2c;
ARM GAS  /var/folders/1y/_321xjh9623c014x9_qw12rr0000gn/T//ccqHcGuP.s 			page 95


  20:../../libDaisy//src/per/i2c.h ****  *      i2c.Init(i2c_conf);
  21:../../libDaisy//src/per/i2c.h ****  *      // now i2c points to the corresponding peripheral and can be used.
  22:../../libDaisy//src/per/i2c.h ****  *      i2c.TransmitBlocking( ... );
  23:../../libDaisy//src/per/i2c.h ****  */
  24:../../libDaisy//src/per/i2c.h **** class I2CHandle
  25:../../libDaisy//src/per/i2c.h **** {
  26:../../libDaisy//src/per/i2c.h ****   public:
  27:../../libDaisy//src/per/i2c.h ****     /** Contains settings for initialising an I2C interface. */
  28:../../libDaisy//src/per/i2c.h ****     struct Config
  29:../../libDaisy//src/per/i2c.h ****     {
  30:../../libDaisy//src/per/i2c.h ****         /** Specifies whether the interface will operate in master or slave mode. */
  31:../../libDaisy//src/per/i2c.h ****         enum class Mode
  32:../../libDaisy//src/per/i2c.h ****         {
  33:../../libDaisy//src/per/i2c.h ****             I2C_MASTER,
  34:../../libDaisy//src/per/i2c.h ****             I2C_SLAVE,
  35:../../libDaisy//src/per/i2c.h ****         };
  36:../../libDaisy//src/per/i2c.h **** 
  37:../../libDaisy//src/per/i2c.h ****         /** Specifices the internal peripheral to use (these are mapped to different pins on the ha
  38:../../libDaisy//src/per/i2c.h ****         enum class Peripheral
  39:../../libDaisy//src/per/i2c.h ****         {
  40:../../libDaisy//src/per/i2c.h ****             I2C_1 = 0, /**< & */
  41:../../libDaisy//src/per/i2c.h ****             I2C_2,     /**< & */
  42:../../libDaisy//src/per/i2c.h ****             I2C_3,     /**< & */
  43:../../libDaisy//src/per/i2c.h ****             I2C_4,     /**< & */
  44:../../libDaisy//src/per/i2c.h ****         };
  45:../../libDaisy//src/per/i2c.h **** 
  46:../../libDaisy//src/per/i2c.h ****         /** Rate at which the clock/data will be sent/received. The device being used will have max
  47:../../libDaisy//src/per/i2c.h ****          *  1MHZ Mode is currently 886kHz
  48:../../libDaisy//src/per/i2c.h ****          */
  49:../../libDaisy//src/per/i2c.h ****         enum class Speed
  50:../../libDaisy//src/per/i2c.h ****         {
  51:../../libDaisy//src/per/i2c.h ****             I2C_100KHZ, /**< & */
  52:../../libDaisy//src/per/i2c.h ****             I2C_400KHZ, /**< & */
  53:../../libDaisy//src/per/i2c.h ****             I2C_1MHZ,   /**< & */
  54:../../libDaisy//src/per/i2c.h ****         };
  55:../../libDaisy//src/per/i2c.h **** 
  56:../../libDaisy//src/per/i2c.h ****         Peripheral periph; /**< & */
  57:../../libDaisy//src/per/i2c.h ****         struct
  58:../../libDaisy//src/per/i2c.h ****         {
  59:../../libDaisy//src/per/i2c.h ****             dsy_gpio_pin scl; /**< & */
  60:../../libDaisy//src/per/i2c.h ****             dsy_gpio_pin sda; /**< & */
  61:../../libDaisy//src/per/i2c.h ****         } pin_config;         /**< & */
  62:../../libDaisy//src/per/i2c.h **** 
  63:../../libDaisy//src/per/i2c.h ****         Speed speed; /**< & */
  64:../../libDaisy//src/per/i2c.h ****         Mode  mode;  /**< & */
  65:../../libDaisy//src/per/i2c.h ****         // 0x10 is chosen as a default to avoid conflicts with reserved addresses
  66:../../libDaisy//src/per/i2c.h ****         uint8_t address = 0x10; /**< & */
  67:../../libDaisy//src/per/i2c.h ****     };
  68:../../libDaisy//src/per/i2c.h **** 
  69:../../libDaisy//src/per/i2c.h ****     /** Return values for I2C functions. */
  70:../../libDaisy//src/per/i2c.h ****     enum class Result
  71:../../libDaisy//src/per/i2c.h ****     {
  72:../../libDaisy//src/per/i2c.h ****         OK, /**< & */
  73:../../libDaisy//src/per/i2c.h ****         ERR /**< & */
  74:../../libDaisy//src/per/i2c.h ****     };
  75:../../libDaisy//src/per/i2c.h **** 
  76:../../libDaisy//src/per/i2c.h ****     enum class Direction
ARM GAS  /var/folders/1y/_321xjh9623c014x9_qw12rr0000gn/T//ccqHcGuP.s 			page 96


  77:../../libDaisy//src/per/i2c.h ****     {
  78:../../libDaisy//src/per/i2c.h ****         TRANSMIT, /**< & */
  79:../../libDaisy//src/per/i2c.h ****         RECEIVE,  /**< & */
  80:../../libDaisy//src/per/i2c.h ****     };
  81:../../libDaisy//src/per/i2c.h **** 
  82:../../libDaisy//src/per/i2c.h ****     I2CHandle() : pimpl_(nullptr) {}
 3191              		.loc 8 82 33 view .LVU817
 3192 004e 0094     		str	r4, [sp]
 3193              	.LBE772:
 3194              	.LBE771:
 3195              	.LBE770:
 385:Dubby.cpp     ****     i2c_cfg.pin_config.sda = {DSY_GPIOB, 9};
 3196              		.loc 2 385 28 view .LVU818
 3197 0050 ADF82830 		strh	r3, [sp, #40]	@ movhi
 386:Dubby.cpp     **** 
 3198              		.loc 2 386 28 view .LVU819
 3199 0054 2B8B     		ldrh	r3, [r5, #24]
 3200 0056 ADF82A30 		strh	r3, [sp, #42]	@ movhi
 3201              	.LBB773:
 3202              	.LBB774:
  28:../../libDaisy//src/per/i2c.h ****     {
 3203              		.loc 8 28 12 view .LVU820
 3204 005a 1023     		movs	r3, #16
 3205              	.LBE774:
 3206              	.LBE773:
 374:Dubby.cpp     ****     sai_config[0].pin_config.fs   = {DSY_GPIOE, 4};
 3207              		.loc 2 374 35 view .LVU821
 3208 005c CDE91446 		strd	r4, r6, [sp, #80]
 384:Dubby.cpp     ****     i2c_cfg.pin_config.scl = {DSY_GPIOB, 8};
 3209              		.loc 2 384 28 view .LVU822
 3210 0060 CDE90B64 		strd	r6, r4, [sp, #44]
 3211              	.LBB776:
 3212              	.LBB775:
  28:../../libDaisy//src/per/i2c.h ****     {
 3213              		.loc 8 28 12 view .LVU823
 3214 0064 8DF83430 		strb	r3, [sp, #52]
 3215              	.LBE775:
 3216              	.LBE776:
 371:Dubby.cpp     ****     sai_config[0].bit_depth       = SaiHandle::Config::BitDepth::SAI_24BIT;
 3217              		.loc 2 371 35 view .LVU824
 3218 0068 CDE91286 		strd	r8, r6, [sp, #72]
 372:Dubby.cpp     ****     sai_config[0].a_sync          = SaiHandle::Config::Sync::MASTER;
 3219              		.loc 2 372 5 is_stmt 1 view .LVU825
 373:Dubby.cpp     ****     sai_config[0].b_sync          = SaiHandle::Config::Sync::SLAVE;
 3220              		.loc 2 373 5 view .LVU826
 375:Dubby.cpp     ****     sai_config[0].pin_config.mclk = {DSY_GPIOE, 2};
 3221              		.loc 2 375 5 view .LVU827
 376:Dubby.cpp     ****     sai_config[0].pin_config.sck  = {DSY_GPIOE, 5};
 3222              		.loc 2 376 5 view .LVU828
 377:Dubby.cpp     **** 
 3223              		.loc 2 377 5 view .LVU829
 381:Dubby.cpp     ****     i2c_cfg.periph         = I2CHandle::Config::Peripheral::I2C_1;
 3224              		.loc 2 381 5 view .LVU830
 3225              	.LVL236:
 3226              	.LBB777:
 3227              	.LBI773:
  28:../../libDaisy//src/per/i2c.h ****     {
ARM GAS  /var/folders/1y/_321xjh9623c014x9_qw12rr0000gn/T//ccqHcGuP.s 			page 97


 3228              		.loc 8 28 12 view .LVU831
  28:../../libDaisy//src/per/i2c.h ****     {
 3229              		.loc 8 28 12 is_stmt 0 view .LVU832
 3230              	.LBE777:
 382:Dubby.cpp     ****     i2c_cfg.mode           = I2CHandle::Config::Mode::I2C_MASTER;
 3231              		.loc 2 382 5 is_stmt 1 view .LVU833
 383:Dubby.cpp     ****     i2c_cfg.speed          = I2CHandle::Config::Speed::I2C_400KHZ;
 3232              		.loc 2 383 5 view .LVU834
 384:Dubby.cpp     ****     i2c_cfg.pin_config.scl = {DSY_GPIOB, 8};
 3233              		.loc 2 384 5 view .LVU835
 385:Dubby.cpp     ****     i2c_cfg.pin_config.sda = {DSY_GPIOB, 9};
 3234              		.loc 2 385 5 view .LVU836
 386:Dubby.cpp     **** 
 3235              		.loc 2 386 5 view .LVU837
 388:Dubby.cpp     ****     i2c2.Init(i2c_cfg);
 3236              		.loc 2 388 5 view .LVU838
 3237              	.LBB778:
 3238              	.LBI770:
 3239              		.loc 8 82 5 view .LVU839
 3240              		.loc 8 82 5 is_stmt 0 view .LVU840
 3241              	.LBE778:
 3242              		.loc 2 389 5 is_stmt 1 view .LVU841
 3243              		.loc 2 389 14 is_stmt 0 view .LVU842
 3244 006c FFF7FEFF 		bl	_ZN5daisy9I2CHandle4InitERKNS0_6ConfigE
 3245              	.LVL237:
 390:Dubby.cpp     **** 
 391:Dubby.cpp     ****     // pullups must be enabled
 392:Dubby.cpp     ****     GPIOB->PUPDR &= ~((GPIO_PUPDR_PUPD8)|(GPIO_PUPDR_PUPD9)); 
 3246              		.loc 2 392 5 is_stmt 1 view .LVU843
 3247              		.loc 2 392 18 is_stmt 0 view .LVU844
 3248 0070 264B     		ldr	r3, .L211+4
 393:Dubby.cpp     ****     GPIOB->PUPDR |= ((GPIO_PUPDR_PUPD8_0)|(GPIO_PUPDR_PUPD9_0)); 
 394:Dubby.cpp     **** 
 395:Dubby.cpp     ****     Pcm3060 codec;
 396:Dubby.cpp     **** 
 397:Dubby.cpp     ****     codec.Init(i2c2);        
 3249              		.loc 2 397 15 view .LVU845
 3250 0072 0099     		ldr	r1, [sp]
 3251 0074 01A8     		add	r0, sp, #4
 392:Dubby.cpp     ****     GPIOB->PUPDR |= ((GPIO_PUPDR_PUPD8_0)|(GPIO_PUPDR_PUPD9_0)); 
 3252              		.loc 2 392 18 view .LVU846
 3253 0076 DA68     		ldr	r2, [r3, #12]
 3254 0078 22F47022 		bic	r2, r2, #983040
 3255 007c DA60     		str	r2, [r3, #12]
 393:Dubby.cpp     ****     GPIOB->PUPDR |= ((GPIO_PUPDR_PUPD8_0)|(GPIO_PUPDR_PUPD9_0)); 
 3256              		.loc 2 393 5 is_stmt 1 view .LVU847
 393:Dubby.cpp     ****     GPIOB->PUPDR |= ((GPIO_PUPDR_PUPD8_0)|(GPIO_PUPDR_PUPD9_0)); 
 3257              		.loc 2 393 18 is_stmt 0 view .LVU848
 3258 007e DA68     		ldr	r2, [r3, #12]
 3259 0080 42F4A022 		orr	r2, r2, #327680
 3260 0084 DA60     		str	r2, [r3, #12]
 395:Dubby.cpp     **** 
 3261              		.loc 2 395 5 is_stmt 1 view .LVU849
 3262              	.LVL238:
 3263              	.LBB779:
 3264              	.LBI779:
 3265              		.file 9 "../../libDaisy//src/dev/codec_pcm3060.h"
ARM GAS  /var/folders/1y/_321xjh9623c014x9_qw12rr0000gn/T//ccqHcGuP.s 			page 98


   1:../../libDaisy//src/dev/codec_pcm3060.h **** #pragma once
   2:../../libDaisy//src/dev/codec_pcm3060.h **** #ifndef DSY_CODEC_PCM3060_H
   3:../../libDaisy//src/dev/codec_pcm3060.h **** #define DSY_CODEC_PCM3060_H
   4:../../libDaisy//src/dev/codec_pcm3060.h **** #include "per/i2c.h"
   5:../../libDaisy//src/dev/codec_pcm3060.h **** namespace daisy
   6:../../libDaisy//src/dev/codec_pcm3060.h **** {
   7:../../libDaisy//src/dev/codec_pcm3060.h **** /**
   8:../../libDaisy//src/dev/codec_pcm3060.h ****  * @brief Driver for the TI PCM3060 Audio Codec.
   9:../../libDaisy//src/dev/codec_pcm3060.h ****  * @addtogroup codec
  10:../../libDaisy//src/dev/codec_pcm3060.h ****  * 
  11:../../libDaisy//src/dev/codec_pcm3060.h ****  * For now this is a limited interface that uses I2C to communicate with the PCM3060
  12:../../libDaisy//src/dev/codec_pcm3060.h ****  * The device can also be accessed with SPI, which is not yet supported.
  13:../../libDaisy//src/dev/codec_pcm3060.h ****  * 
  14:../../libDaisy//src/dev/codec_pcm3060.h ****  * For now all registers are set to their defaults, and the Init function will 
  15:../../libDaisy//src/dev/codec_pcm3060.h ****  * perform a MRST and SRST before setting the format to 24bit LJ, and disabling 
  16:../../libDaisy//src/dev/codec_pcm3060.h ****  * power save for both the ADC and DAC.
  17:../../libDaisy//src/dev/codec_pcm3060.h ****  *
  18:../../libDaisy//src/dev/codec_pcm3060.h ****  */
  19:../../libDaisy//src/dev/codec_pcm3060.h **** class Pcm3060
  20:../../libDaisy//src/dev/codec_pcm3060.h **** {
  21:../../libDaisy//src/dev/codec_pcm3060.h ****   public:
  22:../../libDaisy//src/dev/codec_pcm3060.h ****     enum class Result
  23:../../libDaisy//src/dev/codec_pcm3060.h ****     {
  24:../../libDaisy//src/dev/codec_pcm3060.h ****         OK,
  25:../../libDaisy//src/dev/codec_pcm3060.h ****         ERR,
  26:../../libDaisy//src/dev/codec_pcm3060.h ****     };
  27:../../libDaisy//src/dev/codec_pcm3060.h **** 
  28:../../libDaisy//src/dev/codec_pcm3060.h ****     Pcm3060() {}
 3266              		.loc 9 28 5 view .LVU850
 3267              	.LBB780:
 3268              	.LBB781:
 3269              	.LBI781:
 3270              		.loc 8 82 5 view .LVU851
 3271              	.LBB782:
 3272              	.LBB783:
 3273              		.loc 8 82 33 is_stmt 0 view .LVU852
 3274 0086 0194     		str	r4, [sp, #4]
 3275              	.LVL239:
 3276              		.loc 8 82 33 view .LVU853
 3277              	.LBE783:
 3278              	.LBE782:
 3279              	.LBE781:
 3280              	.LBE780:
 3281              	.LBE779:
 3282              		.loc 2 397 5 is_stmt 1 view .LVU854
 3283              		.loc 2 397 15 is_stmt 0 view .LVU855
 3284 0088 FFF7FEFF 		bl	_ZN5daisy7Pcm30604InitENS_9I2CHandleE
 3285              	.LVL240:
 398:Dubby.cpp     **** 
 399:Dubby.cpp     ****     sai_config[1].periph          = SaiHandle::Config::Peripheral::SAI_2;
 3286              		.loc 2 399 5 is_stmt 1 view .LVU856
 400:Dubby.cpp     ****     sai_config[1].sr              = SaiHandle::Config::SampleRate::SAI_48KHZ;
 3287              		.loc 2 400 5 view .LVU857
 401:Dubby.cpp     ****     sai_config[1].bit_depth       = SaiHandle::Config::BitDepth::SAI_24BIT;
 402:Dubby.cpp     ****     sai_config[1].a_sync          = SaiHandle::Config::Sync::SLAVE;
 403:Dubby.cpp     ****     sai_config[1].b_sync          = SaiHandle::Config::Sync::MASTER;
 404:Dubby.cpp     ****     sai_config[1].pin_config.fs   = {DSY_GPIOG, 9};
ARM GAS  /var/folders/1y/_321xjh9623c014x9_qw12rr0000gn/T//ccqHcGuP.s 			page 99


 3288              		.loc 2 404 35 is_stmt 0 view .LVU858
 3289 008c AB8B     		ldrh	r3, [r5, #28]
 405:Dubby.cpp     ****     sai_config[1].pin_config.mclk = {DSY_GPIOA, 1};
 406:Dubby.cpp     ****     sai_config[1].pin_config.sck  = {DSY_GPIOA, 2};
 407:Dubby.cpp     ****     sai_config[1].a_dir         = SaiHandle::Config::Direction::TRANSMIT;
 408:Dubby.cpp     ****     sai_config[1].pin_config.sa = {DSY_GPIOD, 11};
 409:Dubby.cpp     ****     sai_config[1].b_dir         = SaiHandle::Config::Direction::RECEIVE;
 410:Dubby.cpp     ****     sai_config[1].pin_config.sb = {DSY_GPIOA, 0};
 411:Dubby.cpp     **** 
 412:Dubby.cpp     ****     SaiHandle sai_handle[2];
 413:Dubby.cpp     ****     sai_handle[0].Init(sai_config[1]);
 3290              		.loc 2 413 23 view .LVU859
 3291 008e 18A9     		add	r1, sp, #96
 408:Dubby.cpp     ****     sai_config[1].b_dir         = SaiHandle::Config::Direction::RECEIVE;
 3292              		.loc 2 408 33 view .LVU860
 3293 0090 2A8C     		ldrh	r2, [r5, #32]
 3294              		.loc 2 413 23 view .LVU861
 3295 0092 03A8     		add	r0, sp, #12
 404:Dubby.cpp     ****     sai_config[1].pin_config.mclk = {DSY_GPIOA, 1};
 3296              		.loc 2 404 35 view .LVU862
 3297 0094 ADF86630 		strh	r3, [sp, #102]	@ movhi
 405:Dubby.cpp     ****     sai_config[1].pin_config.mclk = {DSY_GPIOA, 1};
 3298              		.loc 2 405 35 view .LVU863
 3299 0098 4FF48073 		mov	r3, #256
 408:Dubby.cpp     ****     sai_config[1].b_dir         = SaiHandle::Config::Direction::RECEIVE;
 3300              		.loc 2 408 33 view .LVU864
 3301 009c ADF86A20 		strh	r2, [sp, #106]	@ movhi
 405:Dubby.cpp     ****     sai_config[1].pin_config.mclk = {DSY_GPIOA, 1};
 3302              		.loc 2 405 35 view .LVU865
 3303 00a0 ADF86430 		strh	r3, [sp, #100]	@ movhi
 406:Dubby.cpp     ****     sai_config[1].a_dir         = SaiHandle::Config::Direction::TRANSMIT;
 3304              		.loc 2 406 35 view .LVU866
 3305 00a4 4FF40073 		mov	r3, #512
 410:Dubby.cpp     **** 
 3306              		.loc 2 410 33 view .LVU867
 3307 00a8 ADF86C40 		strh	r4, [sp, #108]	@ movhi
 406:Dubby.cpp     ****     sai_config[1].a_dir         = SaiHandle::Config::Direction::TRANSMIT;
 3308              		.loc 2 406 35 view .LVU868
 3309 00ac ADF86830 		strh	r3, [sp, #104]	@ movhi
 399:Dubby.cpp     ****     sai_config[1].sr              = SaiHandle::Config::SampleRate::SAI_48KHZ;
 3310              		.loc 2 399 35 view .LVU869
 3311 00b0 1896     		str	r6, [sp, #96]
 403:Dubby.cpp     ****     sai_config[1].pin_config.fs   = {DSY_GPIOG, 9};
 3312              		.loc 2 403 35 view .LVU870
 3313 00b2 CDE91E64 		strd	r6, r4, [sp, #120]
 407:Dubby.cpp     ****     sai_config[1].pin_config.sa = {DSY_GPIOD, 11};
 3314              		.loc 2 407 33 view .LVU871
 3315 00b6 CDE92046 		strd	r4, r6, [sp, #128]
 3316              	.LBB784:
 3317              	.LBB785:
 3318              	.LBB786:
 3319              		.file 10 "../../libDaisy//src/per/sai.h"
   1:../../libDaisy//src/per/sai.h **** #pragma once
   2:../../libDaisy//src/per/sai.h **** #ifndef DSY_SAI_H
   3:../../libDaisy//src/per/sai.h **** #define DSY_SAI_H
   4:../../libDaisy//src/per/sai.h **** 
   5:../../libDaisy//src/per/sai.h **** #include "daisy_core.h"
ARM GAS  /var/folders/1y/_321xjh9623c014x9_qw12rr0000gn/T//ccqHcGuP.s 			page 100


   6:../../libDaisy//src/per/sai.h **** 
   7:../../libDaisy//src/per/sai.h **** namespace daisy
   8:../../libDaisy//src/per/sai.h **** {
   9:../../libDaisy//src/per/sai.h **** /** 
  10:../../libDaisy//src/per/sai.h ****  * Support for I2S Audio Protocol with different bit-depth, samplerate options
  11:../../libDaisy//src/per/sai.h ****  * Allows for master or slave, as well as freedom of selecting direction, 
  12:../../libDaisy//src/per/sai.h ****  * and other behavior for each peripheral, and block.
  13:../../libDaisy//src/per/sai.h ****  * 
  14:../../libDaisy//src/per/sai.h ****  * DMA Transfer commands must use buffers located within non-cached memory or use cache maintenance
  15:../../libDaisy//src/per/sai.h ****  * To declare an unitialized global element in the DMA memory section:
  16:../../libDaisy//src/per/sai.h ****  *    int32_t DSY_DMA_BUFFER_SECTOR my_buffer[96];
  17:../../libDaisy//src/per/sai.h ****  *
  18:../../libDaisy//src/per/sai.h ****  * Callback functions will be called once per half of the buffer. In the above example, 
  19:../../libDaisy//src/per/sai.h ****  * the callback function would be called once for every 48 samples.
  20:../../libDaisy//src/per/sai.h ****  * 
  21:../../libDaisy//src/per/sai.h ****  * Use SAI Handle like this:
  22:../../libDaisy//src/per/sai.h ****  * 
  23:../../libDaisy//src/per/sai.h ****  *  SaiHandle::Config sai_config;
  24:../../libDaisy//src/per/sai.h ****  *  sai_config.periph          = SaiHandle::Config::Peripheral::SAI_1;
  25:../../libDaisy//src/per/sai.h ****  *  sai_config.sr              = SaiHandle::Config::SampleRate::SAI_48KHZ;
  26:../../libDaisy//src/per/sai.h ****  *  sai_config.bit_depth       = SaiHandle::Config::BitDepth::SAI_24BIT;
  27:../../libDaisy//src/per/sai.h ****  *  sai_config.a_sync          = SaiHandle::Config::Sync::MASTER;
  28:../../libDaisy//src/per/sai.h ****  *  sai_config.b_sync          = SaiHandle::Config::Sync::SLAVE;
  29:../../libDaisy//src/per/sai.h ****  *  sai_config.a_dir           = SaiHandle::Config::Direction::RECEIVE;
  30:../../libDaisy//src/per/sai.h ****  *  sai_config.b_dir           = SaiHandle::Config::Direction::TRANSMIT;
  31:../../libDaisy//src/per/sai.h ****  *  sai_config.pin_config.fs   = {DSY_GPIOE, 4};
  32:../../libDaisy//src/per/sai.h ****  *  sai_config.pin_config.mclk = {DSY_GPIOE, 2};
  33:../../libDaisy//src/per/sai.h ****  *  sai_config.pin_config.sck  = {DSY_GPIOE, 5};
  34:../../libDaisy//src/per/sai.h ****  *  sai_config.pin_config.sa   = {DSY_GPIOE, 6};
  35:../../libDaisy//src/per/sai.h ****  *  sai_config.pin_config.sb   = {DSY_GPIOE, 3};
  36:../../libDaisy//src/per/sai.h ****  *  // Then Initialize
  37:../../libDaisy//src/per/sai.h ****  *  SaiHandle sai;
  38:../../libDaisy//src/per/sai.h ****  *  sai.Init(sai_config);
  39:../../libDaisy//src/per/sai.h ****  *  // Now you can use it:
  40:../../libDaisy//src/per/sai.h ****  *  sai.StartDma(. . .);
  41:../../libDaisy//src/per/sai.h ****  */
  42:../../libDaisy//src/per/sai.h **** class SaiHandle
  43:../../libDaisy//src/per/sai.h **** {
  44:../../libDaisy//src/per/sai.h ****   public:
  45:../../libDaisy//src/per/sai.h ****     /** Contains settings for initialising an SAI Interface */
  46:../../libDaisy//src/per/sai.h ****     struct Config
  47:../../libDaisy//src/per/sai.h ****     {
  48:../../libDaisy//src/per/sai.h ****         /** Specifies the internal peripheral to use (mapped to different hardware pins) */
  49:../../libDaisy//src/per/sai.h ****         enum class Peripheral
  50:../../libDaisy//src/per/sai.h ****         {
  51:../../libDaisy//src/per/sai.h ****             SAI_1,
  52:../../libDaisy//src/per/sai.h ****             SAI_2,
  53:../../libDaisy//src/per/sai.h ****         };
  54:../../libDaisy//src/per/sai.h **** 
  55:../../libDaisy//src/per/sai.h ****         /** Rate at which samples will be streaming to/from the device. */
  56:../../libDaisy//src/per/sai.h ****         enum class SampleRate
  57:../../libDaisy//src/per/sai.h ****         {
  58:../../libDaisy//src/per/sai.h ****             SAI_8KHZ,
  59:../../libDaisy//src/per/sai.h ****             SAI_16KHZ,
  60:../../libDaisy//src/per/sai.h ****             SAI_32KHZ,
  61:../../libDaisy//src/per/sai.h ****             SAI_48KHZ,
  62:../../libDaisy//src/per/sai.h ****             SAI_96KHZ,
ARM GAS  /var/folders/1y/_321xjh9623c014x9_qw12rr0000gn/T//ccqHcGuP.s 			page 101


  63:../../libDaisy//src/per/sai.h ****         };
  64:../../libDaisy//src/per/sai.h **** 
  65:../../libDaisy//src/per/sai.h ****         /** Bit Depth that the hardware expects to be transferred to/from the device. */
  66:../../libDaisy//src/per/sai.h ****         enum class BitDepth
  67:../../libDaisy//src/per/sai.h ****         {
  68:../../libDaisy//src/per/sai.h ****             SAI_16BIT,
  69:../../libDaisy//src/per/sai.h ****             SAI_24BIT,
  70:../../libDaisy//src/per/sai.h ****             SAI_32BIT,
  71:../../libDaisy//src/per/sai.h ****         };
  72:../../libDaisy//src/per/sai.h **** 
  73:../../libDaisy//src/per/sai.h ****         /** Specifies whether a particular block is the master or the slave 
  74:../../libDaisy//src/per/sai.h ****          ** If both are set to slave, no MCLK signal will be used, and it is
  75:../../libDaisy//src/per/sai.h ****          ** expected that the codec will have its own xtal.
  76:../../libDaisy//src/per/sai.h ****          */
  77:../../libDaisy//src/per/sai.h ****         enum class Sync
  78:../../libDaisy//src/per/sai.h ****         {
  79:../../libDaisy//src/per/sai.h ****             MASTER,
  80:../../libDaisy//src/per/sai.h ****             SLAVE,
  81:../../libDaisy//src/per/sai.h ****         };
  82:../../libDaisy//src/per/sai.h **** 
  83:../../libDaisy//src/per/sai.h ****         /** Specifies the direction for each peripheral block. */
  84:../../libDaisy//src/per/sai.h ****         enum class Direction
  85:../../libDaisy//src/per/sai.h ****         {
  86:../../libDaisy//src/per/sai.h ****             TRANSMIT,
  87:../../libDaisy//src/per/sai.h ****             RECEIVE,
  88:../../libDaisy//src/per/sai.h ****         };
  89:../../libDaisy//src/per/sai.h **** 
  90:../../libDaisy//src/per/sai.h ****         Peripheral periph;
  91:../../libDaisy//src/per/sai.h ****         struct
  92:../../libDaisy//src/per/sai.h ****         {
  93:../../libDaisy//src/per/sai.h ****             dsy_gpio_pin mclk, fs, sck, sa, sb;
  94:../../libDaisy//src/per/sai.h ****         } pin_config;
  95:../../libDaisy//src/per/sai.h ****         SampleRate sr;
  96:../../libDaisy//src/per/sai.h ****         BitDepth   bit_depth;
  97:../../libDaisy//src/per/sai.h ****         Sync       a_sync, b_sync;
  98:../../libDaisy//src/per/sai.h ****         Direction  a_dir, b_dir;
  99:../../libDaisy//src/per/sai.h ****     };
 100:../../libDaisy//src/per/sai.h **** 
 101:../../libDaisy//src/per/sai.h ****     /** Return values for SAI functions */
 102:../../libDaisy//src/per/sai.h ****     enum class Result
 103:../../libDaisy//src/per/sai.h ****     {
 104:../../libDaisy//src/per/sai.h ****         OK,
 105:../../libDaisy//src/per/sai.h ****         ERR,
 106:../../libDaisy//src/per/sai.h ****     };
 107:../../libDaisy//src/per/sai.h **** 
 108:../../libDaisy//src/per/sai.h ****     SaiHandle() : pimpl_(nullptr) {}
 3320              		.loc 10 108 33 view .LVU872
 3321 00ba CDE90344 		strd	r4, r4, [sp, #12]
 3322              	.LBE786:
 3323              	.LBE785:
 3324              	.LBE784:
 401:Dubby.cpp     ****     sai_config[1].a_sync          = SaiHandle::Config::Sync::SLAVE;
 3325              		.loc 2 401 35 view .LVU873
 3326 00be CDE91C86 		strd	r8, r6, [sp, #112]
 402:Dubby.cpp     ****     sai_config[1].b_sync          = SaiHandle::Config::Sync::MASTER;
 3327              		.loc 2 402 5 is_stmt 1 view .LVU874
 404:Dubby.cpp     ****     sai_config[1].pin_config.mclk = {DSY_GPIOA, 1};
ARM GAS  /var/folders/1y/_321xjh9623c014x9_qw12rr0000gn/T//ccqHcGuP.s 			page 102


 3328              		.loc 2 404 5 view .LVU875
 405:Dubby.cpp     ****     sai_config[1].pin_config.sck  = {DSY_GPIOA, 2};
 3329              		.loc 2 405 5 view .LVU876
 406:Dubby.cpp     ****     sai_config[1].a_dir         = SaiHandle::Config::Direction::TRANSMIT;
 3330              		.loc 2 406 5 view .LVU877
 407:Dubby.cpp     ****     sai_config[1].pin_config.sa = {DSY_GPIOD, 11};
 3331              		.loc 2 407 5 view .LVU878
 408:Dubby.cpp     ****     sai_config[1].b_dir         = SaiHandle::Config::Direction::RECEIVE;
 3332              		.loc 2 408 5 view .LVU879
 409:Dubby.cpp     ****     sai_config[1].pin_config.sb = {DSY_GPIOA, 0};
 3333              		.loc 2 409 5 view .LVU880
 410:Dubby.cpp     **** 
 3334              		.loc 2 410 5 view .LVU881
 412:Dubby.cpp     ****     sai_handle[0].Init(sai_config[1]);
 3335              		.loc 2 412 5 view .LVU882
 412:Dubby.cpp     ****     sai_handle[0].Init(sai_config[1]);
 3336              		.loc 2 412 27 view .LVU883
 3337              	.LVL241:
 3338              	.LBB787:
 3339              	.LBI784:
 3340              		.loc 10 108 5 view .LVU884
 3341              		.loc 10 108 5 is_stmt 0 view .LVU885
 3342              	.LBE787:
 412:Dubby.cpp     ****     sai_handle[0].Init(sai_config[1]);
 3343              		.loc 2 412 27 is_stmt 1 view .LVU886
 412:Dubby.cpp     ****     sai_handle[0].Init(sai_config[1]);
 3344              		.loc 2 412 27 view .LVU887
 3345              	.LBB788:
 3346              		.loc 10 108 5 view .LVU888
 3347              		.loc 10 108 5 is_stmt 0 view .LVU889
 3348              	.LBE788:
 412:Dubby.cpp     ****     sai_handle[0].Init(sai_config[1]);
 3349              		.loc 2 412 27 is_stmt 1 view .LVU890
 412:Dubby.cpp     ****     sai_handle[0].Init(sai_config[1]);
 3350              		.loc 2 412 27 view .LVU891
 3351              		.loc 2 413 5 view .LVU892
 3352              		.loc 2 413 23 is_stmt 0 view .LVU893
 3353 00c2 FFF7FEFF 		bl	_ZN5daisy9SaiHandle4InitERKNS0_6ConfigE
 3354              	.LVL242:
 414:Dubby.cpp     ****     sai_handle[1].Init(sai_config[0]);
 3355              		.loc 2 414 5 is_stmt 1 view .LVU894
 3356              		.loc 2 414 23 is_stmt 0 view .LVU895
 3357 00c6 0EA9     		add	r1, sp, #56
 3358 00c8 04A8     		add	r0, sp, #16
 415:Dubby.cpp     **** 
 416:Dubby.cpp     ****     // Reinit Audio for _both_ codecs...
 417:Dubby.cpp     ****     AudioHandle::Config cfg;
 418:Dubby.cpp     ****     cfg.blocksize  = 48;
 419:Dubby.cpp     ****     cfg.samplerate = SaiHandle::Config::SampleRate::SAI_48KHZ;
 420:Dubby.cpp     ****     cfg.postgain   = 0.5f;
 3359              		.loc 2 420 20 view .LVU896
 3360 00ca 4FF07C54 		mov	r4, #1056964608
 414:Dubby.cpp     ****     sai_handle[1].Init(sai_config[0]);
 3361              		.loc 2 414 23 view .LVU897
 3362 00ce FFF7FEFF 		bl	_ZN5daisy9SaiHandle4InitERKNS0_6ConfigE
 3363              	.LVL243:
 417:Dubby.cpp     ****     cfg.blocksize  = 48;
ARM GAS  /var/folders/1y/_321xjh9623c014x9_qw12rr0000gn/T//ccqHcGuP.s 			page 103


 3364              		.loc 2 417 5 is_stmt 1 view .LVU898
 3365              	.LBB789:
 3366              	.LBI789:
 3367              		.file 11 "../../libDaisy//src/hid/audio.h"
   1:../../libDaisy//src/hid/audio.h **** #ifndef DSY_AUDIO_H
   2:../../libDaisy//src/hid/audio.h **** #define DSY_AUDIO_H /**< & */
   3:../../libDaisy//src/hid/audio.h **** 
   4:../../libDaisy//src/hid/audio.h **** #include "per/sai.h"
   5:../../libDaisy//src/hid/audio.h **** 
   6:../../libDaisy//src/hid/audio.h **** namespace daisy
   7:../../libDaisy//src/hid/audio.h **** {
   8:../../libDaisy//src/hid/audio.h **** /** @brief Audio Engine Handle
   9:../../libDaisy//src/hid/audio.h ****  *  @ingroup audio 
  10:../../libDaisy//src/hid/audio.h ****  *  @details This class allows for higher level access to an audio engine.
  11:../../libDaisy//src/hid/audio.h ****  *           If you're using a SOM like the DaisySeed or DaisyPatchSM (or any 
  12:../../libDaisy//src/hid/audio.h ****  *            board that includes one of those objects) then the intialization
  13:../../libDaisy//src/hid/audio.h ****  *            is already taken  care of.
  14:../../libDaisy//src/hid/audio.h ****  *           If you're setting up your own custom hardware, or need to make changes
  15:../../libDaisy//src/hid/audio.h ****  *           you will have to take the following steps:
  16:../../libDaisy//src/hid/audio.h ****  *             1. Create and Initialize an SaiHandle or two depending on your requirements
  17:../../libDaisy//src/hid/audio.h ****  *             2. Initialize the Audio Handle with the desired settings and the Initialized SaiHand
  18:../../libDaisy//src/hid/audio.h ****  *             3. If the connected codec requires special configuration or initialization, do so
  19:../../libDaisy//src/hid/audio.h ****  *             4. Write a callback method using either the AudioCallback or the InterleavingAudioCa
  20:../../libDaisy//src/hid/audio.h ****  *             5. Start the Audio using one of the StartAudio function
  21:../../libDaisy//src/hid/audio.h ****  */
  22:../../libDaisy//src/hid/audio.h **** class AudioHandle
  23:../../libDaisy//src/hid/audio.h **** {
  24:../../libDaisy//src/hid/audio.h ****   public:
  25:../../libDaisy//src/hid/audio.h ****     /** Manually configurable details about the Audio Engine */
  26:../../libDaisy//src/hid/audio.h ****     /** TODO: Figure out how to get samplerate in here. */
  27:../../libDaisy//src/hid/audio.h ****     struct Config
  28:../../libDaisy//src/hid/audio.h ****     {
  29:../../libDaisy//src/hid/audio.h ****         /** number of samples to process per callback */
  30:../../libDaisy//src/hid/audio.h ****         size_t blocksize;
  31:../../libDaisy//src/hid/audio.h **** 
  32:../../libDaisy//src/hid/audio.h ****         /**< Sample rate of audio */
  33:../../libDaisy//src/hid/audio.h ****         SaiHandle::Config::SampleRate samplerate;
  34:../../libDaisy//src/hid/audio.h **** 
  35:../../libDaisy//src/hid/audio.h ****         /** factor for adjustment before and after callback for hardware that may have extra headro
  36:../../libDaisy//src/hid/audio.h ****         float postgain;
  37:../../libDaisy//src/hid/audio.h **** 
  38:../../libDaisy//src/hid/audio.h ****         /** factor for additional one-sided compensation to audio path for hardware that may
  39:../../libDaisy//src/hid/audio.h ****          *  have unequal input/output ranges
  40:../../libDaisy//src/hid/audio.h ****          */
  41:../../libDaisy//src/hid/audio.h ****         float output_compensation;
  42:../../libDaisy//src/hid/audio.h **** 
  43:../../libDaisy//src/hid/audio.h ****         /** Sets default values for config struct */
  44:../../libDaisy//src/hid/audio.h ****         Config()
 3368              		.loc 11 44 9 view .LVU899
 3369              	.LBB790:
 3370              	.LBB791:
  45:../../libDaisy//src/hid/audio.h ****         : blocksize(48),
  46:../../libDaisy//src/hid/audio.h ****           samplerate(SaiHandle::Config::SampleRate::SAI_48KHZ),
  47:../../libDaisy//src/hid/audio.h ****           postgain(1.f),
  48:../../libDaisy//src/hid/audio.h ****           output_compensation(1.f)
 3371              		.loc 11 48 34 is_stmt 0 view .LVU900
 3372 00d2 3021     		movs	r1, #48
ARM GAS  /var/folders/1y/_321xjh9623c014x9_qw12rr0000gn/T//ccqHcGuP.s 			page 104


 3373 00d4 4FF07E52 		mov	r2, #1065353216
 3374              	.LBE791:
 3375              	.LBE790:
 3376              	.LBE789:
 421:Dubby.cpp     ****     seed.audio_handle.Init(cfg, sai_handle[0], sai_handle[1]);
 3377              		.loc 2 421 27 view .LVU901
 3378 00d8 049B     		ldr	r3, [sp, #16]
 3379 00da 7818     		adds	r0, r7, r1
 3380              	.LBB796:
 3381              	.LBB794:
 3382              	.LBB792:
 3383              		.loc 11 48 34 view .LVU902
 3384 00dc 0591     		str	r1, [sp, #20]
 3385 00de 0892     		str	r2, [sp, #32]	@ float
 3386              	.LVL244:
 3387              		.loc 11 48 34 view .LVU903
 3388              	.LBE792:
 3389              	.LBE794:
 3390              	.LBE796:
 418:Dubby.cpp     ****     cfg.samplerate = SaiHandle::Config::SampleRate::SAI_48KHZ;
 3391              		.loc 2 418 5 is_stmt 1 view .LVU904
 419:Dubby.cpp     ****     cfg.postgain   = 0.5f;
 3392              		.loc 2 419 5 view .LVU905
 420:Dubby.cpp     ****     seed.audio_handle.Init(cfg, sai_handle[0], sai_handle[1]);
 3393              		.loc 2 420 5 view .LVU906
 3394              		.loc 2 421 27 is_stmt 0 view .LVU907
 3395 00e0 05A9     		add	r1, sp, #20
 3396 00e2 039A     		ldr	r2, [sp, #12]
 3397              	.LBB797:
 3398              	.LBB795:
 3399              	.LBB793:
 3400              		.loc 11 48 34 view .LVU908
 3401 00e4 CDF81880 		str	r8, [sp, #24]
 3402              	.LBE793:
 3403              	.LBE795:
 3404              	.LBE797:
 420:Dubby.cpp     ****     seed.audio_handle.Init(cfg, sai_handle[0], sai_handle[1]);
 3405              		.loc 2 420 20 view .LVU909
 3406 00e8 0794     		str	r4, [sp, #28]	@ float
 3407              		.loc 2 421 5 is_stmt 1 view .LVU910
 3408              		.loc 2 421 27 is_stmt 0 view .LVU911
 3409 00ea FFF7FEFF 		bl	_ZN5daisy11AudioHandle4InitERKNS0_6ConfigENS_9SaiHandleES4_
 3410              	.LVL245:
 3411              	.LBB798:
 3412              	.LBI798:
  29:../../libDaisy//src/dev/codec_pcm3060.h ****     ~Pcm3060() {}
 3413              		.loc 9 29 5 is_stmt 1 view .LVU912
 3414              		.loc 9 29 5 is_stmt 0 view .LVU913
 3415              	.LBE798:
 422:Dubby.cpp     **** }
 3416              		.loc 2 422 1 view .LVU914
 3417 00ee 22B0     		add	sp, sp, #136
 3418              		.cfi_remember_state
 3419              		.cfi_def_cfa_offset 24
 3420              		@ sp needed
 3421 00f0 BDE8F081 		pop	{r4, r5, r6, r7, r8, pc}
 3422              	.LVL246:
ARM GAS  /var/folders/1y/_321xjh9623c014x9_qw12rr0000gn/T//ccqHcGuP.s 			page 105


 3423              	.L210:
 3424              		.cfi_restore_state
 358:Dubby.cpp     ****         sai_config[0].pin_config.sb = {DSY_GPIOE, 3};
 3425              		.loc 2 358 9 is_stmt 1 view .LVU915
 358:Dubby.cpp     ****         sai_config[0].pin_config.sb = {DSY_GPIOE, 3};
 3426              		.loc 2 358 37 is_stmt 0 view .LVU916
 3427 00f4 2A88     		ldrh	r2, [r5]
 359:Dubby.cpp     ****         sai_config[0].a_dir         = SaiHandle::Config::Direction::RECEIVE;
 3428              		.loc 2 359 37 view .LVU917
 3429 00f6 AB88     		ldrh	r3, [r5, #4]
 360:Dubby.cpp     ****         sai_config[0].b_dir         = SaiHandle::Config::Direction::TRANSMIT;
 3430              		.loc 2 360 37 view .LVU918
 3431 00f8 1690     		str	r0, [sp, #88]
 361:Dubby.cpp     ****     }
 3432              		.loc 2 361 37 view .LVU919
 3433 00fa 1791     		str	r1, [sp, #92]
 358:Dubby.cpp     ****         sai_config[0].pin_config.sb = {DSY_GPIOE, 3};
 3434              		.loc 2 358 37 view .LVU920
 3435 00fc ADF84220 		strh	r2, [sp, #66]	@ movhi
 359:Dubby.cpp     ****         sai_config[0].a_dir         = SaiHandle::Config::Direction::RECEIVE;
 3436              		.loc 2 359 9 is_stmt 1 view .LVU921
 359:Dubby.cpp     ****         sai_config[0].a_dir         = SaiHandle::Config::Direction::RECEIVE;
 3437              		.loc 2 359 37 is_stmt 0 view .LVU922
 3438 0100 ADF84430 		strh	r3, [sp, #68]	@ movhi
 360:Dubby.cpp     ****         sai_config[0].b_dir         = SaiHandle::Config::Direction::TRANSMIT;
 3439              		.loc 2 360 9 is_stmt 1 view .LVU923
 361:Dubby.cpp     ****     }
 3440              		.loc 2 361 9 view .LVU924
 3441 0104 91E7     		b	.L208
 3442              	.L212:
 3443 0106 00BF     		.align	2
 3444              	.L211:
 3445 0108 00000000 		.word	.LANCHOR1
 3446 010c 00040258 		.word	1476527104
 3447              		.cfi_endproc
 3448              	.LFE2596:
 3450              		.section	.rodata._ZN5daisy5Dubby14GetTextForEnumENS0_9MenuTypesEi.str1.4,"aMS",%progbits,1
 3451              		.align	2
 3452              	.LC14:
 3453 0000 00       		.ascii	"\000"
 3454              		.section	.text._ZN5daisy5Dubby14GetTextForEnumENS0_9MenuTypesEi,"ax",%progbits
 3455              		.align	1
 3456              		.p2align 2,,3
 3457              		.global	_ZN5daisy5Dubby14GetTextForEnumENS0_9MenuTypesEi
 3458              		.syntax unified
 3459              		.thumb
 3460              		.thumb_func
 3462              	_ZN5daisy5Dubby14GetTextForEnumENS0_9MenuTypesEi:
 3463              	.LVL247:
 3464              	.LFB2597:
 423:Dubby.cpp     **** 
 424:Dubby.cpp     **** const char * Dubby::GetTextForEnum(MenuTypes m, int enumVal)
 425:Dubby.cpp     **** {
 3465              		.loc 2 425 1 view -0
 3466              		.cfi_startproc
 3467              		@ args = 0, pretend = 0, frame = 0
 3468              		@ frame_needed = 0, uses_anonymous_args = 0
ARM GAS  /var/folders/1y/_321xjh9623c014x9_qw12rr0000gn/T//ccqHcGuP.s 			page 106


 3469              		@ link register save eliminated.
 426:Dubby.cpp     ****     switch (m)
 3470              		.loc 2 426 5 view .LVU926
 3471 0000 39B1     		cbz	r1, .L214
 3472 0002 0129     		cmp	r1, #1
 3473 0004 03D1     		bne	.L217
 427:Dubby.cpp     ****     {
 428:Dubby.cpp     ****         case MAINMENU:
 429:Dubby.cpp     ****             return MenuItemsStrings[enumVal];
 430:Dubby.cpp     ****             break;
 3474              		.loc 2 430 13 view .LVU927
 431:Dubby.cpp     ****         case PREFERENCESMENU:
 3475              		.loc 2 431 9 view .LVU928
 432:Dubby.cpp     ****             return PreferencesMenuItemsStrings[enumVal];
 3476              		.loc 2 432 13 view .LVU929
 3477              		.loc 2 432 55 is_stmt 0 view .LVU930
 3478 0006 00EB8200 		add	r0, r0, r2, lsl #2
 3479              	.LVL248:
 3480              		.loc 2 432 55 view .LVU931
 3481 000a C068     		ldr	r0, [r0, #12]
 433:Dubby.cpp     ****             break;
 434:Dubby.cpp     ****         default:
 435:Dubby.cpp     ****             return "";
 436:Dubby.cpp     ****             break;
 437:Dubby.cpp     ****     }
 438:Dubby.cpp     **** }...
 3482              		.loc 2 438 1 view .LVU932
 3483 000c 7047     		bx	lr
 3484              	.LVL249:
 3485              	.L217:
 426:Dubby.cpp     ****     switch (m)
 3486              		.loc 2 426 5 view .LVU933
 3487 000e 0248     		ldr	r0, .L218
 3488              	.LVL250:
 426:Dubby.cpp     ****     switch (m)
 3489              		.loc 2 426 5 view .LVU934
 3490 0010 7047     		bx	lr
 3491              	.LVL251:
 3492              	.L214:
 428:Dubby.cpp     ****         case MAINMENU:
 3493              		.loc 2 428 9 is_stmt 1 view .LVU935
 429:Dubby.cpp     ****             return MenuItemsStrings[enumVal];
 3494              		.loc 2 429 13 view .LVU936
 429:Dubby.cpp     ****             return MenuItemsStrings[enumVal];
 3495              		.loc 2 429 44 is_stmt 0 view .LVU937
 3496 0012 50F82200 		ldr	r0, [r0, r2, lsl #2]
 3497              	.LVL252:
 429:Dubby.cpp     ****             return MenuItemsStrings[enumVal];
 3498              		.loc 2 429 44 view .LVU938
 3499 0016 7047     		bx	lr
 3500              	.L219:
 3501              		.align	2
 3502              	.L218:
 3503 0018 00000000 		.word	.LC14
 3504              		.cfi_endproc
 3505              	.LFE2597:
 3507              		.section	.text._ZN5daisy25OneBitGraphicsDisplayImplINS_11OledDisplayINS_13SSD130xDriverILj128ELj64
ARM GAS  /var/folders/1y/_321xjh9623c014x9_qw12rr0000gn/T//ccqHcGuP.s 			page 107


 3508              		.align	1
 3509              		.p2align 2,,3
 3510              		.weak	_ZN5daisy25OneBitGraphicsDisplayImplINS_11OledDisplayINS_13SSD130xDriverILj128ELj64ENS_24SSD
 3511              		.syntax unified
 3512              		.thumb
 3513              		.thumb_func
 3515              	_ZN5daisy25OneBitGraphicsDisplayImplINS_11OledDisplayINS_13SSD130xDriverILj128ELj64ENS_24SSD130x4Wi
 3516              	.LVL253:
 3517              	.LFB2625:
 269:../../libDaisy//src/hid/disp/display.h ****                 {
 270:../../libDaisy//src/hid/disp/display.h ****                     ((ChildType*)(this))->ChildType::DrawPixel(x, y, on);
 271:../../libDaisy//src/hid/disp/display.h ****                 }
 272:../../libDaisy//src/hid/disp/display.h ****             }
 273:../../libDaisy//src/hid/disp/display.h ****         }
 274:../../libDaisy//src/hid/disp/display.h ****         else
 275:../../libDaisy//src/hid/disp/display.h ****         {
 276:../../libDaisy//src/hid/disp/display.h ****             ((ChildType*)(this))->ChildType::DrawLine(x1, y1, x2, y1, on);
 277:../../libDaisy//src/hid/disp/display.h ****             ((ChildType*)(this))->ChildType::DrawLine(x2, y1, x2, y2, on);
 278:../../libDaisy//src/hid/disp/display.h ****             ((ChildType*)(this))->ChildType::DrawLine(x2, y2, x1, y2, on);
 279:../../libDaisy//src/hid/disp/display.h ****             ((ChildType*)(this))->ChildType::DrawLine(x1, y2, x1, y1, on);
 280:../../libDaisy//src/hid/disp/display.h ****         }
 281:../../libDaisy//src/hid/disp/display.h ****     }
 282:../../libDaisy//src/hid/disp/display.h **** 
 283:../../libDaisy//src/hid/disp/display.h ****     void DrawArc(uint_fast8_t x,
 284:../../libDaisy//src/hid/disp/display.h ****                  uint_fast8_t y,
 285:../../libDaisy//src/hid/disp/display.h ****                  uint_fast8_t radius,
 286:../../libDaisy//src/hid/disp/display.h ****                  int_fast16_t start_angle,
 287:../../libDaisy//src/hid/disp/display.h ****                  int_fast16_t sweep,
 288:../../libDaisy//src/hid/disp/display.h ****                  bool         on) override
 289:../../libDaisy//src/hid/disp/display.h ****     {
 290:../../libDaisy//src/hid/disp/display.h ****         // Values to calculate the circle
 291:../../libDaisy//src/hid/disp/display.h ****         int_fast16_t t_x, t_y, err, e2;
 292:../../libDaisy//src/hid/disp/display.h **** 
 293:../../libDaisy//src/hid/disp/display.h ****         // Temporary values to speed up comparisons
 294:../../libDaisy//src/hid/disp/display.h ****         float t_sxy, t_syx, t_sxny, t_synx;
 295:../../libDaisy//src/hid/disp/display.h ****         float t_exy, t_eyx, t_exny, t_eynx;
 296:../../libDaisy//src/hid/disp/display.h **** 
 297:../../libDaisy//src/hid/disp/display.h ****         float start_angle_rad, end_angle_rad;
 298:../../libDaisy//src/hid/disp/display.h ****         float start_x, start_y, end_x, end_y;
 299:../../libDaisy//src/hid/disp/display.h **** 
 300:../../libDaisy//src/hid/disp/display.h ****         bool d1, d2, d3, d4;
 301:../../libDaisy//src/hid/disp/display.h **** 
 302:../../libDaisy//src/hid/disp/display.h ****         d1 = d2 = d3 = d4 = true;
 303:../../libDaisy//src/hid/disp/display.h **** 
 304:../../libDaisy//src/hid/disp/display.h ****         bool circle = false;
 305:../../libDaisy//src/hid/disp/display.h **** 
 306:../../libDaisy//src/hid/disp/display.h ****         if(sweep < 0)
 307:../../libDaisy//src/hid/disp/display.h ****         {
 308:../../libDaisy//src/hid/disp/display.h ****             start_angle += sweep;
 309:../../libDaisy//src/hid/disp/display.h ****             sweep = -sweep;
 310:../../libDaisy//src/hid/disp/display.h ****         }
 311:../../libDaisy//src/hid/disp/display.h **** 
 312:../../libDaisy//src/hid/disp/display.h ****         start_angle_rad = deg2rad(start_angle);
 313:../../libDaisy//src/hid/disp/display.h ****         end_angle_rad   = deg2rad(start_angle + sweep);
 314:../../libDaisy//src/hid/disp/display.h **** 
 315:../../libDaisy//src/hid/disp/display.h ****         start_x = cos(start_angle_rad) * radius;
 316:../../libDaisy//src/hid/disp/display.h ****         start_y = -sin(start_angle_rad) * radius;
ARM GAS  /var/folders/1y/_321xjh9623c014x9_qw12rr0000gn/T//ccqHcGuP.s 			page 108


 317:../../libDaisy//src/hid/disp/display.h ****         end_x   = cos(end_angle_rad) * radius;
 318:../../libDaisy//src/hid/disp/display.h ****         end_y   = -sin(end_angle_rad) * radius;
 319:../../libDaisy//src/hid/disp/display.h **** 
 320:../../libDaisy//src/hid/disp/display.h ****         // Check if start and endpoint are very near
 321:../../libDaisy//src/hid/disp/display.h ****         if((end_x - start_x) * (end_x - start_x)
 322:../../libDaisy//src/hid/disp/display.h ****                + (end_y - start_y) * (end_y - start_y)
 323:../../libDaisy//src/hid/disp/display.h ****            < 2.0f)
 324:../../libDaisy//src/hid/disp/display.h ****         {
 325:../../libDaisy//src/hid/disp/display.h ****             if(sweep > 180)
 326:../../libDaisy//src/hid/disp/display.h ****                 circle = true;
 327:../../libDaisy//src/hid/disp/display.h ****             else
 328:../../libDaisy//src/hid/disp/display.h ****                 // Nothing to draw
 329:../../libDaisy//src/hid/disp/display.h ****                 return;
 330:../../libDaisy//src/hid/disp/display.h ****         }
 331:../../libDaisy//src/hid/disp/display.h **** 
 332:../../libDaisy//src/hid/disp/display.h ****         t_x = -radius;
 333:../../libDaisy//src/hid/disp/display.h ****         t_y = 0;
 334:../../libDaisy//src/hid/disp/display.h ****         err = 2 - 2 * radius;
 335:../../libDaisy//src/hid/disp/display.h **** 
 336:../../libDaisy//src/hid/disp/display.h ****         do
 337:../../libDaisy//src/hid/disp/display.h ****         {
 338:../../libDaisy//src/hid/disp/display.h ****             if(!circle)
 339:../../libDaisy//src/hid/disp/display.h ****             {
 340:../../libDaisy//src/hid/disp/display.h ****                 t_sxy  = start_x * t_y;
 341:../../libDaisy//src/hid/disp/display.h ****                 t_syx  = start_y * t_x;
 342:../../libDaisy//src/hid/disp/display.h ****                 t_sxny = start_x * -t_y;
 343:../../libDaisy//src/hid/disp/display.h ****                 t_synx = start_y * -t_x;
 344:../../libDaisy//src/hid/disp/display.h ****                 t_exy  = end_x * t_y;
 345:../../libDaisy//src/hid/disp/display.h ****                 t_eyx  = end_y * t_x;
 346:../../libDaisy//src/hid/disp/display.h ****                 t_exny = end_x * -t_y;
 347:../../libDaisy//src/hid/disp/display.h ****                 t_eynx = end_y * -t_x;
 348:../../libDaisy//src/hid/disp/display.h **** 
 349:../../libDaisy//src/hid/disp/display.h ****                 if(sweep > 180)
 350:../../libDaisy//src/hid/disp/display.h ****                 {
 351:../../libDaisy//src/hid/disp/display.h ****                     d1 = (t_sxy - t_synx < 0 || t_exy - t_eynx > 0);
 352:../../libDaisy//src/hid/disp/display.h ****                     d2 = (t_sxy - t_syx < 0 || t_exy - t_eyx > 0);
 353:../../libDaisy//src/hid/disp/display.h ****                     d3 = (t_sxny - t_syx < 0 || t_exny - t_eyx > 0);
 354:../../libDaisy//src/hid/disp/display.h ****                     d4 = (t_sxny - t_synx < 0 || t_exny - t_eynx > 0);
 355:../../libDaisy//src/hid/disp/display.h ****                 }
 356:../../libDaisy//src/hid/disp/display.h ****                 else
 357:../../libDaisy//src/hid/disp/display.h ****                 {
 358:../../libDaisy//src/hid/disp/display.h ****                     d1 = (t_sxy - t_synx < 0 && t_exy - t_eynx > 0);
 359:../../libDaisy//src/hid/disp/display.h ****                     d2 = (t_sxy - t_syx < 0 && t_exy - t_eyx > 0);
 360:../../libDaisy//src/hid/disp/display.h ****                     d3 = (t_sxny - t_syx < 0 && t_exny - t_eyx > 0);
 361:../../libDaisy//src/hid/disp/display.h ****                     d4 = (t_sxny - t_synx < 0 && t_exny - t_eynx > 0);
 362:../../libDaisy//src/hid/disp/display.h ****                 }
 363:../../libDaisy//src/hid/disp/display.h ****             }
 364:../../libDaisy//src/hid/disp/display.h **** 
 365:../../libDaisy//src/hid/disp/display.h ****             if(d1)
 366:../../libDaisy//src/hid/disp/display.h ****                 ((ChildType*)(this))
 367:../../libDaisy//src/hid/disp/display.h ****                     ->ChildType::DrawPixel(x - t_x, y + t_y, on);
 368:../../libDaisy//src/hid/disp/display.h ****             if(d2)
 369:../../libDaisy//src/hid/disp/display.h ****                 ((ChildType*)(this))
 370:../../libDaisy//src/hid/disp/display.h ****                     ->ChildType::DrawPixel(x + t_x, y + t_y, on);
 371:../../libDaisy//src/hid/disp/display.h ****             if(d3)
 372:../../libDaisy//src/hid/disp/display.h ****                 ((ChildType*)(this))
 373:../../libDaisy//src/hid/disp/display.h ****                     ->ChildType::DrawPixel(x + t_x, y - t_y, on);
ARM GAS  /var/folders/1y/_321xjh9623c014x9_qw12rr0000gn/T//ccqHcGuP.s 			page 109


 374:../../libDaisy//src/hid/disp/display.h ****             if(d4)
 375:../../libDaisy//src/hid/disp/display.h ****                 ((ChildType*)(this))
 376:../../libDaisy//src/hid/disp/display.h ****                     ->ChildType::DrawPixel(x - t_x, y - t_y, on);
 377:../../libDaisy//src/hid/disp/display.h **** 
 378:../../libDaisy//src/hid/disp/display.h ****             e2 = err;
 379:../../libDaisy//src/hid/disp/display.h ****             if(e2 <= t_y)
 380:../../libDaisy//src/hid/disp/display.h ****             {
 381:../../libDaisy//src/hid/disp/display.h ****                 t_y++;
 382:../../libDaisy//src/hid/disp/display.h ****                 err = err + (t_y * 2 + 1);
 383:../../libDaisy//src/hid/disp/display.h ****                 if(-t_x == t_y && e2 <= t_x)
 384:../../libDaisy//src/hid/disp/display.h ****                 {
 385:../../libDaisy//src/hid/disp/display.h ****                     e2 = 0;
 386:../../libDaisy//src/hid/disp/display.h ****                 }
 387:../../libDaisy//src/hid/disp/display.h ****             }
 388:../../libDaisy//src/hid/disp/display.h ****             if(e2 > t_x)
 389:../../libDaisy//src/hid/disp/display.h ****             {
 390:../../libDaisy//src/hid/disp/display.h ****                 t_x++;
 391:../../libDaisy//src/hid/disp/display.h ****                 err = err + (t_x * 2 + 1);
 392:../../libDaisy//src/hid/disp/display.h ****             }
 393:../../libDaisy//src/hid/disp/display.h ****         } while(t_x <= 0);
 394:../../libDaisy//src/hid/disp/display.h ****     }
 395:../../libDaisy//src/hid/disp/display.h **** 
 396:../../libDaisy//src/hid/disp/display.h ****     char WriteChar(char ch, FontDef font, bool on) override
 397:../../libDaisy//src/hid/disp/display.h ****     {
 398:../../libDaisy//src/hid/disp/display.h ****         uint32_t i, b, j;
 399:../../libDaisy//src/hid/disp/display.h **** 
 400:../../libDaisy//src/hid/disp/display.h ****         // Check if character is valid
 401:../../libDaisy//src/hid/disp/display.h ****         if(ch < 32 || ch > 126)
 402:../../libDaisy//src/hid/disp/display.h ****             return 0;
 403:../../libDaisy//src/hid/disp/display.h **** 
 404:../../libDaisy//src/hid/disp/display.h ****         // Check remaining space on current line
 405:../../libDaisy//src/hid/disp/display.h ****         if(Width() < (currentX_ + font.FontWidth)
 406:../../libDaisy//src/hid/disp/display.h ****            || Height() < (currentY_ + font.FontHeight))
 407:../../libDaisy//src/hid/disp/display.h ****         {
 408:../../libDaisy//src/hid/disp/display.h ****             // Not enough space on current line
 409:../../libDaisy//src/hid/disp/display.h ****             return 0;
 410:../../libDaisy//src/hid/disp/display.h ****         }
 411:../../libDaisy//src/hid/disp/display.h **** 
 412:../../libDaisy//src/hid/disp/display.h ****         // Use the font to write
 413:../../libDaisy//src/hid/disp/display.h ****         for(i = 0; i < font.FontHeight; i++)
 414:../../libDaisy//src/hid/disp/display.h ****         {
 415:../../libDaisy//src/hid/disp/display.h ****             b = font.data[(ch - 32) * font.FontHeight + i];
 416:../../libDaisy//src/hid/disp/display.h ****             for(j = 0; j < font.FontWidth; j++)
 417:../../libDaisy//src/hid/disp/display.h ****             {
 418:../../libDaisy//src/hid/disp/display.h ****                 if((b << j) & 0x8000)
 419:../../libDaisy//src/hid/disp/display.h ****                 {
 420:../../libDaisy//src/hid/disp/display.h ****                     ((ChildType*)(this))
 421:../../libDaisy//src/hid/disp/display.h ****                         ->ChildType::DrawPixel(
 422:../../libDaisy//src/hid/disp/display.h ****                             currentX_ + j, (currentY_ + i), on);
 423:../../libDaisy//src/hid/disp/display.h ****                 }
 424:../../libDaisy//src/hid/disp/display.h ****                 else
 425:../../libDaisy//src/hid/disp/display.h ****                 {
 426:../../libDaisy//src/hid/disp/display.h ****                     ((ChildType*)(this))
 427:../../libDaisy//src/hid/disp/display.h ****                         ->ChildType::DrawPixel(
 428:../../libDaisy//src/hid/disp/display.h ****                             currentX_ + j, (currentY_ + i), !on);
 429:../../libDaisy//src/hid/disp/display.h ****                 }
 430:../../libDaisy//src/hid/disp/display.h ****             }
ARM GAS  /var/folders/1y/_321xjh9623c014x9_qw12rr0000gn/T//ccqHcGuP.s 			page 110


 431:../../libDaisy//src/hid/disp/display.h ****         }
 432:../../libDaisy//src/hid/disp/display.h **** 
 433:../../libDaisy//src/hid/disp/display.h ****         // The current space is now taken
 434:../../libDaisy//src/hid/disp/display.h ****         SetCursor(currentX_ + font.FontWidth, currentY_);
 435:../../libDaisy//src/hid/disp/display.h **** 
 436:../../libDaisy//src/hid/disp/display.h ****         // Return written char for validation
 437:../../libDaisy//src/hid/disp/display.h ****         return ch;
 438:../../libDaisy//src/hid/disp/display.h ****     }
 439:../../libDaisy//src/hid/disp/display.h **** 
 440:../../libDaisy//src/hid/disp/display.h ****     char WriteString(const char* str, FontDef font, bool on) override
 3518              		.loc 3 440 10 is_stmt 1 view -0
 3519              		.cfi_startproc
 3520              		@ args = 4, pretend = 0, frame = 32
 3521              		@ frame_needed = 0, uses_anonymous_args = 0
 3522              		.loc 3 440 10 is_stmt 0 view .LVU940
 3523 0000 2DE9F04F 		push	{r4, r5, r6, r7, r8, r9, r10, fp, lr}
 3524              		.cfi_def_cfa_offset 36
 3525              		.cfi_offset 4, -36
 3526              		.cfi_offset 5, -32
 3527              		.cfi_offset 6, -28
 3528              		.cfi_offset 7, -24
 3529              		.cfi_offset 8, -20
 3530              		.cfi_offset 9, -16
 3531              		.cfi_offset 10, -12
 3532              		.cfi_offset 11, -8
 3533              		.cfi_offset 14, -4
 3534 0004 89B0     		sub	sp, sp, #36
 3535              		.cfi_def_cfa_offset 72
 3536              		.loc 3 440 10 view .LVU941
 3537 0006 08AC     		add	r4, sp, #32
 3538 0008 9DF84870 		ldrb	r7, [sp, #72]	@ zero_extendqisi2
 3539 000c 0191     		str	r1, [sp, #4]
 3540 000e 04E90C00 		stmdb	r4, {r2, r3}
 441:../../libDaisy//src/hid/disp/display.h ****     {
 442:../../libDaisy//src/hid/disp/display.h ****         // Write until null-byte
 443:../../libDaisy//src/hid/disp/display.h ****         while(*str)
 3541              		.loc 3 443 9 is_stmt 1 view .LVU942
 3542 0012 0B78     		ldrb	r3, [r1]	@ zero_extendqisi2
 3543 0014 002B     		cmp	r3, #0
 3544 0016 00F0AB80 		beq	.L244
 3545 001a 1A46     		mov	r2, r3
 3546 001c 9DF81880 		ldrb	r8, [sp, #24]	@ zero_extendqisi2
 3547 0020 9DF81930 		ldrb	r3, [sp, #25]	@ zero_extendqisi2
 3548 0024 0646     		mov	r6, r0
 3549 0026 4546     		mov	r5, r8
 3550 0028 9046     		mov	r8, r2
 3551 002a 0393     		str	r3, [sp, #12]
 3552 002c 079B     		ldr	r3, [sp, #28]
 3553 002e 0593     		str	r3, [sp, #20]
 3554              	.LVL254:
 3555              	.L245:
 3556              	.LBB827:
 3557              	.LBI827:
 396:../../libDaisy//src/hid/disp/display.h ****     {
 3558              		.loc 3 396 10 view .LVU943
 3559              	.LBB828:
 401:../../libDaisy//src/hid/disp/display.h ****             return 0;
ARM GAS  /var/folders/1y/_321xjh9623c014x9_qw12rr0000gn/T//ccqHcGuP.s 			page 111


 3560              		.loc 3 401 20 is_stmt 0 view .LVU944
 3561 0030 A8F12004 		sub	r4, r8, #32
 401:../../libDaisy//src/hid/disp/display.h ****             return 0;
 3562              		.loc 3 401 9 view .LVU945
 3563 0034 E3B2     		uxtb	r3, r4
 3564 0036 5E2B     		cmp	r3, #94
 3565 0038 00F29E80 		bhi	.L226
 405:../../libDaisy//src/hid/disp/display.h ****            || Height() < (currentY_ + font.FontHeight))
 3566              		.loc 3 405 17 view .LVU946
 3567 003c 3368     		ldr	r3, [r6]
 3568 003e 5E4A     		ldr	r2, .L266
 3569 0040 DB68     		ldr	r3, [r3, #12]
 3570 0042 9342     		cmp	r3, r2
 3571 0044 40F09B80 		bne	.L259
 3572 0048 8020     		movs	r0, #128
 3573              	.L225:
 405:../../libDaisy//src/hid/disp/display.h ****            || Height() < (currentY_ + font.FontHeight))
 3574              		.loc 3 405 23 view .LVU947
 3575 004a B388     		ldrh	r3, [r6, #4]
 405:../../libDaisy//src/hid/disp/display.h ****            || Height() < (currentY_ + font.FontHeight))
 3576              		.loc 3 405 33 view .LVU948
 3577 004c 2B44     		add	r3, r3, r5
 406:../../libDaisy//src/hid/disp/display.h ****         {
 3578              		.loc 3 406 12 view .LVU949
 3579 004e 8342     		cmp	r3, r0
 3580 0050 00F39280 		bgt	.L226
 406:../../libDaisy//src/hid/disp/display.h ****         {
 3581              		.loc 3 406 21 view .LVU950
 3582 0054 3368     		ldr	r3, [r6]
 3583 0056 594A     		ldr	r2, .L266+4
 3584 0058 9B68     		ldr	r3, [r3, #8]
 3585 005a 9342     		cmp	r3, r2
 3586 005c 40F09280 		bne	.L260
 3587 0060 4020     		movs	r0, #64
 3588              	.L227:
 406:../../libDaisy//src/hid/disp/display.h ****         {
 3589              		.loc 3 406 27 view .LVU951
 3590 0062 F188     		ldrh	r1, [r6, #6]
 406:../../libDaisy//src/hid/disp/display.h ****         {
 3591              		.loc 3 406 37 view .LVU952
 3592 0064 039A     		ldr	r2, [sp, #12]
 406:../../libDaisy//src/hid/disp/display.h ****         {
 3593              		.loc 3 406 27 view .LVU953
 3594 0066 0291     		str	r1, [sp, #8]
 406:../../libDaisy//src/hid/disp/display.h ****         {
 3595              		.loc 3 406 37 view .LVU954
 3596 0068 8B18     		adds	r3, r1, r2
 406:../../libDaisy//src/hid/disp/display.h ****         {
 3597              		.loc 3 406 12 view .LVU955
 3598 006a 8342     		cmp	r3, r0
 3599 006c 00F38480 		bgt	.L226
 3600              	.LVL255:
 413:../../libDaisy//src/hid/disp/display.h ****         {
 3601              		.loc 3 413 22 is_stmt 1 view .LVU956
 3602 0070 002A     		cmp	r2, #0
 3603 0072 00F09180 		beq	.L228
 415:../../libDaisy//src/hid/disp/display.h ****             for(j = 0; j < font.FontWidth; j++)
ARM GAS  /var/folders/1y/_321xjh9623c014x9_qw12rr0000gn/T//ccqHcGuP.s 			page 112


 3604              		.loc 3 415 37 is_stmt 0 view .LVU957
 3605 0076 02FB04F4 		mul	r4, r2, r4
 3606 007a 6FF00049 		mvn	r9, #-2147483648
 3607 007e 059B     		ldr	r3, [sp, #20]
 3608 0080 A144     		add	r9, r9, r4
 3609 0082 1444     		add	r4, r4, r2
 434:../../libDaisy//src/hid/disp/display.h **** 
 3610              		.loc 3 434 19 view .LVU958
 3611 0084 B6F804B0 		ldrh	fp, [r6, #4]
 3612 0088 03EB4909 		add	r9, r3, r9, lsl #1
 3613 008c 023B     		subs	r3, r3, #2
 3614 008e CDF81080 		str	r8, [sp, #16]
 3615 0092 03EB4403 		add	r3, r3, r4, lsl #1
 3616 0096 0C46     		mov	r4, r1
 3617 0098 9A46     		mov	r10, r3
 3618              	.LVL256:
 3619              	.L231:
 415:../../libDaisy//src/hid/disp/display.h ****             for(j = 0; j < font.FontWidth; j++)
 3620              		.loc 3 415 15 view .LVU959
 3621 009a 39F802CF 		ldrh	ip, [r9, #2]!
 3622              	.LVL257:
 416:../../libDaisy//src/hid/disp/display.h ****             {
 3623              		.loc 3 416 26 is_stmt 1 view .LVU960
 3624 009e A5B3     		cbz	r5, .L236
 3625              	.LBB829:
 3626              	.LBB830:
 3627              	.LBB831:
 3628              	.LBB832:
 3629              	.LBB833:
 359:../../libDaisy//src/dev/oled_ssd130x.h ****     }
 3630              		.loc 4 359 55 is_stmt 0 view .LVU961
 3631 00a0 04F00703 		and	r3, r4, #7
 359:../../libDaisy//src/dev/oled_ssd130x.h ****     }
 3632              		.loc 4 359 49 view .LVU962
 3633 00a4 4FF0010E 		mov	lr, #1
 359:../../libDaisy//src/dev/oled_ssd130x.h ****     }
 3634              		.loc 4 359 28 view .LVU963
 3635 00a8 E208     		lsrs	r2, r4, #3
 3636 00aa 5946     		mov	r1, fp
 359:../../libDaisy//src/dev/oled_ssd130x.h ****     }
 3637              		.loc 4 359 49 view .LVU964
 3638 00ac 0EFA03FE 		lsl	lr, lr, r3
 3639 00b0 0BF11403 		add	r3, fp, #20
 359:../../libDaisy//src/dev/oled_ssd130x.h ****     }
 3640              		.loc 4 359 42 view .LVU965
 3641 00b4 4FFA8EFE 		sxtb	lr, lr
 3642 00b8 03EBC212 		add	r2, r3, r2, lsl #7
 3643              	.LBE833:
 3644              	.LBE832:
 3645              	.LBE831:
 3646              	.LBE830:
 3647              	.LBE829:
 416:../../libDaisy//src/hid/disp/display.h ****             {
 3648              		.loc 3 416 19 view .LVU966
 3649 00bc 0023     		movs	r3, #0
 3650              	.LBB851:
 3651              	.LBB846:
ARM GAS  /var/folders/1y/_321xjh9623c014x9_qw12rr0000gn/T//ccqHcGuP.s 			page 113


 3652              	.LBB841:
 3653              	.LBB837:
 3654              	.LBB834:
 359:../../libDaisy//src/dev/oled_ssd130x.h ****     }
 3655              		.loc 4 359 42 view .LVU967
 3656 00be 6FEA0E08 		mvn	r8, lr
 3657 00c2 3244     		add	r2, r2, r6
 3658 00c4 0DE0     		b	.L237
 3659              	.LVL258:
 3660              	.L261:
 359:../../libDaisy//src/dev/oled_ssd130x.h ****     }
 3661              		.loc 4 359 42 view .LVU968
 3662              	.LBE834:
 3663              	.LBE837:
 3664              	.LBE841:
 3665              	.LBE846:
 3666              	.LBE851:
 3667              	.LBB852:
 3668              	.LBI852:
  42:../../libDaisy//src/hid/disp/oled_display.h ****     {
 3669              		.loc 1 42 10 is_stmt 1 view .LVU969
 3670              	.LBB853:
 3671              	.LBI853:
 352:../../libDaisy//src/dev/oled_ssd130x.h ****     {
 3672              		.loc 4 352 10 view .LVU970
 3673              	.LBB854:
 354:../../libDaisy//src/dev/oled_ssd130x.h ****             return;
 3674              		.loc 4 354 9 is_stmt 0 view .LVU971
 3675 00c6 7F29     		cmp	r1, #127
 3676 00c8 06D8     		bhi	.L233
 3677 00ca 3F2C     		cmp	r4, #63
 3678 00cc 04D8     		bhi	.L233
 357:../../libDaisy//src/dev/oled_ssd130x.h ****         else
 3679              		.loc 4 357 42 view .LVU972
 3680 00ce 1078     		ldrb	r0, [r2]	@ zero_extendqisi2
 356:../../libDaisy//src/dev/oled_ssd130x.h ****             buffer_[x + (y / 8) * width] |= (1 << (y % 8));
 3681              		.loc 4 356 9 view .LVU973
 3682 00d0 97B1     		cbz	r7, .L235
 3683              	.L258:
 356:../../libDaisy//src/dev/oled_ssd130x.h ****             buffer_[x + (y / 8) * width] |= (1 << (y % 8));
 3684              		.loc 4 356 9 view .LVU974
 3685              	.LBE854:
 3686              	.LBE853:
 3687              	.LBE852:
 3688              	.LBB855:
 3689              	.LBB847:
 3690              	.LBB842:
 357:../../libDaisy//src/dev/oled_ssd130x.h ****         else
 3691              		.loc 4 357 42 view .LVU975
 3692 00d2 4EEA0000 		orr	r0, lr, r0
 3693 00d6 1070     		strb	r0, [r2]
 3694              	.L233:
 3695              	.LBE842:
 3696              	.LBE847:
 3697              	.LBE855:
 416:../../libDaisy//src/hid/disp/display.h ****             {
 3698              		.loc 3 416 13 is_stmt 1 view .LVU976
ARM GAS  /var/folders/1y/_321xjh9623c014x9_qw12rr0000gn/T//ccqHcGuP.s 			page 114


 3699 00d8 0133     		adds	r3, r3, #1
 3700              	.LVL259:
 416:../../libDaisy//src/hid/disp/display.h ****             {
 3701              		.loc 3 416 26 view .LVU977
 3702 00da 0132     		adds	r2, r2, #1
 3703 00dc 0131     		adds	r1, r1, #1
 3704 00de AB42     		cmp	r3, r5
 3705 00e0 13D0     		beq	.L236
 3706              	.LVL260:
 3707              	.L237:
 418:../../libDaisy//src/hid/disp/display.h ****                 {
 3708              		.loc 3 418 23 is_stmt 0 view .LVU978
 3709 00e2 0CFA03F0 		lsl	r0, ip, r3
 418:../../libDaisy//src/hid/disp/display.h ****                 {
 3710              		.loc 3 418 17 view .LVU979
 3711 00e6 0004     		lsls	r0, r0, #16
 3712 00e8 EDD4     		bmi	.L261
 3713              	.LVL261:
 3714              	.LBB856:
 3715              	.LBI829:
  42:../../libDaisy//src/hid/disp/oled_display.h ****     {
 3716              		.loc 1 42 10 is_stmt 1 view .LVU980
 3717              	.LBB848:
 3718              	.LBI830:
 352:../../libDaisy//src/dev/oled_ssd130x.h ****     {
 3719              		.loc 4 352 10 view .LVU981
 3720              	.LBB843:
 354:../../libDaisy//src/dev/oled_ssd130x.h ****             return;
 3721              		.loc 4 354 9 is_stmt 0 view .LVU982
 3722 00ea 7F29     		cmp	r1, #127
 3723 00ec F4D8     		bhi	.L233
 3724 00ee 3F2C     		cmp	r4, #63
 3725 00f0 F2D8     		bhi	.L233
 357:../../libDaisy//src/dev/oled_ssd130x.h ****         else
 3726              		.loc 4 357 42 view .LVU983
 3727 00f2 1078     		ldrb	r0, [r2]	@ zero_extendqisi2
 356:../../libDaisy//src/dev/oled_ssd130x.h ****             buffer_[x + (y / 8) * width] |= (1 << (y % 8));
 3728              		.loc 4 356 9 view .LVU984
 3729 00f4 002F     		cmp	r7, #0
 3730 00f6 ECD0     		beq	.L258
 3731              	.L235:
 3732              	.LVL262:
 3733              	.LBB838:
 3734              	.LBI832:
 352:../../libDaisy//src/dev/oled_ssd130x.h ****     {
 3735              		.loc 4 352 10 is_stmt 1 view .LVU985
 352:../../libDaisy//src/dev/oled_ssd130x.h ****     {
 3736              		.loc 4 352 10 is_stmt 0 view .LVU986
 3737              	.LBE838:
 3738              	.LBE843:
 3739              	.LBE848:
 3740              	.LBE856:
 416:../../libDaisy//src/hid/disp/display.h ****             {
 3741              		.loc 3 416 13 view .LVU987
 3742 00f8 0133     		adds	r3, r3, #1
 3743              	.LVL263:
 3744              	.LBB857:
ARM GAS  /var/folders/1y/_321xjh9623c014x9_qw12rr0000gn/T//ccqHcGuP.s 			page 115


 3745              	.LBB849:
 3746              	.LBB844:
 3747              	.LBB839:
 3748              	.LBB835:
 359:../../libDaisy//src/dev/oled_ssd130x.h ****     }
 3749              		.loc 4 359 42 view .LVU988
 3750 00fa 08EA0000 		and	r0, r8, r0
 3751              	.LBE835:
 3752              	.LBE839:
 3753              	.LBE844:
 3754              	.LBE849:
 3755              	.LBE857:
 416:../../libDaisy//src/hid/disp/display.h ****             {
 3756              		.loc 3 416 26 view .LVU989
 3757 00fe 0132     		adds	r2, r2, #1
 3758 0100 0131     		adds	r1, r1, #1
 3759 0102 AB42     		cmp	r3, r5
 3760              	.LBB858:
 3761              	.LBB850:
 3762              	.LBB845:
 3763              	.LBB840:
 3764              	.LBB836:
 359:../../libDaisy//src/dev/oled_ssd130x.h ****     }
 3765              		.loc 4 359 42 view .LVU990
 3766 0104 02F8010C 		strb	r0, [r2, #-1]
 359:../../libDaisy//src/dev/oled_ssd130x.h ****     }
 3767              		.loc 4 359 42 view .LVU991
 3768              	.LBE836:
 3769              	.LBE840:
 3770              	.LBE845:
 3771              	.LBE850:
 3772              	.LBE858:
 416:../../libDaisy//src/hid/disp/display.h ****             {
 3773              		.loc 3 416 13 is_stmt 1 view .LVU992
 3774              	.LVL264:
 416:../../libDaisy//src/hid/disp/display.h ****             {
 3775              		.loc 3 416 26 view .LVU993
 3776 0108 EBD1     		bne	.L237
 3777              	.LVL265:
 3778              	.L236:
 413:../../libDaisy//src/hid/disp/display.h ****         {
 3779              		.loc 3 413 9 view .LVU994
 413:../../libDaisy//src/hid/disp/display.h ****         {
 3780              		.loc 3 413 22 view .LVU995
 3781 010a D145     		cmp	r9, r10
 3782 010c 04F10104 		add	r4, r4, #1
 3783 0110 C3D1     		bne	.L231
 3784 0112 DDF81080 		ldr	r8, [sp, #16]
 3785              	.LVL266:
 3786              	.L230:
 3787              	.LBB859:
 3788              	.LBB860:
 173:../../libDaisy//src/hid/disp/display.h ****         currentY_ = (y >= Height()) ? Height() - 1 : y;
 3789              		.loc 3 173 33 is_stmt 0 view .LVU996
 3790 0116 3268     		ldr	r2, [r6]
 3791              	.LBE860:
 3792              	.LBE859:
ARM GAS  /var/folders/1y/_321xjh9623c014x9_qw12rr0000gn/T//ccqHcGuP.s 			page 116


 434:../../libDaisy//src/hid/disp/display.h **** 
 3793              		.loc 3 434 18 view .LVU997
 3794 0118 0BEB0504 		add	r4, fp, r5
 3795 011c 2649     		ldr	r1, .L266
 3796              	.LBB865:
 3797              	.LBB861:
 173:../../libDaisy//src/hid/disp/display.h ****         currentY_ = (y >= Height()) ? Height() - 1 : y;
 3798              		.loc 3 173 33 view .LVU998
 3799 011e D368     		ldr	r3, [r2, #12]
 3800              	.LBE861:
 3801              	.LBE865:
 434:../../libDaisy//src/hid/disp/display.h **** 
 3802              		.loc 3 434 18 view .LVU999
 3803 0120 A4B2     		uxth	r4, r4
 3804              	.LVL267:
 3805              	.LBB866:
 3806              	.LBI859:
 171:../../libDaisy//src/hid/disp/display.h ****     {
 3807              		.loc 3 171 10 is_stmt 1 view .LVU1000
 3808              	.LBB862:
 173:../../libDaisy//src/hid/disp/display.h ****         currentY_ = (y >= Height()) ? Height() - 1 : y;
 3809              		.loc 3 173 9 view .LVU1001
 3810 0122 8B42     		cmp	r3, r1
 3811 0124 34D1     		bne	.L262
 173:../../libDaisy//src/hid/disp/display.h ****         currentY_ = (y >= Height()) ? Height() - 1 : y;
 3812              		.loc 3 173 33 is_stmt 0 view .LVU1002
 3813 0126 8020     		movs	r0, #128
 3814              	.L238:
 173:../../libDaisy//src/hid/disp/display.h ****         currentY_ = (y >= Height()) ? Height() - 1 : y;
 3815              		.loc 3 173 19 view .LVU1003
 3816 0128 8442     		cmp	r4, r0
 3817 012a 04D3     		bcc	.L239
 173:../../libDaisy//src/hid/disp/display.h ****         currentY_ = (y >= Height()) ? Height() - 1 : y;
 3818              		.loc 3 173 44 view .LVU1004
 3819 012c D368     		ldr	r3, [r2, #12]
 3820 012e 2249     		ldr	r1, .L266
 3821 0130 8B42     		cmp	r3, r1
 3822 0132 3AD1     		bne	.L263
 3823 0134 7F24     		movs	r4, #127
 3824              	.LVL268:
 3825              	.L239:
 174:../../libDaisy//src/hid/disp/display.h ****     }
 3826              		.loc 3 174 34 view .LVU1005
 3827 0136 9368     		ldr	r3, [r2, #8]
 3828 0138 204A     		ldr	r2, .L266+4
 173:../../libDaisy//src/hid/disp/display.h ****         currentY_ = (y >= Height()) ? Height() - 1 : y;
 3829              		.loc 3 173 19 view .LVU1006
 3830 013a B480     		strh	r4, [r6, #4]	@ movhi
 174:../../libDaisy//src/hid/disp/display.h ****     }
 3831              		.loc 3 174 9 is_stmt 1 view .LVU1007
 3832 013c 9342     		cmp	r3, r2
 3833 013e 24D1     		bne	.L264
 174:../../libDaisy//src/hid/disp/display.h ****     }
 3834              		.loc 3 174 34 is_stmt 0 view .LVU1008
 3835 0140 4020     		movs	r0, #64
 3836              	.L241:
 174:../../libDaisy//src/hid/disp/display.h ****     }
ARM GAS  /var/folders/1y/_321xjh9623c014x9_qw12rr0000gn/T//ccqHcGuP.s 			page 117


 3837              		.loc 3 174 19 view .LVU1009
 3838 0142 029B     		ldr	r3, [sp, #8]
 3839 0144 8342     		cmp	r3, r0
 3840 0146 06D3     		bcc	.L242
 174:../../libDaisy//src/hid/disp/display.h ****     }
 3841              		.loc 3 174 46 view .LVU1010
 3842 0148 3368     		ldr	r3, [r6]
 3843 014a 1C4A     		ldr	r2, .L266+4
 3844 014c 9B68     		ldr	r3, [r3, #8]
 3845 014e 9342     		cmp	r3, r2
 3846 0150 25D1     		bne	.L265
 3847 0152 3F23     		movs	r3, #63
 3848 0154 0293     		str	r3, [sp, #8]
 3849              	.LVL269:
 3850              	.L242:
 174:../../libDaisy//src/hid/disp/display.h ****     }
 3851              		.loc 3 174 19 view .LVU1011
 3852 0156 029B     		ldr	r3, [sp, #8]
 3853 0158 F380     		strh	r3, [r6, #6]	@ movhi
 3854              	.LVL270:
 3855              	.L224:
 174:../../libDaisy//src/hid/disp/display.h ****     }
 3856              		.loc 3 174 19 view .LVU1012
 3857              	.LBE862:
 3858              	.LBE866:
 3859              	.LBE828:
 3860              	.LBE827:
 444:../../libDaisy//src/hid/disp/display.h ****         {
 445:../../libDaisy//src/hid/disp/display.h ****             if(((ChildType*)(this))->ChildType::WriteChar(*str, font, on)
 446:../../libDaisy//src/hid/disp/display.h ****                != *str)
 3861              		.loc 3 446 16 view .LVU1013
 3862 015a 019B     		ldr	r3, [sp, #4]
 3863 015c 1878     		ldrb	r0, [r3]	@ zero_extendqisi2
 445:../../libDaisy//src/hid/disp/display.h ****                != *str)
 3864              		.loc 3 445 13 view .LVU1014
 3865 015e 4045     		cmp	r0, r8
 3866 0160 07D1     		bne	.L222
 3867              	.LVL271:
 443:../../libDaisy//src/hid/disp/display.h ****         {
 3868              		.loc 3 443 9 is_stmt 1 view .LVU1015
 3869 0162 13F8018F 		ldrb	r8, [r3, #1]!	@ zero_extendqisi2
 3870              	.LVL272:
 443:../../libDaisy//src/hid/disp/display.h ****         {
 3871              		.loc 3 443 9 is_stmt 0 view .LVU1016
 3872 0166 0193     		str	r3, [sp, #4]
 3873 0168 B8F1000F 		cmp	r8, #0
 3874 016c 7FF460AF 		bne	.L245
 3875              	.LVL273:
 3876              	.L244:
 3877              	.LBB871:
 3878              	.LBB869:
 402:../../libDaisy//src/hid/disp/display.h **** 
 3879              		.loc 3 402 20 view .LVU1017
 3880 0170 0020     		movs	r0, #0
 3881              	.L222:
 3882              	.LBE869:
 3883              	.LBE871:
ARM GAS  /var/folders/1y/_321xjh9623c014x9_qw12rr0000gn/T//ccqHcGuP.s 			page 118


 447:../../libDaisy//src/hid/disp/display.h ****             {
 448:../../libDaisy//src/hid/disp/display.h ****                 // Char could not be written
 449:../../libDaisy//src/hid/disp/display.h ****                 return *str;
 450:../../libDaisy//src/hid/disp/display.h ****             }
 451:../../libDaisy//src/hid/disp/display.h **** 
 452:../../libDaisy//src/hid/disp/display.h ****             // Next char
 453:../../libDaisy//src/hid/disp/display.h ****             str++;
 454:../../libDaisy//src/hid/disp/display.h ****         }
 455:../../libDaisy//src/hid/disp/display.h **** 
 456:../../libDaisy//src/hid/disp/display.h ****         // Everything ok
 457:../../libDaisy//src/hid/disp/display.h ****         return *str;
 458:../../libDaisy//src/hid/disp/display.h ****     }
 3884              		.loc 3 458 5 view .LVU1018
 3885 0172 09B0     		add	sp, sp, #36
 3886              		.cfi_remember_state
 3887              		.cfi_def_cfa_offset 36
 3888              		@ sp needed
 3889 0174 BDE8F08F 		pop	{r4, r5, r6, r7, r8, r9, r10, fp, pc}
 3890              	.LVL274:
 3891              	.L226:
 3892              		.cfi_restore_state
 3893              	.LBB872:
 3894              	.LBB870:
 402:../../libDaisy//src/hid/disp/display.h **** 
 3895              		.loc 3 402 20 view .LVU1019
 3896 0178 4FF00008 		mov	r8, #0
 3897              	.LVL275:
 402:../../libDaisy//src/hid/disp/display.h **** 
 3898              		.loc 3 402 20 view .LVU1020
 3899 017c EDE7     		b	.L224
 3900              	.LVL276:
 3901              	.L259:
 405:../../libDaisy//src/hid/disp/display.h ****            || Height() < (currentY_ + font.FontHeight))
 3902              		.loc 3 405 17 view .LVU1021
 3903 017e 3046     		mov	r0, r6
 3904 0180 9847     		blx	r3
 3905              	.LVL277:
 3906 0182 62E7     		b	.L225
 3907              	.L260:
 406:../../libDaisy//src/hid/disp/display.h ****         {
 3908              		.loc 3 406 21 view .LVU1022
 3909 0184 3046     		mov	r0, r6
 3910 0186 9847     		blx	r3
 3911              	.LVL278:
 3912 0188 6BE7     		b	.L227
 3913              	.LVL279:
 3914              	.L264:
 3915              	.LBB867:
 3916              	.LBB863:
 174:../../libDaisy//src/hid/disp/display.h ****     }
 3917              		.loc 3 174 33 view .LVU1023
 3918 018a 3046     		mov	r0, r6
 3919 018c 9847     		blx	r3
 3920              	.LVL280:
 3921 018e D8E7     		b	.L241
 3922              	.LVL281:
 3923              	.L262:
ARM GAS  /var/folders/1y/_321xjh9623c014x9_qw12rr0000gn/T//ccqHcGuP.s 			page 119


 173:../../libDaisy//src/hid/disp/display.h ****         currentY_ = (y >= Height()) ? Height() - 1 : y;
 3924              		.loc 3 173 32 view .LVU1024
 3925 0190 3046     		mov	r0, r6
 3926 0192 9847     		blx	r3
 3927              	.LVL282:
 173:../../libDaisy//src/hid/disp/display.h ****         currentY_ = (y >= Height()) ? Height() - 1 : y;
 3928              		.loc 3 173 44 view .LVU1025
 3929 0194 3268     		ldr	r2, [r6]
 3930 0196 C7E7     		b	.L238
 3931              	.LVL283:
 3932              	.L228:
 173:../../libDaisy//src/hid/disp/display.h ****         currentY_ = (y >= Height()) ? Height() - 1 : y;
 3933              		.loc 3 173 44 view .LVU1026
 3934              	.LBE863:
 3935              	.LBE867:
 434:../../libDaisy//src/hid/disp/display.h **** 
 3936              		.loc 3 434 19 view .LVU1027
 3937 0198 B6F804B0 		ldrh	fp, [r6, #4]
 3938 019c BBE7     		b	.L230
 3939              	.LVL284:
 3940              	.L265:
 3941              	.LBB868:
 3942              	.LBB864:
 174:../../libDaisy//src/hid/disp/display.h ****     }
 3943              		.loc 3 174 45 view .LVU1028
 3944 019e 3046     		mov	r0, r6
 3945 01a0 9847     		blx	r3
 3946              	.LVL285:
 174:../../libDaisy//src/hid/disp/display.h ****     }
 3947              		.loc 3 174 19 view .LVU1029
 3948 01a2 0138     		subs	r0, r0, #1
 3949 01a4 83B2     		uxth	r3, r0
 3950 01a6 0293     		str	r3, [sp, #8]
 3951              	.LVL286:
 174:../../libDaisy//src/hid/disp/display.h ****     }
 3952              		.loc 3 174 19 view .LVU1030
 3953 01a8 D5E7     		b	.L242
 3954              	.LVL287:
 3955              	.L263:
 173:../../libDaisy//src/hid/disp/display.h ****         currentY_ = (y >= Height()) ? Height() - 1 : y;
 3956              		.loc 3 173 43 view .LVU1031
 3957 01aa 3046     		mov	r0, r6
 3958 01ac 9847     		blx	r3
 3959              	.LVL288:
 173:../../libDaisy//src/hid/disp/display.h ****         currentY_ = (y >= Height()) ? Height() - 1 : y;
 3960              		.loc 3 173 19 view .LVU1032
 3961 01ae 0138     		subs	r0, r0, #1
 174:../../libDaisy//src/hid/disp/display.h ****     }
 3962              		.loc 3 174 34 view .LVU1033
 3963 01b0 3268     		ldr	r2, [r6]
 173:../../libDaisy//src/hid/disp/display.h ****         currentY_ = (y >= Height()) ? Height() - 1 : y;
 3964              		.loc 3 173 19 view .LVU1034
 3965 01b2 84B2     		uxth	r4, r0
 3966              	.LVL289:
 173:../../libDaisy//src/hid/disp/display.h ****         currentY_ = (y >= Height()) ? Height() - 1 : y;
 3967              		.loc 3 173 19 view .LVU1035
 3968 01b4 BFE7     		b	.L239
ARM GAS  /var/folders/1y/_321xjh9623c014x9_qw12rr0000gn/T//ccqHcGuP.s 			page 120


 3969              	.L267:
 3970 01b6 00BF     		.align	2
 3971              	.L266:
 3972 01b8 00000000 		.word	_ZNK5daisy11OledDisplayINS_13SSD130xDriverILj128ELj64ENS_24SSD130x4WireSpiTransportEEEE5Widt
 3973 01bc 00000000 		.word	_ZNK5daisy11OledDisplayINS_13SSD130xDriverILj128ELj64ENS_24SSD130x4WireSpiTransportEEEE6Heig
 3974              	.LBE864:
 3975              	.LBE868:
 3976              	.LBE870:
 3977              	.LBE872:
 3978              		.cfi_endproc
 3979              	.LFE2625:
 3981              		.section	.text._ZN5daisy5Dubby18HightlightMenuItemEv,"ax",%progbits
 3982              		.align	1
 3983              		.p2align 2,,3
 3984              		.global	_ZN5daisy5Dubby18HightlightMenuItemEv
 3985              		.syntax unified
 3986              		.thumb
 3987              		.thumb_func
 3989              	_ZN5daisy5Dubby18HightlightMenuItemEv:
 3990              	.LVL290:
 3991              	.LFB2582:
 189:Dubby.cpp     **** {
 3992              		.loc 2 189 1 is_stmt 1 view -0
 3993              		.cfi_startproc
 3994              		@ args = 0, pretend = 0, frame = 8
 3995              		@ frame_needed = 0, uses_anonymous_args = 0
 190:Dubby.cpp     ****     display.DrawRect(menuBoxBounding[menuItemSelected][0], menuBoxBounding[menuItemSelected][1], me
 3996              		.loc 2 190 5 view .LVU1037
 189:Dubby.cpp     **** {
 3997              		.loc 2 189 1 is_stmt 0 view .LVU1038
 3998 0000 2DE9F043 		push	{r4, r5, r6, r7, r8, r9, lr}
 3999              		.cfi_def_cfa_offset 28
 4000              		.cfi_offset 4, -28
 4001              		.cfi_offset 5, -24
 4002              		.cfi_offset 6, -20
 4003              		.cfi_offset 7, -16
 4004              		.cfi_offset 8, -12
 4005              		.cfi_offset 9, -8
 4006              		.cfi_offset 14, -4
 190:Dubby.cpp     ****     display.DrawRect(menuBoxBounding[menuItemSelected][0], menuBoxBounding[menuItemSelected][1], me
 4007              		.loc 2 190 38 view .LVU1039
 4008 0004 90F858E0 		ldrb	lr, [r0, #88]	@ zero_extendqisi2
 189:Dubby.cpp     **** {
 4009              		.loc 2 189 1 view .LVU1040
 4010 0008 0446     		mov	r4, r0
 190:Dubby.cpp     ****     display.DrawRect(menuBoxBounding[menuItemSelected][0], menuBoxBounding[menuItemSelected][1], me
 4011              		.loc 2 190 21 view .LVU1041
 4012 000a 00F58A65 		add	r5, r0, #1104
 189:Dubby.cpp     **** {
 4013              		.loc 2 189 1 view .LVU1042
 4014 000e 85B0     		sub	sp, sp, #20
 4015              		.cfi_def_cfa_offset 48
 190:Dubby.cpp     ****     display.DrawRect(menuBoxBounding[menuItemSelected][0], menuBoxBounding[menuItemSelected][1], me
 4016              		.loc 2 190 95 view .LVU1043
 4017 0010 00EB0E13 		add	r3, r0, lr, lsl #4
 190:Dubby.cpp     ****     display.DrawRect(menuBoxBounding[menuItemSelected][0], menuBoxBounding[menuItemSelected][1], me
 4018              		.loc 2 190 21 view .LVU1044
ARM GAS  /var/folders/1y/_321xjh9623c014x9_qw12rr0000gn/T//ccqHcGuP.s 			page 121


 4019 0014 586F     		ldr	r0, [r3, #116]
 4020              	.LVL291:
 190:Dubby.cpp     ****     display.DrawRect(menuBoxBounding[menuItemSelected][0], menuBoxBounding[menuItemSelected][1], me
 4021              		.loc 2 190 21 view .LVU1045
 4022 0016 D3F88060 		ldr	r6, [r3, #128]
 4023              	.LVL292:
 190:Dubby.cpp     ****     display.DrawRect(menuBoxBounding[menuItemSelected][0], menuBoxBounding[menuItemSelected][1], me
 4024              		.loc 2 190 21 view .LVU1046
 4025 001a D3E91EC8 		ldrd	ip, r8, [r3, #120]
 4026              	.LVL293:
 4027              	.LBB980:
 4028              	.LBI980:
 257:../../libDaisy//src/hid/disp/display.h ****                   uint_fast8_t y1,
 4029              		.loc 3 257 10 is_stmt 1 view .LVU1047
 4030              	.LBB981:
 4031              	.LBI981:
 257:../../libDaisy//src/hid/disp/display.h ****                   uint_fast8_t y1,
 4032              		.loc 3 257 10 view .LVU1048
 4033              	.LBB982:
 266:../../libDaisy//src/hid/disp/display.h ****             {
 4034              		.loc 3 266 40 view .LVU1049
 4035 001e 4045     		cmp	r0, r8
 4036 0020 1ED8     		bhi	.L272
 4037              	.LVL294:
 4038              	.L269:
 4039              	.LBB983:
 268:../../libDaisy//src/hid/disp/display.h ****                 {
 4040              		.loc 3 268 44 view .LVU1050
 4041 0022 B445     		cmp	ip, r6
 4042 0024 19D8     		bhi	.L274
 4043              	.LBB984:
 4044              	.LBB985:
 4045              	.LBB986:
 354:../../libDaisy//src/dev/oled_ssd130x.h ****             return;
 4046              		.loc 4 354 14 is_stmt 0 view .LVU1051
 4047 0026 7F28     		cmp	r0, #127
 4048 0028 6346     		mov	r3, ip
 4049 002a 94BF     		ite	ls
 4050 002c 0027     		movls	r7, #0
 4051 002e 0127     		movhi	r7, #1
 4052              	.LVL295:
 4053              	.L275:
 354:../../libDaisy//src/dev/oled_ssd130x.h ****             return;
 4054              		.loc 4 354 14 view .LVU1052
 4055              	.LBE986:
 4056              	.LBE985:
 4057              	.LBI984:
  42:../../libDaisy//src/hid/disp/oled_display.h ****     {
 4058              		.loc 1 42 10 is_stmt 1 view .LVU1053
 4059              	.LBB990:
 4060              	.LBI985:
 352:../../libDaisy//src/dev/oled_ssd130x.h ****     {
 4061              		.loc 4 352 10 view .LVU1054
 352:../../libDaisy//src/dev/oled_ssd130x.h ****     {
 4062              		.loc 4 352 10 is_stmt 0 view .LVU1055
 4063              	.LBE990:
 4064              	.LBE984:
ARM GAS  /var/folders/1y/_321xjh9623c014x9_qw12rr0000gn/T//ccqHcGuP.s 			page 122


 268:../../libDaisy//src/hid/disp/display.h ****                 {
 4065              		.loc 3 268 17 is_stmt 1 view .LVU1056
 4066              	.LBB994:
 4067              	.LBB991:
 4068              	.LBB987:
 357:../../libDaisy//src/dev/oled_ssd130x.h ****         else
 4069              		.loc 4 357 28 is_stmt 0 view .LVU1057
 4070 0030 DA08     		lsrs	r2, r3, #3
 357:../../libDaisy//src/dev/oled_ssd130x.h ****         else
 4071              		.loc 4 357 54 view .LVU1058
 4072 0032 03F00709 		and	r9, r3, #7
 357:../../libDaisy//src/dev/oled_ssd130x.h ****         else
 4073              		.loc 4 357 48 view .LVU1059
 4074 0036 0121     		movs	r1, #1
 354:../../libDaisy//src/dev/oled_ssd130x.h ****             return;
 4075              		.loc 4 354 9 view .LVU1060
 4076 0038 3F2B     		cmp	r3, #63
 357:../../libDaisy//src/dev/oled_ssd130x.h ****         else
 4077              		.loc 4 357 42 view .LVU1061
 4078 003a 00EBC212 		add	r2, r0, r2, lsl #7
 4079              	.LBE987:
 4080              	.LBE991:
 4081              	.LBE994:
 268:../../libDaisy//src/hid/disp/display.h ****                 {
 4082              		.loc 3 268 17 view .LVU1062
 4083 003e 0B44     		add	r3, r3, r1
 4084              	.LVL296:
 268:../../libDaisy//src/hid/disp/display.h ****                 {
 4085              		.loc 3 268 44 is_stmt 1 view .LVU1063
 4086              	.LBB995:
 4087              	.LBB992:
 4088              	.LBB988:
 357:../../libDaisy//src/dev/oled_ssd130x.h ****         else
 4089              		.loc 4 357 48 is_stmt 0 view .LVU1064
 4090 0040 01FA09F1 		lsl	r1, r1, r9
 354:../../libDaisy//src/dev/oled_ssd130x.h ****             return;
 4091              		.loc 4 354 9 view .LVU1065
 4092 0044 07D8     		bhi	.L273
 357:../../libDaisy//src/dev/oled_ssd130x.h ****         else
 4093              		.loc 4 357 42 view .LVU1066
 4094 0046 2244     		add	r2, r2, r4
 354:../../libDaisy//src/dev/oled_ssd130x.h ****             return;
 4095              		.loc 4 354 9 view .LVU1067
 4096 0048 2FB9     		cbnz	r7, .L273
 357:../../libDaisy//src/dev/oled_ssd130x.h ****         else
 4097              		.loc 4 357 42 view .LVU1068
 4098 004a 92F86494 		ldrb	r9, [r2, #1124]	@ zero_extendqisi2
 4099 004e 41EA0901 		orr	r1, r1, r9
 4100 0052 82F86414 		strb	r1, [r2, #1124]
 4101              	.L273:
 357:../../libDaisy//src/dev/oled_ssd130x.h ****         else
 4102              		.loc 4 357 42 view .LVU1069
 4103              	.LBE988:
 4104              	.LBE992:
 4105              	.LBE995:
 268:../../libDaisy//src/hid/disp/display.h ****                 {
 4106              		.loc 3 268 44 view .LVU1070
ARM GAS  /var/folders/1y/_321xjh9623c014x9_qw12rr0000gn/T//ccqHcGuP.s 			page 123


 4107 0056 9E42     		cmp	r6, r3
 4108 0058 EAD2     		bcs	.L275
 4109              	.LVL297:
 4110              	.L274:
 268:../../libDaisy//src/hid/disp/display.h ****                 {
 4111              		.loc 3 268 44 view .LVU1071
 4112              	.LBE983:
 266:../../libDaisy//src/hid/disp/display.h ****             {
 4113              		.loc 3 266 13 is_stmt 1 view .LVU1072
 4114 005a 0130     		adds	r0, r0, #1
 4115              	.LVL298:
 266:../../libDaisy//src/hid/disp/display.h ****             {
 4116              		.loc 3 266 40 view .LVU1073
 4117 005c 8045     		cmp	r8, r0
 4118 005e E0D2     		bcs	.L269
 4119              	.L272:
 4120              	.LBB997:
 4121              	.LBB996:
 4122              	.LBB993:
 4123              	.LBB989:
 354:../../libDaisy//src/dev/oled_ssd130x.h ****             return;
 4124              		.loc 4 354 14 is_stmt 0 view .LVU1074
 4125 0060 2746     		mov	r7, r4
 4126              	.LBE989:
 4127              	.LBE993:
 4128              	.LBE996:
 4129              	.LBE997:
 4130              	.LBE982:
 4131              	.LBE981:
 4132              	.LBE980:
 4133              	.LBB998:
 192:Dubby.cpp     ****     for (int i = 0; i < 3; i++) 
 4134              		.loc 2 192 14 view .LVU1075
 4135 0062 0026     		movs	r6, #0
 4136              	.LVL299:
 192:Dubby.cpp     ****     for (int i = 0; i < 3; i++) 
 4137              		.loc 2 192 14 view .LVU1076
 4138 0064 DFF88481 		ldr	r8, .L292
 4139              	.LVL300:
 4140              	.L270:
 194:Dubby.cpp     ****         display.SetCursor(menuTextCursors[i][0], menuTextCursors[i][1]);
 4141              		.loc 2 194 9 is_stmt 1 discriminator 2 view .LVU1077
 4142              	.LBB999:
 4143              	.LBB1000:
 173:../../libDaisy//src/hid/disp/display.h ****         currentY_ = (y >= Height()) ? Height() - 1 : y;
 4144              		.loc 3 173 19 is_stmt 0 discriminator 2 view .LVU1078
 4145 0068 B7F85C90 		ldrh	r9, [r7, #92]
 4146              	.LBE1000:
 4147              	.LBE999:
 195:Dubby.cpp     ****         display.WriteString(GetTextForEnum(MAINMENU, i), Font_6x8, i == menuItemSelected ? false : 
 4148              		.loc 2 195 28 discriminator 2 view .LVU1079
 4149 006c BEEB060E 		subs	lr, lr, r6
 194:Dubby.cpp     ****         display.SetCursor(menuTextCursors[i][0], menuTextCursors[i][1]);
 4150              		.loc 2 194 26 discriminator 2 view .LVU1080
 4151 0070 B7F860C0 		ldrh	ip, [r7, #96]
 4152              	.LVL301:
 4153              	.LBB1006:
ARM GAS  /var/folders/1y/_321xjh9623c014x9_qw12rr0000gn/T//ccqHcGuP.s 			page 124


 4154              	.LBI999:
 171:../../libDaisy//src/hid/disp/display.h ****     {
 4155              		.loc 3 171 10 is_stmt 1 discriminator 2 view .LVU1081
 4156              	.LBB1001:
 173:../../libDaisy//src/hid/disp/display.h ****         currentY_ = (y >= Height()) ? Height() - 1 : y;
 4157              		.loc 3 173 9 discriminator 2 view .LVU1082
 4158              	.LBE1001:
 4159              	.LBE1006:
 195:Dubby.cpp     ****         display.WriteString(GetTextForEnum(MAINMENU, i), Font_6x8, i == menuItemSelected ? false : 
 4160              		.loc 2 195 28 is_stmt 0 discriminator 2 view .LVU1083
 4161 0074 2846     		mov	r0, r5
 4162 0076 18BF     		it	ne
 4163 0078 4FF0010E 		movne	lr, #1
 4164              	.LBB1007:
 4165              	.LBB1002:
 173:../../libDaisy//src/hid/disp/display.h ****         currentY_ = (y >= Height()) ? Height() - 1 : y;
 4166              		.loc 3 173 19 discriminator 2 view .LVU1084
 4167 007c B9F17F0F 		cmp	r9, #127
 4168              	.LBE1002:
 4169              	.LBE1007:
 195:Dubby.cpp     ****         display.WriteString(GetTextForEnum(MAINMENU, i), Font_6x8, i == menuItemSelected ? false : 
 4170              		.loc 2 195 28 discriminator 2 view .LVU1085
 4171 0080 54F82610 		ldr	r1, [r4, r6, lsl #2]
 192:Dubby.cpp     ****     for (int i = 0; i < 3; i++) 
 4172              		.loc 2 192 5 discriminator 2 view .LVU1086
 4173 0084 06F10106 		add	r6, r6, #1
 4174              	.LVL302:
 4175              	.LBB1008:
 4176              	.LBB1003:
 173:../../libDaisy//src/hid/disp/display.h ****         currentY_ = (y >= Height()) ? Height() - 1 : y;
 4177              		.loc 3 173 19 discriminator 2 view .LVU1087
 4178 0088 28BF     		it	cs
 4179 008a 4FF07F09 		movcs	r9, #127
 174:../../libDaisy//src/hid/disp/display.h ****     }
 4180              		.loc 3 174 19 discriminator 2 view .LVU1088
 4181 008e BCF13F0F 		cmp	ip, #63
 4182              	.LBE1003:
 4183              	.LBE1008:
 192:Dubby.cpp     ****     for (int i = 0; i < 3; i++) 
 4184              		.loc 2 192 23 discriminator 2 view .LVU1089
 4185 0092 07F10807 		add	r7, r7, #8
 4186              	.LVL303:
 4187              	.LBB1009:
 4188              	.LBB1004:
 174:../../libDaisy//src/hid/disp/display.h ****     }
 4189              		.loc 3 174 19 discriminator 2 view .LVU1090
 4190 0096 28BF     		it	cs
 4191 0098 4FF03F0C 		movcs	ip, #63
 4192              	.LVL304:
 173:../../libDaisy//src/hid/disp/display.h ****         currentY_ = (y >= Height()) ? Height() - 1 : y;
 4193              		.loc 3 173 19 discriminator 2 view .LVU1091
 4194 009c A4F85494 		strh	r9, [r4, #1108]	@ movhi
 174:../../libDaisy//src/hid/disp/display.h ****     }
 4195              		.loc 3 174 9 is_stmt 1 discriminator 2 view .LVU1092
 4196              	.LBE1004:
 4197              	.LBE1009:
 195:Dubby.cpp     ****         display.WriteString(GetTextForEnum(MAINMENU, i), Font_6x8, i == menuItemSelected ? false : 
ARM GAS  /var/folders/1y/_321xjh9623c014x9_qw12rr0000gn/T//ccqHcGuP.s 			page 125


 4198              		.loc 2 195 28 is_stmt 0 discriminator 2 view .LVU1093
 4199 00a0 98E80C00 		ldm	r8, {r2, r3}
 4200              	.LBB1010:
 4201              	.LBB1005:
 174:../../libDaisy//src/hid/disp/display.h ****     }
 4202              		.loc 3 174 19 discriminator 2 view .LVU1094
 4203 00a4 A4F856C4 		strh	ip, [r4, #1110]	@ movhi
 4204              	.LVL305:
 174:../../libDaisy//src/hid/disp/display.h ****     }
 4205              		.loc 3 174 19 discriminator 2 view .LVU1095
 4206              	.LBE1005:
 4207              	.LBE1010:
 195:Dubby.cpp     ****         display.WriteString(GetTextForEnum(MAINMENU, i), Font_6x8, i == menuItemSelected ? false : 
 4208              		.loc 2 195 9 is_stmt 1 discriminator 2 view .LVU1096
 4209              	.LBB1011:
 4210              	.LBI1011:
 424:Dubby.cpp     **** const char * Dubby::GetTextForEnum(MenuTypes m, int enumVal)
 4211              		.loc 2 424 14 discriminator 2 view .LVU1097
 4212              	.LBB1012:
 426:Dubby.cpp     ****     switch (m)
 4213              		.loc 2 426 5 discriminator 2 view .LVU1098
 428:Dubby.cpp     ****         case MAINMENU:
 4214              		.loc 2 428 9 discriminator 2 view .LVU1099
 429:Dubby.cpp     ****             return MenuItemsStrings[enumVal];
 4215              		.loc 2 429 13 discriminator 2 view .LVU1100
 429:Dubby.cpp     ****             return MenuItemsStrings[enumVal];
 4216              		.loc 2 429 13 is_stmt 0 discriminator 2 view .LVU1101
 4217              	.LBE1012:
 4218              	.LBE1011:
 195:Dubby.cpp     ****         display.WriteString(GetTextForEnum(MAINMENU, i), Font_6x8, i == menuItemSelected ? false : 
 4219              		.loc 2 195 28 discriminator 2 view .LVU1102
 4220 00a8 CDF800E0 		str	lr, [sp]
 4221 00ac FFF7FEFF 		bl	_ZN5daisy25OneBitGraphicsDisplayImplINS_11OledDisplayINS_13SSD130xDriverILj128ELj64ENS_24SSD130
 4222              	.LVL306:
 192:Dubby.cpp     ****     for (int i = 0; i < 3; i++) 
 4223              		.loc 2 192 5 is_stmt 1 discriminator 2 view .LVU1103
 192:Dubby.cpp     ****     for (int i = 0; i < 3; i++) 
 4224              		.loc 2 192 23 discriminator 2 view .LVU1104
 4225 00b0 032E     		cmp	r6, #3
 4226 00b2 02D0     		beq	.L276
 195:Dubby.cpp     ****         display.WriteString(GetTextForEnum(MAINMENU, i), Font_6x8, i == menuItemSelected ? false : 
 4227              		.loc 2 195 73 is_stmt 0 view .LVU1105
 4228 00b4 94F858E0 		ldrb	lr, [r4, #88]	@ zero_extendqisi2
 4229 00b8 D6E7     		b	.L270
 4230              	.L276:
 4231              	.LBE998:
 198:Dubby.cpp     ****     display.DrawRect(PANE_X_START - 1, PANE_Y_START - 1, PANE_X_END + 1, PANE_Y_END + 1, true);
 4232              		.loc 2 198 5 is_stmt 1 view .LVU1106
 4233              	.LVL307:
 4234              	.LBB1013:
 4235              	.LBI1013:
 257:../../libDaisy//src/hid/disp/display.h ****                   uint_fast8_t y1,
 4236              		.loc 3 257 10 view .LVU1107
 4237              	.LBB1014:
 4238              	.LBI1014:
 221:../../libDaisy//src/hid/disp/display.h ****                   uint_fast8_t y1,
 4239              		.loc 3 221 10 view .LVU1108
ARM GAS  /var/folders/1y/_321xjh9623c014x9_qw12rr0000gn/T//ccqHcGuP.s 			page 126


 4240              	.LBB1015:
 4241              	.LBB1016:
 4242              	.LBI1016:
  42:../../libDaisy//src/hid/disp/oled_display.h ****     {
 4243              		.loc 1 42 10 view .LVU1109
 4244              	.LBB1017:
 4245              	.LBB1018:
 4246              	.LBB1019:
 357:../../libDaisy//src/dev/oled_ssd130x.h ****         else
 4247              		.loc 4 357 42 is_stmt 0 view .LVU1110
 4248 00ba 94F8E324 		ldrb	r2, [r4, #1251]	@ zero_extendqisi2
 4249              	.LBE1019:
 4250              	.LBE1018:
 4251              		.loc 1 44 26 view .LVU1111
 4252 00be 04F58B66 		add	r6, r4, #1112
 4253              	.LVL308:
 4254              	.LBB1021:
 4255              	.LBI1018:
 352:../../libDaisy//src/dev/oled_ssd130x.h ****     {
 4256              		.loc 4 352 10 is_stmt 1 view .LVU1112
 4257 00c2 04F26441 		addw	r1, r4, #1124
 4258 00c6 04F26343 		addw	r3, r4, #1123
 4259              	.LBB1020:
 357:../../libDaisy//src/dev/oled_ssd130x.h ****         else
 4260              		.loc 4 357 42 is_stmt 0 view .LVU1113
 4261 00ca 42F00102 		orr	r2, r2, #1
 4262 00ce 04F2E240 		addw	r0, r4, #1250
 4263 00d2 84F8E324 		strb	r2, [r4, #1251]
 4264              	.LVL309:
 357:../../libDaisy//src/dev/oled_ssd130x.h ****         else
 4265              		.loc 4 357 42 view .LVU1114
 4266              	.LBE1020:
 4267              	.LBE1021:
 4268              	.LBE1017:
 4269              	.LBE1016:
 239:../../libDaisy//src/hid/disp/display.h ****         {
 4270              		.loc 3 239 26 is_stmt 1 view .LVU1115
 4271              	.L277:
 4272              	.LBB1022:
 4273              	.LBI1022:
  42:../../libDaisy//src/hid/disp/oled_display.h ****     {
 4274              		.loc 1 42 10 view .LVU1116
 4275              	.LBB1023:
 4276              	.LBI1023:
 352:../../libDaisy//src/dev/oled_ssd130x.h ****     {
 4277              		.loc 4 352 10 view .LVU1117
 4278              	.LBB1024:
 357:../../libDaisy//src/dev/oled_ssd130x.h ****         else
 4279              		.loc 4 357 42 is_stmt 0 view .LVU1118
 4280 00d6 13F8012F 		ldrb	r2, [r3, #1]!	@ zero_extendqisi2
 4281              	.LVL310:
 357:../../libDaisy//src/dev/oled_ssd130x.h ****         else
 4282              		.loc 4 357 42 view .LVU1119
 4283 00da 42F00102 		orr	r2, r2, #1
 4284              	.LBE1024:
 4285              	.LBE1023:
 4286              	.LBE1022:
ARM GAS  /var/folders/1y/_321xjh9623c014x9_qw12rr0000gn/T//ccqHcGuP.s 			page 127


 239:../../libDaisy//src/hid/disp/display.h ****         {
 4287              		.loc 3 239 26 view .LVU1120
 4288 00de 9842     		cmp	r0, r3
 4289              	.LBB1027:
 4290              	.LBB1026:
 4291              	.LBB1025:
 357:../../libDaisy//src/dev/oled_ssd130x.h ****         else
 4292              		.loc 4 357 42 view .LVU1121
 4293 00e0 1A70     		strb	r2, [r3]
 4294              	.LVL311:
 357:../../libDaisy//src/dev/oled_ssd130x.h ****         else
 4295              		.loc 4 357 42 view .LVU1122
 4296              	.LBE1025:
 4297              	.LBE1026:
 4298              	.LBE1027:
 239:../../libDaisy//src/hid/disp/display.h ****         {
 4299              		.loc 3 239 26 is_stmt 1 view .LVU1123
 4300 00e2 F8D1     		bne	.L277
 4301              	.LVL312:
 239:../../libDaisy//src/hid/disp/display.h ****         {
 4302              		.loc 3 239 26 is_stmt 0 view .LVU1124
 4303              	.LBE1015:
 4304              	.LBE1014:
 4305              	.LBB1028:
 4306              	.LBI1028:
 221:../../libDaisy//src/hid/disp/display.h ****                   uint_fast8_t y1,
 4307              		.loc 3 221 10 is_stmt 1 view .LVU1125
 4308              	.LBB1029:
 4309              	.LBB1030:
 4310              	.LBI1030:
  42:../../libDaisy//src/hid/disp/oled_display.h ****     {
 4311              		.loc 1 42 10 view .LVU1126
 4312              	.LBB1031:
 4313              	.LBI1031:
 352:../../libDaisy//src/dev/oled_ssd130x.h ****     {
 4314              		.loc 4 352 10 view .LVU1127
 4315              	.LBB1032:
 357:../../libDaisy//src/dev/oled_ssd130x.h ****         else
 4316              		.loc 4 357 42 is_stmt 0 view .LVU1128
 4317 00e4 94F8E327 		ldrb	r2, [r4, #2019]	@ zero_extendqisi2
 4318 00e8 0023     		movs	r3, #0
 4319 00ea 42F01002 		orr	r2, r2, #16
 4320 00ee 84F8E327 		strb	r2, [r4, #2019]
 4321              	.LVL313:
 357:../../libDaisy//src/dev/oled_ssd130x.h ****         else
 4322              		.loc 4 357 42 view .LVU1129
 4323              	.LBE1032:
 4324              	.LBE1031:
 4325              	.LBE1030:
 239:../../libDaisy//src/hid/disp/display.h ****         {
 4326              		.loc 3 239 26 is_stmt 1 view .LVU1130
 4327              	.L278:
 4328              	.LBB1033:
 4329              	.LBI1033:
  42:../../libDaisy//src/hid/disp/oled_display.h ****     {
 4330              		.loc 1 42 10 view .LVU1131
 4331              	.LBB1034:
ARM GAS  /var/folders/1y/_321xjh9623c014x9_qw12rr0000gn/T//ccqHcGuP.s 			page 128


 4332              	.LBI1034:
 352:../../libDaisy//src/dev/oled_ssd130x.h ****     {
 4333              		.loc 4 352 10 view .LVU1132
 4334              	.LBB1035:
 357:../../libDaisy//src/dev/oled_ssd130x.h ****         else
 4335              		.loc 4 357 42 is_stmt 0 view .LVU1133
 4336 00f2 1A01     		lsls	r2, r3, #4
 357:../../libDaisy//src/dev/oled_ssd130x.h ****         else
 4337              		.loc 4 357 54 view .LVU1134
 4338 00f4 03F00705 		and	r5, r3, #7
 357:../../libDaisy//src/dev/oled_ssd130x.h ****         else
 4339              		.loc 4 357 48 view .LVU1135
 4340 00f8 0120     		movs	r0, #1
 357:../../libDaisy//src/dev/oled_ssd130x.h ****         else
 4341              		.loc 4 357 42 view .LVU1136
 4342 00fa 42F07F02 		orr	r2, r2, #127
 4343              	.LBE1035:
 4344              	.LBE1034:
 4345              	.LBE1033:
 252:../../libDaisy//src/hid/disp/display.h ****             }
 4346              		.loc 3 252 20 view .LVU1137
 4347 00fe 0344     		add	r3, r3, r0
 4348              	.LVL314:
 4349              	.LBB1040:
 4350              	.LBB1038:
 4351              	.LBB1036:
 357:../../libDaisy//src/dev/oled_ssd130x.h ****         else
 4352              		.loc 4 357 48 view .LVU1138
 4353 0100 A840     		lsls	r0, r0, r5
 357:../../libDaisy//src/dev/oled_ssd130x.h ****         else
 4354              		.loc 4 357 42 view .LVU1139
 4355 0102 2244     		add	r2, r2, r4
 4356              	.LBE1036:
 4357              	.LBE1038:
 4358              	.LBE1040:
 239:../../libDaisy//src/hid/disp/display.h ****         {
 4359              		.loc 3 239 26 view .LVU1140
 4360 0104 342B     		cmp	r3, #52
 4361              	.LBB1041:
 4362              	.LBB1039:
 4363              	.LBB1037:
 357:../../libDaisy//src/dev/oled_ssd130x.h ****         else
 4364              		.loc 4 357 42 view .LVU1141
 4365 0106 92F86454 		ldrb	r5, [r2, #1124]	@ zero_extendqisi2
 4366 010a 40EA0500 		orr	r0, r0, r5
 4367 010e 82F86404 		strb	r0, [r2, #1124]
 4368              	.LVL315:
 357:../../libDaisy//src/dev/oled_ssd130x.h ****         else
 4369              		.loc 4 357 42 view .LVU1142
 4370              	.LBE1037:
 4371              	.LBE1039:
 4372              	.LBE1041:
 239:../../libDaisy//src/hid/disp/display.h ****         {
 4373              		.loc 3 239 26 is_stmt 1 view .LVU1143
 4374 0112 EED1     		bne	.L278
 4375              	.LVL316:
 239:../../libDaisy//src/hid/disp/display.h ****         {
ARM GAS  /var/folders/1y/_321xjh9623c014x9_qw12rr0000gn/T//ccqHcGuP.s 			page 129


 4376              		.loc 3 239 26 is_stmt 0 view .LVU1144
 4377              	.LBE1029:
 4378              	.LBE1028:
 4379              	.LBB1042:
 4380              	.LBI1042:
 221:../../libDaisy//src/hid/disp/display.h ****                   uint_fast8_t y1,
 4381              		.loc 3 221 10 is_stmt 1 view .LVU1145
 4382              	.LBB1043:
 4383              	.LBB1044:
 4384              	.LBI1044:
  42:../../libDaisy//src/hid/disp/oled_display.h ****     {
 4385              		.loc 1 42 10 view .LVU1146
 4386              	.LBB1045:
 4387              	.LBI1045:
 352:../../libDaisy//src/dev/oled_ssd130x.h ****     {
 4388              		.loc 4 352 10 view .LVU1147
 4389              	.LBB1046:
 357:../../libDaisy//src/dev/oled_ssd130x.h ****         else
 4390              		.loc 4 357 42 is_stmt 0 view .LVU1148
 4391 0114 94F86427 		ldrb	r2, [r4, #1892]	@ zero_extendqisi2
 4392 0118 04F2E470 		addw	r0, r4, #2020
 4393 011c 42F01007 		orr	r7, r2, #16
 4394 0120 04F26572 		addw	r2, r4, #1893
 4395 0124 84F86477 		strb	r7, [r4, #1892]
 4396              	.LVL317:
 357:../../libDaisy//src/dev/oled_ssd130x.h ****         else
 4397              		.loc 4 357 42 view .LVU1149
 4398              	.LBE1046:
 4399              	.LBE1045:
 4400              	.LBE1044:
 239:../../libDaisy//src/hid/disp/display.h ****         {
 4401              		.loc 3 239 26 is_stmt 1 view .LVU1150
 4402              	.L279:
 4403              	.LBB1047:
 4404              	.LBI1047:
  42:../../libDaisy//src/hid/disp/oled_display.h ****     {
 4405              		.loc 1 42 10 view .LVU1151
 4406              	.LBB1048:
 4407              	.LBI1048:
 352:../../libDaisy//src/dev/oled_ssd130x.h ****     {
 4408              		.loc 4 352 10 view .LVU1152
 4409              	.LBB1049:
 357:../../libDaisy//src/dev/oled_ssd130x.h ****         else
 4410              		.loc 4 357 42 is_stmt 0 view .LVU1153
 4411 0128 10F8015D 		ldrb	r5, [r0, #-1]!	@ zero_extendqisi2
 4412              	.LVL318:
 357:../../libDaisy//src/dev/oled_ssd130x.h ****         else
 4413              		.loc 4 357 42 view .LVU1154
 4414 012c 45F01005 		orr	r5, r5, #16
 4415              	.LBE1049:
 4416              	.LBE1048:
 4417              	.LBE1047:
 239:../../libDaisy//src/hid/disp/display.h ****         {
 4418              		.loc 3 239 26 view .LVU1155
 4419 0130 8242     		cmp	r2, r0
 4420              	.LBB1052:
 4421              	.LBB1051:
ARM GAS  /var/folders/1y/_321xjh9623c014x9_qw12rr0000gn/T//ccqHcGuP.s 			page 130


 4422              	.LBB1050:
 357:../../libDaisy//src/dev/oled_ssd130x.h ****         else
 4423              		.loc 4 357 42 view .LVU1156
 4424 0132 0570     		strb	r5, [r0]
 4425              	.LVL319:
 357:../../libDaisy//src/dev/oled_ssd130x.h ****         else
 4426              		.loc 4 357 42 view .LVU1157
 4427              	.LBE1050:
 4428              	.LBE1051:
 4429              	.LBE1052:
 239:../../libDaisy//src/hid/disp/display.h ****         {
 4430              		.loc 3 239 26 is_stmt 1 view .LVU1158
 4431 0134 F8D1     		bne	.L279
 4432              	.LVL320:
 239:../../libDaisy//src/hid/disp/display.h ****         {
 4433              		.loc 3 239 26 is_stmt 0 view .LVU1159
 4434              	.LBE1043:
 4435              	.LBE1042:
 4436              	.LBB1053:
 4437              	.LBI1053:
 221:../../libDaisy//src/hid/disp/display.h ****                   uint_fast8_t y1,
 4438              		.loc 3 221 10 is_stmt 1 view .LVU1160
 4439              	.LBB1054:
 4440              	.LBB1055:
 4441              	.LBI1055:
  42:../../libDaisy//src/hid/disp/oled_display.h ****     {
 4442              		.loc 1 42 10 view .LVU1161
 4443              	.LBB1056:
 4444              	.LBI1056:
 352:../../libDaisy//src/dev/oled_ssd130x.h ****     {
 4445              		.loc 4 352 10 view .LVU1162
 4446              	.LBB1057:
 357:../../libDaisy//src/dev/oled_ssd130x.h ****         else
 4447              		.loc 4 357 42 is_stmt 0 view .LVU1163
 4448 0136 94F86424 		ldrb	r2, [r4, #1124]	@ zero_extendqisi2
 4449 013a 0620     		movs	r0, #6
 4450 013c 42F00102 		orr	r2, r2, #1
 4451 0140 84F86424 		strb	r2, [r4, #1124]
 4452              	.LVL321:
 357:../../libDaisy//src/dev/oled_ssd130x.h ****         else
 4453              		.loc 4 357 42 view .LVU1164
 4454              	.LBE1057:
 4455              	.LBE1056:
 4456              	.LBE1055:
 239:../../libDaisy//src/hid/disp/display.h ****         {
 4457              		.loc 3 239 26 is_stmt 1 view .LVU1165
 4458 0144 03E0     		b	.L281
 4459              	.LVL322:
 4460              	.L291:
 4461              	.LBB1058:
 4462              	.LBB1059:
 4463              	.LBB1060:
 357:../../libDaisy//src/dev/oled_ssd130x.h ****         else
 4464              		.loc 4 357 42 is_stmt 0 view .LVU1166
 4465 0146 04EBC012 		add	r2, r4, r0, lsl #7
 4466 014a 92F86474 		ldrb	r7, [r2, #1124]	@ zero_extendqisi2
 4467              	.LVL323:
ARM GAS  /var/folders/1y/_321xjh9623c014x9_qw12rr0000gn/T//ccqHcGuP.s 			page 131


 4468              	.L281:
 357:../../libDaisy//src/dev/oled_ssd130x.h ****         else
 4469              		.loc 4 357 42 view .LVU1167
 4470              	.LBE1060:
 4471              	.LBE1059:
 4472              	.LBI1058:
  42:../../libDaisy//src/hid/disp/oled_display.h ****     {
 4473              		.loc 1 42 10 is_stmt 1 view .LVU1168
 4474              	.LBB1064:
 4475              	.LBI1059:
 352:../../libDaisy//src/dev/oled_ssd130x.h ****     {
 4476              		.loc 4 352 10 view .LVU1169
 4477              	.LBB1061:
 357:../../libDaisy//src/dev/oled_ssd130x.h ****         else
 4478              		.loc 4 357 54 is_stmt 0 view .LVU1170
 4479 014e 03F00705 		and	r5, r3, #7
 357:../../libDaisy//src/dev/oled_ssd130x.h ****         else
 4480              		.loc 4 357 48 view .LVU1171
 4481 0152 0122     		movs	r2, #1
 357:../../libDaisy//src/dev/oled_ssd130x.h ****         else
 4482              		.loc 4 357 42 view .LVU1172
 4483 0154 04EBC010 		add	r0, r4, r0, lsl #7
 4484              	.LBE1061:
 4485              	.LBE1064:
 4486              	.LBE1058:
 239:../../libDaisy//src/hid/disp/display.h ****         {
 4487              		.loc 3 239 26 view .LVU1173
 4488 0158 013B     		subs	r3, r3, #1
 4489              	.LVL324:
 4490              	.LBB1067:
 4491              	.LBB1065:
 4492              	.LBB1062:
 357:../../libDaisy//src/dev/oled_ssd130x.h ****         else
 4493              		.loc 4 357 48 view .LVU1174
 4494 015a 02FA05F2 		lsl	r2, r2, r5
 357:../../libDaisy//src/dev/oled_ssd130x.h ****         else
 4495              		.loc 4 357 42 view .LVU1175
 4496 015e 42EA0702 		orr	r2, r2, r7
 4497 0162 80F86424 		strb	r2, [r0, #1124]
 4498              	.LVL325:
 357:../../libDaisy//src/dev/oled_ssd130x.h ****         else
 4499              		.loc 4 357 42 view .LVU1176
 4500              	.LBE1062:
 4501              	.LBE1065:
 4502              	.LBE1067:
 239:../../libDaisy//src/hid/disp/display.h ****         {
 4503              		.loc 3 239 26 is_stmt 1 view .LVU1177
 4504              	.LBB1068:
 4505              	.LBB1066:
 4506              	.LBB1063:
 357:../../libDaisy//src/dev/oled_ssd130x.h ****         else
 4507              		.loc 4 357 28 is_stmt 0 view .LVU1178
 4508 0166 4FEAD300 		lsr	r0, r3, #3
 4509              	.LBE1063:
 4510              	.LBE1066:
 4511              	.LBE1068:
 239:../../libDaisy//src/hid/disp/display.h ****         {
ARM GAS  /var/folders/1y/_321xjh9623c014x9_qw12rr0000gn/T//ccqHcGuP.s 			page 132


 4512              		.loc 3 239 26 view .LVU1179
 4513 016a ECD1     		bne	.L291
 4514              	.LBE1054:
 4515              	.LBE1053:
 4516              	.LBE1013:
 4517              	.LBB1069:
 4518              	.LBB1070:
 4519              	.LBB1071:
 4520              	.LBB1072:
 4521              	.LBB1073:
 124:../../libDaisy//src/dev/oled_ssd130x.h ****         spi_.BlockingTransmit(&cmd, 1);
 4522              		.loc 4 124 24 view .LVU1180
 4523 016c 04F58C64 		add	r4, r4, #1120
 4524              	.LVL326:
 124:../../libDaisy//src/dev/oled_ssd130x.h ****         spi_.BlockingTransmit(&cmd, 1);
 4525              		.loc 4 124 24 view .LVU1181
 4526 0170 8846     		mov	r8, r1
 4527 0172 B025     		movs	r5, #176
 4528              	.LVL327:
 4529              	.L282:
 124:../../libDaisy//src/dev/oled_ssd130x.h ****         spi_.BlockingTransmit(&cmd, 1);
 4530              		.loc 4 124 24 view .LVU1182
 4531 0174 0027     		movs	r7, #0
 124:../../libDaisy//src/dev/oled_ssd130x.h ****         spi_.BlockingTransmit(&cmd, 1);
 4532              		.loc 4 124 23 view .LVU1183
 4533 0176 2046     		mov	r0, r4
 4534 0178 8DF80F50 		strb	r5, [sp, #15]
 4535              	.LVL328:
 124:../../libDaisy//src/dev/oled_ssd130x.h ****         spi_.BlockingTransmit(&cmd, 1);
 4536              		.loc 4 124 23 view .LVU1184
 4537              	.LBE1073:
 4538              	.LBI1072:
 122:../../libDaisy//src/dev/oled_ssd130x.h ****     {
 4539              		.loc 4 122 10 is_stmt 1 view .LVU1185
 4540              	.LBB1074:
 124:../../libDaisy//src/dev/oled_ssd130x.h ****         spi_.BlockingTransmit(&cmd, 1);
 4541              		.loc 4 124 9 view .LVU1186
 4542              	.LBE1074:
 4543              	.LBE1072:
 4544              		.loc 4 383 22 is_stmt 0 view .LVU1187
 4545 017c 0135     		adds	r5, r5, #1
 4546              	.LVL329:
 4547              	.LBB1077:
 4548              	.LBB1075:
 124:../../libDaisy//src/dev/oled_ssd130x.h ****         spi_.BlockingTransmit(&cmd, 1);
 4549              		.loc 4 124 23 view .LVU1188
 4550 017e 3946     		mov	r1, r7
 4551 0180 FFF7FEFF 		bl	dsy_gpio_write
 4552              	.LVL330:
 125:../../libDaisy//src/dev/oled_ssd130x.h ****     };
 4553              		.loc 4 125 9 is_stmt 1 view .LVU1189
 125:../../libDaisy//src/dev/oled_ssd130x.h ****     };
 4554              		.loc 4 125 30 is_stmt 0 view .LVU1190
 4555 0184 6423     		movs	r3, #100
 4556 0186 0122     		movs	r2, #1
 4557 0188 0DF10F01 		add	r1, sp, #15
 4558 018c 3046     		mov	r0, r6
ARM GAS  /var/folders/1y/_321xjh9623c014x9_qw12rr0000gn/T//ccqHcGuP.s 			page 133


 4559              	.LBE1075:
 4560              	.LBE1077:
 4561              		.loc 4 383 22 view .LVU1191
 4562 018e EDB2     		uxtb	r5, r5
 4563              	.LBB1078:
 4564              	.LBB1076:
 125:../../libDaisy//src/dev/oled_ssd130x.h ****     };
 4565              		.loc 4 125 30 view .LVU1192
 4566 0190 FFF7FEFF 		bl	_ZN5daisy9SpiHandle16BlockingTransmitEPhjm
 4567              	.LVL331:
 125:../../libDaisy//src/dev/oled_ssd130x.h ****     };
 4568              		.loc 4 125 30 view .LVU1193
 4569              	.LBE1076:
 4570              	.LBE1078:
 4571              	.LBB1079:
 4572              	.LBB1080:
 124:../../libDaisy//src/dev/oled_ssd130x.h ****         spi_.BlockingTransmit(&cmd, 1);
 4573              		.loc 4 124 23 view .LVU1194
 4574 0194 3946     		mov	r1, r7
 4575 0196 2046     		mov	r0, r4
 4576 0198 8DF80F70 		strb	r7, [sp, #15]
 4577              	.LVL332:
 124:../../libDaisy//src/dev/oled_ssd130x.h ****         spi_.BlockingTransmit(&cmd, 1);
 4578              		.loc 4 124 23 view .LVU1195
 4579              	.LBE1080:
 4580              	.LBI1079:
 122:../../libDaisy//src/dev/oled_ssd130x.h ****     {
 4581              		.loc 4 122 10 is_stmt 1 view .LVU1196
 4582              	.LBB1081:
 124:../../libDaisy//src/dev/oled_ssd130x.h ****         spi_.BlockingTransmit(&cmd, 1);
 4583              		.loc 4 124 9 view .LVU1197
 124:../../libDaisy//src/dev/oled_ssd130x.h ****         spi_.BlockingTransmit(&cmd, 1);
 4584              		.loc 4 124 23 is_stmt 0 view .LVU1198
 4585 019c FFF7FEFF 		bl	dsy_gpio_write
 4586              	.LVL333:
 125:../../libDaisy//src/dev/oled_ssd130x.h ****     };
 4587              		.loc 4 125 9 is_stmt 1 view .LVU1199
 125:../../libDaisy//src/dev/oled_ssd130x.h ****     };
 4588              		.loc 4 125 30 is_stmt 0 view .LVU1200
 4589 01a0 0122     		movs	r2, #1
 4590 01a2 6423     		movs	r3, #100
 4591 01a4 0DF10F01 		add	r1, sp, #15
 4592 01a8 3046     		mov	r0, r6
 4593 01aa FFF7FEFF 		bl	_ZN5daisy9SpiHandle16BlockingTransmitEPhjm
 4594              	.LVL334:
 125:../../libDaisy//src/dev/oled_ssd130x.h ****     };
 4595              		.loc 4 125 30 view .LVU1201
 4596 01ae 1023     		movs	r3, #16
 4597              	.LBE1081:
 4598              	.LBE1079:
 4599              	.LBB1082:
 4600              	.LBB1083:
 124:../../libDaisy//src/dev/oled_ssd130x.h ****         spi_.BlockingTransmit(&cmd, 1);
 4601              		.loc 4 124 23 view .LVU1202
 4602 01b0 3946     		mov	r1, r7
 4603 01b2 2046     		mov	r0, r4
 4604 01b4 8DF80F30 		strb	r3, [sp, #15]
ARM GAS  /var/folders/1y/_321xjh9623c014x9_qw12rr0000gn/T//ccqHcGuP.s 			page 134


 4605              	.LVL335:
 124:../../libDaisy//src/dev/oled_ssd130x.h ****         spi_.BlockingTransmit(&cmd, 1);
 4606              		.loc 4 124 23 view .LVU1203
 4607              	.LBE1083:
 4608              	.LBI1082:
 122:../../libDaisy//src/dev/oled_ssd130x.h ****     {
 4609              		.loc 4 122 10 is_stmt 1 view .LVU1204
 4610              	.LBB1084:
 124:../../libDaisy//src/dev/oled_ssd130x.h ****         spi_.BlockingTransmit(&cmd, 1);
 4611              		.loc 4 124 9 view .LVU1205
 124:../../libDaisy//src/dev/oled_ssd130x.h ****         spi_.BlockingTransmit(&cmd, 1);
 4612              		.loc 4 124 23 is_stmt 0 view .LVU1206
 4613 01b8 FFF7FEFF 		bl	dsy_gpio_write
 4614              	.LVL336:
 125:../../libDaisy//src/dev/oled_ssd130x.h ****     };
 4615              		.loc 4 125 9 is_stmt 1 view .LVU1207
 125:../../libDaisy//src/dev/oled_ssd130x.h ****     };
 4616              		.loc 4 125 30 is_stmt 0 view .LVU1208
 4617 01bc 6423     		movs	r3, #100
 4618 01be 0122     		movs	r2, #1
 4619 01c0 0DF10F01 		add	r1, sp, #15
 4620 01c4 3046     		mov	r0, r6
 4621 01c6 FFF7FEFF 		bl	_ZN5daisy9SpiHandle16BlockingTransmitEPhjm
 4622              	.LVL337:
 125:../../libDaisy//src/dev/oled_ssd130x.h ****     };
 4623              		.loc 4 125 30 view .LVU1209
 4624              	.LBE1084:
 4625              	.LBE1082:
 4626              	.LBB1085:
 4627              	.LBI1085:
 128:../../libDaisy//src/dev/oled_ssd130x.h ****     {
 4628              		.loc 4 128 10 is_stmt 1 view .LVU1210
 4629              	.LBB1086:
 130:../../libDaisy//src/dev/oled_ssd130x.h ****         spi_.BlockingTransmit(buff, size);
 4630              		.loc 4 130 9 view .LVU1211
 130:../../libDaisy//src/dev/oled_ssd130x.h ****         spi_.BlockingTransmit(buff, size);
 4631              		.loc 4 130 23 is_stmt 0 view .LVU1212
 4632 01ca 0121     		movs	r1, #1
 4633 01cc 2046     		mov	r0, r4
 4634 01ce FFF7FEFF 		bl	dsy_gpio_write
 4635              	.LVL338:
 131:../../libDaisy//src/dev/oled_ssd130x.h ****     };
 4636              		.loc 4 131 9 is_stmt 1 view .LVU1213
 131:../../libDaisy//src/dev/oled_ssd130x.h ****     };
 4637              		.loc 4 131 30 is_stmt 0 view .LVU1214
 4638 01d2 8022     		movs	r2, #128
 4639 01d4 4146     		mov	r1, r8
 4640 01d6 6423     		movs	r3, #100
 4641 01d8 3046     		mov	r0, r6
 4642              	.LBE1086:
 4643              	.LBE1085:
 4644              		.loc 4 383 22 view .LVU1215
 4645 01da 9044     		add	r8, r8, r2
 4646              	.LVL339:
 4647              	.LBB1088:
 4648              	.LBB1087:
 131:../../libDaisy//src/dev/oled_ssd130x.h ****     };
ARM GAS  /var/folders/1y/_321xjh9623c014x9_qw12rr0000gn/T//ccqHcGuP.s 			page 135


 4649              		.loc 4 131 30 view .LVU1216
 4650 01dc FFF7FEFF 		bl	_ZN5daisy9SpiHandle16BlockingTransmitEPhjm
 4651              	.LVL340:
 131:../../libDaisy//src/dev/oled_ssd130x.h ****     };
 4652              		.loc 4 131 30 view .LVU1217
 4653              	.LBE1087:
 4654              	.LBE1088:
 4655              		.loc 4 383 9 is_stmt 1 view .LVU1218
 4656              		.loc 4 383 22 view .LVU1219
 4657 01e0 B82D     		cmp	r5, #184
 4658 01e2 C7D1     		bne	.L282
 4659              	.LBE1071:
 4660              	.LBE1070:
 4661              	.LBE1069:
 201:Dubby.cpp     **** }
 4662              		.loc 2 201 1 is_stmt 0 view .LVU1220
 4663 01e4 05B0     		add	sp, sp, #20
 4664              		.cfi_def_cfa_offset 28
 4665              		@ sp needed
 4666 01e6 BDE8F083 		pop	{r4, r5, r6, r7, r8, r9, pc}
 4667              	.LVL341:
 4668              	.L293:
 201:Dubby.cpp     **** }
 4669              		.loc 2 201 1 view .LVU1221
 4670 01ea 00BF     		.align	2
 4671              	.L292:
 4672 01ec 00000000 		.word	Font_6x8
 4673              		.cfi_endproc
 4674              	.LFE2582:
 4676              		.section	.text._ZN5daisy5Dubby11ReleaseMenuEv,"ax",%progbits
 4677              		.align	1
 4678              		.p2align 2,,3
 4679              		.global	_ZN5daisy5Dubby11ReleaseMenuEv
 4680              		.syntax unified
 4681              		.thumb
 4682              		.thumb_func
 4684              	_ZN5daisy5Dubby11ReleaseMenuEv:
 4685              	.LVL342:
 4686              	.LFB2583:
 204:Dubby.cpp     **** {        
 4687              		.loc 2 204 1 is_stmt 1 view -0
 4688              		.cfi_startproc
 4689              		@ args = 0, pretend = 0, frame = 40
 4690              		@ frame_needed = 0, uses_anonymous_args = 0
 205:Dubby.cpp     ****     display.Fill(false);
 4691              		.loc 2 205 5 view .LVU1223
 4692              	.LBB1188:
 4693              	.LBI1188:
  34:../../libDaisy//src/hid/disp/oled_display.h **** 
 4694              		.loc 1 34 10 view .LVU1224
 4695              	.LBB1189:
 4696              	.LBI1189:
 362:../../libDaisy//src/dev/oled_ssd130x.h ****     {
 4697              		.loc 4 362 10 view .LVU1225
 4698              	.LBB1190:
 364:../../libDaisy//src/dev/oled_ssd130x.h ****         {
 4699              		.loc 4 364 29 view .LVU1226
ARM GAS  /var/folders/1y/_321xjh9623c014x9_qw12rr0000gn/T//ccqHcGuP.s 			page 136


 4700              	.LBE1190:
 4701              	.LBE1189:
 4702              	.LBE1188:
 204:Dubby.cpp     **** {        
 4703              		.loc 2 204 1 is_stmt 0 view .LVU1227
 4704 0000 2DE9F04F 		push	{r4, r5, r6, r7, r8, r9, r10, fp, lr}
 4705              		.cfi_def_cfa_offset 36
 4706              		.cfi_offset 4, -36
 4707              		.cfi_offset 5, -32
 4708              		.cfi_offset 6, -28
 4709              		.cfi_offset 7, -24
 4710              		.cfi_offset 8, -20
 4711              		.cfi_offset 9, -16
 4712              		.cfi_offset 10, -12
 4713              		.cfi_offset 11, -8
 4714              		.cfi_offset 14, -4
 4715 0004 0446     		mov	r4, r0
 4716              	.LBB1195:
 4717              	.LBB1193:
 4718              	.LBB1191:
 366:../../libDaisy//src/dev/oled_ssd130x.h ****         }
 4719              		.loc 4 366 24 view .LVU1228
 4720 0006 4FF48062 		mov	r2, #1024
 4721 000a 0021     		movs	r1, #0
 4722 000c 00F26440 		addw	r0, r0, #1124
 4723              	.LVL343:
 366:../../libDaisy//src/dev/oled_ssd130x.h ****         }
 4724              		.loc 4 366 24 view .LVU1229
 4725              	.LBE1191:
 4726              	.LBE1193:
 4727              	.LBE1195:
 206:Dubby.cpp     ****     display.DrawRect(menuBoxBounding[menuItemSelected][0], menuBoxBounding[menuItemSelected][1], me
 4728              		.loc 2 206 21 view .LVU1230
 4729 0010 04F58A63 		add	r3, r4, #1104
 204:Dubby.cpp     **** {        
 4730              		.loc 2 204 1 view .LVU1231
 4731 0014 2DED028B 		vpush.64	{d8}
 4732              		.cfi_def_cfa_offset 44
 4733              		.cfi_offset 80, -44
 4734              		.cfi_offset 81, -40
 4735 0018 8DB0     		sub	sp, sp, #52
 4736              		.cfi_def_cfa_offset 96
 206:Dubby.cpp     ****     display.DrawRect(menuBoxBounding[menuItemSelected][0], menuBoxBounding[menuItemSelected][1], me
 4737              		.loc 2 206 21 view .LVU1232
 4738 001a 08EE103A 		vmov	s16, r3	@ int
 4739              	.LBB1196:
 4740              	.LBB1194:
 4741              	.LBB1192:
 366:../../libDaisy//src/dev/oled_ssd130x.h ****         }
 4742              		.loc 4 366 24 view .LVU1233
 4743 001e FFF7FEFF 		bl	memset
 4744              	.LVL344:
 366:../../libDaisy//src/dev/oled_ssd130x.h ****         }
 4745              		.loc 4 366 24 view .LVU1234
 4746              	.LBE1192:
 4747              	.LBE1194:
 4748              	.LBE1196:
ARM GAS  /var/folders/1y/_321xjh9623c014x9_qw12rr0000gn/T//ccqHcGuP.s 			page 137


 206:Dubby.cpp     ****     display.DrawRect(menuBoxBounding[menuItemSelected][0], menuBoxBounding[menuItemSelected][1], me
 4749              		.loc 2 206 5 is_stmt 1 view .LVU1235
 206:Dubby.cpp     ****     display.DrawRect(menuBoxBounding[menuItemSelected][0], menuBoxBounding[menuItemSelected][1], me
 4750              		.loc 2 206 38 is_stmt 0 view .LVU1236
 4751 0022 94F85830 		ldrb	r3, [r4, #88]	@ zero_extendqisi2
 206:Dubby.cpp     ****     display.DrawRect(menuBoxBounding[menuItemSelected][0], menuBoxBounding[menuItemSelected][1], me
 4752              		.loc 2 206 95 view .LVU1237
 4753 0026 04EB0312 		add	r2, r4, r3, lsl #4
 4754 002a D2E91D73 		ldrd	r7, r3, [r2, #116]
 206:Dubby.cpp     ****     display.DrawRect(menuBoxBounding[menuItemSelected][0], menuBoxBounding[menuItemSelected][1], me
 4755              		.loc 2 206 171 view .LVU1238
 4756 002e D2E91F62 		ldrd	r6, r2, [r2, #124]
 206:Dubby.cpp     ****     display.DrawRect(menuBoxBounding[menuItemSelected][0], menuBoxBounding[menuItemSelected][1], me
 4757              		.loc 2 206 95 view .LVU1239
 4758 0032 0393     		str	r3, [sp, #12]
 4759              	.LBB1197:
 4760              	.LBB1198:
 4761              	.LBB1199:
 227:../../libDaisy//src/hid/disp/display.h ****         int_fast16_t deltaY = abs((int_fast16_t)y2 - (int_fast16_t)y1);
 4762              		.loc 3 227 52 view .LVU1240
 4763 0034 A6EB0709 		sub	r9, r6, r7
 4764              	.LBE1199:
 4765              	.LBE1198:
 4766              	.LBE1197:
 206:Dubby.cpp     ****     display.DrawRect(menuBoxBounding[menuItemSelected][0], menuBoxBounding[menuItemSelected][1], me
 4767              		.loc 2 206 21 view .LVU1241
 4768 0038 3046     		mov	r0, r6
 4769              	.LVL345:
 4770              	.LBB1292:
 4771              	.LBI1197:
 257:../../libDaisy//src/hid/disp/display.h ****                   uint_fast8_t y1,
 4772              		.loc 3 257 10 is_stmt 1 view .LVU1242
 4773              	.LBB1225:
 4774              	.LBI1198:
 221:../../libDaisy//src/hid/disp/display.h ****                   uint_fast8_t y1,
 4775              		.loc 3 221 10 view .LVU1243
 4776              	.LBE1225:
 4777              	.LBE1292:
 206:Dubby.cpp     ****     display.DrawRect(menuBoxBounding[menuItemSelected][0], menuBoxBounding[menuItemSelected][1], me
 4778              		.loc 2 206 171 is_stmt 0 view .LVU1244
 4779 003a 0492     		str	r2, [sp, #16]
 4780              	.LBB1293:
 4781              	.LBB1226:
 4782              	.LBB1221:
 227:../../libDaisy//src/hid/disp/display.h ****         int_fast16_t deltaY = abs((int_fast16_t)y2 - (int_fast16_t)y1);
 4783              		.loc 3 227 22 view .LVU1245
 4784 003c B9F1000F 		cmp	r9, #0
 4785 0040 B8BF     		it	lt
 4786 0042 C9F10009 		rsblt	r9, r9, #0
 4787              	.LVL346:
 229:../../libDaisy//src/hid/disp/display.h ****         int_fast16_t signY  = ((y1 < y2) ? 1 : -1);
 4788              		.loc 3 229 42 view .LVU1246
 4789 0046 B742     		cmp	r7, r6
 4790 0048 C0F0BB81 		bcc	.L295
 4791              	.LVL347:
 4792              	.LBB1200:
 4793              	.LBI1200:
ARM GAS  /var/folders/1y/_321xjh9623c014x9_qw12rr0000gn/T//ccqHcGuP.s 			page 138


  42:../../libDaisy//src/hid/disp/oled_display.h ****     {
 4794              		.loc 1 42 10 is_stmt 1 view .LVU1247
 4795              	.LBB1201:
 4796              	.LBB1202:
 4797              	.LBB1203:
 354:../../libDaisy//src/dev/oled_ssd130x.h ****             return;
 4798              		.loc 4 354 14 is_stmt 0 view .LVU1248
 4799 004c 7F2E     		cmp	r6, #127
 4800              	.LBE1203:
 4801              	.LBE1202:
 4802              		.loc 1 44 26 view .LVU1249
 4803 004e 04F58B65 		add	r5, r4, #1112
 4804              	.LVL348:
 4805              	.LBB1207:
 4806              	.LBI1202:
 352:../../libDaisy//src/dev/oled_ssd130x.h ****     {
 4807              		.loc 4 352 10 is_stmt 1 view .LVU1250
 4808              	.LBE1207:
 4809              	.LBE1201:
 4810              	.LBE1200:
 229:../../libDaisy//src/hid/disp/display.h ****         int_fast16_t signY  = ((y1 < y2) ? 1 : -1);
 4811              		.loc 3 229 42 is_stmt 0 view .LVU1251
 4812 0052 4FF0FF3B 		mov	fp, #-1
 4813              	.LBB1215:
 4814              	.LBB1212:
 4815              	.LBB1208:
 4816              	.LBB1204:
 354:../../libDaisy//src/dev/oled_ssd130x.h ****             return;
 4817              		.loc 4 354 14 view .LVU1252
 4818 0056 94BF     		ite	ls
 4819 0058 0021     		movls	r1, #0
 4820 005a 0121     		movhi	r1, #1
 354:../../libDaisy//src/dev/oled_ssd130x.h ****             return;
 4821              		.loc 4 354 28 view .LVU1253
 4822 005c 3F2B     		cmp	r3, #63
 354:../../libDaisy//src/dev/oled_ssd130x.h ****             return;
 4823              		.loc 4 354 14 view .LVU1254
 4824 005e 0691     		str	r1, [sp, #24]
 354:../../libDaisy//src/dev/oled_ssd130x.h ****             return;
 4825              		.loc 4 354 28 view .LVU1255
 4826 0060 94BF     		ite	ls
 4827 0062 0023     		movls	r3, #0
 4828              	.LVL349:
 354:../../libDaisy//src/dev/oled_ssd130x.h ****             return;
 4829              		.loc 4 354 28 view .LVU1256
 4830 0064 0123     		movhi	r3, #1
 4831 0066 0893     		str	r3, [sp, #32]
 354:../../libDaisy//src/dev/oled_ssd130x.h ****             return;
 4832              		.loc 4 354 9 view .LVU1257
 4833 0068 99B9     		cbnz	r1, .L296
 4834 006a 93B9     		cbnz	r3, .L296
 4835              	.LVL350:
 4836              	.L332:
 357:../../libDaisy//src/dev/oled_ssd130x.h ****         else
 4837              		.loc 4 357 28 view .LVU1258
 4838 006c 0399     		ldr	r1, [sp, #12]
 4839 006e CB08     		lsrs	r3, r1, #3
ARM GAS  /var/folders/1y/_321xjh9623c014x9_qw12rr0000gn/T//ccqHcGuP.s 			page 139


 357:../../libDaisy//src/dev/oled_ssd130x.h ****         else
 4840              		.loc 4 357 54 view .LVU1259
 4841 0070 01F0070C 		and	ip, r1, #7
 357:../../libDaisy//src/dev/oled_ssd130x.h ****         else
 4842              		.loc 4 357 48 view .LVU1260
 4843 0074 0121     		movs	r1, #1
 357:../../libDaisy//src/dev/oled_ssd130x.h ****         else
 4844              		.loc 4 357 42 view .LVU1261
 4845 0076 06EBC313 		add	r3, r6, r3, lsl #7
 357:../../libDaisy//src/dev/oled_ssd130x.h ****         else
 4846              		.loc 4 357 48 view .LVU1262
 4847 007a 01FA0CF1 		lsl	r1, r1, ip
 357:../../libDaisy//src/dev/oled_ssd130x.h ****         else
 4848              		.loc 4 357 42 view .LVU1263
 4849 007e 2344     		add	r3, r3, r4
 4850 0080 93F864C4 		ldrb	ip, [r3, #1124]	@ zero_extendqisi2
 4851 0084 41EA0C01 		orr	r1, r1, ip
 4852 0088 83F86414 		strb	r1, [r3, #1124]
 4853              	.LVL351:
 357:../../libDaisy//src/dev/oled_ssd130x.h ****         else
 4854              		.loc 4 357 42 view .LVU1264
 4855 008c 0023     		movs	r3, #0
 4856 008e 0893     		str	r3, [sp, #32]
 4857 0090 0693     		str	r3, [sp, #24]
 4858              	.L296:
 4859              	.LVL352:
 357:../../libDaisy//src/dev/oled_ssd130x.h ****         else
 4860              		.loc 4 357 42 view .LVU1265
 4861              	.LBE1204:
 4862              	.LBE1208:
 4863              	.LBE1212:
 4864              	.LBE1215:
 239:../../libDaisy//src/hid/disp/display.h ****         {
 4865              		.loc 3 239 26 is_stmt 1 view .LVU1266
 4866 0092 B742     		cmp	r7, r6
 4867 0094 00F0C881 		beq	.L375
 4868              	.L298:
 4869              	.LVL353:
 227:../../libDaisy//src/hid/disp/display.h ****         int_fast16_t deltaY = abs((int_fast16_t)y2 - (int_fast16_t)y1);
 4870              		.loc 3 227 22 is_stmt 0 view .LVU1267
 4871 0098 C846     		mov	r8, r9
 4872              	.LBE1221:
 4873              	.LBE1226:
 4874              	.LBE1293:
 206:Dubby.cpp     ****     display.DrawRect(menuBoxBounding[menuItemSelected][0], menuBoxBounding[menuItemSelected][1], me
 4875              		.loc 2 206 21 view .LVU1268
 4876 009a DDF80CC0 		ldr	ip, [sp, #12]
 4877 009e BE46     		mov	lr, r7
 4878              	.L300:
 4879              	.LVL354:
 4880              	.LBB1294:
 4881              	.LBB1227:
 4882              	.LBB1222:
 4883              	.LBB1216:
 4884              	.LBI1216:
  42:../../libDaisy//src/hid/disp/oled_display.h ****     {
 4885              		.loc 1 42 10 is_stmt 1 view .LVU1269
ARM GAS  /var/folders/1y/_321xjh9623c014x9_qw12rr0000gn/T//ccqHcGuP.s 			page 140


 4886              	.LBB1217:
 4887              	.LBI1217:
 352:../../libDaisy//src/dev/oled_ssd130x.h ****     {
 4888              		.loc 4 352 10 view .LVU1270
 4889              	.LBB1218:
 357:../../libDaisy//src/dev/oled_ssd130x.h ****         else
 4890              		.loc 4 357 28 is_stmt 0 view .LVU1271
 4891 00a0 4FEADC03 		lsr	r3, ip, #3
 357:../../libDaisy//src/dev/oled_ssd130x.h ****         else
 4892              		.loc 4 357 54 view .LVU1272
 4893 00a4 0CF00701 		and	r1, ip, #7
 357:../../libDaisy//src/dev/oled_ssd130x.h ****         else
 4894              		.loc 4 357 48 view .LVU1273
 4895 00a8 4FF0010A 		mov	r10, #1
 354:../../libDaisy//src/dev/oled_ssd130x.h ****             return;
 4896              		.loc 4 354 9 view .LVU1274
 4897 00ac BEF17F0F 		cmp	lr, #127
 357:../../libDaisy//src/dev/oled_ssd130x.h ****         else
 4898              		.loc 4 357 42 view .LVU1275
 4899 00b0 0EEBC313 		add	r3, lr, r3, lsl #7
 357:../../libDaisy//src/dev/oled_ssd130x.h ****         else
 4900              		.loc 4 357 48 view .LVU1276
 4901 00b4 0AFA01F1 		lsl	r1, r10, r1
 354:../../libDaisy//src/dev/oled_ssd130x.h ****             return;
 4902              		.loc 4 354 9 view .LVU1277
 4903 00b8 09D8     		bhi	.L301
 4904 00ba BCF13F0F 		cmp	ip, #63
 357:../../libDaisy//src/dev/oled_ssd130x.h ****         else
 4905              		.loc 4 357 42 view .LVU1278
 4906 00be 2344     		add	r3, r3, r4
 354:../../libDaisy//src/dev/oled_ssd130x.h ****             return;
 4907              		.loc 4 354 9 view .LVU1279
 4908 00c0 05D8     		bhi	.L301
 357:../../libDaisy//src/dev/oled_ssd130x.h ****         else
 4909              		.loc 4 357 42 view .LVU1280
 4910 00c2 93F864A4 		ldrb	r10, [r3, #1124]	@ zero_extendqisi2
 4911 00c6 41EA0A01 		orr	r1, r1, r10
 4912 00ca 83F86414 		strb	r1, [r3, #1124]
 4913              	.L301:
 357:../../libDaisy//src/dev/oled_ssd130x.h ****         else
 4914              		.loc 4 357 42 view .LVU1281
 4915              	.LBE1218:
 4916              	.LBE1217:
 4917              	.LBE1216:
 243:../../libDaisy//src/hid/disp/display.h ****             {
 4918              		.loc 3 243 13 view .LVU1282
 4919 00ce 5FEA4803 		lsls	r3, r8, #1
 246:../../libDaisy//src/hid/disp/display.h ****             }
 4920              		.loc 3 246 20 view .LVU1283
 4921 00d2 18BF     		it	ne
 4922 00d4 DE44     		addne	lr, lr, fp
 4923              	.LVL355:
 249:../../libDaisy//src/hid/disp/display.h ****             {
 4924              		.loc 3 249 13 view .LVU1284
 4925 00d6 9945     		cmp	r9, r3
 4926 00d8 02DD     		ble	.L303
 251:../../libDaisy//src/hid/disp/display.h ****                 y1 += signY;
ARM GAS  /var/folders/1y/_321xjh9623c014x9_qw12rr0000gn/T//ccqHcGuP.s 			page 141


 4927              		.loc 3 251 23 view .LVU1285
 4928 00da C844     		add	r8, r8, r9
 4929              	.LVL356:
 252:../../libDaisy//src/hid/disp/display.h ****             }
 4930              		.loc 3 252 20 view .LVU1286
 4931 00dc 0CF1FF3C 		add	ip, ip, #-1
 4932              	.LVL357:
 4933              	.L303:
 239:../../libDaisy//src/hid/disp/display.h ****         {
 4934              		.loc 3 239 26 is_stmt 1 view .LVU1287
 4935 00e0 7645     		cmp	r6, lr
 4936 00e2 DDD1     		bne	.L300
 239:../../libDaisy//src/hid/disp/display.h ****         {
 4937              		.loc 3 239 26 is_stmt 0 view .LVU1288
 4938 00e4 039B     		ldr	r3, [sp, #12]
 4939 00e6 6345     		cmp	r3, ip
 4940 00e8 DAD1     		bne	.L300
 4941 00ea 0023     		movs	r3, #0
 4942 00ec 0993     		str	r3, [sp, #36]
 4943              	.LVL358:
 4944              	.L297:
 239:../../libDaisy//src/hid/disp/display.h ****         {
 4945              		.loc 3 239 26 view .LVU1289
 4946              	.LBE1222:
 4947              	.LBE1227:
 4948              	.LBB1228:
 4949              	.LBI1228:
 221:../../libDaisy//src/hid/disp/display.h ****                   uint_fast8_t y1,
 4950              		.loc 3 221 10 is_stmt 1 view .LVU1290
 4951              	.LBB1229:
 228:../../libDaisy//src/hid/disp/display.h ****         int_fast16_t signX  = ((x1 < x2) ? 1 : -1);
 4952              		.loc 3 228 52 is_stmt 0 view .LVU1291
 4953 00ee DDE90331 		ldrd	r3, r1, [sp, #12]
 4954 00f2 CB1A     		subs	r3, r1, r3
 228:../../libDaisy//src/hid/disp/display.h ****         int_fast16_t signX  = ((x1 < x2) ? 1 : -1);
 4955              		.loc 3 228 22 view .LVU1292
 4956 00f4 83EAE37C 		eor	ip, r3, r3, asr #31
 4957 00f8 ACEBE37C 		sub	ip, ip, r3, asr #31
 230:../../libDaisy//src/hid/disp/display.h ****         int_fast16_t error  = deltaX - deltaY;
 4958              		.loc 3 230 42 view .LVU1293
 4959 00fc 039B     		ldr	r3, [sp, #12]
 4960 00fe 8B42     		cmp	r3, r1
 228:../../libDaisy//src/hid/disp/display.h ****         int_fast16_t signX  = ((x1 < x2) ? 1 : -1);
 4961              		.loc 3 228 22 view .LVU1294
 4962 0100 CDF814C0 		str	ip, [sp, #20]
 4963              	.LVL359:
 230:../../libDaisy//src/hid/disp/display.h ****         int_fast16_t error  = deltaX - deltaY;
 4964              		.loc 3 230 42 view .LVU1295
 4965 0104 C0F07381 		bcc	.L304
 4966              	.LVL360:
 4967              	.LBB1230:
 4968              	.LBB1231:
 4969              	.LBB1232:
 354:../../libDaisy//src/dev/oled_ssd130x.h ****             return;
 4970              		.loc 4 354 28 view .LVU1296
 4971 0108 3F29     		cmp	r1, #63
 4972              	.LBE1232:
ARM GAS  /var/folders/1y/_321xjh9623c014x9_qw12rr0000gn/T//ccqHcGuP.s 			page 142


 4973              	.LBE1231:
 4974              	.LBE1230:
 231:../../libDaisy//src/hid/disp/display.h ****         int_fast16_t error2;
 4975              		.loc 3 231 22 view .LVU1297
 4976 010a 6346     		mov	r3, ip
 4977              	.LBB1245:
 4978              	.LBB1239:
 4979              	.LBB1233:
 354:../../libDaisy//src/dev/oled_ssd130x.h ****             return;
 4980              		.loc 4 354 9 view .LVU1298
 4981 010c 0699     		ldr	r1, [sp, #24]
 4982              	.LBE1233:
 4983              	.LBE1239:
 4984              	.LBE1245:
 231:../../libDaisy//src/hid/disp/display.h ****         int_fast16_t error2;
 4985              		.loc 3 231 22 view .LVU1299
 4986 010e CCF1000A 		rsb	r10, ip, #0
 4987              	.LVL361:
 4988              	.LBB1246:
 4989              	.LBI1230:
  42:../../libDaisy//src/hid/disp/oled_display.h ****     {
 4990              		.loc 1 42 10 is_stmt 1 view .LVU1300
 4991              	.LBB1240:
 4992              	.LBI1231:
 352:../../libDaisy//src/dev/oled_ssd130x.h ****     {
 4993              		.loc 4 352 10 view .LVU1301
 4994              	.LBB1234:
 354:../../libDaisy//src/dev/oled_ssd130x.h ****             return;
 4995              		.loc 4 354 28 is_stmt 0 view .LVU1302
 4996 0112 94BF     		ite	ls
 4997 0114 0023     		movls	r3, #0
 4998 0116 0123     		movhi	r3, #1
 4999 0118 0793     		str	r3, [sp, #28]
 354:../../libDaisy//src/dev/oled_ssd130x.h ****             return;
 5000              		.loc 4 354 9 view .LVU1303
 5001 011a 0029     		cmp	r1, #0
 5002 011c 40F07981 		bne	.L336
 5003 0120 002B     		cmp	r3, #0
 5004 0122 40F07681 		bne	.L336
 5005              	.LBE1234:
 5006              	.LBE1240:
 5007              	.LBE1246:
 230:../../libDaisy//src/hid/disp/display.h ****         int_fast16_t error  = deltaX - deltaY;
 5008              		.loc 3 230 42 view .LVU1304
 5009 0126 4FF0FF33 		mov	r3, #-1
 5010 012a 0693     		str	r3, [sp, #24]
 5011              	.LVL362:
 5012              	.L331:
 5013              	.LBB1247:
 5014              	.LBB1241:
 5015              	.LBB1235:
 357:../../libDaisy//src/dev/oled_ssd130x.h ****         else
 5016              		.loc 4 357 28 view .LVU1305
 5017 012c 0499     		ldr	r1, [sp, #16]
 357:../../libDaisy//src/dev/oled_ssd130x.h ****         else
 5018              		.loc 4 357 48 view .LVU1306
 5019 012e 4FF0010C 		mov	ip, #1
ARM GAS  /var/folders/1y/_321xjh9623c014x9_qw12rr0000gn/T//ccqHcGuP.s 			page 143


 357:../../libDaisy//src/dev/oled_ssd130x.h ****         else
 5020              		.loc 4 357 28 view .LVU1307
 5021 0132 CB08     		lsrs	r3, r1, #3
 357:../../libDaisy//src/dev/oled_ssd130x.h ****         else
 5022              		.loc 4 357 54 view .LVU1308
 5023 0134 01F00701 		and	r1, r1, #7
 357:../../libDaisy//src/dev/oled_ssd130x.h ****         else
 5024              		.loc 4 357 42 view .LVU1309
 5025 0138 06EBC313 		add	r3, r6, r3, lsl #7
 357:../../libDaisy//src/dev/oled_ssd130x.h ****         else
 5026              		.loc 4 357 48 view .LVU1310
 5027 013c 0CFA01F1 		lsl	r1, ip, r1
 357:../../libDaisy//src/dev/oled_ssd130x.h ****         else
 5028              		.loc 4 357 42 view .LVU1311
 5029 0140 2344     		add	r3, r3, r4
 5030 0142 93F864C4 		ldrb	ip, [r3, #1124]	@ zero_extendqisi2
 5031 0146 41EA0C01 		orr	r1, r1, ip
 5032 014a 83F86414 		strb	r1, [r3, #1124]
 5033 014e 0023     		movs	r3, #0
 5034 0150 0793     		str	r3, [sp, #28]
 5035              	.LVL363:
 357:../../libDaisy//src/dev/oled_ssd130x.h ****         else
 5036              		.loc 4 357 42 view .LVU1312
 5037              	.LBE1235:
 5038              	.LBE1241:
 5039              	.LBE1247:
 239:../../libDaisy//src/hid/disp/display.h ****         {
 5040              		.loc 3 239 26 is_stmt 1 view .LVU1313
 5041 0152 DDE90331 		ldrd	r3, r1, [sp, #12]
 5042 0156 8B42     		cmp	r3, r1
 5043 0158 00F06381 		beq	.L376
 5044              	.L307:
 5045              	.LVL364:
 230:../../libDaisy//src/hid/disp/display.h ****         int_fast16_t error  = deltaX - deltaY;
 5046              		.loc 3 230 42 is_stmt 0 view .LVU1314
 5047 015c D646     		mov	lr, r10
 5048              	.LBE1229:
 5049              	.LBE1228:
 5050              	.LBE1294:
 206:Dubby.cpp     ****     display.DrawRect(menuBoxBounding[menuItemSelected][0], menuBoxBounding[menuItemSelected][1], me
 5051              		.loc 2 206 21 view .LVU1315
 5052 015e 0399     		ldr	r1, [sp, #12]
 5053 0160 B446     		mov	ip, r6
 5054              	.L309:
 5055              	.LVL365:
 5056              	.LBB1295:
 5057              	.LBB1259:
 5058              	.LBB1257:
 5059              	.LBB1248:
 5060              	.LBI1248:
  42:../../libDaisy//src/hid/disp/oled_display.h ****     {
 5061              		.loc 1 42 10 is_stmt 1 view .LVU1316
 5062              	.LBB1249:
 5063              	.LBI1249:
 352:../../libDaisy//src/dev/oled_ssd130x.h ****     {
 5064              		.loc 4 352 10 view .LVU1317
 5065              	.LBB1250:
ARM GAS  /var/folders/1y/_321xjh9623c014x9_qw12rr0000gn/T//ccqHcGuP.s 			page 144


 357:../../libDaisy//src/dev/oled_ssd130x.h ****         else
 5066              		.loc 4 357 48 is_stmt 0 view .LVU1318
 5067 0162 4FF0010B 		mov	fp, #1
 357:../../libDaisy//src/dev/oled_ssd130x.h ****         else
 5068              		.loc 4 357 28 view .LVU1319
 5069 0166 CB08     		lsrs	r3, r1, #3
 357:../../libDaisy//src/dev/oled_ssd130x.h ****         else
 5070              		.loc 4 357 54 view .LVU1320
 5071 0168 01F00708 		and	r8, r1, #7
 354:../../libDaisy//src/dev/oled_ssd130x.h ****             return;
 5072              		.loc 4 354 9 view .LVU1321
 5073 016c BCF17F0F 		cmp	ip, #127
 357:../../libDaisy//src/dev/oled_ssd130x.h ****         else
 5074              		.loc 4 357 42 view .LVU1322
 5075 0170 0CEBC313 		add	r3, ip, r3, lsl #7
 5076              	.LBE1250:
 5077              	.LBE1249:
 5078              	.LBE1248:
 242:../../libDaisy//src/hid/disp/display.h ****             if(error2 > -deltaY)
 5079              		.loc 3 242 20 view .LVU1323
 5080 0174 0EFA0BF9 		lsl	r9, lr, fp
 5081              	.LVL366:
 5082              	.LBB1253:
 5083              	.LBB1252:
 5084              	.LBB1251:
 357:../../libDaisy//src/dev/oled_ssd130x.h ****         else
 5085              		.loc 4 357 48 view .LVU1324
 5086 0178 0BFA08F8 		lsl	r8, fp, r8
 354:../../libDaisy//src/dev/oled_ssd130x.h ****             return;
 5087              		.loc 4 354 9 view .LVU1325
 5088 017c 08D8     		bhi	.L310
 5089 017e 3F29     		cmp	r1, #63
 357:../../libDaisy//src/dev/oled_ssd130x.h ****         else
 5090              		.loc 4 357 42 view .LVU1326
 5091 0180 2344     		add	r3, r3, r4
 354:../../libDaisy//src/dev/oled_ssd130x.h ****             return;
 5092              		.loc 4 354 9 view .LVU1327
 5093 0182 05D8     		bhi	.L310
 357:../../libDaisy//src/dev/oled_ssd130x.h ****         else
 5094              		.loc 4 357 42 view .LVU1328
 5095 0184 93F864B4 		ldrb	fp, [r3, #1124]	@ zero_extendqisi2
 5096 0188 48EA0B08 		orr	r8, r8, fp
 5097 018c 83F86484 		strb	r8, [r3, #1124]
 5098              	.L310:
 357:../../libDaisy//src/dev/oled_ssd130x.h ****         else
 5099              		.loc 4 357 42 view .LVU1329
 5100              	.LBE1251:
 5101              	.LBE1252:
 5102              	.LBE1253:
 243:../../libDaisy//src/hid/disp/display.h ****             {
 5103              		.loc 3 243 13 view .LVU1330
 5104 0190 BAEB4E0F 		cmp	r10, lr, lsl #1
 5105 0194 04DA     		bge	.L311
 245:../../libDaisy//src/hid/disp/display.h ****                 x1 += signX;
 5106              		.loc 3 245 23 view .LVU1331
 5107 0196 059B     		ldr	r3, [sp, #20]
 246:../../libDaisy//src/hid/disp/display.h ****             }
ARM GAS  /var/folders/1y/_321xjh9623c014x9_qw12rr0000gn/T//ccqHcGuP.s 			page 145


 5108              		.loc 3 246 20 view .LVU1332
 5109 0198 0CF1FF3C 		add	ip, ip, #-1
 5110              	.LVL367:
 245:../../libDaisy//src/hid/disp/display.h ****                 x1 += signX;
 5111              		.loc 3 245 23 view .LVU1333
 5112 019c AEEB030E 		sub	lr, lr, r3
 5113              	.LVL368:
 5114              	.L311:
 249:../../libDaisy//src/hid/disp/display.h ****             {
 5115              		.loc 3 249 13 view .LVU1334
 5116 01a0 B9F1000F 		cmp	r9, #0
 5117 01a4 01D0     		beq	.L312
 252:../../libDaisy//src/hid/disp/display.h ****             }
 5118              		.loc 3 252 20 view .LVU1335
 5119 01a6 069B     		ldr	r3, [sp, #24]
 5120 01a8 1944     		add	r1, r1, r3
 5121              	.LVL369:
 5122              	.L312:
 239:../../libDaisy//src/hid/disp/display.h ****         {
 5123              		.loc 3 239 26 is_stmt 1 view .LVU1336
 5124 01aa 6645     		cmp	r6, ip
 5125 01ac D9D1     		bne	.L309
 239:../../libDaisy//src/hid/disp/display.h ****         {
 5126              		.loc 3 239 26 is_stmt 0 view .LVU1337
 5127 01ae 049B     		ldr	r3, [sp, #16]
 5128 01b0 8B42     		cmp	r3, r1
 5129 01b2 D6D1     		bne	.L309
 5130 01b4 4FF0000B 		mov	fp, #0
 5131              	.LVL370:
 5132              	.L306:
 239:../../libDaisy//src/hid/disp/display.h ****         {
 5133              		.loc 3 239 26 view .LVU1338
 5134              	.LBE1257:
 5135              	.LBE1259:
 5136              	.LBB1260:
 5137              	.LBI1260:
 221:../../libDaisy//src/hid/disp/display.h ****                   uint_fast8_t y1,
 5138              		.loc 3 221 10 is_stmt 1 view .LVU1339
 5139              	.LBB1261:
 227:../../libDaisy//src/hid/disp/display.h ****         int_fast16_t deltaY = abs((int_fast16_t)y2 - (int_fast16_t)y1);
 5140              		.loc 3 227 52 is_stmt 0 view .LVU1340
 5141 01b8 A7EB060E 		sub	lr, r7, r6
 229:../../libDaisy//src/hid/disp/display.h ****         int_fast16_t signY  = ((y1 < y2) ? 1 : -1);
 5142              		.loc 3 229 42 view .LVU1341
 5143 01bc B742     		cmp	r7, r6
 5144 01be 8CBF     		ite	hi
 5145 01c0 0126     		movhi	r6, #1
 5146 01c2 4FF0FF36 		movls	r6, #-1
 5147              	.LBB1262:
 5148              	.LBB1263:
 5149              	.LBB1264:
 354:../../libDaisy//src/dev/oled_ssd130x.h ****             return;
 5150              		.loc 4 354 9 view .LVU1342
 5151 01c6 079B     		ldr	r3, [sp, #28]
 5152              	.LBE1264:
 5153              	.LBE1263:
 5154              	.LBE1262:
ARM GAS  /var/folders/1y/_321xjh9623c014x9_qw12rr0000gn/T//ccqHcGuP.s 			page 146


 227:../../libDaisy//src/hid/disp/display.h ****         int_fast16_t deltaY = abs((int_fast16_t)y2 - (int_fast16_t)y1);
 5155              		.loc 3 227 22 view .LVU1343
 5156 01c8 BEF1000F 		cmp	lr, #0
 5157 01cc B8BF     		it	lt
 5158 01ce CEF1000E 		rsblt	lr, lr, #0
 5159              	.LVL371:
 5160              	.LBB1267:
 5161              	.LBI1262:
  42:../../libDaisy//src/hid/disp/oled_display.h ****     {
 5162              		.loc 1 42 10 is_stmt 1 view .LVU1344
 5163              	.LBB1266:
 5164              	.LBI1263:
 352:../../libDaisy//src/dev/oled_ssd130x.h ****     {
 5165              		.loc 4 352 10 view .LVU1345
 5166              	.LBB1265:
 354:../../libDaisy//src/dev/oled_ssd130x.h ****             return;
 5167              		.loc 4 354 14 is_stmt 0 view .LVU1346
 5168 01d2 7F2F     		cmp	r7, #127
 5169 01d4 94BF     		ite	ls
 5170 01d6 4FF0000A 		movls	r10, #0
 5171 01da 4FF0010A 		movhi	r10, #1
 354:../../libDaisy//src/dev/oled_ssd130x.h ****             return;
 5172              		.loc 4 354 9 view .LVU1347
 5173 01de 9BB9     		cbnz	r3, .L314
 5174 01e0 BAF1000F 		cmp	r10, #0
 5175 01e4 10D1     		bne	.L314
 357:../../libDaisy//src/dev/oled_ssd130x.h ****         else
 5176              		.loc 4 357 28 view .LVU1348
 5177 01e6 0499     		ldr	r1, [sp, #16]
 357:../../libDaisy//src/dev/oled_ssd130x.h ****         else
 5178              		.loc 4 357 48 view .LVU1349
 5179 01e8 4FF0010C 		mov	ip, #1
 357:../../libDaisy//src/dev/oled_ssd130x.h ****         else
 5180              		.loc 4 357 28 view .LVU1350
 5181 01ec CB08     		lsrs	r3, r1, #3
 357:../../libDaisy//src/dev/oled_ssd130x.h ****         else
 5182              		.loc 4 357 54 view .LVU1351
 5183 01ee 01F00701 		and	r1, r1, #7
 357:../../libDaisy//src/dev/oled_ssd130x.h ****         else
 5184              		.loc 4 357 42 view .LVU1352
 5185 01f2 07EBC313 		add	r3, r7, r3, lsl #7
 357:../../libDaisy//src/dev/oled_ssd130x.h ****         else
 5186              		.loc 4 357 48 view .LVU1353
 5187 01f6 0CFA01F1 		lsl	r1, ip, r1
 357:../../libDaisy//src/dev/oled_ssd130x.h ****         else
 5188              		.loc 4 357 42 view .LVU1354
 5189 01fa 2344     		add	r3, r3, r4
 5190 01fc 93F864C4 		ldrb	ip, [r3, #1124]	@ zero_extendqisi2
 5191 0200 41EA0C01 		orr	r1, r1, ip
 5192 0204 83F86414 		strb	r1, [r3, #1124]
 5193              	.L314:
 5194              	.LVL372:
 357:../../libDaisy//src/dev/oled_ssd130x.h ****         else
 5195              		.loc 4 357 42 view .LVU1355
 5196              	.LBE1265:
 5197              	.LBE1266:
 5198              	.LBE1267:
ARM GAS  /var/folders/1y/_321xjh9623c014x9_qw12rr0000gn/T//ccqHcGuP.s 			page 147


 239:../../libDaisy//src/hid/disp/display.h ****         {
 5199              		.loc 3 239 26 is_stmt 1 view .LVU1356
 5200 0208 099B     		ldr	r3, [sp, #36]
 5201 020a 33BB     		cbnz	r3, .L315
 227:../../libDaisy//src/hid/disp/display.h ****         int_fast16_t deltaY = abs((int_fast16_t)y2 - (int_fast16_t)y1);
 5202              		.loc 3 227 22 is_stmt 0 view .LVU1357
 5203 020c F046     		mov	r8, lr
 5204              	.LBE1261:
 5205              	.LBE1260:
 5206              	.LBE1295:
 206:Dubby.cpp     ****     display.DrawRect(menuBoxBounding[menuItemSelected][0], menuBoxBounding[menuItemSelected][1], me
 5207              		.loc 2 206 21 view .LVU1358
 5208 020e DDF810C0 		ldr	ip, [sp, #16]
 5209              	.LVL373:
 5210              	.L316:
 5211              	.LBB1296:
 5212              	.LBB1272:
 5213              	.LBB1271:
 5214              	.LBB1268:
 5215              	.LBI1268:
  42:../../libDaisy//src/hid/disp/oled_display.h ****     {
 5216              		.loc 1 42 10 is_stmt 1 view .LVU1359
 5217              	.LBB1269:
 5218              	.LBI1269:
 352:../../libDaisy//src/dev/oled_ssd130x.h ****     {
 5219              		.loc 4 352 10 view .LVU1360
 5220              	.LBB1270:
 357:../../libDaisy//src/dev/oled_ssd130x.h ****         else
 5221              		.loc 4 357 28 is_stmt 0 view .LVU1361
 5222 0212 4FEADC03 		lsr	r3, ip, #3
 357:../../libDaisy//src/dev/oled_ssd130x.h ****         else
 5223              		.loc 4 357 54 view .LVU1362
 5224 0216 0CF00701 		and	r1, ip, #7
 357:../../libDaisy//src/dev/oled_ssd130x.h ****         else
 5225              		.loc 4 357 48 view .LVU1363
 5226 021a 4FF00109 		mov	r9, #1
 354:../../libDaisy//src/dev/oled_ssd130x.h ****             return;
 5227              		.loc 4 354 9 view .LVU1364
 5228 021e 7F28     		cmp	r0, #127
 357:../../libDaisy//src/dev/oled_ssd130x.h ****         else
 5229              		.loc 4 357 42 view .LVU1365
 5230 0220 00EBC313 		add	r3, r0, r3, lsl #7
 357:../../libDaisy//src/dev/oled_ssd130x.h ****         else
 5231              		.loc 4 357 48 view .LVU1366
 5232 0224 09FA01F1 		lsl	r1, r9, r1
 354:../../libDaisy//src/dev/oled_ssd130x.h ****             return;
 5233              		.loc 4 354 9 view .LVU1367
 5234 0228 09D8     		bhi	.L318
 354:../../libDaisy//src/dev/oled_ssd130x.h ****             return;
 5235              		.loc 4 354 9 view .LVU1368
 5236 022a BCF13F0F 		cmp	ip, #63
 357:../../libDaisy//src/dev/oled_ssd130x.h ****         else
 5237              		.loc 4 357 42 view .LVU1369
 5238 022e 2344     		add	r3, r3, r4
 354:../../libDaisy//src/dev/oled_ssd130x.h ****             return;
 5239              		.loc 4 354 9 view .LVU1370
 5240 0230 05D8     		bhi	.L318
ARM GAS  /var/folders/1y/_321xjh9623c014x9_qw12rr0000gn/T//ccqHcGuP.s 			page 148


 357:../../libDaisy//src/dev/oled_ssd130x.h ****         else
 5241              		.loc 4 357 42 view .LVU1371
 5242 0232 93F86494 		ldrb	r9, [r3, #1124]	@ zero_extendqisi2
 5243 0236 41EA0901 		orr	r1, r1, r9
 5244 023a 83F86414 		strb	r1, [r3, #1124]
 5245              	.L318:
 357:../../libDaisy//src/dev/oled_ssd130x.h ****         else
 5246              		.loc 4 357 42 view .LVU1372
 5247              	.LBE1270:
 5248              	.LBE1269:
 5249              	.LBE1268:
 243:../../libDaisy//src/hid/disp/display.h ****             {
 5250              		.loc 3 243 13 view .LVU1373
 5251 023e 5FEA4803 		lsls	r3, r8, #1
 246:../../libDaisy//src/hid/disp/display.h ****             }
 5252              		.loc 3 246 20 view .LVU1374
 5253 0242 18BF     		it	ne
 5254 0244 8019     		addne	r0, r0, r6
 5255              	.LVL374:
 249:../../libDaisy//src/hid/disp/display.h ****             {
 5256              		.loc 3 249 13 view .LVU1375
 5257 0246 9E45     		cmp	lr, r3
 5258 0248 02DD     		ble	.L320
 251:../../libDaisy//src/hid/disp/display.h ****                 y1 += signY;
 5259              		.loc 3 251 23 view .LVU1376
 5260 024a F044     		add	r8, r8, lr
 5261              	.LVL375:
 252:../../libDaisy//src/hid/disp/display.h ****             }
 5262              		.loc 3 252 20 view .LVU1377
 5263 024c 0CF1FF3C 		add	ip, ip, #-1
 5264              	.LVL376:
 5265              	.L320:
 239:../../libDaisy//src/hid/disp/display.h ****         {
 5266              		.loc 3 239 26 is_stmt 1 view .LVU1378
 5267 0250 8742     		cmp	r7, r0
 5268 0252 DED1     		bne	.L316
 239:../../libDaisy//src/hid/disp/display.h ****         {
 5269              		.loc 3 239 26 is_stmt 0 view .LVU1379
 5270 0254 049B     		ldr	r3, [sp, #16]
 5271 0256 6345     		cmp	r3, ip
 5272 0258 DBD1     		bne	.L316
 5273              	.LVL377:
 5274              	.L315:
 239:../../libDaisy//src/hid/disp/display.h ****         {
 5275              		.loc 3 239 26 view .LVU1380
 5276              	.LBE1271:
 5277              	.LBE1272:
 5278              	.LBB1273:
 5279              	.LBI1273:
 221:../../libDaisy//src/hid/disp/display.h ****                   uint_fast8_t y1,
 5280              		.loc 3 221 10 is_stmt 1 view .LVU1381
 5281              	.LBB1274:
 228:../../libDaisy//src/hid/disp/display.h ****         int_fast16_t signX  = ((x1 < x2) ? 1 : -1);
 5282              		.loc 3 228 52 is_stmt 0 view .LVU1382
 5283 025a DDE90331 		ldrd	r3, r1, [sp, #12]
 5284 025e A3EB010E 		sub	lr, r3, r1
 230:../../libDaisy//src/hid/disp/display.h ****         int_fast16_t error  = deltaX - deltaY;
ARM GAS  /var/folders/1y/_321xjh9623c014x9_qw12rr0000gn/T//ccqHcGuP.s 			page 149


 5285              		.loc 3 230 42 view .LVU1383
 5286 0262 8B42     		cmp	r3, r1
 5287 0264 8CBF     		ite	hi
 5288 0266 4FF00108 		movhi	r8, #1
 5289 026a 4FF0FF38 		movls	r8, #-1
 5290              	.LBB1275:
 5291              	.LBB1276:
 5292              	.LBB1277:
 354:../../libDaisy//src/dev/oled_ssd130x.h ****             return;
 5293              		.loc 4 354 9 view .LVU1384
 5294 026e 0899     		ldr	r1, [sp, #32]
 5295              	.LBE1277:
 5296              	.LBE1276:
 5297              	.LBE1275:
 228:../../libDaisy//src/hid/disp/display.h ****         int_fast16_t signX  = ((x1 < x2) ? 1 : -1);
 5298              		.loc 3 228 22 view .LVU1385
 5299 0270 BEF1000F 		cmp	lr, #0
 5300 0274 B8BF     		it	lt
 5301 0276 CEF1000E 		rsblt	lr, lr, #0
 5302              	.LVL378:
 231:../../libDaisy//src/hid/disp/display.h ****         int_fast16_t error2;
 5303              		.loc 3 231 22 view .LVU1386
 5304 027a CEF1000C 		rsb	ip, lr, #0
 5305              	.LVL379:
 5306              	.LBB1280:
 5307              	.LBI1275:
  42:../../libDaisy//src/hid/disp/oled_display.h ****     {
 5308              		.loc 1 42 10 is_stmt 1 view .LVU1387
 5309              	.LBB1279:
 5310              	.LBI1276:
 352:../../libDaisy//src/dev/oled_ssd130x.h ****     {
 5311              		.loc 4 352 10 view .LVU1388
 5312              	.LBB1278:
 354:../../libDaisy//src/dev/oled_ssd130x.h ****             return;
 5313              		.loc 4 354 9 is_stmt 0 view .LVU1389
 5314 027e 81B9     		cbnz	r1, .L322
 5315 0280 BAF1000F 		cmp	r10, #0
 5316 0284 0DD1     		bne	.L322
 357:../../libDaisy//src/dev/oled_ssd130x.h ****         else
 5317              		.loc 4 357 28 view .LVU1390
 5318 0286 1946     		mov	r1, r3
 5319 0288 DB08     		lsrs	r3, r3, #3
 357:../../libDaisy//src/dev/oled_ssd130x.h ****         else
 5320              		.loc 4 357 42 view .LVU1391
 5321 028a 07EBC313 		add	r3, r7, r3, lsl #7
 357:../../libDaisy//src/dev/oled_ssd130x.h ****         else
 5322              		.loc 4 357 54 view .LVU1392
 5323 028e 01F00700 		and	r0, r1, #7
 357:../../libDaisy//src/dev/oled_ssd130x.h ****         else
 5324              		.loc 4 357 48 view .LVU1393
 5325 0292 0121     		movs	r1, #1
 357:../../libDaisy//src/dev/oled_ssd130x.h ****         else
 5326              		.loc 4 357 42 view .LVU1394
 5327 0294 2344     		add	r3, r3, r4
 357:../../libDaisy//src/dev/oled_ssd130x.h ****         else
 5328              		.loc 4 357 48 view .LVU1395
 5329 0296 8140     		lsls	r1, r1, r0
ARM GAS  /var/folders/1y/_321xjh9623c014x9_qw12rr0000gn/T//ccqHcGuP.s 			page 150


 357:../../libDaisy//src/dev/oled_ssd130x.h ****         else
 5330              		.loc 4 357 42 view .LVU1396
 5331 0298 93F86404 		ldrb	r0, [r3, #1124]	@ zero_extendqisi2
 5332 029c 0143     		orrs	r1, r1, r0
 5333 029e 83F86414 		strb	r1, [r3, #1124]
 5334              	.L322:
 5335              	.LVL380:
 357:../../libDaisy//src/dev/oled_ssd130x.h ****         else
 5336              		.loc 4 357 42 view .LVU1397
 5337              	.LBE1278:
 5338              	.LBE1279:
 5339              	.LBE1280:
 239:../../libDaisy//src/hid/disp/display.h ****         {
 5340              		.loc 3 239 26 is_stmt 1 view .LVU1398
 5341 02a2 BBF1000F 		cmp	fp, #0
 5342 02a6 25D1     		bne	.L323
 5343 02a8 6046     		mov	r0, ip
 5344              	.LBE1274:
 5345              	.LBE1273:
 5346              	.LBE1296:
 206:Dubby.cpp     ****     display.DrawRect(menuBoxBounding[menuItemSelected][0], menuBoxBounding[menuItemSelected][1], me
 5347              		.loc 2 206 21 is_stmt 0 view .LVU1399
 5348 02aa 3946     		mov	r1, r7
 5349              	.LVL381:
 5350              	.L324:
 5351              	.LBB1297:
 5352              	.LBB1288:
 5353              	.LBB1287:
 5354              	.LBB1281:
 5355              	.LBI1281:
  42:../../libDaisy//src/hid/disp/oled_display.h ****     {
 5356              		.loc 1 42 10 is_stmt 1 view .LVU1400
 5357              	.LBB1282:
 5358              	.LBI1282:
 352:../../libDaisy//src/dev/oled_ssd130x.h ****     {
 5359              		.loc 4 352 10 view .LVU1401
 5360              	.LBB1283:
 357:../../libDaisy//src/dev/oled_ssd130x.h ****         else
 5361              		.loc 4 357 48 is_stmt 0 view .LVU1402
 5362 02ac 0126     		movs	r6, #1
 357:../../libDaisy//src/dev/oled_ssd130x.h ****         else
 5363              		.loc 4 357 28 view .LVU1403
 5364 02ae D308     		lsrs	r3, r2, #3
 357:../../libDaisy//src/dev/oled_ssd130x.h ****         else
 5365              		.loc 4 357 54 view .LVU1404
 5366 02b0 02F0070A 		and	r10, r2, #7
 354:../../libDaisy//src/dev/oled_ssd130x.h ****             return;
 5367              		.loc 4 354 9 view .LVU1405
 5368 02b4 7F29     		cmp	r1, #127
 5369              	.LBE1283:
 5370              	.LBE1282:
 5371              	.LBE1281:
 242:../../libDaisy//src/hid/disp/display.h ****             if(error2 > -deltaY)
 5372              		.loc 3 242 20 view .LVU1406
 5373 02b6 00FA06F9 		lsl	r9, r0, r6
 5374              	.LVL382:
 5375              	.LBB1286:
ARM GAS  /var/folders/1y/_321xjh9623c014x9_qw12rr0000gn/T//ccqHcGuP.s 			page 151


 5376              	.LBB1285:
 5377              	.LBB1284:
 357:../../libDaisy//src/dev/oled_ssd130x.h ****         else
 5378              		.loc 4 357 42 view .LVU1407
 5379 02ba 01EBC313 		add	r3, r1, r3, lsl #7
 357:../../libDaisy//src/dev/oled_ssd130x.h ****         else
 5380              		.loc 4 357 48 view .LVU1408
 5381 02be 06FA0AF6 		lsl	r6, r6, r10
 354:../../libDaisy//src/dev/oled_ssd130x.h ****             return;
 5382              		.loc 4 354 9 view .LVU1409
 5383 02c2 08D8     		bhi	.L326
 354:../../libDaisy//src/dev/oled_ssd130x.h ****             return;
 5384              		.loc 4 354 9 view .LVU1410
 5385 02c4 3F2A     		cmp	r2, #63
 357:../../libDaisy//src/dev/oled_ssd130x.h ****         else
 5386              		.loc 4 357 42 view .LVU1411
 5387 02c6 2344     		add	r3, r3, r4
 354:../../libDaisy//src/dev/oled_ssd130x.h ****             return;
 5388              		.loc 4 354 9 view .LVU1412
 5389 02c8 05D8     		bhi	.L326
 357:../../libDaisy//src/dev/oled_ssd130x.h ****         else
 5390              		.loc 4 357 42 view .LVU1413
 5391 02ca 93F864A4 		ldrb	r10, [r3, #1124]	@ zero_extendqisi2
 5392 02ce 46EA0A06 		orr	r6, r6, r10
 5393 02d2 83F86464 		strb	r6, [r3, #1124]
 5394              	.L326:
 357:../../libDaisy//src/dev/oled_ssd130x.h ****         else
 5395              		.loc 4 357 42 view .LVU1414
 5396              	.LBE1284:
 5397              	.LBE1285:
 5398              	.LBE1286:
 243:../../libDaisy//src/hid/disp/display.h ****             {
 5399              		.loc 3 243 13 view .LVU1415
 5400 02d6 BCEB400F 		cmp	ip, r0, lsl #1
 5401 02da 02DA     		bge	.L327
 246:../../libDaisy//src/hid/disp/display.h ****             }
 5402              		.loc 3 246 20 view .LVU1416
 5403 02dc 0139     		subs	r1, r1, #1
 5404              	.LVL383:
 245:../../libDaisy//src/hid/disp/display.h ****                 x1 += signX;
 5405              		.loc 3 245 23 view .LVU1417
 5406 02de A0EB0E00 		sub	r0, r0, lr
 5407              	.LVL384:
 5408              	.L327:
 249:../../libDaisy//src/hid/disp/display.h ****             {
 5409              		.loc 3 249 13 view .LVU1418
 5410 02e2 B9F1000F 		cmp	r9, #0
 5411 02e6 00D0     		beq	.L328
 252:../../libDaisy//src/hid/disp/display.h ****             }
 5412              		.loc 3 252 20 view .LVU1419
 5413 02e8 4244     		add	r2, r2, r8
 5414              	.LVL385:
 5415              	.L328:
 239:../../libDaisy//src/hid/disp/display.h ****         {
 5416              		.loc 3 239 26 is_stmt 1 view .LVU1420
 5417 02ea 8F42     		cmp	r7, r1
 5418 02ec DED1     		bne	.L324
ARM GAS  /var/folders/1y/_321xjh9623c014x9_qw12rr0000gn/T//ccqHcGuP.s 			page 152


 239:../../libDaisy//src/hid/disp/display.h ****         {
 5419              		.loc 3 239 26 is_stmt 0 view .LVU1421
 5420 02ee 039B     		ldr	r3, [sp, #12]
 5421 02f0 9342     		cmp	r3, r2
 5422 02f2 DBD1     		bne	.L324
 5423              	.LVL386:
 5424              	.L323:
 239:../../libDaisy//src/hid/disp/display.h ****         {
 5425              		.loc 3 239 26 view .LVU1422
 5426 02f4 2646     		mov	r6, r4
 5427 02f6 A4F10408 		sub	r8, r4, #4
 5428              	.LVL387:
 239:../../libDaisy//src/hid/disp/display.h ****         {
 5429              		.loc 3 239 26 view .LVU1423
 5430 02fa 04F11809 		add	r9, r4, #24
 5431 02fe 4C4F     		ldr	r7, .L377
 5432              	.LVL388:
 239:../../libDaisy//src/hid/disp/display.h ****         {
 5433              		.loc 3 239 26 view .LVU1424
 5434 0300 18EE10AA 		vmov	r10, s16	@ int
 5435              	.LVL389:
 5436              	.L329:
 239:../../libDaisy//src/hid/disp/display.h ****         {
 5437              		.loc 3 239 26 view .LVU1425
 5438              	.LBE1287:
 5439              	.LBE1288:
 5440              	.LBE1297:
 5441              	.LBB1298:
 210:Dubby.cpp     ****         display.SetCursor(menuTextCursors[i][0], menuTextCursors[i][1]);
 5442              		.loc 2 210 9 is_stmt 1 discriminator 2 view .LVU1426
 5443              	.LBB1299:
 5444              	.LBB1300:
 173:../../libDaisy//src/hid/disp/display.h ****         currentY_ = (y >= Height()) ? Height() - 1 : y;
 5445              		.loc 3 173 19 is_stmt 0 discriminator 2 view .LVU1427
 5446 0304 B6F85C00 		ldrh	r0, [r6, #92]
 5447              	.LBE1300:
 5448              	.LBE1299:
 211:Dubby.cpp     ****         display.WriteString(GetTextForEnum(MAINMENU, i), Font_6x8, true);
 5449              		.loc 2 211 28 discriminator 2 view .LVU1428
 5450 0308 0123     		movs	r3, #1
 210:Dubby.cpp     ****         display.SetCursor(menuTextCursors[i][0], menuTextCursors[i][1]);
 5451              		.loc 2 210 26 discriminator 2 view .LVU1429
 5452 030a B6F86010 		ldrh	r1, [r6, #96]
 5453              	.LVL390:
 5454              	.LBB1305:
 5455              	.LBI1299:
 171:../../libDaisy//src/hid/disp/display.h ****     {
 5456              		.loc 3 171 10 is_stmt 1 discriminator 2 view .LVU1430
 5457              	.LBB1301:
 173:../../libDaisy//src/hid/disp/display.h ****         currentY_ = (y >= Height()) ? Height() - 1 : y;
 5458              		.loc 3 173 9 discriminator 2 view .LVU1431
 5459              	.LBE1301:
 5460              	.LBE1305:
 208:Dubby.cpp     ****     for (int i = 0; i < MENU_LAST; i++) 
 5461              		.loc 2 208 23 is_stmt 0 discriminator 2 view .LVU1432
 5462 030e 0836     		adds	r6, r6, #8
 5463              	.LVL391:
ARM GAS  /var/folders/1y/_321xjh9623c014x9_qw12rr0000gn/T//ccqHcGuP.s 			page 153


 5464              	.LBB1306:
 5465              	.LBB1302:
 173:../../libDaisy//src/hid/disp/display.h ****         currentY_ = (y >= Height()) ? Height() - 1 : y;
 5466              		.loc 3 173 19 discriminator 2 view .LVU1433
 5467 0310 7F28     		cmp	r0, #127
 5468              	.LBE1302:
 5469              	.LBE1306:
 211:Dubby.cpp     ****         display.WriteString(GetTextForEnum(MAINMENU, i), Font_6x8, true);
 5470              		.loc 2 211 28 discriminator 2 view .LVU1434
 5471 0312 0093     		str	r3, [sp]
 5472              	.LVL392:
 5473              	.LBB1307:
 5474              	.LBB1303:
 173:../../libDaisy//src/hid/disp/display.h ****         currentY_ = (y >= Height()) ? Height() - 1 : y;
 5475              		.loc 3 173 19 discriminator 2 view .LVU1435
 5476 0314 28BF     		it	cs
 5477 0316 7F20     		movcs	r0, #127
 5478              	.LVL393:
 174:../../libDaisy//src/hid/disp/display.h ****     }
 5479              		.loc 3 174 19 discriminator 2 view .LVU1436
 5480 0318 3F29     		cmp	r1, #63
 5481 031a 28BF     		it	cs
 5482 031c 3F21     		movcs	r1, #63
 5483              	.LVL394:
 173:../../libDaisy//src/hid/disp/display.h ****         currentY_ = (y >= Height()) ? Height() - 1 : y;
 5484              		.loc 3 173 19 discriminator 2 view .LVU1437
 5485 031e A4F85404 		strh	r0, [r4, #1108]	@ movhi
 174:../../libDaisy//src/hid/disp/display.h ****     }
 5486              		.loc 3 174 9 is_stmt 1 discriminator 2 view .LVU1438
 5487              	.LBE1303:
 5488              	.LBE1307:
 211:Dubby.cpp     ****         display.WriteString(GetTextForEnum(MAINMENU, i), Font_6x8, true);
 5489              		.loc 2 211 28 is_stmt 0 discriminator 2 view .LVU1439
 5490 0322 5046     		mov	r0, r10
 5491              	.LBB1308:
 5492              	.LBB1304:
 174:../../libDaisy//src/hid/disp/display.h ****     }
 5493              		.loc 3 174 19 discriminator 2 view .LVU1440
 5494 0324 A4F85614 		strh	r1, [r4, #1110]	@ movhi
 5495              	.LVL395:
 174:../../libDaisy//src/hid/disp/display.h ****     }
 5496              		.loc 3 174 19 discriminator 2 view .LVU1441
 5497              	.LBE1304:
 5498              	.LBE1308:
 211:Dubby.cpp     ****         display.WriteString(GetTextForEnum(MAINMENU, i), Font_6x8, true);
 5499              		.loc 2 211 9 is_stmt 1 discriminator 2 view .LVU1442
 5500              	.LBB1309:
 5501              	.LBI1309:
 424:Dubby.cpp     **** const char * Dubby::GetTextForEnum(MenuTypes m, int enumVal)
 5502              		.loc 2 424 14 discriminator 2 view .LVU1443
 5503              	.LBB1310:
 426:Dubby.cpp     ****     switch (m)
 5504              		.loc 2 426 5 discriminator 2 view .LVU1444
 428:Dubby.cpp     ****         case MAINMENU:
 5505              		.loc 2 428 9 discriminator 2 view .LVU1445
 429:Dubby.cpp     ****             return MenuItemsStrings[enumVal];
 5506              		.loc 2 429 13 discriminator 2 view .LVU1446
ARM GAS  /var/folders/1y/_321xjh9623c014x9_qw12rr0000gn/T//ccqHcGuP.s 			page 154


 429:Dubby.cpp     ****             return MenuItemsStrings[enumVal];
 5507              		.loc 2 429 13 is_stmt 0 discriminator 2 view .LVU1447
 5508              	.LBE1310:
 5509              	.LBE1309:
 211:Dubby.cpp     ****         display.WriteString(GetTextForEnum(MAINMENU, i), Font_6x8, true);
 5510              		.loc 2 211 28 discriminator 2 view .LVU1448
 5511 0328 58F8041F 		ldr	r1, [r8, #4]!
 5512 032c 97E80C00 		ldm	r7, {r2, r3}
 5513 0330 FFF7FEFF 		bl	_ZN5daisy25OneBitGraphicsDisplayImplINS_11OledDisplayINS_13SSD130xDriverILj128ELj64ENS_24SSD130
 5514              	.LVL396:
 208:Dubby.cpp     ****     for (int i = 0; i < MENU_LAST; i++) 
 5515              		.loc 2 208 5 is_stmt 1 discriminator 2 view .LVU1449
 208:Dubby.cpp     ****     for (int i = 0; i < MENU_LAST; i++) 
 5516              		.loc 2 208 23 discriminator 2 view .LVU1450
 5517 0334 B145     		cmp	r9, r6
 5518 0336 E5D1     		bne	.L329
 5519              	.LBE1298:
 5520              	.LBB1311:
 5521              	.LBB1312:
 5522              	.LBB1313:
 5523              	.LBB1314:
 5524              	.LBB1315:
 124:../../libDaisy//src/dev/oled_ssd130x.h ****         spi_.BlockingTransmit(&cmd, 1);
 5525              		.loc 4 124 24 is_stmt 0 view .LVU1451
 5526 0338 04F58C64 		add	r4, r4, #1120
 5527              	.LVL397:
 124:../../libDaisy//src/dev/oled_ssd130x.h ****         spi_.BlockingTransmit(&cmd, 1);
 5528              		.loc 4 124 24 view .LVU1452
 5529 033c 05F10C07 		add	r7, r5, #12
 5530 0340 05F20C49 		addw	r9, r5, #1036
 5531              	.LVL398:
 124:../../libDaisy//src/dev/oled_ssd130x.h ****         spi_.BlockingTransmit(&cmd, 1);
 5532              		.loc 4 124 24 view .LVU1453
 5533 0344 B026     		movs	r6, #176
 5534              	.L330:
 5535              	.LVL399:
 124:../../libDaisy//src/dev/oled_ssd130x.h ****         spi_.BlockingTransmit(&cmd, 1);
 5536              		.loc 4 124 24 view .LVU1454
 5537 0346 4FF00008 		mov	r8, #0
 124:../../libDaisy//src/dev/oled_ssd130x.h ****         spi_.BlockingTransmit(&cmd, 1);
 5538              		.loc 4 124 23 view .LVU1455
 5539 034a 2046     		mov	r0, r4
 5540 034c 8DF82F60 		strb	r6, [sp, #47]
 5541              	.LVL400:
 124:../../libDaisy//src/dev/oled_ssd130x.h ****         spi_.BlockingTransmit(&cmd, 1);
 5542              		.loc 4 124 23 view .LVU1456
 5543              	.LBE1315:
 5544              	.LBI1314:
 122:../../libDaisy//src/dev/oled_ssd130x.h ****     {
 5545              		.loc 4 122 10 is_stmt 1 view .LVU1457
 5546              	.LBB1316:
 124:../../libDaisy//src/dev/oled_ssd130x.h ****         spi_.BlockingTransmit(&cmd, 1);
 5547              		.loc 4 124 9 view .LVU1458
 5548              	.LBE1316:
 5549              	.LBE1314:
 5550              		.loc 4 383 22 is_stmt 0 view .LVU1459
 5551 0350 0136     		adds	r6, r6, #1
ARM GAS  /var/folders/1y/_321xjh9623c014x9_qw12rr0000gn/T//ccqHcGuP.s 			page 155


 5552              	.LVL401:
 5553              	.LBB1319:
 5554              	.LBB1317:
 124:../../libDaisy//src/dev/oled_ssd130x.h ****         spi_.BlockingTransmit(&cmd, 1);
 5555              		.loc 4 124 23 view .LVU1460
 5556 0352 4146     		mov	r1, r8
 5557 0354 FFF7FEFF 		bl	dsy_gpio_write
 5558              	.LVL402:
 125:../../libDaisy//src/dev/oled_ssd130x.h ****     };
 5559              		.loc 4 125 9 is_stmt 1 view .LVU1461
 125:../../libDaisy//src/dev/oled_ssd130x.h ****     };
 5560              		.loc 4 125 30 is_stmt 0 view .LVU1462
 5561 0358 6423     		movs	r3, #100
 5562 035a 0122     		movs	r2, #1
 5563 035c 0DF12F01 		add	r1, sp, #47
 5564 0360 2846     		mov	r0, r5
 5565              	.LBE1317:
 5566              	.LBE1319:
 5567              		.loc 4 383 22 view .LVU1463
 5568 0362 F6B2     		uxtb	r6, r6
 5569              	.LBB1320:
 5570              	.LBB1318:
 125:../../libDaisy//src/dev/oled_ssd130x.h ****     };
 5571              		.loc 4 125 30 view .LVU1464
 5572 0364 FFF7FEFF 		bl	_ZN5daisy9SpiHandle16BlockingTransmitEPhjm
 5573              	.LVL403:
 125:../../libDaisy//src/dev/oled_ssd130x.h ****     };
 5574              		.loc 4 125 30 view .LVU1465
 5575              	.LBE1318:
 5576              	.LBE1320:
 5577              	.LBB1321:
 5578              	.LBB1322:
 124:../../libDaisy//src/dev/oled_ssd130x.h ****         spi_.BlockingTransmit(&cmd, 1);
 5579              		.loc 4 124 23 view .LVU1466
 5580 0368 4146     		mov	r1, r8
 5581 036a 2046     		mov	r0, r4
 5582 036c 8DF82F80 		strb	r8, [sp, #47]
 5583              	.LVL404:
 124:../../libDaisy//src/dev/oled_ssd130x.h ****         spi_.BlockingTransmit(&cmd, 1);
 5584              		.loc 4 124 23 view .LVU1467
 5585              	.LBE1322:
 5586              	.LBI1321:
 122:../../libDaisy//src/dev/oled_ssd130x.h ****     {
 5587              		.loc 4 122 10 is_stmt 1 view .LVU1468
 5588              	.LBB1323:
 124:../../libDaisy//src/dev/oled_ssd130x.h ****         spi_.BlockingTransmit(&cmd, 1);
 5589              		.loc 4 124 9 view .LVU1469
 124:../../libDaisy//src/dev/oled_ssd130x.h ****         spi_.BlockingTransmit(&cmd, 1);
 5590              		.loc 4 124 23 is_stmt 0 view .LVU1470
 5591 0370 FFF7FEFF 		bl	dsy_gpio_write
 5592              	.LVL405:
 125:../../libDaisy//src/dev/oled_ssd130x.h ****     };
 5593              		.loc 4 125 9 is_stmt 1 view .LVU1471
 125:../../libDaisy//src/dev/oled_ssd130x.h ****     };
 5594              		.loc 4 125 30 is_stmt 0 view .LVU1472
 5595 0374 0122     		movs	r2, #1
 5596 0376 6423     		movs	r3, #100
ARM GAS  /var/folders/1y/_321xjh9623c014x9_qw12rr0000gn/T//ccqHcGuP.s 			page 156


 5597 0378 0DF12F01 		add	r1, sp, #47
 5598 037c 2846     		mov	r0, r5
 5599 037e FFF7FEFF 		bl	_ZN5daisy9SpiHandle16BlockingTransmitEPhjm
 5600              	.LVL406:
 125:../../libDaisy//src/dev/oled_ssd130x.h ****     };
 5601              		.loc 4 125 30 view .LVU1473
 5602 0382 1023     		movs	r3, #16
 5603              	.LBE1323:
 5604              	.LBE1321:
 5605              	.LBB1324:
 5606              	.LBB1325:
 124:../../libDaisy//src/dev/oled_ssd130x.h ****         spi_.BlockingTransmit(&cmd, 1);
 5607              		.loc 4 124 23 view .LVU1474
 5608 0384 4146     		mov	r1, r8
 5609 0386 2046     		mov	r0, r4
 5610 0388 8DF82F30 		strb	r3, [sp, #47]
 5611              	.LVL407:
 124:../../libDaisy//src/dev/oled_ssd130x.h ****         spi_.BlockingTransmit(&cmd, 1);
 5612              		.loc 4 124 23 view .LVU1475
 5613              	.LBE1325:
 5614              	.LBI1324:
 122:../../libDaisy//src/dev/oled_ssd130x.h ****     {
 5615              		.loc 4 122 10 is_stmt 1 view .LVU1476
 5616              	.LBB1326:
 124:../../libDaisy//src/dev/oled_ssd130x.h ****         spi_.BlockingTransmit(&cmd, 1);
 5617              		.loc 4 124 9 view .LVU1477
 124:../../libDaisy//src/dev/oled_ssd130x.h ****         spi_.BlockingTransmit(&cmd, 1);
 5618              		.loc 4 124 23 is_stmt 0 view .LVU1478
 5619 038c FFF7FEFF 		bl	dsy_gpio_write
 5620              	.LVL408:
 125:../../libDaisy//src/dev/oled_ssd130x.h ****     };
 5621              		.loc 4 125 9 is_stmt 1 view .LVU1479
 125:../../libDaisy//src/dev/oled_ssd130x.h ****     };
 5622              		.loc 4 125 30 is_stmt 0 view .LVU1480
 5623 0390 6423     		movs	r3, #100
 5624 0392 0122     		movs	r2, #1
 5625 0394 0DF12F01 		add	r1, sp, #47
 5626 0398 2846     		mov	r0, r5
 5627 039a FFF7FEFF 		bl	_ZN5daisy9SpiHandle16BlockingTransmitEPhjm
 5628              	.LVL409:
 125:../../libDaisy//src/dev/oled_ssd130x.h ****     };
 5629              		.loc 4 125 30 view .LVU1481
 5630              	.LBE1326:
 5631              	.LBE1324:
 5632              	.LBB1327:
 5633              	.LBI1327:
 128:../../libDaisy//src/dev/oled_ssd130x.h ****     {
 5634              		.loc 4 128 10 is_stmt 1 view .LVU1482
 5635              	.LBB1328:
 130:../../libDaisy//src/dev/oled_ssd130x.h ****         spi_.BlockingTransmit(buff, size);
 5636              		.loc 4 130 9 view .LVU1483
 130:../../libDaisy//src/dev/oled_ssd130x.h ****         spi_.BlockingTransmit(buff, size);
 5637              		.loc 4 130 23 is_stmt 0 view .LVU1484
 5638 039e 0121     		movs	r1, #1
 5639 03a0 2046     		mov	r0, r4
 5640 03a2 FFF7FEFF 		bl	dsy_gpio_write
 5641              	.LVL410:
ARM GAS  /var/folders/1y/_321xjh9623c014x9_qw12rr0000gn/T//ccqHcGuP.s 			page 157


 131:../../libDaisy//src/dev/oled_ssd130x.h ****     };
 5642              		.loc 4 131 9 is_stmt 1 view .LVU1485
 131:../../libDaisy//src/dev/oled_ssd130x.h ****     };
 5643              		.loc 4 131 30 is_stmt 0 view .LVU1486
 5644 03a6 8022     		movs	r2, #128
 5645 03a8 3946     		mov	r1, r7
 5646 03aa 6423     		movs	r3, #100
 5647              	.LBE1328:
 5648              	.LBE1327:
 5649              		.loc 4 383 22 view .LVU1487
 5650 03ac 1744     		add	r7, r7, r2
 5651              	.LVL411:
 5652              	.LBB1330:
 5653              	.LBB1329:
 131:../../libDaisy//src/dev/oled_ssd130x.h ****     };
 5654              		.loc 4 131 30 view .LVU1488
 5655 03ae 2846     		mov	r0, r5
 5656 03b0 FFF7FEFF 		bl	_ZN5daisy9SpiHandle16BlockingTransmitEPhjm
 5657              	.LVL412:
 131:../../libDaisy//src/dev/oled_ssd130x.h ****     };
 5658              		.loc 4 131 30 view .LVU1489
 5659              	.LBE1329:
 5660              	.LBE1330:
 5661              		.loc 4 383 9 is_stmt 1 view .LVU1490
 5662              		.loc 4 383 22 view .LVU1491
 5663 03b4 4F45     		cmp	r7, r9
 5664 03b6 C6D1     		bne	.L330
 5665              	.LBE1313:
 5666              	.LBE1312:
 5667              	.LBE1311:
 215:Dubby.cpp     **** }
 5668              		.loc 2 215 1 is_stmt 0 view .LVU1492
 5669 03b8 0DB0     		add	sp, sp, #52
 5670              		.cfi_remember_state
 5671              		.cfi_def_cfa_offset 44
 5672              		@ sp needed
 5673 03ba BDEC028B 		vldm	sp!, {d8}
 5674              		.cfi_restore 80
 5675              		.cfi_restore 81
 5676              		.cfi_def_cfa_offset 36
 5677 03be BDE8F08F 		pop	{r4, r5, r6, r7, r8, r9, r10, fp, pc}
 5678              	.LVL413:
 5679              	.L295:
 5680              		.cfi_restore_state
 5681              	.LBB1331:
 5682              	.LBB1289:
 5683              	.LBB1223:
 5684              	.LBB1219:
  42:../../libDaisy//src/hid/disp/oled_display.h ****     {
 5685              		.loc 1 42 10 is_stmt 1 view .LVU1493
 5686              	.LBB1213:
 5687              	.LBB1209:
 5688              	.LBB1205:
 354:../../libDaisy//src/dev/oled_ssd130x.h ****             return;
 5689              		.loc 4 354 28 is_stmt 0 view .LVU1494
 5690 03c2 039B     		ldr	r3, [sp, #12]
 5691              	.LVL414:
ARM GAS  /var/folders/1y/_321xjh9623c014x9_qw12rr0000gn/T//ccqHcGuP.s 			page 158


 354:../../libDaisy//src/dev/oled_ssd130x.h ****             return;
 5692              		.loc 4 354 28 view .LVU1495
 5693              	.LBE1205:
 5694              	.LBE1209:
 5695              		.loc 1 44 26 view .LVU1496
 5696 03c4 04F58B65 		add	r5, r4, #1112
 5697              	.LVL415:
 5698              	.LBB1210:
 352:../../libDaisy//src/dev/oled_ssd130x.h ****     {
 5699              		.loc 4 352 10 is_stmt 1 view .LVU1497
 5700              	.LBE1210:
 5701              	.LBE1213:
 5702              	.LBE1219:
 229:../../libDaisy//src/hid/disp/display.h ****         int_fast16_t signY  = ((y1 < y2) ? 1 : -1);
 5703              		.loc 3 229 42 is_stmt 0 view .LVU1498
 5704 03c8 4FF0010B 		mov	fp, #1
 5705              	.LBB1220:
 5706              	.LBB1214:
 5707              	.LBB1211:
 5708              	.LBB1206:
 354:../../libDaisy//src/dev/oled_ssd130x.h ****             return;
 5709              		.loc 4 354 28 view .LVU1499
 5710 03cc 3F2B     		cmp	r3, #63
 5711 03ce 94BF     		ite	ls
 5712 03d0 0023     		movls	r3, #0
 5713 03d2 0123     		movhi	r3, #1
 354:../../libDaisy//src/dev/oled_ssd130x.h ****             return;
 5714              		.loc 4 354 14 view .LVU1500
 5715 03d4 7F2E     		cmp	r6, #127
 354:../../libDaisy//src/dev/oled_ssd130x.h ****             return;
 5716              		.loc 4 354 28 view .LVU1501
 5717 03d6 0893     		str	r3, [sp, #32]
 354:../../libDaisy//src/dev/oled_ssd130x.h ****             return;
 5718              		.loc 4 354 14 view .LVU1502
 5719 03d8 94BF     		ite	ls
 5720 03da 0021     		movls	r1, #0
 5721 03dc 0121     		movhi	r1, #1
 5722 03de 0691     		str	r1, [sp, #24]
 354:../../libDaisy//src/dev/oled_ssd130x.h ****             return;
 5723              		.loc 4 354 9 view .LVU1503
 5724 03e0 002B     		cmp	r3, #0
 5725 03e2 7FF459AE 		bne	.L298
 5726 03e6 0029     		cmp	r1, #0
 5727 03e8 3FF440AE 		beq	.L332
 5728 03ec 54E6     		b	.L298
 5729              	.LVL416:
 5730              	.L304:
 354:../../libDaisy//src/dev/oled_ssd130x.h ****             return;
 5731              		.loc 4 354 9 view .LVU1504
 5732              	.LBE1206:
 5733              	.LBE1211:
 5734              	.LBE1214:
 5735              	.LBE1220:
 5736              	.LBE1223:
 5737              	.LBE1289:
 5738              	.LBB1290:
 5739              	.LBB1258:
ARM GAS  /var/folders/1y/_321xjh9623c014x9_qw12rr0000gn/T//ccqHcGuP.s 			page 159


 5740              	.LBB1254:
 5741              	.LBB1242:
 5742              	.LBB1236:
 354:../../libDaisy//src/dev/oled_ssd130x.h ****             return;
 5743              		.loc 4 354 28 view .LVU1505
 5744 03ee 049B     		ldr	r3, [sp, #16]
 5745              	.LVL417:
 354:../../libDaisy//src/dev/oled_ssd130x.h ****             return;
 5746              		.loc 4 354 28 view .LVU1506
 5747              	.LBE1236:
 5748              	.LBE1242:
 5749              	.LBE1254:
 231:../../libDaisy//src/hid/disp/display.h ****         int_fast16_t error2;
 5750              		.loc 3 231 22 view .LVU1507
 5751 03f0 0599     		ldr	r1, [sp, #20]
 5752              	.LBB1255:
 5753              	.LBB1243:
 5754              	.LBB1237:
 354:../../libDaisy//src/dev/oled_ssd130x.h ****             return;
 5755              		.loc 4 354 28 view .LVU1508
 5756 03f2 3F2B     		cmp	r3, #63
 5757              	.LBE1237:
 5758              	.LBE1243:
 5759              	.LBE1255:
 231:../../libDaisy//src/hid/disp/display.h ****         int_fast16_t error2;
 5760              		.loc 3 231 22 view .LVU1509
 5761 03f4 C1F1000A 		rsb	r10, r1, #0
 5762              	.LVL418:
 5763              	.LBB1256:
  42:../../libDaisy//src/hid/disp/oled_display.h ****     {
 5764              		.loc 1 42 10 is_stmt 1 view .LVU1510
 5765              	.LBB1244:
 352:../../libDaisy//src/dev/oled_ssd130x.h ****     {
 5766              		.loc 4 352 10 view .LVU1511
 5767              	.LBB1238:
 354:../../libDaisy//src/dev/oled_ssd130x.h ****             return;
 5768              		.loc 4 354 28 is_stmt 0 view .LVU1512
 5769 03f8 94BF     		ite	ls
 5770 03fa 0023     		movls	r3, #0
 5771 03fc 0123     		movhi	r3, #1
 5772 03fe 0793     		str	r3, [sp, #28]
 354:../../libDaisy//src/dev/oled_ssd130x.h ****             return;
 5773              		.loc 4 354 9 view .LVU1513
 5774 0400 23B9     		cbnz	r3, .L341
 5775 0402 069B     		ldr	r3, [sp, #24]
 5776 0404 13B9     		cbnz	r3, .L341
 5777              	.LBE1238:
 5778              	.LBE1244:
 5779              	.LBE1256:
 230:../../libDaisy//src/hid/disp/display.h ****         int_fast16_t error  = deltaX - deltaY;
 5780              		.loc 3 230 42 view .LVU1514
 5781 0406 0123     		movs	r3, #1
 5782 0408 0693     		str	r3, [sp, #24]
 5783 040a 8FE6     		b	.L331
 5784              	.L341:
 5785 040c 0123     		movs	r3, #1
 5786 040e 0693     		str	r3, [sp, #24]
ARM GAS  /var/folders/1y/_321xjh9623c014x9_qw12rr0000gn/T//ccqHcGuP.s 			page 160


 5787 0410 A4E6     		b	.L307
 5788              	.LVL419:
 5789              	.L336:
 230:../../libDaisy//src/hid/disp/display.h ****         int_fast16_t error  = deltaX - deltaY;
 5790              		.loc 3 230 42 view .LVU1515
 5791 0412 4FF0FF33 		mov	r3, #-1
 5792 0416 0693     		str	r3, [sp, #24]
 5793              	.LVL420:
 239:../../libDaisy//src/hid/disp/display.h ****         {
 5794              		.loc 3 239 26 is_stmt 1 view .LVU1516
 5795 0418 DDE90331 		ldrd	r3, r1, [sp, #12]
 5796 041c 8B42     		cmp	r3, r1
 5797 041e 7FF49DAE 		bne	.L307
 5798              	.LVL421:
 5799              	.L376:
 239:../../libDaisy//src/hid/disp/display.h ****         {
 5800              		.loc 3 239 33 is_stmt 0 view .LVU1517
 5801 0422 4FF0010B 		mov	fp, #1
 5802 0426 C7E6     		b	.L306
 5803              	.LVL422:
 5804              	.L375:
 239:../../libDaisy//src/hid/disp/display.h ****         {
 5805              		.loc 3 239 33 view .LVU1518
 5806              	.LBE1258:
 5807              	.LBE1290:
 5808              	.LBB1291:
 5809              	.LBB1224:
 239:../../libDaisy//src/hid/disp/display.h ****         {
 5810              		.loc 3 239 19 view .LVU1519
 5811 0428 0123     		movs	r3, #1
 5812 042a 0993     		str	r3, [sp, #36]
 5813 042c 5FE6     		b	.L297
 5814              	.L378:
 5815 042e 00BF     		.align	2
 5816              	.L377:
 5817 0430 00000000 		.word	Font_6x8
 5818              	.LBE1224:
 5819              	.LBE1291:
 5820              	.LBE1331:
 5821              		.cfi_endproc
 5822              	.LFE2583:
 5824              		.section	.text._ZN5daisy5Dubby22DisplayPreferencesMenuEv,"ax",%progbits
 5825              		.align	1
 5826              		.p2align 2,,3
 5827              		.global	_ZN5daisy5Dubby22DisplayPreferencesMenuEv
 5828              		.syntax unified
 5829              		.thumb
 5830              		.thumb_func
 5832              	_ZN5daisy5Dubby22DisplayPreferencesMenuEv:
 5833              	.LVL423:
 5834              	.LFB2588:
 283:Dubby.cpp     **** {
 5835              		.loc 2 283 1 is_stmt 1 view -0
 5836              		.cfi_startproc
 5837              		@ args = 0, pretend = 0, frame = 48
 5838              		@ frame_needed = 0, uses_anonymous_args = 0
 284:Dubby.cpp     ****     display.DrawRect(PANE_X_START, PANE_Y_START, PANE_X_END, PANE_Y_END, false, true);
ARM GAS  /var/folders/1y/_321xjh9623c014x9_qw12rr0000gn/T//ccqHcGuP.s 			page 161


 5839              		.loc 2 284 5 view .LVU1521
 284:Dubby.cpp     ****     display.DrawRect(PANE_X_START, PANE_Y_START, PANE_X_END, PANE_Y_END, false, true);
 5840              		.loc 2 284 21 is_stmt 0 view .LVU1522
 5841 0000 00F58A63 		add	r3, r0, #1104
 283:Dubby.cpp     **** {
 5842              		.loc 2 283 1 view .LVU1523
 5843 0004 2DE9F04F 		push	{r4, r5, r6, r7, r8, r9, r10, fp, lr}
 5844              		.cfi_def_cfa_offset 36
 5845              		.cfi_offset 4, -36
 5846              		.cfi_offset 5, -32
 5847              		.cfi_offset 6, -28
 5848              		.cfi_offset 7, -24
 5849              		.cfi_offset 8, -20
 5850              		.cfi_offset 9, -16
 5851              		.cfi_offset 10, -12
 5852              		.cfi_offset 11, -8
 5853              		.cfi_offset 14, -4
 5854              	.LBB1441:
 5855              	.LBB1442:
 5856              	.LBB1443:
 266:../../libDaisy//src/hid/disp/display.h ****             {
 5857              		.loc 3 266 30 view .LVU1524
 5858 0008 0124     		movs	r4, #1
 5859              	.LBE1443:
 5860              	.LBE1442:
 5861              	.LBE1441:
 283:Dubby.cpp     **** {
 5862              		.loc 2 283 1 view .LVU1525
 5863 000a 0546     		mov	r5, r0
 5864 000c 2DED028B 		vpush.64	{d8}
 5865              		.cfi_def_cfa_offset 44
 5866              		.cfi_offset 80, -44
 5867              		.cfi_offset 81, -40
 284:Dubby.cpp     ****     display.DrawRect(PANE_X_START, PANE_Y_START, PANE_X_END, PANE_Y_END, false, true);
 5868              		.loc 2 284 21 view .LVU1526
 5869 0010 08EE103A 		vmov	s16, r3	@ int
 5870              	.LVL424:
 5871              	.LBB1461:
 5872              	.LBI1441:
 257:../../libDaisy//src/hid/disp/display.h ****                   uint_fast8_t y1,
 5873              		.loc 3 257 10 is_stmt 1 view .LVU1527
 5874              	.LBB1459:
 5875              	.LBI1442:
 257:../../libDaisy//src/hid/disp/display.h ****                   uint_fast8_t y1,
 5876              		.loc 3 257 10 view .LVU1528
 5877              	.LBB1457:
 266:../../libDaisy//src/hid/disp/display.h ****             {
 5878              		.loc 3 266 40 view .LVU1529
 5879              	.LBE1457:
 5880              	.LBE1459:
 5881              	.LBE1461:
 283:Dubby.cpp     **** {
 5882              		.loc 2 283 1 is_stmt 0 view .LVU1530
 5883 0014 8FB0     		sub	sp, sp, #60
 5884              		.cfi_def_cfa_offset 104
 5885              	.LVL425:
 5886              	.L381:
ARM GAS  /var/folders/1y/_321xjh9623c014x9_qw12rr0000gn/T//ccqHcGuP.s 			page 162


 5887              	.LBB1462:
 5888              	.LBB1460:
 5889              	.LBB1458:
 5890              	.LBB1444:
 268:../../libDaisy//src/hid/disp/display.h ****                 {
 5891              		.loc 3 268 44 is_stmt 1 view .LVU1531
 268:../../libDaisy//src/hid/disp/display.h ****                 {
 5892              		.loc 3 268 34 is_stmt 0 view .LVU1532
 5893 0016 0122     		movs	r2, #1
 5894              	.LVL426:
 5895              	.L380:
 5896              	.LBB1445:
 5897              	.LBI1445:
  42:../../libDaisy//src/hid/disp/oled_display.h ****     {
 5898              		.loc 1 42 10 is_stmt 1 view .LVU1533
 5899              	.LBB1446:
 5900              	.LBI1446:
 352:../../libDaisy//src/dev/oled_ssd130x.h ****     {
 5901              		.loc 4 352 10 view .LVU1534
 5902              	.LBB1447:
 5903              	.LBI1447:
 352:../../libDaisy//src/dev/oled_ssd130x.h ****     {
 5904              		.loc 4 352 10 view .LVU1535
 5905              	.LBB1448:
 359:../../libDaisy//src/dev/oled_ssd130x.h ****     }
 5906              		.loc 4 359 28 is_stmt 0 view .LVU1536
 5907 0018 D308     		lsrs	r3, r2, #3
 359:../../libDaisy//src/dev/oled_ssd130x.h ****     }
 5908              		.loc 4 359 49 view .LVU1537
 5909 001a 0121     		movs	r1, #1
 359:../../libDaisy//src/dev/oled_ssd130x.h ****     }
 5910              		.loc 4 359 55 view .LVU1538
 5911 001c 02F00700 		and	r0, r2, #7
 359:../../libDaisy//src/dev/oled_ssd130x.h ****     }
 5912              		.loc 4 359 42 view .LVU1539
 5913 0020 04EBC313 		add	r3, r4, r3, lsl #7
 5914              	.LBE1448:
 5915              	.LBE1447:
 5916              	.LBE1446:
 5917              	.LBE1445:
 268:../../libDaisy//src/hid/disp/display.h ****                 {
 5918              		.loc 3 268 17 view .LVU1540
 5919 0024 0A44     		add	r2, r2, r1
 5920              	.LVL427:
 5921              	.LBB1455:
 5922              	.LBB1453:
 5923              	.LBB1451:
 5924              	.LBB1449:
 359:../../libDaisy//src/dev/oled_ssd130x.h ****     }
 5925              		.loc 4 359 49 view .LVU1541
 5926 0026 01FA00F0 		lsl	r0, r1, r0
 359:../../libDaisy//src/dev/oled_ssd130x.h ****     }
 5927              		.loc 4 359 42 view .LVU1542
 5928 002a 2B44     		add	r3, r3, r5
 5929              	.LBE1449:
 5930              	.LBE1451:
 5931              	.LBE1453:
ARM GAS  /var/folders/1y/_321xjh9623c014x9_qw12rr0000gn/T//ccqHcGuP.s 			page 163


 5932              	.LBE1455:
 268:../../libDaisy//src/hid/disp/display.h ****                 {
 5933              		.loc 3 268 44 view .LVU1543
 5934 002c 342A     		cmp	r2, #52
 5935              	.LBB1456:
 5936              	.LBB1454:
 5937              	.LBB1452:
 5938              	.LBB1450:
 359:../../libDaisy//src/dev/oled_ssd130x.h ****     }
 5939              		.loc 4 359 42 view .LVU1544
 5940 002e 93F86414 		ldrb	r1, [r3, #1124]	@ zero_extendqisi2
 5941 0032 21EA0001 		bic	r1, r1, r0
 5942 0036 83F86414 		strb	r1, [r3, #1124]
 5943              	.LVL428:
 359:../../libDaisy//src/dev/oled_ssd130x.h ****     }
 5944              		.loc 4 359 42 view .LVU1545
 5945              	.LBE1450:
 5946              	.LBE1452:
 5947              	.LBE1454:
 5948              	.LBE1456:
 268:../../libDaisy//src/hid/disp/display.h ****                 {
 5949              		.loc 3 268 17 is_stmt 1 view .LVU1546
 268:../../libDaisy//src/hid/disp/display.h ****                 {
 5950              		.loc 3 268 44 view .LVU1547
 5951 003a EDD1     		bne	.L380
 5952              	.LBE1444:
 266:../../libDaisy//src/hid/disp/display.h ****             {
 5953              		.loc 3 266 13 view .LVU1548
 5954 003c 0134     		adds	r4, r4, #1
 5955              	.LVL429:
 266:../../libDaisy//src/hid/disp/display.h ****             {
 5956              		.loc 3 266 40 view .LVU1549
 5957 003e 7F2C     		cmp	r4, #127
 5958 0040 E9D1     		bne	.L381
 5959 0042 05F10C03 		add	r3, r5, #12
 5960              	.LBE1458:
 5961              	.LBE1460:
 5962              	.LBE1462:
 5963              	.LBB1463:
 286:Dubby.cpp     ****     for (int i = 0; i < PREFERENCESMENU_LAST; i++)
 5964              		.loc 2 286 14 is_stmt 0 view .LVU1550
 5965 0046 0322     		movs	r2, #3
 5966              	.LVL430:
 286:Dubby.cpp     ****     for (int i = 0; i < PREFERENCESMENU_LAST; i++)
 5967              		.loc 2 286 14 view .LVU1551
 5968 0048 CDE90553 		strd	r5, r3, [sp, #20]
 5969 004c 0023     		movs	r3, #0
 5970 004e CDE90232 		strd	r3, r2, [sp, #8]
 5971              	.LVL431:
 5972              	.L416:
 288:Dubby.cpp     ****         display.SetCursor(5, 3 + (i * 10));
 5973              		.loc 2 288 9 is_stmt 1 view .LVU1552
 5974              	.LBB1464:
 5975              	.LBI1464:
 171:../../libDaisy//src/hid/disp/display.h ****     {
 5976              		.loc 3 171 10 view .LVU1553
 5977              	.LBB1465:
ARM GAS  /var/folders/1y/_321xjh9623c014x9_qw12rr0000gn/T//ccqHcGuP.s 			page 164


 173:../../libDaisy//src/hid/disp/display.h ****         currentY_ = (y >= Height()) ? Height() - 1 : y;
 5978              		.loc 3 173 9 view .LVU1554
 174:../../libDaisy//src/hid/disp/display.h ****     }
 5979              		.loc 3 174 19 is_stmt 0 view .LVU1555
 5980 0052 0398     		ldr	r0, [sp, #12]
 173:../../libDaisy//src/hid/disp/display.h ****         currentY_ = (y >= Height()) ? Height() - 1 : y;
 5981              		.loc 3 173 19 view .LVU1556
 5982 0054 0521     		movs	r1, #5
 5983              	.LBE1465:
 5984              	.LBE1464:
 289:Dubby.cpp     ****         display.WriteString(GetTextForEnum(PREFERENCESMENU, i), Font_6x8, true);
 5985              		.loc 2 289 28 view .LVU1557
 5986 0056 0124     		movs	r4, #1
 5987 0058 324B     		ldr	r3, .L467
 5988              	.LBB1468:
 5989              	.LBB1466:
 174:../../libDaisy//src/hid/disp/display.h ****     }
 5990              		.loc 3 174 19 view .LVU1558
 5991 005a A5F85604 		strh	r0, [r5, #1110]	@ movhi
 5992              	.LBE1466:
 5993              	.LBE1468:
 289:Dubby.cpp     ****         display.WriteString(GetTextForEnum(PREFERENCESMENU, i), Font_6x8, true);
 5994              		.loc 2 289 28 view .LVU1559
 5995 005e 0698     		ldr	r0, [sp, #24]
 5996              	.LBB1469:
 5997              	.LBB1467:
 173:../../libDaisy//src/hid/disp/display.h ****         currentY_ = (y >= Height()) ? Height() - 1 : y;
 5998              		.loc 3 173 19 view .LVU1560
 5999 0060 A5F85414 		strh	r1, [r5, #1108]	@ movhi
 174:../../libDaisy//src/hid/disp/display.h ****     }
 6000              		.loc 3 174 9 is_stmt 1 view .LVU1561
 6001              	.LVL432:
 174:../../libDaisy//src/hid/disp/display.h ****     }
 6002              		.loc 3 174 9 is_stmt 0 view .LVU1562
 6003              	.LBE1467:
 6004              	.LBE1469:
 289:Dubby.cpp     ****         display.WriteString(GetTextForEnum(PREFERENCESMENU, i), Font_6x8, true);
 6005              		.loc 2 289 9 is_stmt 1 view .LVU1563
 6006              	.LBB1470:
 6007              	.LBI1470:
 424:Dubby.cpp     **** const char * Dubby::GetTextForEnum(MenuTypes m, int enumVal)
 6008              		.loc 2 424 14 view .LVU1564
 6009              	.LBB1471:
 426:Dubby.cpp     ****     switch (m)
 6010              		.loc 2 426 5 view .LVU1565
 430:Dubby.cpp     ****             break;
 6011              		.loc 2 430 13 view .LVU1566
 431:Dubby.cpp     ****         case PREFERENCESMENU:
 6012              		.loc 2 431 9 view .LVU1567
 432:Dubby.cpp     ****             return PreferencesMenuItemsStrings[enumVal];
 6013              		.loc 2 432 13 view .LVU1568
 432:Dubby.cpp     ****             return PreferencesMenuItemsStrings[enumVal];
 6014              		.loc 2 432 13 is_stmt 0 view .LVU1569
 6015              	.LBE1471:
 6016              	.LBE1470:
 289:Dubby.cpp     ****         display.WriteString(GetTextForEnum(PREFERENCESMENU, i), Font_6x8, true);
 6017              		.loc 2 289 28 view .LVU1570
ARM GAS  /var/folders/1y/_321xjh9623c014x9_qw12rr0000gn/T//ccqHcGuP.s 			page 165


 6018 0064 50F8041B 		ldr	r1, [r0], #4
 6019 0068 0CCB     		ldm	r3, {r2, r3}
 6020 006a 0690     		str	r0, [sp, #24]
 6021 006c 18EE100A 		vmov	r0, s16	@ int
 6022 0070 0094     		str	r4, [sp]
 6023 0072 FFF7FEFF 		bl	_ZN5daisy25OneBitGraphicsDisplayImplINS_11OledDisplayINS_13SSD130xDriverILj128ELj64ENS_24SSD130
 6024              	.LVL433:
 291:Dubby.cpp     ****         if (preferencesMenuItemSelected == i)
 6025              		.loc 2 291 9 is_stmt 1 view .LVU1571
 291:Dubby.cpp     ****         if (preferencesMenuItemSelected == i)
 6026              		.loc 2 291 13 is_stmt 0 view .LVU1572
 6027 0076 95F85930 		ldrb	r3, [r5, #89]	@ zero_extendqisi2
 291:Dubby.cpp     ****         if (preferencesMenuItemSelected == i)
 6028              		.loc 2 291 9 view .LVU1573
 6029 007a 029A     		ldr	r2, [sp, #8]
 6030 007c 9342     		cmp	r3, r2
 6031 007e 53D0     		beq	.L464
 6032              	.L382:
 286:Dubby.cpp     ****     for (int i = 0; i < PREFERENCESMENU_LAST; i++)
 6033              		.loc 2 286 5 is_stmt 1 view .LVU1574
 286:Dubby.cpp     ****     for (int i = 0; i < PREFERENCESMENU_LAST; i++)
 6034              		.loc 2 286 23 is_stmt 0 view .LVU1575
 6035 0080 039B     		ldr	r3, [sp, #12]
 286:Dubby.cpp     ****     for (int i = 0; i < PREFERENCESMENU_LAST; i++)
 6036              		.loc 2 286 5 view .LVU1576
 6037 0082 029A     		ldr	r2, [sp, #8]
 286:Dubby.cpp     ****     for (int i = 0; i < PREFERENCESMENU_LAST; i++)
 6038              		.loc 2 286 23 view .LVU1577
 6039 0084 0599     		ldr	r1, [sp, #20]
 6040 0086 0A33     		adds	r3, r3, #10
 286:Dubby.cpp     ****     for (int i = 0; i < PREFERENCESMENU_LAST; i++)
 6041              		.loc 2 286 5 view .LVU1578
 6042 0088 0132     		adds	r2, r2, #1
 286:Dubby.cpp     ****     for (int i = 0; i < PREFERENCESMENU_LAST; i++)
 6043              		.loc 2 286 23 view .LVU1579
 6044 008a 1031     		adds	r1, r1, #16
 6045 008c 9BB2     		uxth	r3, r3
 6046 008e 042A     		cmp	r2, #4
 286:Dubby.cpp     ****     for (int i = 0; i < PREFERENCESMENU_LAST; i++)
 6047              		.loc 2 286 5 view .LVU1580
 6048 0090 0292     		str	r2, [sp, #8]
 6049              	.LVL434:
 286:Dubby.cpp     ****     for (int i = 0; i < PREFERENCESMENU_LAST; i++)
 6050              		.loc 2 286 23 is_stmt 1 view .LVU1581
 6051 0092 0591     		str	r1, [sp, #20]
 6052 0094 0393     		str	r3, [sp, #12]
 6053 0096 DCD1     		bne	.L416
 6054              	.LBE1463:
 6055              	.LBB1561:
 6056              	.LBB1562:
 6057              	.LBB1563:
 6058              	.LBB1564:
 6059              	.LBB1565:
 124:../../libDaisy//src/dev/oled_ssd130x.h ****         spi_.BlockingTransmit(&cmd, 1);
 6060              		.loc 4 124 24 is_stmt 0 view .LVU1582
 6061 0098 05F58B67 		add	r7, r5, #1112
 6062 009c 05F58C66 		add	r6, r5, #1120
ARM GAS  /var/folders/1y/_321xjh9623c014x9_qw12rr0000gn/T//ccqHcGuP.s 			page 166


 6063 00a0 05F26444 		addw	r4, r5, #1124
 125:../../libDaisy//src/dev/oled_ssd130x.h ****     };
 6064              		.loc 4 125 30 view .LVU1583
 6065 00a4 B025     		movs	r5, #176
 6066              	.LVL435:
 6067              	.L417:
 125:../../libDaisy//src/dev/oled_ssd130x.h ****     };
 6068              		.loc 4 125 30 view .LVU1584
 6069 00a6 4FF00008 		mov	r8, #0
 124:../../libDaisy//src/dev/oled_ssd130x.h ****         spi_.BlockingTransmit(&cmd, 1);
 6070              		.loc 4 124 23 view .LVU1585
 6071 00aa 3046     		mov	r0, r6
 6072 00ac 8DF83750 		strb	r5, [sp, #55]
 6073              	.LVL436:
 124:../../libDaisy//src/dev/oled_ssd130x.h ****         spi_.BlockingTransmit(&cmd, 1);
 6074              		.loc 4 124 23 view .LVU1586
 6075              	.LBE1565:
 6076              	.LBI1564:
 122:../../libDaisy//src/dev/oled_ssd130x.h ****     {
 6077              		.loc 4 122 10 is_stmt 1 view .LVU1587
 6078              	.LBB1566:
 124:../../libDaisy//src/dev/oled_ssd130x.h ****         spi_.BlockingTransmit(&cmd, 1);
 6079              		.loc 4 124 9 view .LVU1588
 6080              	.LBE1566:
 6081              	.LBE1564:
 6082              		.loc 4 383 22 is_stmt 0 view .LVU1589
 6083 00b0 0135     		adds	r5, r5, #1
 6084              	.LVL437:
 6085              	.LBB1569:
 6086              	.LBB1567:
 124:../../libDaisy//src/dev/oled_ssd130x.h ****         spi_.BlockingTransmit(&cmd, 1);
 6087              		.loc 4 124 23 view .LVU1590
 6088 00b2 4146     		mov	r1, r8
 6089 00b4 FFF7FEFF 		bl	dsy_gpio_write
 6090              	.LVL438:
 125:../../libDaisy//src/dev/oled_ssd130x.h ****     };
 6091              		.loc 4 125 9 is_stmt 1 view .LVU1591
 125:../../libDaisy//src/dev/oled_ssd130x.h ****     };
 6092              		.loc 4 125 30 is_stmt 0 view .LVU1592
 6093 00b8 6423     		movs	r3, #100
 6094 00ba 0122     		movs	r2, #1
 6095 00bc 0DF13701 		add	r1, sp, #55
 6096 00c0 3846     		mov	r0, r7
 6097              	.LBE1567:
 6098              	.LBE1569:
 6099              		.loc 4 383 22 view .LVU1593
 6100 00c2 EDB2     		uxtb	r5, r5
 6101              	.LBB1570:
 6102              	.LBB1568:
 125:../../libDaisy//src/dev/oled_ssd130x.h ****     };
 6103              		.loc 4 125 30 view .LVU1594
 6104 00c4 FFF7FEFF 		bl	_ZN5daisy9SpiHandle16BlockingTransmitEPhjm
 6105              	.LVL439:
 125:../../libDaisy//src/dev/oled_ssd130x.h ****     };
 6106              		.loc 4 125 30 view .LVU1595
 6107              	.LBE1568:
 6108              	.LBE1570:
ARM GAS  /var/folders/1y/_321xjh9623c014x9_qw12rr0000gn/T//ccqHcGuP.s 			page 167


 6109              	.LBB1571:
 6110              	.LBB1572:
 124:../../libDaisy//src/dev/oled_ssd130x.h ****         spi_.BlockingTransmit(&cmd, 1);
 6111              		.loc 4 124 23 view .LVU1596
 6112 00c8 4146     		mov	r1, r8
 6113 00ca 3046     		mov	r0, r6
 6114 00cc 8DF83780 		strb	r8, [sp, #55]
 6115              	.LVL440:
 124:../../libDaisy//src/dev/oled_ssd130x.h ****         spi_.BlockingTransmit(&cmd, 1);
 6116              		.loc 4 124 23 view .LVU1597
 6117              	.LBE1572:
 6118              	.LBI1571:
 122:../../libDaisy//src/dev/oled_ssd130x.h ****     {
 6119              		.loc 4 122 10 is_stmt 1 view .LVU1598
 6120              	.LBB1573:
 124:../../libDaisy//src/dev/oled_ssd130x.h ****         spi_.BlockingTransmit(&cmd, 1);
 6121              		.loc 4 124 9 view .LVU1599
 124:../../libDaisy//src/dev/oled_ssd130x.h ****         spi_.BlockingTransmit(&cmd, 1);
 6122              		.loc 4 124 23 is_stmt 0 view .LVU1600
 6123 00d0 FFF7FEFF 		bl	dsy_gpio_write
 6124              	.LVL441:
 125:../../libDaisy//src/dev/oled_ssd130x.h ****     };
 6125              		.loc 4 125 9 is_stmt 1 view .LVU1601
 125:../../libDaisy//src/dev/oled_ssd130x.h ****     };
 6126              		.loc 4 125 30 is_stmt 0 view .LVU1602
 6127 00d4 0122     		movs	r2, #1
 6128 00d6 6423     		movs	r3, #100
 6129 00d8 0DF13701 		add	r1, sp, #55
 6130 00dc 3846     		mov	r0, r7
 6131 00de FFF7FEFF 		bl	_ZN5daisy9SpiHandle16BlockingTransmitEPhjm
 6132              	.LVL442:
 125:../../libDaisy//src/dev/oled_ssd130x.h ****     };
 6133              		.loc 4 125 30 view .LVU1603
 6134 00e2 1023     		movs	r3, #16
 6135              	.LBE1573:
 6136              	.LBE1571:
 6137              	.LBB1574:
 6138              	.LBB1575:
 124:../../libDaisy//src/dev/oled_ssd130x.h ****         spi_.BlockingTransmit(&cmd, 1);
 6139              		.loc 4 124 23 view .LVU1604
 6140 00e4 4146     		mov	r1, r8
 6141 00e6 3046     		mov	r0, r6
 6142 00e8 8DF83730 		strb	r3, [sp, #55]
 6143              	.LVL443:
 124:../../libDaisy//src/dev/oled_ssd130x.h ****         spi_.BlockingTransmit(&cmd, 1);
 6144              		.loc 4 124 23 view .LVU1605
 6145              	.LBE1575:
 6146              	.LBI1574:
 122:../../libDaisy//src/dev/oled_ssd130x.h ****     {
 6147              		.loc 4 122 10 is_stmt 1 view .LVU1606
 6148              	.LBB1576:
 124:../../libDaisy//src/dev/oled_ssd130x.h ****         spi_.BlockingTransmit(&cmd, 1);
 6149              		.loc 4 124 9 view .LVU1607
 124:../../libDaisy//src/dev/oled_ssd130x.h ****         spi_.BlockingTransmit(&cmd, 1);
 6150              		.loc 4 124 23 is_stmt 0 view .LVU1608
 6151 00ec FFF7FEFF 		bl	dsy_gpio_write
 6152              	.LVL444:
ARM GAS  /var/folders/1y/_321xjh9623c014x9_qw12rr0000gn/T//ccqHcGuP.s 			page 168


 125:../../libDaisy//src/dev/oled_ssd130x.h ****     };
 6153              		.loc 4 125 9 is_stmt 1 view .LVU1609
 125:../../libDaisy//src/dev/oled_ssd130x.h ****     };
 6154              		.loc 4 125 30 is_stmt 0 view .LVU1610
 6155 00f0 6423     		movs	r3, #100
 6156 00f2 0122     		movs	r2, #1
 6157 00f4 0DF13701 		add	r1, sp, #55
 6158 00f8 3846     		mov	r0, r7
 6159 00fa FFF7FEFF 		bl	_ZN5daisy9SpiHandle16BlockingTransmitEPhjm
 6160              	.LVL445:
 125:../../libDaisy//src/dev/oled_ssd130x.h ****     };
 6161              		.loc 4 125 30 view .LVU1611
 6162              	.LBE1576:
 6163              	.LBE1574:
 6164              	.LBB1577:
 6165              	.LBI1577:
 128:../../libDaisy//src/dev/oled_ssd130x.h ****     {
 6166              		.loc 4 128 10 is_stmt 1 view .LVU1612
 6167              	.LBB1578:
 130:../../libDaisy//src/dev/oled_ssd130x.h ****         spi_.BlockingTransmit(buff, size);
 6168              		.loc 4 130 9 view .LVU1613
 130:../../libDaisy//src/dev/oled_ssd130x.h ****         spi_.BlockingTransmit(buff, size);
 6169              		.loc 4 130 23 is_stmt 0 view .LVU1614
 6170 00fe 0121     		movs	r1, #1
 6171 0100 3046     		mov	r0, r6
 6172 0102 FFF7FEFF 		bl	dsy_gpio_write
 6173              	.LVL446:
 131:../../libDaisy//src/dev/oled_ssd130x.h ****     };
 6174              		.loc 4 131 9 is_stmt 1 view .LVU1615
 131:../../libDaisy//src/dev/oled_ssd130x.h ****     };
 6175              		.loc 4 131 30 is_stmt 0 view .LVU1616
 6176 0106 8022     		movs	r2, #128
 6177 0108 2146     		mov	r1, r4
 6178 010a 6423     		movs	r3, #100
 6179 010c 3846     		mov	r0, r7
 6180              	.LBE1578:
 6181              	.LBE1577:
 6182              		.loc 4 383 22 view .LVU1617
 6183 010e 1444     		add	r4, r4, r2
 6184              	.LVL447:
 6185              	.LBB1580:
 6186              	.LBB1579:
 131:../../libDaisy//src/dev/oled_ssd130x.h ****     };
 6187              		.loc 4 131 30 view .LVU1618
 6188 0110 FFF7FEFF 		bl	_ZN5daisy9SpiHandle16BlockingTransmitEPhjm
 6189              	.LVL448:
 131:../../libDaisy//src/dev/oled_ssd130x.h ****     };
 6190              		.loc 4 131 30 view .LVU1619
 6191              	.LBE1579:
 6192              	.LBE1580:
 6193              		.loc 4 383 9 is_stmt 1 view .LVU1620
 6194              		.loc 4 383 22 view .LVU1621
 6195 0114 B82D     		cmp	r5, #184
 6196 0116 C6D1     		bne	.L417
 6197              	.LBE1563:
 6198              	.LBE1562:
 6199              	.LBE1561:
ARM GAS  /var/folders/1y/_321xjh9623c014x9_qw12rr0000gn/T//ccqHcGuP.s 			page 169


 296:Dubby.cpp     **** }
 6200              		.loc 2 296 1 is_stmt 0 view .LVU1622
 6201 0118 0FB0     		add	sp, sp, #60
 6202              		.cfi_remember_state
 6203              		.cfi_def_cfa_offset 44
 6204              		@ sp needed
 6205 011a BDEC028B 		vldm	sp!, {d8}
 6206              		.cfi_restore 80
 6207              		.cfi_restore 81
 6208              		.cfi_def_cfa_offset 36
 6209 011e BDE8F08F 		pop	{r4, r5, r6, r7, r8, r9, r10, fp, pc}
 6210              	.LVL449:
 6211              	.L468:
 296:Dubby.cpp     **** }
 6212              		.loc 2 296 1 view .LVU1623
 6213 0122 00BF     		.align	2
 6214              	.L467:
 6215 0124 00000000 		.word	Font_6x8
 6216              	.LVL450:
 6217              	.L464:
 6218              		.cfi_restore_state
 6219              	.LBB1581:
 292:Dubby.cpp     ****             display.DrawRect(submenuBoxBounding[i][0], submenuBoxBounding[i][1], submenuBoxBounding
 6220              		.loc 2 292 13 is_stmt 1 view .LVU1624
 292:Dubby.cpp     ****             display.DrawRect(submenuBoxBounding[i][0], submenuBoxBounding[i][1], submenuBoxBounding
 6221              		.loc 2 292 105 is_stmt 0 view .LVU1625
 6222 0128 059B     		ldr	r3, [sp, #20]
 6223 012a D3F8AC60 		ldr	r6, [r3, #172]
 292:Dubby.cpp     ****             display.DrawRect(submenuBoxBounding[i][0], submenuBoxBounding[i][1], submenuBoxBounding
 6224              		.loc 2 292 53 view .LVU1626
 6225 012e D3F8A470 		ldr	r7, [r3, #164]
 292:Dubby.cpp     ****             display.DrawRect(submenuBoxBounding[i][0], submenuBoxBounding[i][1], submenuBoxBounding
 6226              		.loc 2 292 131 view .LVU1627
 6227 0132 D3F8B0C0 		ldr	ip, [r3, #176]
 292:Dubby.cpp     ****             display.DrawRect(submenuBoxBounding[i][0], submenuBoxBounding[i][1], submenuBoxBounding
 6228              		.loc 2 292 29 view .LVU1628
 6229 0136 3046     		mov	r0, r6
 6230              	.LBB1472:
 6231              	.LBB1473:
 6232              	.LBB1474:
 227:../../libDaisy//src/hid/disp/display.h ****         int_fast16_t deltaY = abs((int_fast16_t)y2 - (int_fast16_t)y1);
 6233              		.loc 3 227 52 view .LVU1629
 6234 0138 A6EB0709 		sub	r9, r6, r7
 6235              	.LBE1474:
 6236              	.LBE1473:
 6237              	.LBE1472:
 292:Dubby.cpp     ****             display.DrawRect(submenuBoxBounding[i][0], submenuBoxBounding[i][1], submenuBoxBounding
 6238              		.loc 2 292 79 view .LVU1630
 6239 013c D3F8A830 		ldr	r3, [r3, #168]
 292:Dubby.cpp     ****             display.DrawRect(submenuBoxBounding[i][0], submenuBoxBounding[i][1], submenuBoxBounding
 6240              		.loc 2 292 29 view .LVU1631
 6241 0140 6246     		mov	r2, ip
 6242              	.LBB1555:
 6243              	.LBB1492:
 6244              	.LBB1487:
 227:../../libDaisy//src/hid/disp/display.h ****         int_fast16_t deltaY = abs((int_fast16_t)y2 - (int_fast16_t)y1);
 6245              		.loc 3 227 22 view .LVU1632
ARM GAS  /var/folders/1y/_321xjh9623c014x9_qw12rr0000gn/T//ccqHcGuP.s 			page 170


 6246 0142 B9F1000F 		cmp	r9, #0
 6247              	.LBE1487:
 6248              	.LBE1492:
 6249              	.LBE1555:
 292:Dubby.cpp     ****             display.DrawRect(submenuBoxBounding[i][0], submenuBoxBounding[i][1], submenuBoxBounding
 6250              		.loc 2 292 79 view .LVU1633
 6251 0146 0493     		str	r3, [sp, #16]
 6252              	.LVL451:
 6253              	.LBB1556:
 6254              	.LBI1472:
 257:../../libDaisy//src/hid/disp/display.h ****                   uint_fast8_t y1,
 6255              		.loc 3 257 10 is_stmt 1 view .LVU1634
 6256              	.LBB1493:
 6257              	.LBI1473:
 221:../../libDaisy//src/hid/disp/display.h ****                   uint_fast8_t y1,
 6258              		.loc 3 221 10 view .LVU1635
 6259              	.LBB1488:
 227:../../libDaisy//src/hid/disp/display.h ****         int_fast16_t deltaY = abs((int_fast16_t)y2 - (int_fast16_t)y1);
 6260              		.loc 3 227 22 is_stmt 0 view .LVU1636
 6261 0148 B8BF     		it	lt
 6262 014a C9F10009 		rsblt	r9, r9, #0
 6263              	.LVL452:
 229:../../libDaisy//src/hid/disp/display.h ****         int_fast16_t signY  = ((y1 < y2) ? 1 : -1);
 6264              		.loc 3 229 42 view .LVU1637
 6265 014e B742     		cmp	r7, r6
 6266 0150 C0F03E81 		bcc	.L383
 6267              	.LVL453:
 6268              	.LBB1475:
 6269              	.LBI1475:
  42:../../libDaisy//src/hid/disp/oled_display.h ****     {
 6270              		.loc 1 42 10 is_stmt 1 view .LVU1638
 6271              	.LBB1476:
 6272              	.LBI1476:
 352:../../libDaisy//src/dev/oled_ssd130x.h ****     {
 6273              		.loc 4 352 10 view .LVU1639
 6274              	.LBB1477:
 354:../../libDaisy//src/dev/oled_ssd130x.h ****             return;
 6275              		.loc 4 354 14 is_stmt 0 view .LVU1640
 6276 0154 7F2E     		cmp	r6, #127
 6277              	.LBE1477:
 6278              	.LBE1476:
 6279              	.LBE1475:
 229:../../libDaisy//src/hid/disp/display.h ****         int_fast16_t signY  = ((y1 < y2) ? 1 : -1);
 6280              		.loc 3 229 42 view .LVU1641
 6281 0156 4FF0FF3B 		mov	fp, #-1
 6282              	.LBB1482:
 6283              	.LBB1480:
 6284              	.LBB1478:
 354:../../libDaisy//src/dev/oled_ssd130x.h ****             return;
 6285              		.loc 4 354 14 view .LVU1642
 6286 015a 94BF     		ite	ls
 6287 015c 0021     		movls	r1, #0
 6288 015e 0121     		movhi	r1, #1
 354:../../libDaisy//src/dev/oled_ssd130x.h ****             return;
 6289              		.loc 4 354 28 view .LVU1643
 6290 0160 3F2B     		cmp	r3, #63
 354:../../libDaisy//src/dev/oled_ssd130x.h ****             return;
ARM GAS  /var/folders/1y/_321xjh9623c014x9_qw12rr0000gn/T//ccqHcGuP.s 			page 171


 6291              		.loc 4 354 14 view .LVU1644
 6292 0162 0891     		str	r1, [sp, #32]
 354:../../libDaisy//src/dev/oled_ssd130x.h ****             return;
 6293              		.loc 4 354 28 view .LVU1645
 6294 0164 94BF     		ite	ls
 6295 0166 0023     		movls	r3, #0
 6296              	.LVL454:
 354:../../libDaisy//src/dev/oled_ssd130x.h ****             return;
 6297              		.loc 4 354 28 view .LVU1646
 6298 0168 0123     		movhi	r3, #1
 6299 016a 0993     		str	r3, [sp, #36]
 354:../../libDaisy//src/dev/oled_ssd130x.h ****             return;
 6300              		.loc 4 354 9 view .LVU1647
 6301 016c 91B9     		cbnz	r1, .L384
 6302 016e 8BB9     		cbnz	r3, .L384
 6303              	.LVL455:
 6304              	.L419:
 357:../../libDaisy//src/dev/oled_ssd130x.h ****         else
 6305              		.loc 4 357 28 view .LVU1648
 6306 0170 0499     		ldr	r1, [sp, #16]
 357:../../libDaisy//src/dev/oled_ssd130x.h ****         else
 6307              		.loc 4 357 48 view .LVU1649
 6308 0172 0124     		movs	r4, #1
 357:../../libDaisy//src/dev/oled_ssd130x.h ****         else
 6309              		.loc 4 357 28 view .LVU1650
 6310 0174 CB08     		lsrs	r3, r1, #3
 357:../../libDaisy//src/dev/oled_ssd130x.h ****         else
 6311              		.loc 4 357 54 view .LVU1651
 6312 0176 01F00701 		and	r1, r1, #7
 357:../../libDaisy//src/dev/oled_ssd130x.h ****         else
 6313              		.loc 4 357 42 view .LVU1652
 6314 017a 06EBC313 		add	r3, r6, r3, lsl #7
 357:../../libDaisy//src/dev/oled_ssd130x.h ****         else
 6315              		.loc 4 357 48 view .LVU1653
 6316 017e 04FA01F1 		lsl	r1, r4, r1
 357:../../libDaisy//src/dev/oled_ssd130x.h ****         else
 6317              		.loc 4 357 42 view .LVU1654
 6318 0182 2B44     		add	r3, r3, r5
 6319 0184 93F86444 		ldrb	r4, [r3, #1124]	@ zero_extendqisi2
 6320 0188 2143     		orrs	r1, r1, r4
 6321 018a 83F86414 		strb	r1, [r3, #1124]
 6322              	.LVL456:
 357:../../libDaisy//src/dev/oled_ssd130x.h ****         else
 6323              		.loc 4 357 42 view .LVU1655
 6324 018e 0023     		movs	r3, #0
 6325 0190 CDE90833 		strd	r3, r3, [sp, #32]
 6326              	.L384:
 6327              	.LVL457:
 357:../../libDaisy//src/dev/oled_ssd130x.h ****         else
 6328              		.loc 4 357 42 view .LVU1656
 6329              	.LBE1478:
 6330              	.LBE1480:
 6331              	.LBE1482:
 239:../../libDaisy//src/hid/disp/display.h ****         {
 6332              		.loc 3 239 26 is_stmt 1 view .LVU1657
 6333 0194 B742     		cmp	r7, r6
 6334 0196 00F04381 		beq	.L465
ARM GAS  /var/folders/1y/_321xjh9623c014x9_qw12rr0000gn/T//ccqHcGuP.s 			page 172


 6335              	.L386:
 6336              	.LVL458:
 227:../../libDaisy//src/hid/disp/display.h ****         int_fast16_t deltaY = abs((int_fast16_t)y2 - (int_fast16_t)y1);
 6337              		.loc 3 227 22 is_stmt 0 view .LVU1658
 6338 019a C846     		mov	r8, r9
 6339              	.LBE1488:
 6340              	.LBE1493:
 6341              	.LBE1556:
 292:Dubby.cpp     ****             display.DrawRect(submenuBoxBounding[i][0], submenuBoxBounding[i][1], submenuBoxBounding
 6342              		.loc 2 292 29 view .LVU1659
 6343 019c 049C     		ldr	r4, [sp, #16]
 6344 019e BE46     		mov	lr, r7
 6345              	.L388:
 6346              	.LVL459:
 6347              	.LBB1557:
 6348              	.LBB1494:
 6349              	.LBB1489:
 6350              	.LBB1483:
 6351              	.LBI1483:
  42:../../libDaisy//src/hid/disp/oled_display.h ****     {
 6352              		.loc 1 42 10 is_stmt 1 view .LVU1660
 6353              	.LBB1484:
 6354              	.LBI1484:
 352:../../libDaisy//src/dev/oled_ssd130x.h ****     {
 6355              		.loc 4 352 10 view .LVU1661
 6356              	.LBB1485:
 357:../../libDaisy//src/dev/oled_ssd130x.h ****         else
 6357              		.loc 4 357 28 is_stmt 0 view .LVU1662
 6358 01a0 E308     		lsrs	r3, r4, #3
 357:../../libDaisy//src/dev/oled_ssd130x.h ****         else
 6359              		.loc 4 357 54 view .LVU1663
 6360 01a2 04F00701 		and	r1, r4, #7
 357:../../libDaisy//src/dev/oled_ssd130x.h ****         else
 6361              		.loc 4 357 48 view .LVU1664
 6362 01a6 4FF0010A 		mov	r10, #1
 354:../../libDaisy//src/dev/oled_ssd130x.h ****             return;
 6363              		.loc 4 354 9 view .LVU1665
 6364 01aa BEF17F0F 		cmp	lr, #127
 357:../../libDaisy//src/dev/oled_ssd130x.h ****         else
 6365              		.loc 4 357 42 view .LVU1666
 6366 01ae 0EEBC313 		add	r3, lr, r3, lsl #7
 357:../../libDaisy//src/dev/oled_ssd130x.h ****         else
 6367              		.loc 4 357 48 view .LVU1667
 6368 01b2 0AFA01F1 		lsl	r1, r10, r1
 354:../../libDaisy//src/dev/oled_ssd130x.h ****             return;
 6369              		.loc 4 354 9 view .LVU1668
 6370 01b6 08D8     		bhi	.L389
 6371 01b8 3F2C     		cmp	r4, #63
 357:../../libDaisy//src/dev/oled_ssd130x.h ****         else
 6372              		.loc 4 357 42 view .LVU1669
 6373 01ba 2B44     		add	r3, r3, r5
 354:../../libDaisy//src/dev/oled_ssd130x.h ****             return;
 6374              		.loc 4 354 9 view .LVU1670
 6375 01bc 05D8     		bhi	.L389
 357:../../libDaisy//src/dev/oled_ssd130x.h ****         else
 6376              		.loc 4 357 42 view .LVU1671
 6377 01be 93F864A4 		ldrb	r10, [r3, #1124]	@ zero_extendqisi2
ARM GAS  /var/folders/1y/_321xjh9623c014x9_qw12rr0000gn/T//ccqHcGuP.s 			page 173


 6378 01c2 41EA0A01 		orr	r1, r1, r10
 6379 01c6 83F86414 		strb	r1, [r3, #1124]
 6380              	.L389:
 357:../../libDaisy//src/dev/oled_ssd130x.h ****         else
 6381              		.loc 4 357 42 view .LVU1672
 6382              	.LBE1485:
 6383              	.LBE1484:
 6384              	.LBE1483:
 243:../../libDaisy//src/hid/disp/display.h ****             {
 6385              		.loc 3 243 13 view .LVU1673
 6386 01ca 5FEA4803 		lsls	r3, r8, #1
 246:../../libDaisy//src/hid/disp/display.h ****             }
 6387              		.loc 3 246 20 view .LVU1674
 6388 01ce 18BF     		it	ne
 6389 01d0 DE44     		addne	lr, lr, fp
 6390              	.LVL460:
 249:../../libDaisy//src/hid/disp/display.h ****             {
 6391              		.loc 3 249 13 view .LVU1675
 6392 01d2 9945     		cmp	r9, r3
 6393 01d4 01DD     		ble	.L391
 251:../../libDaisy//src/hid/disp/display.h ****                 y1 += signY;
 6394              		.loc 3 251 23 view .LVU1676
 6395 01d6 C844     		add	r8, r8, r9
 6396              	.LVL461:
 252:../../libDaisy//src/hid/disp/display.h ****             }
 6397              		.loc 3 252 20 view .LVU1677
 6398 01d8 013C     		subs	r4, r4, #1
 6399              	.LVL462:
 6400              	.L391:
 239:../../libDaisy//src/hid/disp/display.h ****         {
 6401              		.loc 3 239 26 is_stmt 1 view .LVU1678
 6402 01da 7645     		cmp	r6, lr
 6403 01dc E0D1     		bne	.L388
 239:../../libDaisy//src/hid/disp/display.h ****         {
 6404              		.loc 3 239 26 is_stmt 0 view .LVU1679
 6405 01de 049B     		ldr	r3, [sp, #16]
 6406 01e0 A342     		cmp	r3, r4
 6407 01e2 DDD1     		bne	.L388
 6408 01e4 0023     		movs	r3, #0
 6409 01e6 0B93     		str	r3, [sp, #44]
 6410              	.LVL463:
 6411              	.L385:
 239:../../libDaisy//src/hid/disp/display.h ****         {
 6412              		.loc 3 239 26 view .LVU1680
 6413              	.LBE1489:
 6414              	.LBE1494:
 6415              	.LBB1495:
 6416              	.LBI1495:
 221:../../libDaisy//src/hid/disp/display.h ****                   uint_fast8_t y1,
 6417              		.loc 3 221 10 is_stmt 1 view .LVU1681
 6418              	.LBB1496:
 228:../../libDaisy//src/hid/disp/display.h ****         int_fast16_t signX  = ((x1 < x2) ? 1 : -1);
 6419              		.loc 3 228 52 is_stmt 0 view .LVU1682
 6420 01e8 0499     		ldr	r1, [sp, #16]
 6421 01ea ACEB0103 		sub	r3, ip, r1
 230:../../libDaisy//src/hid/disp/display.h ****         int_fast16_t error  = deltaX - deltaY;
 6422              		.loc 3 230 42 view .LVU1683
ARM GAS  /var/folders/1y/_321xjh9623c014x9_qw12rr0000gn/T//ccqHcGuP.s 			page 174


 6423 01ee 6145     		cmp	r1, ip
 228:../../libDaisy//src/hid/disp/display.h ****         int_fast16_t signX  = ((x1 < x2) ? 1 : -1);
 6424              		.loc 3 228 22 view .LVU1684
 6425 01f0 83EAE374 		eor	r4, r3, r3, asr #31
 6426 01f4 A4EBE374 		sub	r4, r4, r3, asr #31
 6427 01f8 2346     		mov	r3, r4
 6428 01fa 0794     		str	r4, [sp, #28]
 6429              	.LVL464:
 230:../../libDaisy//src/hid/disp/display.h ****         int_fast16_t error  = deltaX - deltaY;
 6430              		.loc 3 230 42 view .LVU1685
 6431 01fc C0F0F780 		bcc	.L392
 6432              	.LVL465:
 6433              	.LBB1497:
 6434              	.LBB1498:
 6435              	.LBB1499:
 354:../../libDaisy//src/dev/oled_ssd130x.h ****             return;
 6436              		.loc 4 354 28 view .LVU1686
 6437 0200 BCF13F0F 		cmp	ip, #63
 354:../../libDaisy//src/dev/oled_ssd130x.h ****             return;
 6438              		.loc 4 354 9 view .LVU1687
 6439 0204 0899     		ldr	r1, [sp, #32]
 6440              	.LBE1499:
 6441              	.LBE1498:
 6442              	.LBE1497:
 231:../../libDaisy//src/hid/disp/display.h ****         int_fast16_t error2;
 6443              		.loc 3 231 22 view .LVU1688
 6444 0206 C4F1000A 		rsb	r10, r4, #0
 6445              	.LVL466:
 6446              	.LBB1508:
 6447              	.LBI1497:
  42:../../libDaisy//src/hid/disp/oled_display.h ****     {
 6448              		.loc 1 42 10 is_stmt 1 view .LVU1689
 6449              	.LBB1504:
 6450              	.LBI1498:
 352:../../libDaisy//src/dev/oled_ssd130x.h ****     {
 6451              		.loc 4 352 10 view .LVU1690
 6452              	.LBB1500:
 354:../../libDaisy//src/dev/oled_ssd130x.h ****             return;
 6453              		.loc 4 354 28 is_stmt 0 view .LVU1691
 6454 020a 94BF     		ite	ls
 6455 020c 0023     		movls	r3, #0
 6456              	.LVL467:
 354:../../libDaisy//src/dev/oled_ssd130x.h ****             return;
 6457              		.loc 4 354 28 view .LVU1692
 6458 020e 0123     		movhi	r3, #1
 6459 0210 0A93     		str	r3, [sp, #40]
 354:../../libDaisy//src/dev/oled_ssd130x.h ****             return;
 6460              		.loc 4 354 9 view .LVU1693
 6461 0212 0029     		cmp	r1, #0
 6462 0214 40F0FA80 		bne	.L423
 6463 0218 002B     		cmp	r3, #0
 6464 021a 40F0F780 		bne	.L423
 6465              	.LBE1500:
 6466              	.LBE1504:
 6467              	.LBE1508:
 230:../../libDaisy//src/hid/disp/display.h ****         int_fast16_t error  = deltaX - deltaY;
 6468              		.loc 3 230 42 view .LVU1694
ARM GAS  /var/folders/1y/_321xjh9623c014x9_qw12rr0000gn/T//ccqHcGuP.s 			page 175


 6469 021e 4FF0FF33 		mov	r3, #-1
 6470 0222 0893     		str	r3, [sp, #32]
 6471              	.LVL468:
 6472              	.L418:
 6473              	.LBB1509:
 6474              	.LBB1505:
 6475              	.LBB1501:
 357:../../libDaisy//src/dev/oled_ssd130x.h ****         else
 6476              		.loc 4 357 28 view .LVU1695
 6477 0224 4FEADC03 		lsr	r3, ip, #3
 357:../../libDaisy//src/dev/oled_ssd130x.h ****         else
 6478              		.loc 4 357 48 view .LVU1696
 6479 0228 0124     		movs	r4, #1
 6480              	.LVL469:
 357:../../libDaisy//src/dev/oled_ssd130x.h ****         else
 6481              		.loc 4 357 54 view .LVU1697
 6482 022a 0CF00701 		and	r1, ip, #7
 357:../../libDaisy//src/dev/oled_ssd130x.h ****         else
 6483              		.loc 4 357 42 view .LVU1698
 6484 022e 06EBC313 		add	r3, r6, r3, lsl #7
 357:../../libDaisy//src/dev/oled_ssd130x.h ****         else
 6485              		.loc 4 357 48 view .LVU1699
 6486 0232 04FA01F1 		lsl	r1, r4, r1
 357:../../libDaisy//src/dev/oled_ssd130x.h ****         else
 6487              		.loc 4 357 42 view .LVU1700
 6488 0236 2B44     		add	r3, r3, r5
 6489 0238 93F86444 		ldrb	r4, [r3, #1124]	@ zero_extendqisi2
 6490 023c 2143     		orrs	r1, r1, r4
 6491 023e 83F86414 		strb	r1, [r3, #1124]
 6492 0242 0023     		movs	r3, #0
 6493 0244 0A93     		str	r3, [sp, #40]
 6494              	.L393:
 6495              	.LVL470:
 357:../../libDaisy//src/dev/oled_ssd130x.h ****         else
 6496              		.loc 4 357 42 view .LVU1701
 6497              	.LBE1501:
 6498              	.LBE1505:
 6499              	.LBE1509:
 239:../../libDaisy//src/hid/disp/display.h ****         {
 6500              		.loc 3 239 26 is_stmt 1 view .LVU1702
 6501 0246 049B     		ldr	r3, [sp, #16]
 6502 0248 6345     		cmp	r3, ip
 6503 024a 00F0EC80 		beq	.L466
 6504              	.L395:
 6505              	.LVL471:
 230:../../libDaisy//src/hid/disp/display.h ****         int_fast16_t error  = deltaX - deltaY;
 6506              		.loc 3 230 42 is_stmt 0 view .LVU1703
 6507 024e D646     		mov	lr, r10
 6508              	.LBE1496:
 6509              	.LBE1495:
 6510              	.LBE1557:
 292:Dubby.cpp     ****             display.DrawRect(submenuBoxBounding[i][0], submenuBoxBounding[i][1], submenuBoxBounding
 6511              		.loc 2 292 29 view .LVU1704
 6512 0250 0499     		ldr	r1, [sp, #16]
 6513 0252 3446     		mov	r4, r6
 6514              	.L397:
 6515              	.LVL472:
ARM GAS  /var/folders/1y/_321xjh9623c014x9_qw12rr0000gn/T//ccqHcGuP.s 			page 176


 6516              	.LBB1558:
 6517              	.LBB1521:
 6518              	.LBB1518:
 6519              	.LBB1510:
 6520              	.LBI1510:
  42:../../libDaisy//src/hid/disp/oled_display.h ****     {
 6521              		.loc 1 42 10 is_stmt 1 view .LVU1705
 6522              	.LBB1511:
 6523              	.LBI1511:
 352:../../libDaisy//src/dev/oled_ssd130x.h ****     {
 6524              		.loc 4 352 10 view .LVU1706
 6525              	.LBB1512:
 357:../../libDaisy//src/dev/oled_ssd130x.h ****         else
 6526              		.loc 4 357 48 is_stmt 0 view .LVU1707
 6527 0254 4FF00109 		mov	r9, #1
 357:../../libDaisy//src/dev/oled_ssd130x.h ****         else
 6528              		.loc 4 357 28 view .LVU1708
 6529 0258 CB08     		lsrs	r3, r1, #3
 357:../../libDaisy//src/dev/oled_ssd130x.h ****         else
 6530              		.loc 4 357 54 view .LVU1709
 6531 025a 01F00708 		and	r8, r1, #7
 354:../../libDaisy//src/dev/oled_ssd130x.h ****             return;
 6532              		.loc 4 354 9 view .LVU1710
 6533 025e 7F2C     		cmp	r4, #127
 357:../../libDaisy//src/dev/oled_ssd130x.h ****         else
 6534              		.loc 4 357 42 view .LVU1711
 6535 0260 04EBC313 		add	r3, r4, r3, lsl #7
 6536              	.LBE1512:
 6537              	.LBE1511:
 6538              	.LBE1510:
 242:../../libDaisy//src/hid/disp/display.h ****             if(error2 > -deltaY)
 6539              		.loc 3 242 20 view .LVU1712
 6540 0264 0EFA09FB 		lsl	fp, lr, r9
 6541              	.LVL473:
 6542              	.LBB1515:
 6543              	.LBB1514:
 6544              	.LBB1513:
 357:../../libDaisy//src/dev/oled_ssd130x.h ****         else
 6545              		.loc 4 357 48 view .LVU1713
 6546 0268 09FA08F8 		lsl	r8, r9, r8
 354:../../libDaisy//src/dev/oled_ssd130x.h ****             return;
 6547              		.loc 4 354 9 view .LVU1714
 6548 026c 08D8     		bhi	.L398
 6549 026e 3F29     		cmp	r1, #63
 357:../../libDaisy//src/dev/oled_ssd130x.h ****         else
 6550              		.loc 4 357 42 view .LVU1715
 6551 0270 2B44     		add	r3, r3, r5
 354:../../libDaisy//src/dev/oled_ssd130x.h ****             return;
 6552              		.loc 4 354 9 view .LVU1716
 6553 0272 05D8     		bhi	.L398
 357:../../libDaisy//src/dev/oled_ssd130x.h ****         else
 6554              		.loc 4 357 42 view .LVU1717
 6555 0274 93F86494 		ldrb	r9, [r3, #1124]	@ zero_extendqisi2
 6556 0278 48EA0908 		orr	r8, r8, r9
 6557 027c 83F86484 		strb	r8, [r3, #1124]
 6558              	.L398:
 357:../../libDaisy//src/dev/oled_ssd130x.h ****         else
ARM GAS  /var/folders/1y/_321xjh9623c014x9_qw12rr0000gn/T//ccqHcGuP.s 			page 177


 6559              		.loc 4 357 42 view .LVU1718
 6560              	.LBE1513:
 6561              	.LBE1514:
 6562              	.LBE1515:
 243:../../libDaisy//src/hid/disp/display.h ****             {
 6563              		.loc 3 243 13 view .LVU1719
 6564 0280 BAEB4E0F 		cmp	r10, lr, lsl #1
 6565 0284 03DA     		bge	.L399
 245:../../libDaisy//src/hid/disp/display.h ****                 x1 += signX;
 6566              		.loc 3 245 23 view .LVU1720
 6567 0286 079B     		ldr	r3, [sp, #28]
 246:../../libDaisy//src/hid/disp/display.h ****             }
 6568              		.loc 3 246 20 view .LVU1721
 6569 0288 013C     		subs	r4, r4, #1
 6570              	.LVL474:
 245:../../libDaisy//src/hid/disp/display.h ****                 x1 += signX;
 6571              		.loc 3 245 23 view .LVU1722
 6572 028a AEEB030E 		sub	lr, lr, r3
 6573              	.LVL475:
 6574              	.L399:
 249:../../libDaisy//src/hid/disp/display.h ****             {
 6575              		.loc 3 249 13 view .LVU1723
 6576 028e BBF1000F 		cmp	fp, #0
 6577 0292 01D0     		beq	.L400
 252:../../libDaisy//src/hid/disp/display.h ****             }
 6578              		.loc 3 252 20 view .LVU1724
 6579 0294 089B     		ldr	r3, [sp, #32]
 6580 0296 1944     		add	r1, r1, r3
 6581              	.LVL476:
 6582              	.L400:
 239:../../libDaisy//src/hid/disp/display.h ****         {
 6583              		.loc 3 239 26 is_stmt 1 view .LVU1725
 6584 0298 A642     		cmp	r6, r4
 6585 029a DBD1     		bne	.L397
 239:../../libDaisy//src/hid/disp/display.h ****         {
 6586              		.loc 3 239 26 is_stmt 0 view .LVU1726
 6587 029c 8C45     		cmp	ip, r1
 6588 029e D9D1     		bne	.L397
 6589 02a0 4FF0000B 		mov	fp, #0
 6590              	.LVL477:
 6591              	.L394:
 239:../../libDaisy//src/hid/disp/display.h ****         {
 6592              		.loc 3 239 26 view .LVU1727
 6593              	.LBE1518:
 6594              	.LBE1521:
 6595              	.LBB1522:
 6596              	.LBI1522:
 221:../../libDaisy//src/hid/disp/display.h ****                   uint_fast8_t y1,
 6597              		.loc 3 221 10 is_stmt 1 view .LVU1728
 6598              	.LBB1523:
 227:../../libDaisy//src/hid/disp/display.h ****         int_fast16_t deltaY = abs((int_fast16_t)y2 - (int_fast16_t)y1);
 6599              		.loc 3 227 52 is_stmt 0 view .LVU1729
 6600 02a4 A7EB0608 		sub	r8, r7, r6
 229:../../libDaisy//src/hid/disp/display.h ****         int_fast16_t signY  = ((y1 < y2) ? 1 : -1);
 6601              		.loc 3 229 42 view .LVU1730
 6602 02a8 B742     		cmp	r7, r6
 6603 02aa 8CBF     		ite	hi
ARM GAS  /var/folders/1y/_321xjh9623c014x9_qw12rr0000gn/T//ccqHcGuP.s 			page 178


 6604 02ac 0126     		movhi	r6, #1
 6605 02ae 4FF0FF36 		movls	r6, #-1
 6606              	.LBB1524:
 6607              	.LBB1525:
 6608              	.LBB1526:
 354:../../libDaisy//src/dev/oled_ssd130x.h ****             return;
 6609              		.loc 4 354 9 view .LVU1731
 6610 02b2 0A9B     		ldr	r3, [sp, #40]
 6611              	.LBE1526:
 6612              	.LBE1525:
 6613              	.LBE1524:
 227:../../libDaisy//src/hid/disp/display.h ****         int_fast16_t deltaY = abs((int_fast16_t)y2 - (int_fast16_t)y1);
 6614              		.loc 3 227 22 view .LVU1732
 6615 02b4 B8F1000F 		cmp	r8, #0
 6616 02b8 B8BF     		it	lt
 6617 02ba C8F10008 		rsblt	r8, r8, #0
 6618              	.LVL478:
 6619              	.LBB1529:
 6620              	.LBI1524:
  42:../../libDaisy//src/hid/disp/oled_display.h ****     {
 6621              		.loc 1 42 10 is_stmt 1 view .LVU1733
 6622              	.LBB1528:
 6623              	.LBI1525:
 352:../../libDaisy//src/dev/oled_ssd130x.h ****     {
 6624              		.loc 4 352 10 view .LVU1734
 6625              	.LBB1527:
 354:../../libDaisy//src/dev/oled_ssd130x.h ****             return;
 6626              		.loc 4 354 14 is_stmt 0 view .LVU1735
 6627 02be 7F2F     		cmp	r7, #127
 6628 02c0 94BF     		ite	ls
 6629 02c2 4FF0000A 		movls	r10, #0
 6630 02c6 4FF0010A 		movhi	r10, #1
 354:../../libDaisy//src/dev/oled_ssd130x.h ****             return;
 6631              		.loc 4 354 9 view .LVU1736
 6632 02ca 8BB9     		cbnz	r3, .L402
 6633 02cc BAF1000F 		cmp	r10, #0
 6634 02d0 0ED1     		bne	.L402
 357:../../libDaisy//src/dev/oled_ssd130x.h ****         else
 6635              		.loc 4 357 28 view .LVU1737
 6636 02d2 4FEADC03 		lsr	r3, ip, #3
 357:../../libDaisy//src/dev/oled_ssd130x.h ****         else
 6637              		.loc 4 357 48 view .LVU1738
 6638 02d6 0124     		movs	r4, #1
 357:../../libDaisy//src/dev/oled_ssd130x.h ****         else
 6639              		.loc 4 357 54 view .LVU1739
 6640 02d8 0CF00701 		and	r1, ip, #7
 357:../../libDaisy//src/dev/oled_ssd130x.h ****         else
 6641              		.loc 4 357 42 view .LVU1740
 6642 02dc 07EBC313 		add	r3, r7, r3, lsl #7
 357:../../libDaisy//src/dev/oled_ssd130x.h ****         else
 6643              		.loc 4 357 48 view .LVU1741
 6644 02e0 04FA01F1 		lsl	r1, r4, r1
 357:../../libDaisy//src/dev/oled_ssd130x.h ****         else
 6645              		.loc 4 357 42 view .LVU1742
 6646 02e4 2B44     		add	r3, r3, r5
 6647 02e6 93F86444 		ldrb	r4, [r3, #1124]	@ zero_extendqisi2
 6648 02ea 2143     		orrs	r1, r1, r4
ARM GAS  /var/folders/1y/_321xjh9623c014x9_qw12rr0000gn/T//ccqHcGuP.s 			page 179


 6649 02ec 83F86414 		strb	r1, [r3, #1124]
 6650              	.L402:
 6651              	.LVL479:
 357:../../libDaisy//src/dev/oled_ssd130x.h ****         else
 6652              		.loc 4 357 42 view .LVU1743
 6653              	.LBE1527:
 6654              	.LBE1528:
 6655              	.LBE1529:
 239:../../libDaisy//src/hid/disp/display.h ****         {
 6656              		.loc 3 239 26 is_stmt 1 view .LVU1744
 6657 02f0 0B9B     		ldr	r3, [sp, #44]
 6658 02f2 0BBB     		cbnz	r3, .L403
 227:../../libDaisy//src/hid/disp/display.h ****         int_fast16_t deltaY = abs((int_fast16_t)y2 - (int_fast16_t)y1);
 6659              		.loc 3 227 22 is_stmt 0 view .LVU1745
 6660 02f4 C646     		mov	lr, r8
 6661              	.LBE1523:
 6662              	.LBE1522:
 6663              	.LBE1558:
 292:Dubby.cpp     ****             display.DrawRect(submenuBoxBounding[i][0], submenuBoxBounding[i][1], submenuBoxBounding
 6664              		.loc 2 292 29 view .LVU1746
 6665 02f6 6446     		mov	r4, ip
 6666              	.LVL480:
 6667              	.L404:
 6668              	.LBB1559:
 6669              	.LBB1534:
 6670              	.LBB1533:
 6671              	.LBB1530:
 6672              	.LBI1530:
  42:../../libDaisy//src/hid/disp/oled_display.h ****     {
 6673              		.loc 1 42 10 is_stmt 1 view .LVU1747
 6674              	.LBB1531:
 6675              	.LBI1531:
 352:../../libDaisy//src/dev/oled_ssd130x.h ****     {
 6676              		.loc 4 352 10 view .LVU1748
 6677              	.LBB1532:
 357:../../libDaisy//src/dev/oled_ssd130x.h ****         else
 6678              		.loc 4 357 28 is_stmt 0 view .LVU1749
 6679 02f8 E308     		lsrs	r3, r4, #3
 357:../../libDaisy//src/dev/oled_ssd130x.h ****         else
 6680              		.loc 4 357 54 view .LVU1750
 6681 02fa 04F00701 		and	r1, r4, #7
 357:../../libDaisy//src/dev/oled_ssd130x.h ****         else
 6682              		.loc 4 357 48 view .LVU1751
 6683 02fe 4FF00109 		mov	r9, #1
 354:../../libDaisy//src/dev/oled_ssd130x.h ****             return;
 6684              		.loc 4 354 9 view .LVU1752
 6685 0302 7F28     		cmp	r0, #127
 357:../../libDaisy//src/dev/oled_ssd130x.h ****         else
 6686              		.loc 4 357 42 view .LVU1753
 6687 0304 00EBC313 		add	r3, r0, r3, lsl #7
 357:../../libDaisy//src/dev/oled_ssd130x.h ****         else
 6688              		.loc 4 357 48 view .LVU1754
 6689 0308 09FA01F1 		lsl	r1, r9, r1
 354:../../libDaisy//src/dev/oled_ssd130x.h ****             return;
 6690              		.loc 4 354 9 view .LVU1755
 6691 030c 08D8     		bhi	.L406
 354:../../libDaisy//src/dev/oled_ssd130x.h ****             return;
ARM GAS  /var/folders/1y/_321xjh9623c014x9_qw12rr0000gn/T//ccqHcGuP.s 			page 180


 6692              		.loc 4 354 9 view .LVU1756
 6693 030e 3F2C     		cmp	r4, #63
 357:../../libDaisy//src/dev/oled_ssd130x.h ****         else
 6694              		.loc 4 357 42 view .LVU1757
 6695 0310 2B44     		add	r3, r3, r5
 354:../../libDaisy//src/dev/oled_ssd130x.h ****             return;
 6696              		.loc 4 354 9 view .LVU1758
 6697 0312 05D8     		bhi	.L406
 357:../../libDaisy//src/dev/oled_ssd130x.h ****         else
 6698              		.loc 4 357 42 view .LVU1759
 6699 0314 93F86494 		ldrb	r9, [r3, #1124]	@ zero_extendqisi2
 6700 0318 41EA0901 		orr	r1, r1, r9
 6701 031c 83F86414 		strb	r1, [r3, #1124]
 6702              	.L406:
 357:../../libDaisy//src/dev/oled_ssd130x.h ****         else
 6703              		.loc 4 357 42 view .LVU1760
 6704              	.LBE1532:
 6705              	.LBE1531:
 6706              	.LBE1530:
 243:../../libDaisy//src/hid/disp/display.h ****             {
 6707              		.loc 3 243 13 view .LVU1761
 6708 0320 5FEA4E03 		lsls	r3, lr, #1
 246:../../libDaisy//src/hid/disp/display.h ****             }
 6709              		.loc 3 246 20 view .LVU1762
 6710 0324 18BF     		it	ne
 6711 0326 8019     		addne	r0, r0, r6
 6712              	.LVL481:
 249:../../libDaisy//src/hid/disp/display.h ****             {
 6713              		.loc 3 249 13 view .LVU1763
 6714 0328 9845     		cmp	r8, r3
 6715 032a 01DD     		ble	.L408
 251:../../libDaisy//src/hid/disp/display.h ****                 y1 += signY;
 6716              		.loc 3 251 23 view .LVU1764
 6717 032c C644     		add	lr, lr, r8
 6718              	.LVL482:
 252:../../libDaisy//src/hid/disp/display.h ****             }
 6719              		.loc 3 252 20 view .LVU1765
 6720 032e 013C     		subs	r4, r4, #1
 6721              	.LVL483:
 6722              	.L408:
 239:../../libDaisy//src/hid/disp/display.h ****         {
 6723              		.loc 3 239 26 is_stmt 1 view .LVU1766
 6724 0330 8742     		cmp	r7, r0
 6725 0332 E1D1     		bne	.L404
 239:../../libDaisy//src/hid/disp/display.h ****         {
 6726              		.loc 3 239 26 is_stmt 0 view .LVU1767
 6727 0334 A445     		cmp	ip, r4
 6728 0336 DFD1     		bne	.L404
 6729              	.LVL484:
 6730              	.L403:
 239:../../libDaisy//src/hid/disp/display.h ****         {
 6731              		.loc 3 239 26 view .LVU1768
 6732              	.LBE1533:
 6733              	.LBE1534:
 6734              	.LBB1535:
 6735              	.LBI1535:
 221:../../libDaisy//src/hid/disp/display.h ****                   uint_fast8_t y1,
ARM GAS  /var/folders/1y/_321xjh9623c014x9_qw12rr0000gn/T//ccqHcGuP.s 			page 181


 6736              		.loc 3 221 10 is_stmt 1 view .LVU1769
 6737              	.LBB1536:
 228:../../libDaisy//src/hid/disp/display.h ****         int_fast16_t signX  = ((x1 < x2) ? 1 : -1);
 6738              		.loc 3 228 52 is_stmt 0 view .LVU1770
 6739 0338 0499     		ldr	r1, [sp, #16]
 6740              	.LBB1537:
 6741              	.LBB1538:
 6742              	.LBB1539:
 354:../../libDaisy//src/dev/oled_ssd130x.h ****             return;
 6743              		.loc 4 354 9 view .LVU1771
 6744 033a 099B     		ldr	r3, [sp, #36]
 6745              	.LBE1539:
 6746              	.LBE1538:
 6747              	.LBE1537:
 228:../../libDaisy//src/hid/disp/display.h ****         int_fast16_t signX  = ((x1 < x2) ? 1 : -1);
 6748              		.loc 3 228 52 view .LVU1772
 6749 033c A1EB0C08 		sub	r8, r1, ip
 230:../../libDaisy//src/hid/disp/display.h ****         int_fast16_t error  = deltaX - deltaY;
 6750              		.loc 3 230 42 view .LVU1773
 6751 0340 6145     		cmp	r1, ip
 6752 0342 8CBF     		ite	hi
 6753 0344 4FF0010C 		movhi	ip, #1
 6754 0348 4FF0FF3C 		movls	ip, #-1
 228:../../libDaisy//src/hid/disp/display.h ****         int_fast16_t signX  = ((x1 < x2) ? 1 : -1);
 6755              		.loc 3 228 22 view .LVU1774
 6756 034c B8F1000F 		cmp	r8, #0
 6757 0350 B8BF     		it	lt
 6758 0352 C8F10008 		rsblt	r8, r8, #0
 6759              	.LVL485:
 231:../../libDaisy//src/hid/disp/display.h ****         int_fast16_t error2;
 6760              		.loc 3 231 22 view .LVU1775
 6761 0356 C8F1000E 		rsb	lr, r8, #0
 6762              	.LVL486:
 6763              	.LBB1542:
 6764              	.LBI1537:
  42:../../libDaisy//src/hid/disp/oled_display.h ****     {
 6765              		.loc 1 42 10 is_stmt 1 view .LVU1776
 6766              	.LBB1541:
 6767              	.LBI1538:
 352:../../libDaisy//src/dev/oled_ssd130x.h ****     {
 6768              		.loc 4 352 10 view .LVU1777
 6769              	.LBB1540:
 354:../../libDaisy//src/dev/oled_ssd130x.h ****             return;
 6770              		.loc 4 354 9 is_stmt 0 view .LVU1778
 6771 035a 83B9     		cbnz	r3, .L410
 6772 035c BAF1000F 		cmp	r10, #0
 6773 0360 0DD1     		bne	.L410
 357:../../libDaisy//src/dev/oled_ssd130x.h ****         else
 6774              		.loc 4 357 28 view .LVU1779
 6775 0362 CB08     		lsrs	r3, r1, #3
 357:../../libDaisy//src/dev/oled_ssd130x.h ****         else
 6776              		.loc 4 357 48 view .LVU1780
 6777 0364 0120     		movs	r0, #1
 357:../../libDaisy//src/dev/oled_ssd130x.h ****         else
 6778              		.loc 4 357 54 view .LVU1781
 6779 0366 01F00701 		and	r1, r1, #7
 357:../../libDaisy//src/dev/oled_ssd130x.h ****         else
ARM GAS  /var/folders/1y/_321xjh9623c014x9_qw12rr0000gn/T//ccqHcGuP.s 			page 182


 6780              		.loc 4 357 42 view .LVU1782
 6781 036a 07EBC313 		add	r3, r7, r3, lsl #7
 357:../../libDaisy//src/dev/oled_ssd130x.h ****         else
 6782              		.loc 4 357 48 view .LVU1783
 6783 036e 00FA01F1 		lsl	r1, r0, r1
 357:../../libDaisy//src/dev/oled_ssd130x.h ****         else
 6784              		.loc 4 357 42 view .LVU1784
 6785 0372 2B44     		add	r3, r3, r5
 6786 0374 93F86404 		ldrb	r0, [r3, #1124]	@ zero_extendqisi2
 6787 0378 0143     		orrs	r1, r1, r0
 6788 037a 83F86414 		strb	r1, [r3, #1124]
 6789              	.L410:
 6790              	.LVL487:
 357:../../libDaisy//src/dev/oled_ssd130x.h ****         else
 6791              		.loc 4 357 42 view .LVU1785
 6792              	.LBE1540:
 6793              	.LBE1541:
 6794              	.LBE1542:
 239:../../libDaisy//src/hid/disp/display.h ****         {
 6795              		.loc 3 239 26 is_stmt 1 view .LVU1786
 6796 037e BBF1000F 		cmp	fp, #0
 6797 0382 7FF47DAE 		bne	.L382
 6798 0386 7046     		mov	r0, lr
 6799              	.LBE1536:
 6800              	.LBE1535:
 6801              	.LBE1559:
 292:Dubby.cpp     ****             display.DrawRect(submenuBoxBounding[i][0], submenuBoxBounding[i][1], submenuBoxBounding
 6802              		.loc 2 292 29 is_stmt 0 view .LVU1787
 6803 0388 3946     		mov	r1, r7
 6804              	.LVL488:
 6805              	.L411:
 6806              	.LBB1560:
 6807              	.LBB1550:
 6808              	.LBB1549:
 6809              	.LBB1543:
 6810              	.LBI1543:
  42:../../libDaisy//src/hid/disp/oled_display.h ****     {
 6811              		.loc 1 42 10 is_stmt 1 view .LVU1788
 6812              	.LBB1544:
 6813              	.LBI1544:
 352:../../libDaisy//src/dev/oled_ssd130x.h ****     {
 6814              		.loc 4 352 10 view .LVU1789
 6815              	.LBB1545:
 357:../../libDaisy//src/dev/oled_ssd130x.h ****         else
 6816              		.loc 4 357 48 is_stmt 0 view .LVU1790
 6817 038a 0124     		movs	r4, #1
 357:../../libDaisy//src/dev/oled_ssd130x.h ****         else
 6818              		.loc 4 357 28 view .LVU1791
 6819 038c D308     		lsrs	r3, r2, #3
 357:../../libDaisy//src/dev/oled_ssd130x.h ****         else
 6820              		.loc 4 357 54 view .LVU1792
 6821 038e 02F00709 		and	r9, r2, #7
 354:../../libDaisy//src/dev/oled_ssd130x.h ****             return;
 6822              		.loc 4 354 9 view .LVU1793
 6823 0392 7F29     		cmp	r1, #127
 6824              	.LBE1545:
 6825              	.LBE1544:
ARM GAS  /var/folders/1y/_321xjh9623c014x9_qw12rr0000gn/T//ccqHcGuP.s 			page 183


 6826              	.LBE1543:
 242:../../libDaisy//src/hid/disp/display.h ****             if(error2 > -deltaY)
 6827              		.loc 3 242 20 view .LVU1794
 6828 0394 00FA04F6 		lsl	r6, r0, r4
 6829              	.LVL489:
 6830              	.LBB1548:
 6831              	.LBB1547:
 6832              	.LBB1546:
 357:../../libDaisy//src/dev/oled_ssd130x.h ****         else
 6833              		.loc 4 357 42 view .LVU1795
 6834 0398 01EBC313 		add	r3, r1, r3, lsl #7
 357:../../libDaisy//src/dev/oled_ssd130x.h ****         else
 6835              		.loc 4 357 48 view .LVU1796
 6836 039c 04FA09F4 		lsl	r4, r4, r9
 354:../../libDaisy//src/dev/oled_ssd130x.h ****             return;
 6837              		.loc 4 354 9 view .LVU1797
 6838 03a0 08D8     		bhi	.L413
 354:../../libDaisy//src/dev/oled_ssd130x.h ****             return;
 6839              		.loc 4 354 9 view .LVU1798
 6840 03a2 3F2A     		cmp	r2, #63
 357:../../libDaisy//src/dev/oled_ssd130x.h ****         else
 6841              		.loc 4 357 42 view .LVU1799
 6842 03a4 2B44     		add	r3, r3, r5
 354:../../libDaisy//src/dev/oled_ssd130x.h ****             return;
 6843              		.loc 4 354 9 view .LVU1800
 6844 03a6 05D8     		bhi	.L413
 357:../../libDaisy//src/dev/oled_ssd130x.h ****         else
 6845              		.loc 4 357 42 view .LVU1801
 6846 03a8 93F86494 		ldrb	r9, [r3, #1124]	@ zero_extendqisi2
 6847 03ac 44EA0904 		orr	r4, r4, r9
 6848 03b0 83F86444 		strb	r4, [r3, #1124]
 6849              	.L413:
 357:../../libDaisy//src/dev/oled_ssd130x.h ****         else
 6850              		.loc 4 357 42 view .LVU1802
 6851              	.LBE1546:
 6852              	.LBE1547:
 6853              	.LBE1548:
 243:../../libDaisy//src/hid/disp/display.h ****             {
 6854              		.loc 3 243 13 view .LVU1803
 6855 03b4 BEEB400F 		cmp	lr, r0, lsl #1
 6856 03b8 02DA     		bge	.L414
 246:../../libDaisy//src/hid/disp/display.h ****             }
 6857              		.loc 3 246 20 view .LVU1804
 6858 03ba 0139     		subs	r1, r1, #1
 6859              	.LVL490:
 245:../../libDaisy//src/hid/disp/display.h ****                 x1 += signX;
 6860              		.loc 3 245 23 view .LVU1805
 6861 03bc A0EB0800 		sub	r0, r0, r8
 6862              	.LVL491:
 6863              	.L414:
 249:../../libDaisy//src/hid/disp/display.h ****             {
 6864              		.loc 3 249 13 view .LVU1806
 6865 03c0 06B1     		cbz	r6, .L415
 252:../../libDaisy//src/hid/disp/display.h ****             }
 6866              		.loc 3 252 20 view .LVU1807
 6867 03c2 6244     		add	r2, r2, ip
 6868              	.LVL492:
ARM GAS  /var/folders/1y/_321xjh9623c014x9_qw12rr0000gn/T//ccqHcGuP.s 			page 184


 6869              	.L415:
 239:../../libDaisy//src/hid/disp/display.h ****         {
 6870              		.loc 3 239 26 is_stmt 1 view .LVU1808
 6871 03c4 8F42     		cmp	r7, r1
 6872 03c6 E0D1     		bne	.L411
 239:../../libDaisy//src/hid/disp/display.h ****         {
 6873              		.loc 3 239 26 is_stmt 0 view .LVU1809
 6874 03c8 049B     		ldr	r3, [sp, #16]
 6875 03ca 9342     		cmp	r3, r2
 6876 03cc DDD1     		bne	.L411
 6877 03ce 57E6     		b	.L382
 6878              	.LVL493:
 6879              	.L383:
 239:../../libDaisy//src/hid/disp/display.h ****         {
 6880              		.loc 3 239 26 view .LVU1810
 6881              	.LBE1549:
 6882              	.LBE1550:
 6883              	.LBB1551:
 6884              	.LBB1490:
 6885              	.LBB1486:
  42:../../libDaisy//src/hid/disp/oled_display.h ****     {
 6886              		.loc 1 42 10 is_stmt 1 view .LVU1811
 6887              	.LBB1481:
 352:../../libDaisy//src/dev/oled_ssd130x.h ****     {
 6888              		.loc 4 352 10 view .LVU1812
 6889              	.LBB1479:
 354:../../libDaisy//src/dev/oled_ssd130x.h ****             return;
 6890              		.loc 4 354 28 is_stmt 0 view .LVU1813
 6891 03d0 0499     		ldr	r1, [sp, #16]
 354:../../libDaisy//src/dev/oled_ssd130x.h ****             return;
 6892              		.loc 4 354 14 view .LVU1814
 6893 03d2 7F2E     		cmp	r6, #127
 6894 03d4 94BF     		ite	ls
 6895 03d6 0023     		movls	r3, #0
 6896              	.LVL494:
 354:../../libDaisy//src/dev/oled_ssd130x.h ****             return;
 6897              		.loc 4 354 14 view .LVU1815
 6898 03d8 0123     		movhi	r3, #1
 354:../../libDaisy//src/dev/oled_ssd130x.h ****             return;
 6899              		.loc 4 354 28 view .LVU1816
 6900 03da 3F29     		cmp	r1, #63
 354:../../libDaisy//src/dev/oled_ssd130x.h ****             return;
 6901              		.loc 4 354 14 view .LVU1817
 6902 03dc 0893     		str	r3, [sp, #32]
 354:../../libDaisy//src/dev/oled_ssd130x.h ****             return;
 6903              		.loc 4 354 28 view .LVU1818
 6904 03de 94BF     		ite	ls
 6905 03e0 0021     		movls	r1, #0
 6906 03e2 0121     		movhi	r1, #1
 6907 03e4 0991     		str	r1, [sp, #36]
 354:../../libDaisy//src/dev/oled_ssd130x.h ****             return;
 6908              		.loc 4 354 9 view .LVU1819
 6909 03e6 C3B9     		cbnz	r3, .L429
 6910 03e8 B9B9     		cbnz	r1, .L429
 6911              	.LBE1479:
 6912              	.LBE1481:
 6913              	.LBE1486:
ARM GAS  /var/folders/1y/_321xjh9623c014x9_qw12rr0000gn/T//ccqHcGuP.s 			page 185


 229:../../libDaisy//src/hid/disp/display.h ****         int_fast16_t signY  = ((y1 < y2) ? 1 : -1);
 6914              		.loc 3 229 42 view .LVU1820
 6915 03ea A346     		mov	fp, r4
 6916 03ec C0E6     		b	.L419
 6917              	.LVL495:
 6918              	.L392:
 229:../../libDaisy//src/hid/disp/display.h ****         int_fast16_t signY  = ((y1 < y2) ? 1 : -1);
 6919              		.loc 3 229 42 view .LVU1821
 6920              	.LBE1490:
 6921              	.LBE1551:
 6922              	.LBB1552:
 6923              	.LBB1519:
 231:../../libDaisy//src/hid/disp/display.h ****         int_fast16_t error2;
 6924              		.loc 3 231 22 view .LVU1822
 6925 03ee 079B     		ldr	r3, [sp, #28]
 6926              	.LVL496:
 6927              	.LBB1516:
 6928              	.LBB1506:
 6929              	.LBB1502:
 354:../../libDaisy//src/dev/oled_ssd130x.h ****             return;
 6930              		.loc 4 354 28 view .LVU1823
 6931 03f0 BCF13F0F 		cmp	ip, #63
 354:../../libDaisy//src/dev/oled_ssd130x.h ****             return;
 6932              		.loc 4 354 9 view .LVU1824
 6933 03f4 0899     		ldr	r1, [sp, #32]
 6934              	.LVL497:
 354:../../libDaisy//src/dev/oled_ssd130x.h ****             return;
 6935              		.loc 4 354 9 view .LVU1825
 6936              	.LBE1502:
 6937              	.LBE1506:
 6938              	.LBE1516:
 231:../../libDaisy//src/hid/disp/display.h ****         int_fast16_t error2;
 6939              		.loc 3 231 22 view .LVU1826
 6940 03f6 C3F1000A 		rsb	r10, r3, #0
 6941              	.LVL498:
 6942              	.LBB1517:
  42:../../libDaisy//src/hid/disp/oled_display.h ****     {
 6943              		.loc 1 42 10 is_stmt 1 view .LVU1827
 6944              	.LBB1507:
 352:../../libDaisy//src/dev/oled_ssd130x.h ****     {
 6945              		.loc 4 352 10 view .LVU1828
 6946              	.LBB1503:
 354:../../libDaisy//src/dev/oled_ssd130x.h ****             return;
 6947              		.loc 4 354 28 is_stmt 0 view .LVU1829
 6948 03fa 94BF     		ite	ls
 6949 03fc 0023     		movls	r3, #0
 6950 03fe 0123     		movhi	r3, #1
 6951 0400 0A93     		str	r3, [sp, #40]
 354:../../libDaisy//src/dev/oled_ssd130x.h ****             return;
 6952              		.loc 4 354 9 view .LVU1830
 6953 0402 39B9     		cbnz	r1, .L428
 6954 0404 33B9     		cbnz	r3, .L428
 6955              	.LBE1503:
 6956              	.LBE1507:
 6957              	.LBE1517:
 230:../../libDaisy//src/hid/disp/display.h ****         int_fast16_t error  = deltaX - deltaY;
 6958              		.loc 3 230 42 view .LVU1831
ARM GAS  /var/folders/1y/_321xjh9623c014x9_qw12rr0000gn/T//ccqHcGuP.s 			page 186


 6959 0406 0123     		movs	r3, #1
 6960 0408 0893     		str	r3, [sp, #32]
 6961 040a 0BE7     		b	.L418
 6962              	.LVL499:
 6963              	.L423:
 230:../../libDaisy//src/hid/disp/display.h ****         int_fast16_t error  = deltaX - deltaY;
 6964              		.loc 3 230 42 view .LVU1832
 6965 040c 4FF0FF33 		mov	r3, #-1
 6966 0410 0893     		str	r3, [sp, #32]
 6967 0412 18E7     		b	.L393
 6968              	.LVL500:
 6969              	.L428:
 230:../../libDaisy//src/hid/disp/display.h ****         int_fast16_t error  = deltaX - deltaY;
 6970              		.loc 3 230 42 view .LVU1833
 6971 0414 0123     		movs	r3, #1
 6972 0416 0893     		str	r3, [sp, #32]
 6973 0418 19E7     		b	.L395
 6974              	.LVL501:
 6975              	.L429:
 230:../../libDaisy//src/hid/disp/display.h ****         int_fast16_t error  = deltaX - deltaY;
 6976              		.loc 3 230 42 view .LVU1834
 6977              	.LBE1519:
 6978              	.LBE1552:
 6979              	.LBB1553:
 6980              	.LBB1491:
 229:../../libDaisy//src/hid/disp/display.h ****         int_fast16_t signY  = ((y1 < y2) ? 1 : -1);
 6981              		.loc 3 229 42 view .LVU1835
 6982 041a 4FF0010B 		mov	fp, #1
 6983 041e BCE6     		b	.L386
 6984              	.LVL502:
 6985              	.L465:
 239:../../libDaisy//src/hid/disp/display.h ****         {
 6986              		.loc 3 239 19 view .LVU1836
 6987 0420 0123     		movs	r3, #1
 6988 0422 0B93     		str	r3, [sp, #44]
 6989 0424 E0E6     		b	.L385
 6990              	.LVL503:
 6991              	.L466:
 239:../../libDaisy//src/hid/disp/display.h ****         {
 6992              		.loc 3 239 19 view .LVU1837
 6993              	.LBE1491:
 6994              	.LBE1553:
 6995              	.LBB1554:
 6996              	.LBB1520:
 239:../../libDaisy//src/hid/disp/display.h ****         {
 6997              		.loc 3 239 33 view .LVU1838
 6998 0426 4FF0010B 		mov	fp, #1
 6999 042a 3BE7     		b	.L394
 7000              	.LBE1520:
 7001              	.LBE1554:
 7002              	.LBE1560:
 7003              	.LBE1581:
 7004              		.cfi_endproc
 7005              	.LFE2588:
 7007              		.section	.text._ZN5daisy5Dubby13UpdateSubmenuEv,"ax",%progbits
 7008              		.align	1
 7009              		.p2align 2,,3
ARM GAS  /var/folders/1y/_321xjh9623c014x9_qw12rr0000gn/T//ccqHcGuP.s 			page 187


 7010              		.global	_ZN5daisy5Dubby13UpdateSubmenuEv
 7011              		.syntax unified
 7012              		.thumb
 7013              		.thumb_func
 7015              	_ZN5daisy5Dubby13UpdateSubmenuEv:
 7016              	.LVL504:
 7017              	.LFB2585:
 227:Dubby.cpp     **** {
 7018              		.loc 2 227 1 is_stmt 1 view -0
 7019              		.cfi_startproc
 7020              		@ args = 0, pretend = 0, frame = 8
 7021              		@ frame_needed = 0, uses_anonymous_args = 0
 228:Dubby.cpp     ****     switch(menuItemSelected) 
 7022              		.loc 2 228 5 view .LVU1840
 228:Dubby.cpp     ****     switch(menuItemSelected) 
 7023              		.loc 2 228 12 is_stmt 0 view .LVU1841
 7024 0000 90F85830 		ldrb	r3, [r0, #88]	@ zero_extendqisi2
 227:Dubby.cpp     **** {
 7025              		.loc 2 227 1 view .LVU1842
 7026 0004 2DE9F041 		push	{r4, r5, r6, r7, r8, lr}
 7027              		.cfi_def_cfa_offset 24
 7028              		.cfi_offset 4, -24
 7029              		.cfi_offset 5, -20
 7030              		.cfi_offset 6, -16
 7031              		.cfi_offset 7, -12
 7032              		.cfi_offset 8, -8
 7033              		.cfi_offset 14, -4
 7034 0008 0746     		mov	r7, r0
 7035 000a 82B0     		sub	sp, sp, #8
 7036              		.cfi_def_cfa_offset 32
 228:Dubby.cpp     ****     switch(menuItemSelected) 
 7037              		.loc 2 228 5 view .LVU1843
 7038 000c 002B     		cmp	r3, #0
 7039 000e 46D0     		beq	.L470
 7040 0010 022B     		cmp	r3, #2
 7041 0012 01D1     		bne	.L472
 236:Dubby.cpp     ****         case MENU3:
 7042              		.loc 2 236 9 is_stmt 1 view .LVU1844
 237:Dubby.cpp     ****             DisplayPreferencesMenu();
 7043              		.loc 2 237 13 view .LVU1845
 237:Dubby.cpp     ****             DisplayPreferencesMenu();
 7044              		.loc 2 237 35 is_stmt 0 view .LVU1846
 7045 0014 FFF7FEFF 		bl	_ZN5daisy5Dubby22DisplayPreferencesMenuEv
 7046              	.LVL505:
 238:Dubby.cpp     ****             break;
 7047              		.loc 2 238 13 is_stmt 1 view .LVU1847
 7048              	.L472:
 7049              	.LBB1597:
 7050              	.LBB1598:
 7051              	.LBB1599:
 7052              	.LBB1600:
 7053              	.LBB1601:
 124:../../libDaisy//src/dev/oled_ssd130x.h ****         spi_.BlockingTransmit(&cmd, 1);
 7054              		.loc 4 124 24 is_stmt 0 view .LVU1848
 7055 0018 07F58B66 		add	r6, r7, #1112
 7056 001c 07F58C65 		add	r5, r7, #1120
 125:../../libDaisy//src/dev/oled_ssd130x.h ****     };
ARM GAS  /var/folders/1y/_321xjh9623c014x9_qw12rr0000gn/T//ccqHcGuP.s 			page 188


 7057              		.loc 4 125 30 view .LVU1849
 7058 0020 B024     		movs	r4, #176
 7059 0022 07F26447 		addw	r7, r7, #1124
 7060              	.LVL506:
 7061              	.L473:
 125:../../libDaisy//src/dev/oled_ssd130x.h ****     };
 7062              		.loc 4 125 30 view .LVU1850
 7063 0026 4FF00008 		mov	r8, #0
 124:../../libDaisy//src/dev/oled_ssd130x.h ****         spi_.BlockingTransmit(&cmd, 1);
 7064              		.loc 4 124 23 view .LVU1851
 7065 002a 2846     		mov	r0, r5
 7066 002c 8DF80740 		strb	r4, [sp, #7]
 7067              	.LVL507:
 124:../../libDaisy//src/dev/oled_ssd130x.h ****         spi_.BlockingTransmit(&cmd, 1);
 7068              		.loc 4 124 23 view .LVU1852
 7069              	.LBE1601:
 7070              	.LBI1600:
 122:../../libDaisy//src/dev/oled_ssd130x.h ****     {
 7071              		.loc 4 122 10 is_stmt 1 view .LVU1853
 7072              	.LBB1602:
 124:../../libDaisy//src/dev/oled_ssd130x.h ****         spi_.BlockingTransmit(&cmd, 1);
 7073              		.loc 4 124 9 view .LVU1854
 7074              	.LBE1602:
 7075              	.LBE1600:
 7076              		.loc 4 383 22 is_stmt 0 view .LVU1855
 7077 0030 0134     		adds	r4, r4, #1
 7078              	.LVL508:
 7079              	.LBB1605:
 7080              	.LBB1603:
 124:../../libDaisy//src/dev/oled_ssd130x.h ****         spi_.BlockingTransmit(&cmd, 1);
 7081              		.loc 4 124 23 view .LVU1856
 7082 0032 4146     		mov	r1, r8
 7083 0034 FFF7FEFF 		bl	dsy_gpio_write
 7084              	.LVL509:
 125:../../libDaisy//src/dev/oled_ssd130x.h ****     };
 7085              		.loc 4 125 9 is_stmt 1 view .LVU1857
 125:../../libDaisy//src/dev/oled_ssd130x.h ****     };
 7086              		.loc 4 125 30 is_stmt 0 view .LVU1858
 7087 0038 6423     		movs	r3, #100
 7088 003a 0122     		movs	r2, #1
 7089 003c 0DF10701 		add	r1, sp, #7
 7090 0040 3046     		mov	r0, r6
 7091              	.LBE1603:
 7092              	.LBE1605:
 7093              		.loc 4 383 22 view .LVU1859
 7094 0042 E4B2     		uxtb	r4, r4
 7095              	.LBB1606:
 7096              	.LBB1604:
 125:../../libDaisy//src/dev/oled_ssd130x.h ****     };
 7097              		.loc 4 125 30 view .LVU1860
 7098 0044 FFF7FEFF 		bl	_ZN5daisy9SpiHandle16BlockingTransmitEPhjm
 7099              	.LVL510:
 125:../../libDaisy//src/dev/oled_ssd130x.h ****     };
 7100              		.loc 4 125 30 view .LVU1861
 7101              	.LBE1604:
 7102              	.LBE1606:
 7103              	.LBB1607:
ARM GAS  /var/folders/1y/_321xjh9623c014x9_qw12rr0000gn/T//ccqHcGuP.s 			page 189


 7104              	.LBB1608:
 124:../../libDaisy//src/dev/oled_ssd130x.h ****         spi_.BlockingTransmit(&cmd, 1);
 7105              		.loc 4 124 23 view .LVU1862
 7106 0048 4146     		mov	r1, r8
 7107 004a 2846     		mov	r0, r5
 7108 004c 8DF80780 		strb	r8, [sp, #7]
 7109              	.LVL511:
 124:../../libDaisy//src/dev/oled_ssd130x.h ****         spi_.BlockingTransmit(&cmd, 1);
 7110              		.loc 4 124 23 view .LVU1863
 7111              	.LBE1608:
 7112              	.LBI1607:
 122:../../libDaisy//src/dev/oled_ssd130x.h ****     {
 7113              		.loc 4 122 10 is_stmt 1 view .LVU1864
 7114              	.LBB1609:
 124:../../libDaisy//src/dev/oled_ssd130x.h ****         spi_.BlockingTransmit(&cmd, 1);
 7115              		.loc 4 124 9 view .LVU1865
 124:../../libDaisy//src/dev/oled_ssd130x.h ****         spi_.BlockingTransmit(&cmd, 1);
 7116              		.loc 4 124 23 is_stmt 0 view .LVU1866
 7117 0050 FFF7FEFF 		bl	dsy_gpio_write
 7118              	.LVL512:
 125:../../libDaisy//src/dev/oled_ssd130x.h ****     };
 7119              		.loc 4 125 9 is_stmt 1 view .LVU1867
 125:../../libDaisy//src/dev/oled_ssd130x.h ****     };
 7120              		.loc 4 125 30 is_stmt 0 view .LVU1868
 7121 0054 0122     		movs	r2, #1
 7122 0056 6423     		movs	r3, #100
 7123 0058 0DF10701 		add	r1, sp, #7
 7124 005c 3046     		mov	r0, r6
 7125 005e FFF7FEFF 		bl	_ZN5daisy9SpiHandle16BlockingTransmitEPhjm
 7126              	.LVL513:
 125:../../libDaisy//src/dev/oled_ssd130x.h ****     };
 7127              		.loc 4 125 30 view .LVU1869
 7128 0062 1023     		movs	r3, #16
 7129              	.LBE1609:
 7130              	.LBE1607:
 7131              	.LBB1610:
 7132              	.LBB1611:
 124:../../libDaisy//src/dev/oled_ssd130x.h ****         spi_.BlockingTransmit(&cmd, 1);
 7133              		.loc 4 124 23 view .LVU1870
 7134 0064 4146     		mov	r1, r8
 7135 0066 2846     		mov	r0, r5
 7136 0068 8DF80730 		strb	r3, [sp, #7]
 7137              	.LVL514:
 124:../../libDaisy//src/dev/oled_ssd130x.h ****         spi_.BlockingTransmit(&cmd, 1);
 7138              		.loc 4 124 23 view .LVU1871
 7139              	.LBE1611:
 7140              	.LBI1610:
 122:../../libDaisy//src/dev/oled_ssd130x.h ****     {
 7141              		.loc 4 122 10 is_stmt 1 view .LVU1872
 7142              	.LBB1612:
 124:../../libDaisy//src/dev/oled_ssd130x.h ****         spi_.BlockingTransmit(&cmd, 1);
 7143              		.loc 4 124 9 view .LVU1873
 124:../../libDaisy//src/dev/oled_ssd130x.h ****         spi_.BlockingTransmit(&cmd, 1);
 7144              		.loc 4 124 23 is_stmt 0 view .LVU1874
 7145 006c FFF7FEFF 		bl	dsy_gpio_write
 7146              	.LVL515:
 125:../../libDaisy//src/dev/oled_ssd130x.h ****     };
ARM GAS  /var/folders/1y/_321xjh9623c014x9_qw12rr0000gn/T//ccqHcGuP.s 			page 190


 7147              		.loc 4 125 9 is_stmt 1 view .LVU1875
 125:../../libDaisy//src/dev/oled_ssd130x.h ****     };
 7148              		.loc 4 125 30 is_stmt 0 view .LVU1876
 7149 0070 6423     		movs	r3, #100
 7150 0072 0122     		movs	r2, #1
 7151 0074 0DF10701 		add	r1, sp, #7
 7152 0078 3046     		mov	r0, r6
 7153 007a FFF7FEFF 		bl	_ZN5daisy9SpiHandle16BlockingTransmitEPhjm
 7154              	.LVL516:
 125:../../libDaisy//src/dev/oled_ssd130x.h ****     };
 7155              		.loc 4 125 30 view .LVU1877
 7156              	.LBE1612:
 7157              	.LBE1610:
 7158              	.LBB1613:
 7159              	.LBI1613:
 128:../../libDaisy//src/dev/oled_ssd130x.h ****     {
 7160              		.loc 4 128 10 is_stmt 1 view .LVU1878
 7161              	.LBB1614:
 130:../../libDaisy//src/dev/oled_ssd130x.h ****         spi_.BlockingTransmit(buff, size);
 7162              		.loc 4 130 9 view .LVU1879
 130:../../libDaisy//src/dev/oled_ssd130x.h ****         spi_.BlockingTransmit(buff, size);
 7163              		.loc 4 130 23 is_stmt 0 view .LVU1880
 7164 007e 0121     		movs	r1, #1
 7165 0080 2846     		mov	r0, r5
 7166 0082 FFF7FEFF 		bl	dsy_gpio_write
 7167              	.LVL517:
 131:../../libDaisy//src/dev/oled_ssd130x.h ****     };
 7168              		.loc 4 131 9 is_stmt 1 view .LVU1881
 131:../../libDaisy//src/dev/oled_ssd130x.h ****     };
 7169              		.loc 4 131 30 is_stmt 0 view .LVU1882
 7170 0086 8022     		movs	r2, #128
 7171 0088 3946     		mov	r1, r7
 7172 008a 6423     		movs	r3, #100
 7173 008c 3046     		mov	r0, r6
 7174              	.LBE1614:
 7175              	.LBE1613:
 7176              		.loc 4 383 22 view .LVU1883
 7177 008e 1744     		add	r7, r7, r2
 7178              	.LVL518:
 7179              	.LBB1616:
 7180              	.LBB1615:
 131:../../libDaisy//src/dev/oled_ssd130x.h ****     };
 7181              		.loc 4 131 30 view .LVU1884
 7182 0090 FFF7FEFF 		bl	_ZN5daisy9SpiHandle16BlockingTransmitEPhjm
 7183              	.LVL519:
 131:../../libDaisy//src/dev/oled_ssd130x.h ****     };
 7184              		.loc 4 131 30 view .LVU1885
 7185              	.LBE1615:
 7186              	.LBE1616:
 7187              		.loc 4 383 9 is_stmt 1 view .LVU1886
 7188              		.loc 4 383 22 view .LVU1887
 7189 0094 B82C     		cmp	r4, #184
 7190 0096 C6D1     		bne	.L473
 7191              	.LBE1599:
 7192              	.LBE1598:
 7193              	.LBE1597:
 244:Dubby.cpp     **** }
ARM GAS  /var/folders/1y/_321xjh9623c014x9_qw12rr0000gn/T//ccqHcGuP.s 			page 191


 7194              		.loc 2 244 1 is_stmt 0 view .LVU1888
 7195 0098 02B0     		add	sp, sp, #8
 7196              		.cfi_remember_state
 7197              		.cfi_def_cfa_offset 24
 7198              		@ sp needed
 7199 009a BDE8F081 		pop	{r4, r5, r6, r7, r8, pc}
 7200              	.LVL520:
 7201              	.L470:
 7202              		.cfi_restore_state
 230:Dubby.cpp     ****         case MENU1:
 7203              		.loc 2 230 9 is_stmt 1 view .LVU1889
 231:Dubby.cpp     ****             RenderScope();
 7204              		.loc 2 231 13 view .LVU1890
 7205              	.LBB1617:
 7206              	.LBI1617:
 255:Dubby.cpp     **** void Dubby::RenderScope()
 7207              		.loc 2 255 6 view .LVU1891
 7208              	.LBB1618:
 257:Dubby.cpp     ****     if(seed.system.GetNow() - screen_update_last_ > screen_update_period_)
 7209              		.loc 2 257 5 view .LVU1892
 7210              	.LBB1619:
 257:Dubby.cpp     ****     if(seed.system.GetNow() - screen_update_last_ > screen_update_period_)
 7211              		.loc 2 257 26 is_stmt 0 view .LVU1893
 7212 009e FFF7FEFF 		bl	_ZN5daisy6System6GetNowEv
 7213              	.LVL521:
 257:Dubby.cpp     ****     if(seed.system.GetNow() - screen_update_last_ > screen_update_period_)
 7214              		.loc 2 257 29 view .LVU1894
 7215 00a2 D7F86C28 		ldr	r2, [r7, #2156]
 257:Dubby.cpp     ****     if(seed.system.GetNow() - screen_update_last_ > screen_update_period_)
 7216              		.loc 2 257 5 view .LVU1895
 7217 00a6 D7F87038 		ldr	r3, [r7, #2160]
 257:Dubby.cpp     ****     if(seed.system.GetNow() - screen_update_last_ > screen_update_period_)
 7218              		.loc 2 257 29 view .LVU1896
 7219 00aa 801A     		subs	r0, r0, r2
 257:Dubby.cpp     ****     if(seed.system.GetNow() - screen_update_last_ > screen_update_period_)
 7220              		.loc 2 257 5 view .LVU1897
 7221 00ac 9842     		cmp	r0, r3
 7222 00ae B3D9     		bls	.L472
 7223              	.LBE1619:
 7224 00b0 3846     		mov	r0, r7
 7225 00b2 FFF7FEFF 		bl	_ZN5daisy5Dubby11RenderScopeEv.part.0
 7226              	.LVL522:
 7227 00b6 AFE7     		b	.L472
 7228              	.LBE1618:
 7229              	.LBE1617:
 7230              		.cfi_endproc
 7231              	.LFE2585:
 7233              		.section	.text._ZN5daisy5Dubby10UpdateMenuEib,"ax",%progbits
 7234              		.align	1
 7235              		.p2align 2,,3
 7236              		.global	_ZN5daisy5Dubby10UpdateMenuEib
 7237              		.syntax unified
 7238              		.thumb
 7239              		.thumb_func
 7241              	_ZN5daisy5Dubby10UpdateMenuEib:
 7242              	.LVL523:
 7243              	.LFB2581:
ARM GAS  /var/folders/1y/_321xjh9623c014x9_qw12rr0000gn/T//ccqHcGuP.s 			page 192


 174:Dubby.cpp     **** {
 7244              		.loc 2 174 1 is_stmt 1 view -0
 7245              		.cfi_startproc
 7246              		@ args = 0, pretend = 0, frame = 8
 7247              		@ frame_needed = 0, uses_anonymous_args = 0
 175:Dubby.cpp     ****     if ((menuItemSelected >= 0 && increment == 1 && menuItemSelected < 2) || (increment != 1 && men
 7248              		.loc 2 175 5 view .LVU1899
 7249 0000 0129     		cmp	r1, #1
 175:Dubby.cpp     ****     if ((menuItemSelected >= 0 && increment == 1 && menuItemSelected < 2) || (increment != 1 && men
 7250              		.loc 2 175 53 is_stmt 0 view .LVU1900
 7251 0002 90F85830 		ldrb	r3, [r0, #88]	@ zero_extendqisi2
 174:Dubby.cpp     **** {
 7252              		.loc 2 174 1 view .LVU1901
 7253 0006 2DE9F041 		push	{r4, r5, r6, r7, r8, lr}
 7254              		.cfi_def_cfa_offset 24
 7255              		.cfi_offset 4, -24
 7256              		.cfi_offset 5, -20
 7257              		.cfi_offset 6, -16
 7258              		.cfi_offset 7, -12
 7259              		.cfi_offset 8, -8
 7260              		.cfi_offset 14, -4
 7261 000a 0746     		mov	r7, r0
 7262 000c 82B0     		sub	sp, sp, #8
 7263              		.cfi_def_cfa_offset 32
 174:Dubby.cpp     **** {
 7264              		.loc 2 174 1 view .LVU1902
 7265 000e 1446     		mov	r4, r2
 175:Dubby.cpp     ****     if ((menuItemSelected >= 0 && increment == 1 && menuItemSelected < 2) || (increment != 1 && men
 7266              		.loc 2 175 5 view .LVU1903
 7267 0010 54D0     		beq	.L488
 175:Dubby.cpp     ****     if ((menuItemSelected >= 0 && increment == 1 && menuItemSelected < 2) || (increment != 1 && men
 7268              		.loc 2 175 94 discriminator 4 view .LVU1904
 7269 0012 002B     		cmp	r3, #0
 7270 0014 54D1     		bne	.L478
 7271              	.L479:
 7272 0016 07F26448 		addw	r8, r7, #1124
 7273              	.LBB1635:
 7274              	.LBB1636:
 7275              	.LBB1637:
 366:../../libDaisy//src/dev/oled_ssd130x.h ****         }
 7276              		.loc 4 366 24 view .LVU1905
 7277 001a 4FF48062 		mov	r2, #1024
 7278              	.LVL524:
 366:../../libDaisy//src/dev/oled_ssd130x.h ****         }
 7279              		.loc 4 366 24 view .LVU1906
 7280 001e 0021     		movs	r1, #0
 7281              	.LVL525:
 366:../../libDaisy//src/dev/oled_ssd130x.h ****         }
 7282              		.loc 4 366 24 view .LVU1907
 7283 0020 4046     		mov	r0, r8
 7284              	.LVL526:
 366:../../libDaisy//src/dev/oled_ssd130x.h ****         }
 7285              		.loc 4 366 24 view .LVU1908
 7286 0022 FFF7FEFF 		bl	memset
 7287              	.LVL527:
 7288              	.LBE1637:
 7289              	.LBE1636:
ARM GAS  /var/folders/1y/_321xjh9623c014x9_qw12rr0000gn/T//ccqHcGuP.s 			page 193


 7290              	.LBE1635:
 180:Dubby.cpp     ****     if (higlight) HightlightMenuItem();
 7291              		.loc 2 180 5 is_stmt 1 view .LVU1909
 180:Dubby.cpp     ****     if (higlight) HightlightMenuItem();
 7292              		.loc 2 180 37 is_stmt 0 view .LVU1910
 7293 0026 3846     		mov	r0, r7
 180:Dubby.cpp     ****     if (higlight) HightlightMenuItem();
 7294              		.loc 2 180 5 view .LVU1911
 7295 0028 002C     		cmp	r4, #0
 7296 002a 44D0     		beq	.L480
 7297              	.LVL528:
 180:Dubby.cpp     ****     if (higlight) HightlightMenuItem();
 7298              		.loc 2 180 19 is_stmt 1 discriminator 1 view .LVU1912
 180:Dubby.cpp     ****     if (higlight) HightlightMenuItem();
 7299              		.loc 2 180 37 is_stmt 0 discriminator 1 view .LVU1913
 7300 002c FFF7FEFF 		bl	_ZN5daisy5Dubby18HightlightMenuItemEv
 7301              	.LVL529:
 7302              	.L481:
 183:Dubby.cpp     ****     UpdateSubmenu();
 7303              		.loc 2 183 5 is_stmt 1 view .LVU1914
 183:Dubby.cpp     ****     UpdateSubmenu();
 7304              		.loc 2 183 18 is_stmt 0 view .LVU1915
 7305 0030 3846     		mov	r0, r7
 7306              	.LBB1638:
 7307              	.LBB1639:
 7308              	.LBB1640:
 7309              	.LBB1641:
 7310              	.LBB1642:
 124:../../libDaisy//src/dev/oled_ssd130x.h ****         spi_.BlockingTransmit(&cmd, 1);
 7311              		.loc 4 124 24 view .LVU1916
 7312 0032 07F58B66 		add	r6, r7, #1112
 7313 0036 07F58C65 		add	r5, r7, #1120
 125:../../libDaisy//src/dev/oled_ssd130x.h ****     };
 7314              		.loc 4 125 30 view .LVU1917
 7315 003a B024     		movs	r4, #176
 7316              	.LBE1642:
 7317              	.LBE1641:
 7318              	.LBE1640:
 7319              	.LBE1639:
 7320              	.LBE1638:
 183:Dubby.cpp     ****     UpdateSubmenu();
 7321              		.loc 2 183 18 view .LVU1918
 7322 003c FFF7FEFF 		bl	_ZN5daisy5Dubby13UpdateSubmenuEv
 7323              	.LVL530:
 185:Dubby.cpp     ****     display.Update();
 7324              		.loc 2 185 5 is_stmt 1 view .LVU1919
 7325              	.LBB1662:
 7326              	.LBI1638:
  45:../../libDaisy//src/hid/disp/oled_display.h ****     }
  46:../../libDaisy//src/hid/disp/oled_display.h **** 
  47:../../libDaisy//src/hid/disp/oled_display.h ****     /** 
  48:../../libDaisy//src/hid/disp/oled_display.h ****     Writes the current display buffer to the OLED device using SPI or I2C depending on 
  49:../../libDaisy//src/hid/disp/oled_display.h ****     how the object was initialized.
  50:../../libDaisy//src/hid/disp/oled_display.h ****     */
  51:../../libDaisy//src/hid/disp/oled_display.h ****     void Update() override { driver_.Update(); }
 7327              		.loc 1 51 10 view .LVU1920
 7328              	.LBB1661:
ARM GAS  /var/folders/1y/_321xjh9623c014x9_qw12rr0000gn/T//ccqHcGuP.s 			page 194


 7329              	.LBI1639:
 373:../../libDaisy//src/dev/oled_ssd130x.h ****     {
 7330              		.loc 4 373 10 view .LVU1921
 7331              	.LBB1660:
 7332              		.loc 4 383 22 view .LVU1922
 7333              	.L482:
 7334              		.loc 4 383 22 is_stmt 0 view .LVU1923
 7335 0040 0027     		movs	r7, #0
 7336              	.LBB1647:
 7337              	.LBB1643:
 124:../../libDaisy//src/dev/oled_ssd130x.h ****         spi_.BlockingTransmit(&cmd, 1);
 7338              		.loc 4 124 23 view .LVU1924
 7339 0042 2846     		mov	r0, r5
 7340 0044 8DF80740 		strb	r4, [sp, #7]
 7341              	.LVL531:
 124:../../libDaisy//src/dev/oled_ssd130x.h ****         spi_.BlockingTransmit(&cmd, 1);
 7342              		.loc 4 124 23 view .LVU1925
 7343              	.LBE1643:
 7344              	.LBI1641:
 122:../../libDaisy//src/dev/oled_ssd130x.h ****     {
 7345              		.loc 4 122 10 is_stmt 1 view .LVU1926
 7346              	.LBB1644:
 124:../../libDaisy//src/dev/oled_ssd130x.h ****         spi_.BlockingTransmit(&cmd, 1);
 7347              		.loc 4 124 9 view .LVU1927
 7348              	.LBE1644:
 7349              	.LBE1647:
 7350              		.loc 4 383 22 is_stmt 0 view .LVU1928
 7351 0048 0134     		adds	r4, r4, #1
 7352              	.LVL532:
 7353              	.LBB1648:
 7354              	.LBB1645:
 124:../../libDaisy//src/dev/oled_ssd130x.h ****         spi_.BlockingTransmit(&cmd, 1);
 7355              		.loc 4 124 23 view .LVU1929
 7356 004a 3946     		mov	r1, r7
 7357 004c FFF7FEFF 		bl	dsy_gpio_write
 7358              	.LVL533:
 125:../../libDaisy//src/dev/oled_ssd130x.h ****     };
 7359              		.loc 4 125 9 is_stmt 1 view .LVU1930
 125:../../libDaisy//src/dev/oled_ssd130x.h ****     };
 7360              		.loc 4 125 30 is_stmt 0 view .LVU1931
 7361 0050 6423     		movs	r3, #100
 7362 0052 0122     		movs	r2, #1
 7363 0054 0DF10701 		add	r1, sp, #7
 7364 0058 3046     		mov	r0, r6
 7365              	.LBE1645:
 7366              	.LBE1648:
 7367              		.loc 4 383 22 view .LVU1932
 7368 005a E4B2     		uxtb	r4, r4
 7369              	.LBB1649:
 7370              	.LBB1646:
 125:../../libDaisy//src/dev/oled_ssd130x.h ****     };
 7371              		.loc 4 125 30 view .LVU1933
 7372 005c FFF7FEFF 		bl	_ZN5daisy9SpiHandle16BlockingTransmitEPhjm
 7373              	.LVL534:
 125:../../libDaisy//src/dev/oled_ssd130x.h ****     };
 7374              		.loc 4 125 30 view .LVU1934
 7375              	.LBE1646:
ARM GAS  /var/folders/1y/_321xjh9623c014x9_qw12rr0000gn/T//ccqHcGuP.s 			page 195


 7376              	.LBE1649:
 7377              	.LBB1650:
 7378              	.LBB1651:
 124:../../libDaisy//src/dev/oled_ssd130x.h ****         spi_.BlockingTransmit(&cmd, 1);
 7379              		.loc 4 124 23 view .LVU1935
 7380 0060 3946     		mov	r1, r7
 7381 0062 2846     		mov	r0, r5
 7382 0064 8DF80770 		strb	r7, [sp, #7]
 7383              	.LVL535:
 124:../../libDaisy//src/dev/oled_ssd130x.h ****         spi_.BlockingTransmit(&cmd, 1);
 7384              		.loc 4 124 23 view .LVU1936
 7385              	.LBE1651:
 7386              	.LBI1650:
 122:../../libDaisy//src/dev/oled_ssd130x.h ****     {
 7387              		.loc 4 122 10 is_stmt 1 view .LVU1937
 7388              	.LBB1652:
 124:../../libDaisy//src/dev/oled_ssd130x.h ****         spi_.BlockingTransmit(&cmd, 1);
 7389              		.loc 4 124 9 view .LVU1938
 124:../../libDaisy//src/dev/oled_ssd130x.h ****         spi_.BlockingTransmit(&cmd, 1);
 7390              		.loc 4 124 23 is_stmt 0 view .LVU1939
 7391 0068 FFF7FEFF 		bl	dsy_gpio_write
 7392              	.LVL536:
 125:../../libDaisy//src/dev/oled_ssd130x.h ****     };
 7393              		.loc 4 125 9 is_stmt 1 view .LVU1940
 125:../../libDaisy//src/dev/oled_ssd130x.h ****     };
 7394              		.loc 4 125 30 is_stmt 0 view .LVU1941
 7395 006c 0122     		movs	r2, #1
 7396 006e 6423     		movs	r3, #100
 7397 0070 0DF10701 		add	r1, sp, #7
 7398 0074 3046     		mov	r0, r6
 7399 0076 FFF7FEFF 		bl	_ZN5daisy9SpiHandle16BlockingTransmitEPhjm
 7400              	.LVL537:
 125:../../libDaisy//src/dev/oled_ssd130x.h ****     };
 7401              		.loc 4 125 30 view .LVU1942
 7402 007a 1023     		movs	r3, #16
 7403              	.LBE1652:
 7404              	.LBE1650:
 7405              	.LBB1653:
 7406              	.LBB1654:
 124:../../libDaisy//src/dev/oled_ssd130x.h ****         spi_.BlockingTransmit(&cmd, 1);
 7407              		.loc 4 124 23 view .LVU1943
 7408 007c 3946     		mov	r1, r7
 7409 007e 2846     		mov	r0, r5
 7410 0080 8DF80730 		strb	r3, [sp, #7]
 7411              	.LVL538:
 124:../../libDaisy//src/dev/oled_ssd130x.h ****         spi_.BlockingTransmit(&cmd, 1);
 7412              		.loc 4 124 23 view .LVU1944
 7413              	.LBE1654:
 7414              	.LBI1653:
 122:../../libDaisy//src/dev/oled_ssd130x.h ****     {
 7415              		.loc 4 122 10 is_stmt 1 view .LVU1945
 7416              	.LBB1655:
 124:../../libDaisy//src/dev/oled_ssd130x.h ****         spi_.BlockingTransmit(&cmd, 1);
 7417              		.loc 4 124 9 view .LVU1946
 124:../../libDaisy//src/dev/oled_ssd130x.h ****         spi_.BlockingTransmit(&cmd, 1);
 7418              		.loc 4 124 23 is_stmt 0 view .LVU1947
 7419 0084 FFF7FEFF 		bl	dsy_gpio_write
ARM GAS  /var/folders/1y/_321xjh9623c014x9_qw12rr0000gn/T//ccqHcGuP.s 			page 196


 7420              	.LVL539:
 125:../../libDaisy//src/dev/oled_ssd130x.h ****     };
 7421              		.loc 4 125 9 is_stmt 1 view .LVU1948
 125:../../libDaisy//src/dev/oled_ssd130x.h ****     };
 7422              		.loc 4 125 30 is_stmt 0 view .LVU1949
 7423 0088 6423     		movs	r3, #100
 7424 008a 0122     		movs	r2, #1
 7425 008c 0DF10701 		add	r1, sp, #7
 7426 0090 3046     		mov	r0, r6
 7427 0092 FFF7FEFF 		bl	_ZN5daisy9SpiHandle16BlockingTransmitEPhjm
 7428              	.LVL540:
 125:../../libDaisy//src/dev/oled_ssd130x.h ****     };
 7429              		.loc 4 125 30 view .LVU1950
 7430              	.LBE1655:
 7431              	.LBE1653:
 7432              	.LBB1656:
 7433              	.LBI1656:
 128:../../libDaisy//src/dev/oled_ssd130x.h ****     {
 7434              		.loc 4 128 10 is_stmt 1 view .LVU1951
 7435              	.LBB1657:
 130:../../libDaisy//src/dev/oled_ssd130x.h ****         spi_.BlockingTransmit(buff, size);
 7436              		.loc 4 130 9 view .LVU1952
 130:../../libDaisy//src/dev/oled_ssd130x.h ****         spi_.BlockingTransmit(buff, size);
 7437              		.loc 4 130 23 is_stmt 0 view .LVU1953
 7438 0096 0121     		movs	r1, #1
 7439 0098 2846     		mov	r0, r5
 7440 009a FFF7FEFF 		bl	dsy_gpio_write
 7441              	.LVL541:
 131:../../libDaisy//src/dev/oled_ssd130x.h ****     };
 7442              		.loc 4 131 9 is_stmt 1 view .LVU1954
 131:../../libDaisy//src/dev/oled_ssd130x.h ****     };
 7443              		.loc 4 131 30 is_stmt 0 view .LVU1955
 7444 009e 8022     		movs	r2, #128
 7445 00a0 4146     		mov	r1, r8
 7446 00a2 6423     		movs	r3, #100
 7447 00a4 3046     		mov	r0, r6
 7448              	.LBE1657:
 7449              	.LBE1656:
 7450              		.loc 4 383 22 view .LVU1956
 7451 00a6 9044     		add	r8, r8, r2
 7452              	.LVL542:
 7453              	.LBB1659:
 7454              	.LBB1658:
 131:../../libDaisy//src/dev/oled_ssd130x.h ****     };
 7455              		.loc 4 131 30 view .LVU1957
 7456 00a8 FFF7FEFF 		bl	_ZN5daisy9SpiHandle16BlockingTransmitEPhjm
 7457              	.LVL543:
 131:../../libDaisy//src/dev/oled_ssd130x.h ****     };
 7458              		.loc 4 131 30 view .LVU1958
 7459              	.LBE1658:
 7460              	.LBE1659:
 7461              		.loc 4 383 9 is_stmt 1 view .LVU1959
 7462              		.loc 4 383 22 view .LVU1960
 7463 00ac B82C     		cmp	r4, #184
 7464 00ae C7D1     		bne	.L482
 7465              	.LBE1660:
 7466              	.LBE1661:
ARM GAS  /var/folders/1y/_321xjh9623c014x9_qw12rr0000gn/T//ccqHcGuP.s 			page 197


 7467              	.LBE1662:
 186:Dubby.cpp     **** }
 7468              		.loc 2 186 1 is_stmt 0 view .LVU1961
 7469 00b0 02B0     		add	sp, sp, #8
 7470              		.cfi_remember_state
 7471              		.cfi_def_cfa_offset 24
 7472              		@ sp needed
 7473 00b2 BDE8F081 		pop	{r4, r5, r6, r7, r8, pc}
 7474              	.LVL544:
 7475              	.L480:
 7476              		.cfi_restore_state
 181:Dubby.cpp     ****     else ReleaseMenu();
 7477              		.loc 2 181 10 is_stmt 1 view .LVU1962
 181:Dubby.cpp     ****     else ReleaseMenu();
 7478              		.loc 2 181 21 is_stmt 0 view .LVU1963
 7479 00b6 FFF7FEFF 		bl	_ZN5daisy5Dubby11ReleaseMenuEv
 7480              	.LVL545:
 181:Dubby.cpp     ****     else ReleaseMenu();
 7481              		.loc 2 181 21 view .LVU1964
 7482 00ba B9E7     		b	.L481
 7483              	.LVL546:
 7484              	.L488:
 175:Dubby.cpp     ****     if ((menuItemSelected >= 0 && increment == 1 && menuItemSelected < 2) || (increment != 1 && men
 7485              		.loc 2 175 50 discriminator 1 view .LVU1965
 7486 00bc 012B     		cmp	r3, #1
 7487 00be AAD8     		bhi	.L479
 7488              	.L478:
 176:Dubby.cpp     ****         menuItemSelected = (MenuItems)(menuItemSelected + increment);
 7489              		.loc 2 176 9 is_stmt 1 view .LVU1966
 176:Dubby.cpp     ****         menuItemSelected = (MenuItems)(menuItemSelected + increment);
 7490              		.loc 2 176 57 is_stmt 0 view .LVU1967
 7491 00c0 0B44     		add	r3, r3, r1
 176:Dubby.cpp     ****         menuItemSelected = (MenuItems)(menuItemSelected + increment);
 7492              		.loc 2 176 26 view .LVU1968
 7493 00c2 87F85830 		strb	r3, [r7, #88]
 7494 00c6 A6E7     		b	.L479
 7495              		.cfi_endproc
 7496              	.LFE2581:
 7498              		.section	.text._ZN5daisy5Dubby21UpdatePreferencesMenuEi,"ax",%progbits
 7499              		.align	1
 7500              		.p2align 2,,3
 7501              		.global	_ZN5daisy5Dubby21UpdatePreferencesMenuEi
 7502              		.syntax unified
 7503              		.thumb
 7504              		.thumb_func
 7506              	_ZN5daisy5Dubby21UpdatePreferencesMenuEi:
 7507              	.LVL547:
 7508              	.LFB2589:
 299:Dubby.cpp     **** {
 7509              		.loc 2 299 1 is_stmt 1 view -0
 7510              		.cfi_startproc
 7511              		@ args = 0, pretend = 0, frame = 0
 7512              		@ frame_needed = 0, uses_anonymous_args = 0
 7513              		@ link register save eliminated.
 300:Dubby.cpp     ****     if (((preferencesMenuItemSelected >= 0 && increment == 1 && preferencesMenuItemSelected < PREFE
 7514              		.loc 2 300 5 view .LVU1970
 7515 0000 0129     		cmp	r1, #1
ARM GAS  /var/folders/1y/_321xjh9623c014x9_qw12rr0000gn/T//ccqHcGuP.s 			page 198


 300:Dubby.cpp     ****     if (((preferencesMenuItemSelected >= 0 && increment == 1 && preferencesMenuItemSelected < PREFE
 7516              		.loc 2 300 65 is_stmt 0 view .LVU1971
 7517 0002 90F85930 		ldrb	r3, [r0, #89]	@ zero_extendqisi2
 300:Dubby.cpp     ****     if (((preferencesMenuItemSelected >= 0 && increment == 1 && preferencesMenuItemSelected < PREFE
 7518              		.loc 2 300 5 view .LVU1972
 7519 0006 06D0     		beq	.L496
 300:Dubby.cpp     ****     if (((preferencesMenuItemSelected >= 0 && increment == 1 && preferencesMenuItemSelected < PREFE
 7520              		.loc 2 300 140 discriminator 4 view .LVU1973
 7521 0008 23B1     		cbz	r3, .L489
 7522              	.L491:
 7523              	.LVL548:
 7524              	.LBB1665:
 7525              	.LBI1665:
 298:Dubby.cpp     **** void Dubby::UpdatePreferencesMenu(int increment) 
 7526              		.loc 2 298 6 is_stmt 1 view .LVU1974
 7527              	.LBB1666:
 302:Dubby.cpp     ****         preferencesMenuItemSelected = (PreferenesMenuItems)(preferencesMenuItemSelected + increment
 7528              		.loc 2 302 9 view .LVU1975
 302:Dubby.cpp     ****         preferencesMenuItemSelected = (PreferenesMenuItems)(preferencesMenuItemSelected + increment
 7529              		.loc 2 302 89 is_stmt 0 view .LVU1976
 7530 000a 1944     		add	r1, r1, r3
 7531              	.LVL549:
 302:Dubby.cpp     ****         preferencesMenuItemSelected = (PreferenesMenuItems)(preferencesMenuItemSelected + increment
 7532              		.loc 2 302 37 view .LVU1977
 7533 000c 80F85910 		strb	r1, [r0, #89]
 304:Dubby.cpp     ****         DisplayPreferencesMenu();
 7534              		.loc 2 304 9 is_stmt 1 view .LVU1978
 304:Dubby.cpp     ****         DisplayPreferencesMenu();
 7535              		.loc 2 304 31 is_stmt 0 view .LVU1979
 7536 0010 FFF7FEBF 		b	_ZN5daisy5Dubby22DisplayPreferencesMenuEv
 7537              	.LVL550:
 7538              	.L489:
 304:Dubby.cpp     ****         DisplayPreferencesMenu();
 7539              		.loc 2 304 31 view .LVU1980
 7540              	.LBE1666:
 7541              	.LBE1665:
 306:Dubby.cpp     **** }
 7542              		.loc 2 306 1 view .LVU1981
 7543 0014 7047     		bx	lr
 7544              	.L496:
 300:Dubby.cpp     ****     if (((preferencesMenuItemSelected >= 0 && increment == 1 && preferencesMenuItemSelected < PREFE
 7545              		.loc 2 300 62 discriminator 1 view .LVU1982
 7546 0016 022B     		cmp	r3, #2
 7547 0018 F7D9     		bls	.L491
 7548 001a 7047     		bx	lr
 7549              		.cfi_endproc
 7550              	.LFE2589:
 7552              		.section	.rodata._ZN5daisy5Dubby17ResetToBootloaderEv.str1.4,"aMS",%progbits,1
 7553              		.align	2
 7554              	.LC15:
 7555 0000 4649524D 		.ascii	"FIRMWARE UPDATE\000"
 7555      57415245 
 7555      20555044 
 7555      41544500 
 7556              		.section	.text._ZN5daisy5Dubby17ResetToBootloaderEv,"ax",%progbits
 7557              		.align	1
 7558              		.p2align 2,,3
ARM GAS  /var/folders/1y/_321xjh9623c014x9_qw12rr0000gn/T//ccqHcGuP.s 			page 199


 7559              		.global	_ZN5daisy5Dubby17ResetToBootloaderEv
 7560              		.syntax unified
 7561              		.thumb
 7562              		.thumb_func
 7564              	_ZN5daisy5Dubby17ResetToBootloaderEv:
 7565              	.LVL551:
 7566              	.LFB2590:
 309:Dubby.cpp     **** {
 7567              		.loc 2 309 1 is_stmt 1 view -0
 7568              		.cfi_startproc
 7569              		@ args = 0, pretend = 0, frame = 8
 7570              		@ frame_needed = 0, uses_anonymous_args = 0
 310:Dubby.cpp     ****     DrawBitmap(1);
 7571              		.loc 2 310 5 view .LVU1984
 309:Dubby.cpp     **** {
 7572              		.loc 2 309 1 is_stmt 0 view .LVU1985
 7573 0000 2DE9F041 		push	{r4, r5, r6, r7, r8, lr}
 7574              		.cfi_def_cfa_offset 24
 7575              		.cfi_offset 4, -24
 7576              		.cfi_offset 5, -20
 7577              		.cfi_offset 6, -16
 7578              		.cfi_offset 7, -12
 7579              		.cfi_offset 8, -8
 7580              		.cfi_offset 14, -4
 310:Dubby.cpp     ****     DrawBitmap(1);
 7581              		.loc 2 310 15 view .LVU1986
 7582 0004 0121     		movs	r1, #1
 309:Dubby.cpp     **** {
 7583              		.loc 2 309 1 view .LVU1987
 7584 0006 84B0     		sub	sp, sp, #16
 7585              		.cfi_def_cfa_offset 40
 309:Dubby.cpp     **** {
 7586              		.loc 2 309 1 view .LVU1988
 7587 0008 0546     		mov	r5, r0
 7588              	.LBB1689:
 7589              	.LBB1690:
 173:../../libDaisy//src/hid/disp/display.h ****         currentY_ = (y >= Height()) ? Height() - 1 : y;
 7590              		.loc 3 173 19 view .LVU1989
 7591 000a 294C     		ldr	r4, .L501
 7592              	.LBE1690:
 7593              	.LBE1689:
 310:Dubby.cpp     ****     DrawBitmap(1);
 7594              		.loc 2 310 15 view .LVU1990
 7595 000c FFF7FEFF 		bl	_ZN5daisy5Dubby10DrawBitmapEi
 7596              	.LVL552:
 312:Dubby.cpp     ****     display.SetCursor(20, 55);
 7597              		.loc 2 312 5 is_stmt 1 view .LVU1991
 7598              	.LBB1693:
 7599              	.LBI1689:
 171:../../libDaisy//src/hid/disp/display.h ****     {
 7600              		.loc 3 171 10 view .LVU1992
 7601              	.LBB1691:
 173:../../libDaisy//src/hid/disp/display.h ****         currentY_ = (y >= Height()) ? Height() - 1 : y;
 7602              		.loc 3 173 9 view .LVU1993
 174:../../libDaisy//src/hid/disp/display.h ****     }
 7603              		.loc 3 174 9 view .LVU1994
 7604              	.LBE1691:
ARM GAS  /var/folders/1y/_321xjh9623c014x9_qw12rr0000gn/T//ccqHcGuP.s 			page 200


 7605              	.LBE1693:
 313:Dubby.cpp     ****     display.WriteString("FIRMWARE UPDATE", Font_6x8, true);
 7606              		.loc 2 313 24 is_stmt 0 view .LVU1995
 7607 0010 0120     		movs	r0, #1
 7608 0012 284B     		ldr	r3, .L501+4
 7609              	.LBB1694:
 7610              	.LBB1695:
 7611              	.LBB1696:
 7612              	.LBB1697:
 7613              	.LBB1698:
 124:../../libDaisy//src/dev/oled_ssd130x.h ****         spi_.BlockingTransmit(&cmd, 1);
 7614              		.loc 4 124 24 view .LVU1996
 7615 0014 05F58B67 		add	r7, r5, #1112
 7616              	.LBE1698:
 7617              	.LBE1697:
 7618              	.LBE1696:
 7619              	.LBE1695:
 7620              	.LBE1694:
 7621              	.LBB1722:
 7622              	.LBB1692:
 173:../../libDaisy//src/hid/disp/display.h ****         currentY_ = (y >= Height()) ? Height() - 1 : y;
 7623              		.loc 3 173 19 view .LVU1997
 7624 0018 C5F85444 		str	r4, [r5, #1108]
 7625              	.LVL553:
 173:../../libDaisy//src/hid/disp/display.h ****         currentY_ = (y >= Height()) ? Height() - 1 : y;
 7626              		.loc 3 173 19 view .LVU1998
 7627              	.LBE1692:
 7628              	.LBE1722:
 313:Dubby.cpp     ****     display.WriteString("FIRMWARE UPDATE", Font_6x8, true);
 7629              		.loc 2 313 5 is_stmt 1 view .LVU1999
 7630              	.LBB1723:
 7631              	.LBB1720:
 7632              	.LBB1718:
 7633              	.LBB1704:
 7634              	.LBB1699:
 124:../../libDaisy//src/dev/oled_ssd130x.h ****         spi_.BlockingTransmit(&cmd, 1);
 7635              		.loc 4 124 24 is_stmt 0 view .LVU2000
 7636 001c 05F58C66 		add	r6, r5, #1120
 125:../../libDaisy//src/dev/oled_ssd130x.h ****     };
 7637              		.loc 4 125 30 view .LVU2001
 7638 0020 B024     		movs	r4, #176
 7639              	.LBE1699:
 7640              	.LBE1704:
 7641              	.LBE1718:
 7642              	.LBE1720:
 7643              	.LBE1723:
 313:Dubby.cpp     ****     display.WriteString("FIRMWARE UPDATE", Font_6x8, true);
 7644              		.loc 2 313 24 view .LVU2002
 7645 0022 2549     		ldr	r1, .L501+8
 7646 0024 0CCB     		ldm	r3, {r2, r3}
 7647 0026 0090     		str	r0, [sp]
 7648 0028 05F58A60 		add	r0, r5, #1104
 7649 002c 05F26445 		addw	r5, r5, #1124
 7650              	.LVL554:
 313:Dubby.cpp     ****     display.WriteString("FIRMWARE UPDATE", Font_6x8, true);
 7651              		.loc 2 313 24 view .LVU2003
 7652 0030 FFF7FEFF 		bl	_ZN5daisy25OneBitGraphicsDisplayImplINS_11OledDisplayINS_13SSD130xDriverILj128ELj64ENS_24SSD130
ARM GAS  /var/folders/1y/_321xjh9623c014x9_qw12rr0000gn/T//ccqHcGuP.s 			page 201


 7653              	.LVL555:
 315:Dubby.cpp     ****     display.Update();
 7654              		.loc 2 315 5 is_stmt 1 view .LVU2004
 7655              	.LBB1724:
 7656              	.LBI1694:
 7657              		.loc 1 51 10 view .LVU2005
 7658              	.LBB1721:
 7659              	.LBI1695:
 373:../../libDaisy//src/dev/oled_ssd130x.h ****     {
 7660              		.loc 4 373 10 view .LVU2006
 7661              	.LBB1719:
 7662              		.loc 4 383 22 view .LVU2007
 7663              	.L498:
 7664              		.loc 4 383 22 is_stmt 0 view .LVU2008
 7665 0034 4FF00008 		mov	r8, #0
 7666              	.LBB1705:
 7667              	.LBB1700:
 124:../../libDaisy//src/dev/oled_ssd130x.h ****         spi_.BlockingTransmit(&cmd, 1);
 7668              		.loc 4 124 23 view .LVU2009
 7669 0038 3046     		mov	r0, r6
 7670 003a 8DF80F40 		strb	r4, [sp, #15]
 7671              	.LVL556:
 124:../../libDaisy//src/dev/oled_ssd130x.h ****         spi_.BlockingTransmit(&cmd, 1);
 7672              		.loc 4 124 23 view .LVU2010
 7673              	.LBE1700:
 7674              	.LBI1697:
 122:../../libDaisy//src/dev/oled_ssd130x.h ****     {
 7675              		.loc 4 122 10 is_stmt 1 view .LVU2011
 7676              	.LBB1701:
 124:../../libDaisy//src/dev/oled_ssd130x.h ****         spi_.BlockingTransmit(&cmd, 1);
 7677              		.loc 4 124 9 view .LVU2012
 7678              	.LBE1701:
 7679              	.LBE1705:
 7680              		.loc 4 383 22 is_stmt 0 view .LVU2013
 7681 003e 0134     		adds	r4, r4, #1
 7682              	.LVL557:
 7683              	.LBB1706:
 7684              	.LBB1702:
 124:../../libDaisy//src/dev/oled_ssd130x.h ****         spi_.BlockingTransmit(&cmd, 1);
 7685              		.loc 4 124 23 view .LVU2014
 7686 0040 4146     		mov	r1, r8
 7687 0042 FFF7FEFF 		bl	dsy_gpio_write
 7688              	.LVL558:
 125:../../libDaisy//src/dev/oled_ssd130x.h ****     };
 7689              		.loc 4 125 9 is_stmt 1 view .LVU2015
 125:../../libDaisy//src/dev/oled_ssd130x.h ****     };
 7690              		.loc 4 125 30 is_stmt 0 view .LVU2016
 7691 0046 6423     		movs	r3, #100
 7692 0048 0122     		movs	r2, #1
 7693 004a 0DF10F01 		add	r1, sp, #15
 7694 004e 3846     		mov	r0, r7
 7695              	.LBE1702:
 7696              	.LBE1706:
 7697              		.loc 4 383 22 view .LVU2017
 7698 0050 E4B2     		uxtb	r4, r4
 7699              	.LBB1707:
 7700              	.LBB1703:
ARM GAS  /var/folders/1y/_321xjh9623c014x9_qw12rr0000gn/T//ccqHcGuP.s 			page 202


 125:../../libDaisy//src/dev/oled_ssd130x.h ****     };
 7701              		.loc 4 125 30 view .LVU2018
 7702 0052 FFF7FEFF 		bl	_ZN5daisy9SpiHandle16BlockingTransmitEPhjm
 7703              	.LVL559:
 125:../../libDaisy//src/dev/oled_ssd130x.h ****     };
 7704              		.loc 4 125 30 view .LVU2019
 7705              	.LBE1703:
 7706              	.LBE1707:
 7707              	.LBB1708:
 7708              	.LBB1709:
 124:../../libDaisy//src/dev/oled_ssd130x.h ****         spi_.BlockingTransmit(&cmd, 1);
 7709              		.loc 4 124 23 view .LVU2020
 7710 0056 4146     		mov	r1, r8
 7711 0058 3046     		mov	r0, r6
 7712 005a 8DF80F80 		strb	r8, [sp, #15]
 7713              	.LVL560:
 124:../../libDaisy//src/dev/oled_ssd130x.h ****         spi_.BlockingTransmit(&cmd, 1);
 7714              		.loc 4 124 23 view .LVU2021
 7715              	.LBE1709:
 7716              	.LBI1708:
 122:../../libDaisy//src/dev/oled_ssd130x.h ****     {
 7717              		.loc 4 122 10 is_stmt 1 view .LVU2022
 7718              	.LBB1710:
 124:../../libDaisy//src/dev/oled_ssd130x.h ****         spi_.BlockingTransmit(&cmd, 1);
 7719              		.loc 4 124 9 view .LVU2023
 124:../../libDaisy//src/dev/oled_ssd130x.h ****         spi_.BlockingTransmit(&cmd, 1);
 7720              		.loc 4 124 23 is_stmt 0 view .LVU2024
 7721 005e FFF7FEFF 		bl	dsy_gpio_write
 7722              	.LVL561:
 125:../../libDaisy//src/dev/oled_ssd130x.h ****     };
 7723              		.loc 4 125 9 is_stmt 1 view .LVU2025
 125:../../libDaisy//src/dev/oled_ssd130x.h ****     };
 7724              		.loc 4 125 30 is_stmt 0 view .LVU2026
 7725 0062 0122     		movs	r2, #1
 7726 0064 6423     		movs	r3, #100
 7727 0066 0DF10F01 		add	r1, sp, #15
 7728 006a 3846     		mov	r0, r7
 7729 006c FFF7FEFF 		bl	_ZN5daisy9SpiHandle16BlockingTransmitEPhjm
 7730              	.LVL562:
 125:../../libDaisy//src/dev/oled_ssd130x.h ****     };
 7731              		.loc 4 125 30 view .LVU2027
 7732 0070 1023     		movs	r3, #16
 7733              	.LBE1710:
 7734              	.LBE1708:
 7735              	.LBB1711:
 7736              	.LBB1712:
 124:../../libDaisy//src/dev/oled_ssd130x.h ****         spi_.BlockingTransmit(&cmd, 1);
 7737              		.loc 4 124 23 view .LVU2028
 7738 0072 4146     		mov	r1, r8
 7739 0074 3046     		mov	r0, r6
 7740 0076 8DF80F30 		strb	r3, [sp, #15]
 7741              	.LVL563:
 124:../../libDaisy//src/dev/oled_ssd130x.h ****         spi_.BlockingTransmit(&cmd, 1);
 7742              		.loc 4 124 23 view .LVU2029
 7743              	.LBE1712:
 7744              	.LBI1711:
 122:../../libDaisy//src/dev/oled_ssd130x.h ****     {
ARM GAS  /var/folders/1y/_321xjh9623c014x9_qw12rr0000gn/T//ccqHcGuP.s 			page 203


 7745              		.loc 4 122 10 is_stmt 1 view .LVU2030
 7746              	.LBB1713:
 124:../../libDaisy//src/dev/oled_ssd130x.h ****         spi_.BlockingTransmit(&cmd, 1);
 7747              		.loc 4 124 9 view .LVU2031
 124:../../libDaisy//src/dev/oled_ssd130x.h ****         spi_.BlockingTransmit(&cmd, 1);
 7748              		.loc 4 124 23 is_stmt 0 view .LVU2032
 7749 007a FFF7FEFF 		bl	dsy_gpio_write
 7750              	.LVL564:
 125:../../libDaisy//src/dev/oled_ssd130x.h ****     };
 7751              		.loc 4 125 9 is_stmt 1 view .LVU2033
 125:../../libDaisy//src/dev/oled_ssd130x.h ****     };
 7752              		.loc 4 125 30 is_stmt 0 view .LVU2034
 7753 007e 6423     		movs	r3, #100
 7754 0080 0122     		movs	r2, #1
 7755 0082 0DF10F01 		add	r1, sp, #15
 7756 0086 3846     		mov	r0, r7
 7757 0088 FFF7FEFF 		bl	_ZN5daisy9SpiHandle16BlockingTransmitEPhjm
 7758              	.LVL565:
 125:../../libDaisy//src/dev/oled_ssd130x.h ****     };
 7759              		.loc 4 125 30 view .LVU2035
 7760              	.LBE1713:
 7761              	.LBE1711:
 7762              	.LBB1714:
 7763              	.LBI1714:
 128:../../libDaisy//src/dev/oled_ssd130x.h ****     {
 7764              		.loc 4 128 10 is_stmt 1 view .LVU2036
 7765              	.LBB1715:
 130:../../libDaisy//src/dev/oled_ssd130x.h ****         spi_.BlockingTransmit(buff, size);
 7766              		.loc 4 130 9 view .LVU2037
 130:../../libDaisy//src/dev/oled_ssd130x.h ****         spi_.BlockingTransmit(buff, size);
 7767              		.loc 4 130 23 is_stmt 0 view .LVU2038
 7768 008c 0121     		movs	r1, #1
 7769 008e 3046     		mov	r0, r6
 7770 0090 FFF7FEFF 		bl	dsy_gpio_write
 7771              	.LVL566:
 131:../../libDaisy//src/dev/oled_ssd130x.h ****     };
 7772              		.loc 4 131 9 is_stmt 1 view .LVU2039
 131:../../libDaisy//src/dev/oled_ssd130x.h ****     };
 7773              		.loc 4 131 30 is_stmt 0 view .LVU2040
 7774 0094 8022     		movs	r2, #128
 7775 0096 2946     		mov	r1, r5
 7776 0098 6423     		movs	r3, #100
 7777 009a 3846     		mov	r0, r7
 7778              	.LBE1715:
 7779              	.LBE1714:
 7780              		.loc 4 383 22 view .LVU2041
 7781 009c 1544     		add	r5, r5, r2
 7782              	.LVL567:
 7783              	.LBB1717:
 7784              	.LBB1716:
 131:../../libDaisy//src/dev/oled_ssd130x.h ****     };
 7785              		.loc 4 131 30 view .LVU2042
 7786 009e FFF7FEFF 		bl	_ZN5daisy9SpiHandle16BlockingTransmitEPhjm
 7787              	.LVL568:
 131:../../libDaisy//src/dev/oled_ssd130x.h ****     };
 7788              		.loc 4 131 30 view .LVU2043
 7789              	.LBE1716:
ARM GAS  /var/folders/1y/_321xjh9623c014x9_qw12rr0000gn/T//ccqHcGuP.s 			page 204


 7790              	.LBE1717:
 7791              		.loc 4 383 9 is_stmt 1 view .LVU2044
 7792              		.loc 4 383 22 view .LVU2045
 7793 00a2 B82C     		cmp	r4, #184
 7794 00a4 C6D1     		bne	.L498
 7795              	.LVL569:
 7796              		.loc 4 383 22 is_stmt 0 view .LVU2046
 7797              	.LBE1719:
 7798              	.LBE1721:
 7799              	.LBE1724:
 317:Dubby.cpp     ****     System::ResetToBootloader();
 7800              		.loc 2 317 5 is_stmt 1 view .LVU2047
 318:Dubby.cpp     **** }
 7801              		.loc 2 318 1 is_stmt 0 view .LVU2048
 7802 00a6 04B0     		add	sp, sp, #16
 7803              		.cfi_def_cfa_offset 24
 7804              		@ sp needed
 7805 00a8 BDE8F041 		pop	{r4, r5, r6, r7, r8, lr}
 7806              		.cfi_restore 14
 7807              		.cfi_restore 8
 7808              		.cfi_restore 7
 7809              		.cfi_restore 6
 7810              		.cfi_restore 5
 7811              		.cfi_restore 4
 7812              		.cfi_def_cfa_offset 0
 7813              	.LVL570:
 317:Dubby.cpp     ****     System::ResetToBootloader();
 7814              		.loc 2 317 30 view .LVU2049
 7815 00ac FFF7FEBF 		b	_ZN5daisy6System17ResetToBootloaderEv
 7816              	.LVL571:
 7817              	.L502:
 7818              		.align	2
 7819              	.L501:
 7820 00b0 14003700 		.word	3604500
 7821 00b4 00000000 		.word	Font_6x8
 7822 00b8 00000000 		.word	.LC15
 7823              		.cfi_endproc
 7824              	.LFE2590:
 7826              		.section	.text._ZN5daisy5Dubby13UpdateDisplayEv,"ax",%progbits
 7827              		.align	1
 7828              		.p2align 2,,3
 7829              		.global	_ZN5daisy5Dubby13UpdateDisplayEv
 7830              		.syntax unified
 7831              		.thumb
 7832              		.thumb_func
 7834              	_ZN5daisy5Dubby13UpdateDisplayEv:
 7835              	.LVL572:
 7836              	.LFB2578:
 102:Dubby.cpp     **** {
 7837              		.loc 2 102 1 is_stmt 1 view -0
 7838              		.cfi_startproc
 7839              		@ args = 0, pretend = 0, frame = 0
 7840              		@ frame_needed = 0, uses_anonymous_args = 0
 103:Dubby.cpp     ****     if (encoder.TimeHeldMs() > 300) 
 7841              		.loc 2 103 5 view .LVU2051
 102:Dubby.cpp     **** {
 7842              		.loc 2 102 1 is_stmt 0 view .LVU2052
ARM GAS  /var/folders/1y/_321xjh9623c014x9_qw12rr0000gn/T//ccqHcGuP.s 			page 205


 7843 0000 38B5     		push	{r3, r4, r5, lr}
 7844              		.cfi_def_cfa_offset 16
 7845              		.cfi_offset 3, -16
 7846              		.cfi_offset 4, -12
 7847              		.cfi_offset 5, -8
 7848              		.cfi_offset 14, -4
 7849              	.LBB1766:
 7850              	.LBB1767:
 7851              	.LBB1768:
 7852              		.file 12 "../../libDaisy//src/hid/switch.h"
   1:../../libDaisy//src/hid/switch.h **** #pragma once
   2:../../libDaisy//src/hid/switch.h **** #ifndef DSY_SWITCH_H
   3:../../libDaisy//src/hid/switch.h **** #define DSY_SWITCH_H
   4:../../libDaisy//src/hid/switch.h **** #include "daisy_core.h"
   5:../../libDaisy//src/hid/switch.h **** #include "per/gpio.h"
   6:../../libDaisy//src/hid/switch.h **** #include "sys/system.h"
   7:../../libDaisy//src/hid/switch.h **** 
   8:../../libDaisy//src/hid/switch.h **** namespace daisy
   9:../../libDaisy//src/hid/switch.h **** {
  10:../../libDaisy//src/hid/switch.h **** /** 
  11:../../libDaisy//src/hid/switch.h ****     Generic Class for handling momentary/latching switches \n 
  12:../../libDaisy//src/hid/switch.h ****     Inspired/influenced by Mutable Instruments (pichenettes) Switch classes
  13:../../libDaisy//src/hid/switch.h ****     @author Stephen Hensley
  14:../../libDaisy//src/hid/switch.h ****     @date December 2019
  15:../../libDaisy//src/hid/switch.h ****     @ingroup controls
  16:../../libDaisy//src/hid/switch.h **** */
  17:../../libDaisy//src/hid/switch.h **** class Switch
  18:../../libDaisy//src/hid/switch.h **** {
  19:../../libDaisy//src/hid/switch.h ****   public:
  20:../../libDaisy//src/hid/switch.h ****     /** Specifies the expected behavior of the switch */
  21:../../libDaisy//src/hid/switch.h ****     enum Type
  22:../../libDaisy//src/hid/switch.h ****     {
  23:../../libDaisy//src/hid/switch.h ****         TYPE_TOGGLE,    /**< & */
  24:../../libDaisy//src/hid/switch.h ****         TYPE_MOMENTARY, /**< & */
  25:../../libDaisy//src/hid/switch.h ****     };
  26:../../libDaisy//src/hid/switch.h ****     /** Specifies whether the pressed is HIGH or LOW. */
  27:../../libDaisy//src/hid/switch.h ****     enum Polarity
  28:../../libDaisy//src/hid/switch.h ****     {
  29:../../libDaisy//src/hid/switch.h ****         POLARITY_NORMAL,   /**< & */
  30:../../libDaisy//src/hid/switch.h ****         POLARITY_INVERTED, /**< & */
  31:../../libDaisy//src/hid/switch.h ****     };
  32:../../libDaisy//src/hid/switch.h **** 
  33:../../libDaisy//src/hid/switch.h ****     /** Specifies whether to use built-in Pull Up/Down resistors to hold button at a given state wh
  34:../../libDaisy//src/hid/switch.h ****     enum Pull
  35:../../libDaisy//src/hid/switch.h ****     {
  36:../../libDaisy//src/hid/switch.h ****         PULL_UP,   /**< & */
  37:../../libDaisy//src/hid/switch.h ****         PULL_DOWN, /**< & */
  38:../../libDaisy//src/hid/switch.h ****         PULL_NONE, /**< & */
  39:../../libDaisy//src/hid/switch.h ****     };
  40:../../libDaisy//src/hid/switch.h **** 
  41:../../libDaisy//src/hid/switch.h ****     Switch() {}
  42:../../libDaisy//src/hid/switch.h ****     ~Switch() {}
  43:../../libDaisy//src/hid/switch.h **** 
  44:../../libDaisy//src/hid/switch.h ****     /** 
  45:../../libDaisy//src/hid/switch.h ****     Initializes the switch object with a given port/pin combo.
  46:../../libDaisy//src/hid/switch.h ****     \param pin port/pin object to tell the switch which hardware pin to use.
  47:../../libDaisy//src/hid/switch.h ****     \param update_rate Does nothing. Backwards compatibility until next breaking update.
ARM GAS  /var/folders/1y/_321xjh9623c014x9_qw12rr0000gn/T//ccqHcGuP.s 			page 206


  48:../../libDaisy//src/hid/switch.h ****     \param t switch type -- Default: TYPE_MOMENTARY
  49:../../libDaisy//src/hid/switch.h ****     \param pol switch polarity -- Default: POLARITY_INVERTED
  50:../../libDaisy//src/hid/switch.h ****     \param pu switch pull up/down -- Default: PULL_UP
  51:../../libDaisy//src/hid/switch.h ****     */
  52:../../libDaisy//src/hid/switch.h ****     void
  53:../../libDaisy//src/hid/switch.h ****     Init(dsy_gpio_pin pin, float update_rate, Type t, Polarity pol, Pull pu);
  54:../../libDaisy//src/hid/switch.h **** 
  55:../../libDaisy//src/hid/switch.h ****     /**
  56:../../libDaisy//src/hid/switch.h ****        Simplified Init.
  57:../../libDaisy//src/hid/switch.h ****        \param pin port/pin object to tell the switch which hardware pin to use.
  58:../../libDaisy//src/hid/switch.h ****        \param update_rate Left for backwards compatibility until next breaking change.
  59:../../libDaisy//src/hid/switch.h ****     */
  60:../../libDaisy//src/hid/switch.h ****     void Init(dsy_gpio_pin pin, float update_rate = 0.f);
  61:../../libDaisy//src/hid/switch.h **** 
  62:../../libDaisy//src/hid/switch.h ****     /** 
  63:../../libDaisy//src/hid/switch.h ****     Called at update_rate to debounce and handle timing for the switch.
  64:../../libDaisy//src/hid/switch.h ****     In order for events not to be missed, its important that the Edge/Pressed checks
  65:../../libDaisy//src/hid/switch.h ****     be made at the same rate as the debounce function is being called.
  66:../../libDaisy//src/hid/switch.h ****     */
  67:../../libDaisy//src/hid/switch.h ****     void Debounce();
  68:../../libDaisy//src/hid/switch.h **** 
  69:../../libDaisy//src/hid/switch.h ****     /** \return true if a button was just pressed. */
  70:../../libDaisy//src/hid/switch.h ****     inline bool RisingEdge() const { return updated_ ? state_ == 0x7f : false; }
  71:../../libDaisy//src/hid/switch.h **** 
  72:../../libDaisy//src/hid/switch.h ****     /** \return true if the button was just released */
  73:../../libDaisy//src/hid/switch.h ****     inline bool FallingEdge() const
  74:../../libDaisy//src/hid/switch.h ****     {
  75:../../libDaisy//src/hid/switch.h ****         return updated_ ? state_ == 0x80 : false;
  76:../../libDaisy//src/hid/switch.h ****     }
  77:../../libDaisy//src/hid/switch.h **** 
  78:../../libDaisy//src/hid/switch.h ****     /** \return true if the button is held down (or if the toggle is on) */
  79:../../libDaisy//src/hid/switch.h ****     inline bool Pressed() const { return state_ == 0xff; }
  80:../../libDaisy//src/hid/switch.h **** 
  81:../../libDaisy//src/hid/switch.h ****     /** \return true if the button is held down, without debouncing */
  82:../../libDaisy//src/hid/switch.h ****     inline bool RawState()
  83:../../libDaisy//src/hid/switch.h ****     {
  84:../../libDaisy//src/hid/switch.h ****         return flip_ ? !dsy_gpio_read(&hw_gpio_) : dsy_gpio_read(&hw_gpio_);
  85:../../libDaisy//src/hid/switch.h ****     }
  86:../../libDaisy//src/hid/switch.h **** 
  87:../../libDaisy//src/hid/switch.h ****     /** \return the time in milliseconds that the button has been held (or toggle has been on) */
  88:../../libDaisy//src/hid/switch.h ****     inline float TimeHeldMs() const
  89:../../libDaisy//src/hid/switch.h ****     {
  90:../../libDaisy//src/hid/switch.h ****         return Pressed() ? System::GetNow() - rising_edge_time_ : 0;
 7853              		.loc 12 90 26 view .LVU2053
 7854 0002 90F80631 		ldrb	r3, [r0, #262]	@ zero_extendqisi2
 7855              	.LBE1768:
 7856              	.LBE1767:
 7857              	.LBE1766:
 102:Dubby.cpp     **** {
 7858              		.loc 2 102 1 view .LVU2054
 7859 0006 0446     		mov	r4, r0
 7860              	.LVL573:
 7861              	.LBB1781:
 7862              	.LBI1766:
 7863              		.file 13 "../../libDaisy//src/hid/encoder.h"
   1:../../libDaisy//src/hid/encoder.h **** #pragma once
   2:../../libDaisy//src/hid/encoder.h **** #ifndef DSY_ENCODER_H
ARM GAS  /var/folders/1y/_321xjh9623c014x9_qw12rr0000gn/T//ccqHcGuP.s 			page 207


   3:../../libDaisy//src/hid/encoder.h **** #define DSY_ENCODER_H
   4:../../libDaisy//src/hid/encoder.h **** #include "daisy_core.h"
   5:../../libDaisy//src/hid/encoder.h **** #include "per/gpio.h"
   6:../../libDaisy//src/hid/encoder.h **** #include "hid/switch.h"
   7:../../libDaisy//src/hid/encoder.h **** 
   8:../../libDaisy//src/hid/encoder.h **** namespace daisy
   9:../../libDaisy//src/hid/encoder.h **** {
  10:../../libDaisy//src/hid/encoder.h **** /** 
  11:../../libDaisy//src/hid/encoder.h ****     @brief Generic Class for handling Quadrature Encoders \n 
  12:../../libDaisy//src/hid/encoder.h ****     Inspired/influenced by Mutable Instruments (pichenettes) Encoder classes
  13:../../libDaisy//src/hid/encoder.h ****     @author Stephen Hensley
  14:../../libDaisy//src/hid/encoder.h ****     @date December 2019
  15:../../libDaisy//src/hid/encoder.h ****     @ingroup controls
  16:../../libDaisy//src/hid/encoder.h **** */
  17:../../libDaisy//src/hid/encoder.h **** class Encoder
  18:../../libDaisy//src/hid/encoder.h **** {
  19:../../libDaisy//src/hid/encoder.h ****   public:
  20:../../libDaisy//src/hid/encoder.h ****     Encoder() {}
  21:../../libDaisy//src/hid/encoder.h ****     ~Encoder() {}
  22:../../libDaisy//src/hid/encoder.h **** 
  23:../../libDaisy//src/hid/encoder.h ****     /** Initializes the encoder with the specified hardware pins.
  24:../../libDaisy//src/hid/encoder.h ****      * Update rate is to be deprecated in a future release
  25:../../libDaisy//src/hid/encoder.h ****      */
  26:../../libDaisy//src/hid/encoder.h ****     void Init(dsy_gpio_pin a,
  27:../../libDaisy//src/hid/encoder.h ****               dsy_gpio_pin b,
  28:../../libDaisy//src/hid/encoder.h ****               dsy_gpio_pin click,
  29:../../libDaisy//src/hid/encoder.h ****               float        update_rate = 0.f);
  30:../../libDaisy//src/hid/encoder.h ****     /** Called at update_rate to debounce and handle timing for the switch.
  31:../../libDaisy//src/hid/encoder.h ****      * In order for events not to be missed, its important that the Edge/Pressed checks be made at 
  32:../../libDaisy//src/hid/encoder.h ****      */
  33:../../libDaisy//src/hid/encoder.h ****     void Debounce();
  34:../../libDaisy//src/hid/encoder.h **** 
  35:../../libDaisy//src/hid/encoder.h ****     /** Returns +1 if the encoder was turned clockwise, -1 if it was turned counter-clockwise, or 0
  36:../../libDaisy//src/hid/encoder.h ****     inline int32_t Increment() const { return updated_ ? inc_ : 0; }
  37:../../libDaisy//src/hid/encoder.h **** 
  38:../../libDaisy//src/hid/encoder.h ****     /** Returns true if the encoder was just pressed. */
  39:../../libDaisy//src/hid/encoder.h ****     inline bool RisingEdge() const { return sw_.RisingEdge(); }
  40:../../libDaisy//src/hid/encoder.h **** 
  41:../../libDaisy//src/hid/encoder.h ****     /** Returns true if the encoder was just released. */
  42:../../libDaisy//src/hid/encoder.h ****     inline bool FallingEdge() const { return sw_.FallingEdge(); }
  43:../../libDaisy//src/hid/encoder.h **** 
  44:../../libDaisy//src/hid/encoder.h ****     /** Returns true while the encoder is held down.*/
  45:../../libDaisy//src/hid/encoder.h ****     inline bool Pressed() const { return sw_.Pressed(); }
  46:../../libDaisy//src/hid/encoder.h **** 
  47:../../libDaisy//src/hid/encoder.h ****     /** Returns the time in milliseconds that the encoder has been held down. */
  48:../../libDaisy//src/hid/encoder.h ****     inline float TimeHeldMs() const { return sw_.TimeHeldMs(); }
 7864              		.loc 13 48 18 is_stmt 1 view .LVU2055
 7865              	.LBE1781:
 7866              		.loc 13 48 39 view .LVU2056
 7867              	.LBB1782:
 7868              	.LBB1778:
 7869              	.LBI1767:
  88:../../libDaisy//src/hid/switch.h ****     {
 7870              		.loc 12 88 18 view .LVU2057
 7871              	.LBB1775:
 7872              		.loc 12 90 9 view .LVU2058
 7873              	.LBB1769:
ARM GAS  /var/folders/1y/_321xjh9623c014x9_qw12rr0000gn/T//ccqHcGuP.s 			page 208


 7874              	.LBI1769:
  79:../../libDaisy//src/hid/switch.h **** 
 7875              		.loc 12 79 17 view .LVU2059
 7876              	.LBB1770:
  79:../../libDaisy//src/hid/switch.h **** 
 7877              		.loc 12 79 35 view .LVU2060
  79:../../libDaisy//src/hid/switch.h **** 
 7878              		.loc 12 79 35 is_stmt 0 view .LVU2061
 7879              	.LBE1770:
 7880              	.LBE1769:
 7881              		.loc 12 90 26 view .LVU2062
 7882 0008 FF2B     		cmp	r3, #255
 7883 000a 0CD0     		beq	.L574
 7884              	.LVL574:
 7885              		.loc 12 90 26 view .LVU2063
 7886              	.LBE1775:
 7887              	.LBE1778:
 7888              	.LBE1782:
 114:Dubby.cpp     ****     switch(menuItemSelected) 
 7889              		.loc 2 114 5 is_stmt 1 view .LVU2064
 114:Dubby.cpp     ****     switch(menuItemSelected) 
 7890              		.loc 2 114 12 is_stmt 0 view .LVU2065
 7891 000c 90F85830 		ldrb	r3, [r0, #88]	@ zero_extendqisi2
 114:Dubby.cpp     ****     switch(menuItemSelected) 
 7892              		.loc 2 114 5 view .LVU2066
 7893 0010 012B     		cmp	r3, #1
 7894 0012 59D0     		beq	.L509
 7895 0014 022B     		cmp	r3, #2
 7896 0016 00F09580 		beq	.L515
 7897 001a 002B     		cmp	r3, #0
 7898 001c 47D0     		beq	.L528
 7899              	.LVL575:
 7900              	.L522:
 130:Dubby.cpp     ****     if (encoder.TimeHeldMs() < 300 && menuActive)
 7901              		.loc 2 130 36 discriminator 1 view .LVU2067
 7902 001e 94F86838 		ldrb	r3, [r4, #2152]	@ zero_extendqisi2
 7903 0022 CBBB     		cbnz	r3, .L526
 137:Dubby.cpp     **** }
 7904              		.loc 2 137 1 view .LVU2068
 7905 0024 38BD     		pop	{r3, r4, r5, pc}
 7906              	.LVL576:
 7907              	.L574:
 7908              	.LBB1783:
 7909              	.LBB1779:
 7910              	.LBB1776:
 7911              	.LBB1771:
 7912              	.LBI1771:
  88:../../libDaisy//src/hid/switch.h ****     {
 7913              		.loc 12 88 18 is_stmt 1 view .LVU2069
 7914              	.LBB1772:
 7915              		.loc 12 90 42 is_stmt 0 view .LVU2070
 7916 0026 FFF7FEFF 		bl	_ZN5daisy6System6GetNowEv
 7917              	.LVL577:
 7918              		.loc 12 90 45 view .LVU2071
 7919 002a 07EE900A 		vmov	s15, r0	@ int
 7920              		.loc 12 90 26 view .LVU2072
 7921 002e D4ED426A 		vldr.32	s13, [r4, #264]
ARM GAS  /var/folders/1y/_321xjh9623c014x9_qw12rr0000gn/T//ccqHcGuP.s 			page 209


 7922              		.loc 12 90 45 view .LVU2073
 7923 0032 F8EE677A 		vcvt.f32.u32	s15, s15
 7924              	.LBE1772:
 7925              	.LBE1771:
 7926              	.LBE1776:
 7927              	.LBE1779:
 7928              	.LBE1783:
 103:Dubby.cpp     ****     if (encoder.TimeHeldMs() > 300) 
 7929              		.loc 2 103 5 view .LVU2074
 7930 0036 9FED547A 		vldr.32	s14, .L581
 7931              	.LBB1784:
 7932              	.LBB1780:
 7933              	.LBB1777:
 7934              	.LBB1774:
 7935              	.LBB1773:
 7936              		.loc 12 90 26 view .LVU2075
 7937 003a 77EEE67A 		vsub.f32	s15, s15, s13
 7938              	.LBE1773:
 7939              	.LBE1774:
 7940              	.LBE1777:
 7941              	.LBE1780:
 7942              	.LBE1784:
 103:Dubby.cpp     ****     if (encoder.TimeHeldMs() > 300) 
 7943              		.loc 2 103 5 view .LVU2076
 7944 003e F4EEC77A 		vcmpe.f32	s15, s14
 7945 0042 F1EE10FA 		vmrs	APSR_nzcv, FPSCR
 7946 0046 0ADD     		ble	.L506
 105:Dubby.cpp     ****         if (!menuActive) 
 7947              		.loc 2 105 9 is_stmt 1 view .LVU2077
 7948 0048 94F86838 		ldrb	r3, [r4, #2152]	@ zero_extendqisi2
 7949 004c 002B     		cmp	r3, #0
 7950 004e 51D0     		beq	.L575
 111:Dubby.cpp     ****         if (encoder.Increment()) UpdateMenu(encoder.Increment(), true);
 7951              		.loc 2 111 9 view .LVU2078
 7952              	.LVL578:
 7953              	.LBB1785:
 7954              	.LBI1785:
  36:../../libDaisy//src/hid/encoder.h **** 
 7955              		.loc 13 36 20 view .LVU2079
 7956              	.LBB1786:
  36:../../libDaisy//src/hid/encoder.h **** 
 7957              		.loc 13 36 40 view .LVU2080
  36:../../libDaisy//src/hid/encoder.h **** 
 7958              		.loc 13 36 56 is_stmt 0 view .LVU2081
 7959 0050 94F8F830 		ldrb	r3, [r4, #248]	@ zero_extendqisi2
 7960 0054 1BB1     		cbz	r3, .L506
 7961              	.LVL579:
 7962              	.L577:
  36:../../libDaisy//src/hid/encoder.h **** 
 7963              		.loc 13 36 56 view .LVU2082
 7964 0056 D4F81811 		ldr	r1, [r4, #280]
  36:../../libDaisy//src/hid/encoder.h **** 
 7965              		.loc 13 36 56 view .LVU2083
 7966              	.LBE1786:
 7967              	.LBE1785:
 111:Dubby.cpp     ****         if (encoder.Increment()) UpdateMenu(encoder.Increment(), true);
 7968              		.loc 2 111 9 view .LVU2084
ARM GAS  /var/folders/1y/_321xjh9623c014x9_qw12rr0000gn/T//ccqHcGuP.s 			page 210


 7969 005a 0029     		cmp	r1, #0
 7970 005c 55D1     		bne	.L576
 7971              	.L506:
 114:Dubby.cpp     ****     switch(menuItemSelected) 
 7972              		.loc 2 114 5 is_stmt 1 view .LVU2085
 114:Dubby.cpp     ****     switch(menuItemSelected) 
 7973              		.loc 2 114 12 is_stmt 0 view .LVU2086
 7974 005e 94F85830 		ldrb	r3, [r4, #88]	@ zero_extendqisi2
 114:Dubby.cpp     ****     switch(menuItemSelected) 
 7975              		.loc 2 114 5 view .LVU2087
 7976 0062 012B     		cmp	r3, #1
 7977 0064 30D0     		beq	.L509
 7978 0066 022B     		cmp	r3, #2
 7979 0068 54D0     		beq	.L510
 7980 006a 03B3     		cbz	r3, .L528
 7981              	.L511:
 130:Dubby.cpp     ****     if (encoder.TimeHeldMs() < 300 && menuActive)
 7982              		.loc 2 130 5 is_stmt 1 view .LVU2088
 7983              	.LVL580:
 7984              	.LBB1788:
 7985              	.LBI1788:
 7986              		.loc 13 48 18 view .LVU2089
 7987              	.LBE1788:
 7988              		.loc 13 48 39 view .LVU2090
 7989              	.LBB1807:
 7990              	.LBB1789:
 7991              	.LBI1789:
  88:../../libDaisy//src/hid/switch.h ****     {
 7992              		.loc 12 88 18 view .LVU2091
 7993              	.LBB1790:
 7994              		.loc 12 90 9 view .LVU2092
 7995              	.LBB1791:
 7996              	.LBI1791:
  79:../../libDaisy//src/hid/switch.h **** 
 7997              		.loc 12 79 17 view .LVU2093
 7998              	.LBB1792:
  79:../../libDaisy//src/hid/switch.h **** 
 7999              		.loc 12 79 35 view .LVU2094
  79:../../libDaisy//src/hid/switch.h **** 
 8000              		.loc 12 79 35 is_stmt 0 view .LVU2095
 8001              	.LBE1792:
 8002              	.LBE1791:
 8003              		.loc 12 90 26 view .LVU2096
 8004 006c 94F80631 		ldrb	r3, [r4, #262]	@ zero_extendqisi2
 8005 0070 FF2B     		cmp	r3, #255
 8006 0072 D4D1     		bne	.L522
 8007              	.LVL581:
 8008              	.L521:
 8009              	.LBB1795:
 8010              	.LBI1795:
  88:../../libDaisy//src/hid/switch.h ****     {
 8011              		.loc 12 88 18 is_stmt 1 view .LVU2097
 8012              	.LBB1796:
 8013              		.loc 12 90 42 is_stmt 0 view .LVU2098
 8014 0074 FFF7FEFF 		bl	_ZN5daisy6System6GetNowEv
 8015              	.LVL582:
 8016              		.loc 12 90 45 view .LVU2099
ARM GAS  /var/folders/1y/_321xjh9623c014x9_qw12rr0000gn/T//ccqHcGuP.s 			page 211


 8017 0078 07EE900A 		vmov	s15, r0	@ int
 8018              		.loc 12 90 26 view .LVU2100
 8019 007c D4ED426A 		vldr.32	s13, [r4, #264]
 8020              		.loc 12 90 45 view .LVU2101
 8021 0080 F8EE677A 		vcvt.f32.u32	s15, s15
 8022              	.LBE1796:
 8023              	.LBE1795:
 8024              	.LBE1790:
 8025              	.LBE1789:
 8026              	.LBE1807:
 130:Dubby.cpp     ****     if (encoder.TimeHeldMs() < 300 && menuActive)
 8027              		.loc 2 130 36 view .LVU2102
 8028 0084 9FED407A 		vldr.32	s14, .L581
 8029              	.LBB1808:
 8030              	.LBB1804:
 8031              	.LBB1801:
 8032              	.LBB1798:
 8033              	.LBB1797:
 8034              		.loc 12 90 26 view .LVU2103
 8035 0088 77EEE67A 		vsub.f32	s15, s15, s13
 8036              	.LBE1797:
 8037              	.LBE1798:
 8038              	.LBE1801:
 8039              	.LBE1804:
 8040              	.LBE1808:
 130:Dubby.cpp     ****     if (encoder.TimeHeldMs() < 300 && menuActive)
 8041              		.loc 2 130 36 view .LVU2104
 8042 008c F4EEC77A 		vcmpe.f32	s15, s14
 8043 0090 F1EE10FA 		vmrs	APSR_nzcv, FPSCR
 8044 0094 C3D4     		bmi	.L522
 137:Dubby.cpp     **** }
 8045              		.loc 2 137 1 view .LVU2105
 8046 0096 38BD     		pop	{r3, r4, r5, pc}
 8047              	.LVL583:
 8048              	.L526:
 132:Dubby.cpp     ****         menuActive = false;
 8049              		.loc 2 132 9 is_stmt 1 view .LVU2106
 132:Dubby.cpp     ****         menuActive = false;
 8050              		.loc 2 132 20 is_stmt 0 view .LVU2107
 8051 0098 0023     		movs	r3, #0
 134:Dubby.cpp     ****         ReleaseMenu();
 8052              		.loc 2 134 20 view .LVU2108
 8053 009a 2046     		mov	r0, r4
 132:Dubby.cpp     ****         menuActive = false;
 8054              		.loc 2 132 20 view .LVU2109
 8055 009c 84F86838 		strb	r3, [r4, #2152]
 134:Dubby.cpp     ****         ReleaseMenu();
 8056              		.loc 2 134 9 is_stmt 1 view .LVU2110
 134:Dubby.cpp     ****         ReleaseMenu();
 8057              		.loc 2 134 20 is_stmt 0 view .LVU2111
 8058 00a0 FFF7FEFF 		bl	_ZN5daisy5Dubby11ReleaseMenuEv
 8059              	.LVL584:
 135:Dubby.cpp     ****         UpdateSubmenu();
 8060              		.loc 2 135 9 is_stmt 1 view .LVU2112
 135:Dubby.cpp     ****         UpdateSubmenu();
 8061              		.loc 2 135 22 is_stmt 0 view .LVU2113
 8062 00a4 2046     		mov	r0, r4
ARM GAS  /var/folders/1y/_321xjh9623c014x9_qw12rr0000gn/T//ccqHcGuP.s 			page 212


 137:Dubby.cpp     **** }
 8063              		.loc 2 137 1 view .LVU2114
 8064 00a6 BDE83840 		pop	{r3, r4, r5, lr}
 8065              		.cfi_remember_state
 8066              		.cfi_restore 14
 8067              		.cfi_restore 5
 8068              		.cfi_restore 4
 8069              		.cfi_restore 3
 8070              		.cfi_def_cfa_offset 0
 8071              	.LVL585:
 135:Dubby.cpp     ****         UpdateSubmenu();
 8072              		.loc 2 135 22 view .LVU2115
 8073 00aa FFF7FEBF 		b	_ZN5daisy5Dubby13UpdateSubmenuEv
 8074              	.LVL586:
 8075              	.L528:
 8076              		.cfi_restore_state
 116:Dubby.cpp     ****         case MENU1:
 8077              		.loc 2 116 9 is_stmt 1 view .LVU2116
 117:Dubby.cpp     ****             RenderScope();
 8078              		.loc 2 117 13 view .LVU2117
 8079              	.LBB1809:
 8080              	.LBI1809:
 255:Dubby.cpp     **** void Dubby::RenderScope()
 8081              		.loc 2 255 6 view .LVU2118
 8082              	.LBB1810:
 257:Dubby.cpp     ****     if(seed.system.GetNow() - screen_update_last_ > screen_update_period_)
 8083              		.loc 2 257 5 view .LVU2119
 8084              	.LBB1811:
 257:Dubby.cpp     ****     if(seed.system.GetNow() - screen_update_last_ > screen_update_period_)
 8085              		.loc 2 257 26 is_stmt 0 view .LVU2120
 8086 00ae FFF7FEFF 		bl	_ZN5daisy6System6GetNowEv
 8087              	.LVL587:
 257:Dubby.cpp     ****     if(seed.system.GetNow() - screen_update_last_ > screen_update_period_)
 8088              		.loc 2 257 29 view .LVU2121
 8089 00b2 D4F86C28 		ldr	r2, [r4, #2156]
 257:Dubby.cpp     ****     if(seed.system.GetNow() - screen_update_last_ > screen_update_period_)
 8090              		.loc 2 257 5 view .LVU2122
 8091 00b6 D4F87038 		ldr	r3, [r4, #2160]
 257:Dubby.cpp     ****     if(seed.system.GetNow() - screen_update_last_ > screen_update_period_)
 8092              		.loc 2 257 29 view .LVU2123
 8093 00ba 801A     		subs	r0, r0, r2
 257:Dubby.cpp     ****     if(seed.system.GetNow() - screen_update_last_ > screen_update_period_)
 8094              		.loc 2 257 5 view .LVU2124
 8095 00bc 9842     		cmp	r0, r3
 8096 00be D5D9     		bls	.L511
 8097              	.LBE1811:
 8098 00c0 2046     		mov	r0, r4
 8099 00c2 FFF7FEFF 		bl	_ZN5daisy5Dubby11RenderScopeEv.part.0
 8100              	.LVL588:
 8101 00c6 D1E7     		b	.L511
 8102              	.LVL589:
 8103              	.L509:
 257:Dubby.cpp     ****     if(seed.system.GetNow() - screen_update_last_ > screen_update_period_)
 8104              		.loc 2 257 5 view .LVU2125
 8105              	.LBE1810:
 8106              	.LBE1809:
 119:Dubby.cpp     ****         case MENU2:
ARM GAS  /var/folders/1y/_321xjh9623c014x9_qw12rr0000gn/T//ccqHcGuP.s 			page 213


 8107              		.loc 2 119 9 is_stmt 1 view .LVU2126
 120:Dubby.cpp     ****             UpdateMixerPane();
 8108              		.loc 2 120 13 view .LVU2127
 8109              	.LBB1812:
 8110              	.LBI1812:
 217:Dubby.cpp     **** void Dubby::UpdateMixerPane() 
 8111              		.loc 2 217 6 view .LVU2128
 8112              	.LBE1812:
 219:Dubby.cpp     ****     if(seed.system.GetNow() - screen_update_last_ > screen_update_period_)
 8113              		.loc 2 219 5 view .LVU2129
 8114              	.LBB1818:
 8115              	.LBB1813:
 219:Dubby.cpp     ****     if(seed.system.GetNow() - screen_update_last_ > screen_update_period_)
 8116              		.loc 2 219 26 is_stmt 0 view .LVU2130
 8117 00c8 FFF7FEFF 		bl	_ZN5daisy6System6GetNowEv
 8118              	.LVL590:
 219:Dubby.cpp     ****     if(seed.system.GetNow() - screen_update_last_ > screen_update_period_)
 8119              		.loc 2 219 29 view .LVU2131
 8120 00cc D4F86C28 		ldr	r2, [r4, #2156]
 219:Dubby.cpp     ****     if(seed.system.GetNow() - screen_update_last_ > screen_update_period_)
 8121              		.loc 2 219 5 view .LVU2132
 8122 00d0 D4F87038 		ldr	r3, [r4, #2160]
 219:Dubby.cpp     ****     if(seed.system.GetNow() - screen_update_last_ > screen_update_period_)
 8123              		.loc 2 219 29 view .LVU2133
 8124 00d4 801A     		subs	r0, r0, r2
 219:Dubby.cpp     ****     if(seed.system.GetNow() - screen_update_last_ > screen_update_period_)
 8125              		.loc 2 219 5 view .LVU2134
 8126 00d6 9842     		cmp	r0, r3
 8127 00d8 C8D9     		bls	.L511
 8128              	.LVL591:
 219:Dubby.cpp     ****     if(seed.system.GetNow() - screen_update_last_ > screen_update_period_)
 8129              		.loc 2 219 5 view .LVU2135
 8130              	.LBE1813:
 8131              	.LBB1814:
 8132              	.LBI1814:
 217:Dubby.cpp     **** void Dubby::UpdateMixerPane() 
 8133              		.loc 2 217 6 is_stmt 1 view .LVU2136
 8134              	.LBB1815:
 221:Dubby.cpp     ****         screen_update_last_ = seed.system.GetNow();
 8135              		.loc 2 221 9 view .LVU2137
 8136              	.LBB1816:
 222:Dubby.cpp     ****         for (int i = 0; i < 4; i++) UpdateBar(i);
 8137              		.loc 2 222 18 is_stmt 0 view .LVU2138
 8138 00da 0025     		movs	r5, #0
 8139              	.LBE1816:
 221:Dubby.cpp     ****         screen_update_last_ = seed.system.GetNow();
 8140              		.loc 2 221 49 view .LVU2139
 8141 00dc FFF7FEFF 		bl	_ZN5daisy6System6GetNowEv
 8142              	.LVL592:
 221:Dubby.cpp     ****         screen_update_last_ = seed.system.GetNow();
 8143              		.loc 2 221 29 view .LVU2140
 8144 00e0 C4F86C08 		str	r0, [r4, #2156]
 222:Dubby.cpp     ****         for (int i = 0; i < 4; i++) UpdateBar(i);
 8145              		.loc 2 222 9 is_stmt 1 view .LVU2141
 8146              	.LVL593:
 8147              	.LBB1817:
 222:Dubby.cpp     ****         for (int i = 0; i < 4; i++) UpdateBar(i);
ARM GAS  /var/folders/1y/_321xjh9623c014x9_qw12rr0000gn/T//ccqHcGuP.s 			page 214


 8148              		.loc 2 222 27 view .LVU2142
 8149              	.L514:
 222:Dubby.cpp     ****         for (int i = 0; i < 4; i++) UpdateBar(i);
 8150              		.loc 2 222 37 view .LVU2143
 222:Dubby.cpp     ****         for (int i = 0; i < 4; i++) UpdateBar(i);
 8151              		.loc 2 222 46 is_stmt 0 view .LVU2144
 8152 00e4 2946     		mov	r1, r5
 222:Dubby.cpp     ****         for (int i = 0; i < 4; i++) UpdateBar(i);
 8153              		.loc 2 222 9 view .LVU2145
 8154 00e6 0135     		adds	r5, r5, #1
 8155              	.LVL594:
 222:Dubby.cpp     ****         for (int i = 0; i < 4; i++) UpdateBar(i);
 8156              		.loc 2 222 46 view .LVU2146
 8157 00e8 2046     		mov	r0, r4
 8158 00ea FFF7FEFF 		bl	_ZN5daisy5Dubby9UpdateBarEi
 8159              	.LVL595:
 222:Dubby.cpp     ****         for (int i = 0; i < 4; i++) UpdateBar(i);
 8160              		.loc 2 222 9 is_stmt 1 view .LVU2147
 222:Dubby.cpp     ****         for (int i = 0; i < 4; i++) UpdateBar(i);
 8161              		.loc 2 222 27 view .LVU2148
 8162 00ee 042D     		cmp	r5, #4
 8163 00f0 F8D1     		bne	.L514
 8164 00f2 BBE7     		b	.L511
 8165              	.LVL596:
 8166              	.L575:
 222:Dubby.cpp     ****         for (int i = 0; i < 4; i++) UpdateBar(i);
 8167              		.loc 2 222 27 is_stmt 0 view .LVU2149
 8168              	.LBE1817:
 8169              	.LBE1815:
 8170              	.LBE1814:
 8171              	.LBE1818:
 107:Dubby.cpp     ****             HightlightMenuItem();
 8172              		.loc 2 107 13 is_stmt 1 view .LVU2150
 107:Dubby.cpp     ****             HightlightMenuItem();
 8173              		.loc 2 107 31 is_stmt 0 view .LVU2151
 8174 00f4 2046     		mov	r0, r4
 8175 00f6 FFF7FEFF 		bl	_ZN5daisy5Dubby18HightlightMenuItemEv
 8176              	.LVL597:
 108:Dubby.cpp     ****             menuActive = true;
 8177              		.loc 2 108 13 is_stmt 1 view .LVU2152
 108:Dubby.cpp     ****             menuActive = true;
 8178              		.loc 2 108 24 is_stmt 0 view .LVU2153
 8179 00fa 0123     		movs	r3, #1
 8180 00fc 84F86838 		strb	r3, [r4, #2152]
 111:Dubby.cpp     ****         if (encoder.Increment()) UpdateMenu(encoder.Increment(), true);
 8181              		.loc 2 111 9 is_stmt 1 view .LVU2154
 8182              	.LVL598:
 8183              	.LBB1819:
  36:../../libDaisy//src/hid/encoder.h **** 
 8184              		.loc 13 36 20 view .LVU2155
 8185              	.LBB1787:
  36:../../libDaisy//src/hid/encoder.h **** 
 8186              		.loc 13 36 40 view .LVU2156
  36:../../libDaisy//src/hid/encoder.h **** 
 8187              		.loc 13 36 56 is_stmt 0 view .LVU2157
 8188 0100 94F8F830 		ldrb	r3, [r4, #248]	@ zero_extendqisi2
 8189 0104 002B     		cmp	r3, #0
ARM GAS  /var/folders/1y/_321xjh9623c014x9_qw12rr0000gn/T//ccqHcGuP.s 			page 215


 8190 0106 AAD0     		beq	.L506
 8191 0108 A5E7     		b	.L577
 8192              	.LVL599:
 8193              	.L576:
  36:../../libDaisy//src/hid/encoder.h **** 
 8194              		.loc 13 36 56 view .LVU2158
 8195              	.LBE1787:
 8196              	.LBE1819:
 111:Dubby.cpp     ****         if (encoder.Increment()) UpdateMenu(encoder.Increment(), true);
 8197              		.loc 2 111 34 is_stmt 1 view .LVU2159
  36:../../libDaisy//src/hid/encoder.h **** 
 8198              		.loc 13 36 40 view .LVU2160
 111:Dubby.cpp     ****         if (encoder.Increment()) UpdateMenu(encoder.Increment(), true);
 8199              		.loc 2 111 44 is_stmt 0 view .LVU2161
 8200 010a 0122     		movs	r2, #1
 8201 010c 2046     		mov	r0, r4
 8202 010e FFF7FEFF 		bl	_ZN5daisy5Dubby10UpdateMenuEib
 8203              	.LVL600:
 8204 0112 A4E7     		b	.L506
 8205              	.L510:
 122:Dubby.cpp     ****         case MENU3:
 8206              		.loc 2 122 9 is_stmt 1 view .LVU2162
 123:Dubby.cpp     ****             if (encoder.Pressed() && preferencesMenuItemSelected == OPTION4) ResetToBootloader();
 8207              		.loc 2 123 13 view .LVU2163
 8208              	.LVL601:
 8209              	.LBB1820:
 8210              	.LBI1820:
  45:../../libDaisy//src/hid/encoder.h **** 
 8211              		.loc 13 45 17 view .LVU2164
 8212              	.LBE1820:
  45:../../libDaisy//src/hid/encoder.h **** 
 8213              		.loc 13 45 35 view .LVU2165
 8214              	.LBB1823:
 8215              	.LBB1821:
 8216              	.LBI1821:
  79:../../libDaisy//src/hid/switch.h **** 
 8217              		.loc 12 79 17 view .LVU2166
 8218              	.LBB1822:
  79:../../libDaisy//src/hid/switch.h **** 
 8219              		.loc 12 79 35 view .LVU2167
  79:../../libDaisy//src/hid/switch.h **** 
 8220              		.loc 12 79 35 is_stmt 0 view .LVU2168
 8221              	.LBE1822:
 8222              	.LBE1821:
 8223              	.LBE1823:
 123:Dubby.cpp     ****             if (encoder.Pressed() && preferencesMenuItemSelected == OPTION4) ResetToBootloader();
 8224              		.loc 2 123 35 view .LVU2169
 8225 0114 94F80631 		ldrb	r3, [r4, #262]	@ zero_extendqisi2
 8226 0118 FF2B     		cmp	r3, #255
 8227 011a 13D1     		bne	.L515
 123:Dubby.cpp     ****             if (encoder.Pressed() && preferencesMenuItemSelected == OPTION4) ResetToBootloader();
 8228              		.loc 2 123 35 discriminator 1 view .LVU2170
 8229 011c 94F85930 		ldrb	r3, [r4, #89]	@ zero_extendqisi2
 8230 0120 032B     		cmp	r3, #3
 8231 0122 21D0     		beq	.L578
 124:Dubby.cpp     ****             if (encoder.Increment() && !menuActive) UpdatePreferencesMenu(encoder.Increment());
 8232              		.loc 2 124 13 is_stmt 1 view .LVU2171
ARM GAS  /var/folders/1y/_321xjh9623c014x9_qw12rr0000gn/T//ccqHcGuP.s 			page 216


 8233              	.LVL602:
 8234              	.LBB1824:
 8235              	.LBI1824:
  36:../../libDaisy//src/hid/encoder.h **** 
 8236              		.loc 13 36 20 view .LVU2172
 8237              	.LBB1825:
  36:../../libDaisy//src/hid/encoder.h **** 
 8238              		.loc 13 36 40 view .LVU2173
  36:../../libDaisy//src/hid/encoder.h **** 
 8239              		.loc 13 36 56 is_stmt 0 view .LVU2174
 8240 0124 94F8F830 		ldrb	r3, [r4, #248]	@ zero_extendqisi2
 8241 0128 002B     		cmp	r3, #0
 8242 012a A3D0     		beq	.L521
 8243              	.LVL603:
 8244              	.L527:
  36:../../libDaisy//src/hid/encoder.h **** 
 8245              		.loc 13 36 56 view .LVU2175
 8246 012c D4F81831 		ldr	r3, [r4, #280]
  36:../../libDaisy//src/hid/encoder.h **** 
 8247              		.loc 13 36 56 view .LVU2176
 8248              	.LBE1825:
 8249              	.LBE1824:
 124:Dubby.cpp     ****             if (encoder.Increment() && !menuActive) UpdatePreferencesMenu(encoder.Increment());
 8250              		.loc 2 124 37 view .LVU2177
 8251 0130 002B     		cmp	r3, #0
 8252 0132 9BD0     		beq	.L511
 124:Dubby.cpp     ****             if (encoder.Increment() && !menuActive) UpdatePreferencesMenu(encoder.Increment());
 8253              		.loc 2 124 37 discriminator 1 view .LVU2178
 8254 0134 94F86828 		ldrb	r2, [r4, #2152]	@ zero_extendqisi2
 8255 0138 52B1     		cbz	r2, .L579
 130:Dubby.cpp     ****     if (encoder.TimeHeldMs() < 300 && menuActive)
 8256              		.loc 2 130 5 is_stmt 1 view .LVU2179
 8257              	.LVL604:
 8258              	.LBB1828:
 8259              		.loc 13 48 18 view .LVU2180
 8260              	.LBE1828:
 8261              		.loc 13 48 39 view .LVU2181
 8262              	.LBB1829:
 8263              	.LBB1805:
  88:../../libDaisy//src/hid/switch.h ****     {
 8264              		.loc 12 88 18 view .LVU2182
 8265              	.LBB1802:
 8266              		.loc 12 90 9 view .LVU2183
 8267              	.LBB1799:
  79:../../libDaisy//src/hid/switch.h **** 
 8268              		.loc 12 79 17 view .LVU2184
 8269              	.LBB1793:
  79:../../libDaisy//src/hid/switch.h **** 
 8270              		.loc 12 79 35 view .LVU2185
  79:../../libDaisy//src/hid/switch.h **** 
 8271              		.loc 12 79 35 is_stmt 0 view .LVU2186
 8272              	.LBE1793:
 8273              	.LBE1799:
 8274              		.loc 12 90 26 view .LVU2187
 8275 013a 94F80631 		ldrb	r3, [r4, #262]	@ zero_extendqisi2
 8276 013e FF2B     		cmp	r3, #255
 8277 0140 AAD1     		bne	.L526
ARM GAS  /var/folders/1y/_321xjh9623c014x9_qw12rr0000gn/T//ccqHcGuP.s 			page 217


 8278 0142 97E7     		b	.L521
 8279              	.LVL605:
 8280              	.L515:
 8281              		.loc 12 90 26 view .LVU2188
 8282              	.LBE1802:
 8283              	.LBE1805:
 8284              	.LBE1829:
 124:Dubby.cpp     ****             if (encoder.Increment() && !menuActive) UpdatePreferencesMenu(encoder.Increment());
 8285              		.loc 2 124 13 is_stmt 1 view .LVU2189
 8286              	.LBB1830:
  36:../../libDaisy//src/hid/encoder.h **** 
 8287              		.loc 13 36 20 view .LVU2190
 8288              	.LBB1826:
  36:../../libDaisy//src/hid/encoder.h **** 
 8289              		.loc 13 36 40 view .LVU2191
  36:../../libDaisy//src/hid/encoder.h **** 
 8290              		.loc 13 36 56 is_stmt 0 view .LVU2192
 8291 0144 94F8F830 		ldrb	r3, [r4, #248]	@ zero_extendqisi2
 8292 0148 002B     		cmp	r3, #0
 8293 014a 3FF468AF 		beq	.L522
 8294 014e EDE7     		b	.L527
 8295              	.LVL606:
 8296              	.L579:
  36:../../libDaisy//src/hid/encoder.h **** 
 8297              		.loc 13 36 56 view .LVU2193
 8298              	.LBE1826:
 8299              	.LBE1830:
 124:Dubby.cpp     ****             if (encoder.Increment() && !menuActive) UpdatePreferencesMenu(encoder.Increment());
 8300              		.loc 2 124 53 is_stmt 1 view .LVU2194
  36:../../libDaisy//src/hid/encoder.h **** 
 8301              		.loc 13 36 40 view .LVU2195
 8302              	.LBB1831:
 8303              	.LBI1831:
 298:Dubby.cpp     **** void Dubby::UpdatePreferencesMenu(int increment) 
 8304              		.loc 2 298 6 view .LVU2196
 8305              	.LBB1832:
 300:Dubby.cpp     ****     if (((preferencesMenuItemSelected >= 0 && increment == 1 && preferencesMenuItemSelected < PREFE
 8306              		.loc 2 300 5 view .LVU2197
 8307 0150 012B     		cmp	r3, #1
 300:Dubby.cpp     ****     if (((preferencesMenuItemSelected >= 0 && increment == 1 && preferencesMenuItemSelected < PREFE
 8308              		.loc 2 300 65 is_stmt 0 view .LVU2198
 8309 0152 94F85920 		ldrb	r2, [r4, #89]	@ zero_extendqisi2
 300:Dubby.cpp     ****     if (((preferencesMenuItemSelected >= 0 && increment == 1 && preferencesMenuItemSelected < PREFE
 8310              		.loc 2 300 5 view .LVU2199
 8311 0156 0FD0     		beq	.L580
 300:Dubby.cpp     ****     if (((preferencesMenuItemSelected >= 0 && increment == 1 && preferencesMenuItemSelected < PREFE
 8312              		.loc 2 300 140 view .LVU2200
 8313 0158 82B1     		cbz	r2, .L520
 8314              	.L519:
 8315              	.LVL607:
 8316              	.LBB1833:
 8317              	.LBI1833:
 298:Dubby.cpp     **** void Dubby::UpdatePreferencesMenu(int increment) 
 8318              		.loc 2 298 6 is_stmt 1 view .LVU2201
 8319              	.LBB1834:
 302:Dubby.cpp     ****         preferencesMenuItemSelected = (PreferenesMenuItems)(preferencesMenuItemSelected + increment
 8320              		.loc 2 302 9 view .LVU2202
ARM GAS  /var/folders/1y/_321xjh9623c014x9_qw12rr0000gn/T//ccqHcGuP.s 			page 218


 302:Dubby.cpp     ****         preferencesMenuItemSelected = (PreferenesMenuItems)(preferencesMenuItemSelected + increment
 8321              		.loc 2 302 89 is_stmt 0 view .LVU2203
 8322 015a 1344     		add	r3, r3, r2
 8323              	.LVL608:
 304:Dubby.cpp     ****         DisplayPreferencesMenu();
 8324              		.loc 2 304 31 view .LVU2204
 8325 015c 2046     		mov	r0, r4
 302:Dubby.cpp     ****         preferencesMenuItemSelected = (PreferenesMenuItems)(preferencesMenuItemSelected + increment
 8326              		.loc 2 302 37 view .LVU2205
 8327 015e 84F85930 		strb	r3, [r4, #89]
 304:Dubby.cpp     ****         DisplayPreferencesMenu();
 8328              		.loc 2 304 9 is_stmt 1 view .LVU2206
 304:Dubby.cpp     ****         DisplayPreferencesMenu();
 8329              		.loc 2 304 31 is_stmt 0 view .LVU2207
 8330 0162 FFF7FEFF 		bl	_ZN5daisy5Dubby22DisplayPreferencesMenuEv
 8331              	.LVL609:
 306:Dubby.cpp     **** }
 8332              		.loc 2 306 1 view .LVU2208
 8333 0166 81E7     		b	.L511
 8334              	.LVL610:
 8335              	.L578:
 306:Dubby.cpp     **** }
 8336              		.loc 2 306 1 view .LVU2209
 8337              	.LBE1834:
 8338              	.LBE1833:
 8339              	.LBE1832:
 8340              	.LBE1831:
 123:Dubby.cpp     ****             if (encoder.Pressed() && preferencesMenuItemSelected == OPTION4) ResetToBootloader();
 8341              		.loc 2 123 78 is_stmt 1 view .LVU2210
 123:Dubby.cpp     ****             if (encoder.Pressed() && preferencesMenuItemSelected == OPTION4) ResetToBootloader();
 8342              		.loc 2 123 95 is_stmt 0 view .LVU2211
 8343 0168 2046     		mov	r0, r4
 8344 016a FFF7FEFF 		bl	_ZN5daisy5Dubby17ResetToBootloaderEv
 8345              	.LVL611:
 124:Dubby.cpp     ****             if (encoder.Increment() && !menuActive) UpdatePreferencesMenu(encoder.Increment());
 8346              		.loc 2 124 13 is_stmt 1 view .LVU2212
 8347              	.LBB1836:
  36:../../libDaisy//src/hid/encoder.h **** 
 8348              		.loc 13 36 20 view .LVU2213
 8349              	.LBB1827:
  36:../../libDaisy//src/hid/encoder.h **** 
 8350              		.loc 13 36 40 view .LVU2214
  36:../../libDaisy//src/hid/encoder.h **** 
 8351              		.loc 13 36 56 is_stmt 0 view .LVU2215
 8352 016e 94F8F830 		ldrb	r3, [r4, #248]	@ zero_extendqisi2
 8353 0172 002B     		cmp	r3, #0
 8354 0174 DAD1     		bne	.L527
 8355 0176 79E7     		b	.L511
 8356              	.LVL612:
 8357              	.L580:
  36:../../libDaisy//src/hid/encoder.h **** 
 8358              		.loc 13 36 56 view .LVU2216
 8359              	.LBE1827:
 8360              	.LBE1836:
 8361              	.LBB1837:
 8362              	.LBB1835:
 300:Dubby.cpp     ****     if (((preferencesMenuItemSelected >= 0 && increment == 1 && preferencesMenuItemSelected < PREFE
ARM GAS  /var/folders/1y/_321xjh9623c014x9_qw12rr0000gn/T//ccqHcGuP.s 			page 219


 8363              		.loc 2 300 62 view .LVU2217
 8364 0178 022A     		cmp	r2, #2
 8365 017a EED9     		bls	.L519
 8366              	.L520:
 8367              	.LVL613:
 300:Dubby.cpp     ****     if (((preferencesMenuItemSelected >= 0 && increment == 1 && preferencesMenuItemSelected < PREFE
 8368              		.loc 2 300 62 view .LVU2218
 8369              	.LBE1835:
 8370              	.LBE1837:
 130:Dubby.cpp     ****     if (encoder.TimeHeldMs() < 300 && menuActive)
 8371              		.loc 2 130 5 is_stmt 1 view .LVU2219
 8372              	.LBB1838:
 8373              		.loc 13 48 18 view .LVU2220
 8374              	.LBE1838:
 8375              		.loc 13 48 39 view .LVU2221
 8376              	.LBB1839:
 8377              	.LBB1806:
  88:../../libDaisy//src/hid/switch.h ****     {
 8378              		.loc 12 88 18 view .LVU2222
 8379              	.LBB1803:
 8380              		.loc 12 90 9 view .LVU2223
 8381              	.LBB1800:
  79:../../libDaisy//src/hid/switch.h **** 
 8382              		.loc 12 79 17 view .LVU2224
 8383              	.LBB1794:
  79:../../libDaisy//src/hid/switch.h **** 
 8384              		.loc 12 79 35 view .LVU2225
  79:../../libDaisy//src/hid/switch.h **** 
 8385              		.loc 12 79 35 is_stmt 0 view .LVU2226
 8386              	.LBE1794:
 8387              	.LBE1800:
 8388              		.loc 12 90 26 view .LVU2227
 8389 017c 94F80631 		ldrb	r3, [r4, #262]	@ zero_extendqisi2
 8390 0180 FF2B     		cmp	r3, #255
 8391 0182 3FF477AF 		beq	.L521
 8392              	.LBE1803:
 8393              	.LBE1806:
 8394              	.LBE1839:
 137:Dubby.cpp     **** }
 8395              		.loc 2 137 1 view .LVU2228
 8396 0186 38BD     		pop	{r3, r4, r5, pc}
 8397              	.LVL614:
 8398              	.L582:
 137:Dubby.cpp     **** }
 8399              		.loc 2 137 1 view .LVU2229
 8400              		.align	2
 8401              	.L581:
 8402 0188 00009643 		.word	1133903872
 8403              		.cfi_endproc
 8404              	.LFE2578:
 8406              		.section	.text._ZN5daisy13SSD130xDriverILj128ELj64ENS_24SSD130x4WireSpiTransportEE4InitENS2_6Confi
 8407              		.align	1
 8408              		.p2align 2,,3
 8409              		.weak	_ZN5daisy13SSD130xDriverILj128ELj64ENS_24SSD130x4WireSpiTransportEE4InitENS2_6ConfigE
 8410              		.syntax unified
 8411              		.thumb
 8412              		.thumb_func
ARM GAS  /var/folders/1y/_321xjh9623c014x9_qw12rr0000gn/T//ccqHcGuP.s 			page 220


 8414              	_ZN5daisy13SSD130xDriverILj128ELj64ENS_24SSD130x4WireSpiTransportEE4InitENS2_6ConfigE:
 8415              	.LVL615:
 8416              	.LFB2640:
 253:../../libDaisy//src/dev/oled_ssd130x.h ****     {
 8417              		.loc 4 253 10 is_stmt 1 view -0
 8418              		.cfi_startproc
 8419              		@ args = 48, pretend = 16, frame = 8
 8420              		@ frame_needed = 0, uses_anonymous_args = 0
 253:../../libDaisy//src/dev/oled_ssd130x.h ****     {
 8421              		.loc 4 253 10 is_stmt 0 view .LVU2231
 8422 0000 84B0     		sub	sp, sp, #16
 8423              		.cfi_def_cfa_offset 16
 8424 0002 2DE9F041 		push	{r4, r5, r6, r7, r8, lr}
 8425              		.cfi_def_cfa_offset 40
 8426              		.cfi_offset 4, -40
 8427              		.cfi_offset 5, -36
 8428              		.cfi_offset 6, -32
 8429              		.cfi_offset 7, -28
 8430              		.cfi_offset 8, -24
 8431              		.cfi_offset 14, -20
 8432 0006 82B0     		sub	sp, sp, #8
 8433              		.cfi_def_cfa_offset 48
 8434              	.LBB1888:
 8435              	.LBB1889:
 106:../../libDaisy//src/dev/oled_ssd130x.h ****         pin_dc_.pin  = config.pin_config.dc;
 8436              		.loc 4 106 22 view .LVU2232
 8437 0008 0125     		movs	r5, #1
 107:../../libDaisy//src/dev/oled_ssd130x.h ****         dsy_gpio_init(&pin_dc_);
 8438              		.loc 4 107 22 view .LVU2233
 8439 000a 0646     		mov	r6, r0
 8440              	.LBE1889:
 8441              	.LBE1888:
 253:../../libDaisy//src/dev/oled_ssd130x.h ****     {
 8442              		.loc 4 253 10 view .LVU2234
 8443 000c 0446     		mov	r4, r0
 8444              	.LVL616:
 8445              	.LBB1893:
 8446              	.LBI1888:
 103:../../libDaisy//src/dev/oled_ssd130x.h ****     {
 8447              		.loc 4 103 10 is_stmt 1 view .LVU2235
 8448              	.LBB1890:
 106:../../libDaisy//src/dev/oled_ssd130x.h ****         pin_dc_.pin  = config.pin_config.dc;
 8449              		.loc 4 106 9 view .LVU2236
 8450              	.LBE1890:
 8451              	.LBE1893:
 253:../../libDaisy//src/dev/oled_ssd130x.h ****     {
 8452              		.loc 4 253 10 is_stmt 0 view .LVU2237
 8453 000e 0DF12408 		add	r8, sp, #36
 8454              	.LBB1894:
 8455              	.LBB1891:
 106:../../libDaisy//src/dev/oled_ssd130x.h ****         pin_dc_.pin  = config.pin_config.dc;
 8456              		.loc 4 106 22 view .LVU2238
 8457 0012 8572     		strb	r5, [r0, #10]
 107:../../libDaisy//src/dev/oled_ssd130x.h ****         dsy_gpio_init(&pin_dc_);
 8458              		.loc 4 107 9 is_stmt 1 view .LVU2239
 110:../../libDaisy//src/dev/oled_ssd130x.h ****         dsy_gpio_init(&pin_reset_);
 8459              		.loc 4 110 25 is_stmt 0 view .LVU2240
ARM GAS  /var/folders/1y/_321xjh9623c014x9_qw12rr0000gn/T//ccqHcGuP.s 			page 221


 8460 0014 2746     		mov	r7, r4
 8461              	.LBE1891:
 8462              	.LBE1894:
 253:../../libDaisy//src/dev/oled_ssd130x.h ****     {
 8463              		.loc 4 253 10 view .LVU2241
 8464 0016 88E80E00 		stm	r8, {r1, r2, r3}
 8465              	.LBB1895:
 8466              	.LBB1892:
 107:../../libDaisy//src/dev/oled_ssd130x.h ****         dsy_gpio_init(&pin_dc_);
 8467              		.loc 4 107 22 view .LVU2242
 8468 001a BDF84C30 		ldrh	r3, [sp, #76]
 8469 001e 26F8083F 		strh	r3, [r6, #8]!	@ movhi
 108:../../libDaisy//src/dev/oled_ssd130x.h ****         pin_reset_.mode = DSY_GPIO_MODE_OUTPUT_PP;
 8470              		.loc 4 108 9 is_stmt 1 view .LVU2243
 108:../../libDaisy//src/dev/oled_ssd130x.h ****         pin_reset_.mode = DSY_GPIO_MODE_OUTPUT_PP;
 8471              		.loc 4 108 22 is_stmt 0 view .LVU2244
 8472 0022 3046     		mov	r0, r6
 8473              	.LVL617:
 108:../../libDaisy//src/dev/oled_ssd130x.h ****         pin_reset_.mode = DSY_GPIO_MODE_OUTPUT_PP;
 8474              		.loc 4 108 22 view .LVU2245
 8475 0024 FFF7FEFF 		bl	dsy_gpio_init
 8476              	.LVL618:
 109:../../libDaisy//src/dev/oled_ssd130x.h ****         pin_reset_.pin  = config.pin_config.reset;
 8477              		.loc 4 109 9 is_stmt 1 view .LVU2246
 110:../../libDaisy//src/dev/oled_ssd130x.h ****         dsy_gpio_init(&pin_reset_);
 8478              		.loc 4 110 25 is_stmt 0 view .LVU2247
 8479 0028 BDF84E30 		ldrh	r3, [sp, #78]
 109:../../libDaisy//src/dev/oled_ssd130x.h ****         pin_reset_.pin  = config.pin_config.reset;
 8480              		.loc 4 109 25 view .LVU2248
 8481 002c A571     		strb	r5, [r4, #6]
 110:../../libDaisy//src/dev/oled_ssd130x.h ****         dsy_gpio_init(&pin_reset_);
 8482              		.loc 4 110 9 is_stmt 1 view .LVU2249
 110:../../libDaisy//src/dev/oled_ssd130x.h ****         dsy_gpio_init(&pin_reset_);
 8483              		.loc 4 110 25 is_stmt 0 view .LVU2250
 8484 002e 27F8043F 		strh	r3, [r7, #4]!	@ movhi
 111:../../libDaisy//src/dev/oled_ssd130x.h **** 
 8485              		.loc 4 111 9 is_stmt 1 view .LVU2251
 111:../../libDaisy//src/dev/oled_ssd130x.h **** 
 8486              		.loc 4 111 22 is_stmt 0 view .LVU2252
 8487 0032 3846     		mov	r0, r7
 8488 0034 FFF7FEFF 		bl	dsy_gpio_init
 8489              	.LVL619:
 114:../../libDaisy//src/dev/oled_ssd130x.h **** 
 8490              		.loc 4 114 9 is_stmt 1 view .LVU2253
 114:../../libDaisy//src/dev/oled_ssd130x.h **** 
 8491              		.loc 4 114 18 is_stmt 0 view .LVU2254
 8492 0038 4146     		mov	r1, r8
 8493 003a 2046     		mov	r0, r4
 8494 003c FFF7FEFF 		bl	_ZN5daisy9SpiHandle4InitERKNS0_6ConfigE
 8495              	.LVL620:
 117:../../libDaisy//src/dev/oled_ssd130x.h ****         System::Delay(10);
 8496              		.loc 4 117 9 is_stmt 1 view .LVU2255
 117:../../libDaisy//src/dev/oled_ssd130x.h ****         System::Delay(10);
 8497              		.loc 4 117 23 is_stmt 0 view .LVU2256
 8498 0040 0021     		movs	r1, #0
 8499 0042 3846     		mov	r0, r7
 8500 0044 FFF7FEFF 		bl	dsy_gpio_write
ARM GAS  /var/folders/1y/_321xjh9623c014x9_qw12rr0000gn/T//ccqHcGuP.s 			page 222


 8501              	.LVL621:
 118:../../libDaisy//src/dev/oled_ssd130x.h ****         dsy_gpio_write(&pin_reset_, 1);
 8502              		.loc 4 118 9 is_stmt 1 view .LVU2257
 118:../../libDaisy//src/dev/oled_ssd130x.h ****         dsy_gpio_write(&pin_reset_, 1);
 8503              		.loc 4 118 22 is_stmt 0 view .LVU2258
 8504 0048 0A20     		movs	r0, #10
 8505 004a FFF7FEFF 		bl	_ZN5daisy6System5DelayEm
 8506              	.LVL622:
 119:../../libDaisy//src/dev/oled_ssd130x.h ****         System::Delay(10);
 8507              		.loc 4 119 9 is_stmt 1 view .LVU2259
 119:../../libDaisy//src/dev/oled_ssd130x.h ****         System::Delay(10);
 8508              		.loc 4 119 23 is_stmt 0 view .LVU2260
 8509 004e 2946     		mov	r1, r5
 8510 0050 3846     		mov	r0, r7
 8511 0052 FFF7FEFF 		bl	dsy_gpio_write
 8512              	.LVL623:
 120:../../libDaisy//src/dev/oled_ssd130x.h ****     };
 8513              		.loc 4 120 9 is_stmt 1 view .LVU2261
 120:../../libDaisy//src/dev/oled_ssd130x.h ****     };
 8514              		.loc 4 120 22 is_stmt 0 view .LVU2262
 8515 0056 0A20     		movs	r0, #10
 8516 0058 FFF7FEFF 		bl	_ZN5daisy6System5DelayEm
 8517              	.LVL624:
 120:../../libDaisy//src/dev/oled_ssd130x.h ****     };
 8518              		.loc 4 120 22 view .LVU2263
 8519 005c AE23     		movs	r3, #174
 8520              	.LBE1892:
 8521              	.LBE1895:
 8522              	.LBB1896:
 8523              	.LBB1897:
 124:../../libDaisy//src/dev/oled_ssd130x.h ****         spi_.BlockingTransmit(&cmd, 1);
 8524              		.loc 4 124 23 view .LVU2264
 8525 005e 3046     		mov	r0, r6
 8526 0060 0021     		movs	r1, #0
 8527 0062 8DF80730 		strb	r3, [sp, #7]
 8528              	.LVL625:
 124:../../libDaisy//src/dev/oled_ssd130x.h ****         spi_.BlockingTransmit(&cmd, 1);
 8529              		.loc 4 124 23 view .LVU2265
 8530              	.LBE1897:
 8531              	.LBI1896:
 122:../../libDaisy//src/dev/oled_ssd130x.h ****     {
 8532              		.loc 4 122 10 is_stmt 1 view .LVU2266
 8533              	.LBB1898:
 124:../../libDaisy//src/dev/oled_ssd130x.h ****         spi_.BlockingTransmit(&cmd, 1);
 8534              		.loc 4 124 9 view .LVU2267
 124:../../libDaisy//src/dev/oled_ssd130x.h ****         spi_.BlockingTransmit(&cmd, 1);
 8535              		.loc 4 124 23 is_stmt 0 view .LVU2268
 8536 0066 FFF7FEFF 		bl	dsy_gpio_write
 8537              	.LVL626:
 125:../../libDaisy//src/dev/oled_ssd130x.h ****     };
 8538              		.loc 4 125 9 is_stmt 1 view .LVU2269
 125:../../libDaisy//src/dev/oled_ssd130x.h ****     };
 8539              		.loc 4 125 30 is_stmt 0 view .LVU2270
 8540 006a 2A46     		mov	r2, r5
 8541 006c 0DF10701 		add	r1, sp, #7
 8542 0070 6423     		movs	r3, #100
 8543 0072 2046     		mov	r0, r4
ARM GAS  /var/folders/1y/_321xjh9623c014x9_qw12rr0000gn/T//ccqHcGuP.s 			page 223


 8544 0074 FFF7FEFF 		bl	_ZN5daisy9SpiHandle16BlockingTransmitEPhjm
 8545              	.LVL627:
 125:../../libDaisy//src/dev/oled_ssd130x.h ****     };
 8546              		.loc 4 125 30 view .LVU2271
 8547 0078 D523     		movs	r3, #213
 8548              	.LBE1898:
 8549              	.LBE1896:
 8550              	.LBB1899:
 8551              	.LBB1900:
 124:../../libDaisy//src/dev/oled_ssd130x.h ****         spi_.BlockingTransmit(&cmd, 1);
 8552              		.loc 4 124 23 view .LVU2272
 8553 007a 3046     		mov	r0, r6
 8554 007c 0021     		movs	r1, #0
 8555 007e 8DF80730 		strb	r3, [sp, #7]
 8556              	.LVL628:
 124:../../libDaisy//src/dev/oled_ssd130x.h ****         spi_.BlockingTransmit(&cmd, 1);
 8557              		.loc 4 124 23 view .LVU2273
 8558              	.LBE1900:
 8559              	.LBI1899:
 122:../../libDaisy//src/dev/oled_ssd130x.h ****     {
 8560              		.loc 4 122 10 is_stmt 1 view .LVU2274
 8561              	.LBB1901:
 124:../../libDaisy//src/dev/oled_ssd130x.h ****         spi_.BlockingTransmit(&cmd, 1);
 8562              		.loc 4 124 9 view .LVU2275
 124:../../libDaisy//src/dev/oled_ssd130x.h ****         spi_.BlockingTransmit(&cmd, 1);
 8563              		.loc 4 124 23 is_stmt 0 view .LVU2276
 8564 0082 FFF7FEFF 		bl	dsy_gpio_write
 8565              	.LVL629:
 125:../../libDaisy//src/dev/oled_ssd130x.h ****     };
 8566              		.loc 4 125 9 is_stmt 1 view .LVU2277
 125:../../libDaisy//src/dev/oled_ssd130x.h ****     };
 8567              		.loc 4 125 30 is_stmt 0 view .LVU2278
 8568 0086 2A46     		mov	r2, r5
 8569 0088 0DF10701 		add	r1, sp, #7
 8570 008c 6423     		movs	r3, #100
 8571 008e 2046     		mov	r0, r4
 8572 0090 FFF7FEFF 		bl	_ZN5daisy9SpiHandle16BlockingTransmitEPhjm
 8573              	.LVL630:
 125:../../libDaisy//src/dev/oled_ssd130x.h ****     };
 8574              		.loc 4 125 30 view .LVU2279
 8575 0094 8023     		movs	r3, #128
 8576              	.LBE1901:
 8577              	.LBE1899:
 8578              	.LBB1902:
 8579              	.LBB1903:
 124:../../libDaisy//src/dev/oled_ssd130x.h ****         spi_.BlockingTransmit(&cmd, 1);
 8580              		.loc 4 124 23 view .LVU2280
 8581 0096 3046     		mov	r0, r6
 8582 0098 0021     		movs	r1, #0
 8583 009a 8DF80730 		strb	r3, [sp, #7]
 8584              	.LVL631:
 124:../../libDaisy//src/dev/oled_ssd130x.h ****         spi_.BlockingTransmit(&cmd, 1);
 8585              		.loc 4 124 23 view .LVU2281
 8586              	.LBE1903:
 8587              	.LBI1902:
 122:../../libDaisy//src/dev/oled_ssd130x.h ****     {
 8588              		.loc 4 122 10 is_stmt 1 view .LVU2282
ARM GAS  /var/folders/1y/_321xjh9623c014x9_qw12rr0000gn/T//ccqHcGuP.s 			page 224


 8589              	.LBB1904:
 124:../../libDaisy//src/dev/oled_ssd130x.h ****         spi_.BlockingTransmit(&cmd, 1);
 8590              		.loc 4 124 9 view .LVU2283
 124:../../libDaisy//src/dev/oled_ssd130x.h ****         spi_.BlockingTransmit(&cmd, 1);
 8591              		.loc 4 124 23 is_stmt 0 view .LVU2284
 8592 009e FFF7FEFF 		bl	dsy_gpio_write
 8593              	.LVL632:
 125:../../libDaisy//src/dev/oled_ssd130x.h ****     };
 8594              		.loc 4 125 9 is_stmt 1 view .LVU2285
 125:../../libDaisy//src/dev/oled_ssd130x.h ****     };
 8595              		.loc 4 125 30 is_stmt 0 view .LVU2286
 8596 00a2 2A46     		mov	r2, r5
 8597 00a4 0DF10701 		add	r1, sp, #7
 8598 00a8 6423     		movs	r3, #100
 8599 00aa 2046     		mov	r0, r4
 8600 00ac FFF7FEFF 		bl	_ZN5daisy9SpiHandle16BlockingTransmitEPhjm
 8601              	.LVL633:
 125:../../libDaisy//src/dev/oled_ssd130x.h ****     };
 8602              		.loc 4 125 30 view .LVU2287
 8603 00b0 A823     		movs	r3, #168
 8604              	.LBE1904:
 8605              	.LBE1902:
 8606              	.LBB1905:
 8607              	.LBB1906:
 124:../../libDaisy//src/dev/oled_ssd130x.h ****         spi_.BlockingTransmit(&cmd, 1);
 8608              		.loc 4 124 23 view .LVU2288
 8609 00b2 3046     		mov	r0, r6
 8610 00b4 0021     		movs	r1, #0
 8611 00b6 8DF80730 		strb	r3, [sp, #7]
 8612              	.LVL634:
 124:../../libDaisy//src/dev/oled_ssd130x.h ****         spi_.BlockingTransmit(&cmd, 1);
 8613              		.loc 4 124 23 view .LVU2289
 8614              	.LBE1906:
 8615              	.LBI1905:
 122:../../libDaisy//src/dev/oled_ssd130x.h ****     {
 8616              		.loc 4 122 10 is_stmt 1 view .LVU2290
 8617              	.LBB1907:
 124:../../libDaisy//src/dev/oled_ssd130x.h ****         spi_.BlockingTransmit(&cmd, 1);
 8618              		.loc 4 124 9 view .LVU2291
 124:../../libDaisy//src/dev/oled_ssd130x.h ****         spi_.BlockingTransmit(&cmd, 1);
 8619              		.loc 4 124 23 is_stmt 0 view .LVU2292
 8620 00ba FFF7FEFF 		bl	dsy_gpio_write
 8621              	.LVL635:
 125:../../libDaisy//src/dev/oled_ssd130x.h ****     };
 8622              		.loc 4 125 9 is_stmt 1 view .LVU2293
 125:../../libDaisy//src/dev/oled_ssd130x.h ****     };
 8623              		.loc 4 125 30 is_stmt 0 view .LVU2294
 8624 00be 2A46     		mov	r2, r5
 8625 00c0 0DF10701 		add	r1, sp, #7
 8626 00c4 6423     		movs	r3, #100
 8627 00c6 2046     		mov	r0, r4
 8628 00c8 FFF7FEFF 		bl	_ZN5daisy9SpiHandle16BlockingTransmitEPhjm
 8629              	.LVL636:
 125:../../libDaisy//src/dev/oled_ssd130x.h ****     };
 8630              		.loc 4 125 30 view .LVU2295
 8631 00cc 3F23     		movs	r3, #63
 8632              	.LBE1907:
ARM GAS  /var/folders/1y/_321xjh9623c014x9_qw12rr0000gn/T//ccqHcGuP.s 			page 225


 8633              	.LBE1905:
 8634              	.LBB1908:
 8635              	.LBB1909:
 124:../../libDaisy//src/dev/oled_ssd130x.h ****         spi_.BlockingTransmit(&cmd, 1);
 8636              		.loc 4 124 23 view .LVU2296
 8637 00ce 3046     		mov	r0, r6
 8638 00d0 0021     		movs	r1, #0
 8639 00d2 8DF80730 		strb	r3, [sp, #7]
 8640              	.LVL637:
 124:../../libDaisy//src/dev/oled_ssd130x.h ****         spi_.BlockingTransmit(&cmd, 1);
 8641              		.loc 4 124 23 view .LVU2297
 8642              	.LBE1909:
 8643              	.LBI1908:
 122:../../libDaisy//src/dev/oled_ssd130x.h ****     {
 8644              		.loc 4 122 10 is_stmt 1 view .LVU2298
 8645              	.LBB1910:
 124:../../libDaisy//src/dev/oled_ssd130x.h ****         spi_.BlockingTransmit(&cmd, 1);
 8646              		.loc 4 124 9 view .LVU2299
 124:../../libDaisy//src/dev/oled_ssd130x.h ****         spi_.BlockingTransmit(&cmd, 1);
 8647              		.loc 4 124 23 is_stmt 0 view .LVU2300
 8648 00d6 FFF7FEFF 		bl	dsy_gpio_write
 8649              	.LVL638:
 125:../../libDaisy//src/dev/oled_ssd130x.h ****     };
 8650              		.loc 4 125 9 is_stmt 1 view .LVU2301
 125:../../libDaisy//src/dev/oled_ssd130x.h ****     };
 8651              		.loc 4 125 30 is_stmt 0 view .LVU2302
 8652 00da 2A46     		mov	r2, r5
 8653 00dc 0DF10701 		add	r1, sp, #7
 8654 00e0 6423     		movs	r3, #100
 8655 00e2 2046     		mov	r0, r4
 8656 00e4 FFF7FEFF 		bl	_ZN5daisy9SpiHandle16BlockingTransmitEPhjm
 8657              	.LVL639:
 125:../../libDaisy//src/dev/oled_ssd130x.h ****     };
 8658              		.loc 4 125 30 view .LVU2303
 8659 00e8 DA23     		movs	r3, #218
 8660              	.LBE1910:
 8661              	.LBE1908:
 8662              	.LBB1911:
 8663              	.LBB1912:
 124:../../libDaisy//src/dev/oled_ssd130x.h ****         spi_.BlockingTransmit(&cmd, 1);
 8664              		.loc 4 124 23 view .LVU2304
 8665 00ea 3046     		mov	r0, r6
 8666 00ec 0021     		movs	r1, #0
 8667 00ee 8DF80730 		strb	r3, [sp, #7]
 8668              	.LVL640:
 124:../../libDaisy//src/dev/oled_ssd130x.h ****         spi_.BlockingTransmit(&cmd, 1);
 8669              		.loc 4 124 23 view .LVU2305
 8670              	.LBE1912:
 8671              	.LBI1911:
 122:../../libDaisy//src/dev/oled_ssd130x.h ****     {
 8672              		.loc 4 122 10 is_stmt 1 view .LVU2306
 8673              	.LBB1913:
 124:../../libDaisy//src/dev/oled_ssd130x.h ****         spi_.BlockingTransmit(&cmd, 1);
 8674              		.loc 4 124 9 view .LVU2307
 124:../../libDaisy//src/dev/oled_ssd130x.h ****         spi_.BlockingTransmit(&cmd, 1);
 8675              		.loc 4 124 23 is_stmt 0 view .LVU2308
 8676 00f2 FFF7FEFF 		bl	dsy_gpio_write
ARM GAS  /var/folders/1y/_321xjh9623c014x9_qw12rr0000gn/T//ccqHcGuP.s 			page 226


 8677              	.LVL641:
 125:../../libDaisy//src/dev/oled_ssd130x.h ****     };
 8678              		.loc 4 125 9 is_stmt 1 view .LVU2309
 125:../../libDaisy//src/dev/oled_ssd130x.h ****     };
 8679              		.loc 4 125 30 is_stmt 0 view .LVU2310
 8680 00f6 2A46     		mov	r2, r5
 8681 00f8 0DF10701 		add	r1, sp, #7
 8682 00fc 6423     		movs	r3, #100
 8683 00fe 2046     		mov	r0, r4
 8684 0100 FFF7FEFF 		bl	_ZN5daisy9SpiHandle16BlockingTransmitEPhjm
 8685              	.LVL642:
 125:../../libDaisy//src/dev/oled_ssd130x.h ****     };
 8686              		.loc 4 125 30 view .LVU2311
 8687 0104 1223     		movs	r3, #18
 8688              	.LBE1913:
 8689              	.LBE1911:
 8690              	.LBB1914:
 8691              	.LBB1915:
 124:../../libDaisy//src/dev/oled_ssd130x.h ****         spi_.BlockingTransmit(&cmd, 1);
 8692              		.loc 4 124 23 view .LVU2312
 8693 0106 3046     		mov	r0, r6
 8694 0108 0021     		movs	r1, #0
 8695 010a 8DF80730 		strb	r3, [sp, #7]
 8696              	.LVL643:
 124:../../libDaisy//src/dev/oled_ssd130x.h ****         spi_.BlockingTransmit(&cmd, 1);
 8697              		.loc 4 124 23 view .LVU2313
 8698              	.LBE1915:
 8699              	.LBI1914:
 122:../../libDaisy//src/dev/oled_ssd130x.h ****     {
 8700              		.loc 4 122 10 is_stmt 1 view .LVU2314
 8701              	.LBB1916:
 124:../../libDaisy//src/dev/oled_ssd130x.h ****         spi_.BlockingTransmit(&cmd, 1);
 8702              		.loc 4 124 9 view .LVU2315
 124:../../libDaisy//src/dev/oled_ssd130x.h ****         spi_.BlockingTransmit(&cmd, 1);
 8703              		.loc 4 124 23 is_stmt 0 view .LVU2316
 8704 010e FFF7FEFF 		bl	dsy_gpio_write
 8705              	.LVL644:
 125:../../libDaisy//src/dev/oled_ssd130x.h ****     };
 8706              		.loc 4 125 9 is_stmt 1 view .LVU2317
 125:../../libDaisy//src/dev/oled_ssd130x.h ****     };
 8707              		.loc 4 125 30 is_stmt 0 view .LVU2318
 8708 0112 2A46     		mov	r2, r5
 8709 0114 0DF10701 		add	r1, sp, #7
 8710 0118 6423     		movs	r3, #100
 8711 011a 2046     		mov	r0, r4
 8712 011c FFF7FEFF 		bl	_ZN5daisy9SpiHandle16BlockingTransmitEPhjm
 8713              	.LVL645:
 125:../../libDaisy//src/dev/oled_ssd130x.h ****     };
 8714              		.loc 4 125 30 view .LVU2319
 8715              	.LBE1916:
 8716              	.LBE1914:
 8717              	.LBB1917:
 8718              	.LBB1918:
 124:../../libDaisy//src/dev/oled_ssd130x.h ****         spi_.BlockingTransmit(&cmd, 1);
 8719              		.loc 4 124 23 view .LVU2320
 8720 0120 0021     		movs	r1, #0
 8721 0122 D323     		movs	r3, #211
ARM GAS  /var/folders/1y/_321xjh9623c014x9_qw12rr0000gn/T//ccqHcGuP.s 			page 227


 8722 0124 3046     		mov	r0, r6
 8723 0126 0F46     		mov	r7, r1
 8724 0128 8DF80730 		strb	r3, [sp, #7]
 8725              	.LVL646:
 124:../../libDaisy//src/dev/oled_ssd130x.h ****         spi_.BlockingTransmit(&cmd, 1);
 8726              		.loc 4 124 23 view .LVU2321
 8727              	.LBE1918:
 8728              	.LBI1917:
 122:../../libDaisy//src/dev/oled_ssd130x.h ****     {
 8729              		.loc 4 122 10 is_stmt 1 view .LVU2322
 8730              	.LBB1919:
 124:../../libDaisy//src/dev/oled_ssd130x.h ****         spi_.BlockingTransmit(&cmd, 1);
 8731              		.loc 4 124 9 view .LVU2323
 124:../../libDaisy//src/dev/oled_ssd130x.h ****         spi_.BlockingTransmit(&cmd, 1);
 8732              		.loc 4 124 23 is_stmt 0 view .LVU2324
 8733 012c FFF7FEFF 		bl	dsy_gpio_write
 8734              	.LVL647:
 125:../../libDaisy//src/dev/oled_ssd130x.h ****     };
 8735              		.loc 4 125 9 is_stmt 1 view .LVU2325
 125:../../libDaisy//src/dev/oled_ssd130x.h ****     };
 8736              		.loc 4 125 30 is_stmt 0 view .LVU2326
 8737 0130 2A46     		mov	r2, r5
 8738 0132 6423     		movs	r3, #100
 8739 0134 0DF10701 		add	r1, sp, #7
 8740 0138 2046     		mov	r0, r4
 8741 013a FFF7FEFF 		bl	_ZN5daisy9SpiHandle16BlockingTransmitEPhjm
 8742              	.LVL648:
 125:../../libDaisy//src/dev/oled_ssd130x.h ****     };
 8743              		.loc 4 125 30 view .LVU2327
 8744              	.LBE1919:
 8745              	.LBE1917:
 8746              	.LBB1920:
 8747              	.LBB1921:
 124:../../libDaisy//src/dev/oled_ssd130x.h ****         spi_.BlockingTransmit(&cmd, 1);
 8748              		.loc 4 124 23 view .LVU2328
 8749 013e 3946     		mov	r1, r7
 8750 0140 3046     		mov	r0, r6
 8751 0142 8DF80770 		strb	r7, [sp, #7]
 8752              	.LVL649:
 124:../../libDaisy//src/dev/oled_ssd130x.h ****         spi_.BlockingTransmit(&cmd, 1);
 8753              		.loc 4 124 23 view .LVU2329
 8754              	.LBE1921:
 8755              	.LBI1920:
 122:../../libDaisy//src/dev/oled_ssd130x.h ****     {
 8756              		.loc 4 122 10 is_stmt 1 view .LVU2330
 8757              	.LBB1922:
 124:../../libDaisy//src/dev/oled_ssd130x.h ****         spi_.BlockingTransmit(&cmd, 1);
 8758              		.loc 4 124 9 view .LVU2331
 124:../../libDaisy//src/dev/oled_ssd130x.h ****         spi_.BlockingTransmit(&cmd, 1);
 8759              		.loc 4 124 23 is_stmt 0 view .LVU2332
 8760 0146 FFF7FEFF 		bl	dsy_gpio_write
 8761              	.LVL650:
 125:../../libDaisy//src/dev/oled_ssd130x.h ****     };
 8762              		.loc 4 125 9 is_stmt 1 view .LVU2333
 125:../../libDaisy//src/dev/oled_ssd130x.h ****     };
 8763              		.loc 4 125 30 is_stmt 0 view .LVU2334
 8764 014a 2A46     		mov	r2, r5
ARM GAS  /var/folders/1y/_321xjh9623c014x9_qw12rr0000gn/T//ccqHcGuP.s 			page 228


 8765 014c 0DF10701 		add	r1, sp, #7
 8766 0150 6423     		movs	r3, #100
 8767 0152 2046     		mov	r0, r4
 8768 0154 FFF7FEFF 		bl	_ZN5daisy9SpiHandle16BlockingTransmitEPhjm
 8769              	.LVL651:
 125:../../libDaisy//src/dev/oled_ssd130x.h ****     };
 8770              		.loc 4 125 30 view .LVU2335
 8771 0158 4023     		movs	r3, #64
 8772              	.LBE1922:
 8773              	.LBE1920:
 8774              	.LBB1923:
 8775              	.LBB1924:
 124:../../libDaisy//src/dev/oled_ssd130x.h ****         spi_.BlockingTransmit(&cmd, 1);
 8776              		.loc 4 124 23 view .LVU2336
 8777 015a 3946     		mov	r1, r7
 8778 015c 3046     		mov	r0, r6
 8779 015e 8DF80730 		strb	r3, [sp, #7]
 8780              	.LVL652:
 124:../../libDaisy//src/dev/oled_ssd130x.h ****         spi_.BlockingTransmit(&cmd, 1);
 8781              		.loc 4 124 23 view .LVU2337
 8782              	.LBE1924:
 8783              	.LBI1923:
 122:../../libDaisy//src/dev/oled_ssd130x.h ****     {
 8784              		.loc 4 122 10 is_stmt 1 view .LVU2338
 8785              	.LBB1925:
 124:../../libDaisy//src/dev/oled_ssd130x.h ****         spi_.BlockingTransmit(&cmd, 1);
 8786              		.loc 4 124 9 view .LVU2339
 124:../../libDaisy//src/dev/oled_ssd130x.h ****         spi_.BlockingTransmit(&cmd, 1);
 8787              		.loc 4 124 23 is_stmt 0 view .LVU2340
 8788 0162 FFF7FEFF 		bl	dsy_gpio_write
 8789              	.LVL653:
 125:../../libDaisy//src/dev/oled_ssd130x.h ****     };
 8790              		.loc 4 125 9 is_stmt 1 view .LVU2341
 125:../../libDaisy//src/dev/oled_ssd130x.h ****     };
 8791              		.loc 4 125 30 is_stmt 0 view .LVU2342
 8792 0166 2A46     		mov	r2, r5
 8793 0168 0DF10701 		add	r1, sp, #7
 8794 016c 6423     		movs	r3, #100
 8795 016e 2046     		mov	r0, r4
 8796 0170 FFF7FEFF 		bl	_ZN5daisy9SpiHandle16BlockingTransmitEPhjm
 8797              	.LVL654:
 125:../../libDaisy//src/dev/oled_ssd130x.h ****     };
 8798              		.loc 4 125 30 view .LVU2343
 8799 0174 A623     		movs	r3, #166
 8800              	.LBE1925:
 8801              	.LBE1923:
 8802              	.LBB1926:
 8803              	.LBB1927:
 124:../../libDaisy//src/dev/oled_ssd130x.h ****         spi_.BlockingTransmit(&cmd, 1);
 8804              		.loc 4 124 23 view .LVU2344
 8805 0176 3946     		mov	r1, r7
 8806 0178 3046     		mov	r0, r6
 8807 017a 8DF80730 		strb	r3, [sp, #7]
 8808              	.LVL655:
 124:../../libDaisy//src/dev/oled_ssd130x.h ****         spi_.BlockingTransmit(&cmd, 1);
 8809              		.loc 4 124 23 view .LVU2345
 8810              	.LBE1927:
ARM GAS  /var/folders/1y/_321xjh9623c014x9_qw12rr0000gn/T//ccqHcGuP.s 			page 229


 8811              	.LBI1926:
 122:../../libDaisy//src/dev/oled_ssd130x.h ****     {
 8812              		.loc 4 122 10 is_stmt 1 view .LVU2346
 8813              	.LBB1928:
 124:../../libDaisy//src/dev/oled_ssd130x.h ****         spi_.BlockingTransmit(&cmd, 1);
 8814              		.loc 4 124 9 view .LVU2347
 124:../../libDaisy//src/dev/oled_ssd130x.h ****         spi_.BlockingTransmit(&cmd, 1);
 8815              		.loc 4 124 23 is_stmt 0 view .LVU2348
 8816 017e FFF7FEFF 		bl	dsy_gpio_write
 8817              	.LVL656:
 125:../../libDaisy//src/dev/oled_ssd130x.h ****     };
 8818              		.loc 4 125 9 is_stmt 1 view .LVU2349
 125:../../libDaisy//src/dev/oled_ssd130x.h ****     };
 8819              		.loc 4 125 30 is_stmt 0 view .LVU2350
 8820 0182 2A46     		mov	r2, r5
 8821 0184 0DF10701 		add	r1, sp, #7
 8822 0188 6423     		movs	r3, #100
 8823 018a 2046     		mov	r0, r4
 8824 018c FFF7FEFF 		bl	_ZN5daisy9SpiHandle16BlockingTransmitEPhjm
 8825              	.LVL657:
 125:../../libDaisy//src/dev/oled_ssd130x.h ****     };
 8826              		.loc 4 125 30 view .LVU2351
 8827 0190 A423     		movs	r3, #164
 8828              	.LBE1928:
 8829              	.LBE1926:
 8830              	.LBB1929:
 8831              	.LBB1930:
 124:../../libDaisy//src/dev/oled_ssd130x.h ****         spi_.BlockingTransmit(&cmd, 1);
 8832              		.loc 4 124 23 view .LVU2352
 8833 0192 3946     		mov	r1, r7
 8834 0194 3046     		mov	r0, r6
 8835 0196 8DF80730 		strb	r3, [sp, #7]
 8836              	.LVL658:
 124:../../libDaisy//src/dev/oled_ssd130x.h ****         spi_.BlockingTransmit(&cmd, 1);
 8837              		.loc 4 124 23 view .LVU2353
 8838              	.LBE1930:
 8839              	.LBI1929:
 122:../../libDaisy//src/dev/oled_ssd130x.h ****     {
 8840              		.loc 4 122 10 is_stmt 1 view .LVU2354
 8841              	.LBB1931:
 124:../../libDaisy//src/dev/oled_ssd130x.h ****         spi_.BlockingTransmit(&cmd, 1);
 8842              		.loc 4 124 9 view .LVU2355
 124:../../libDaisy//src/dev/oled_ssd130x.h ****         spi_.BlockingTransmit(&cmd, 1);
 8843              		.loc 4 124 23 is_stmt 0 view .LVU2356
 8844 019a FFF7FEFF 		bl	dsy_gpio_write
 8845              	.LVL659:
 125:../../libDaisy//src/dev/oled_ssd130x.h ****     };
 8846              		.loc 4 125 9 is_stmt 1 view .LVU2357
 125:../../libDaisy//src/dev/oled_ssd130x.h ****     };
 8847              		.loc 4 125 30 is_stmt 0 view .LVU2358
 8848 019e 2A46     		mov	r2, r5
 8849 01a0 0DF10701 		add	r1, sp, #7
 8850 01a4 6423     		movs	r3, #100
 8851 01a6 2046     		mov	r0, r4
 8852 01a8 FFF7FEFF 		bl	_ZN5daisy9SpiHandle16BlockingTransmitEPhjm
 8853              	.LVL660:
 125:../../libDaisy//src/dev/oled_ssd130x.h ****     };
ARM GAS  /var/folders/1y/_321xjh9623c014x9_qw12rr0000gn/T//ccqHcGuP.s 			page 230


 8854              		.loc 4 125 30 view .LVU2359
 8855 01ac 8D23     		movs	r3, #141
 8856              	.LBE1931:
 8857              	.LBE1929:
 8858              	.LBB1932:
 8859              	.LBB1933:
 124:../../libDaisy//src/dev/oled_ssd130x.h ****         spi_.BlockingTransmit(&cmd, 1);
 8860              		.loc 4 124 23 view .LVU2360
 8861 01ae 3946     		mov	r1, r7
 8862 01b0 3046     		mov	r0, r6
 8863 01b2 8DF80730 		strb	r3, [sp, #7]
 8864              	.LVL661:
 124:../../libDaisy//src/dev/oled_ssd130x.h ****         spi_.BlockingTransmit(&cmd, 1);
 8865              		.loc 4 124 23 view .LVU2361
 8866              	.LBE1933:
 8867              	.LBI1932:
 122:../../libDaisy//src/dev/oled_ssd130x.h ****     {
 8868              		.loc 4 122 10 is_stmt 1 view .LVU2362
 8869              	.LBB1934:
 124:../../libDaisy//src/dev/oled_ssd130x.h ****         spi_.BlockingTransmit(&cmd, 1);
 8870              		.loc 4 124 9 view .LVU2363
 124:../../libDaisy//src/dev/oled_ssd130x.h ****         spi_.BlockingTransmit(&cmd, 1);
 8871              		.loc 4 124 23 is_stmt 0 view .LVU2364
 8872 01b6 FFF7FEFF 		bl	dsy_gpio_write
 8873              	.LVL662:
 125:../../libDaisy//src/dev/oled_ssd130x.h ****     };
 8874              		.loc 4 125 9 is_stmt 1 view .LVU2365
 125:../../libDaisy//src/dev/oled_ssd130x.h ****     };
 8875              		.loc 4 125 30 is_stmt 0 view .LVU2366
 8876 01ba 2A46     		mov	r2, r5
 8877 01bc 0DF10701 		add	r1, sp, #7
 8878 01c0 6423     		movs	r3, #100
 8879 01c2 2046     		mov	r0, r4
 8880 01c4 FFF7FEFF 		bl	_ZN5daisy9SpiHandle16BlockingTransmitEPhjm
 8881              	.LVL663:
 125:../../libDaisy//src/dev/oled_ssd130x.h ****     };
 8882              		.loc 4 125 30 view .LVU2367
 8883 01c8 1423     		movs	r3, #20
 8884              	.LBE1934:
 8885              	.LBE1932:
 8886              	.LBB1935:
 8887              	.LBB1936:
 124:../../libDaisy//src/dev/oled_ssd130x.h ****         spi_.BlockingTransmit(&cmd, 1);
 8888              		.loc 4 124 23 view .LVU2368
 8889 01ca 3946     		mov	r1, r7
 8890 01cc 3046     		mov	r0, r6
 8891 01ce 8DF80730 		strb	r3, [sp, #7]
 8892              	.LVL664:
 124:../../libDaisy//src/dev/oled_ssd130x.h ****         spi_.BlockingTransmit(&cmd, 1);
 8893              		.loc 4 124 23 view .LVU2369
 8894              	.LBE1936:
 8895              	.LBI1935:
 122:../../libDaisy//src/dev/oled_ssd130x.h ****     {
 8896              		.loc 4 122 10 is_stmt 1 view .LVU2370
 8897              	.LBB1937:
 124:../../libDaisy//src/dev/oled_ssd130x.h ****         spi_.BlockingTransmit(&cmd, 1);
 8898              		.loc 4 124 9 view .LVU2371
ARM GAS  /var/folders/1y/_321xjh9623c014x9_qw12rr0000gn/T//ccqHcGuP.s 			page 231


 124:../../libDaisy//src/dev/oled_ssd130x.h ****         spi_.BlockingTransmit(&cmd, 1);
 8899              		.loc 4 124 23 is_stmt 0 view .LVU2372
 8900 01d2 FFF7FEFF 		bl	dsy_gpio_write
 8901              	.LVL665:
 125:../../libDaisy//src/dev/oled_ssd130x.h ****     };
 8902              		.loc 4 125 9 is_stmt 1 view .LVU2373
 125:../../libDaisy//src/dev/oled_ssd130x.h ****     };
 8903              		.loc 4 125 30 is_stmt 0 view .LVU2374
 8904 01d6 2A46     		mov	r2, r5
 8905 01d8 0DF10701 		add	r1, sp, #7
 8906 01dc 6423     		movs	r3, #100
 8907 01de 2046     		mov	r0, r4
 8908 01e0 FFF7FEFF 		bl	_ZN5daisy9SpiHandle16BlockingTransmitEPhjm
 8909              	.LVL666:
 125:../../libDaisy//src/dev/oled_ssd130x.h ****     };
 8910              		.loc 4 125 30 view .LVU2375
 8911 01e4 A123     		movs	r3, #161
 8912              	.LBE1937:
 8913              	.LBE1935:
 8914              	.LBB1938:
 8915              	.LBB1939:
 124:../../libDaisy//src/dev/oled_ssd130x.h ****         spi_.BlockingTransmit(&cmd, 1);
 8916              		.loc 4 124 23 view .LVU2376
 8917 01e6 3946     		mov	r1, r7
 8918 01e8 3046     		mov	r0, r6
 8919 01ea 8DF80730 		strb	r3, [sp, #7]
 8920              	.LVL667:
 124:../../libDaisy//src/dev/oled_ssd130x.h ****         spi_.BlockingTransmit(&cmd, 1);
 8921              		.loc 4 124 23 view .LVU2377
 8922              	.LBE1939:
 8923              	.LBI1938:
 122:../../libDaisy//src/dev/oled_ssd130x.h ****     {
 8924              		.loc 4 122 10 is_stmt 1 view .LVU2378
 8925              	.LBB1940:
 124:../../libDaisy//src/dev/oled_ssd130x.h ****         spi_.BlockingTransmit(&cmd, 1);
 8926              		.loc 4 124 9 view .LVU2379
 124:../../libDaisy//src/dev/oled_ssd130x.h ****         spi_.BlockingTransmit(&cmd, 1);
 8927              		.loc 4 124 23 is_stmt 0 view .LVU2380
 8928 01ee FFF7FEFF 		bl	dsy_gpio_write
 8929              	.LVL668:
 125:../../libDaisy//src/dev/oled_ssd130x.h ****     };
 8930              		.loc 4 125 9 is_stmt 1 view .LVU2381
 125:../../libDaisy//src/dev/oled_ssd130x.h ****     };
 8931              		.loc 4 125 30 is_stmt 0 view .LVU2382
 8932 01f2 2A46     		mov	r2, r5
 8933 01f4 0DF10701 		add	r1, sp, #7
 8934 01f8 6423     		movs	r3, #100
 8935 01fa 2046     		mov	r0, r4
 8936 01fc FFF7FEFF 		bl	_ZN5daisy9SpiHandle16BlockingTransmitEPhjm
 8937              	.LVL669:
 125:../../libDaisy//src/dev/oled_ssd130x.h ****     };
 8938              		.loc 4 125 30 view .LVU2383
 8939 0200 C823     		movs	r3, #200
 8940              	.LBE1940:
 8941              	.LBE1938:
 8942              	.LBB1941:
 8943              	.LBB1942:
ARM GAS  /var/folders/1y/_321xjh9623c014x9_qw12rr0000gn/T//ccqHcGuP.s 			page 232


 124:../../libDaisy//src/dev/oled_ssd130x.h ****         spi_.BlockingTransmit(&cmd, 1);
 8944              		.loc 4 124 23 view .LVU2384
 8945 0202 3946     		mov	r1, r7
 8946 0204 3046     		mov	r0, r6
 8947 0206 8DF80730 		strb	r3, [sp, #7]
 8948              	.LVL670:
 124:../../libDaisy//src/dev/oled_ssd130x.h ****         spi_.BlockingTransmit(&cmd, 1);
 8949              		.loc 4 124 23 view .LVU2385
 8950              	.LBE1942:
 8951              	.LBI1941:
 122:../../libDaisy//src/dev/oled_ssd130x.h ****     {
 8952              		.loc 4 122 10 is_stmt 1 view .LVU2386
 8953              	.LBB1943:
 124:../../libDaisy//src/dev/oled_ssd130x.h ****         spi_.BlockingTransmit(&cmd, 1);
 8954              		.loc 4 124 9 view .LVU2387
 124:../../libDaisy//src/dev/oled_ssd130x.h ****         spi_.BlockingTransmit(&cmd, 1);
 8955              		.loc 4 124 23 is_stmt 0 view .LVU2388
 8956 020a FFF7FEFF 		bl	dsy_gpio_write
 8957              	.LVL671:
 125:../../libDaisy//src/dev/oled_ssd130x.h ****     };
 8958              		.loc 4 125 9 is_stmt 1 view .LVU2389
 125:../../libDaisy//src/dev/oled_ssd130x.h ****     };
 8959              		.loc 4 125 30 is_stmt 0 view .LVU2390
 8960 020e 2A46     		mov	r2, r5
 8961 0210 0DF10701 		add	r1, sp, #7
 8962 0214 6423     		movs	r3, #100
 8963 0216 2046     		mov	r0, r4
 8964 0218 FFF7FEFF 		bl	_ZN5daisy9SpiHandle16BlockingTransmitEPhjm
 8965              	.LVL672:
 125:../../libDaisy//src/dev/oled_ssd130x.h ****     };
 8966              		.loc 4 125 30 view .LVU2391
 8967 021c 8123     		movs	r3, #129
 8968              	.LBE1943:
 8969              	.LBE1941:
 8970              	.LBB1944:
 8971              	.LBB1945:
 124:../../libDaisy//src/dev/oled_ssd130x.h ****         spi_.BlockingTransmit(&cmd, 1);
 8972              		.loc 4 124 23 view .LVU2392
 8973 021e 3946     		mov	r1, r7
 8974 0220 3046     		mov	r0, r6
 8975 0222 8DF80730 		strb	r3, [sp, #7]
 8976              	.LVL673:
 124:../../libDaisy//src/dev/oled_ssd130x.h ****         spi_.BlockingTransmit(&cmd, 1);
 8977              		.loc 4 124 23 view .LVU2393
 8978              	.LBE1945:
 8979              	.LBI1944:
 122:../../libDaisy//src/dev/oled_ssd130x.h ****     {
 8980              		.loc 4 122 10 is_stmt 1 view .LVU2394
 8981              	.LBB1946:
 124:../../libDaisy//src/dev/oled_ssd130x.h ****         spi_.BlockingTransmit(&cmd, 1);
 8982              		.loc 4 124 9 view .LVU2395
 124:../../libDaisy//src/dev/oled_ssd130x.h ****         spi_.BlockingTransmit(&cmd, 1);
 8983              		.loc 4 124 23 is_stmt 0 view .LVU2396
 8984 0226 FFF7FEFF 		bl	dsy_gpio_write
 8985              	.LVL674:
 125:../../libDaisy//src/dev/oled_ssd130x.h ****     };
 8986              		.loc 4 125 9 is_stmt 1 view .LVU2397
ARM GAS  /var/folders/1y/_321xjh9623c014x9_qw12rr0000gn/T//ccqHcGuP.s 			page 233


 125:../../libDaisy//src/dev/oled_ssd130x.h ****     };
 8987              		.loc 4 125 30 is_stmt 0 view .LVU2398
 8988 022a 2A46     		mov	r2, r5
 8989 022c 0DF10701 		add	r1, sp, #7
 8990 0230 6423     		movs	r3, #100
 8991 0232 2046     		mov	r0, r4
 8992 0234 FFF7FEFF 		bl	_ZN5daisy9SpiHandle16BlockingTransmitEPhjm
 8993              	.LVL675:
 125:../../libDaisy//src/dev/oled_ssd130x.h ****     };
 8994              		.loc 4 125 30 view .LVU2399
 8995 0238 8F23     		movs	r3, #143
 8996              	.LBE1946:
 8997              	.LBE1944:
 8998              	.LBB1947:
 8999              	.LBB1948:
 124:../../libDaisy//src/dev/oled_ssd130x.h ****         spi_.BlockingTransmit(&cmd, 1);
 9000              		.loc 4 124 23 view .LVU2400
 9001 023a 3946     		mov	r1, r7
 9002 023c 3046     		mov	r0, r6
 9003 023e 8DF80730 		strb	r3, [sp, #7]
 9004              	.LVL676:
 124:../../libDaisy//src/dev/oled_ssd130x.h ****         spi_.BlockingTransmit(&cmd, 1);
 9005              		.loc 4 124 23 view .LVU2401
 9006              	.LBE1948:
 9007              	.LBI1947:
 122:../../libDaisy//src/dev/oled_ssd130x.h ****     {
 9008              		.loc 4 122 10 is_stmt 1 view .LVU2402
 9009              	.LBB1949:
 124:../../libDaisy//src/dev/oled_ssd130x.h ****         spi_.BlockingTransmit(&cmd, 1);
 9010              		.loc 4 124 9 view .LVU2403
 124:../../libDaisy//src/dev/oled_ssd130x.h ****         spi_.BlockingTransmit(&cmd, 1);
 9011              		.loc 4 124 23 is_stmt 0 view .LVU2404
 9012 0242 FFF7FEFF 		bl	dsy_gpio_write
 9013              	.LVL677:
 125:../../libDaisy//src/dev/oled_ssd130x.h ****     };
 9014              		.loc 4 125 9 is_stmt 1 view .LVU2405
 125:../../libDaisy//src/dev/oled_ssd130x.h ****     };
 9015              		.loc 4 125 30 is_stmt 0 view .LVU2406
 9016 0246 2A46     		mov	r2, r5
 9017 0248 0DF10701 		add	r1, sp, #7
 9018 024c 6423     		movs	r3, #100
 9019 024e 2046     		mov	r0, r4
 9020 0250 FFF7FEFF 		bl	_ZN5daisy9SpiHandle16BlockingTransmitEPhjm
 9021              	.LVL678:
 125:../../libDaisy//src/dev/oled_ssd130x.h ****     };
 9022              		.loc 4 125 30 view .LVU2407
 9023 0254 D923     		movs	r3, #217
 9024              	.LBE1949:
 9025              	.LBE1947:
 9026              	.LBB1950:
 9027              	.LBB1951:
 124:../../libDaisy//src/dev/oled_ssd130x.h ****         spi_.BlockingTransmit(&cmd, 1);
 9028              		.loc 4 124 23 view .LVU2408
 9029 0256 3946     		mov	r1, r7
 9030 0258 3046     		mov	r0, r6
 9031 025a 8DF80730 		strb	r3, [sp, #7]
 9032              	.LVL679:
ARM GAS  /var/folders/1y/_321xjh9623c014x9_qw12rr0000gn/T//ccqHcGuP.s 			page 234


 124:../../libDaisy//src/dev/oled_ssd130x.h ****         spi_.BlockingTransmit(&cmd, 1);
 9033              		.loc 4 124 23 view .LVU2409
 9034              	.LBE1951:
 9035              	.LBI1950:
 122:../../libDaisy//src/dev/oled_ssd130x.h ****     {
 9036              		.loc 4 122 10 is_stmt 1 view .LVU2410
 9037              	.LBB1952:
 124:../../libDaisy//src/dev/oled_ssd130x.h ****         spi_.BlockingTransmit(&cmd, 1);
 9038              		.loc 4 124 9 view .LVU2411
 124:../../libDaisy//src/dev/oled_ssd130x.h ****         spi_.BlockingTransmit(&cmd, 1);
 9039              		.loc 4 124 23 is_stmt 0 view .LVU2412
 9040 025e FFF7FEFF 		bl	dsy_gpio_write
 9041              	.LVL680:
 125:../../libDaisy//src/dev/oled_ssd130x.h ****     };
 9042              		.loc 4 125 9 is_stmt 1 view .LVU2413
 125:../../libDaisy//src/dev/oled_ssd130x.h ****     };
 9043              		.loc 4 125 30 is_stmt 0 view .LVU2414
 9044 0262 2A46     		mov	r2, r5
 9045 0264 0DF10701 		add	r1, sp, #7
 9046 0268 6423     		movs	r3, #100
 9047 026a 2046     		mov	r0, r4
 9048 026c FFF7FEFF 		bl	_ZN5daisy9SpiHandle16BlockingTransmitEPhjm
 9049              	.LVL681:
 125:../../libDaisy//src/dev/oled_ssd130x.h ****     };
 9050              		.loc 4 125 30 view .LVU2415
 9051 0270 2523     		movs	r3, #37
 9052              	.LBE1952:
 9053              	.LBE1950:
 9054              	.LBB1953:
 9055              	.LBB1954:
 124:../../libDaisy//src/dev/oled_ssd130x.h ****         spi_.BlockingTransmit(&cmd, 1);
 9056              		.loc 4 124 23 view .LVU2416
 9057 0272 3946     		mov	r1, r7
 9058 0274 3046     		mov	r0, r6
 9059 0276 8DF80730 		strb	r3, [sp, #7]
 9060              	.LVL682:
 124:../../libDaisy//src/dev/oled_ssd130x.h ****         spi_.BlockingTransmit(&cmd, 1);
 9061              		.loc 4 124 23 view .LVU2417
 9062              	.LBE1954:
 9063              	.LBI1953:
 122:../../libDaisy//src/dev/oled_ssd130x.h ****     {
 9064              		.loc 4 122 10 is_stmt 1 view .LVU2418
 9065              	.LBB1955:
 124:../../libDaisy//src/dev/oled_ssd130x.h ****         spi_.BlockingTransmit(&cmd, 1);
 9066              		.loc 4 124 9 view .LVU2419
 124:../../libDaisy//src/dev/oled_ssd130x.h ****         spi_.BlockingTransmit(&cmd, 1);
 9067              		.loc 4 124 23 is_stmt 0 view .LVU2420
 9068 027a FFF7FEFF 		bl	dsy_gpio_write
 9069              	.LVL683:
 125:../../libDaisy//src/dev/oled_ssd130x.h ****     };
 9070              		.loc 4 125 9 is_stmt 1 view .LVU2421
 125:../../libDaisy//src/dev/oled_ssd130x.h ****     };
 9071              		.loc 4 125 30 is_stmt 0 view .LVU2422
 9072 027e 2A46     		mov	r2, r5
 9073 0280 0DF10701 		add	r1, sp, #7
 9074 0284 6423     		movs	r3, #100
 9075 0286 2046     		mov	r0, r4
ARM GAS  /var/folders/1y/_321xjh9623c014x9_qw12rr0000gn/T//ccqHcGuP.s 			page 235


 9076 0288 FFF7FEFF 		bl	_ZN5daisy9SpiHandle16BlockingTransmitEPhjm
 9077              	.LVL684:
 125:../../libDaisy//src/dev/oled_ssd130x.h ****     };
 9078              		.loc 4 125 30 view .LVU2423
 9079 028c DB23     		movs	r3, #219
 9080              	.LBE1955:
 9081              	.LBE1953:
 9082              	.LBB1956:
 9083              	.LBB1957:
 124:../../libDaisy//src/dev/oled_ssd130x.h ****         spi_.BlockingTransmit(&cmd, 1);
 9084              		.loc 4 124 23 view .LVU2424
 9085 028e 3946     		mov	r1, r7
 9086 0290 3046     		mov	r0, r6
 9087 0292 8DF80730 		strb	r3, [sp, #7]
 9088              	.LVL685:
 124:../../libDaisy//src/dev/oled_ssd130x.h ****         spi_.BlockingTransmit(&cmd, 1);
 9089              		.loc 4 124 23 view .LVU2425
 9090              	.LBE1957:
 9091              	.LBI1956:
 122:../../libDaisy//src/dev/oled_ssd130x.h ****     {
 9092              		.loc 4 122 10 is_stmt 1 view .LVU2426
 9093              	.LBB1958:
 124:../../libDaisy//src/dev/oled_ssd130x.h ****         spi_.BlockingTransmit(&cmd, 1);
 9094              		.loc 4 124 9 view .LVU2427
 124:../../libDaisy//src/dev/oled_ssd130x.h ****         spi_.BlockingTransmit(&cmd, 1);
 9095              		.loc 4 124 23 is_stmt 0 view .LVU2428
 9096 0296 FFF7FEFF 		bl	dsy_gpio_write
 9097              	.LVL686:
 125:../../libDaisy//src/dev/oled_ssd130x.h ****     };
 9098              		.loc 4 125 9 is_stmt 1 view .LVU2429
 125:../../libDaisy//src/dev/oled_ssd130x.h ****     };
 9099              		.loc 4 125 30 is_stmt 0 view .LVU2430
 9100 029a 2A46     		mov	r2, r5
 9101 029c 0DF10701 		add	r1, sp, #7
 9102 02a0 6423     		movs	r3, #100
 9103 02a2 2046     		mov	r0, r4
 9104 02a4 FFF7FEFF 		bl	_ZN5daisy9SpiHandle16BlockingTransmitEPhjm
 9105              	.LVL687:
 125:../../libDaisy//src/dev/oled_ssd130x.h ****     };
 9106              		.loc 4 125 30 view .LVU2431
 9107 02a8 3423     		movs	r3, #52
 9108              	.LBE1958:
 9109              	.LBE1956:
 9110              	.LBB1959:
 9111              	.LBB1960:
 124:../../libDaisy//src/dev/oled_ssd130x.h ****         spi_.BlockingTransmit(&cmd, 1);
 9112              		.loc 4 124 23 view .LVU2432
 9113 02aa 3946     		mov	r1, r7
 9114 02ac 3046     		mov	r0, r6
 9115 02ae 8DF80730 		strb	r3, [sp, #7]
 9116              	.LVL688:
 124:../../libDaisy//src/dev/oled_ssd130x.h ****         spi_.BlockingTransmit(&cmd, 1);
 9117              		.loc 4 124 23 view .LVU2433
 9118              	.LBE1960:
 9119              	.LBI1959:
 122:../../libDaisy//src/dev/oled_ssd130x.h ****     {
 9120              		.loc 4 122 10 is_stmt 1 view .LVU2434
ARM GAS  /var/folders/1y/_321xjh9623c014x9_qw12rr0000gn/T//ccqHcGuP.s 			page 236


 9121              	.LBB1961:
 124:../../libDaisy//src/dev/oled_ssd130x.h ****         spi_.BlockingTransmit(&cmd, 1);
 9122              		.loc 4 124 9 view .LVU2435
 124:../../libDaisy//src/dev/oled_ssd130x.h ****         spi_.BlockingTransmit(&cmd, 1);
 9123              		.loc 4 124 23 is_stmt 0 view .LVU2436
 9124 02b2 FFF7FEFF 		bl	dsy_gpio_write
 9125              	.LVL689:
 125:../../libDaisy//src/dev/oled_ssd130x.h ****     };
 9126              		.loc 4 125 9 is_stmt 1 view .LVU2437
 125:../../libDaisy//src/dev/oled_ssd130x.h ****     };
 9127              		.loc 4 125 30 is_stmt 0 view .LVU2438
 9128 02b6 2A46     		mov	r2, r5
 9129 02b8 0DF10701 		add	r1, sp, #7
 9130 02bc 6423     		movs	r3, #100
 9131 02be 2046     		mov	r0, r4
 9132 02c0 FFF7FEFF 		bl	_ZN5daisy9SpiHandle16BlockingTransmitEPhjm
 9133              	.LVL690:
 125:../../libDaisy//src/dev/oled_ssd130x.h ****     };
 9134              		.loc 4 125 30 view .LVU2439
 9135 02c4 AF23     		movs	r3, #175
 9136              	.LBE1961:
 9137              	.LBE1959:
 9138              	.LBB1962:
 9139              	.LBB1963:
 124:../../libDaisy//src/dev/oled_ssd130x.h ****         spi_.BlockingTransmit(&cmd, 1);
 9140              		.loc 4 124 23 view .LVU2440
 9141 02c6 3946     		mov	r1, r7
 9142 02c8 3046     		mov	r0, r6
 9143 02ca 8DF80730 		strb	r3, [sp, #7]
 9144              	.LVL691:
 124:../../libDaisy//src/dev/oled_ssd130x.h ****         spi_.BlockingTransmit(&cmd, 1);
 9145              		.loc 4 124 23 view .LVU2441
 9146              	.LBE1963:
 9147              	.LBI1962:
 122:../../libDaisy//src/dev/oled_ssd130x.h ****     {
 9148              		.loc 4 122 10 is_stmt 1 view .LVU2442
 9149              	.LBB1964:
 124:../../libDaisy//src/dev/oled_ssd130x.h ****         spi_.BlockingTransmit(&cmd, 1);
 9150              		.loc 4 124 9 view .LVU2443
 124:../../libDaisy//src/dev/oled_ssd130x.h ****         spi_.BlockingTransmit(&cmd, 1);
 9151              		.loc 4 124 23 is_stmt 0 view .LVU2444
 9152 02ce FFF7FEFF 		bl	dsy_gpio_write
 9153              	.LVL692:
 125:../../libDaisy//src/dev/oled_ssd130x.h ****     };
 9154              		.loc 4 125 9 is_stmt 1 view .LVU2445
 125:../../libDaisy//src/dev/oled_ssd130x.h ****     };
 9155              		.loc 4 125 30 is_stmt 0 view .LVU2446
 9156 02d2 6423     		movs	r3, #100
 9157 02d4 2A46     		mov	r2, r5
 9158 02d6 0DF10701 		add	r1, sp, #7
 9159 02da 2046     		mov	r0, r4
 9160 02dc FFF7FEFF 		bl	_ZN5daisy9SpiHandle16BlockingTransmitEPhjm
 9161              	.LVL693:
 125:../../libDaisy//src/dev/oled_ssd130x.h ****     };
 9162              		.loc 4 125 30 view .LVU2447
 9163              	.LBE1964:
 9164              	.LBE1962:
ARM GAS  /var/folders/1y/_321xjh9623c014x9_qw12rr0000gn/T//ccqHcGuP.s 			page 237


 347:../../libDaisy//src/dev/oled_ssd130x.h **** 
 9165              		.loc 4 347 5 view .LVU2448
 9166 02e0 02B0     		add	sp, sp, #8
 9167              		.cfi_def_cfa_offset 40
 9168              		@ sp needed
 9169 02e2 BDE8F041 		pop	{r4, r5, r6, r7, r8, lr}
 9170              		.cfi_restore 14
 9171              		.cfi_restore 8
 9172              		.cfi_restore 7
 9173              		.cfi_restore 6
 9174              		.cfi_restore 5
 9175              		.cfi_restore 4
 9176              		.cfi_def_cfa_offset 16
 9177              	.LVL694:
 347:../../libDaisy//src/dev/oled_ssd130x.h **** 
 9178              		.loc 4 347 5 view .LVU2449
 9179 02e6 04B0     		add	sp, sp, #16
 9180              		.cfi_def_cfa_offset 0
 9181 02e8 7047     		bx	lr
 9182              		.cfi_endproc
 9183              	.LFE2640:
 9185 02ea 00BF     		.section	.text._ZN5daisy5Dubby11InitDisplayEv,"ax",%progbits
 9186              		.align	1
 9187              		.p2align 2,,3
 9188              		.global	_ZN5daisy5Dubby11InitDisplayEv
 9189              		.syntax unified
 9190              		.thumb
 9191              		.thumb_func
 9193              	_ZN5daisy5Dubby11InitDisplayEv:
 9194              	.LVL695:
 9195              	.LFB2571:
  92:Dubby.cpp     **** {
 9196              		.loc 2 92 1 is_stmt 1 view -0
 9197              		.cfi_startproc
 9198              		@ args = 0, pretend = 0, frame = 88
 9199              		@ frame_needed = 0, uses_anonymous_args = 0
  94:Dubby.cpp     ****     OledDisplay<SSD130x4WireSpi128x64Driver>::Config disp_cfg;
 9200              		.loc 2 94 5 view .LVU2451
  92:Dubby.cpp     **** {
 9201              		.loc 2 92 1 is_stmt 0 view .LVU2452
 9202 0000 F0B5     		push	{r4, r5, r6, r7, lr}
 9203              		.cfi_def_cfa_offset 20
 9204              		.cfi_offset 4, -20
 9205              		.cfi_offset 5, -16
 9206              		.cfi_offset 6, -12
 9207              		.cfi_offset 7, -8
 9208              		.cfi_offset 14, -4
 9209              	.LBB1977:
 9210              	.LBB1978:
 9211              	.LBB1979:
 9212              	.LBB1980:
  71:../../libDaisy//src/dev/oled_ssd130x.h ****             // Initialize using defaults
 9213              		.loc 4 71 9 view .LVU2453
 9214 0002 40F60632 		movw	r2, #2822
 9215              	.LBE1980:
 9216              	.LBE1979:
 9217              	.LBE1978:
ARM GAS  /var/folders/1y/_321xjh9623c014x9_qw12rr0000gn/T//ccqHcGuP.s 			page 238


 9218              	.LBE1977:
  92:Dubby.cpp     **** {
 9219              		.loc 2 92 1 view .LVU2454
 9220 0006 9FB0     		sub	sp, sp, #124
 9221              		.cfi_def_cfa_offset 144
 9222              	.LVL696:
 9223              	.LBB1995:
 9224              	.LBI1977:
  20:../../libDaisy//src/hid/disp/oled_display.h ****     {
 9225              		.loc 1 20 12 is_stmt 1 view .LVU2455
 9226              	.LBB1991:
 9227              	.LBI1978:
 248:../../libDaisy//src/dev/oled_ssd130x.h ****     {
 9228              		.loc 4 248 12 view .LVU2456
 9229              	.LBB1987:
 9230              	.LBI1979:
  70:../../libDaisy//src/dev/oled_ssd130x.h ****         {
 9231              		.loc 4 70 9 view .LVU2457
 9232              	.LBB1983:
 9233              	.LBB1981:
 9234              	.LBI1981:
 9235              		.file 14 "../../libDaisy//src/per/spi.h"
   1:../../libDaisy//src/per/spi.h **** #pragma once
   2:../../libDaisy//src/per/spi.h **** #ifndef DSY_SPI_H
   3:../../libDaisy//src/per/spi.h **** #define DSY_SPI_H
   4:../../libDaisy//src/per/spi.h **** 
   5:../../libDaisy//src/per/spi.h **** #include "daisy_core.h"
   6:../../libDaisy//src/per/spi.h **** 
   7:../../libDaisy//src/per/spi.h **** /* TODO:
   8:../../libDaisy//src/per/spi.h **** - Add documentation
   9:../../libDaisy//src/per/spi.h **** - Add IT
  10:../../libDaisy//src/per/spi.h **** */
  11:../../libDaisy//src/per/spi.h **** 
  12:../../libDaisy//src/per/spi.h **** namespace daisy
  13:../../libDaisy//src/per/spi.h **** {
  14:../../libDaisy//src/per/spi.h **** /** @addtogroup serial
  15:../../libDaisy//src/per/spi.h **** @{
  16:../../libDaisy//src/per/spi.h **** */
  17:../../libDaisy//src/per/spi.h **** 
  18:../../libDaisy//src/per/spi.h **** /**  Handler for serial peripheral interface */
  19:../../libDaisy//src/per/spi.h **** class SpiHandle
  20:../../libDaisy//src/per/spi.h **** {
  21:../../libDaisy//src/per/spi.h ****   public:
  22:../../libDaisy//src/per/spi.h ****     struct Config
  23:../../libDaisy//src/per/spi.h ****     {
  24:../../libDaisy//src/per/spi.h ****         enum class Peripheral
  25:../../libDaisy//src/per/spi.h ****         {
  26:../../libDaisy//src/per/spi.h ****             SPI_1,
  27:../../libDaisy//src/per/spi.h ****             SPI_2,
  28:../../libDaisy//src/per/spi.h ****             SPI_3,
  29:../../libDaisy//src/per/spi.h ****             SPI_4,
  30:../../libDaisy//src/per/spi.h ****             SPI_5,
  31:../../libDaisy//src/per/spi.h ****             SPI_6,
  32:../../libDaisy//src/per/spi.h ****         };
  33:../../libDaisy//src/per/spi.h **** 
  34:../../libDaisy//src/per/spi.h ****         enum class Mode
  35:../../libDaisy//src/per/spi.h ****         {
ARM GAS  /var/folders/1y/_321xjh9623c014x9_qw12rr0000gn/T//ccqHcGuP.s 			page 239


  36:../../libDaisy//src/per/spi.h ****             MASTER,
  37:../../libDaisy//src/per/spi.h ****             SLAVE,
  38:../../libDaisy//src/per/spi.h ****         };
  39:../../libDaisy//src/per/spi.h **** 
  40:../../libDaisy//src/per/spi.h ****         enum class Direction
  41:../../libDaisy//src/per/spi.h ****         {
  42:../../libDaisy//src/per/spi.h ****             TWO_LINES,
  43:../../libDaisy//src/per/spi.h ****             TWO_LINES_TX_ONLY,
  44:../../libDaisy//src/per/spi.h ****             TWO_LINES_RX_ONLY,
  45:../../libDaisy//src/per/spi.h ****             ONE_LINE,
  46:../../libDaisy//src/per/spi.h ****         };
  47:../../libDaisy//src/per/spi.h **** 
  48:../../libDaisy//src/per/spi.h ****         enum class ClockPolarity
  49:../../libDaisy//src/per/spi.h ****         {
  50:../../libDaisy//src/per/spi.h ****             LOW,
  51:../../libDaisy//src/per/spi.h ****             HIGH,
  52:../../libDaisy//src/per/spi.h ****         };
  53:../../libDaisy//src/per/spi.h **** 
  54:../../libDaisy//src/per/spi.h ****         enum class ClockPhase
  55:../../libDaisy//src/per/spi.h ****         {
  56:../../libDaisy//src/per/spi.h ****             ONE_EDGE,
  57:../../libDaisy//src/per/spi.h ****             TWO_EDGE,
  58:../../libDaisy//src/per/spi.h ****         };
  59:../../libDaisy//src/per/spi.h **** 
  60:../../libDaisy//src/per/spi.h ****         enum class NSS
  61:../../libDaisy//src/per/spi.h ****         {
  62:../../libDaisy//src/per/spi.h ****             SOFT,
  63:../../libDaisy//src/per/spi.h ****             HARD_INPUT,
  64:../../libDaisy//src/per/spi.h ****             HARD_OUTPUT,
  65:../../libDaisy//src/per/spi.h ****         };
  66:../../libDaisy//src/per/spi.h **** 
  67:../../libDaisy//src/per/spi.h ****         enum class BaudPrescaler
  68:../../libDaisy//src/per/spi.h ****         {
  69:../../libDaisy//src/per/spi.h ****             PS_2,
  70:../../libDaisy//src/per/spi.h ****             PS_4,
  71:../../libDaisy//src/per/spi.h ****             PS_8,
  72:../../libDaisy//src/per/spi.h ****             PS_16,
  73:../../libDaisy//src/per/spi.h ****             PS_32,
  74:../../libDaisy//src/per/spi.h ****             PS_64,
  75:../../libDaisy//src/per/spi.h ****             PS_128,
  76:../../libDaisy//src/per/spi.h ****             PS_256,
  77:../../libDaisy//src/per/spi.h ****         };
  78:../../libDaisy//src/per/spi.h **** 
  79:../../libDaisy//src/per/spi.h ****         struct
  80:../../libDaisy//src/per/spi.h ****         {
  81:../../libDaisy//src/per/spi.h ****             dsy_gpio_pin sclk; /**< & */
  82:../../libDaisy//src/per/spi.h ****             dsy_gpio_pin miso; /**< & */
  83:../../libDaisy//src/per/spi.h ****             dsy_gpio_pin mosi; /**< & */
  84:../../libDaisy//src/per/spi.h ****             dsy_gpio_pin nss;  /**< & */
  85:../../libDaisy//src/per/spi.h ****         } pin_config;
  86:../../libDaisy//src/per/spi.h **** 
  87:../../libDaisy//src/per/spi.h ****         Config()
 9236              		.loc 14 87 9 view .LVU2458
 9237              	.LBE1981:
 9238              	.LBE1983:
 9239              	.LBE1987:
 9240              	.LBE1991:
ARM GAS  /var/folders/1y/_321xjh9623c014x9_qw12rr0000gn/T//ccqHcGuP.s 			page 240


 9241              	.LBE1995:
  88:../../libDaisy//src/per/spi.h ****         {
  89:../../libDaisy//src/per/spi.h ****             // user must specify periph, mode, direction, nss, and pin_config
  90:../../libDaisy//src/per/spi.h ****             datasize       = 8;
 9242              		.loc 14 90 13 view .LVU2459
  91:../../libDaisy//src/per/spi.h ****             clock_polarity = ClockPolarity::LOW;
 9243              		.loc 14 91 13 view .LVU2460
  92:../../libDaisy//src/per/spi.h ****             clock_phase    = ClockPhase::ONE_EDGE;
 9244              		.loc 14 92 13 view .LVU2461
  93:../../libDaisy//src/per/spi.h ****             baud_prescaler = BaudPrescaler::PS_8;
 9245              		.loc 14 93 13 view .LVU2462
  73:../../libDaisy//src/dev/oled_ssd130x.h ****         }
 9246              		.loc 4 73 13 view .LVU2463
 9247              	.LBB1996:
 9248              	.LBB1992:
 9249              	.LBB1988:
 9250              	.LBB1984:
 9251              	.LBB1982:
 9252              	.LBI1982:
  81:../../libDaisy//src/dev/oled_ssd130x.h ****         {
 9253              		.loc 4 81 14 view .LVU2464
 9254              	.LBE1982:
 9255              	.LBE1984:
 9256              	.LBE1988:
 9257              	.LBE1992:
 9258              	.LBE1996:
  84:../../libDaisy//src/dev/oled_ssd130x.h ****             spi_config.mode   = SpiHandle::Config::Mode::MASTER;
 9259              		.loc 4 84 13 view .LVU2465
  85:../../libDaisy//src/dev/oled_ssd130x.h ****             spi_config.direction
 9260              		.loc 4 85 13 view .LVU2466
  86:../../libDaisy//src/dev/oled_ssd130x.h ****                 = SpiHandle::Config::Direction::TWO_LINES_TX_ONLY;
 9261              		.loc 4 86 13 view .LVU2467
  88:../../libDaisy//src/dev/oled_ssd130x.h ****             spi_config.clock_polarity = SpiHandle::Config::ClockPolarity::LOW;
 9262              		.loc 4 88 13 view .LVU2468
  89:../../libDaisy//src/dev/oled_ssd130x.h ****             spi_config.clock_phase    = SpiHandle::Config::ClockPhase::ONE_EDGE;
 9263              		.loc 4 89 13 view .LVU2469
  90:../../libDaisy//src/dev/oled_ssd130x.h ****             spi_config.nss            = SpiHandle::Config::NSS::HARD_OUTPUT;
 9264              		.loc 4 90 13 view .LVU2470
  91:../../libDaisy//src/dev/oled_ssd130x.h ****             spi_config.baud_prescaler = SpiHandle::Config::BaudPrescaler::PS_8;
 9265              		.loc 4 91 13 view .LVU2471
  92:../../libDaisy//src/dev/oled_ssd130x.h ****             // SPI pin config
 9266              		.loc 4 92 13 view .LVU2472
  94:../../libDaisy//src/dev/oled_ssd130x.h ****             spi_config.pin_config.miso = {DSY_GPIOX, 0};
 9267              		.loc 4 94 13 view .LVU2473
  95:../../libDaisy//src/dev/oled_ssd130x.h ****             spi_config.pin_config.mosi = {DSY_GPIOB, 5};
 9268              		.loc 4 95 13 view .LVU2474
  96:../../libDaisy//src/dev/oled_ssd130x.h ****             spi_config.pin_config.nss  = {DSY_GPIOG, 10};
 9269              		.loc 4 96 13 view .LVU2475
  97:../../libDaisy//src/dev/oled_ssd130x.h ****             // SSD130x control pin config
 9270              		.loc 4 97 13 view .LVU2476
 9271              	.LBB1997:
 9272              	.LBB1993:
 9273              	.LBB1989:
 9274              	.LBB1985:
  71:../../libDaisy//src/dev/oled_ssd130x.h ****             // Initialize using defaults
 9275              		.loc 4 71 9 is_stmt 0 view .LVU2477
 9276 0008 1F4B     		ldr	r3, .L587
ARM GAS  /var/folders/1y/_321xjh9623c014x9_qw12rr0000gn/T//ccqHcGuP.s 			page 241


 9277              	.LBE1985:
 9278              	.LBE1989:
 9279              	.LBE1993:
 9280              	.LBE1997:
  92:Dubby.cpp     **** {
 9281              		.loc 2 92 1 view .LVU2478
 9282 000a 0646     		mov	r6, r0
  95:Dubby.cpp     ****     disp_cfg.driver_config.transport_config.pin_config.dc    = seed.GetPin(9);
 9283              		.loc 2 95 77 view .LVU2479
 9284 000c 0920     		movs	r0, #9
 9285              	.LVL697:
 9286              	.LBB1998:
 9287              	.LBB1999:
  25:../../libDaisy//src/hid/disp/oled_display.h **** 
 9288              		.loc 1 25 44 view .LVU2480
 9289 000e 16AD     		add	r5, sp, #88
 9290 0010 6C46     		mov	r4, sp
 9291              	.LBE1999:
 9292              	.LBE1998:
 9293              	.LBB2002:
 9294              	.LBB1994:
 9295              	.LBB1990:
 9296              	.LBB1986:
  71:../../libDaisy//src/dev/oled_ssd130x.h ****             // Initialize using defaults
 9297              		.loc 4 71 9 view .LVU2481
 9298 0012 CDE90823 		strd	r2, r3, [sp, #32]
 9299              	.LBE1986:
 9300              	.LBE1990:
 9301              	.LBE1994:
 9302              	.LBE2002:
  99:../../libDaisy//src/dev/oled_ssd130x.h ****             pin_config.reset = {DSY_GPIOB, 15};
 9303              		.loc 4 99 13 is_stmt 1 view .LVU2482
 100:../../libDaisy//src/dev/oled_ssd130x.h ****         }
 9304              		.loc 4 100 13 view .LVU2483
 9305              	.LVL698:
  95:Dubby.cpp     ****     disp_cfg.driver_config.transport_config.pin_config.dc    = seed.GetPin(9);
 9306              		.loc 2 95 5 view .LVU2484
  95:Dubby.cpp     ****     disp_cfg.driver_config.transport_config.pin_config.dc    = seed.GetPin(9);
 9307              		.loc 2 95 77 is_stmt 0 view .LVU2485
 9308 0016 FFF7FEFF 		bl	_ZN5daisy9DaisySeed6GetPinEh
 9309              	.LVL699:
 9310 001a 0346     		mov	r3, r0	@ movhi
  96:Dubby.cpp     ****     disp_cfg.driver_config.transport_config.pin_config.reset = seed.GetPin(31);
 9311              		.loc 2 96 78 view .LVU2486
 9312 001c 1F20     		movs	r0, #31
  95:Dubby.cpp     ****     disp_cfg.driver_config.transport_config.pin_config.dc    = seed.GetPin(9);
 9313              		.loc 2 95 77 view .LVU2487
 9314 001e ADF84830 		strh	r3, [sp, #72]	@ movhi
  96:Dubby.cpp     ****     disp_cfg.driver_config.transport_config.pin_config.reset = seed.GetPin(31);
 9315              		.loc 2 96 5 is_stmt 1 view .LVU2488
  96:Dubby.cpp     ****     disp_cfg.driver_config.transport_config.pin_config.reset = seed.GetPin(31);
 9316              		.loc 2 96 78 is_stmt 0 view .LVU2489
 9317 0022 FFF7FEFF 		bl	_ZN5daisy9DaisySeed6GetPinEh
 9318              	.LVL700:
 9319 0026 0222     		movs	r2, #2
 9320 0028 0B21     		movs	r1, #11
 9321 002a 0023     		movs	r3, #0
ARM GAS  /var/folders/1y/_321xjh9623c014x9_qw12rr0000gn/T//ccqHcGuP.s 			page 242


 9322 002c 0DF1200E 		add	lr, sp, #32
 9323 0030 ADF82210 		strh	r1, [sp, #34]	@ movhi
 9324 0034 0121     		movs	r1, #1
 9325 0036 ADF84A00 		strh	r0, [sp, #74]	@ movhi
  98:Dubby.cpp     ****     display.Init(disp_cfg);
 9326              		.loc 2 98 5 is_stmt 1 view .LVU2490
 9327              	.LVL701:
  98:Dubby.cpp     ****     display.Init(disp_cfg);
 9328              		.loc 2 98 5 is_stmt 0 view .LVU2491
 9329 003a 0DF14C0C 		add	ip, sp, #76
 9330 003e 0A93     		str	r3, [sp, #40]
 9331              	.LBB2003:
 9332              	.LBB2000:
  25:../../libDaisy//src/hid/disp/oled_display.h **** 
 9333              		.loc 1 25 44 view .LVU2492
 9334 0040 6746     		mov	r7, ip
 9335 0042 CDE91022 		strd	r2, r2, [sp, #64]
 9336 0046 0822     		movs	r2, #8
 9337 0048 CDE90E33 		strd	r3, r3, [sp, #56]
 9338 004c CDE90B31 		strd	r3, r1, [sp, #44]
 9339 0050 0D92     		str	r2, [sp, #52]
 9340 0052 BEE80F00 		ldmia	lr!, {r0, r1, r2, r3}
 9341 0056 ACE80F00 		stmia	ip!, {r0, r1, r2, r3}
 9342 005a BEE80F00 		ldmia	lr!, {r0, r1, r2, r3}
 9343 005e ACE80F00 		stmia	ip!, {r0, r1, r2, r3}
 9344 0062 9EE80700 		ldm	lr, {r0, r1, r2}
 9345 0066 8CE80700 		stm	ip, {r0, r1, r2}
 9346              	.LBE2000:
 9347              	.LBI1998:
  25:../../libDaisy//src/hid/disp/oled_display.h **** 
 9348              		.loc 1 25 10 is_stmt 1 view .LVU2493
 9349              	.LBB2001:
  25:../../libDaisy//src/hid/disp/oled_display.h **** 
 9350              		.loc 1 25 44 is_stmt 0 view .LVU2494
 9351 006a 0FCD     		ldmia	r5!, {r0, r1, r2, r3}
 9352 006c 0FC4     		stmia	r4!, {r0, r1, r2, r3}
 9353 006e 95E80F00 		ldm	r5, {r0, r1, r2, r3}
 9354 0072 84E80F00 		stm	r4, {r0, r1, r2, r3}
 9355 0076 06F58B60 		add	r0, r6, #1112
 9356 007a 97E80E00 		ldm	r7, {r1, r2, r3}
 9357 007e FFF7FEFF 		bl	_ZN5daisy13SSD130xDriverILj128ELj64ENS_24SSD130x4WireSpiTransportEE4InitENS2_6ConfigE
 9358              	.LVL702:
  25:../../libDaisy//src/hid/disp/oled_display.h **** 
 9359              		.loc 1 25 44 view .LVU2495
 9360              	.LBE2001:
 9361              	.LBE2003:
  99:Dubby.cpp     **** }
 9362              		.loc 2 99 1 view .LVU2496
 9363 0082 1FB0     		add	sp, sp, #124
 9364              		.cfi_def_cfa_offset 20
 9365              		@ sp needed
 9366 0084 F0BD     		pop	{r4, r5, r6, r7, pc}
 9367              	.LVL703:
 9368              	.L588:
  99:Dubby.cpp     **** }
 9369              		.loc 2 99 1 view .LVU2497
 9370 0086 00BF     		.align	2
ARM GAS  /var/folders/1y/_321xjh9623c014x9_qw12rr0000gn/T//ccqHcGuP.s 			page 243


 9371              	.L587:
 9372 0088 0105060A 		.word	168166657
 9373              		.cfi_endproc
 9374              	.LFE2571:
 9376              		.section	.text._ZN5daisy5Dubby4InitEv,"ax",%progbits
 9377              		.align	1
 9378              		.p2align 2,,3
 9379              		.global	_ZN5daisy5Dubby4InitEv
 9380              		.syntax unified
 9381              		.thumb
 9382              		.thumb_func
 9384              	_ZN5daisy5Dubby4InitEv:
 9385              	.LVL704:
 9386              	.LFB2568:
  37:Dubby.cpp     **** {
 9387              		.loc 2 37 1 is_stmt 1 view -0
 9388              		.cfi_startproc
 9389              		@ args = 0, pretend = 0, frame = 16
 9390              		@ frame_needed = 0, uses_anonymous_args = 0
  38:Dubby.cpp     ****     InitControls();
 9391              		.loc 2 38 5 view .LVU2499
  37:Dubby.cpp     **** {
 9392              		.loc 2 37 1 is_stmt 0 view .LVU2500
 9393 0000 30B5     		push	{r4, r5, lr}
 9394              		.cfi_def_cfa_offset 12
 9395              		.cfi_offset 4, -12
 9396              		.cfi_offset 5, -8
 9397              		.cfi_offset 14, -4
 9398 0002 0546     		mov	r5, r0
 9399 0004 85B0     		sub	sp, sp, #20
 9400              		.cfi_def_cfa_offset 32
  38:Dubby.cpp     ****     InitControls();
 9401              		.loc 2 38 17 view .LVU2501
 9402 0006 FFF7FEFF 		bl	_ZN5daisy5Dubby12InitControlsEv
 9403              	.LVL705:
  39:Dubby.cpp     ****     InitButtons();
 9404              		.loc 2 39 5 is_stmt 1 view .LVU2502
  39:Dubby.cpp     ****     InitButtons();
 9405              		.loc 2 39 16 is_stmt 0 view .LVU2503
 9406 000a 2846     		mov	r0, r5
 9407 000c FFF7FEFF 		bl	_ZN5daisy5Dubby11InitButtonsEv
 9408              	.LVL706:
  41:Dubby.cpp     ****     screen_update_period_ = 17; // roughly 60Hz
 9409              		.loc 2 41 5 is_stmt 1 view .LVU2504
  41:Dubby.cpp     ****     screen_update_period_ = 17; // roughly 60Hz
 9410              		.loc 2 41 27 is_stmt 0 view .LVU2505
 9411 0010 1123     		movs	r3, #17
 9412 0012 C5F87038 		str	r3, [r5, #2160]
  42:Dubby.cpp     ****     screen_update_last_   = seed.system.GetNow();
 9413              		.loc 2 42 5 is_stmt 1 view .LVU2506
  42:Dubby.cpp     ****     screen_update_last_   = seed.system.GetNow();
 9414              		.loc 2 42 47 is_stmt 0 view .LVU2507
 9415 0016 FFF7FEFF 		bl	_ZN5daisy6System6GetNowEv
 9416              	.LVL707:
 9417 001a 2B46     		mov	r3, r5
  42:Dubby.cpp     ****     screen_update_last_   = seed.system.GetNow();
 9418              		.loc 2 42 27 view .LVU2508
ARM GAS  /var/folders/1y/_321xjh9623c014x9_qw12rr0000gn/T//ccqHcGuP.s 			page 244


 9419 001c 0122     		movs	r2, #1
 9420 001e C5F86C08 		str	r0, [r5, #2156]
  44:Dubby.cpp     ****     for (int i = 0; i < 5; i++) 
 9421              		.loc 2 44 5 is_stmt 1 view .LVU2509
 9422              	.LVL708:
 9423              	.LBB2007:
  44:Dubby.cpp     ****     for (int i = 0; i < 5; i++) 
 9424              		.loc 2 44 23 view .LVU2510
 9425              	.L590:
  46:Dubby.cpp     ****         submenuBoxBounding[i][0] = SUBMENU_X_START;
 9426              		.loc 2 46 9 discriminator 2 view .LVU2511
  47:Dubby.cpp     ****         submenuBoxBounding[i][1] = SUBMENU_Y_START + i * 10;
 9427              		.loc 2 47 34 is_stmt 0 discriminator 2 view .LVU2512
 9428 0022 C3F8A820 		str	r2, [r3, #168]
  46:Dubby.cpp     ****         submenuBoxBounding[i][0] = SUBMENU_X_START;
 9429              		.loc 2 46 34 discriminator 2 view .LVU2513
 9430 0026 0124     		movs	r4, #1
 9431 0028 0A32     		adds	r2, r2, #10
  48:Dubby.cpp     ****         submenuBoxBounding[i][2] = SUBMENU_X_END;
 9432              		.loc 2 48 34 discriminator 2 view .LVU2514
 9433 002a 3F21     		movs	r1, #63
  46:Dubby.cpp     ****         submenuBoxBounding[i][0] = SUBMENU_X_START;
 9434              		.loc 2 46 34 discriminator 2 view .LVU2515
 9435 002c C3F8A440 		str	r4, [r3, #164]
  47:Dubby.cpp     ****         submenuBoxBounding[i][1] = SUBMENU_Y_START + i * 10;
 9436              		.loc 2 47 9 is_stmt 1 discriminator 2 view .LVU2516
  48:Dubby.cpp     ****         submenuBoxBounding[i][2] = SUBMENU_X_END;
 9437              		.loc 2 48 9 discriminator 2 view .LVU2517
  44:Dubby.cpp     ****     for (int i = 0; i < 5; i++) 
 9438              		.loc 2 44 23 is_stmt 0 discriminator 2 view .LVU2518
 9439 0030 1033     		adds	r3, r3, #16
 9440 0032 332A     		cmp	r2, #51
  49:Dubby.cpp     ****         submenuBoxBounding[i][3] = SUBMENU_Y_END + i * 10;
 9441              		.loc 2 49 34 discriminator 2 view .LVU2519
 9442 0034 C3E92712 		strd	r1, r2, [r3, #156]
  44:Dubby.cpp     ****     for (int i = 0; i < 5; i++) 
 9443              		.loc 2 44 5 is_stmt 1 discriminator 2 view .LVU2520
  44:Dubby.cpp     ****     for (int i = 0; i < 5; i++) 
 9444              		.loc 2 44 23 discriminator 2 view .LVU2521
 9445 0038 F3D1     		bne	.L590
 9446              	.LBE2007:
  52:Dubby.cpp     ****     InitDisplay();
 9447              		.loc 2 52 5 view .LVU2522
  52:Dubby.cpp     ****     InitDisplay();
 9448              		.loc 2 52 16 is_stmt 0 view .LVU2523
 9449 003a 2846     		mov	r0, r5
 9450 003c FFF7FEFF 		bl	_ZN5daisy5Dubby11InitDisplayEv
 9451              	.LVL709:
  53:Dubby.cpp     ****     InitEncoder();
 9452              		.loc 2 53 5 is_stmt 1 view .LVU2524
 9453              	.LBB2008:
 9454              	.LBI2008:
 320:Dubby.cpp     **** void Dubby::InitEncoder()
 9455              		.loc 2 320 6 view .LVU2525
 9456              	.LBB2009:
 322:Dubby.cpp     ****     encoder.Init(seed.GetPin(PIN_ENC_A),
 9457              		.loc 2 322 5 view .LVU2526
ARM GAS  /var/folders/1y/_321xjh9623c014x9_qw12rr0000gn/T//ccqHcGuP.s 			page 245


 322:Dubby.cpp     ****     encoder.Init(seed.GetPin(PIN_ENC_A),
 9458              		.loc 2 322 17 is_stmt 0 view .LVU2527
 9459 0040 0620     		movs	r0, #6
 9460 0042 FFF7FEFF 		bl	_ZN5daisy9DaisySeed6GetPinEh
 9461              	.LVL710:
 9462 0046 0346     		mov	r3, r0	@ movhi
 9463 0048 0520     		movs	r0, #5
 9464 004a ADF80430 		strh	r3, [sp, #4]	@ movhi
 9465 004e FFF7FEFF 		bl	_ZN5daisy9DaisySeed6GetPinEh
 9466              	.LVL711:
 9467 0052 0346     		mov	r3, r0	@ movhi
 9468 0054 0420     		movs	r0, #4
 9469 0056 ADF80830 		strh	r3, [sp, #8]	@ movhi
 9470 005a FFF7FEFF 		bl	_ZN5daisy9DaisySeed6GetPinEh
 9471              	.LVL712:
 9472 005e ADF80C00 		strh	r0, [sp, #12]	@ movhi
 9473 0062 05F1F400 		add	r0, r5, #244
 9474 0066 9FED060A 		vldr.32	s0, .L593
 9475 006a 039B     		ldr	r3, [sp, #12]
 9476 006c DDE90112 		ldrd	r1, r2, [sp, #4]
 9477 0070 FFF7FEFF 		bl	_ZN5daisy7Encoder4InitE12dsy_gpio_pinS1_S1_f
 9478              	.LVL713:
 322:Dubby.cpp     ****     encoder.Init(seed.GetPin(PIN_ENC_A),
 9479              		.loc 2 322 17 view .LVU2528
 9480              	.LBE2009:
 9481              	.LBE2008:
  54:Dubby.cpp     ****     InitAudio();
 9482              		.loc 2 54 5 is_stmt 1 view .LVU2529
  54:Dubby.cpp     ****     InitAudio();
 9483              		.loc 2 54 14 is_stmt 0 view .LVU2530
 9484 0074 2846     		mov	r0, r5
  55:Dubby.cpp     **** }
 9485              		.loc 2 55 1 view .LVU2531
 9486 0076 05B0     		add	sp, sp, #20
 9487              		.cfi_def_cfa_offset 12
 9488              		@ sp needed
 9489 0078 BDE83040 		pop	{r4, r5, lr}
 9490              		.cfi_restore 14
 9491              		.cfi_restore 5
 9492              		.cfi_restore 4
 9493              		.cfi_def_cfa_offset 0
 9494              	.LVL714:
  54:Dubby.cpp     ****     InitAudio();
 9495              		.loc 2 54 14 view .LVU2532
 9496 007c FFF7FEBF 		b	_ZN5daisy5Dubby9InitAudioEv
 9497              	.LVL715:
 9498              	.L594:
  54:Dubby.cpp     ****     InitAudio();
 9499              		.loc 2 54 14 view .LVU2533
 9500              		.align	2
 9501              	.L593:
 9502 0080 00000000 		.word	0
 9503              		.cfi_endproc
 9504              	.LFE2568:
 9506              		.section	.rodata
 9507              		.align	2
 9508              		.set	.LANCHOR1,. + 0
ARM GAS  /var/folders/1y/_321xjh9623c014x9_qw12rr0000gn/T//ccqHcGuP.s 			page 246


 9509              	.LC5:
 9510 0000 04       		.byte	4
 9511 0001 06       		.byte	6
 9512 0002 0000     		.space	2
 9513              	.LC6:
 9514 0004 04       		.byte	4
 9515 0005 03       		.byte	3
 9516 0006 0000     		.space	2
 9517              	.LC7:
 9518 0008 04       		.byte	4
 9519 0009 04       		.byte	4
 9520 000a 0000     		.space	2
 9521              	.LC8:
 9522 000c 04       		.byte	4
 9523 000d 02       		.byte	2
 9524 000e 0000     		.space	2
 9525              	.LC9:
 9526 0010 04       		.byte	4
 9527 0011 05       		.byte	5
 9528 0012 0000     		.space	2
 9529              	.LC10:
 9530 0014 01       		.byte	1
 9531 0015 08       		.byte	8
 9532 0016 0000     		.space	2
 9533              	.LC11:
 9534 0018 01       		.byte	1
 9535 0019 09       		.byte	9
 9536 001a 0000     		.space	2
 9537              	.LC12:
 9538 001c 06       		.byte	6
 9539 001d 09       		.byte	9
 9540 001e 0000     		.space	2
 9541              	.LC13:
 9542 0020 03       		.byte	3
 9543 0021 0B       		.byte	11
 9544              		.section	.rodata._ZL7bitmaps,"a"
 9545              		.align	2
 9546              		.set	.LANCHOR0,. + 0
 9549              	_ZL7bitmaps:
 9550 0000 00000000 		.ascii	"\000\000\000\000\000\000\000\000\000\000\000\000\000"
 9550      00000000 
 9550      00000000 
 9550      00
 9551 000d 00000000 		.ascii	"\000\000\000\000\000\000\000\000\000\000\004\000\000"
 9551      00000000 
 9551      00000400 
 9551      00
 9552 001a 00000000 		.ascii	"\000\000\000\000\000\000\000\000\000\000\000\000\000"
 9552      00000000 
 9552      00000000 
 9552      00
 9553 0027 FE000000 		.ascii	"\376\000\000\000\000\000\000\000\000\000\000\000\000"
 9553      00000000 
 9553      00000000 
 9553      00
 9554 0034 000007FF 		.ascii	"\000\000\007\377\000\000\000\000\000\000\000\000\000"
 9554      00000000 
ARM GAS  /var/folders/1y/_321xjh9623c014x9_qw12rr0000gn/T//ccqHcGuP.s 			page 247


 9554      00000000 
 9554      00
 9555 0041 00000000 		.ascii	"\000\000\000\000\000\037\377\200\000\000\000\000\000"
 9555      001FFF80 
 9555      00000000 
 9555      00
 9556 004e 00000000 		.ascii	"\000\000\000\000\000\000\000\000?\377\300\000\000\000"
 9556      00000000 
 9556      3FFFC000 
 9556      0000
 9557 005c 00000000 		.ascii	"\000\000\000\000\000\000\000\000\000\000?\377\340\000"
 9557      00000000 
 9557      00003FFF 
 9557      E000
 9558 006a 00000000 		.ascii	"\000\000\000\000\000\000\000\000\000\000\000\000?\377"
 9558      00000000 
 9558      00000000 
 9558      3FFF
 9559 0078 F0000000 		.ascii	"\360\000\000\000\000\000\000\000\000\000\000\000\000"
 9559      00000000 
 9559      00000000 
 9559      00
 9560 0085 003FFFF8 		.ascii	"\000?\377\370\000\000\000\000\000\000\000\000\000\000"
 9560      00000000 
 9560      00000000 
 9560      0000
 9561 0093 0000007F 		.ascii	"\000\000\000\177\377\370\000\000\000\000\000\000\000"
 9561      FFF80000 
 9561      00000000 
 9561      00
 9562 00a0 00000000 		.ascii	"\000\000\000\000\000\000\177\377\370\000\000\000\000"
 9562      00007FFF 
 9562      F8000000 
 9562      00
 9563 00ad 00000000 		.ascii	"\000\000\000\000\000\000\000\000\000\177\377\370\000"
 9563      00000000 
 9563      007FFFF8 
 9563      00
 9564 00ba 00000000 		.ascii	"\000\000\000\000\000\000\000\000\000\000\000\000\177"
 9564      00000000 
 9564      00000000 
 9564      7F
 9565 00c7 FFF80000 		.ascii	"\377\370\000\000\000\000\000\000\000\000\000\000\000"
 9565      00000000 
 9565      00000000 
 9565      00
 9566 00d4 0000FFFF 		.ascii	"\000\000\377\377\360\000\000\000\000\000\000\000\000"
 9566      F0000000 
 9566      00000000 
 9566      00
 9567 00e1 00000000 		.ascii	"\000\000\000\000\000\377\377\360\000\000\000\000\000"
 9567      00FFFFF0 
 9567      00000000 
 9567      00
 9568 00ee 00000000 		.ascii	"\000\000\000\000\000\000\000\000\177\377\360\000\000"
 9568      00000000 
 9568      7FFFF000 
ARM GAS  /var/folders/1y/_321xjh9623c014x9_qw12rr0000gn/T//ccqHcGuP.s 			page 248


 9568      00
 9569 00fb 00000000 		.ascii	"\000\000\000\000\000\000\000\000\000\000\006?\377\360"
 9569      00000000 
 9569      0000063F 
 9569      FFF0
 9570 0109 00000000 		.ascii	"\000\000\000\000\000\000\000\000\000\000\000\000??\377"
 9570      00000000 
 9570      00000000 
 9570      3F3FFF
 9571 0118 E0000000 		.ascii	"\340\000\000\000\000\000\000\000\000\000\000\000\007"
 9571      00000000 
 9571      00000000 
 9571      07
 9572 0125 FFCFFFE0 		.ascii	"\377\317\377\340\000\000\000\000\000\000\000\000\000"
 9572      00000000 
 9572      00000000 
 9572      00
 9573 0132 00000FFF 		.ascii	"\000\000\017\377\307\377\340\000\000\000\000\000\000"
 9573      C7FFE000 
 9573      00000000 
 9573      00
 9574 013f 00000000 		.ascii	"\000\000\000\000\000\037\377\343\376\000\000\000\000"
 9574      001FFFE3 
 9574      FE000000 
 9574      00
 9575 014c 00000000 		.ascii	"\000\000\000\000\000\000\000\000\037\377\361\360\000"
 9575      00000000 
 9575      1FFFF1F0 
 9575      00
 9576 0159 00000000 		.ascii	"\000\000\000\000\000\000\000\000\000\000\000\037\377"
 9576      00000000 
 9576      0000001F 
 9576      FF
 9577 0166 F8000000 		.ascii	"\370\000\000\000\000\000\000\000\000\000\000\000\000"
 9577      00000000 
 9577      00000000 
 9577      00
 9578 0173 001FFFFC 		.ascii	"\000\037\377\374\000\000\000\000\000\000\000\000\000"
 9578      00000000 
 9578      00000000 
 9578      00
 9579 0180 00000000 		.ascii	"\000\000\000\000?\377\376\000\000\000\000\000\000\000"
 9579      3FFFFE00 
 9579      00000000 
 9579      0000
 9580 018e 00000000 		.ascii	"\000\000\000\000\000\000?\377\376\000\000\000\000\000"
 9580      00003FFF 
 9580      FE000000 
 9580      0000
 9581 019c 00000000 		.ascii	"\000\000\000\000\000\000\000\000?\377\374\000\000\000"
 9581      00000000 
 9581      3FFFFC00 
 9581      0000
 9582 01aa 00000000 		.ascii	"\000\000\000\000\000\000\000\000\000\000?\377\374\000"
 9582      00000000 
 9582      00003FFF 
 9582      FC00
ARM GAS  /var/folders/1y/_321xjh9623c014x9_qw12rr0000gn/T//ccqHcGuP.s 			page 249


 9583 01b8 00000700 		.ascii	"\000\000\007\000\000\000\000\000\000\000\000\000?\377"
 9583      00000000 
 9583      00000000 
 9583      3FFF
 9584 01c6 FC000000 		.ascii	"\374\000\000\000\177\200\000\000\000\000\000\000\000"
 9584      7F800000 
 9584      00000000 
 9584      00
 9585 01d3 003FFFF8 		.ascii	"\000?\377\370\000\000\007\377\340\000\000\000\000\000"
 9585      000007FF 
 9585      E0000000 
 9585      0000
 9586 01e1 0000003F 		.ascii	"\000\000\000?\377\370\000\000\017\377\360\000\000\000"
 9586      FFF80000 
 9586      0FFFF000 
 9586      0000
 9587 01ef 00000000 		.ascii	"\000\000\000\000\000\037\377\370\000\000\017\377\370"
 9587      001FFFF8 
 9587      00000FFF 
 9587      F8
 9588 01fc 00000000 		.ascii	"\000\000\000\000\000\000\000\000\017\377\370\000\000"
 9588      00000000 
 9588      0FFFF800 
 9588      00
 9589 0209 0FFFFC00 		.ascii	"\017\377\374\000\000\000\000\000\000\000\000\007\377"
 9589      00000000 
 9589      00000007 
 9589      FF
 9590 0216 F000000F 		.ascii	"\360\000\000\017\377\374\000\000\000\000\000\000\000"
 9590      FFFC0000 
 9590      00000000 
 9590      00
 9591 0223 0003FFF0 		.ascii	"\000\003\377\360\000\000\037\377\376\000\000\000\000"
 9591      00001FFF 
 9591      FE000000 
 9591      00
 9592 0230 00000000 		.ascii	"\000\000\000\000\001\377\000\000\000\037\377\376\000"
 9592      01FF0000 
 9592      001FFFFE 
 9592      00
 9593 023d 00000000 		.ascii	"\000\000\000\000\000\000\000\000\370\030\000\000\037"
 9593      00000000 
 9593      F8180000 
 9593      1F
 9594 024a FFFE0000 		.ascii	"\377\376\000\000\000\000\000\000\000\000\000\000\374"
 9594      00000000 
 9594      00000000 
 9594      FC
 9595 0257 00003FFF 		.ascii	"\000\000?\377\376\000\000\000\000\000\000\000\000\000"
 9595      FE000000 
 9595      00000000 
 9595      0000
 9596 0265 07FE0000 		.ascii	"\007\376\000\000?\377\374\000\000\000\000\000\000\000"
 9596      3FFFFC00 
 9596      00000000 
 9596      0000
 9597 0273 00003FFF 		.ascii	"\000\000?\377\000\000?\377\374\000\000\000\000\000\000"
ARM GAS  /var/folders/1y/_321xjh9623c014x9_qw12rr0000gn/T//ccqHcGuP.s 			page 250


 9597      00003FFF 
 9597      FC000000 
 9597      000000
 9598 0282 0000007F 		.ascii	"\000\000\000\177\377\200\000?\377\374\000\000\000\000"
 9598      FF80003F 
 9598      FFFC0000 
 9598      0000
 9599 0290 00000000 		.ascii	"\000\000\000\000\000\177\377\300\000\037\377\374\000"
 9599      007FFFC0 
 9599      001FFFFC 
 9599      00
 9600 029d 00000000 		.ascii	"\000\000\000\000\000\000\000\000\177\377\340\007\317"
 9600      00000000 
 9600      7FFFE007 
 9600      CF
 9601 02aa FFFC0000 		.ascii	"\377\374\000\000\000\000\000\000\000\000\000\377\377"
 9601      00000000 
 9601      000000FF 
 9601      FF
 9602 02b7 F03FE7FF 		.ascii	"\360?\347\377\370\000\000\000\000\000\000\000\000\000"
 9602      F8000000 
 9602      00000000 
 9602      0000
 9603 02c5 FFFFF3FF 		.ascii	"\377\377\363\377\363\377\370\000\000\000\000\000\000"
 9603      F3FFF800 
 9603      00000000 
 9603      00
 9604 02d2 000000FF 		.ascii	"\000\000\000\377\377\367\377\371\377\360\000\000\000"
 9604      FFF7FFF9 
 9604      FFF00000 
 9604      00
 9605 02df 00000000 		.ascii	"\000\000\000\000\000\000\377\377\367\377\374\376\000"
 9605      0000FFFF 
 9605      F7FFFCFE 
 9605      00
 9606 02ec 00000000 		.ascii	"\000\000\000\000\000\000\000\000\001\377\377\367\377"
 9606      00000000 
 9606      01FFFFF7 
 9606      FF
 9607 02f9 FE700000 		.ascii	"\376p\000\000\000\000\000\000\000\000\000\001\377\377"
 9607      00000000 
 9607      00000001 
 9607      FFFF
 9608 0307 E7FFFF00 		.ascii	"\347\377\377\000\000\000\000\000\000\000\000\000\000"
 9608      00000000 
 9608      00000000 
 9608      00
 9609 0314 01FFFFE7 		.ascii	"\001\377\377\347\377\377\200\000\000\000\000\000\000"
 9609      FFFF8000 
 9609      00000000 
 9609      00
 9610 0321 00000001 		.ascii	"\000\000\000\001\377\377\357\377\377\000\000\000\000"
 9610      FFFFEFFF 
 9610      FF000000 
 9610      00
 9611 032e 00000000 		.ascii	"\000\000\000\000\000\000\000\377\377\317\377\377\000"
 9611      000000FF 
ARM GAS  /var/folders/1y/_321xjh9623c014x9_qw12rr0000gn/T//ccqHcGuP.s 			page 251


 9611      FFCFFFFF 
 9611      00
 9612 033b 00000000 		.ascii	"\000\000\000\000\000\000\000\000\000\000\177\377\317"
 9612      00000000 
 9612      00007FFF 
 9612      CF
 9613 0348 FFFF0000 		.ascii	"\377\377\000\000\000\000\000\000\000\000\000\000\000"
 9613      00000000 
 9613      00000000 
 9613      00
 9614 0355 3FFFDFFF 		.ascii	"?\377\337\377\377\000\000\000\000\000\000\000\000\000"
 9614      FF000000 
 9614      00000000 
 9614      0000
 9615 0363 00001FFF 		.ascii	"\000\000\037\377\237\377\376\000\000\000\000\000\000"
 9615      9FFFFE00 
 9615      00000000 
 9615      00
 9616 0370 00000000 		.ascii	"\000\000\000\000\000\017\376\037\377\376\000\000\000"
 9616      000FFE1F 
 9616      FFFE0000 
 9616      00
 9617 037d 00000000 		.ascii	"\000\000\000\000\000\000\000\000\007\300\007\377\376"
 9617      00000000 
 9617      07C007FF 
 9617      FE
 9618 038a 00000000 		.ascii	"\000\000\000\000\000\000\000\000\000\000\000\000\000"
 9618      00000000 
 9618      00000000 
 9618      00
 9619 0397 07FFFC00 		.ascii	"\007\377\374\000\000\000\000\000\000\000\000\000\000"
 9619      00000000 
 9619      00000000 
 9619      00
 9620 03a4 00000003 		.ascii	"\000\000\000\003\377\374\000\000\000\000\000\000\000"
 9620      FFFC0000 
 9620      00000000 
 9620      00
 9621 03b1 00000000 		.ascii	"\000\000\000\000\000\000\001\377\374\000\000\000\000"
 9621      000001FF 
 9621      FC000000 
 9621      00
 9622 03be 00000000 		.ascii	"\000\000\000\000\000\000\000\000\000\000\377\360\000"
 9622      00000000 
 9622      0000FFF0 
 9622      00
 9623 03cb 00000000 		.ascii	"\000\000\000\000\000\000\000\000\000\000\000\000\000"
 9623      00000000 
 9623      00000000 
 9623      00
 9624 03d8 7F800000 		.ascii	"\177\200\000\000\000\000\000\000\000\000\000\000\000"
 9624      00000000 
 9624      00000000 
 9624      00
 9625 03e5 00000010 		.ascii	"\000\000\000\020\000\000\000\000\000\000\000\000\000"
 9625      00000000 
 9625      00000000 
ARM GAS  /var/folders/1y/_321xjh9623c014x9_qw12rr0000gn/T//ccqHcGuP.s 			page 252


 9625      00
 9626 03f2 00000000 		.ascii	"\000\000\000\000\000\000\000\000\000\000\000\000\000"
 9626      00000000 
 9626      00000000 
 9626      00
 9627 03ff 00       		.ascii	"\000"
 9628 0400 00000000 		.ascii	"\000\000\000\000\000\000\000\000\000\000\000\000\000"
 9628      00000000 
 9628      00000000 
 9628      00
 9629 040d 00000000 		.ascii	"\000\000\000\000\000\000\000\000\000\000\000\000\000"
 9629      00000000 
 9629      00000000 
 9629      00
 9630 041a 00000000 		.ascii	"\000\000\000\000\000\000\000\000\000\000\000\000\000"
 9630      00000000 
 9630      00000000 
 9630      00
 9631 0427 00000000 		.ascii	"\000\000\000\000\000\000\000\000\000\000\000\000\000"
 9631      00000000 
 9631      00000000 
 9631      00
 9632 0434 0001FC00 		.ascii	"\000\001\374\000\000?\200\000\000\000\000\000\000\000"
 9632      003F8000 
 9632      00000000 
 9632      0000
 9633 0442 00000007 		.ascii	"\000\000\000\007\377\000\000\377\300\000\000\000\000"
 9633      FF0000FF 
 9633      C0000000 
 9633      00
 9634 044f 00000000 		.ascii	"\000\000\000\000\000\000\017\377\000\000\377\300\000"
 9634      00000FFF 
 9634      0000FFC0 
 9634      00
 9635 045c 00000000 		.ascii	"\000\000\000\000\000\000\000\000\000\036\007\300\003"
 9635      00000000 
 9635      001E07C0 
 9635      03
 9636 0469 E3C00000 		.ascii	"\343\300\000\000\000\000\000\000\000\000\000\000<\001"
 9636      00000000 
 9636      00000000 
 9636      3C01
 9637 0477 E0078780 		.ascii	"\340\007\207\200\000\000\000\000\000\000\000\000\000"
 9637      00000000 
 9637      00000000 
 9637      00
 9638 0484 003830E0 		.ascii	"\00080\340\007\016\034\000\000\000\000\000\000\000\000"
 9638      070E1C00 
 9638      00000000 
 9638      000000
 9639 0493 000071F8 		.ascii	"\000\000q\370\340\007\014>\000\000\000\000\000\000\000"
 9639      E0070C3E 
 9639      00000000 
 9639      000000
 9640 04a2 00000071 		.ascii	"\000\000\000q\374p\016\014>\000\000\000\000\000\000"
 9640      FC700E0C 
 9640      3E000000 
ARM GAS  /var/folders/1y/_321xjh9623c014x9_qw12rr0000gn/T//ccqHcGuP.s 			page 253


 9640      000000
 9641 04b1 00000000 		.ascii	"\000\000\000\000s\236p\016\014~\000\000\000\000\000"
 9641      739E700E 
 9641      0C7E0000 
 9641      000000
 9642 04c0 00000000 		.ascii	"\000\000\000\000\000s\216p\016\017\356\000\000\000\000"
 9642      00738E70 
 9642      0E0FEE00 
 9642      000000
 9643 04cf 00000000 		.ascii	"\000\000\000\000\000\000s\334p\016\007\316\000\000\000"
 9643      000073DC 
 9643      700E07CE 
 9643      000000
 9644 04de 00000000 		.ascii	"\000\000\000\000\000\000\000q\374p\016\000\016\000\000"
 9644      00000071 
 9644      FC700E00 
 9644      0E0000
 9645 04ed 00000000 		.ascii	"\000\000\000\000\000\000\000\000y\374x\036\000\036\000"
 9645      00000000 
 9645      79FC781E 
 9645      001E00
 9646 04fc 00000000 		.ascii	"\000\000\000\000\000\000\000\000\0008`<<\000\034\000"
 9646      00000000 
 9646      0038603C 
 9646      3C001C00 
 9647 050c 00000000 		.ascii	"\000\000\000\000\000\000\000\000\000<\000\036x\000<"
 9647      00000000 
 9647      003C001E 
 9647      78003C
 9648 051b 00000000 		.ascii	"\000\000\000\000\000\000\000\000\000\000\017\000\017"
 9648      00000000 
 9648      00000F00 
 9648      0F
 9649 0528 F000F000 		.ascii	"\360\000\360\000\000\000\000\000\000\000\000\000\000"
 9649      00000000 
 9649      00000000 
 9649      00
 9650 0535 0FFC07E0 		.ascii	"\017\374\007\340?\360\000\000\000\000\000\000\000\000"
 9650      3FF00000 
 9650      00000000 
 9650      0000
 9651 0543 000007FE 		.ascii	"\000\000\007\376\003\300\177\340\000\000\000\000\000"
 9651      03C07FE0 
 9651      00000000 
 9651      00
 9652 0550 00000000 		.ascii	"\000\000\000\000\000\000\377\007\200\377\000\000\000"
 9652      0000FF07 
 9652      80FF0000 
 9652      00
 9653 055d 00000000 		.ascii	"\000\000\000\000\000\000\000\000\000\007\217\001\340"
 9653      00000000 
 9653      00078F01 
 9653      E0
 9654 056a 00000000 		.ascii	"\000\000\000\000\000\000\000\000\000\000\000\000\003"
 9654      00000000 
 9654      00000000 
 9654      03
ARM GAS  /var/folders/1y/_321xjh9623c014x9_qw12rr0000gn/T//ccqHcGuP.s 			page 254


 9655 0577 DE03C000 		.ascii	"\336\003\300\000\000\000\000\000\000\000\000\000\000"
 9655      00000000 
 9655      00000000 
 9655      00
 9656 0584 000001FC 		.ascii	"\000\000\001\374\007\200\000\000\000\000\000\000\000"
 9656      07800000 
 9656      00000000 
 9656      00
 9657 0591 00000000 		.ascii	"\000\000\000\000\000\000\370\017\000\000\000\000\000"
 9657      0000F80F 
 9657      00000000 
 9657      00
 9658 059e 00000000 		.ascii	"\000\000\000\000\000\000\000\000\000\360\037\000\000"
 9658      00000000 
 9658      00F01F00 
 9658      00
 9659 05ab 00000000 		.ascii	"\000\000\000\000\000\000\000\000\000\000\000\001\340"
 9659      00000000 
 9659      00000001 
 9659      E0
 9660 05b8 3F800000 		.ascii	"?\200\000\000\000\000\000\000\000\000\000\000\000\000"
 9660      00000000 
 9660      00000000 
 9660      0000
 9661 05c6 03C07BC0 		.ascii	"\003\300{\300\000\000\000\000\000\000\000\000\000\000"
 9661      00000000 
 9661      00000000 
 9661      0000
 9662 05d4 00000780 		.ascii	"\000\000\007\200\361\340\000\000\000\000\000\000\000"
 9662      F1E00000 
 9662      00000000 
 9662      00
 9663 05e1 00000000 		.ascii	"\000\000\000\000\000\377\001\340\377\000\000\000\000"
 9663      00FF01E0 
 9663      FF000000 
 9663      00
 9664 05ee 00000000 		.ascii	"\000\000\000\000\000\000\000\007\376\003\300\177\300"
 9664      00000007 
 9664      FE03C07F 
 9664      C0
 9665 05fb 00000000 		.ascii	"\000\000\000\000\000\000\000\000\000\000\017\374\007"
 9665      00000000 
 9665      00000FFC 
 9665      07
 9666 0608 E03FF000 		.ascii	"\340?\360\000\000\000\000\000\000\000\000\000\000\017"
 9666      00000000 
 9666      00000000 
 9666      000F
 9667 0616 000FF000 		.ascii	"\000\017\360\000\360\000\000\000\000\000\000\000\000"
 9667      F0000000 
 9667      00000000 
 9667      00
 9668 0623 00003C00 		.ascii	"\000\000<\000\036x\000<\000\000\000\000\000\000\000"
 9668      1E78003C 
 9668      00000000 
 9668      000000
 9669 0632 00000038 		.ascii	"\000\000\0008\000<<\002\034\000\000\000\000\000\000"
ARM GAS  /var/folders/1y/_321xjh9623c014x9_qw12rr0000gn/T//ccqHcGuP.s 			page 255


 9669      003C3C02 
 9669      1C000000 
 9669      000000
 9670 0641 00000000 		.ascii	"\000\000\000\000x\000x\036\037\036\000\000\000\000\000"
 9670      7800781E 
 9670      1F1E0000 
 9670      000000
 9671 0650 00000000 		.ascii	"\000\000\000\000\000q\300p\016?\216\000\000\000\000"
 9671      0071C070 
 9671      0E3F8E00 
 9671      000000
 9672 065f 00000000 		.ascii	"\000\000\000\000\000\000s\340p\016?\316\000\000\000"
 9672      000073E0 
 9672      700E3FCE 
 9672      000000
 9673 066e 00000000 		.ascii	"\000\000\000\000\000\000\000w\360p\0161\316\000\000"
 9673      00000077 
 9673      F0700E31 
 9673      CE0000
 9674 067d 00000000 		.ascii	"\000\000\000\000\000\000\000\000~8p\016y\316\000\000"
 9674      00000000 
 9674      7E38700E 
 9674      79CE0000 
 9675 068d 00000000 		.ascii	"\000\000\000\000\000\000\000\000|8p\016?\216\000\000"
 9675      00000000 
 9675      7C38700E 
 9675      3F8E0000 
 9676 069d 00000000 		.ascii	"\000\000\000\000\000\000\000\000|8\340\007\037\216\000"
 9676      00000000 
 9676      7C38E007 
 9676      1F8E00
 9677 06ac 00000000 		.ascii	"\000\000\000\000\000\000\000\000\0008p\340\007\016\034"
 9677      00000000 
 9677      003870E0 
 9677      070E1C
 9678 06bb 00000000 		.ascii	"\000\000\000\000\000\000\000\000\000\000\001\341\340"
 9678      00000000 
 9678      000001E1 
 9678      E0
 9679 06c8 03803C00 		.ascii	"\003\200<\000\000\000\000\000\000\000\000\000\000\003"
 9679      00000000 
 9679      00000000 
 9679      0003
 9680 06d6 C7C003E0 		.ascii	"\307\300\003\340x\000\000\000\000\000\000\000\000\000"
 9680      78000000 
 9680      00000000 
 9680      0000
 9681 06e4 0003FF00 		.ascii	"\000\003\377\000\000\377\360\000\000\000\000\000\000"
 9681      00FFF000 
 9681      00000000 
 9681      00
 9682 06f1 00000000 		.ascii	"\000\000\000\000\003\377\000\000\377\340\000\000\000"
 9682      03FF0000 
 9682      FFE00000 
 9682      00
 9683 06fe 00000000 		.ascii	"\000\000\000\000\000\000\000\001\374\000\000?\200\000"
 9683      00000001 
ARM GAS  /var/folders/1y/_321xjh9623c014x9_qw12rr0000gn/T//ccqHcGuP.s 			page 256


 9683      FC00003F 
 9683      8000
 9684 070c 00000000 		.ascii	"\000\000\000\000\000\000\000\000\000\000\000\000\000"
 9684      00000000 
 9684      00000000 
 9684      00
 9685 0719 00000000 		.ascii	"\000\000\000\000\000\000\000\000\000\000\000\000\000"
 9685      00000000 
 9685      00000000 
 9685      00
 9686 0726 00000000 		.ascii	"\000\000\000\000\000\000\000\000\000\000\000\000\000"
 9686      00000000 
 9686      00000000 
 9686      00
 9687 0733 00000000 		.ascii	"\000\000\000\000\000\000\000\000\000\000\000\000\000"
 9687      00000000 
 9687      00000000 
 9687      00
 9688 0740 00000000 		.ascii	"\000\000\000\000\000\000\000\000\000\000\000\000\000"
 9688      00000000 
 9688      00000000 
 9688      00
 9689 074d 00000000 		.ascii	"\000\000\000\000\000\000\000\000\000\000\000\000\000"
 9689      00000000 
 9689      00000000 
 9689      00
 9690 075a 00000000 		.ascii	"\000\000\000\000\000\000\000\000\000\000\000\000\000"
 9690      00000000 
 9690      00000000 
 9690      00
 9691 0767 00000000 		.ascii	"\000\000\000\000\000\000\000\000\000\000\000\000\000"
 9691      00000000 
 9691      00000000 
 9691      00
 9692 0774 00000000 		.ascii	"\000\000\000\000\000\000\000\000\000\000\000\000\000"
 9692      00000000 
 9692      00000000 
 9692      00
 9693 0781 00000000 		.ascii	"\000\000\000\000\000\000\000\000\000\000\000\000\000"
 9693      00000000 
 9693      00000000 
 9693      00
 9694 078e 00000000 		.ascii	"\000\000\000\000\000\000\000\000\000\000\000\000\000"
 9694      00000000 
 9694      00000000 
 9694      00
 9695 079b 00000000 		.ascii	"\000\000\000\000\000\000\000\000\000\000\000\000\000"
 9695      00000000 
 9695      00000000 
 9695      00
 9696 07a8 00000000 		.ascii	"\000\000\000\000\000\000\000\000\000\000\000\000\000"
 9696      00000000 
 9696      00000000 
 9696      00
 9697 07b5 00000000 		.ascii	"\000\000\000\000\000\000\000\000\000\000\000\000\000"
 9697      00000000 
 9697      00000000 
ARM GAS  /var/folders/1y/_321xjh9623c014x9_qw12rr0000gn/T//ccqHcGuP.s 			page 257


 9697      00
 9698 07c2 00000000 		.ascii	"\000\000\000\000\000\000\000\000\000\000\000\000\000"
 9698      00000000 
 9698      00000000 
 9698      00
 9699 07cf 00000000 		.ascii	"\000\000\000\000\000\000\000\000\000\000\000\000\000"
 9699      00000000 
 9699      00000000 
 9699      00
 9700 07dc 00000000 		.ascii	"\000\000\000\000\000\000\000\000\000\000\000\000\000"
 9700      00000000 
 9700      00000000 
 9700      00
 9701 07e9 00000000 		.ascii	"\000\000\000\000\000\000\000\000\000\000\000\000\000"
 9701      00000000 
 9701      00000000 
 9701      00
 9702 07f6 00000000 		.ascii	"\000\000\000\000\000\000\000\000\000\000"
 9702      00000000 
 9702      0000
 9703              		.text
 9704              	.Letext0:
 9705              		.file 15 "/Library/DaisyToolchain/0.2.0/arm/arm-none-eabi/include/machine/_default_types.h"
 9706              		.file 16 "/Library/DaisyToolchain/0.2.0/arm/arm-none-eabi/include/sys/_stdint.h"
 9707              		.file 17 "/Library/DaisyToolchain/0.2.0/arm/arm-none-eabi/include/stdint.h"
 9708              		.file 18 "../../libDaisy//Drivers/CMSIS/Device/ST/STM32H7xx/Include/stm32h750xx.h"
 9709              		.file 19 "/Library/DaisyToolchain/0.2.0/arm/lib/gcc/arm-none-eabi/10.3.1/include/stddef.h"
 9710              		.file 20 "/Library/DaisyToolchain/0.2.0/arm/arm-none-eabi/include/c++/10.3.1/cmath"
 9711              		.file 21 "/Library/DaisyToolchain/0.2.0/arm/arm-none-eabi/include/c++/10.3.1/cstdlib"
 9712              		.file 22 "/Library/DaisyToolchain/0.2.0/arm/arm-none-eabi/include/c++/10.3.1/cstdint"
 9713              		.file 23 "/Library/DaisyToolchain/0.2.0/arm/arm-none-eabi/include/c++/10.3.1/type_traits"
 9714              		.file 24 "/Library/DaisyToolchain/0.2.0/arm/arm-none-eabi/include/c++/10.3.1/debug/debug.h"
 9715              		.file 25 "/Library/DaisyToolchain/0.2.0/arm/arm-none-eabi/include/c++/10.3.1/arm-none-eabi/thumb/v
 9716              		.file 26 "/Library/DaisyToolchain/0.2.0/arm/arm-none-eabi/include/c++/10.3.1/bits/algorithmfwd.h"
 9717              		.file 27 "/Library/DaisyToolchain/0.2.0/arm/arm-none-eabi/include/c++/10.3.1/bits/exception_ptr.h"
 9718              		.file 28 "/Library/DaisyToolchain/0.2.0/arm/arm-none-eabi/include/c++/10.3.1/bits/stl_pair.h"
 9719              		.file 29 "/Library/DaisyToolchain/0.2.0/arm/arm-none-eabi/include/c++/10.3.1/cstdarg"
 9720              		.file 30 "/Library/DaisyToolchain/0.2.0/arm/arm-none-eabi/include/c++/10.3.1/cstdio"
 9721              		.file 31 "/Library/DaisyToolchain/0.2.0/arm/arm-none-eabi/include/c++/10.3.1/cstring"
 9722              		.file 32 "/Library/DaisyToolchain/0.2.0/arm/arm-none-eabi/include/c++/10.3.1/bits/predefined_ops.h
 9723              		.file 33 "/Library/DaisyToolchain/0.2.0/arm/arm-none-eabi/include/sys/_types.h"
 9724              		.file 34 "/Library/DaisyToolchain/0.2.0/arm/arm-none-eabi/include/sys/reent.h"
 9725              		.file 35 "/Library/DaisyToolchain/0.2.0/arm/arm-none-eabi/include/sys/lock.h"
 9726              		.file 36 "/Library/DaisyToolchain/0.2.0/arm/arm-none-eabi/include/math.h"
 9727              		.file 37 "/Library/DaisyToolchain/0.2.0/arm/arm-none-eabi/include/stdlib.h"
 9728              		.file 38 "/Library/DaisyToolchain/0.2.0/arm/arm-none-eabi/include/c++/10.3.1/math.h"
 9729              		.file 39 "/Library/DaisyToolchain/0.2.0/arm/arm-none-eabi/include/c++/10.3.1/stdlib.h"
 9730              		.file 40 "../../libDaisy//src/daisy_core.h"
 9731              		.file 41 "../../libDaisy//src/per/tim.h"
 9732              		.file 42 "../../libDaisy//src/sys/system.h"
 9733              		.file 43 "../../libDaisy//src/per/qspi.h"
 9734              		.file 44 "../../libDaisy//src/per/dac.h"
 9735              		.file 45 "../../libDaisy//src/per/adc.h"
 9736              		.file 46 "../../libDaisy//src/hid/usb.h"
 9737              		.file 47 "../../libDaisy//src/hid/gatein.h"
 9738              		.file 48 "../../libDaisy//src/hid/disp/graphics_common.h"
 9739              		.file 49 "../../libDaisy//src/util/wav_format.h"
ARM GAS  /var/folders/1y/_321xjh9623c014x9_qw12rr0000gn/T//ccqHcGuP.s 			page 258


 9740              		.file 50 "../../libDaisy//src/dev/max11300.h"
 9741              		.file 51 "../../libDaisy//src/daisy_seed.h"
 9742              		.file 52 "Dubby.h"
 9743              		.file 53 "../../libDaisy//src/per/gpio.h"
 9744              		.file 54 "../../libDaisy//src/dev/sdram.h"
 9745              		.file 55 "/Library/DaisyToolchain/0.2.0/arm/lib/gcc/arm-none-eabi/10.3.1/include/stdarg.h"
 9746              		.file 56 "/Library/DaisyToolchain/0.2.0/arm/arm-none-eabi/include/stdio.h"
 9747              		.file 57 "../../libDaisy//src/util/oled_fonts.h"
 9748              		.file 58 "/Library/DaisyToolchain/0.2.0/arm/arm-none-eabi/include/string.h"
 9749              		.file 59 "../../libDaisy//src/dev/sr_595.h"
 9750              		.file 60 "./bitmaps/bmps.h"
 9751              		.file 61 "<built-in>"
ARM GAS  /var/folders/1y/_321xjh9623c014x9_qw12rr0000gn/T//ccqHcGuP.s 			page 259


DEFINED SYMBOLS
                            *ABS*:0000000000000000 Dubby.cpp
/var/folders/1y/_321xjh9623c014x9_qw12rr0000gn/T//ccqHcGuP.s:19     .text._ZNK5daisy11OledDisplayINS_13SSD130xDriverILj128ELj64ENS_24SSD130x4WireSpiTransportEEEE6HeightEv:0000000000000000 $t
/var/folders/1y/_321xjh9623c014x9_qw12rr0000gn/T//ccqHcGuP.s:26     .text._ZNK5daisy11OledDisplayINS_13SSD130xDriverILj128ELj64ENS_24SSD130x4WireSpiTransportEEEE6HeightEv:0000000000000000 _ZNK5daisy11OledDisplayINS_13SSD130xDriverILj128ELj64ENS_24SSD130x4WireSpiTransportEEEE6HeightEv
/var/folders/1y/_321xjh9623c014x9_qw12rr0000gn/T//ccqHcGuP.s:44     .text._ZNK5daisy11OledDisplayINS_13SSD130xDriverILj128ELj64ENS_24SSD130x4WireSpiTransportEEEE5WidthEv:0000000000000000 $t
/var/folders/1y/_321xjh9623c014x9_qw12rr0000gn/T//ccqHcGuP.s:51     .text._ZNK5daisy11OledDisplayINS_13SSD130xDriverILj128ELj64ENS_24SSD130x4WireSpiTransportEEEE5WidthEv:0000000000000000 _ZNK5daisy11OledDisplayINS_13SSD130xDriverILj128ELj64ENS_24SSD130x4WireSpiTransportEEEE5WidthEv
/var/folders/1y/_321xjh9623c014x9_qw12rr0000gn/T//ccqHcGuP.s:68     .text._ZN5daisy5Dubby11RenderScopeEv.part.0:0000000000000000 $t
/var/folders/1y/_321xjh9623c014x9_qw12rr0000gn/T//ccqHcGuP.s:74     .text._ZN5daisy5Dubby11RenderScopeEv.part.0:0000000000000000 _ZN5daisy5Dubby11RenderScopeEv.part.0
/var/folders/1y/_321xjh9623c014x9_qw12rr0000gn/T//ccqHcGuP.s:667    .text._ZN5daisy5Dubby11RenderScopeEv.part.0:00000000000001e4 $d
/var/folders/1y/_321xjh9623c014x9_qw12rr0000gn/T//ccqHcGuP.s:677    .text._ZN5daisy5Dubby12InitControlsEv:0000000000000000 $t
/var/folders/1y/_321xjh9623c014x9_qw12rr0000gn/T//ccqHcGuP.s:684    .text._ZN5daisy5Dubby12InitControlsEv:0000000000000000 _ZN5daisy5Dubby12InitControlsEv
/var/folders/1y/_321xjh9623c014x9_qw12rr0000gn/T//ccqHcGuP.s:843    .text._ZN5daisy5Dubby12InitControlsEv:00000000000000d4 $d
/var/folders/1y/_321xjh9623c014x9_qw12rr0000gn/T//ccqHcGuP.s:848    .text._ZN5daisy5Dubby11InitButtonsEv:0000000000000000 $t
/var/folders/1y/_321xjh9623c014x9_qw12rr0000gn/T//ccqHcGuP.s:855    .text._ZN5daisy5Dubby11InitButtonsEv:0000000000000000 _ZN5daisy5Dubby11InitButtonsEv
/var/folders/1y/_321xjh9623c014x9_qw12rr0000gn/T//ccqHcGuP.s:944    .text._ZN5daisy5Dubby11InitButtonsEv:0000000000000080 $d
/var/folders/1y/_321xjh9623c014x9_qw12rr0000gn/T//ccqHcGuP.s:949    .text._ZN5daisy5Dubby10DrawBitmapEi:0000000000000000 $t
/var/folders/1y/_321xjh9623c014x9_qw12rr0000gn/T//ccqHcGuP.s:956    .text._ZN5daisy5Dubby10DrawBitmapEi:0000000000000000 _ZN5daisy5Dubby10DrawBitmapEi
/var/folders/1y/_321xjh9623c014x9_qw12rr0000gn/T//ccqHcGuP.s:1387   .text._ZN5daisy5Dubby10DrawBitmapEi:0000000000000124 $d
/var/folders/1y/_321xjh9623c014x9_qw12rr0000gn/T//ccqHcGuP.s:1400   .text._ZN5daisy5Dubby8DrawLogoEv:0000000000000000 $t
/var/folders/1y/_321xjh9623c014x9_qw12rr0000gn/T//ccqHcGuP.s:1407   .text._ZN5daisy5Dubby8DrawLogoEv:0000000000000000 _ZN5daisy5Dubby8DrawLogoEv
/var/folders/1y/_321xjh9623c014x9_qw12rr0000gn/T//ccqHcGuP.s:1425   .text._ZN5daisy5Dubby9UpdateBarEi:0000000000000000 $t
/var/folders/1y/_321xjh9623c014x9_qw12rr0000gn/T//ccqHcGuP.s:1432   .text._ZN5daisy5Dubby9UpdateBarEi:0000000000000000 _ZN5daisy5Dubby9UpdateBarEi
/var/folders/1y/_321xjh9623c014x9_qw12rr0000gn/T//ccqHcGuP.s:2477   .text._ZN5daisy5Dubby9UpdateBarEi:0000000000000384 $d
/var/folders/1y/_321xjh9623c014x9_qw12rr0000gn/T//ccqHcGuP.s:2490   .text._ZN5daisy5Dubby9UpdateBarEi:0000000000000388 $t
/var/folders/1y/_321xjh9623c014x9_qw12rr0000gn/T//ccqHcGuP.s:2622   .text._ZN5daisy5Dubby15UpdateMixerPaneEv:0000000000000000 $t
/var/folders/1y/_321xjh9623c014x9_qw12rr0000gn/T//ccqHcGuP.s:2629   .text._ZN5daisy5Dubby15UpdateMixerPaneEv:0000000000000000 _ZN5daisy5Dubby15UpdateMixerPaneEv
/var/folders/1y/_321xjh9623c014x9_qw12rr0000gn/T//ccqHcGuP.s:2707   .text._ZN5daisy5Dubby11RenderScopeEv:0000000000000000 $t
/var/folders/1y/_321xjh9623c014x9_qw12rr0000gn/T//ccqHcGuP.s:2714   .text._ZN5daisy5Dubby11RenderScopeEv:0000000000000000 _ZN5daisy5Dubby11RenderScopeEv
/var/folders/1y/_321xjh9623c014x9_qw12rr0000gn/T//ccqHcGuP.s:2762   .text._ZN5daisy5Dubby11InitEncoderEv:0000000000000000 $t
/var/folders/1y/_321xjh9623c014x9_qw12rr0000gn/T//ccqHcGuP.s:2769   .text._ZN5daisy5Dubby11InitEncoderEv:0000000000000000 _ZN5daisy5Dubby11InitEncoderEv
/var/folders/1y/_321xjh9623c014x9_qw12rr0000gn/T//ccqHcGuP.s:2822   .text._ZN5daisy5Dubby11InitEncoderEv:0000000000000040 $d
/var/folders/1y/_321xjh9623c014x9_qw12rr0000gn/T//ccqHcGuP.s:2827   .text._ZN5daisy5Dubby18ProcessAllControlsEv:0000000000000000 $t
/var/folders/1y/_321xjh9623c014x9_qw12rr0000gn/T//ccqHcGuP.s:2834   .text._ZN5daisy5Dubby18ProcessAllControlsEv:0000000000000000 _ZN5daisy5Dubby18ProcessAllControlsEv
/var/folders/1y/_321xjh9623c014x9_qw12rr0000gn/T//ccqHcGuP.s:2942   .text._ZN5daisy5Dubby21ProcessAnalogControlsEv:0000000000000000 $t
/var/folders/1y/_321xjh9623c014x9_qw12rr0000gn/T//ccqHcGuP.s:2949   .text._ZN5daisy5Dubby21ProcessAnalogControlsEv:0000000000000000 _ZN5daisy5Dubby21ProcessAnalogControlsEv
/var/folders/1y/_321xjh9623c014x9_qw12rr0000gn/T//ccqHcGuP.s:2992   .text._ZN5daisy5Dubby22ProcessDigitalControlsEv:0000000000000000 $t
/var/folders/1y/_321xjh9623c014x9_qw12rr0000gn/T//ccqHcGuP.s:2999   .text._ZN5daisy5Dubby22ProcessDigitalControlsEv:0000000000000000 _ZN5daisy5Dubby22ProcessDigitalControlsEv
/var/folders/1y/_321xjh9623c014x9_qw12rr0000gn/T//ccqHcGuP.s:3064   .text._ZN5daisy5Dubby12GetKnobValueENS0_4CtrlE:0000000000000000 $t
/var/folders/1y/_321xjh9623c014x9_qw12rr0000gn/T//ccqHcGuP.s:3071   .text._ZN5daisy5Dubby12GetKnobValueENS0_4CtrlE:0000000000000000 _ZN5daisy5Dubby12GetKnobValueENS0_4CtrlE
/var/folders/1y/_321xjh9623c014x9_qw12rr0000gn/T//ccqHcGuP.s:3098   .text._ZN5daisy5Dubby9InitAudioEv:0000000000000000 $t
/var/folders/1y/_321xjh9623c014x9_qw12rr0000gn/T//ccqHcGuP.s:3105   .text._ZN5daisy5Dubby9InitAudioEv:0000000000000000 _ZN5daisy5Dubby9InitAudioEv
/var/folders/1y/_321xjh9623c014x9_qw12rr0000gn/T//ccqHcGuP.s:3445   .text._ZN5daisy5Dubby9InitAudioEv:0000000000000108 $d
/var/folders/1y/_321xjh9623c014x9_qw12rr0000gn/T//ccqHcGuP.s:3451   .rodata._ZN5daisy5Dubby14GetTextForEnumENS0_9MenuTypesEi.str1.4:0000000000000000 $d
/var/folders/1y/_321xjh9623c014x9_qw12rr0000gn/T//ccqHcGuP.s:3455   .text._ZN5daisy5Dubby14GetTextForEnumENS0_9MenuTypesEi:0000000000000000 $t
/var/folders/1y/_321xjh9623c014x9_qw12rr0000gn/T//ccqHcGuP.s:3462   .text._ZN5daisy5Dubby14GetTextForEnumENS0_9MenuTypesEi:0000000000000000 _ZN5daisy5Dubby14GetTextForEnumENS0_9MenuTypesEi
/var/folders/1y/_321xjh9623c014x9_qw12rr0000gn/T//ccqHcGuP.s:3503   .text._ZN5daisy5Dubby14GetTextForEnumENS0_9MenuTypesEi:0000000000000018 $d
/var/folders/1y/_321xjh9623c014x9_qw12rr0000gn/T//ccqHcGuP.s:3508   .text._ZN5daisy25OneBitGraphicsDisplayImplINS_11OledDisplayINS_13SSD130xDriverILj128ELj64ENS_24SSD130x4WireSpiTransportEEEEEE11WriteStringEPKc7FontDefb:0000000000000000 $t
/var/folders/1y/_321xjh9623c014x9_qw12rr0000gn/T//ccqHcGuP.s:3515   .text._ZN5daisy25OneBitGraphicsDisplayImplINS_11OledDisplayINS_13SSD130xDriverILj128ELj64ENS_24SSD130x4WireSpiTransportEEEEEE11WriteStringEPKc7FontDefb:0000000000000000 _ZN5daisy25OneBitGraphicsDisplayImplINS_11OledDisplayINS_13SSD130xDriverILj128ELj64ENS_24SSD130x4WireSpiTransportEEEEEE11WriteStringEPKc7FontDefb
/var/folders/1y/_321xjh9623c014x9_qw12rr0000gn/T//ccqHcGuP.s:3972   .text._ZN5daisy25OneBitGraphicsDisplayImplINS_11OledDisplayINS_13SSD130xDriverILj128ELj64ENS_24SSD130x4WireSpiTransportEEEEEE11WriteStringEPKc7FontDefb:00000000000001b8 $d
/var/folders/1y/_321xjh9623c014x9_qw12rr0000gn/T//ccqHcGuP.s:3982   .text._ZN5daisy5Dubby18HightlightMenuItemEv:0000000000000000 $t
/var/folders/1y/_321xjh9623c014x9_qw12rr0000gn/T//ccqHcGuP.s:3989   .text._ZN5daisy5Dubby18HightlightMenuItemEv:0000000000000000 _ZN5daisy5Dubby18HightlightMenuItemEv
/var/folders/1y/_321xjh9623c014x9_qw12rr0000gn/T//ccqHcGuP.s:4672   .text._ZN5daisy5Dubby18HightlightMenuItemEv:00000000000001ec $d
/var/folders/1y/_321xjh9623c014x9_qw12rr0000gn/T//ccqHcGuP.s:4677   .text._ZN5daisy5Dubby11ReleaseMenuEv:0000000000000000 $t
/var/folders/1y/_321xjh9623c014x9_qw12rr0000gn/T//ccqHcGuP.s:4684   .text._ZN5daisy5Dubby11ReleaseMenuEv:0000000000000000 _ZN5daisy5Dubby11ReleaseMenuEv
/var/folders/1y/_321xjh9623c014x9_qw12rr0000gn/T//ccqHcGuP.s:5817   .text._ZN5daisy5Dubby11ReleaseMenuEv:0000000000000430 $d
/var/folders/1y/_321xjh9623c014x9_qw12rr0000gn/T//ccqHcGuP.s:5825   .text._ZN5daisy5Dubby22DisplayPreferencesMenuEv:0000000000000000 $t
/var/folders/1y/_321xjh9623c014x9_qw12rr0000gn/T//ccqHcGuP.s:5832   .text._ZN5daisy5Dubby22DisplayPreferencesMenuEv:0000000000000000 _ZN5daisy5Dubby22DisplayPreferencesMenuEv
ARM GAS  /var/folders/1y/_321xjh9623c014x9_qw12rr0000gn/T//ccqHcGuP.s 			page 260


/var/folders/1y/_321xjh9623c014x9_qw12rr0000gn/T//ccqHcGuP.s:6215   .text._ZN5daisy5Dubby22DisplayPreferencesMenuEv:0000000000000124 $d
/var/folders/1y/_321xjh9623c014x9_qw12rr0000gn/T//ccqHcGuP.s:6222   .text._ZN5daisy5Dubby22DisplayPreferencesMenuEv:0000000000000128 $t
/var/folders/1y/_321xjh9623c014x9_qw12rr0000gn/T//ccqHcGuP.s:7008   .text._ZN5daisy5Dubby13UpdateSubmenuEv:0000000000000000 $t
/var/folders/1y/_321xjh9623c014x9_qw12rr0000gn/T//ccqHcGuP.s:7015   .text._ZN5daisy5Dubby13UpdateSubmenuEv:0000000000000000 _ZN5daisy5Dubby13UpdateSubmenuEv
/var/folders/1y/_321xjh9623c014x9_qw12rr0000gn/T//ccqHcGuP.s:7234   .text._ZN5daisy5Dubby10UpdateMenuEib:0000000000000000 $t
/var/folders/1y/_321xjh9623c014x9_qw12rr0000gn/T//ccqHcGuP.s:7241   .text._ZN5daisy5Dubby10UpdateMenuEib:0000000000000000 _ZN5daisy5Dubby10UpdateMenuEib
/var/folders/1y/_321xjh9623c014x9_qw12rr0000gn/T//ccqHcGuP.s:7499   .text._ZN5daisy5Dubby21UpdatePreferencesMenuEi:0000000000000000 $t
/var/folders/1y/_321xjh9623c014x9_qw12rr0000gn/T//ccqHcGuP.s:7506   .text._ZN5daisy5Dubby21UpdatePreferencesMenuEi:0000000000000000 _ZN5daisy5Dubby21UpdatePreferencesMenuEi
/var/folders/1y/_321xjh9623c014x9_qw12rr0000gn/T//ccqHcGuP.s:7553   .rodata._ZN5daisy5Dubby17ResetToBootloaderEv.str1.4:0000000000000000 $d
/var/folders/1y/_321xjh9623c014x9_qw12rr0000gn/T//ccqHcGuP.s:7557   .text._ZN5daisy5Dubby17ResetToBootloaderEv:0000000000000000 $t
/var/folders/1y/_321xjh9623c014x9_qw12rr0000gn/T//ccqHcGuP.s:7564   .text._ZN5daisy5Dubby17ResetToBootloaderEv:0000000000000000 _ZN5daisy5Dubby17ResetToBootloaderEv
/var/folders/1y/_321xjh9623c014x9_qw12rr0000gn/T//ccqHcGuP.s:7820   .text._ZN5daisy5Dubby17ResetToBootloaderEv:00000000000000b0 $d
/var/folders/1y/_321xjh9623c014x9_qw12rr0000gn/T//ccqHcGuP.s:7827   .text._ZN5daisy5Dubby13UpdateDisplayEv:0000000000000000 $t
/var/folders/1y/_321xjh9623c014x9_qw12rr0000gn/T//ccqHcGuP.s:7834   .text._ZN5daisy5Dubby13UpdateDisplayEv:0000000000000000 _ZN5daisy5Dubby13UpdateDisplayEv
/var/folders/1y/_321xjh9623c014x9_qw12rr0000gn/T//ccqHcGuP.s:8402   .text._ZN5daisy5Dubby13UpdateDisplayEv:0000000000000188 $d
/var/folders/1y/_321xjh9623c014x9_qw12rr0000gn/T//ccqHcGuP.s:8407   .text._ZN5daisy13SSD130xDriverILj128ELj64ENS_24SSD130x4WireSpiTransportEE4InitENS2_6ConfigE:0000000000000000 $t
/var/folders/1y/_321xjh9623c014x9_qw12rr0000gn/T//ccqHcGuP.s:8414   .text._ZN5daisy13SSD130xDriverILj128ELj64ENS_24SSD130x4WireSpiTransportEE4InitENS2_6ConfigE:0000000000000000 _ZN5daisy13SSD130xDriverILj128ELj64ENS_24SSD130x4WireSpiTransportEE4InitENS2_6ConfigE
/var/folders/1y/_321xjh9623c014x9_qw12rr0000gn/T//ccqHcGuP.s:9186   .text._ZN5daisy5Dubby11InitDisplayEv:0000000000000000 $t
/var/folders/1y/_321xjh9623c014x9_qw12rr0000gn/T//ccqHcGuP.s:9193   .text._ZN5daisy5Dubby11InitDisplayEv:0000000000000000 _ZN5daisy5Dubby11InitDisplayEv
/var/folders/1y/_321xjh9623c014x9_qw12rr0000gn/T//ccqHcGuP.s:9372   .text._ZN5daisy5Dubby11InitDisplayEv:0000000000000088 $d
/var/folders/1y/_321xjh9623c014x9_qw12rr0000gn/T//ccqHcGuP.s:9377   .text._ZN5daisy5Dubby4InitEv:0000000000000000 $t
/var/folders/1y/_321xjh9623c014x9_qw12rr0000gn/T//ccqHcGuP.s:9384   .text._ZN5daisy5Dubby4InitEv:0000000000000000 _ZN5daisy5Dubby4InitEv
/var/folders/1y/_321xjh9623c014x9_qw12rr0000gn/T//ccqHcGuP.s:9502   .text._ZN5daisy5Dubby4InitEv:0000000000000080 $d
/var/folders/1y/_321xjh9623c014x9_qw12rr0000gn/T//ccqHcGuP.s:9507   .rodata:0000000000000000 $d
/var/folders/1y/_321xjh9623c014x9_qw12rr0000gn/T//ccqHcGuP.s:9545   .rodata._ZL7bitmaps:0000000000000000 $d
/var/folders/1y/_321xjh9623c014x9_qw12rr0000gn/T//ccqHcGuP.s:9549   .rodata._ZL7bitmaps:0000000000000000 _ZL7bitmaps

UNDEFINED SYMBOLS
_ZN5daisy6System6GetNowEv
dsy_gpio_write
_ZN5daisy9SpiHandle16BlockingTransmitEPhjm
_ZN5daisy9DaisySeed6GetPinEh
_ZN5daisy16AdcChannelConfig10InitSingleE12dsy_gpio_pin
_ZN5daisy9AdcHandle4InitEPNS_16AdcChannelConfigEjNS0_12OverSamplingE
_ZNK5daisy9AdcHandle6GetPtrEh
_ZNK5daisy9DaisySeed17AudioCallbackRateEv
_ZN5daisy13AnalogControl4InitEPtfbbf
_ZN5daisy9AdcHandle5StartEv
_ZN5daisy6Switch4InitE12dsy_gpio_pinf
memset
_ZN5daisy7Encoder4InitE12dsy_gpio_pinS1_S1_f
_ZN5daisy13AnalogControl7ProcessEv
_ZN5daisy7Encoder8DebounceEv
_ZN5daisy6Switch8DebounceEv
_ZN5daisy9DaisySeed17CheckBoardVersionEv
_ZN5daisy9I2CHandle4InitERKNS0_6ConfigE
_ZN5daisy7Pcm30604InitENS_9I2CHandleE
_ZN5daisy9SaiHandle4InitERKNS0_6ConfigE
_ZN5daisy11AudioHandle4InitERKNS0_6ConfigENS_9SaiHandleES4_
Font_6x8
_ZN5daisy6System17ResetToBootloaderEv
dsy_gpio_init
_ZN5daisy9SpiHandle4InitERKNS0_6ConfigE
_ZN5daisy6System5DelayEm
