ARM GAS  /var/folders/1y/_321xjh9623c014x9_qw12rr0000gn/T//ccXuncwa.s 			page 1


   1              		.cpu cortex-m7
   2              		.arch armv7e-m
   3              		.fpu fpv5-d16
   4              		.eabi_attribute 28, 1
   5              		.eabi_attribute 20, 1
   6              		.eabi_attribute 21, 1
   7              		.eabi_attribute 23, 3
   8              		.eabi_attribute 24, 1
   9              		.eabi_attribute 25, 1
  10              		.eabi_attribute 26, 1
  11              		.eabi_attribute 30, 2
  12              		.eabi_attribute 34, 1
  13              		.eabi_attribute 18, 4
  14              		.file	"Dubby.cpp"
  15              		.text
  16              	.Ltext0:
  17              		.cfi_sections	.debug_frame
  18              		.section	.text._ZNK5daisy11OledDisplayINS_13SSD130xDriverILj128ELj64ENS_24SSD130x4WireSpiTransport
  19              		.align	1
  20              		.p2align 2,,3
  21              		.weak	_ZNK5daisy11OledDisplayINS_13SSD130xDriverILj128ELj64ENS_24SSD130x4WireSpiTransportEEEE6Heig
  22              		.syntax unified
  23              		.thumb
  24              		.thumb_func
  26              	_ZNK5daisy11OledDisplayINS_13SSD130xDriverILj128ELj64ENS_24SSD130x4WireSpiTransportEEEE6HeightEv:
  27              	.LVL0:
  28              	.LFB2646:
  29              		.file 1 "../../libDaisy//src/hid/disp/oled_display.h"
   1:../../libDaisy//src/hid/disp/oled_display.h **** #pragma once
   2:../../libDaisy//src/hid/disp/oled_display.h **** #ifndef DSY_OLED_DISPLAY_H
   3:../../libDaisy//src/hid/disp/oled_display.h **** #define DSY_OLED_DISPLAY_H /**< Macro */
   4:../../libDaisy//src/hid/disp/oled_display.h **** 
   5:../../libDaisy//src/hid/disp/oled_display.h **** #include "display.h"
   6:../../libDaisy//src/hid/disp/oled_display.h **** 
   7:../../libDaisy//src/hid/disp/oled_display.h **** namespace daisy
   8:../../libDaisy//src/hid/disp/oled_display.h **** {
   9:../../libDaisy//src/hid/disp/oled_display.h **** /** 
  10:../../libDaisy//src/hid/disp/oled_display.h ****  * This class is for drawing to a monochrome OLED display. 
  11:../../libDaisy//src/hid/disp/oled_display.h ****  * @ingroup device
  12:../../libDaisy//src/hid/disp/oled_display.h **** */
  13:../../libDaisy//src/hid/disp/oled_display.h **** template <typename DisplayDriver>
  14:../../libDaisy//src/hid/disp/oled_display.h **** class OledDisplay : public OneBitGraphicsDisplayImpl<OledDisplay<DisplayDriver>>
  15:../../libDaisy//src/hid/disp/oled_display.h **** {
  16:../../libDaisy//src/hid/disp/oled_display.h ****   public:
  17:../../libDaisy//src/hid/disp/oled_display.h ****     OledDisplay() {}
  18:../../libDaisy//src/hid/disp/oled_display.h ****     virtual ~OledDisplay() {}
  19:../../libDaisy//src/hid/disp/oled_display.h **** 
  20:../../libDaisy//src/hid/disp/oled_display.h ****     struct Config
  21:../../libDaisy//src/hid/disp/oled_display.h ****     {
  22:../../libDaisy//src/hid/disp/oled_display.h ****         typename DisplayDriver::Config driver_config;
  23:../../libDaisy//src/hid/disp/oled_display.h ****     };
  24:../../libDaisy//src/hid/disp/oled_display.h **** 
  25:../../libDaisy//src/hid/disp/oled_display.h ****     void Init(Config config) { driver_.Init(config.driver_config); }
  26:../../libDaisy//src/hid/disp/oled_display.h **** 
  27:../../libDaisy//src/hid/disp/oled_display.h ****     uint16_t Height() const override { return driver_.Height(); }
  30              		.loc 1 27 14 view -0
  31              		.cfi_startproc
ARM GAS  /var/folders/1y/_321xjh9623c014x9_qw12rr0000gn/T//ccXuncwa.s 			page 2


  32              		@ args = 0, pretend = 0, frame = 0
  33              		@ frame_needed = 0, uses_anonymous_args = 0
  34              		@ link register save eliminated.
  35              		.loc 1 27 65 is_stmt 0 view .LVU1
  36 0000 4020     		movs	r0, #64
  37              	.LVL1:
  38              		.loc 1 27 65 view .LVU2
  39 0002 7047     		bx	lr
  40              		.cfi_endproc
  41              	.LFE2646:
  43              		.section	.text._ZNK5daisy11OledDisplayINS_13SSD130xDriverILj128ELj64ENS_24SSD130x4WireSpiTransport
  44              		.align	1
  45              		.p2align 2,,3
  46              		.weak	_ZNK5daisy11OledDisplayINS_13SSD130xDriverILj128ELj64ENS_24SSD130x4WireSpiTransportEEEE5Widt
  47              		.syntax unified
  48              		.thumb
  49              		.thumb_func
  51              	_ZNK5daisy11OledDisplayINS_13SSD130xDriverILj128ELj64ENS_24SSD130x4WireSpiTransportEEEE5WidthEv:
  52              	.LVL2:
  53              	.LFB2647:
  28:../../libDaisy//src/hid/disp/oled_display.h ****     uint16_t Width() const override { return driver_.Width(); }
  54              		.loc 1 28 14 is_stmt 1 view -0
  55              		.cfi_startproc
  56              		@ args = 0, pretend = 0, frame = 0
  57              		@ frame_needed = 0, uses_anonymous_args = 0
  58              		@ link register save eliminated.
  59              		.loc 1 28 63 is_stmt 0 view .LVU4
  60 0000 8020     		movs	r0, #128
  61              	.LVL3:
  62              		.loc 1 28 63 view .LVU5
  63 0002 7047     		bx	lr
  64              		.cfi_endproc
  65              	.LFE2647:
  67              		.section	.text._ZN5daisy5Dubby11RenderScopeEv.part.0,"ax",%progbits
  68              		.align	1
  69              		.p2align 2,,3
  70              		.syntax unified
  71              		.thumb
  72              		.thumb_func
  74              	_ZN5daisy5Dubby11RenderScopeEv.part.0:
  75              	.LVL4:
  76              	.LFB2658:
  77              		.file 2 "Dubby.cpp"
   1:Dubby.cpp     **** #include "Dubby.h"
   2:Dubby.cpp     **** 
   3:Dubby.cpp     **** using namespace daisy;
   4:Dubby.cpp     **** 
   5:Dubby.cpp     **** // Hardware Definitions
   6:Dubby.cpp     **** #define PIN_GATE_IN_1 32
   7:Dubby.cpp     **** #define PIN_GATE_IN_2 23
   8:Dubby.cpp     **** #define PIN_GATE_IN_3 17
   9:Dubby.cpp     **** #define PIN_GATE_IN_4 19
  10:Dubby.cpp     **** #define PIN_KNOB_1 18
  11:Dubby.cpp     **** #define PIN_KNOB_2 15
  12:Dubby.cpp     **** #define PIN_KNOB_3 21
  13:Dubby.cpp     **** #define PIN_KNOB_4 22
  14:Dubby.cpp     **** #define PIN_JS_CLICK 3
ARM GAS  /var/folders/1y/_321xjh9623c014x9_qw12rr0000gn/T//ccXuncwa.s 			page 3


  15:Dubby.cpp     **** #define PIN_JS_V 20
  16:Dubby.cpp     **** #define PIN_JS_H 16
  17:Dubby.cpp     **** #define PIN_ENC_CLICK 4
  18:Dubby.cpp     **** #define PIN_ENC_A 6
  19:Dubby.cpp     **** #define PIN_ENC_B 5 
  20:Dubby.cpp     **** #define PIN_OLED_DC 9
  21:Dubby.cpp     **** #define PIN_OLED_RESET 31
  22:Dubby.cpp     **** 
  23:Dubby.cpp     **** #define OLED_WIDTH 128
  24:Dubby.cpp     **** #define OLED_HEIGHT 64
  25:Dubby.cpp     **** 
  26:Dubby.cpp     **** #define PANE_X_START 1
  27:Dubby.cpp     **** #define PANE_X_END 126
  28:Dubby.cpp     **** #define PANE_Y_START 1
  29:Dubby.cpp     **** #define PANE_Y_END 51
  30:Dubby.cpp     **** 
  31:Dubby.cpp     **** #define SUBMENU_X_START 1
  32:Dubby.cpp     **** #define SUBMENU_X_END 63
  33:Dubby.cpp     **** #define SUBMENU_Y_START 1
  34:Dubby.cpp     **** #define SUBMENU_Y_END 11
  35:Dubby.cpp     **** 
  36:Dubby.cpp     **** void Dubby::Init() 
  37:Dubby.cpp     **** {
  38:Dubby.cpp     ****     InitControls();
  39:Dubby.cpp     ****     InitGates();
  40:Dubby.cpp     ****     
  41:Dubby.cpp     ****     screen_update_period_ = 17; // roughly 60Hz
  42:Dubby.cpp     ****     screen_update_last_   = seed.system.GetNow();
  43:Dubby.cpp     **** 
  44:Dubby.cpp     ****     for (int i = 0; i < 5; i++) 
  45:Dubby.cpp     ****     {
  46:Dubby.cpp     ****         submenuBoxBounding[i][0] = SUBMENU_X_START;
  47:Dubby.cpp     ****         submenuBoxBounding[i][1] = SUBMENU_Y_START + i * 10;
  48:Dubby.cpp     ****         submenuBoxBounding[i][2] = SUBMENU_X_END;
  49:Dubby.cpp     ****         submenuBoxBounding[i][3] = SUBMENU_Y_END + i * 10;
  50:Dubby.cpp     ****     }
  51:Dubby.cpp     **** 
  52:Dubby.cpp     ****     InitDisplay();
  53:Dubby.cpp     ****     InitEncoder();
  54:Dubby.cpp     ****     InitAudio();
  55:Dubby.cpp     **** }
  56:Dubby.cpp     **** 
  57:Dubby.cpp     **** void Dubby::InitControls()
  58:Dubby.cpp     **** {
  59:Dubby.cpp     ****     AdcChannelConfig cfg[CTRL_LAST];
  60:Dubby.cpp     **** 
  61:Dubby.cpp     ****     // Init ADC channels with Pins
  62:Dubby.cpp     ****     cfg[CTRL_1].InitSingle(seed.GetPin(PIN_KNOB_1));
  63:Dubby.cpp     ****     cfg[CTRL_2].InitSingle(seed.GetPin(PIN_KNOB_2));
  64:Dubby.cpp     ****     cfg[CTRL_3].InitSingle(seed.GetPin(PIN_KNOB_3));
  65:Dubby.cpp     ****     cfg[CTRL_4].InitSingle(seed.GetPin(PIN_KNOB_4));
  66:Dubby.cpp     ****     cfg[CTRL_5].InitSingle(seed.GetPin(PIN_JS_H));
  67:Dubby.cpp     ****     cfg[CTRL_6].InitSingle(seed.GetPin(PIN_JS_V));
  68:Dubby.cpp     **** 
  69:Dubby.cpp     ****     // Initialize ADC
  70:Dubby.cpp     ****     seed.adc.Init(cfg, CTRL_LAST);
  71:Dubby.cpp     **** 
ARM GAS  /var/folders/1y/_321xjh9623c014x9_qw12rr0000gn/T//ccXuncwa.s 			page 4


  72:Dubby.cpp     ****     // Initialize analogInputs, with flip set to true
  73:Dubby.cpp     ****     for(size_t i = 0; i < CTRL_LAST; i++)
  74:Dubby.cpp     ****     {
  75:Dubby.cpp     ****         analogInputs[i].Init(seed.adc.GetPtr(i), seed.AudioCallbackRate(), true);
  76:Dubby.cpp     ****     }
  77:Dubby.cpp     **** 
  78:Dubby.cpp     ****     seed.adc.Start();
  79:Dubby.cpp     **** }
  80:Dubby.cpp     **** 
  81:Dubby.cpp     **** void Dubby::InitGates()
  82:Dubby.cpp     **** {
  83:Dubby.cpp     ****     dsy_gpio_pin pin;
  84:Dubby.cpp     ****     pin = seed.GetPin(PIN_GATE_IN_1);
  85:Dubby.cpp     ****     gateInputs[GATE_IN_1].Init(&pin);
  86:Dubby.cpp     ****     pin = seed.GetPin(PIN_GATE_IN_2);
  87:Dubby.cpp     ****     gateInputs[GATE_IN_2].Init(&pin);
  88:Dubby.cpp     ****     pin = seed.GetPin(PIN_GATE_IN_3);
  89:Dubby.cpp     ****     gateInputs[GATE_IN_3].Init(&pin);
  90:Dubby.cpp     ****     pin = seed.GetPin(PIN_GATE_IN_4);
  91:Dubby.cpp     ****     gateInputs[GATE_IN_4].Init(&pin);
  92:Dubby.cpp     ****     pin = seed.GetPin(PIN_JS_CLICK);
  93:Dubby.cpp     ****     gateInputs[GATE_IN_5].Init(&pin);
  94:Dubby.cpp     **** }
  95:Dubby.cpp     **** 
  96:Dubby.cpp     **** 
  97:Dubby.cpp     **** void Dubby::InitDisplay() 
  98:Dubby.cpp     **** {
  99:Dubby.cpp     ****     /** Configure the Display */
 100:Dubby.cpp     ****     OledDisplay<SSD130x4WireSpi128x64Driver>::Config disp_cfg;
 101:Dubby.cpp     ****     disp_cfg.driver_config.transport_config.pin_config.dc    = seed.GetPin(9);
 102:Dubby.cpp     ****     disp_cfg.driver_config.transport_config.pin_config.reset = seed.GetPin(31);
 103:Dubby.cpp     ****     /** And Initialize */
 104:Dubby.cpp     ****     display.Init(disp_cfg);
 105:Dubby.cpp     **** }
 106:Dubby.cpp     **** 
 107:Dubby.cpp     **** void Dubby::UpdateDisplay() 
 108:Dubby.cpp     **** {
 109:Dubby.cpp     ****     if (encoder.TimeHeldMs() > 300) 
 110:Dubby.cpp     ****     {
 111:Dubby.cpp     ****         if (!menuActive) 
 112:Dubby.cpp     ****         {
 113:Dubby.cpp     ****             HightlightMenuItem();
 114:Dubby.cpp     ****             menuActive = true;
 115:Dubby.cpp     ****         }
 116:Dubby.cpp     **** 
 117:Dubby.cpp     ****         if (encoder.Increment()) UpdateMenu(encoder.Increment(), true);
 118:Dubby.cpp     ****     } 
 119:Dubby.cpp     **** 
 120:Dubby.cpp     ****     switch(menuItemSelected) 
 121:Dubby.cpp     ****     {
 122:Dubby.cpp     ****         case MENU1:
 123:Dubby.cpp     ****             RenderScope();
 124:Dubby.cpp     ****             break;
 125:Dubby.cpp     ****         case MENU2:
 126:Dubby.cpp     ****             UpdateMixerPane();
 127:Dubby.cpp     ****             break;
 128:Dubby.cpp     ****         case MENU3:
ARM GAS  /var/folders/1y/_321xjh9623c014x9_qw12rr0000gn/T//ccXuncwa.s 			page 5


 129:Dubby.cpp     ****             if (encoder.Pressed() && preferencesMenuItemSelected == OPTION4) ResetToBootloader();
 130:Dubby.cpp     ****             if (encoder.Increment() && !menuActive) UpdatePreferencesMenu(encoder.Increment());
 131:Dubby.cpp     ****             break;
 132:Dubby.cpp     ****         default:
 133:Dubby.cpp     ****             break;
 134:Dubby.cpp     ****     }
 135:Dubby.cpp     ****     
 136:Dubby.cpp     ****     if (encoder.TimeHeldMs() < 300 && menuActive)
 137:Dubby.cpp     ****     {
 138:Dubby.cpp     ****         menuActive = false;
 139:Dubby.cpp     ****         
 140:Dubby.cpp     ****         ReleaseMenu();
 141:Dubby.cpp     ****         UpdateSubmenu();
 142:Dubby.cpp     ****     }
 143:Dubby.cpp     **** }
 144:Dubby.cpp     **** 
 145:Dubby.cpp     **** void Dubby::DrawLogo() 
 146:Dubby.cpp     **** {
 147:Dubby.cpp     ****     DrawBitmap(0);   
 148:Dubby.cpp     **** }
 149:Dubby.cpp     **** 
 150:Dubby.cpp     **** void Dubby::DrawBitmap(int bitmapIndex)
 151:Dubby.cpp     **** {
 152:Dubby.cpp     ****     display.Fill(false);
 153:Dubby.cpp     ****     display.SetCursor(30, 30);
 154:Dubby.cpp     ****     
 155:Dubby.cpp     ****     for (int x = 0; x < OLED_WIDTH; x += 8) {
 156:Dubby.cpp     ****         for (int y = 0; y < OLED_HEIGHT; y++) {
 157:Dubby.cpp     ****             // Calculate the index in the array
 158:Dubby.cpp     ****             int byteIndex = (y * OLED_WIDTH + x) / 8;
 159:Dubby.cpp     **** 
 160:Dubby.cpp     ****             // Get the byte containing 8 pixels
 161:Dubby.cpp     ****             char byte = bitmaps[bitmapIndex][byteIndex];
 162:Dubby.cpp     **** 
 163:Dubby.cpp     ****             // Process 8 pixels in the byte
 164:Dubby.cpp     ****             for (int bitIndex = 0; bitIndex < 8; bitIndex++) {
 165:Dubby.cpp     **** 
 166:Dubby.cpp     ****                 // Get the pixel value (0 or 1)
 167:Dubby.cpp     ****                 char pixel = (byte >> (7 - bitIndex)) & 0x01;
 168:Dubby.cpp     **** 
 169:Dubby.cpp     ****                 bool isWhite = (pixel == 1);
 170:Dubby.cpp     **** 
 171:Dubby.cpp     ****                 display.DrawPixel(x + bitIndex, y, isWhite);
 172:Dubby.cpp     ****             }
 173:Dubby.cpp     **** 
 174:Dubby.cpp     ****             if (y % 6 == 0) display.Update();
 175:Dubby.cpp     ****         }
 176:Dubby.cpp     ****     }
 177:Dubby.cpp     **** }
 178:Dubby.cpp     **** 
 179:Dubby.cpp     **** void Dubby::UpdateMenu(int increment, bool higlight) 
 180:Dubby.cpp     **** {
 181:Dubby.cpp     ****     if ((menuItemSelected >= 0 && increment == 1 && menuItemSelected < 2) || (increment != 1 && men
 182:Dubby.cpp     ****         menuItemSelected = (MenuItems)(menuItemSelected + increment);
 183:Dubby.cpp     **** 
 184:Dubby.cpp     ****     display.Fill(false);
 185:Dubby.cpp     **** 
ARM GAS  /var/folders/1y/_321xjh9623c014x9_qw12rr0000gn/T//ccXuncwa.s 			page 6


 186:Dubby.cpp     ****     if (higlight) HightlightMenuItem();
 187:Dubby.cpp     ****     else ReleaseMenu();
 188:Dubby.cpp     ****     
 189:Dubby.cpp     ****     UpdateSubmenu();
 190:Dubby.cpp     **** 
 191:Dubby.cpp     ****     display.Update();
 192:Dubby.cpp     **** }
 193:Dubby.cpp     **** 
 194:Dubby.cpp     **** void Dubby::HightlightMenuItem() 
 195:Dubby.cpp     **** {
 196:Dubby.cpp     ****     display.DrawRect(menuBoxBounding[menuItemSelected][0], menuBoxBounding[menuItemSelected][1], me
 197:Dubby.cpp     **** 
 198:Dubby.cpp     ****     for (int i = 0; i < 3; i++) 
 199:Dubby.cpp     ****     {
 200:Dubby.cpp     ****         display.SetCursor(menuTextCursors[i][0], menuTextCursors[i][1]);
 201:Dubby.cpp     ****         display.WriteString(GetTextForEnum(MAINMENU, i), Font_6x8, i == menuItemSelected ? false : 
 202:Dubby.cpp     ****     }
 203:Dubby.cpp     **** 
 204:Dubby.cpp     ****     display.DrawRect(PANE_X_START - 1, PANE_Y_START - 1, PANE_X_END + 1, PANE_Y_END + 1, true);
 205:Dubby.cpp     **** 
 206:Dubby.cpp     ****     display.Update();
 207:Dubby.cpp     **** }
 208:Dubby.cpp     **** 
 209:Dubby.cpp     **** void Dubby::ReleaseMenu() 
 210:Dubby.cpp     **** {        
 211:Dubby.cpp     ****     display.Fill(false);
 212:Dubby.cpp     ****     display.DrawRect(menuBoxBounding[menuItemSelected][0], menuBoxBounding[menuItemSelected][1], me
 213:Dubby.cpp     **** 
 214:Dubby.cpp     ****     for (int i = 0; i < MENU_LAST; i++) 
 215:Dubby.cpp     ****     {
 216:Dubby.cpp     ****         display.SetCursor(menuTextCursors[i][0], menuTextCursors[i][1]);
 217:Dubby.cpp     ****         display.WriteString(GetTextForEnum(MAINMENU, i), Font_6x8, true);
 218:Dubby.cpp     ****     }
 219:Dubby.cpp     **** 
 220:Dubby.cpp     ****     display.Update();
 221:Dubby.cpp     **** }
 222:Dubby.cpp     **** 
 223:Dubby.cpp     **** void Dubby::UpdateMixerPane() 
 224:Dubby.cpp     **** {
 225:Dubby.cpp     ****     if(seed.system.GetNow() - screen_update_last_ > screen_update_period_)
 226:Dubby.cpp     ****     {
 227:Dubby.cpp     ****         screen_update_last_ = seed.system.GetNow();
 228:Dubby.cpp     ****         for (int i = 0; i < 4; i++) UpdateBar(i);
 229:Dubby.cpp     ****     }
 230:Dubby.cpp     **** }
 231:Dubby.cpp     **** 
 232:Dubby.cpp     **** void Dubby::UpdateSubmenu()
 233:Dubby.cpp     **** {
 234:Dubby.cpp     ****     switch(menuItemSelected) 
 235:Dubby.cpp     ****     {
 236:Dubby.cpp     ****         case MENU1:
 237:Dubby.cpp     ****             RenderScope();
 238:Dubby.cpp     ****             break;
 239:Dubby.cpp     ****         case MENU2:
 240:Dubby.cpp     ****             // for (int i = 0; i < 4; i++) UpdateBar(i);
 241:Dubby.cpp     ****             break;
 242:Dubby.cpp     ****         case MENU3:
ARM GAS  /var/folders/1y/_321xjh9623c014x9_qw12rr0000gn/T//ccXuncwa.s 			page 7


 243:Dubby.cpp     ****             DisplayPreferencesMenu();
 244:Dubby.cpp     ****             break;
 245:Dubby.cpp     ****         default:
 246:Dubby.cpp     ****             break;
 247:Dubby.cpp     ****     }
 248:Dubby.cpp     **** 
 249:Dubby.cpp     ****     display.Update();
 250:Dubby.cpp     **** }
 251:Dubby.cpp     **** 
 252:Dubby.cpp     **** void Dubby::UpdateBar(int i) 
 253:Dubby.cpp     **** {
 254:Dubby.cpp     ****     display.DrawRect((i * 32)  + margin, 1, ((i + 1) * 31) - margin, 51, false, true);
 255:Dubby.cpp     ****     display.DrawRect((i * 32)  + margin, int(abs(1.0f - GetKnobValue(static_cast<Dubby::Ctrl>(i))) 
 256:Dubby.cpp     ****     display.DrawRect((i * 32)  + margin, int(abs((currentLevels[i] * 5.0f) - 1.0f) * 51.0f) + 1, ((
 257:Dubby.cpp     ****     
 258:Dubby.cpp     ****     display.Update();
 259:Dubby.cpp     **** }
 260:Dubby.cpp     **** 
 261:Dubby.cpp     **** void Dubby::RenderScope()
  78              		.loc 2 261 6 is_stmt 1 view -0
  79              		.cfi_startproc
  80              		@ args = 0, pretend = 0, frame = 32
  81              		@ frame_needed = 0, uses_anonymous_args = 0
  82              	.LBB267:
 262:Dubby.cpp     **** {
 263:Dubby.cpp     ****     if(seed.system.GetNow() - screen_update_last_ > screen_update_period_)
 264:Dubby.cpp     ****     {
 265:Dubby.cpp     ****         screen_update_last_ = seed.system.GetNow();
  83              		.loc 2 265 9 view .LVU7
  84              	.LBE267:
 261:Dubby.cpp     **** {
  85              		.loc 2 261 6 is_stmt 0 view .LVU8
  86 0000 2DE9F04F 		push	{r4, r5, r6, r7, r8, r9, r10, fp, lr}
  87              		.cfi_def_cfa_offset 36
  88              		.cfi_offset 4, -36
  89              		.cfi_offset 5, -32
  90              		.cfi_offset 6, -28
  91              		.cfi_offset 7, -24
  92              		.cfi_offset 8, -20
  93              		.cfi_offset 9, -16
  94              		.cfi_offset 10, -12
  95              		.cfi_offset 11, -8
  96              		.cfi_offset 14, -4
  97 0004 8246     		mov	r10, r0
  98              	.LBB344:
  99              	.LBB268:
 100              	.LBB269:
 101              	.LBB270:
 102              		.file 3 "../../libDaisy//src/hid/disp/display.h"
   1:../../libDaisy//src/hid/disp/display.h **** #pragma once
   2:../../libDaisy//src/hid/disp/display.h **** #ifndef DSY_DISPLAY_H
   3:../../libDaisy//src/hid/disp/display.h **** #define DSY_DISPLAY_H /**< Macro */
   4:../../libDaisy//src/hid/disp/display.h **** #include <cmath>
   5:../../libDaisy//src/hid/disp/display.h **** #include "util/oled_fonts.h"
   6:../../libDaisy//src/hid/disp/display.h **** #include "daisy_core.h"
   7:../../libDaisy//src/hid/disp/display.h **** #include "graphics_common.h"
   8:../../libDaisy//src/hid/disp/display.h **** 
ARM GAS  /var/folders/1y/_321xjh9623c014x9_qw12rr0000gn/T//ccXuncwa.s 			page 8


   9:../../libDaisy//src/hid/disp/display.h **** #ifndef deg2rad
  10:../../libDaisy//src/hid/disp/display.h **** #define deg2rad(deg) ((deg)*3.141592 / 180.0)
  11:../../libDaisy//src/hid/disp/display.h **** #endif
  12:../../libDaisy//src/hid/disp/display.h **** 
  13:../../libDaisy//src/hid/disp/display.h **** namespace daisy
  14:../../libDaisy//src/hid/disp/display.h **** {
  15:../../libDaisy//src/hid/disp/display.h **** /** 
  16:../../libDaisy//src/hid/disp/display.h ****  * This interface is used as a base class for all types of 1bit-per-pixel
  17:../../libDaisy//src/hid/disp/display.h ****  * graphics displays.
  18:../../libDaisy//src/hid/disp/display.h **** */
  19:../../libDaisy//src/hid/disp/display.h **** class OneBitGraphicsDisplay
  20:../../libDaisy//src/hid/disp/display.h **** {
  21:../../libDaisy//src/hid/disp/display.h ****   public:
  22:../../libDaisy//src/hid/disp/display.h ****     OneBitGraphicsDisplay() {}
  23:../../libDaisy//src/hid/disp/display.h ****     virtual ~OneBitGraphicsDisplay() {}
  24:../../libDaisy//src/hid/disp/display.h **** 
  25:../../libDaisy//src/hid/disp/display.h ****     virtual uint16_t Height() const = 0;
  26:../../libDaisy//src/hid/disp/display.h ****     virtual uint16_t Width() const  = 0;
  27:../../libDaisy//src/hid/disp/display.h **** 
  28:../../libDaisy//src/hid/disp/display.h ****     Rectangle GetBounds() const
  29:../../libDaisy//src/hid/disp/display.h ****     {
  30:../../libDaisy//src/hid/disp/display.h ****         return Rectangle(int16_t(Width()), int16_t(Height()));
  31:../../libDaisy//src/hid/disp/display.h ****     }
  32:../../libDaisy//src/hid/disp/display.h **** 
  33:../../libDaisy//src/hid/disp/display.h **** 
  34:../../libDaisy//src/hid/disp/display.h ****     size_t CurrentX() { return currentX_; };
  35:../../libDaisy//src/hid/disp/display.h ****     size_t CurrentY() { return currentY_; };
  36:../../libDaisy//src/hid/disp/display.h **** 
  37:../../libDaisy//src/hid/disp/display.h ****     /** 
  38:../../libDaisy//src/hid/disp/display.h ****     Fills the entire display with either on/off.
  39:../../libDaisy//src/hid/disp/display.h ****     \param on Sets on or off.
  40:../../libDaisy//src/hid/disp/display.h ****     */
  41:../../libDaisy//src/hid/disp/display.h ****     virtual void Fill(bool on) = 0;
  42:../../libDaisy//src/hid/disp/display.h **** 
  43:../../libDaisy//src/hid/disp/display.h ****     /**
  44:../../libDaisy//src/hid/disp/display.h ****     Sets the pixel at the specified coordinate to be on/off.
  45:../../libDaisy//src/hid/disp/display.h ****     \param x   x Coordinate
  46:../../libDaisy//src/hid/disp/display.h ****     \param y   y coordinate
  47:../../libDaisy//src/hid/disp/display.h ****     \param on  on or off
  48:../../libDaisy//src/hid/disp/display.h ****     */
  49:../../libDaisy//src/hid/disp/display.h ****     virtual void DrawPixel(uint_fast8_t x, uint_fast8_t y, bool on) = 0;
  50:../../libDaisy//src/hid/disp/display.h **** 
  51:../../libDaisy//src/hid/disp/display.h ****     /**
  52:../../libDaisy//src/hid/disp/display.h ****     Draws a line from (x1, y1) to (y1, y2)
  53:../../libDaisy//src/hid/disp/display.h ****     \param x1  x Coordinate of the starting point
  54:../../libDaisy//src/hid/disp/display.h ****     \param y1  y Coordinate of the starting point
  55:../../libDaisy//src/hid/disp/display.h ****     \param x2  x Coordinate of the ending point
  56:../../libDaisy//src/hid/disp/display.h ****     \param y2  y Coordinate of the ending point
  57:../../libDaisy//src/hid/disp/display.h ****     \param on  on or off
  58:../../libDaisy//src/hid/disp/display.h ****     */
  59:../../libDaisy//src/hid/disp/display.h ****     virtual void DrawLine(uint_fast8_t x1,
  60:../../libDaisy//src/hid/disp/display.h ****                           uint_fast8_t y1,
  61:../../libDaisy//src/hid/disp/display.h ****                           uint_fast8_t x2,
  62:../../libDaisy//src/hid/disp/display.h ****                           uint_fast8_t y2,
  63:../../libDaisy//src/hid/disp/display.h ****                           bool         on)
  64:../../libDaisy//src/hid/disp/display.h ****         = 0;
  65:../../libDaisy//src/hid/disp/display.h **** 
ARM GAS  /var/folders/1y/_321xjh9623c014x9_qw12rr0000gn/T//ccXuncwa.s 			page 9


  66:../../libDaisy//src/hid/disp/display.h ****     /**
  67:../../libDaisy//src/hid/disp/display.h ****     Draws a rectangle based on two coordinates.
  68:../../libDaisy//src/hid/disp/display.h ****     \param x1 x Coordinate of the first point
  69:../../libDaisy//src/hid/disp/display.h ****     \param y1 y Coordinate of the first point
  70:../../libDaisy//src/hid/disp/display.h ****     \param x2 x Coordinate of the second point
  71:../../libDaisy//src/hid/disp/display.h ****     \param y2 y Coordinate of the second point
  72:../../libDaisy//src/hid/disp/display.h ****     \param on on or off
  73:../../libDaisy//src/hid/disp/display.h ****     \param fill fill the rectangle or draw only the outline
  74:../../libDaisy//src/hid/disp/display.h ****     */
  75:../../libDaisy//src/hid/disp/display.h ****     virtual void DrawRect(uint_fast8_t x1,
  76:../../libDaisy//src/hid/disp/display.h ****                           uint_fast8_t y1,
  77:../../libDaisy//src/hid/disp/display.h ****                           uint_fast8_t x2,
  78:../../libDaisy//src/hid/disp/display.h ****                           uint_fast8_t y2,
  79:../../libDaisy//src/hid/disp/display.h ****                           bool         on,
  80:../../libDaisy//src/hid/disp/display.h ****                           bool         fill = false)
  81:../../libDaisy//src/hid/disp/display.h ****         = 0;
  82:../../libDaisy//src/hid/disp/display.h **** 
  83:../../libDaisy//src/hid/disp/display.h ****     /**
  84:../../libDaisy//src/hid/disp/display.h ****     Draws a rectangle.
  85:../../libDaisy//src/hid/disp/display.h ****     \param rect the rectangle
  86:../../libDaisy//src/hid/disp/display.h ****     \param on   on or off
  87:../../libDaisy//src/hid/disp/display.h ****     \param fill fill the rectangle or draw only the outline
  88:../../libDaisy//src/hid/disp/display.h ****     */
  89:../../libDaisy//src/hid/disp/display.h ****     void DrawRect(const Rectangle& rect, bool on, bool fill = false)
  90:../../libDaisy//src/hid/disp/display.h ****     {
  91:../../libDaisy//src/hid/disp/display.h ****         DrawRect(rect.GetX(),
  92:../../libDaisy//src/hid/disp/display.h ****                  rect.GetY(),
  93:../../libDaisy//src/hid/disp/display.h ****                  rect.GetRight(),
  94:../../libDaisy//src/hid/disp/display.h ****                  rect.GetBottom(),
  95:../../libDaisy//src/hid/disp/display.h ****                  on,
  96:../../libDaisy//src/hid/disp/display.h ****                  fill);
  97:../../libDaisy//src/hid/disp/display.h ****     }
  98:../../libDaisy//src/hid/disp/display.h **** 
  99:../../libDaisy//src/hid/disp/display.h ****     /**
 100:../../libDaisy//src/hid/disp/display.h ****     Draws an arc around the specified coordinate
 101:../../libDaisy//src/hid/disp/display.h ****     \param x           x Coordinate of the center of the arc
 102:../../libDaisy//src/hid/disp/display.h ****     \param y           y Coordinate of the center of the arc
 103:../../libDaisy//src/hid/disp/display.h ****     \param radius      radius of the arc
 104:../../libDaisy//src/hid/disp/display.h ****     \param start_angle angle where to start the arc
 105:../../libDaisy//src/hid/disp/display.h ****     \param sweep       total angle of the arc
 106:../../libDaisy//src/hid/disp/display.h ****     \param on  on or off
 107:../../libDaisy//src/hid/disp/display.h ****     */
 108:../../libDaisy//src/hid/disp/display.h ****     virtual void DrawArc(uint_fast8_t x,
 109:../../libDaisy//src/hid/disp/display.h ****                          uint_fast8_t y,
 110:../../libDaisy//src/hid/disp/display.h ****                          uint_fast8_t radius,
 111:../../libDaisy//src/hid/disp/display.h ****                          int_fast16_t start_angle,
 112:../../libDaisy//src/hid/disp/display.h ****                          int_fast16_t sweep,
 113:../../libDaisy//src/hid/disp/display.h ****                          bool         on)
 114:../../libDaisy//src/hid/disp/display.h ****         = 0;
 115:../../libDaisy//src/hid/disp/display.h **** 
 116:../../libDaisy//src/hid/disp/display.h ****     /**
 117:../../libDaisy//src/hid/disp/display.h ****     Draws a circle around the specified coordinate
 118:../../libDaisy//src/hid/disp/display.h ****     \param x           x Coordinate of the center of the circle
 119:../../libDaisy//src/hid/disp/display.h ****     \param y           y Coordinate of the center of the circle
 120:../../libDaisy//src/hid/disp/display.h ****     \param radius      radius of the circle
 121:../../libDaisy//src/hid/disp/display.h ****     \param on  on or off
 122:../../libDaisy//src/hid/disp/display.h ****     */
ARM GAS  /var/folders/1y/_321xjh9623c014x9_qw12rr0000gn/T//ccXuncwa.s 			page 10


 123:../../libDaisy//src/hid/disp/display.h ****     void
 124:../../libDaisy//src/hid/disp/display.h ****     DrawCircle(uint_fast8_t x, uint_fast8_t y, uint_fast8_t radius, bool on)
 125:../../libDaisy//src/hid/disp/display.h ****     {
 126:../../libDaisy//src/hid/disp/display.h ****         DrawArc(x, y, radius, 0, 360, on);
 127:../../libDaisy//src/hid/disp/display.h ****     };
 128:../../libDaisy//src/hid/disp/display.h **** 
 129:../../libDaisy//src/hid/disp/display.h ****     /** 
 130:../../libDaisy//src/hid/disp/display.h ****     Writes the character with the specific FontDef
 131:../../libDaisy//src/hid/disp/display.h ****     to the display buffer at the current Cursor position.
 132:../../libDaisy//src/hid/disp/display.h ****     \param ch character to be written
 133:../../libDaisy//src/hid/disp/display.h ****     \param font font to be written in
 134:../../libDaisy//src/hid/disp/display.h ****     \param on    on or off
 135:../../libDaisy//src/hid/disp/display.h ****     \return &
 136:../../libDaisy//src/hid/disp/display.h ****     */
 137:../../libDaisy//src/hid/disp/display.h ****     virtual char WriteChar(char ch, FontDef font, bool on) = 0;
 138:../../libDaisy//src/hid/disp/display.h **** 
 139:../../libDaisy//src/hid/disp/display.h ****     /** 
 140:../../libDaisy//src/hid/disp/display.h ****     Similar to WriteChar, except it will handle an entire String.
 141:../../libDaisy//src/hid/disp/display.h ****     Wrapping does not happen automatically, so the width
 142:../../libDaisy//src/hid/disp/display.h ****     of the string must be kept within the dimensions of the screen.
 143:../../libDaisy//src/hid/disp/display.h ****     \param str string to be written
 144:../../libDaisy//src/hid/disp/display.h ****     \param font font to use
 145:../../libDaisy//src/hid/disp/display.h ****     \param on  on or off
 146:../../libDaisy//src/hid/disp/display.h ****     \return &
 147:../../libDaisy//src/hid/disp/display.h ****     */
 148:../../libDaisy//src/hid/disp/display.h ****     virtual char WriteString(const char* str, FontDef font, bool on) = 0;
 149:../../libDaisy//src/hid/disp/display.h **** 
 150:../../libDaisy//src/hid/disp/display.h ****     /** 
 151:../../libDaisy//src/hid/disp/display.h ****     Similar to WriteString but justified within a bounding box.
 152:../../libDaisy//src/hid/disp/display.h ****     \param str          string to be written
 153:../../libDaisy//src/hid/disp/display.h ****     \param font         font to use
 154:../../libDaisy//src/hid/disp/display.h ****     \param boundingBox  the bounding box to draw the text in
 155:../../libDaisy//src/hid/disp/display.h ****     \param alignment    the alignment to use
 156:../../libDaisy//src/hid/disp/display.h ****     \param on           on or off
 157:../../libDaisy//src/hid/disp/display.h ****     \return The rectangle that was drawn to
 158:../../libDaisy//src/hid/disp/display.h ****     */
 159:../../libDaisy//src/hid/disp/display.h ****     virtual Rectangle WriteStringAligned(const char*    str,
 160:../../libDaisy//src/hid/disp/display.h ****                                          const FontDef& font,
 161:../../libDaisy//src/hid/disp/display.h ****                                          Rectangle      boundingBox,
 162:../../libDaisy//src/hid/disp/display.h ****                                          Alignment      alignment,
 163:../../libDaisy//src/hid/disp/display.h ****                                          bool           on)
 164:../../libDaisy//src/hid/disp/display.h ****         = 0;
 165:../../libDaisy//src/hid/disp/display.h **** 
 166:../../libDaisy//src/hid/disp/display.h ****     /** 
 167:../../libDaisy//src/hid/disp/display.h ****     Moves the 'Cursor' position used for WriteChar, and WriteStr to the specified coordinate.
 168:../../libDaisy//src/hid/disp/display.h ****     \param x x pos
 169:../../libDaisy//src/hid/disp/display.h ****     \param y y pos
 170:../../libDaisy//src/hid/disp/display.h ****     */
 171:../../libDaisy//src/hid/disp/display.h ****     void SetCursor(uint16_t x, uint16_t y)
 172:../../libDaisy//src/hid/disp/display.h ****     {
 173:../../libDaisy//src/hid/disp/display.h ****         currentX_ = (x >= Width()) ? Width() - 1 : x;
 174:../../libDaisy//src/hid/disp/display.h ****         currentY_ = (y >= Height()) ? Height() - 1 : y;
 175:../../libDaisy//src/hid/disp/display.h ****     }
 176:../../libDaisy//src/hid/disp/display.h **** 
 177:../../libDaisy//src/hid/disp/display.h ****     /** 
 178:../../libDaisy//src/hid/disp/display.h ****     Writes the current display buffer to the OLED device using SPI or I2C depending on 
 179:../../libDaisy//src/hid/disp/display.h ****     how the object was initialized.
ARM GAS  /var/folders/1y/_321xjh9623c014x9_qw12rr0000gn/T//ccXuncwa.s 			page 11


 180:../../libDaisy//src/hid/disp/display.h ****     */
 181:../../libDaisy//src/hid/disp/display.h ****     virtual void Update() = 0;
 182:../../libDaisy//src/hid/disp/display.h **** 
 183:../../libDaisy//src/hid/disp/display.h ****   protected:
 184:../../libDaisy//src/hid/disp/display.h ****     uint16_t currentX_;
 185:../../libDaisy//src/hid/disp/display.h ****     uint16_t currentY_;
 186:../../libDaisy//src/hid/disp/display.h **** };
 187:../../libDaisy//src/hid/disp/display.h **** 
 188:../../libDaisy//src/hid/disp/display.h **** /** This class is intended as a intermediary class for your actual implementation of the OneBitGrap
 189:../../libDaisy//src/hid/disp/display.h ****  *  interface. It uses the CRTP design pattern where the template argument is the child class. It p
 190:../../libDaisy//src/hid/disp/display.h ****  *  implementations for most of the functions, except DrawPixel(), Update() and Fill(), which you'l
 191:../../libDaisy//src/hid/disp/display.h ****  *  to provide in your child class.
 192:../../libDaisy//src/hid/disp/display.h ****  *  The main goal of this class is to provide common drawing functions without relying on massive a
 193:../../libDaisy//src/hid/disp/display.h ****  *  virtual function calls that would result in a performance loss. To achieve this, any drawing fu
 194:../../libDaisy//src/hid/disp/display.h ****  *  is implemented here and internally calls other drawing functions (e.g. DrawRect() which interna
 195:../../libDaisy//src/hid/disp/display.h ****  *  DrawPixel() and DrawLine()) makes these calls via the qualified name of these functions to expl
 196:../../libDaisy//src/hid/disp/display.h ****  *  suppress the virtual dispatch mechanism like this:
 197:../../libDaisy//src/hid/disp/display.h ****  * 
 198:../../libDaisy//src/hid/disp/display.h ****  *      ChildType::DrawPixel(...); // no virtual function call; direct call into the child class fu
 199:../../libDaisy//src/hid/disp/display.h ****  *  
 200:../../libDaisy//src/hid/disp/display.h ****  *  To create a custom OneBitGraphicsDisplay implementation, you can 
 201:../../libDaisy//src/hid/disp/display.h ****  *  A) inherit from OneBitGraphicsDisplay directly and provide all the drawing functions yourself
 202:../../libDaisy//src/hid/disp/display.h ****  *  B) Inherit from OneBitGraphicsDisplayImpl and only provide DrawPixel(), Fill() and Update()
 203:../../libDaisy//src/hid/disp/display.h ****  *     like this:
 204:../../libDaisy//src/hid/disp/display.h ****  *  
 205:../../libDaisy//src/hid/disp/display.h ****  *      class MyDisplayClass : public OneBitGraphicsDisplayImpl<MyDisplayClass> 
 206:../../libDaisy//src/hid/disp/display.h ****  *      {
 207:../../libDaisy//src/hid/disp/display.h ****  *      public:
 208:../../libDaisy//src/hid/disp/display.h ****  *          void Fill() override { ... };
 209:../../libDaisy//src/hid/disp/display.h ****  *          void DrawPixel(uint_fast8_t x, uint_fast8_t y, bool on) override { ... };
 210:../../libDaisy//src/hid/disp/display.h ****  *          void Update() override { ... }
 211:../../libDaisy//src/hid/disp/display.h ****  *      };
 212:../../libDaisy//src/hid/disp/display.h ****  *  
 213:../../libDaisy//src/hid/disp/display.h ****  */
 214:../../libDaisy//src/hid/disp/display.h **** template <class ChildType>
 215:../../libDaisy//src/hid/disp/display.h **** class OneBitGraphicsDisplayImpl : public OneBitGraphicsDisplay
 216:../../libDaisy//src/hid/disp/display.h **** {
 217:../../libDaisy//src/hid/disp/display.h ****   public:
 218:../../libDaisy//src/hid/disp/display.h ****     OneBitGraphicsDisplayImpl() {}
 219:../../libDaisy//src/hid/disp/display.h ****     virtual ~OneBitGraphicsDisplayImpl() {}
 220:../../libDaisy//src/hid/disp/display.h **** 
 221:../../libDaisy//src/hid/disp/display.h ****     void DrawLine(uint_fast8_t x1,
 222:../../libDaisy//src/hid/disp/display.h ****                   uint_fast8_t y1,
 223:../../libDaisy//src/hid/disp/display.h ****                   uint_fast8_t x2,
 224:../../libDaisy//src/hid/disp/display.h ****                   uint_fast8_t y2,
 225:../../libDaisy//src/hid/disp/display.h ****                   bool         on) override
 226:../../libDaisy//src/hid/disp/display.h ****     {
 227:../../libDaisy//src/hid/disp/display.h ****         int_fast16_t deltaX = abs((int_fast16_t)x2 - (int_fast16_t)x1);
 228:../../libDaisy//src/hid/disp/display.h ****         int_fast16_t deltaY = abs((int_fast16_t)y2 - (int_fast16_t)y1);
 229:../../libDaisy//src/hid/disp/display.h ****         int_fast16_t signX  = ((x1 < x2) ? 1 : -1);
 230:../../libDaisy//src/hid/disp/display.h ****         int_fast16_t signY  = ((y1 < y2) ? 1 : -1);
 231:../../libDaisy//src/hid/disp/display.h ****         int_fast16_t error  = deltaX - deltaY;
 232:../../libDaisy//src/hid/disp/display.h ****         int_fast16_t error2;
 233:../../libDaisy//src/hid/disp/display.h **** 
 234:../../libDaisy//src/hid/disp/display.h ****         // If we write "ChildType::DrawPixel(x2, y2, on);", we end up with
 235:../../libDaisy//src/hid/disp/display.h ****         // all sorts of weird compiler errors when the Child class is a template
 236:../../libDaisy//src/hid/disp/display.h ****         // class. The only way around this is to use this very verbose syntax:
ARM GAS  /var/folders/1y/_321xjh9623c014x9_qw12rr0000gn/T//ccXuncwa.s 			page 12


 237:../../libDaisy//src/hid/disp/display.h ****         ((ChildType*)(this))->ChildType::DrawPixel(x2, y2, on);
 238:../../libDaisy//src/hid/disp/display.h **** 
 239:../../libDaisy//src/hid/disp/display.h ****         while((x1 != x2) || (y1 != y2))
 240:../../libDaisy//src/hid/disp/display.h ****         {
 241:../../libDaisy//src/hid/disp/display.h ****             ((ChildType*)(this))->ChildType::DrawPixel(x1, y1, on);
 242:../../libDaisy//src/hid/disp/display.h ****             error2 = error * 2;
 243:../../libDaisy//src/hid/disp/display.h ****             if(error2 > -deltaY)
 244:../../libDaisy//src/hid/disp/display.h ****             {
 245:../../libDaisy//src/hid/disp/display.h ****                 error -= deltaY;
 246:../../libDaisy//src/hid/disp/display.h ****                 x1 += signX;
 247:../../libDaisy//src/hid/disp/display.h ****             }
 248:../../libDaisy//src/hid/disp/display.h **** 
 249:../../libDaisy//src/hid/disp/display.h ****             if(error2 < deltaX)
 250:../../libDaisy//src/hid/disp/display.h ****             {
 251:../../libDaisy//src/hid/disp/display.h ****                 error += deltaX;
 252:../../libDaisy//src/hid/disp/display.h ****                 y1 += signY;
 253:../../libDaisy//src/hid/disp/display.h ****             }
 254:../../libDaisy//src/hid/disp/display.h ****         }
 255:../../libDaisy//src/hid/disp/display.h ****     }
 256:../../libDaisy//src/hid/disp/display.h **** 
 257:../../libDaisy//src/hid/disp/display.h ****     void DrawRect(uint_fast8_t x1,
 258:../../libDaisy//src/hid/disp/display.h ****                   uint_fast8_t y1,
 259:../../libDaisy//src/hid/disp/display.h ****                   uint_fast8_t x2,
 260:../../libDaisy//src/hid/disp/display.h ****                   uint_fast8_t y2,
 261:../../libDaisy//src/hid/disp/display.h ****                   bool         on,
 262:../../libDaisy//src/hid/disp/display.h ****                   bool         fill = false) override
 263:../../libDaisy//src/hid/disp/display.h ****     {
 264:../../libDaisy//src/hid/disp/display.h ****         if(fill)
 265:../../libDaisy//src/hid/disp/display.h ****         {
 266:../../libDaisy//src/hid/disp/display.h ****             for(uint_fast8_t x = x1; x <= x2; x++)
 103              		.loc 3 266 30 view .LVU9
 104 0006 0125     		movs	r5, #1
 105              	.LBE270:
 106              	.LBE269:
 107              	.LBE268:
 108              	.LBE344:
 261:Dubby.cpp     **** {
 109              		.loc 2 261 6 view .LVU10
 110 0008 89B0     		sub	sp, sp, #36
 111              		.cfi_def_cfa_offset 72
 112              	.LBB345:
 113              		.loc 2 265 49 view .LVU11
 114 000a FFF7FEFF 		bl	_ZN5daisy6System6GetNowEv
 115              	.LVL5:
 116              		.loc 2 265 29 view .LVU12
 117 000e CAF82C08 		str	r0, [r10, #2092]
 266:Dubby.cpp     ****         display.DrawRect(PANE_X_START, PANE_Y_START, PANE_X_END, PANE_Y_END, false, true);
 118              		.loc 2 266 9 is_stmt 1 view .LVU13
 119              	.LVL6:
 120              	.LBB289:
 121              	.LBI268:
 257:../../libDaisy//src/hid/disp/display.h ****                   uint_fast8_t y1,
 122              		.loc 3 257 10 view .LVU14
 123              	.LBB287:
 124              	.LBI269:
 257:../../libDaisy//src/hid/disp/display.h ****                   uint_fast8_t y1,
 125              		.loc 3 257 10 view .LVU15
ARM GAS  /var/folders/1y/_321xjh9623c014x9_qw12rr0000gn/T//ccXuncwa.s 			page 13


 126              	.LBB285:
 127              		.loc 3 266 40 view .LVU16
 128              	.L6:
 129              	.LBB271:
 267:../../libDaisy//src/hid/disp/display.h ****             {
 268:../../libDaisy//src/hid/disp/display.h ****                 for(uint_fast8_t y = y1; y <= y2; y++)
 130              		.loc 3 268 44 view .LVU17
 131              		.loc 3 268 34 is_stmt 0 view .LVU18
 132 0012 0122     		movs	r2, #1
 133              	.LVL7:
 134              	.L5:
 135              	.LBB272:
 136              	.LBI272:
  29:../../libDaisy//src/hid/disp/oled_display.h **** 
  30:../../libDaisy//src/hid/disp/oled_display.h ****     /** 
  31:../../libDaisy//src/hid/disp/oled_display.h ****     Fills the entire display with either on/off.
  32:../../libDaisy//src/hid/disp/oled_display.h ****     \param on Sets on or off.
  33:../../libDaisy//src/hid/disp/oled_display.h ****     */
  34:../../libDaisy//src/hid/disp/oled_display.h ****     void Fill(bool on) override { driver_.Fill(on); }
  35:../../libDaisy//src/hid/disp/oled_display.h **** 
  36:../../libDaisy//src/hid/disp/oled_display.h ****     /**
  37:../../libDaisy//src/hid/disp/oled_display.h ****     Sets the pixel at the specified coordinate to be on/off.
  38:../../libDaisy//src/hid/disp/oled_display.h ****     \param x   x Coordinate
  39:../../libDaisy//src/hid/disp/oled_display.h ****     \param y   y coordinate
  40:../../libDaisy//src/hid/disp/oled_display.h ****     \param on  on or off
  41:../../libDaisy//src/hid/disp/oled_display.h ****     */
  42:../../libDaisy//src/hid/disp/oled_display.h ****     void DrawPixel(uint_fast8_t x, uint_fast8_t y, bool on) override
 137              		.loc 1 42 10 is_stmt 1 view .LVU19
 138              	.LBB273:
 139              	.LBI273:
 140              		.file 4 "../../libDaisy//src/dev/oled_ssd130x.h"
   1:../../libDaisy//src/dev/oled_ssd130x.h **** #pragma once
   2:../../libDaisy//src/dev/oled_ssd130x.h **** #ifndef SA_OLED_SSD130X_H
   3:../../libDaisy//src/dev/oled_ssd130x.h **** #define SA_OLED_SSD130X_H /**< & */
   4:../../libDaisy//src/dev/oled_ssd130x.h **** 
   5:../../libDaisy//src/dev/oled_ssd130x.h **** #include "per/i2c.h"
   6:../../libDaisy//src/dev/oled_ssd130x.h **** #include "per/spi.h"
   7:../../libDaisy//src/dev/oled_ssd130x.h **** #include "per/gpio.h"
   8:../../libDaisy//src/dev/oled_ssd130x.h **** #include "sys/system.h"
   9:../../libDaisy//src/dev/oled_ssd130x.h **** 
  10:../../libDaisy//src/dev/oled_ssd130x.h **** namespace daisy
  11:../../libDaisy//src/dev/oled_ssd130x.h **** {
  12:../../libDaisy//src/dev/oled_ssd130x.h **** /**
  13:../../libDaisy//src/dev/oled_ssd130x.h ****  * I2C Transport for SSD1306 / SSD1309 OLED display devices
  14:../../libDaisy//src/dev/oled_ssd130x.h ****  */
  15:../../libDaisy//src/dev/oled_ssd130x.h **** class SSD130xI2CTransport
  16:../../libDaisy//src/dev/oled_ssd130x.h **** {
  17:../../libDaisy//src/dev/oled_ssd130x.h ****   public:
  18:../../libDaisy//src/dev/oled_ssd130x.h ****     struct Config
  19:../../libDaisy//src/dev/oled_ssd130x.h ****     {
  20:../../libDaisy//src/dev/oled_ssd130x.h ****         Config()
  21:../../libDaisy//src/dev/oled_ssd130x.h ****         {
  22:../../libDaisy//src/dev/oled_ssd130x.h ****             // Intialize using defaults
  23:../../libDaisy//src/dev/oled_ssd130x.h ****             Defaults();
  24:../../libDaisy//src/dev/oled_ssd130x.h ****         }
  25:../../libDaisy//src/dev/oled_ssd130x.h ****         I2CHandle::Config i2c_config;
  26:../../libDaisy//src/dev/oled_ssd130x.h ****         uint8_t           i2c_address;
ARM GAS  /var/folders/1y/_321xjh9623c014x9_qw12rr0000gn/T//ccXuncwa.s 			page 14


  27:../../libDaisy//src/dev/oled_ssd130x.h ****         void              Defaults()
  28:../../libDaisy//src/dev/oled_ssd130x.h ****         {
  29:../../libDaisy//src/dev/oled_ssd130x.h ****             i2c_config.periph         = I2CHandle::Config::Peripheral::I2C_1;
  30:../../libDaisy//src/dev/oled_ssd130x.h ****             i2c_config.speed          = I2CHandle::Config::Speed::I2C_1MHZ;
  31:../../libDaisy//src/dev/oled_ssd130x.h ****             i2c_config.mode           = I2CHandle::Config::Mode::I2C_MASTER;
  32:../../libDaisy//src/dev/oled_ssd130x.h ****             i2c_config.pin_config.scl = {DSY_GPIOB, 8};
  33:../../libDaisy//src/dev/oled_ssd130x.h ****             i2c_config.pin_config.sda = {DSY_GPIOB, 9};
  34:../../libDaisy//src/dev/oled_ssd130x.h ****             i2c_address               = 0x3C;
  35:../../libDaisy//src/dev/oled_ssd130x.h ****         }
  36:../../libDaisy//src/dev/oled_ssd130x.h ****     };
  37:../../libDaisy//src/dev/oled_ssd130x.h ****     void Init(const Config& config)
  38:../../libDaisy//src/dev/oled_ssd130x.h ****     {
  39:../../libDaisy//src/dev/oled_ssd130x.h ****         i2c_address_ = config.i2c_address;
  40:../../libDaisy//src/dev/oled_ssd130x.h ****         i2c_.Init(config.i2c_config);
  41:../../libDaisy//src/dev/oled_ssd130x.h ****     };
  42:../../libDaisy//src/dev/oled_ssd130x.h ****     void SendCommand(uint8_t cmd)
  43:../../libDaisy//src/dev/oled_ssd130x.h ****     {
  44:../../libDaisy//src/dev/oled_ssd130x.h ****         uint8_t buf[2] = {0X00, cmd};
  45:../../libDaisy//src/dev/oled_ssd130x.h ****         i2c_.TransmitBlocking(i2c_address_, buf, 2, 1000);
  46:../../libDaisy//src/dev/oled_ssd130x.h ****     };
  47:../../libDaisy//src/dev/oled_ssd130x.h **** 
  48:../../libDaisy//src/dev/oled_ssd130x.h ****     void SendData(uint8_t* buff, size_t size)
  49:../../libDaisy//src/dev/oled_ssd130x.h ****     {
  50:../../libDaisy//src/dev/oled_ssd130x.h ****         for(size_t i = 0; i < size; i++)
  51:../../libDaisy//src/dev/oled_ssd130x.h ****         {
  52:../../libDaisy//src/dev/oled_ssd130x.h ****             uint8_t buf[2] = {0X40, buff[i]};
  53:../../libDaisy//src/dev/oled_ssd130x.h ****             i2c_.TransmitBlocking(i2c_address_, buf, 2, 1000);
  54:../../libDaisy//src/dev/oled_ssd130x.h ****         }
  55:../../libDaisy//src/dev/oled_ssd130x.h ****     };
  56:../../libDaisy//src/dev/oled_ssd130x.h **** 
  57:../../libDaisy//src/dev/oled_ssd130x.h ****   private:
  58:../../libDaisy//src/dev/oled_ssd130x.h ****     daisy::I2CHandle i2c_;
  59:../../libDaisy//src/dev/oled_ssd130x.h ****     uint8_t          i2c_address_;
  60:../../libDaisy//src/dev/oled_ssd130x.h **** };
  61:../../libDaisy//src/dev/oled_ssd130x.h **** 
  62:../../libDaisy//src/dev/oled_ssd130x.h **** /**
  63:../../libDaisy//src/dev/oled_ssd130x.h ****  * 4 Wire SPI Transport for SSD1306 / SSD1309 OLED display devices
  64:../../libDaisy//src/dev/oled_ssd130x.h ****  */
  65:../../libDaisy//src/dev/oled_ssd130x.h **** class SSD130x4WireSpiTransport
  66:../../libDaisy//src/dev/oled_ssd130x.h **** {
  67:../../libDaisy//src/dev/oled_ssd130x.h ****   public:
  68:../../libDaisy//src/dev/oled_ssd130x.h ****     struct Config
  69:../../libDaisy//src/dev/oled_ssd130x.h ****     {
  70:../../libDaisy//src/dev/oled_ssd130x.h ****         Config()
  71:../../libDaisy//src/dev/oled_ssd130x.h ****         {
  72:../../libDaisy//src/dev/oled_ssd130x.h ****             // Initialize using defaults
  73:../../libDaisy//src/dev/oled_ssd130x.h ****             Defaults();
  74:../../libDaisy//src/dev/oled_ssd130x.h ****         }
  75:../../libDaisy//src/dev/oled_ssd130x.h ****         SpiHandle::Config spi_config;
  76:../../libDaisy//src/dev/oled_ssd130x.h ****         struct
  77:../../libDaisy//src/dev/oled_ssd130x.h ****         {
  78:../../libDaisy//src/dev/oled_ssd130x.h ****             dsy_gpio_pin dc;    /**< & */
  79:../../libDaisy//src/dev/oled_ssd130x.h ****             dsy_gpio_pin reset; /**< & */
  80:../../libDaisy//src/dev/oled_ssd130x.h ****         } pin_config;
  81:../../libDaisy//src/dev/oled_ssd130x.h ****         void Defaults()
  82:../../libDaisy//src/dev/oled_ssd130x.h ****         {
  83:../../libDaisy//src/dev/oled_ssd130x.h ****             // SPI peripheral config
ARM GAS  /var/folders/1y/_321xjh9623c014x9_qw12rr0000gn/T//ccXuncwa.s 			page 15


  84:../../libDaisy//src/dev/oled_ssd130x.h ****             spi_config.periph = SpiHandle::Config::Peripheral::SPI_1;
  85:../../libDaisy//src/dev/oled_ssd130x.h ****             spi_config.mode   = SpiHandle::Config::Mode::MASTER;
  86:../../libDaisy//src/dev/oled_ssd130x.h ****             spi_config.direction
  87:../../libDaisy//src/dev/oled_ssd130x.h ****                 = SpiHandle::Config::Direction::TWO_LINES_TX_ONLY;
  88:../../libDaisy//src/dev/oled_ssd130x.h ****             spi_config.datasize       = 8;
  89:../../libDaisy//src/dev/oled_ssd130x.h ****             spi_config.clock_polarity = SpiHandle::Config::ClockPolarity::LOW;
  90:../../libDaisy//src/dev/oled_ssd130x.h ****             spi_config.clock_phase    = SpiHandle::Config::ClockPhase::ONE_EDGE;
  91:../../libDaisy//src/dev/oled_ssd130x.h ****             spi_config.nss            = SpiHandle::Config::NSS::HARD_OUTPUT;
  92:../../libDaisy//src/dev/oled_ssd130x.h ****             spi_config.baud_prescaler = SpiHandle::Config::BaudPrescaler::PS_8;
  93:../../libDaisy//src/dev/oled_ssd130x.h ****             // SPI pin config
  94:../../libDaisy//src/dev/oled_ssd130x.h ****             spi_config.pin_config.sclk = {DSY_GPIOG, 11};
  95:../../libDaisy//src/dev/oled_ssd130x.h ****             spi_config.pin_config.miso = {DSY_GPIOX, 0};
  96:../../libDaisy//src/dev/oled_ssd130x.h ****             spi_config.pin_config.mosi = {DSY_GPIOB, 5};
  97:../../libDaisy//src/dev/oled_ssd130x.h ****             spi_config.pin_config.nss  = {DSY_GPIOG, 10};
  98:../../libDaisy//src/dev/oled_ssd130x.h ****             // SSD130x control pin config
  99:../../libDaisy//src/dev/oled_ssd130x.h ****             pin_config.dc    = {DSY_GPIOB, 4};
 100:../../libDaisy//src/dev/oled_ssd130x.h ****             pin_config.reset = {DSY_GPIOB, 15};
 101:../../libDaisy//src/dev/oled_ssd130x.h ****         }
 102:../../libDaisy//src/dev/oled_ssd130x.h ****     };
 103:../../libDaisy//src/dev/oled_ssd130x.h ****     void Init(const Config& config)
 104:../../libDaisy//src/dev/oled_ssd130x.h ****     {
 105:../../libDaisy//src/dev/oled_ssd130x.h ****         // Initialize both GPIO
 106:../../libDaisy//src/dev/oled_ssd130x.h ****         pin_dc_.mode = DSY_GPIO_MODE_OUTPUT_PP;
 107:../../libDaisy//src/dev/oled_ssd130x.h ****         pin_dc_.pin  = config.pin_config.dc;
 108:../../libDaisy//src/dev/oled_ssd130x.h ****         dsy_gpio_init(&pin_dc_);
 109:../../libDaisy//src/dev/oled_ssd130x.h ****         pin_reset_.mode = DSY_GPIO_MODE_OUTPUT_PP;
 110:../../libDaisy//src/dev/oled_ssd130x.h ****         pin_reset_.pin  = config.pin_config.reset;
 111:../../libDaisy//src/dev/oled_ssd130x.h ****         dsy_gpio_init(&pin_reset_);
 112:../../libDaisy//src/dev/oled_ssd130x.h **** 
 113:../../libDaisy//src/dev/oled_ssd130x.h ****         // Initialize SPI
 114:../../libDaisy//src/dev/oled_ssd130x.h ****         spi_.Init(config.spi_config);
 115:../../libDaisy//src/dev/oled_ssd130x.h **** 
 116:../../libDaisy//src/dev/oled_ssd130x.h ****         // Reset and Configure OLED.
 117:../../libDaisy//src/dev/oled_ssd130x.h ****         dsy_gpio_write(&pin_reset_, 0);
 118:../../libDaisy//src/dev/oled_ssd130x.h ****         System::Delay(10);
 119:../../libDaisy//src/dev/oled_ssd130x.h ****         dsy_gpio_write(&pin_reset_, 1);
 120:../../libDaisy//src/dev/oled_ssd130x.h ****         System::Delay(10);
 121:../../libDaisy//src/dev/oled_ssd130x.h ****     };
 122:../../libDaisy//src/dev/oled_ssd130x.h ****     void SendCommand(uint8_t cmd)
 123:../../libDaisy//src/dev/oled_ssd130x.h ****     {
 124:../../libDaisy//src/dev/oled_ssd130x.h ****         dsy_gpio_write(&pin_dc_, 0);
 125:../../libDaisy//src/dev/oled_ssd130x.h ****         spi_.BlockingTransmit(&cmd, 1);
 126:../../libDaisy//src/dev/oled_ssd130x.h ****     };
 127:../../libDaisy//src/dev/oled_ssd130x.h **** 
 128:../../libDaisy//src/dev/oled_ssd130x.h ****     void SendData(uint8_t* buff, size_t size)
 129:../../libDaisy//src/dev/oled_ssd130x.h ****     {
 130:../../libDaisy//src/dev/oled_ssd130x.h ****         dsy_gpio_write(&pin_dc_, 1);
 131:../../libDaisy//src/dev/oled_ssd130x.h ****         spi_.BlockingTransmit(buff, size);
 132:../../libDaisy//src/dev/oled_ssd130x.h ****     };
 133:../../libDaisy//src/dev/oled_ssd130x.h **** 
 134:../../libDaisy//src/dev/oled_ssd130x.h ****   private:
 135:../../libDaisy//src/dev/oled_ssd130x.h ****     SpiHandle spi_;
 136:../../libDaisy//src/dev/oled_ssd130x.h ****     dsy_gpio  pin_reset_;
 137:../../libDaisy//src/dev/oled_ssd130x.h ****     dsy_gpio  pin_dc_;
 138:../../libDaisy//src/dev/oled_ssd130x.h **** };
 139:../../libDaisy//src/dev/oled_ssd130x.h **** 
 140:../../libDaisy//src/dev/oled_ssd130x.h **** /**
ARM GAS  /var/folders/1y/_321xjh9623c014x9_qw12rr0000gn/T//ccXuncwa.s 			page 16


 141:../../libDaisy//src/dev/oled_ssd130x.h ****  * Soft SPI Transport for SSD1306 / SSD1309 OLED display devices
 142:../../libDaisy//src/dev/oled_ssd130x.h ****  */
 143:../../libDaisy//src/dev/oled_ssd130x.h **** class SSD130x4WireSoftSpiTransport
 144:../../libDaisy//src/dev/oled_ssd130x.h **** {
 145:../../libDaisy//src/dev/oled_ssd130x.h ****   public:
 146:../../libDaisy//src/dev/oled_ssd130x.h ****     struct Config
 147:../../libDaisy//src/dev/oled_ssd130x.h ****     {
 148:../../libDaisy//src/dev/oled_ssd130x.h ****         Config()
 149:../../libDaisy//src/dev/oled_ssd130x.h ****         {
 150:../../libDaisy//src/dev/oled_ssd130x.h ****             // Initialize using defaults
 151:../../libDaisy//src/dev/oled_ssd130x.h ****             Defaults();
 152:../../libDaisy//src/dev/oled_ssd130x.h ****         }
 153:../../libDaisy//src/dev/oled_ssd130x.h ****         struct
 154:../../libDaisy//src/dev/oled_ssd130x.h ****         {
 155:../../libDaisy//src/dev/oled_ssd130x.h ****             uint32_t     sclk_delay;
 156:../../libDaisy//src/dev/oled_ssd130x.h ****             dsy_gpio_pin sclk;
 157:../../libDaisy//src/dev/oled_ssd130x.h ****             dsy_gpio_pin mosi;
 158:../../libDaisy//src/dev/oled_ssd130x.h ****             dsy_gpio_pin dc;
 159:../../libDaisy//src/dev/oled_ssd130x.h ****             dsy_gpio_pin reset;
 160:../../libDaisy//src/dev/oled_ssd130x.h ****         } pin_config;
 161:../../libDaisy//src/dev/oled_ssd130x.h ****         void Defaults()
 162:../../libDaisy//src/dev/oled_ssd130x.h ****         {
 163:../../libDaisy//src/dev/oled_ssd130x.h ****             pin_config.sclk_delay = 0; // fast as possible?!
 164:../../libDaisy//src/dev/oled_ssd130x.h ****             // SPI peripheral config
 165:../../libDaisy//src/dev/oled_ssd130x.h ****             pin_config.sclk = {DSY_GPIOD, 3}; /**< D10 - SPI2 SCK  */
 166:../../libDaisy//src/dev/oled_ssd130x.h ****             pin_config.mosi = {DSY_GPIOC, 3}; /**< D9  - SPI2 MOSI */
 167:../../libDaisy//src/dev/oled_ssd130x.h ****             // SSD130x control pin config
 168:../../libDaisy//src/dev/oled_ssd130x.h ****             pin_config.dc    = {DSY_GPIOC, 11}; //D2
 169:../../libDaisy//src/dev/oled_ssd130x.h ****             pin_config.reset = {DSY_GPIOC, 10}; //D3
 170:../../libDaisy//src/dev/oled_ssd130x.h ****         }
 171:../../libDaisy//src/dev/oled_ssd130x.h ****     };
 172:../../libDaisy//src/dev/oled_ssd130x.h ****     void Init(const Config& config)
 173:../../libDaisy//src/dev/oled_ssd130x.h ****     {
 174:../../libDaisy//src/dev/oled_ssd130x.h ****         // Initialize both GPIO
 175:../../libDaisy//src/dev/oled_ssd130x.h ****         pin_sclk_.mode = DSY_GPIO_MODE_OUTPUT_PP;
 176:../../libDaisy//src/dev/oled_ssd130x.h ****         pin_sclk_.pin  = config.pin_config.sclk;
 177:../../libDaisy//src/dev/oled_ssd130x.h ****         dsy_gpio_init(&pin_sclk_);
 178:../../libDaisy//src/dev/oled_ssd130x.h ****         dsy_gpio_write(&pin_sclk_, 1); //ClockPolarity::LOW
 179:../../libDaisy//src/dev/oled_ssd130x.h ****         clk_delay      = config.pin_config.sclk_delay;
 180:../../libDaisy//src/dev/oled_ssd130x.h ****         pin_mosi_.mode = DSY_GPIO_MODE_OUTPUT_PP;
 181:../../libDaisy//src/dev/oled_ssd130x.h ****         pin_mosi_.pin  = config.pin_config.mosi;
 182:../../libDaisy//src/dev/oled_ssd130x.h ****         dsy_gpio_init(&pin_mosi_);
 183:../../libDaisy//src/dev/oled_ssd130x.h ****         dsy_gpio_write(&pin_mosi_, 0);
 184:../../libDaisy//src/dev/oled_ssd130x.h **** 
 185:../../libDaisy//src/dev/oled_ssd130x.h ****         pin_dc_.mode = DSY_GPIO_MODE_OUTPUT_PP;
 186:../../libDaisy//src/dev/oled_ssd130x.h ****         pin_dc_.pin  = config.pin_config.dc;
 187:../../libDaisy//src/dev/oled_ssd130x.h ****         dsy_gpio_init(&pin_dc_);
 188:../../libDaisy//src/dev/oled_ssd130x.h ****         pin_reset_.mode = DSY_GPIO_MODE_OUTPUT_PP;
 189:../../libDaisy//src/dev/oled_ssd130x.h ****         pin_reset_.pin  = config.pin_config.reset;
 190:../../libDaisy//src/dev/oled_ssd130x.h ****         dsy_gpio_init(&pin_reset_);
 191:../../libDaisy//src/dev/oled_ssd130x.h **** 
 192:../../libDaisy//src/dev/oled_ssd130x.h ****         // Reset and Configure OLED.
 193:../../libDaisy//src/dev/oled_ssd130x.h ****         dsy_gpio_write(&pin_reset_, 0);
 194:../../libDaisy//src/dev/oled_ssd130x.h ****         System::Delay(10);
 195:../../libDaisy//src/dev/oled_ssd130x.h ****         dsy_gpio_write(&pin_reset_, 1);
 196:../../libDaisy//src/dev/oled_ssd130x.h ****         System::Delay(10);
 197:../../libDaisy//src/dev/oled_ssd130x.h ****     };
ARM GAS  /var/folders/1y/_321xjh9623c014x9_qw12rr0000gn/T//ccXuncwa.s 			page 17


 198:../../libDaisy//src/dev/oled_ssd130x.h ****     void SendCommand(uint8_t cmd)
 199:../../libDaisy//src/dev/oled_ssd130x.h ****     {
 200:../../libDaisy//src/dev/oled_ssd130x.h ****         dsy_gpio_write(&pin_dc_, 0);
 201:../../libDaisy//src/dev/oled_ssd130x.h ****         SoftSpiTransmit(cmd);
 202:../../libDaisy//src/dev/oled_ssd130x.h ****     };
 203:../../libDaisy//src/dev/oled_ssd130x.h **** 
 204:../../libDaisy//src/dev/oled_ssd130x.h ****     void SendData(uint8_t* buff, size_t size)
 205:../../libDaisy//src/dev/oled_ssd130x.h ****     {
 206:../../libDaisy//src/dev/oled_ssd130x.h ****         dsy_gpio_write(&pin_dc_, 1);
 207:../../libDaisy//src/dev/oled_ssd130x.h ****         for(size_t i = 0; i < size; i++)
 208:../../libDaisy//src/dev/oled_ssd130x.h ****             SoftSpiTransmit(buff[i]);
 209:../../libDaisy//src/dev/oled_ssd130x.h ****     };
 210:../../libDaisy//src/dev/oled_ssd130x.h **** 
 211:../../libDaisy//src/dev/oled_ssd130x.h ****   private:
 212:../../libDaisy//src/dev/oled_ssd130x.h ****     void SoftSpiTransmit(uint8_t val)
 213:../../libDaisy//src/dev/oled_ssd130x.h ****     {
 214:../../libDaisy//src/dev/oled_ssd130x.h ****         // bit flip
 215:../../libDaisy//src/dev/oled_ssd130x.h ****         val = ((val & 0x01) << 7) | ((val & 0x02) << 5) | ((val & 0x04) << 3)
 216:../../libDaisy//src/dev/oled_ssd130x.h ****               | ((val & 0x08) << 1) | ((val & 0x10) >> 1) | ((val & 0x20) >> 3)
 217:../../libDaisy//src/dev/oled_ssd130x.h ****               | ((val & 0x40) >> 5) | ((val & 0x80) >> 7);
 218:../../libDaisy//src/dev/oled_ssd130x.h **** 
 219:../../libDaisy//src/dev/oled_ssd130x.h ****         for(uint8_t bit = 0u; bit < 8u; bit++)
 220:../../libDaisy//src/dev/oled_ssd130x.h ****         {
 221:../../libDaisy//src/dev/oled_ssd130x.h ****             dsy_gpio_write(&pin_mosi_, ((val & (1 << bit)) ? 1 : 0));
 222:../../libDaisy//src/dev/oled_ssd130x.h **** 
 223:../../libDaisy//src/dev/oled_ssd130x.h ****             System::DelayTicks(clk_delay);
 224:../../libDaisy//src/dev/oled_ssd130x.h **** 
 225:../../libDaisy//src/dev/oled_ssd130x.h ****             dsy_gpio_toggle(&pin_sclk_);
 226:../../libDaisy//src/dev/oled_ssd130x.h **** 
 227:../../libDaisy//src/dev/oled_ssd130x.h ****             System::DelayTicks(clk_delay);
 228:../../libDaisy//src/dev/oled_ssd130x.h **** 
 229:../../libDaisy//src/dev/oled_ssd130x.h ****             dsy_gpio_toggle(&pin_sclk_);
 230:../../libDaisy//src/dev/oled_ssd130x.h ****         }
 231:../../libDaisy//src/dev/oled_ssd130x.h ****     }
 232:../../libDaisy//src/dev/oled_ssd130x.h **** 
 233:../../libDaisy//src/dev/oled_ssd130x.h ****     uint32_t clk_delay;
 234:../../libDaisy//src/dev/oled_ssd130x.h ****     dsy_gpio pin_sclk_;
 235:../../libDaisy//src/dev/oled_ssd130x.h ****     dsy_gpio pin_mosi_;
 236:../../libDaisy//src/dev/oled_ssd130x.h ****     dsy_gpio pin_reset_;
 237:../../libDaisy//src/dev/oled_ssd130x.h ****     dsy_gpio pin_dc_;
 238:../../libDaisy//src/dev/oled_ssd130x.h **** };
 239:../../libDaisy//src/dev/oled_ssd130x.h **** 
 240:../../libDaisy//src/dev/oled_ssd130x.h **** 
 241:../../libDaisy//src/dev/oled_ssd130x.h **** /**
 242:../../libDaisy//src/dev/oled_ssd130x.h ****  * A driver implementation for the SSD1306/SSD1309
 243:../../libDaisy//src/dev/oled_ssd130x.h ****  */
 244:../../libDaisy//src/dev/oled_ssd130x.h **** template <size_t width, size_t height, typename Transport>
 245:../../libDaisy//src/dev/oled_ssd130x.h **** class SSD130xDriver
 246:../../libDaisy//src/dev/oled_ssd130x.h **** {
 247:../../libDaisy//src/dev/oled_ssd130x.h ****   public:
 248:../../libDaisy//src/dev/oled_ssd130x.h ****     struct Config
 249:../../libDaisy//src/dev/oled_ssd130x.h ****     {
 250:../../libDaisy//src/dev/oled_ssd130x.h ****         typename Transport::Config transport_config;
 251:../../libDaisy//src/dev/oled_ssd130x.h ****     };
 252:../../libDaisy//src/dev/oled_ssd130x.h **** 
 253:../../libDaisy//src/dev/oled_ssd130x.h ****     void Init(Config config)
 254:../../libDaisy//src/dev/oled_ssd130x.h ****     {
ARM GAS  /var/folders/1y/_321xjh9623c014x9_qw12rr0000gn/T//ccXuncwa.s 			page 18


 255:../../libDaisy//src/dev/oled_ssd130x.h ****         transport_.Init(config.transport_config);
 256:../../libDaisy//src/dev/oled_ssd130x.h **** 
 257:../../libDaisy//src/dev/oled_ssd130x.h ****         // Init routine...
 258:../../libDaisy//src/dev/oled_ssd130x.h **** 
 259:../../libDaisy//src/dev/oled_ssd130x.h ****         // Display Off
 260:../../libDaisy//src/dev/oled_ssd130x.h ****         transport_.SendCommand(0xaE);
 261:../../libDaisy//src/dev/oled_ssd130x.h ****         // Dimension dependent commands...
 262:../../libDaisy//src/dev/oled_ssd130x.h ****         switch(height)
 263:../../libDaisy//src/dev/oled_ssd130x.h ****         {
 264:../../libDaisy//src/dev/oled_ssd130x.h ****             case 16:
 265:../../libDaisy//src/dev/oled_ssd130x.h ****                 // Display Clock Divide Ratio
 266:../../libDaisy//src/dev/oled_ssd130x.h ****                 transport_.SendCommand(0xD5);
 267:../../libDaisy//src/dev/oled_ssd130x.h ****                 transport_.SendCommand(0x60);
 268:../../libDaisy//src/dev/oled_ssd130x.h ****                 // Multiplex Ratio
 269:../../libDaisy//src/dev/oled_ssd130x.h ****                 transport_.SendCommand(0xA8);
 270:../../libDaisy//src/dev/oled_ssd130x.h ****                 transport_.SendCommand(0x0F);
 271:../../libDaisy//src/dev/oled_ssd130x.h ****                 // COM Pins
 272:../../libDaisy//src/dev/oled_ssd130x.h ****                 transport_.SendCommand(0xDA);
 273:../../libDaisy//src/dev/oled_ssd130x.h ****                 transport_.SendCommand(0x02);
 274:../../libDaisy//src/dev/oled_ssd130x.h ****                 break;
 275:../../libDaisy//src/dev/oled_ssd130x.h ****             case 32:
 276:../../libDaisy//src/dev/oled_ssd130x.h ****                 // Display Clock Divide Ratio
 277:../../libDaisy//src/dev/oled_ssd130x.h ****                 transport_.SendCommand(0xD5);
 278:../../libDaisy//src/dev/oled_ssd130x.h ****                 transport_.SendCommand(0x80);
 279:../../libDaisy//src/dev/oled_ssd130x.h ****                 // Multiplex Ratio
 280:../../libDaisy//src/dev/oled_ssd130x.h ****                 transport_.SendCommand(0xA8);
 281:../../libDaisy//src/dev/oled_ssd130x.h ****                 transport_.SendCommand(0x1F);
 282:../../libDaisy//src/dev/oled_ssd130x.h ****                 // COM Pins
 283:../../libDaisy//src/dev/oled_ssd130x.h ****                 transport_.SendCommand(0xDA);
 284:../../libDaisy//src/dev/oled_ssd130x.h ****                 if(width == 64)
 285:../../libDaisy//src/dev/oled_ssd130x.h ****                 {
 286:../../libDaisy//src/dev/oled_ssd130x.h ****                     transport_.SendCommand(0x12);
 287:../../libDaisy//src/dev/oled_ssd130x.h ****                 }
 288:../../libDaisy//src/dev/oled_ssd130x.h ****                 else
 289:../../libDaisy//src/dev/oled_ssd130x.h ****                 {
 290:../../libDaisy//src/dev/oled_ssd130x.h ****                     transport_.SendCommand(0x02);
 291:../../libDaisy//src/dev/oled_ssd130x.h ****                 }
 292:../../libDaisy//src/dev/oled_ssd130x.h **** 
 293:../../libDaisy//src/dev/oled_ssd130x.h ****                 break;
 294:../../libDaisy//src/dev/oled_ssd130x.h ****             case 48:
 295:../../libDaisy//src/dev/oled_ssd130x.h ****                 // Display Clock Divide Ratio
 296:../../libDaisy//src/dev/oled_ssd130x.h ****                 transport_.SendCommand(0xD5);
 297:../../libDaisy//src/dev/oled_ssd130x.h ****                 transport_.SendCommand(0x80);
 298:../../libDaisy//src/dev/oled_ssd130x.h ****                 // Multiplex Ratio
 299:../../libDaisy//src/dev/oled_ssd130x.h ****                 transport_.SendCommand(0xA8);
 300:../../libDaisy//src/dev/oled_ssd130x.h ****                 transport_.SendCommand(0x2F);
 301:../../libDaisy//src/dev/oled_ssd130x.h ****                 // COM Pins
 302:../../libDaisy//src/dev/oled_ssd130x.h ****                 transport_.SendCommand(0xDA);
 303:../../libDaisy//src/dev/oled_ssd130x.h ****                 transport_.SendCommand(0x12);
 304:../../libDaisy//src/dev/oled_ssd130x.h ****                 break;
 305:../../libDaisy//src/dev/oled_ssd130x.h ****             default: // 128
 306:../../libDaisy//src/dev/oled_ssd130x.h ****                 // Display Clock Divide Ratio
 307:../../libDaisy//src/dev/oled_ssd130x.h ****                 transport_.SendCommand(0xD5);
 308:../../libDaisy//src/dev/oled_ssd130x.h ****                 transport_.SendCommand(0x80);
 309:../../libDaisy//src/dev/oled_ssd130x.h ****                 // Multiplex Ratio
 310:../../libDaisy//src/dev/oled_ssd130x.h ****                 transport_.SendCommand(0xA8);
 311:../../libDaisy//src/dev/oled_ssd130x.h ****                 transport_.SendCommand(0x3F);
ARM GAS  /var/folders/1y/_321xjh9623c014x9_qw12rr0000gn/T//ccXuncwa.s 			page 19


 312:../../libDaisy//src/dev/oled_ssd130x.h ****                 // COM Pins
 313:../../libDaisy//src/dev/oled_ssd130x.h ****                 transport_.SendCommand(0xDA);
 314:../../libDaisy//src/dev/oled_ssd130x.h ****                 transport_.SendCommand(0x12);
 315:../../libDaisy//src/dev/oled_ssd130x.h ****                 break;
 316:../../libDaisy//src/dev/oled_ssd130x.h ****         }
 317:../../libDaisy//src/dev/oled_ssd130x.h **** 
 318:../../libDaisy//src/dev/oled_ssd130x.h ****         // Display Offset
 319:../../libDaisy//src/dev/oled_ssd130x.h ****         transport_.SendCommand(0xD3);
 320:../../libDaisy//src/dev/oled_ssd130x.h ****         transport_.SendCommand(0x00);
 321:../../libDaisy//src/dev/oled_ssd130x.h ****         // Start Line Address
 322:../../libDaisy//src/dev/oled_ssd130x.h ****         transport_.SendCommand(0x40);
 323:../../libDaisy//src/dev/oled_ssd130x.h ****         // Normal Display
 324:../../libDaisy//src/dev/oled_ssd130x.h ****         transport_.SendCommand(0xA6);
 325:../../libDaisy//src/dev/oled_ssd130x.h ****         // All On Resume
 326:../../libDaisy//src/dev/oled_ssd130x.h ****         transport_.SendCommand(0xA4);
 327:../../libDaisy//src/dev/oled_ssd130x.h ****         // Charge Pump
 328:../../libDaisy//src/dev/oled_ssd130x.h ****         transport_.SendCommand(0x8D);
 329:../../libDaisy//src/dev/oled_ssd130x.h ****         transport_.SendCommand(0x14);
 330:../../libDaisy//src/dev/oled_ssd130x.h ****         // Set Segment Remap
 331:../../libDaisy//src/dev/oled_ssd130x.h ****         transport_.SendCommand(0xA1);
 332:../../libDaisy//src/dev/oled_ssd130x.h ****         // COM Output Scan Direction
 333:../../libDaisy//src/dev/oled_ssd130x.h ****         transport_.SendCommand(0xC8);
 334:../../libDaisy//src/dev/oled_ssd130x.h ****         // Contrast Control
 335:../../libDaisy//src/dev/oled_ssd130x.h ****         transport_.SendCommand(0x81);
 336:../../libDaisy//src/dev/oled_ssd130x.h ****         transport_.SendCommand(0x8F);
 337:../../libDaisy//src/dev/oled_ssd130x.h ****         // Pre Charge
 338:../../libDaisy//src/dev/oled_ssd130x.h ****         transport_.SendCommand(0xD9);
 339:../../libDaisy//src/dev/oled_ssd130x.h ****         transport_.SendCommand(0x25);
 340:../../libDaisy//src/dev/oled_ssd130x.h ****         // VCOM Detect
 341:../../libDaisy//src/dev/oled_ssd130x.h ****         transport_.SendCommand(0xDB);
 342:../../libDaisy//src/dev/oled_ssd130x.h ****         transport_.SendCommand(0x34);
 343:../../libDaisy//src/dev/oled_ssd130x.h **** 
 344:../../libDaisy//src/dev/oled_ssd130x.h **** 
 345:../../libDaisy//src/dev/oled_ssd130x.h ****         // Display On
 346:../../libDaisy//src/dev/oled_ssd130x.h ****         transport_.SendCommand(0xAF); //--turn on oled panel
 347:../../libDaisy//src/dev/oled_ssd130x.h ****     };
 348:../../libDaisy//src/dev/oled_ssd130x.h **** 
 349:../../libDaisy//src/dev/oled_ssd130x.h ****     size_t Width() const { return width; };
 350:../../libDaisy//src/dev/oled_ssd130x.h ****     size_t Height() const { return height; };
 351:../../libDaisy//src/dev/oled_ssd130x.h **** 
 352:../../libDaisy//src/dev/oled_ssd130x.h ****     void DrawPixel(uint_fast8_t x, uint_fast8_t y, bool on)
 141              		.loc 4 352 10 view .LVU20
 142              	.LBB274:
 143              	.LBI274:
 144              		.loc 4 352 10 view .LVU21
 145              	.LBB275:
 353:../../libDaisy//src/dev/oled_ssd130x.h ****     {
 354:../../libDaisy//src/dev/oled_ssd130x.h ****         if(x >= width || y >= height)
 355:../../libDaisy//src/dev/oled_ssd130x.h ****             return;
 356:../../libDaisy//src/dev/oled_ssd130x.h ****         if(on)
 357:../../libDaisy//src/dev/oled_ssd130x.h ****             buffer_[x + (y / 8) * width] |= (1 << (y % 8));
 358:../../libDaisy//src/dev/oled_ssd130x.h ****         else
 359:../../libDaisy//src/dev/oled_ssd130x.h ****             buffer_[x + (y / 8) * width] &= ~(1 << (y % 8));
 146              		.loc 4 359 28 is_stmt 0 view .LVU22
 147 0014 D308     		lsrs	r3, r2, #3
 148              		.loc 4 359 55 view .LVU23
 149 0016 02F00701 		and	r1, r2, #7
ARM GAS  /var/folders/1y/_321xjh9623c014x9_qw12rr0000gn/T//ccXuncwa.s 			page 20


 150              		.loc 4 359 49 view .LVU24
 151 001a 0124     		movs	r4, #1
 152              		.loc 4 359 42 view .LVU25
 153 001c 05EBC313 		add	r3, r5, r3, lsl #7
 154              		.loc 4 359 49 view .LVU26
 155 0020 04FA01F0 		lsl	r0, r4, r1
 156              	.LBE275:
 157              	.LBE274:
 158              	.LBE273:
 159              	.LBE272:
 160              		.loc 3 268 17 view .LVU27
 161 0024 2244     		add	r2, r2, r4
 162              	.LVL8:
 163              	.LBB282:
 164              	.LBB280:
 165              	.LBB278:
 166              	.LBB276:
 167              		.loc 4 359 42 view .LVU28
 168 0026 5344     		add	r3, r3, r10
 169              	.LBE276:
 170              	.LBE278:
 171              	.LBE280:
 172              	.LBE282:
 173              		.loc 3 268 44 view .LVU29
 174 0028 342A     		cmp	r2, #52
 175              	.LBB283:
 176              	.LBB281:
 177              	.LBB279:
 178              	.LBB277:
 179              		.loc 4 359 42 view .LVU30
 180 002a 93F82414 		ldrb	r1, [r3, #1060]	@ zero_extendqisi2
 181 002e 21EA0001 		bic	r1, r1, r0
 182 0032 83F82414 		strb	r1, [r3, #1060]
 183              	.LVL9:
 184              		.loc 4 359 42 view .LVU31
 185              	.LBE277:
 186              	.LBE279:
 187              	.LBE281:
 188              	.LBE283:
 189              		.loc 3 268 17 is_stmt 1 view .LVU32
 190              		.loc 3 268 44 view .LVU33
 191 0036 EDD1     		bne	.L5
 192              	.LBE271:
 266:../../libDaisy//src/hid/disp/display.h ****             {
 193              		.loc 3 266 13 view .LVU34
 194 0038 2544     		add	r5, r5, r4
 195              	.LVL10:
 266:../../libDaisy//src/hid/disp/display.h ****             {
 196              		.loc 3 266 40 view .LVU35
 197 003a 7F2D     		cmp	r5, #127
 198 003c E9D1     		bne	.L6
 199 003e 0023     		movs	r3, #0
 200 0040 0AF50072 		add	r2, r10, #512
 201              	.LVL11:
 266:../../libDaisy//src/hid/disp/display.h ****             {
 202              		.loc 3 266 40 is_stmt 0 view .LVU36
 203 0044 A146     		mov	r9, r4
ARM GAS  /var/folders/1y/_321xjh9623c014x9_qw12rr0000gn/T//ccXuncwa.s 			page 21


 204              	.LBE285:
 205              	.LBE287:
 206              	.LBE289:
 267:Dubby.cpp     ****         int prev_x = 0;
 268:Dubby.cpp     ****         int prev_y = (OLED_HEIGHT - 15) / 2;
 207              		.loc 2 268 13 view .LVU37
 208 0046 1826     		movs	r6, #24
 209              	.LBB290:
 210              	.LBB288:
 211              	.LBB286:
 266:../../libDaisy//src/hid/disp/display.h ****             {
 212              		.loc 3 266 40 view .LVU38
 213 0048 0193     		str	r3, [sp, #4]
 214 004a 0492     		str	r2, [sp, #16]
 215 004c 06E0     		b	.L21
 216              	.LVL12:
 217              	.L9:
 266:../../libDaisy//src/hid/disp/display.h ****             {
 218              		.loc 3 266 40 view .LVU39
 219 004e 019B     		ldr	r3, [sp, #4]
 220 0050 09F10109 		add	r9, r9, #1
 221              	.LVL13:
 222              	.LBB284:
 223              		.loc 3 268 34 view .LVU40
 224 0054 2646     		mov	r6, r4
 225 0056 7E33     		adds	r3, r3, #126
 226 0058 0193     		str	r3, [sp, #4]
 227              	.LBE284:
 228              	.LBE286:
 229              	.LBE288:
 230              	.LBE290:
 231              	.LBB291:
 232              	.LBB292:
 269:Dubby.cpp     ****         for(size_t i = 0; i < AUDIO_BLOCK_SIZE; i++)
 270:Dubby.cpp     ****         {
 271:Dubby.cpp     ****             int y = 1 + std::min(std::max((OLED_HEIGHT - 15) / 2
 272:Dubby.cpp     ****                                         - int(scope_buffer[i] * 150),
 273:Dubby.cpp     ****                                     0),
 274:Dubby.cpp     ****                             OLED_HEIGHT - 15);
 275:Dubby.cpp     ****             int x = 1 + i * (OLED_WIDTH - 2) / AUDIO_BLOCK_SIZE;
 276:Dubby.cpp     ****             if(i != 0)
 277:Dubby.cpp     ****             {
 278:Dubby.cpp     ****                 display.DrawLine(prev_x, prev_y, x, y, true);
 279:Dubby.cpp     ****             }
 280:Dubby.cpp     ****             prev_x = x;
 233              		.loc 2 280 20 view .LVU41
 234 005a 2B46     		mov	r3, r5
 235              	.LVL14:
 236              	.L21:
 271:Dubby.cpp     ****                                         - int(scope_buffer[i] * 150),
 237              		.loc 2 271 13 is_stmt 1 view .LVU42
 238              	.LBB293:
 239              	.LBI293:
 240              		.file 5 "/Library/DaisyToolchain/0.2.0/arm/arm-none-eabi/include/c++/10.3.1/bits/stl_algobase.h"
   1:/Library/DaisyToolchain/0.2.0/arm/arm-none-eabi/include/c++/10.3.1/bits/stl_algobase.h **** // Core algorithmic facilities -*- C++ -*-
   2:/Library/DaisyToolchain/0.2.0/arm/arm-none-eabi/include/c++/10.3.1/bits/stl_algobase.h **** 
   3:/Library/DaisyToolchain/0.2.0/arm/arm-none-eabi/include/c++/10.3.1/bits/stl_algobase.h **** // Copyright (C) 2001-2020 Free Software Foundation, Inc.
ARM GAS  /var/folders/1y/_321xjh9623c014x9_qw12rr0000gn/T//ccXuncwa.s 			page 22


   4:/Library/DaisyToolchain/0.2.0/arm/arm-none-eabi/include/c++/10.3.1/bits/stl_algobase.h **** //
   5:/Library/DaisyToolchain/0.2.0/arm/arm-none-eabi/include/c++/10.3.1/bits/stl_algobase.h **** // This file is part of the GNU ISO C++ Library.  This library is free
   6:/Library/DaisyToolchain/0.2.0/arm/arm-none-eabi/include/c++/10.3.1/bits/stl_algobase.h **** // software; you can redistribute it and/or modify it under the
   7:/Library/DaisyToolchain/0.2.0/arm/arm-none-eabi/include/c++/10.3.1/bits/stl_algobase.h **** // terms of the GNU General Public License as published by the
   8:/Library/DaisyToolchain/0.2.0/arm/arm-none-eabi/include/c++/10.3.1/bits/stl_algobase.h **** // Free Software Foundation; either version 3, or (at your option)
   9:/Library/DaisyToolchain/0.2.0/arm/arm-none-eabi/include/c++/10.3.1/bits/stl_algobase.h **** // any later version.
  10:/Library/DaisyToolchain/0.2.0/arm/arm-none-eabi/include/c++/10.3.1/bits/stl_algobase.h **** 
  11:/Library/DaisyToolchain/0.2.0/arm/arm-none-eabi/include/c++/10.3.1/bits/stl_algobase.h **** // This library is distributed in the hope that it will be useful,
  12:/Library/DaisyToolchain/0.2.0/arm/arm-none-eabi/include/c++/10.3.1/bits/stl_algobase.h **** // but WITHOUT ANY WARRANTY; without even the implied warranty of
  13:/Library/DaisyToolchain/0.2.0/arm/arm-none-eabi/include/c++/10.3.1/bits/stl_algobase.h **** // MERCHANTABILITY or FITNESS FOR A PARTICULAR PURPOSE.  See the
  14:/Library/DaisyToolchain/0.2.0/arm/arm-none-eabi/include/c++/10.3.1/bits/stl_algobase.h **** // GNU General Public License for more details.
  15:/Library/DaisyToolchain/0.2.0/arm/arm-none-eabi/include/c++/10.3.1/bits/stl_algobase.h **** 
  16:/Library/DaisyToolchain/0.2.0/arm/arm-none-eabi/include/c++/10.3.1/bits/stl_algobase.h **** // Under Section 7 of GPL version 3, you are granted additional
  17:/Library/DaisyToolchain/0.2.0/arm/arm-none-eabi/include/c++/10.3.1/bits/stl_algobase.h **** // permissions described in the GCC Runtime Library Exception, version
  18:/Library/DaisyToolchain/0.2.0/arm/arm-none-eabi/include/c++/10.3.1/bits/stl_algobase.h **** // 3.1, as published by the Free Software Foundation.
  19:/Library/DaisyToolchain/0.2.0/arm/arm-none-eabi/include/c++/10.3.1/bits/stl_algobase.h **** 
  20:/Library/DaisyToolchain/0.2.0/arm/arm-none-eabi/include/c++/10.3.1/bits/stl_algobase.h **** // You should have received a copy of the GNU General Public License and
  21:/Library/DaisyToolchain/0.2.0/arm/arm-none-eabi/include/c++/10.3.1/bits/stl_algobase.h **** // a copy of the GCC Runtime Library Exception along with this program;
  22:/Library/DaisyToolchain/0.2.0/arm/arm-none-eabi/include/c++/10.3.1/bits/stl_algobase.h **** // see the files COPYING3 and COPYING.RUNTIME respectively.  If not, see
  23:/Library/DaisyToolchain/0.2.0/arm/arm-none-eabi/include/c++/10.3.1/bits/stl_algobase.h **** // <http://www.gnu.org/licenses/>.
  24:/Library/DaisyToolchain/0.2.0/arm/arm-none-eabi/include/c++/10.3.1/bits/stl_algobase.h **** 
  25:/Library/DaisyToolchain/0.2.0/arm/arm-none-eabi/include/c++/10.3.1/bits/stl_algobase.h **** /*
  26:/Library/DaisyToolchain/0.2.0/arm/arm-none-eabi/include/c++/10.3.1/bits/stl_algobase.h ****  *
  27:/Library/DaisyToolchain/0.2.0/arm/arm-none-eabi/include/c++/10.3.1/bits/stl_algobase.h ****  * Copyright (c) 1994
  28:/Library/DaisyToolchain/0.2.0/arm/arm-none-eabi/include/c++/10.3.1/bits/stl_algobase.h ****  * Hewlett-Packard Company
  29:/Library/DaisyToolchain/0.2.0/arm/arm-none-eabi/include/c++/10.3.1/bits/stl_algobase.h ****  *
  30:/Library/DaisyToolchain/0.2.0/arm/arm-none-eabi/include/c++/10.3.1/bits/stl_algobase.h ****  * Permission to use, copy, modify, distribute and sell this software
  31:/Library/DaisyToolchain/0.2.0/arm/arm-none-eabi/include/c++/10.3.1/bits/stl_algobase.h ****  * and its documentation for any purpose is hereby granted without fee,
  32:/Library/DaisyToolchain/0.2.0/arm/arm-none-eabi/include/c++/10.3.1/bits/stl_algobase.h ****  * provided that the above copyright notice appear in all copies and
  33:/Library/DaisyToolchain/0.2.0/arm/arm-none-eabi/include/c++/10.3.1/bits/stl_algobase.h ****  * that both that copyright notice and this permission notice appear
  34:/Library/DaisyToolchain/0.2.0/arm/arm-none-eabi/include/c++/10.3.1/bits/stl_algobase.h ****  * in supporting documentation.  Hewlett-Packard Company makes no
  35:/Library/DaisyToolchain/0.2.0/arm/arm-none-eabi/include/c++/10.3.1/bits/stl_algobase.h ****  * representations about the suitability of this software for any
  36:/Library/DaisyToolchain/0.2.0/arm/arm-none-eabi/include/c++/10.3.1/bits/stl_algobase.h ****  * purpose.  It is provided "as is" without express or implied warranty.
  37:/Library/DaisyToolchain/0.2.0/arm/arm-none-eabi/include/c++/10.3.1/bits/stl_algobase.h ****  *
  38:/Library/DaisyToolchain/0.2.0/arm/arm-none-eabi/include/c++/10.3.1/bits/stl_algobase.h ****  *
  39:/Library/DaisyToolchain/0.2.0/arm/arm-none-eabi/include/c++/10.3.1/bits/stl_algobase.h ****  * Copyright (c) 1996-1998
  40:/Library/DaisyToolchain/0.2.0/arm/arm-none-eabi/include/c++/10.3.1/bits/stl_algobase.h ****  * Silicon Graphics Computer Systems, Inc.
  41:/Library/DaisyToolchain/0.2.0/arm/arm-none-eabi/include/c++/10.3.1/bits/stl_algobase.h ****  *
  42:/Library/DaisyToolchain/0.2.0/arm/arm-none-eabi/include/c++/10.3.1/bits/stl_algobase.h ****  * Permission to use, copy, modify, distribute and sell this software
  43:/Library/DaisyToolchain/0.2.0/arm/arm-none-eabi/include/c++/10.3.1/bits/stl_algobase.h ****  * and its documentation for any purpose is hereby granted without fee,
  44:/Library/DaisyToolchain/0.2.0/arm/arm-none-eabi/include/c++/10.3.1/bits/stl_algobase.h ****  * provided that the above copyright notice appear in all copies and
  45:/Library/DaisyToolchain/0.2.0/arm/arm-none-eabi/include/c++/10.3.1/bits/stl_algobase.h ****  * that both that copyright notice and this permission notice appear
  46:/Library/DaisyToolchain/0.2.0/arm/arm-none-eabi/include/c++/10.3.1/bits/stl_algobase.h ****  * in supporting documentation.  Silicon Graphics makes no
  47:/Library/DaisyToolchain/0.2.0/arm/arm-none-eabi/include/c++/10.3.1/bits/stl_algobase.h ****  * representations about the suitability of this software for any
  48:/Library/DaisyToolchain/0.2.0/arm/arm-none-eabi/include/c++/10.3.1/bits/stl_algobase.h ****  * purpose.  It is provided "as is" without express or implied warranty.
  49:/Library/DaisyToolchain/0.2.0/arm/arm-none-eabi/include/c++/10.3.1/bits/stl_algobase.h ****  */
  50:/Library/DaisyToolchain/0.2.0/arm/arm-none-eabi/include/c++/10.3.1/bits/stl_algobase.h **** 
  51:/Library/DaisyToolchain/0.2.0/arm/arm-none-eabi/include/c++/10.3.1/bits/stl_algobase.h **** /** @file bits/stl_algobase.h
  52:/Library/DaisyToolchain/0.2.0/arm/arm-none-eabi/include/c++/10.3.1/bits/stl_algobase.h ****  *  This is an internal header file, included by other library headers.
  53:/Library/DaisyToolchain/0.2.0/arm/arm-none-eabi/include/c++/10.3.1/bits/stl_algobase.h ****  *  Do not attempt to use it directly. @headername{algorithm}
  54:/Library/DaisyToolchain/0.2.0/arm/arm-none-eabi/include/c++/10.3.1/bits/stl_algobase.h ****  */
  55:/Library/DaisyToolchain/0.2.0/arm/arm-none-eabi/include/c++/10.3.1/bits/stl_algobase.h **** 
  56:/Library/DaisyToolchain/0.2.0/arm/arm-none-eabi/include/c++/10.3.1/bits/stl_algobase.h **** #ifndef _STL_ALGOBASE_H
  57:/Library/DaisyToolchain/0.2.0/arm/arm-none-eabi/include/c++/10.3.1/bits/stl_algobase.h **** #define _STL_ALGOBASE_H 1
  58:/Library/DaisyToolchain/0.2.0/arm/arm-none-eabi/include/c++/10.3.1/bits/stl_algobase.h **** 
  59:/Library/DaisyToolchain/0.2.0/arm/arm-none-eabi/include/c++/10.3.1/bits/stl_algobase.h **** #include <bits/c++config.h>
  60:/Library/DaisyToolchain/0.2.0/arm/arm-none-eabi/include/c++/10.3.1/bits/stl_algobase.h **** #include <bits/functexcept.h>
ARM GAS  /var/folders/1y/_321xjh9623c014x9_qw12rr0000gn/T//ccXuncwa.s 			page 23


  61:/Library/DaisyToolchain/0.2.0/arm/arm-none-eabi/include/c++/10.3.1/bits/stl_algobase.h **** #include <bits/cpp_type_traits.h>
  62:/Library/DaisyToolchain/0.2.0/arm/arm-none-eabi/include/c++/10.3.1/bits/stl_algobase.h **** #include <ext/type_traits.h>
  63:/Library/DaisyToolchain/0.2.0/arm/arm-none-eabi/include/c++/10.3.1/bits/stl_algobase.h **** #include <ext/numeric_traits.h>
  64:/Library/DaisyToolchain/0.2.0/arm/arm-none-eabi/include/c++/10.3.1/bits/stl_algobase.h **** #include <bits/stl_pair.h>
  65:/Library/DaisyToolchain/0.2.0/arm/arm-none-eabi/include/c++/10.3.1/bits/stl_algobase.h **** #include <bits/stl_iterator_base_types.h>
  66:/Library/DaisyToolchain/0.2.0/arm/arm-none-eabi/include/c++/10.3.1/bits/stl_algobase.h **** #include <bits/stl_iterator_base_funcs.h>
  67:/Library/DaisyToolchain/0.2.0/arm/arm-none-eabi/include/c++/10.3.1/bits/stl_algobase.h **** #include <bits/stl_iterator.h>
  68:/Library/DaisyToolchain/0.2.0/arm/arm-none-eabi/include/c++/10.3.1/bits/stl_algobase.h **** #include <bits/concept_check.h>
  69:/Library/DaisyToolchain/0.2.0/arm/arm-none-eabi/include/c++/10.3.1/bits/stl_algobase.h **** #include <debug/debug.h>
  70:/Library/DaisyToolchain/0.2.0/arm/arm-none-eabi/include/c++/10.3.1/bits/stl_algobase.h **** #include <bits/move.h> // For std::swap
  71:/Library/DaisyToolchain/0.2.0/arm/arm-none-eabi/include/c++/10.3.1/bits/stl_algobase.h **** #include <bits/predefined_ops.h>
  72:/Library/DaisyToolchain/0.2.0/arm/arm-none-eabi/include/c++/10.3.1/bits/stl_algobase.h **** #if __cplusplus >= 201103L
  73:/Library/DaisyToolchain/0.2.0/arm/arm-none-eabi/include/c++/10.3.1/bits/stl_algobase.h **** # include <type_traits>
  74:/Library/DaisyToolchain/0.2.0/arm/arm-none-eabi/include/c++/10.3.1/bits/stl_algobase.h **** #endif
  75:/Library/DaisyToolchain/0.2.0/arm/arm-none-eabi/include/c++/10.3.1/bits/stl_algobase.h **** #if __cplusplus > 201703L
  76:/Library/DaisyToolchain/0.2.0/arm/arm-none-eabi/include/c++/10.3.1/bits/stl_algobase.h **** # include <compare>
  77:/Library/DaisyToolchain/0.2.0/arm/arm-none-eabi/include/c++/10.3.1/bits/stl_algobase.h **** #endif
  78:/Library/DaisyToolchain/0.2.0/arm/arm-none-eabi/include/c++/10.3.1/bits/stl_algobase.h **** 
  79:/Library/DaisyToolchain/0.2.0/arm/arm-none-eabi/include/c++/10.3.1/bits/stl_algobase.h **** namespace std _GLIBCXX_VISIBILITY(default)
  80:/Library/DaisyToolchain/0.2.0/arm/arm-none-eabi/include/c++/10.3.1/bits/stl_algobase.h **** {
  81:/Library/DaisyToolchain/0.2.0/arm/arm-none-eabi/include/c++/10.3.1/bits/stl_algobase.h **** _GLIBCXX_BEGIN_NAMESPACE_VERSION
  82:/Library/DaisyToolchain/0.2.0/arm/arm-none-eabi/include/c++/10.3.1/bits/stl_algobase.h **** 
  83:/Library/DaisyToolchain/0.2.0/arm/arm-none-eabi/include/c++/10.3.1/bits/stl_algobase.h ****   /*
  84:/Library/DaisyToolchain/0.2.0/arm/arm-none-eabi/include/c++/10.3.1/bits/stl_algobase.h ****    * A constexpr wrapper for __builtin_memcmp.
  85:/Library/DaisyToolchain/0.2.0/arm/arm-none-eabi/include/c++/10.3.1/bits/stl_algobase.h ****    * @param __num The number of elements of type _Tp (not bytes).
  86:/Library/DaisyToolchain/0.2.0/arm/arm-none-eabi/include/c++/10.3.1/bits/stl_algobase.h ****    */
  87:/Library/DaisyToolchain/0.2.0/arm/arm-none-eabi/include/c++/10.3.1/bits/stl_algobase.h ****   template<typename _Tp, typename _Up>
  88:/Library/DaisyToolchain/0.2.0/arm/arm-none-eabi/include/c++/10.3.1/bits/stl_algobase.h ****     _GLIBCXX14_CONSTEXPR
  89:/Library/DaisyToolchain/0.2.0/arm/arm-none-eabi/include/c++/10.3.1/bits/stl_algobase.h ****     inline int
  90:/Library/DaisyToolchain/0.2.0/arm/arm-none-eabi/include/c++/10.3.1/bits/stl_algobase.h ****     __memcmp(const _Tp* __first1, const _Up* __first2, size_t __num)
  91:/Library/DaisyToolchain/0.2.0/arm/arm-none-eabi/include/c++/10.3.1/bits/stl_algobase.h ****     {
  92:/Library/DaisyToolchain/0.2.0/arm/arm-none-eabi/include/c++/10.3.1/bits/stl_algobase.h **** #if __cplusplus >= 201103L
  93:/Library/DaisyToolchain/0.2.0/arm/arm-none-eabi/include/c++/10.3.1/bits/stl_algobase.h ****       static_assert(sizeof(_Tp) == sizeof(_Up), "can be compared with memcmp");
  94:/Library/DaisyToolchain/0.2.0/arm/arm-none-eabi/include/c++/10.3.1/bits/stl_algobase.h **** #endif
  95:/Library/DaisyToolchain/0.2.0/arm/arm-none-eabi/include/c++/10.3.1/bits/stl_algobase.h **** #ifdef __cpp_lib_is_constant_evaluated
  96:/Library/DaisyToolchain/0.2.0/arm/arm-none-eabi/include/c++/10.3.1/bits/stl_algobase.h ****       if (std::is_constant_evaluated())
  97:/Library/DaisyToolchain/0.2.0/arm/arm-none-eabi/include/c++/10.3.1/bits/stl_algobase.h **** 	{
  98:/Library/DaisyToolchain/0.2.0/arm/arm-none-eabi/include/c++/10.3.1/bits/stl_algobase.h **** 	  for(; __num > 0; ++__first1, ++__first2, --__num)
  99:/Library/DaisyToolchain/0.2.0/arm/arm-none-eabi/include/c++/10.3.1/bits/stl_algobase.h **** 	    if (*__first1 != *__first2)
 100:/Library/DaisyToolchain/0.2.0/arm/arm-none-eabi/include/c++/10.3.1/bits/stl_algobase.h **** 	      return *__first1 < *__first2 ? -1 : 1;
 101:/Library/DaisyToolchain/0.2.0/arm/arm-none-eabi/include/c++/10.3.1/bits/stl_algobase.h **** 	  return 0;
 102:/Library/DaisyToolchain/0.2.0/arm/arm-none-eabi/include/c++/10.3.1/bits/stl_algobase.h **** 	}
 103:/Library/DaisyToolchain/0.2.0/arm/arm-none-eabi/include/c++/10.3.1/bits/stl_algobase.h ****       else
 104:/Library/DaisyToolchain/0.2.0/arm/arm-none-eabi/include/c++/10.3.1/bits/stl_algobase.h **** #endif
 105:/Library/DaisyToolchain/0.2.0/arm/arm-none-eabi/include/c++/10.3.1/bits/stl_algobase.h **** 	return __builtin_memcmp(__first1, __first2, sizeof(_Tp) * __num);
 106:/Library/DaisyToolchain/0.2.0/arm/arm-none-eabi/include/c++/10.3.1/bits/stl_algobase.h ****     }
 107:/Library/DaisyToolchain/0.2.0/arm/arm-none-eabi/include/c++/10.3.1/bits/stl_algobase.h **** 
 108:/Library/DaisyToolchain/0.2.0/arm/arm-none-eabi/include/c++/10.3.1/bits/stl_algobase.h **** #if __cplusplus < 201103L
 109:/Library/DaisyToolchain/0.2.0/arm/arm-none-eabi/include/c++/10.3.1/bits/stl_algobase.h ****   // See http://gcc.gnu.org/ml/libstdc++/2004-08/msg00167.html: in a
 110:/Library/DaisyToolchain/0.2.0/arm/arm-none-eabi/include/c++/10.3.1/bits/stl_algobase.h ****   // nutshell, we are partially implementing the resolution of DR 187,
 111:/Library/DaisyToolchain/0.2.0/arm/arm-none-eabi/include/c++/10.3.1/bits/stl_algobase.h ****   // when it's safe, i.e., the value_types are equal.
 112:/Library/DaisyToolchain/0.2.0/arm/arm-none-eabi/include/c++/10.3.1/bits/stl_algobase.h ****   template<bool _BoolType>
 113:/Library/DaisyToolchain/0.2.0/arm/arm-none-eabi/include/c++/10.3.1/bits/stl_algobase.h ****     struct __iter_swap
 114:/Library/DaisyToolchain/0.2.0/arm/arm-none-eabi/include/c++/10.3.1/bits/stl_algobase.h ****     {
 115:/Library/DaisyToolchain/0.2.0/arm/arm-none-eabi/include/c++/10.3.1/bits/stl_algobase.h ****       template<typename _ForwardIterator1, typename _ForwardIterator2>
 116:/Library/DaisyToolchain/0.2.0/arm/arm-none-eabi/include/c++/10.3.1/bits/stl_algobase.h **** 	static void
 117:/Library/DaisyToolchain/0.2.0/arm/arm-none-eabi/include/c++/10.3.1/bits/stl_algobase.h **** 	iter_swap(_ForwardIterator1 __a, _ForwardIterator2 __b)
ARM GAS  /var/folders/1y/_321xjh9623c014x9_qw12rr0000gn/T//ccXuncwa.s 			page 24


 118:/Library/DaisyToolchain/0.2.0/arm/arm-none-eabi/include/c++/10.3.1/bits/stl_algobase.h **** 	{
 119:/Library/DaisyToolchain/0.2.0/arm/arm-none-eabi/include/c++/10.3.1/bits/stl_algobase.h **** 	  typedef typename iterator_traits<_ForwardIterator1>::value_type
 120:/Library/DaisyToolchain/0.2.0/arm/arm-none-eabi/include/c++/10.3.1/bits/stl_algobase.h **** 	    _ValueType1;
 121:/Library/DaisyToolchain/0.2.0/arm/arm-none-eabi/include/c++/10.3.1/bits/stl_algobase.h **** 	  _ValueType1 __tmp = *__a;
 122:/Library/DaisyToolchain/0.2.0/arm/arm-none-eabi/include/c++/10.3.1/bits/stl_algobase.h **** 	  *__a = *__b;
 123:/Library/DaisyToolchain/0.2.0/arm/arm-none-eabi/include/c++/10.3.1/bits/stl_algobase.h **** 	  *__b = __tmp;
 124:/Library/DaisyToolchain/0.2.0/arm/arm-none-eabi/include/c++/10.3.1/bits/stl_algobase.h **** 	}
 125:/Library/DaisyToolchain/0.2.0/arm/arm-none-eabi/include/c++/10.3.1/bits/stl_algobase.h ****     };
 126:/Library/DaisyToolchain/0.2.0/arm/arm-none-eabi/include/c++/10.3.1/bits/stl_algobase.h **** 
 127:/Library/DaisyToolchain/0.2.0/arm/arm-none-eabi/include/c++/10.3.1/bits/stl_algobase.h ****   template<>
 128:/Library/DaisyToolchain/0.2.0/arm/arm-none-eabi/include/c++/10.3.1/bits/stl_algobase.h ****     struct __iter_swap<true>
 129:/Library/DaisyToolchain/0.2.0/arm/arm-none-eabi/include/c++/10.3.1/bits/stl_algobase.h ****     {
 130:/Library/DaisyToolchain/0.2.0/arm/arm-none-eabi/include/c++/10.3.1/bits/stl_algobase.h ****       template<typename _ForwardIterator1, typename _ForwardIterator2>
 131:/Library/DaisyToolchain/0.2.0/arm/arm-none-eabi/include/c++/10.3.1/bits/stl_algobase.h **** 	static void
 132:/Library/DaisyToolchain/0.2.0/arm/arm-none-eabi/include/c++/10.3.1/bits/stl_algobase.h **** 	iter_swap(_ForwardIterator1 __a, _ForwardIterator2 __b)
 133:/Library/DaisyToolchain/0.2.0/arm/arm-none-eabi/include/c++/10.3.1/bits/stl_algobase.h **** 	{
 134:/Library/DaisyToolchain/0.2.0/arm/arm-none-eabi/include/c++/10.3.1/bits/stl_algobase.h **** 	  swap(*__a, *__b);
 135:/Library/DaisyToolchain/0.2.0/arm/arm-none-eabi/include/c++/10.3.1/bits/stl_algobase.h **** 	}
 136:/Library/DaisyToolchain/0.2.0/arm/arm-none-eabi/include/c++/10.3.1/bits/stl_algobase.h ****     };
 137:/Library/DaisyToolchain/0.2.0/arm/arm-none-eabi/include/c++/10.3.1/bits/stl_algobase.h **** #endif // C++03
 138:/Library/DaisyToolchain/0.2.0/arm/arm-none-eabi/include/c++/10.3.1/bits/stl_algobase.h **** 
 139:/Library/DaisyToolchain/0.2.0/arm/arm-none-eabi/include/c++/10.3.1/bits/stl_algobase.h ****   /**
 140:/Library/DaisyToolchain/0.2.0/arm/arm-none-eabi/include/c++/10.3.1/bits/stl_algobase.h ****    *  @brief Swaps the contents of two iterators.
 141:/Library/DaisyToolchain/0.2.0/arm/arm-none-eabi/include/c++/10.3.1/bits/stl_algobase.h ****    *  @ingroup mutating_algorithms
 142:/Library/DaisyToolchain/0.2.0/arm/arm-none-eabi/include/c++/10.3.1/bits/stl_algobase.h ****    *  @param  __a  An iterator.
 143:/Library/DaisyToolchain/0.2.0/arm/arm-none-eabi/include/c++/10.3.1/bits/stl_algobase.h ****    *  @param  __b  Another iterator.
 144:/Library/DaisyToolchain/0.2.0/arm/arm-none-eabi/include/c++/10.3.1/bits/stl_algobase.h ****    *  @return   Nothing.
 145:/Library/DaisyToolchain/0.2.0/arm/arm-none-eabi/include/c++/10.3.1/bits/stl_algobase.h ****    *
 146:/Library/DaisyToolchain/0.2.0/arm/arm-none-eabi/include/c++/10.3.1/bits/stl_algobase.h ****    *  This function swaps the values pointed to by two iterators, not the
 147:/Library/DaisyToolchain/0.2.0/arm/arm-none-eabi/include/c++/10.3.1/bits/stl_algobase.h ****    *  iterators themselves.
 148:/Library/DaisyToolchain/0.2.0/arm/arm-none-eabi/include/c++/10.3.1/bits/stl_algobase.h ****   */
 149:/Library/DaisyToolchain/0.2.0/arm/arm-none-eabi/include/c++/10.3.1/bits/stl_algobase.h ****   template<typename _ForwardIterator1, typename _ForwardIterator2>
 150:/Library/DaisyToolchain/0.2.0/arm/arm-none-eabi/include/c++/10.3.1/bits/stl_algobase.h ****     _GLIBCXX20_CONSTEXPR
 151:/Library/DaisyToolchain/0.2.0/arm/arm-none-eabi/include/c++/10.3.1/bits/stl_algobase.h ****     inline void
 152:/Library/DaisyToolchain/0.2.0/arm/arm-none-eabi/include/c++/10.3.1/bits/stl_algobase.h ****     iter_swap(_ForwardIterator1 __a, _ForwardIterator2 __b)
 153:/Library/DaisyToolchain/0.2.0/arm/arm-none-eabi/include/c++/10.3.1/bits/stl_algobase.h ****     {
 154:/Library/DaisyToolchain/0.2.0/arm/arm-none-eabi/include/c++/10.3.1/bits/stl_algobase.h ****       // concept requirements
 155:/Library/DaisyToolchain/0.2.0/arm/arm-none-eabi/include/c++/10.3.1/bits/stl_algobase.h ****       __glibcxx_function_requires(_Mutable_ForwardIteratorConcept<
 156:/Library/DaisyToolchain/0.2.0/arm/arm-none-eabi/include/c++/10.3.1/bits/stl_algobase.h **** 				  _ForwardIterator1>)
 157:/Library/DaisyToolchain/0.2.0/arm/arm-none-eabi/include/c++/10.3.1/bits/stl_algobase.h ****       __glibcxx_function_requires(_Mutable_ForwardIteratorConcept<
 158:/Library/DaisyToolchain/0.2.0/arm/arm-none-eabi/include/c++/10.3.1/bits/stl_algobase.h **** 				  _ForwardIterator2>)
 159:/Library/DaisyToolchain/0.2.0/arm/arm-none-eabi/include/c++/10.3.1/bits/stl_algobase.h **** 
 160:/Library/DaisyToolchain/0.2.0/arm/arm-none-eabi/include/c++/10.3.1/bits/stl_algobase.h **** #if __cplusplus < 201103L
 161:/Library/DaisyToolchain/0.2.0/arm/arm-none-eabi/include/c++/10.3.1/bits/stl_algobase.h ****       typedef typename iterator_traits<_ForwardIterator1>::value_type
 162:/Library/DaisyToolchain/0.2.0/arm/arm-none-eabi/include/c++/10.3.1/bits/stl_algobase.h **** 	_ValueType1;
 163:/Library/DaisyToolchain/0.2.0/arm/arm-none-eabi/include/c++/10.3.1/bits/stl_algobase.h ****       typedef typename iterator_traits<_ForwardIterator2>::value_type
 164:/Library/DaisyToolchain/0.2.0/arm/arm-none-eabi/include/c++/10.3.1/bits/stl_algobase.h **** 	_ValueType2;
 165:/Library/DaisyToolchain/0.2.0/arm/arm-none-eabi/include/c++/10.3.1/bits/stl_algobase.h **** 
 166:/Library/DaisyToolchain/0.2.0/arm/arm-none-eabi/include/c++/10.3.1/bits/stl_algobase.h ****       __glibcxx_function_requires(_ConvertibleConcept<_ValueType1,
 167:/Library/DaisyToolchain/0.2.0/arm/arm-none-eabi/include/c++/10.3.1/bits/stl_algobase.h **** 				  _ValueType2>)
 168:/Library/DaisyToolchain/0.2.0/arm/arm-none-eabi/include/c++/10.3.1/bits/stl_algobase.h ****       __glibcxx_function_requires(_ConvertibleConcept<_ValueType2,
 169:/Library/DaisyToolchain/0.2.0/arm/arm-none-eabi/include/c++/10.3.1/bits/stl_algobase.h **** 				  _ValueType1>)
 170:/Library/DaisyToolchain/0.2.0/arm/arm-none-eabi/include/c++/10.3.1/bits/stl_algobase.h **** 
 171:/Library/DaisyToolchain/0.2.0/arm/arm-none-eabi/include/c++/10.3.1/bits/stl_algobase.h ****       typedef typename iterator_traits<_ForwardIterator1>::reference
 172:/Library/DaisyToolchain/0.2.0/arm/arm-none-eabi/include/c++/10.3.1/bits/stl_algobase.h **** 	_ReferenceType1;
 173:/Library/DaisyToolchain/0.2.0/arm/arm-none-eabi/include/c++/10.3.1/bits/stl_algobase.h ****       typedef typename iterator_traits<_ForwardIterator2>::reference
 174:/Library/DaisyToolchain/0.2.0/arm/arm-none-eabi/include/c++/10.3.1/bits/stl_algobase.h **** 	_ReferenceType2;
ARM GAS  /var/folders/1y/_321xjh9623c014x9_qw12rr0000gn/T//ccXuncwa.s 			page 25


 175:/Library/DaisyToolchain/0.2.0/arm/arm-none-eabi/include/c++/10.3.1/bits/stl_algobase.h ****       std::__iter_swap<__are_same<_ValueType1, _ValueType2>::__value
 176:/Library/DaisyToolchain/0.2.0/arm/arm-none-eabi/include/c++/10.3.1/bits/stl_algobase.h **** 	&& __are_same<_ValueType1&, _ReferenceType1>::__value
 177:/Library/DaisyToolchain/0.2.0/arm/arm-none-eabi/include/c++/10.3.1/bits/stl_algobase.h **** 	&& __are_same<_ValueType2&, _ReferenceType2>::__value>::
 178:/Library/DaisyToolchain/0.2.0/arm/arm-none-eabi/include/c++/10.3.1/bits/stl_algobase.h **** 	iter_swap(__a, __b);
 179:/Library/DaisyToolchain/0.2.0/arm/arm-none-eabi/include/c++/10.3.1/bits/stl_algobase.h **** #else
 180:/Library/DaisyToolchain/0.2.0/arm/arm-none-eabi/include/c++/10.3.1/bits/stl_algobase.h ****       // _GLIBCXX_RESOLVE_LIB_DEFECTS
 181:/Library/DaisyToolchain/0.2.0/arm/arm-none-eabi/include/c++/10.3.1/bits/stl_algobase.h ****       // 187. iter_swap underspecified
 182:/Library/DaisyToolchain/0.2.0/arm/arm-none-eabi/include/c++/10.3.1/bits/stl_algobase.h ****       swap(*__a, *__b);
 183:/Library/DaisyToolchain/0.2.0/arm/arm-none-eabi/include/c++/10.3.1/bits/stl_algobase.h **** #endif
 184:/Library/DaisyToolchain/0.2.0/arm/arm-none-eabi/include/c++/10.3.1/bits/stl_algobase.h ****     }
 185:/Library/DaisyToolchain/0.2.0/arm/arm-none-eabi/include/c++/10.3.1/bits/stl_algobase.h **** 
 186:/Library/DaisyToolchain/0.2.0/arm/arm-none-eabi/include/c++/10.3.1/bits/stl_algobase.h ****   /**
 187:/Library/DaisyToolchain/0.2.0/arm/arm-none-eabi/include/c++/10.3.1/bits/stl_algobase.h ****    *  @brief Swap the elements of two sequences.
 188:/Library/DaisyToolchain/0.2.0/arm/arm-none-eabi/include/c++/10.3.1/bits/stl_algobase.h ****    *  @ingroup mutating_algorithms
 189:/Library/DaisyToolchain/0.2.0/arm/arm-none-eabi/include/c++/10.3.1/bits/stl_algobase.h ****    *  @param  __first1  A forward iterator.
 190:/Library/DaisyToolchain/0.2.0/arm/arm-none-eabi/include/c++/10.3.1/bits/stl_algobase.h ****    *  @param  __last1   A forward iterator.
 191:/Library/DaisyToolchain/0.2.0/arm/arm-none-eabi/include/c++/10.3.1/bits/stl_algobase.h ****    *  @param  __first2  A forward iterator.
 192:/Library/DaisyToolchain/0.2.0/arm/arm-none-eabi/include/c++/10.3.1/bits/stl_algobase.h ****    *  @return   An iterator equal to @p first2+(last1-first1).
 193:/Library/DaisyToolchain/0.2.0/arm/arm-none-eabi/include/c++/10.3.1/bits/stl_algobase.h ****    *
 194:/Library/DaisyToolchain/0.2.0/arm/arm-none-eabi/include/c++/10.3.1/bits/stl_algobase.h ****    *  Swaps each element in the range @p [first1,last1) with the
 195:/Library/DaisyToolchain/0.2.0/arm/arm-none-eabi/include/c++/10.3.1/bits/stl_algobase.h ****    *  corresponding element in the range @p [first2,(last1-first1)).
 196:/Library/DaisyToolchain/0.2.0/arm/arm-none-eabi/include/c++/10.3.1/bits/stl_algobase.h ****    *  The ranges must not overlap.
 197:/Library/DaisyToolchain/0.2.0/arm/arm-none-eabi/include/c++/10.3.1/bits/stl_algobase.h ****   */
 198:/Library/DaisyToolchain/0.2.0/arm/arm-none-eabi/include/c++/10.3.1/bits/stl_algobase.h ****   template<typename _ForwardIterator1, typename _ForwardIterator2>
 199:/Library/DaisyToolchain/0.2.0/arm/arm-none-eabi/include/c++/10.3.1/bits/stl_algobase.h ****     _GLIBCXX20_CONSTEXPR
 200:/Library/DaisyToolchain/0.2.0/arm/arm-none-eabi/include/c++/10.3.1/bits/stl_algobase.h ****     _ForwardIterator2
 201:/Library/DaisyToolchain/0.2.0/arm/arm-none-eabi/include/c++/10.3.1/bits/stl_algobase.h ****     swap_ranges(_ForwardIterator1 __first1, _ForwardIterator1 __last1,
 202:/Library/DaisyToolchain/0.2.0/arm/arm-none-eabi/include/c++/10.3.1/bits/stl_algobase.h **** 		_ForwardIterator2 __first2)
 203:/Library/DaisyToolchain/0.2.0/arm/arm-none-eabi/include/c++/10.3.1/bits/stl_algobase.h ****     {
 204:/Library/DaisyToolchain/0.2.0/arm/arm-none-eabi/include/c++/10.3.1/bits/stl_algobase.h ****       // concept requirements
 205:/Library/DaisyToolchain/0.2.0/arm/arm-none-eabi/include/c++/10.3.1/bits/stl_algobase.h ****       __glibcxx_function_requires(_Mutable_ForwardIteratorConcept<
 206:/Library/DaisyToolchain/0.2.0/arm/arm-none-eabi/include/c++/10.3.1/bits/stl_algobase.h **** 				  _ForwardIterator1>)
 207:/Library/DaisyToolchain/0.2.0/arm/arm-none-eabi/include/c++/10.3.1/bits/stl_algobase.h ****       __glibcxx_function_requires(_Mutable_ForwardIteratorConcept<
 208:/Library/DaisyToolchain/0.2.0/arm/arm-none-eabi/include/c++/10.3.1/bits/stl_algobase.h **** 				  _ForwardIterator2>)
 209:/Library/DaisyToolchain/0.2.0/arm/arm-none-eabi/include/c++/10.3.1/bits/stl_algobase.h ****       __glibcxx_requires_valid_range(__first1, __last1);
 210:/Library/DaisyToolchain/0.2.0/arm/arm-none-eabi/include/c++/10.3.1/bits/stl_algobase.h **** 
 211:/Library/DaisyToolchain/0.2.0/arm/arm-none-eabi/include/c++/10.3.1/bits/stl_algobase.h ****       for (; __first1 != __last1; ++__first1, (void)++__first2)
 212:/Library/DaisyToolchain/0.2.0/arm/arm-none-eabi/include/c++/10.3.1/bits/stl_algobase.h **** 	std::iter_swap(__first1, __first2);
 213:/Library/DaisyToolchain/0.2.0/arm/arm-none-eabi/include/c++/10.3.1/bits/stl_algobase.h ****       return __first2;
 214:/Library/DaisyToolchain/0.2.0/arm/arm-none-eabi/include/c++/10.3.1/bits/stl_algobase.h ****     }
 215:/Library/DaisyToolchain/0.2.0/arm/arm-none-eabi/include/c++/10.3.1/bits/stl_algobase.h **** 
 216:/Library/DaisyToolchain/0.2.0/arm/arm-none-eabi/include/c++/10.3.1/bits/stl_algobase.h ****   /**
 217:/Library/DaisyToolchain/0.2.0/arm/arm-none-eabi/include/c++/10.3.1/bits/stl_algobase.h ****    *  @brief This does what you think it does.
 218:/Library/DaisyToolchain/0.2.0/arm/arm-none-eabi/include/c++/10.3.1/bits/stl_algobase.h ****    *  @ingroup sorting_algorithms
 219:/Library/DaisyToolchain/0.2.0/arm/arm-none-eabi/include/c++/10.3.1/bits/stl_algobase.h ****    *  @param  __a  A thing of arbitrary type.
 220:/Library/DaisyToolchain/0.2.0/arm/arm-none-eabi/include/c++/10.3.1/bits/stl_algobase.h ****    *  @param  __b  Another thing of arbitrary type.
 221:/Library/DaisyToolchain/0.2.0/arm/arm-none-eabi/include/c++/10.3.1/bits/stl_algobase.h ****    *  @return   The lesser of the parameters.
 222:/Library/DaisyToolchain/0.2.0/arm/arm-none-eabi/include/c++/10.3.1/bits/stl_algobase.h ****    *
 223:/Library/DaisyToolchain/0.2.0/arm/arm-none-eabi/include/c++/10.3.1/bits/stl_algobase.h ****    *  This is the simple classic generic implementation.  It will work on
 224:/Library/DaisyToolchain/0.2.0/arm/arm-none-eabi/include/c++/10.3.1/bits/stl_algobase.h ****    *  temporary expressions, since they are only evaluated once, unlike a
 225:/Library/DaisyToolchain/0.2.0/arm/arm-none-eabi/include/c++/10.3.1/bits/stl_algobase.h ****    *  preprocessor macro.
 226:/Library/DaisyToolchain/0.2.0/arm/arm-none-eabi/include/c++/10.3.1/bits/stl_algobase.h ****   */
 227:/Library/DaisyToolchain/0.2.0/arm/arm-none-eabi/include/c++/10.3.1/bits/stl_algobase.h ****   template<typename _Tp>
 228:/Library/DaisyToolchain/0.2.0/arm/arm-none-eabi/include/c++/10.3.1/bits/stl_algobase.h ****     _GLIBCXX14_CONSTEXPR
 229:/Library/DaisyToolchain/0.2.0/arm/arm-none-eabi/include/c++/10.3.1/bits/stl_algobase.h ****     inline const _Tp&
 230:/Library/DaisyToolchain/0.2.0/arm/arm-none-eabi/include/c++/10.3.1/bits/stl_algobase.h ****     min(const _Tp& __a, const _Tp& __b)
 231:/Library/DaisyToolchain/0.2.0/arm/arm-none-eabi/include/c++/10.3.1/bits/stl_algobase.h ****     {
ARM GAS  /var/folders/1y/_321xjh9623c014x9_qw12rr0000gn/T//ccXuncwa.s 			page 26


 232:/Library/DaisyToolchain/0.2.0/arm/arm-none-eabi/include/c++/10.3.1/bits/stl_algobase.h ****       // concept requirements
 233:/Library/DaisyToolchain/0.2.0/arm/arm-none-eabi/include/c++/10.3.1/bits/stl_algobase.h ****       __glibcxx_function_requires(_LessThanComparableConcept<_Tp>)
 234:/Library/DaisyToolchain/0.2.0/arm/arm-none-eabi/include/c++/10.3.1/bits/stl_algobase.h ****       //return __b < __a ? __b : __a;
 235:/Library/DaisyToolchain/0.2.0/arm/arm-none-eabi/include/c++/10.3.1/bits/stl_algobase.h ****       if (__b < __a)
 236:/Library/DaisyToolchain/0.2.0/arm/arm-none-eabi/include/c++/10.3.1/bits/stl_algobase.h **** 	return __b;
 237:/Library/DaisyToolchain/0.2.0/arm/arm-none-eabi/include/c++/10.3.1/bits/stl_algobase.h ****       return __a;
 238:/Library/DaisyToolchain/0.2.0/arm/arm-none-eabi/include/c++/10.3.1/bits/stl_algobase.h ****     }
 239:/Library/DaisyToolchain/0.2.0/arm/arm-none-eabi/include/c++/10.3.1/bits/stl_algobase.h **** 
 240:/Library/DaisyToolchain/0.2.0/arm/arm-none-eabi/include/c++/10.3.1/bits/stl_algobase.h ****   /**
 241:/Library/DaisyToolchain/0.2.0/arm/arm-none-eabi/include/c++/10.3.1/bits/stl_algobase.h ****    *  @brief This does what you think it does.
 242:/Library/DaisyToolchain/0.2.0/arm/arm-none-eabi/include/c++/10.3.1/bits/stl_algobase.h ****    *  @ingroup sorting_algorithms
 243:/Library/DaisyToolchain/0.2.0/arm/arm-none-eabi/include/c++/10.3.1/bits/stl_algobase.h ****    *  @param  __a  A thing of arbitrary type.
 244:/Library/DaisyToolchain/0.2.0/arm/arm-none-eabi/include/c++/10.3.1/bits/stl_algobase.h ****    *  @param  __b  Another thing of arbitrary type.
 245:/Library/DaisyToolchain/0.2.0/arm/arm-none-eabi/include/c++/10.3.1/bits/stl_algobase.h ****    *  @return   The greater of the parameters.
 246:/Library/DaisyToolchain/0.2.0/arm/arm-none-eabi/include/c++/10.3.1/bits/stl_algobase.h ****    *
 247:/Library/DaisyToolchain/0.2.0/arm/arm-none-eabi/include/c++/10.3.1/bits/stl_algobase.h ****    *  This is the simple classic generic implementation.  It will work on
 248:/Library/DaisyToolchain/0.2.0/arm/arm-none-eabi/include/c++/10.3.1/bits/stl_algobase.h ****    *  temporary expressions, since they are only evaluated once, unlike a
 249:/Library/DaisyToolchain/0.2.0/arm/arm-none-eabi/include/c++/10.3.1/bits/stl_algobase.h ****    *  preprocessor macro.
 250:/Library/DaisyToolchain/0.2.0/arm/arm-none-eabi/include/c++/10.3.1/bits/stl_algobase.h ****   */
 251:/Library/DaisyToolchain/0.2.0/arm/arm-none-eabi/include/c++/10.3.1/bits/stl_algobase.h ****   template<typename _Tp>
 252:/Library/DaisyToolchain/0.2.0/arm/arm-none-eabi/include/c++/10.3.1/bits/stl_algobase.h ****     _GLIBCXX14_CONSTEXPR
 253:/Library/DaisyToolchain/0.2.0/arm/arm-none-eabi/include/c++/10.3.1/bits/stl_algobase.h ****     inline const _Tp&
 254:/Library/DaisyToolchain/0.2.0/arm/arm-none-eabi/include/c++/10.3.1/bits/stl_algobase.h ****     max(const _Tp& __a, const _Tp& __b)
 241              		.loc 5 254 5 view .LVU43
 242              	.LBE293:
 272:Dubby.cpp     ****                                     0),
 243              		.loc 2 272 61 is_stmt 0 view .LVU44
 244 005c 049A     		ldr	r2, [sp, #16]
 272:Dubby.cpp     ****                                     0),
 245              		.loc 2 272 63 view .LVU45
 246 005e 9FED617A 		vldr.32	s14, .L44
 272:Dubby.cpp     ****                                     0),
 247              		.loc 2 272 61 view .LVU46
 248 0062 F2EC017A 		vldmia.32	r2!, {s15}
 272:Dubby.cpp     ****                                     0),
 249              		.loc 2 272 63 view .LVU47
 250 0066 67EE877A 		vmul.f32	s15, s15, s14
 272:Dubby.cpp     ****                                     0),
 251              		.loc 2 272 61 view .LVU48
 252 006a 0492     		str	r2, [sp, #16]
 272:Dubby.cpp     ****                                     0),
 253              		.loc 2 272 43 view .LVU49
 254 006c FDEEE77A 		vcvt.s32.f32	s15, s15
 255              	.LBB296:
 256              	.LBB294:
 255:/Library/DaisyToolchain/0.2.0/arm/arm-none-eabi/include/c++/10.3.1/bits/stl_algobase.h ****     {
 256:/Library/DaisyToolchain/0.2.0/arm/arm-none-eabi/include/c++/10.3.1/bits/stl_algobase.h ****       // concept requirements
 257:/Library/DaisyToolchain/0.2.0/arm/arm-none-eabi/include/c++/10.3.1/bits/stl_algobase.h ****       __glibcxx_function_requires(_LessThanComparableConcept<_Tp>)
 258:/Library/DaisyToolchain/0.2.0/arm/arm-none-eabi/include/c++/10.3.1/bits/stl_algobase.h ****       //return  __a < __b ? __b : __a;
 259:/Library/DaisyToolchain/0.2.0/arm/arm-none-eabi/include/c++/10.3.1/bits/stl_algobase.h ****       if (__a < __b)
 257              		.loc 5 259 7 view .LVU50
 258 0070 17EE902A 		vmov	r2, s15	@ int
 259 0074 D2F11804 		rsbs	r4, r2, #24
 260 0078 00F1AD80 		bmi	.L26
 261              	.LVL15:
 262              		.loc 5 259 7 view .LVU51
 263              	.LBE294:
ARM GAS  /var/folders/1y/_321xjh9623c014x9_qw12rr0000gn/T//ccXuncwa.s 			page 27


 264              	.LBE296:
 265              	.LBB297:
 266              	.LBI297:
 230:/Library/DaisyToolchain/0.2.0/arm/arm-none-eabi/include/c++/10.3.1/bits/stl_algobase.h ****     {
 267              		.loc 5 230 5 is_stmt 1 view .LVU52
 268              	.LBB298:
 235:/Library/DaisyToolchain/0.2.0/arm/arm-none-eabi/include/c++/10.3.1/bits/stl_algobase.h **** 	return __b;
 269              		.loc 5 235 7 is_stmt 0 view .LVU53
 270 007c 312C     		cmp	r4, #49
 271 007e 40F3AB80 		ble	.L7
 272 0082 3224     		movs	r4, #50
 273              	.LVL16:
 274              	.L8:
 235:/Library/DaisyToolchain/0.2.0/arm/arm-none-eabi/include/c++/10.3.1/bits/stl_algobase.h **** 	return __b;
 275              		.loc 5 235 7 view .LVU54
 276              	.LBE298:
 277              	.LBE297:
 275:Dubby.cpp     ****             if(i != 0)
 278              		.loc 2 275 13 is_stmt 1 view .LVU55
 275:Dubby.cpp     ****             if(i != 0)
 279              		.loc 2 275 46 is_stmt 0 view .LVU56
 280 0084 019A     		ldr	r2, [sp, #4]
 276:Dubby.cpp     ****             {
 281              		.loc 2 276 13 view .LVU57
 282 0086 B9F1010F 		cmp	r9, #1
 275:Dubby.cpp     ****             if(i != 0)
 283              		.loc 2 275 46 view .LVU58
 284 008a 4FEAD215 		lsr	r5, r2, #7
 275:Dubby.cpp     ****             if(i != 0)
 285              		.loc 2 275 23 view .LVU59
 286 008e 05F10105 		add	r5, r5, #1
 287              	.LVL17:
 276:Dubby.cpp     ****             {
 288              		.loc 2 276 13 is_stmt 1 view .LVU60
 289 0092 DCD0     		beq	.L9
 278:Dubby.cpp     ****             }
 290              		.loc 2 278 17 view .LVU61
 291              	.LBB299:
 292              	.LBB300:
 227:../../libDaisy//src/hid/disp/display.h ****         int_fast16_t deltaY = abs((int_fast16_t)y2 - (int_fast16_t)y1);
 293              		.loc 3 227 52 is_stmt 0 view .LVU62
 294 0094 EF1A     		subs	r7, r5, r3
 228:../../libDaisy//src/hid/disp/display.h ****         int_fast16_t signX  = ((x1 < x2) ? 1 : -1);
 295              		.loc 3 228 52 view .LVU63
 296 0096 A4EB060E 		sub	lr, r4, r6
 297              	.LBE300:
 298              	.LBE299:
 278:Dubby.cpp     ****             }
 299              		.loc 2 278 33 view .LVU64
 300 009a 1946     		mov	r1, r3
 301 009c 3246     		mov	r2, r6
 302              	.LVL18:
 303              	.LBB319:
 304              	.LBI299:
 221:../../libDaisy//src/hid/disp/display.h ****                   uint_fast8_t y1,
 305              		.loc 3 221 10 is_stmt 1 view .LVU65
 306              	.LBB317:
ARM GAS  /var/folders/1y/_321xjh9623c014x9_qw12rr0000gn/T//ccXuncwa.s 			page 28


 227:../../libDaisy//src/hid/disp/display.h ****         int_fast16_t deltaY = abs((int_fast16_t)y2 - (int_fast16_t)y1);
 307              		.loc 3 227 22 is_stmt 0 view .LVU66
 308 009e 002F     		cmp	r7, #0
 309 00a0 B8BF     		it	lt
 310 00a2 7F42     		rsblt	r7, r7, #0
 311              	.LVL19:
 228:../../libDaisy//src/hid/disp/display.h ****         int_fast16_t signX  = ((x1 < x2) ? 1 : -1);
 312              		.loc 3 228 22 view .LVU67
 313 00a4 BEF1000F 		cmp	lr, #0
 314 00a8 B8BF     		it	lt
 315 00aa CEF1000E 		rsblt	lr, lr, #0
 316              	.LVL20:
 229:../../libDaisy//src/hid/disp/display.h ****         int_fast16_t signY  = ((y1 < y2) ? 1 : -1);
 317              		.loc 3 229 42 view .LVU68
 318 00ae 9D42     		cmp	r5, r3
 319 00b0 8CBF     		ite	hi
 320 00b2 0120     		movhi	r0, #1
 321 00b4 4FF0FF30 		movls	r0, #-1
 230:../../libDaisy//src/hid/disp/display.h ****         int_fast16_t error  = deltaX - deltaY;
 322              		.loc 3 230 42 view .LVU69
 323 00b8 A642     		cmp	r6, r4
 229:../../libDaisy//src/hid/disp/display.h ****         int_fast16_t signY  = ((y1 < y2) ? 1 : -1);
 324              		.loc 3 229 42 view .LVU70
 325 00ba 0290     		str	r0, [sp, #8]
 326              	.LVL21:
 231:../../libDaisy//src/hid/disp/display.h ****         int_fast16_t error2;
 327              		.loc 3 231 22 view .LVU71
 328 00bc A7EB0E00 		sub	r0, r7, lr
 329              	.LVL22:
 231:../../libDaisy//src/hid/disp/display.h ****         int_fast16_t error2;
 330              		.loc 3 231 22 view .LVU72
 331 00c0 0590     		str	r0, [sp, #20]
 230:../../libDaisy//src/hid/disp/display.h ****         int_fast16_t error  = deltaX - deltaY;
 332              		.loc 3 230 42 view .LVU73
 333 00c2 C0F08B80 		bcc	.L24
 334              	.LVL23:
 335              	.LBB301:
 336              	.LBI301:
 337              		.loc 1 42 10 is_stmt 1 view .LVU74
 338              	.LBB302:
 339              	.LBI302:
 352:../../libDaisy//src/dev/oled_ssd130x.h ****     {
 340              		.loc 4 352 10 view .LVU75
 341              	.LBE302:
 342              	.LBE301:
 230:../../libDaisy//src/hid/disp/display.h ****         int_fast16_t error  = deltaX - deltaY;
 343              		.loc 3 230 42 is_stmt 0 view .LVU76
 344 00c6 4FF0FF30 		mov	r0, #-1
 345              	.LVL24:
 230:../../libDaisy//src/hid/disp/display.h ****         int_fast16_t error  = deltaX - deltaY;
 346              		.loc 3 230 42 view .LVU77
 347 00ca 0390     		str	r0, [sp, #12]
 348              	.LVL25:
 349              	.L23:
 350              	.LBB308:
 351              	.LBB305:
 352              	.LBB303:
ARM GAS  /var/folders/1y/_321xjh9623c014x9_qw12rr0000gn/T//ccXuncwa.s 			page 29


 357:../../libDaisy//src/dev/oled_ssd130x.h ****         else
 353              		.loc 4 357 28 view .LVU78
 354 00cc 4FEAD40C 		lsr	ip, r4, #3
 357:../../libDaisy//src/dev/oled_ssd130x.h ****         else
 355              		.loc 4 357 48 view .LVU79
 356 00d0 4FF0010B 		mov	fp, #1
 357:../../libDaisy//src/dev/oled_ssd130x.h ****         else
 357              		.loc 4 357 54 view .LVU80
 358 00d4 04F00708 		and	r8, r4, #7
 359              	.LBE303:
 360              	.LBE305:
 361              	.LBE308:
 239:../../libDaisy//src/hid/disp/display.h ****         {
 362              		.loc 3 239 26 view .LVU81
 363 00d8 9D42     		cmp	r5, r3
 364              	.LBB309:
 365              	.LBB306:
 366              	.LBB304:
 357:../../libDaisy//src/dev/oled_ssd130x.h ****         else
 367              		.loc 4 357 42 view .LVU82
 368 00da 05EBCC1C 		add	ip, r5, ip, lsl #7
 357:../../libDaisy//src/dev/oled_ssd130x.h ****         else
 369              		.loc 4 357 48 view .LVU83
 370 00de 0BFA08F8 		lsl	r8, fp, r8
 357:../../libDaisy//src/dev/oled_ssd130x.h ****         else
 371              		.loc 4 357 42 view .LVU84
 372 00e2 D444     		add	ip, ip, r10
 373 00e4 9CF824B4 		ldrb	fp, [ip, #1060]	@ zero_extendqisi2
 374 00e8 48EA0B08 		orr	r8, r8, fp
 375 00ec 8CF82484 		strb	r8, [ip, #1060]
 376              	.LVL26:
 357:../../libDaisy//src/dev/oled_ssd130x.h ****         else
 377              		.loc 4 357 42 view .LVU85
 378              	.LBE304:
 379              	.LBE306:
 380              	.LBE309:
 239:../../libDaisy//src/hid/disp/display.h ****         {
 381              		.loc 3 239 26 is_stmt 1 view .LVU86
 382 00f0 01D1     		bne	.L14
 383 00f2 A642     		cmp	r6, r4
 384 00f4 28D0     		beq	.L12
 385              	.L14:
 386              	.LVL27:
 243:../../libDaisy//src/hid/disp/display.h ****             {
 387              		.loc 3 243 23 is_stmt 0 view .LVU87
 388 00f6 CEF10008 		rsb	r8, lr, #0
 389 00fa 0598     		ldr	r0, [sp, #20]
 390              	.LVL28:
 391              	.L16:
 392              	.LBB310:
 393              	.LBI310:
 394              		.loc 1 42 10 is_stmt 1 view .LVU88
 395              	.LBB311:
 396              	.LBI311:
 352:../../libDaisy//src/dev/oled_ssd130x.h ****     {
 397              		.loc 4 352 10 view .LVU89
 398              	.LBB312:
ARM GAS  /var/folders/1y/_321xjh9623c014x9_qw12rr0000gn/T//ccXuncwa.s 			page 30


 357:../../libDaisy//src/dev/oled_ssd130x.h ****         else
 399              		.loc 4 357 48 is_stmt 0 view .LVU90
 400 00fc 4FF0010C 		mov	ip, #1
 357:../../libDaisy//src/dev/oled_ssd130x.h ****         else
 401              		.loc 4 357 28 view .LVU91
 402 0100 D308     		lsrs	r3, r2, #3
 357:../../libDaisy//src/dev/oled_ssd130x.h ****         else
 403              		.loc 4 357 54 view .LVU92
 404 0102 02F00706 		and	r6, r2, #7
 354:../../libDaisy//src/dev/oled_ssd130x.h ****             return;
 405              		.loc 4 354 9 view .LVU93
 406 0106 7F29     		cmp	r1, #127
 357:../../libDaisy//src/dev/oled_ssd130x.h ****         else
 407              		.loc 4 357 42 view .LVU94
 408 0108 01EBC313 		add	r3, r1, r3, lsl #7
 409              	.LBE312:
 410              	.LBE311:
 411              	.LBE310:
 242:../../libDaisy//src/hid/disp/display.h ****             if(error2 > -deltaY)
 412              		.loc 3 242 20 view .LVU95
 413 010c 00FA0CFB 		lsl	fp, r0, ip
 414              	.LVL29:
 415              	.LBB315:
 416              	.LBB314:
 417              	.LBB313:
 357:../../libDaisy//src/dev/oled_ssd130x.h ****         else
 418              		.loc 4 357 48 view .LVU96
 419 0110 0CFA06F6 		lsl	r6, ip, r6
 354:../../libDaisy//src/dev/oled_ssd130x.h ****             return;
 420              		.loc 4 354 9 view .LVU97
 421 0114 08D8     		bhi	.L17
 422 0116 3F2A     		cmp	r2, #63
 357:../../libDaisy//src/dev/oled_ssd130x.h ****         else
 423              		.loc 4 357 42 view .LVU98
 424 0118 5344     		add	r3, r3, r10
 354:../../libDaisy//src/dev/oled_ssd130x.h ****             return;
 425              		.loc 4 354 9 view .LVU99
 426 011a 05D8     		bhi	.L17
 357:../../libDaisy//src/dev/oled_ssd130x.h ****         else
 427              		.loc 4 357 42 view .LVU100
 428 011c 93F824C4 		ldrb	ip, [r3, #1060]	@ zero_extendqisi2
 429 0120 46EA0C06 		orr	r6, r6, ip
 430 0124 83F82464 		strb	r6, [r3, #1060]
 431              	.L17:
 357:../../libDaisy//src/dev/oled_ssd130x.h ****         else
 432              		.loc 4 357 42 view .LVU101
 433              	.LBE313:
 434              	.LBE314:
 435              	.LBE315:
 243:../../libDaisy//src/hid/disp/display.h ****             {
 436              		.loc 3 243 13 view .LVU102
 437 0128 B8EB400F 		cmp	r8, r0, lsl #1
 438 012c 03DA     		bge	.L18
 246:../../libDaisy//src/hid/disp/display.h ****             }
 439              		.loc 3 246 20 view .LVU103
 440 012e 029B     		ldr	r3, [sp, #8]
 245:../../libDaisy//src/hid/disp/display.h ****                 x1 += signX;
ARM GAS  /var/folders/1y/_321xjh9623c014x9_qw12rr0000gn/T//ccXuncwa.s 			page 31


 441              		.loc 3 245 23 view .LVU104
 442 0130 A0EB0E00 		sub	r0, r0, lr
 443              	.LVL30:
 246:../../libDaisy//src/hid/disp/display.h ****             }
 444              		.loc 3 246 20 view .LVU105
 445 0134 1944     		add	r1, r1, r3
 446              	.LVL31:
 447              	.L18:
 249:../../libDaisy//src/hid/disp/display.h ****             {
 448              		.loc 3 249 13 view .LVU106
 449 0136 5F45     		cmp	r7, fp
 450 0138 02DD     		ble	.L19
 252:../../libDaisy//src/hid/disp/display.h ****             }
 451              		.loc 3 252 20 view .LVU107
 452 013a 039B     		ldr	r3, [sp, #12]
 251:../../libDaisy//src/hid/disp/display.h ****                 y1 += signY;
 453              		.loc 3 251 23 view .LVU108
 454 013c 3844     		add	r0, r0, r7
 455              	.LVL32:
 252:../../libDaisy//src/hid/disp/display.h ****             }
 456              		.loc 3 252 20 view .LVU109
 457 013e 1A44     		add	r2, r2, r3
 458              	.LVL33:
 459              	.L19:
 239:../../libDaisy//src/hid/disp/display.h ****         {
 460              		.loc 3 239 26 is_stmt 1 view .LVU110
 461 0140 8D42     		cmp	r5, r1
 462 0142 DBD1     		bne	.L16
 239:../../libDaisy//src/hid/disp/display.h ****         {
 463              		.loc 3 239 26 is_stmt 0 view .LVU111
 464 0144 9442     		cmp	r4, r2
 465 0146 D9D1     		bne	.L16
 466              	.LVL34:
 467              	.L12:
 239:../../libDaisy//src/hid/disp/display.h ****         {
 468              		.loc 3 239 26 view .LVU112
 469              	.LBE317:
 470              	.LBE319:
 471              		.loc 2 280 13 is_stmt 1 view .LVU113
 281:Dubby.cpp     ****             prev_y = y;
 472              		.loc 2 281 13 view .LVU114
 473              		.loc 2 281 13 is_stmt 0 view .LVU115
 474              	.LBE292:
 269:Dubby.cpp     ****         {
 475              		.loc 2 269 9 is_stmt 1 view .LVU116
 269:Dubby.cpp     ****         {
 476              		.loc 2 269 29 view .LVU117
 477 0148 B9F1800F 		cmp	r9, #128
 478 014c 7FF47FAF 		bne	.L9
 479              	.LBE291:
 480              	.LBB323:
 481              	.LBB324:
 482              	.LBB325:
 483              	.LBB326:
 484              	.LBB327:
 124:../../libDaisy//src/dev/oled_ssd130x.h ****         spi_.BlockingTransmit(&cmd, 1);
 485              		.loc 4 124 24 is_stmt 0 view .LVU118
ARM GAS  /var/folders/1y/_321xjh9623c014x9_qw12rr0000gn/T//ccXuncwa.s 			page 32


 486 0150 0AF58367 		add	r7, r10, #1048
 487 0154 0AF58466 		add	r6, r10, #1056
 488 0158 0AF22444 		addw	r4, r10, #1060
 125:../../libDaisy//src/dev/oled_ssd130x.h ****     };
 489              		.loc 4 125 30 view .LVU119
 490 015c B025     		movs	r5, #176
 491              	.LVL35:
 492              	.L22:
 125:../../libDaisy//src/dev/oled_ssd130x.h ****     };
 493              		.loc 4 125 30 view .LVU120
 494 015e 4FF00008 		mov	r8, #0
 124:../../libDaisy//src/dev/oled_ssd130x.h ****         spi_.BlockingTransmit(&cmd, 1);
 495              		.loc 4 124 23 view .LVU121
 496 0162 3046     		mov	r0, r6
 497 0164 8DF81F50 		strb	r5, [sp, #31]
 498              	.LVL36:
 124:../../libDaisy//src/dev/oled_ssd130x.h ****         spi_.BlockingTransmit(&cmd, 1);
 499              		.loc 4 124 23 view .LVU122
 500              	.LBE327:
 501              	.LBI326:
 122:../../libDaisy//src/dev/oled_ssd130x.h ****     {
 502              		.loc 4 122 10 is_stmt 1 view .LVU123
 503              	.LBB328:
 124:../../libDaisy//src/dev/oled_ssd130x.h ****         spi_.BlockingTransmit(&cmd, 1);
 504              		.loc 4 124 9 view .LVU124
 505              	.LBE328:
 506              	.LBE326:
 360:../../libDaisy//src/dev/oled_ssd130x.h ****     }
 361:../../libDaisy//src/dev/oled_ssd130x.h **** 
 362:../../libDaisy//src/dev/oled_ssd130x.h ****     void Fill(bool on)
 363:../../libDaisy//src/dev/oled_ssd130x.h ****     {
 364:../../libDaisy//src/dev/oled_ssd130x.h ****         for(size_t i = 0; i < sizeof(buffer_); i++)
 365:../../libDaisy//src/dev/oled_ssd130x.h ****         {
 366:../../libDaisy//src/dev/oled_ssd130x.h ****             buffer_[i] = on ? 0xff : 0x00;
 367:../../libDaisy//src/dev/oled_ssd130x.h ****         }
 368:../../libDaisy//src/dev/oled_ssd130x.h ****     };
 369:../../libDaisy//src/dev/oled_ssd130x.h **** 
 370:../../libDaisy//src/dev/oled_ssd130x.h ****     /**
 371:../../libDaisy//src/dev/oled_ssd130x.h ****      * Update the display 
 372:../../libDaisy//src/dev/oled_ssd130x.h ****     */
 373:../../libDaisy//src/dev/oled_ssd130x.h ****     void Update()
 374:../../libDaisy//src/dev/oled_ssd130x.h ****     {
 375:../../libDaisy//src/dev/oled_ssd130x.h ****         uint8_t i;
 376:../../libDaisy//src/dev/oled_ssd130x.h ****         uint8_t high_column_addr;
 377:../../libDaisy//src/dev/oled_ssd130x.h ****         switch(height)
 378:../../libDaisy//src/dev/oled_ssd130x.h ****         {
 379:../../libDaisy//src/dev/oled_ssd130x.h ****             case 32: high_column_addr = 0x12; break;
 380:../../libDaisy//src/dev/oled_ssd130x.h **** 
 381:../../libDaisy//src/dev/oled_ssd130x.h ****             default: high_column_addr = 0x10; break;
 382:../../libDaisy//src/dev/oled_ssd130x.h ****         }
 383:../../libDaisy//src/dev/oled_ssd130x.h ****         for(i = 0; i < (height / 8); i++)
 507              		.loc 4 383 22 is_stmt 0 view .LVU125
 508 0168 0135     		adds	r5, r5, #1
 509              	.LVL37:
 510              	.LBB331:
 511              	.LBB329:
 124:../../libDaisy//src/dev/oled_ssd130x.h ****         spi_.BlockingTransmit(&cmd, 1);
ARM GAS  /var/folders/1y/_321xjh9623c014x9_qw12rr0000gn/T//ccXuncwa.s 			page 33


 512              		.loc 4 124 23 view .LVU126
 513 016a 4146     		mov	r1, r8
 514 016c FFF7FEFF 		bl	dsy_gpio_write
 515              	.LVL38:
 125:../../libDaisy//src/dev/oled_ssd130x.h ****     };
 516              		.loc 4 125 9 is_stmt 1 view .LVU127
 125:../../libDaisy//src/dev/oled_ssd130x.h ****     };
 517              		.loc 4 125 30 is_stmt 0 view .LVU128
 518 0170 6423     		movs	r3, #100
 519 0172 0122     		movs	r2, #1
 520 0174 0DF11F01 		add	r1, sp, #31
 521 0178 3846     		mov	r0, r7
 522              	.LBE329:
 523              	.LBE331:
 524              		.loc 4 383 22 view .LVU129
 525 017a EDB2     		uxtb	r5, r5
 526              	.LBB332:
 527              	.LBB330:
 125:../../libDaisy//src/dev/oled_ssd130x.h ****     };
 528              		.loc 4 125 30 view .LVU130
 529 017c FFF7FEFF 		bl	_ZN5daisy9SpiHandle16BlockingTransmitEPhjm
 530              	.LVL39:
 125:../../libDaisy//src/dev/oled_ssd130x.h ****     };
 531              		.loc 4 125 30 view .LVU131
 532              	.LBE330:
 533              	.LBE332:
 534              	.LBB333:
 535              	.LBB334:
 124:../../libDaisy//src/dev/oled_ssd130x.h ****         spi_.BlockingTransmit(&cmd, 1);
 536              		.loc 4 124 23 view .LVU132
 537 0180 4146     		mov	r1, r8
 538 0182 3046     		mov	r0, r6
 539 0184 8DF81F80 		strb	r8, [sp, #31]
 540              	.LVL40:
 124:../../libDaisy//src/dev/oled_ssd130x.h ****         spi_.BlockingTransmit(&cmd, 1);
 541              		.loc 4 124 23 view .LVU133
 542              	.LBE334:
 543              	.LBI333:
 122:../../libDaisy//src/dev/oled_ssd130x.h ****     {
 544              		.loc 4 122 10 is_stmt 1 view .LVU134
 545              	.LBB335:
 124:../../libDaisy//src/dev/oled_ssd130x.h ****         spi_.BlockingTransmit(&cmd, 1);
 546              		.loc 4 124 9 view .LVU135
 124:../../libDaisy//src/dev/oled_ssd130x.h ****         spi_.BlockingTransmit(&cmd, 1);
 547              		.loc 4 124 23 is_stmt 0 view .LVU136
 548 0188 FFF7FEFF 		bl	dsy_gpio_write
 549              	.LVL41:
 125:../../libDaisy//src/dev/oled_ssd130x.h ****     };
 550              		.loc 4 125 9 is_stmt 1 view .LVU137
 125:../../libDaisy//src/dev/oled_ssd130x.h ****     };
 551              		.loc 4 125 30 is_stmt 0 view .LVU138
 552 018c 0122     		movs	r2, #1
 553 018e 6423     		movs	r3, #100
 554 0190 0DF11F01 		add	r1, sp, #31
 555 0194 3846     		mov	r0, r7
 556 0196 FFF7FEFF 		bl	_ZN5daisy9SpiHandle16BlockingTransmitEPhjm
 557              	.LVL42:
ARM GAS  /var/folders/1y/_321xjh9623c014x9_qw12rr0000gn/T//ccXuncwa.s 			page 34


 125:../../libDaisy//src/dev/oled_ssd130x.h ****     };
 558              		.loc 4 125 30 view .LVU139
 559 019a 1023     		movs	r3, #16
 560              	.LBE335:
 561              	.LBE333:
 562              	.LBB336:
 563              	.LBB337:
 124:../../libDaisy//src/dev/oled_ssd130x.h ****         spi_.BlockingTransmit(&cmd, 1);
 564              		.loc 4 124 23 view .LVU140
 565 019c 4146     		mov	r1, r8
 566 019e 3046     		mov	r0, r6
 567 01a0 8DF81F30 		strb	r3, [sp, #31]
 568              	.LVL43:
 124:../../libDaisy//src/dev/oled_ssd130x.h ****         spi_.BlockingTransmit(&cmd, 1);
 569              		.loc 4 124 23 view .LVU141
 570              	.LBE337:
 571              	.LBI336:
 122:../../libDaisy//src/dev/oled_ssd130x.h ****     {
 572              		.loc 4 122 10 is_stmt 1 view .LVU142
 573              	.LBB338:
 124:../../libDaisy//src/dev/oled_ssd130x.h ****         spi_.BlockingTransmit(&cmd, 1);
 574              		.loc 4 124 9 view .LVU143
 124:../../libDaisy//src/dev/oled_ssd130x.h ****         spi_.BlockingTransmit(&cmd, 1);
 575              		.loc 4 124 23 is_stmt 0 view .LVU144
 576 01a4 FFF7FEFF 		bl	dsy_gpio_write
 577              	.LVL44:
 125:../../libDaisy//src/dev/oled_ssd130x.h ****     };
 578              		.loc 4 125 9 is_stmt 1 view .LVU145
 125:../../libDaisy//src/dev/oled_ssd130x.h ****     };
 579              		.loc 4 125 30 is_stmt 0 view .LVU146
 580 01a8 6423     		movs	r3, #100
 581 01aa 0122     		movs	r2, #1
 582 01ac 0DF11F01 		add	r1, sp, #31
 583 01b0 3846     		mov	r0, r7
 584 01b2 FFF7FEFF 		bl	_ZN5daisy9SpiHandle16BlockingTransmitEPhjm
 585              	.LVL45:
 125:../../libDaisy//src/dev/oled_ssd130x.h ****     };
 586              		.loc 4 125 30 view .LVU147
 587              	.LBE338:
 588              	.LBE336:
 589              	.LBB339:
 590              	.LBI339:
 128:../../libDaisy//src/dev/oled_ssd130x.h ****     {
 591              		.loc 4 128 10 is_stmt 1 view .LVU148
 592              	.LBB340:
 130:../../libDaisy//src/dev/oled_ssd130x.h ****         spi_.BlockingTransmit(buff, size);
 593              		.loc 4 130 9 view .LVU149
 130:../../libDaisy//src/dev/oled_ssd130x.h ****         spi_.BlockingTransmit(buff, size);
 594              		.loc 4 130 23 is_stmt 0 view .LVU150
 595 01b6 0121     		movs	r1, #1
 596 01b8 3046     		mov	r0, r6
 597 01ba FFF7FEFF 		bl	dsy_gpio_write
 598              	.LVL46:
 131:../../libDaisy//src/dev/oled_ssd130x.h ****     };
 599              		.loc 4 131 9 is_stmt 1 view .LVU151
 131:../../libDaisy//src/dev/oled_ssd130x.h ****     };
 600              		.loc 4 131 30 is_stmt 0 view .LVU152
ARM GAS  /var/folders/1y/_321xjh9623c014x9_qw12rr0000gn/T//ccXuncwa.s 			page 35


 601 01be 8022     		movs	r2, #128
 602 01c0 2146     		mov	r1, r4
 603 01c2 6423     		movs	r3, #100
 604 01c4 3846     		mov	r0, r7
 605              	.LBE340:
 606              	.LBE339:
 607              		.loc 4 383 22 view .LVU153
 608 01c6 1444     		add	r4, r4, r2
 609              	.LVL47:
 610              	.LBB342:
 611              	.LBB341:
 131:../../libDaisy//src/dev/oled_ssd130x.h ****     };
 612              		.loc 4 131 30 view .LVU154
 613 01c8 FFF7FEFF 		bl	_ZN5daisy9SpiHandle16BlockingTransmitEPhjm
 614              	.LVL48:
 131:../../libDaisy//src/dev/oled_ssd130x.h ****     };
 615              		.loc 4 131 30 view .LVU155
 616              	.LBE341:
 617              	.LBE342:
 618              		.loc 4 383 9 is_stmt 1 view .LVU156
 619              		.loc 4 383 22 view .LVU157
 620 01cc B82D     		cmp	r5, #184
 621 01ce C6D1     		bne	.L22
 622              	.LBE325:
 623              	.LBE324:
 624              	.LBE323:
 625              	.LBE345:
 282:Dubby.cpp     ****         }
 283:Dubby.cpp     **** 
 284:Dubby.cpp     ****         display.Update();
 285:Dubby.cpp     ****     }   
 286:Dubby.cpp     **** }
 626              		.loc 2 286 1 is_stmt 0 view .LVU158
 627 01d0 09B0     		add	sp, sp, #36
 628              		.cfi_remember_state
 629              		.cfi_def_cfa_offset 36
 630              		@ sp needed
 631 01d2 BDE8F08F 		pop	{r4, r5, r6, r7, r8, r9, r10, fp, pc}
 632              	.LVL49:
 633              	.L26:
 634              		.cfi_restore_state
 635              	.LBB346:
 636              	.LBB343:
 637              	.LBB322:
 638              	.LBB320:
 639              	.LBB295:
 640              		.loc 2 286 1 view .LVU159
 641 01d6 0024     		movs	r4, #0
 642              	.LVL50:
 643              	.L7:
 644              		.loc 2 286 1 view .LVU160
 645              	.LBE295:
 646              	.LBE320:
 274:Dubby.cpp     ****             int x = 1 + i * (OLED_WIDTH - 2) / AUDIO_BLOCK_SIZE;
 647              		.loc 2 274 45 view .LVU161
 648 01d8 0134     		adds	r4, r4, #1
 649 01da 53E7     		b	.L8
ARM GAS  /var/folders/1y/_321xjh9623c014x9_qw12rr0000gn/T//ccXuncwa.s 			page 36


 650              	.LVL51:
 651              	.L24:
 652              	.LBB321:
 653              	.LBB318:
 654              	.LBB316:
 655              		.loc 1 42 10 is_stmt 1 view .LVU162
 656              	.LBB307:
 352:../../libDaisy//src/dev/oled_ssd130x.h ****     {
 657              		.loc 4 352 10 view .LVU163
 658              	.LBE307:
 659              	.LBE316:
 230:../../libDaisy//src/hid/disp/display.h ****         int_fast16_t error  = deltaX - deltaY;
 660              		.loc 3 230 42 is_stmt 0 view .LVU164
 661 01dc 0120     		movs	r0, #1
 662 01de 0390     		str	r0, [sp, #12]
 663 01e0 74E7     		b	.L23
 664              	.L45:
 665 01e2 00BF     		.align	2
 666              	.L44:
 667 01e4 00001643 		.word	1125515264
 668              	.LBE318:
 669              	.LBE321:
 670              	.LBE322:
 671              	.LBE343:
 672              	.LBE346:
 673              		.cfi_endproc
 674              	.LFE2658:
 676              		.section	.text._ZN5daisy5Dubby12InitControlsEv,"ax",%progbits
 677              		.align	1
 678              		.p2align 2,,3
 679              		.global	_ZN5daisy5Dubby12InitControlsEv
 680              		.syntax unified
 681              		.thumb
 682              		.thumb_func
 684              	_ZN5daisy5Dubby12InitControlsEv:
 685              	.LVL52:
 686              	.LFB2569:
  58:Dubby.cpp     ****     AdcChannelConfig cfg[CTRL_LAST];
 687              		.loc 2 58 1 is_stmt 1 view -0
 688              		.cfi_startproc
 689              		@ args = 0, pretend = 0, frame = 136
 690              		@ frame_needed = 0, uses_anonymous_args = 0
  59:Dubby.cpp     **** 
 691              		.loc 2 59 5 view .LVU166
  62:Dubby.cpp     ****     cfg[CTRL_2].InitSingle(seed.GetPin(PIN_KNOB_2));
 692              		.loc 2 62 5 view .LVU167
  58:Dubby.cpp     ****     AdcChannelConfig cfg[CTRL_LAST];
 693              		.loc 2 58 1 is_stmt 0 view .LVU168
 694 0000 F0B5     		push	{r4, r5, r6, r7, lr}
 695              		.cfi_def_cfa_offset 20
 696              		.cfi_offset 4, -20
 697              		.cfi_offset 5, -16
 698              		.cfi_offset 6, -12
 699              		.cfi_offset 7, -8
 700              		.cfi_offset 14, -4
 701 0002 0546     		mov	r5, r0
 702 0004 A3B0     		sub	sp, sp, #140
ARM GAS  /var/folders/1y/_321xjh9623c014x9_qw12rr0000gn/T//ccXuncwa.s 			page 37


 703              		.cfi_def_cfa_offset 160
  62:Dubby.cpp     ****     cfg[CTRL_2].InitSingle(seed.GetPin(PIN_KNOB_2));
 704              		.loc 2 62 27 view .LVU169
 705 0006 1220     		movs	r0, #18
 706              	.LVL53:
 707              	.LBB347:
  73:Dubby.cpp     ****     {
 708              		.loc 2 73 16 view .LVU170
 709 0008 0024     		movs	r4, #0
 710              	.LBE347:
  62:Dubby.cpp     ****     cfg[CTRL_2].InitSingle(seed.GetPin(PIN_KNOB_2));
 711              		.loc 2 62 27 view .LVU171
 712 000a FFF7FEFF 		bl	_ZN5daisy9DaisySeed6GetPinEh
 713              	.LVL54:
 714 000e 0346     		mov	r3, r0	@ movhi
 715 0010 08A8     		add	r0, sp, #32
  70:Dubby.cpp     **** 
 716              		.loc 2 70 18 view .LVU172
 717 0012 05F13406 		add	r6, r5, #52
  62:Dubby.cpp     ****     cfg[CTRL_2].InitSingle(seed.GetPin(PIN_KNOB_2));
 718              		.loc 2 62 27 view .LVU173
 719 0016 ADF80830 		strh	r3, [sp, #8]	@ movhi
 720              	.LBB348:
  75:Dubby.cpp     ****     }
 721              		.loc 2 75 29 view .LVU174
 722 001a 05F11C07 		add	r7, r5, #28
 723              	.LBE348:
  62:Dubby.cpp     ****     cfg[CTRL_2].InitSingle(seed.GetPin(PIN_KNOB_2));
 724              		.loc 2 62 27 view .LVU175
 725 001e 0299     		ldr	r1, [sp, #8]
 726 0020 05F58E75 		add	r5, r5, #284
 727              	.LVL55:
  62:Dubby.cpp     ****     cfg[CTRL_2].InitSingle(seed.GetPin(PIN_KNOB_2));
 728              		.loc 2 62 27 view .LVU176
 729 0024 FFF7FEFF 		bl	_ZN5daisy16AdcChannelConfig10InitSingleE12dsy_gpio_pin
 730              	.LVL56:
  63:Dubby.cpp     ****     cfg[CTRL_3].InitSingle(seed.GetPin(PIN_KNOB_3));
 731              		.loc 2 63 5 is_stmt 1 view .LVU177
  63:Dubby.cpp     ****     cfg[CTRL_3].InitSingle(seed.GetPin(PIN_KNOB_3));
 732              		.loc 2 63 27 is_stmt 0 view .LVU178
 733 0028 0F20     		movs	r0, #15
 734 002a FFF7FEFF 		bl	_ZN5daisy9DaisySeed6GetPinEh
 735              	.LVL57:
 736 002e 0346     		mov	r3, r0	@ movhi
 737 0030 0DF13100 		add	r0, sp, #49
 738 0034 ADF80C30 		strh	r3, [sp, #12]	@ movhi
 739 0038 0399     		ldr	r1, [sp, #12]
 740 003a FFF7FEFF 		bl	_ZN5daisy16AdcChannelConfig10InitSingleE12dsy_gpio_pin
 741              	.LVL58:
  64:Dubby.cpp     ****     cfg[CTRL_4].InitSingle(seed.GetPin(PIN_KNOB_4));
 742              		.loc 2 64 5 is_stmt 1 view .LVU179
  64:Dubby.cpp     ****     cfg[CTRL_4].InitSingle(seed.GetPin(PIN_KNOB_4));
 743              		.loc 2 64 27 is_stmt 0 view .LVU180
 744 003e 1520     		movs	r0, #21
 745 0040 FFF7FEFF 		bl	_ZN5daisy9DaisySeed6GetPinEh
 746              	.LVL59:
 747 0044 0346     		mov	r3, r0	@ movhi
ARM GAS  /var/folders/1y/_321xjh9623c014x9_qw12rr0000gn/T//ccXuncwa.s 			page 38


 748 0046 0DF14200 		add	r0, sp, #66
 749 004a ADF81030 		strh	r3, [sp, #16]	@ movhi
 750 004e 0499     		ldr	r1, [sp, #16]
 751 0050 FFF7FEFF 		bl	_ZN5daisy16AdcChannelConfig10InitSingleE12dsy_gpio_pin
 752              	.LVL60:
  65:Dubby.cpp     ****     cfg[CTRL_5].InitSingle(seed.GetPin(PIN_JS_H));
 753              		.loc 2 65 5 is_stmt 1 view .LVU181
  65:Dubby.cpp     ****     cfg[CTRL_5].InitSingle(seed.GetPin(PIN_JS_H));
 754              		.loc 2 65 27 is_stmt 0 view .LVU182
 755 0054 1620     		movs	r0, #22
 756 0056 FFF7FEFF 		bl	_ZN5daisy9DaisySeed6GetPinEh
 757              	.LVL61:
 758 005a 0346     		mov	r3, r0	@ movhi
 759 005c 0DF15300 		add	r0, sp, #83
 760 0060 ADF81430 		strh	r3, [sp, #20]	@ movhi
 761 0064 0599     		ldr	r1, [sp, #20]
 762 0066 FFF7FEFF 		bl	_ZN5daisy16AdcChannelConfig10InitSingleE12dsy_gpio_pin
 763              	.LVL62:
  66:Dubby.cpp     ****     cfg[CTRL_6].InitSingle(seed.GetPin(PIN_JS_V));
 764              		.loc 2 66 5 is_stmt 1 view .LVU183
  66:Dubby.cpp     ****     cfg[CTRL_6].InitSingle(seed.GetPin(PIN_JS_V));
 765              		.loc 2 66 27 is_stmt 0 view .LVU184
 766 006a 1020     		movs	r0, #16
 767 006c FFF7FEFF 		bl	_ZN5daisy9DaisySeed6GetPinEh
 768              	.LVL63:
 769 0070 0346     		mov	r3, r0	@ movhi
 770 0072 19A8     		add	r0, sp, #100
 771 0074 ADF81830 		strh	r3, [sp, #24]	@ movhi
 772 0078 0699     		ldr	r1, [sp, #24]
 773 007a FFF7FEFF 		bl	_ZN5daisy16AdcChannelConfig10InitSingleE12dsy_gpio_pin
 774              	.LVL64:
  67:Dubby.cpp     **** 
 775              		.loc 2 67 5 is_stmt 1 view .LVU185
  67:Dubby.cpp     **** 
 776              		.loc 2 67 27 is_stmt 0 view .LVU186
 777 007e 1420     		movs	r0, #20
 778 0080 FFF7FEFF 		bl	_ZN5daisy9DaisySeed6GetPinEh
 779              	.LVL65:
 780 0084 0346     		mov	r3, r0	@ movhi
 781 0086 0DF17500 		add	r0, sp, #117
 782 008a ADF81C30 		strh	r3, [sp, #28]	@ movhi
 783 008e 0799     		ldr	r1, [sp, #28]
 784 0090 FFF7FEFF 		bl	_ZN5daisy16AdcChannelConfig10InitSingleE12dsy_gpio_pin
 785              	.LVL66:
  70:Dubby.cpp     **** 
 786              		.loc 2 70 5 is_stmt 1 view .LVU187
  70:Dubby.cpp     **** 
 787              		.loc 2 70 18 is_stmt 0 view .LVU188
 788 0094 0423     		movs	r3, #4
 789 0096 0622     		movs	r2, #6
 790 0098 08A9     		add	r1, sp, #32
 791 009a 3046     		mov	r0, r6
 792 009c FFF7FEFF 		bl	_ZN5daisy9AdcHandle4InitEPNS_16AdcChannelConfigEjNS0_12OverSamplingE
 793              	.LVL67:
  73:Dubby.cpp     ****     {
 794              		.loc 2 73 5 is_stmt 1 view .LVU189
 795              	.LBB349:
ARM GAS  /var/folders/1y/_321xjh9623c014x9_qw12rr0000gn/T//ccXuncwa.s 			page 39


  73:Dubby.cpp     ****     {
 796              		.loc 2 73 25 view .LVU190
 797              	.L47:
  75:Dubby.cpp     ****     }
 798              		.loc 2 75 9 discriminator 2 view .LVU191
  75:Dubby.cpp     ****     }
 799              		.loc 2 75 29 is_stmt 0 discriminator 2 view .LVU192
 800 00a0 E1B2     		uxtb	r1, r4
 801 00a2 3046     		mov	r0, r6
 802 00a4 FFF7FEFF 		bl	_ZNK5daisy9AdcHandle6GetPtrEh
 803              	.LVL68:
 804 00a8 0146     		mov	r1, r0
  73:Dubby.cpp     ****     {
 805              		.loc 2 73 5 discriminator 2 view .LVU193
 806 00aa 0134     		adds	r4, r4, #1
 807              	.LVL69:
  75:Dubby.cpp     ****     }
 808              		.loc 2 75 29 discriminator 2 view .LVU194
 809 00ac 3846     		mov	r0, r7
 810 00ae 0191     		str	r1, [sp, #4]
 811 00b0 FFF7FEFF 		bl	_ZNK5daisy9DaisySeed17AudioCallbackRateEv
 812              	.LVL70:
 813 00b4 2846     		mov	r0, r5
 814 00b6 DFED070A 		vldr.32	s1, .L50
 815 00ba 0023     		movs	r3, #0
 816 00bc 0122     		movs	r2, #1
 817 00be 0199     		ldr	r1, [sp, #4]
  73:Dubby.cpp     ****     {
 818              		.loc 2 73 25 discriminator 2 view .LVU195
 819 00c0 2035     		adds	r5, r5, #32
  75:Dubby.cpp     ****     }
 820              		.loc 2 75 29 discriminator 2 view .LVU196
 821 00c2 FFF7FEFF 		bl	_ZN5daisy13AnalogControl4InitEPtfbbf
 822              	.LVL71:
  73:Dubby.cpp     ****     {
 823              		.loc 2 73 5 is_stmt 1 discriminator 2 view .LVU197
  73:Dubby.cpp     ****     {
 824              		.loc 2 73 25 discriminator 2 view .LVU198
 825 00c6 062C     		cmp	r4, #6
 826 00c8 EAD1     		bne	.L47
 827              	.LBE349:
  78:Dubby.cpp     **** }
 828              		.loc 2 78 5 view .LVU199
  78:Dubby.cpp     **** }
 829              		.loc 2 78 19 is_stmt 0 view .LVU200
 830 00ca 3046     		mov	r0, r6
 831 00cc FFF7FEFF 		bl	_ZN5daisy9AdcHandle5StartEv
 832              	.LVL72:
  79:Dubby.cpp     **** 
 833              		.loc 2 79 1 view .LVU201
 834 00d0 23B0     		add	sp, sp, #140
 835              		.cfi_def_cfa_offset 20
 836              		@ sp needed
 837 00d2 F0BD     		pop	{r4, r5, r6, r7, pc}
 838              	.LVL73:
 839              	.L51:
  79:Dubby.cpp     **** 
ARM GAS  /var/folders/1y/_321xjh9623c014x9_qw12rr0000gn/T//ccXuncwa.s 			page 40


 840              		.loc 2 79 1 view .LVU202
 841              		.align	2
 842              	.L50:
 843 00d4 6F12033B 		.word	990057071
 844              		.cfi_endproc
 845              	.LFE2569:
 847              		.section	.text._ZN5daisy5Dubby9InitGatesEv,"ax",%progbits
 848              		.align	1
 849              		.p2align 2,,3
 850              		.global	_ZN5daisy5Dubby9InitGatesEv
 851              		.syntax unified
 852              		.thumb
 853              		.thumb_func
 855              	_ZN5daisy5Dubby9InitGatesEv:
 856              	.LVL74:
 857              	.LFB2570:
  82:Dubby.cpp     ****     dsy_gpio_pin pin;
 858              		.loc 2 82 1 is_stmt 1 view -0
 859              		.cfi_startproc
 860              		@ args = 0, pretend = 0, frame = 8
 861              		@ frame_needed = 0, uses_anonymous_args = 0
  83:Dubby.cpp     ****     pin = seed.GetPin(PIN_GATE_IN_1);
 862              		.loc 2 83 5 view .LVU204
  84:Dubby.cpp     ****     gateInputs[GATE_IN_1].Init(&pin);
 863              		.loc 2 84 5 view .LVU205
  82:Dubby.cpp     ****     dsy_gpio_pin pin;
 864              		.loc 2 82 1 is_stmt 0 view .LVU206
 865 0000 10B5     		push	{r4, lr}
 866              		.cfi_def_cfa_offset 8
 867              		.cfi_offset 4, -8
 868              		.cfi_offset 14, -4
 869 0002 0446     		mov	r4, r0
 870 0004 82B0     		sub	sp, sp, #8
 871              		.cfi_def_cfa_offset 16
  84:Dubby.cpp     ****     gateInputs[GATE_IN_1].Init(&pin);
 872              		.loc 2 84 36 view .LVU207
 873 0006 2020     		movs	r0, #32
 874              	.LVL75:
  84:Dubby.cpp     ****     gateInputs[GATE_IN_1].Init(&pin);
 875              		.loc 2 84 36 view .LVU208
 876 0008 FFF7FEFF 		bl	_ZN5daisy9DaisySeed6GetPinEh
 877              	.LVL76:
  85:Dubby.cpp     ****     pin = seed.GetPin(PIN_GATE_IN_2);
 878              		.loc 2 85 31 view .LVU209
 879 000c 01A9     		add	r1, sp, #4
 880 000e 0122     		movs	r2, #1
  84:Dubby.cpp     ****     gateInputs[GATE_IN_1].Init(&pin);
 881              		.loc 2 84 36 view .LVU210
 882 0010 ADF80400 		strh	r0, [sp, #4]	@ movhi
  85:Dubby.cpp     ****     pin = seed.GetPin(PIN_GATE_IN_2);
 883              		.loc 2 85 5 is_stmt 1 view .LVU211
  85:Dubby.cpp     ****     pin = seed.GetPin(PIN_GATE_IN_2);
 884              		.loc 2 85 31 is_stmt 0 view .LVU212
 885 0014 04F5EE70 		add	r0, r4, #476
 886 0018 FFF7FEFF 		bl	_ZN5daisy6GateIn4InitEP12dsy_gpio_pinb
 887              	.LVL77:
  86:Dubby.cpp     ****     gateInputs[GATE_IN_2].Init(&pin);
ARM GAS  /var/folders/1y/_321xjh9623c014x9_qw12rr0000gn/T//ccXuncwa.s 			page 41


 888              		.loc 2 86 5 is_stmt 1 view .LVU213
  86:Dubby.cpp     ****     gateInputs[GATE_IN_2].Init(&pin);
 889              		.loc 2 86 36 is_stmt 0 view .LVU214
 890 001c 1720     		movs	r0, #23
 891 001e FFF7FEFF 		bl	_ZN5daisy9DaisySeed6GetPinEh
 892              	.LVL78:
  87:Dubby.cpp     ****     pin = seed.GetPin(PIN_GATE_IN_3);
 893              		.loc 2 87 31 view .LVU215
 894 0022 01A9     		add	r1, sp, #4
 895 0024 0122     		movs	r2, #1
  86:Dubby.cpp     ****     gateInputs[GATE_IN_2].Init(&pin);
 896              		.loc 2 86 36 view .LVU216
 897 0026 ADF80400 		strh	r0, [sp, #4]	@ movhi
  87:Dubby.cpp     ****     pin = seed.GetPin(PIN_GATE_IN_3);
 898              		.loc 2 87 5 is_stmt 1 view .LVU217
  87:Dubby.cpp     ****     pin = seed.GetPin(PIN_GATE_IN_3);
 899              		.loc 2 87 31 is_stmt 0 view .LVU218
 900 002a 04F2E310 		addw	r0, r4, #483
 901 002e FFF7FEFF 		bl	_ZN5daisy6GateIn4InitEP12dsy_gpio_pinb
 902              	.LVL79:
  88:Dubby.cpp     ****     gateInputs[GATE_IN_3].Init(&pin);
 903              		.loc 2 88 5 is_stmt 1 view .LVU219
  88:Dubby.cpp     ****     gateInputs[GATE_IN_3].Init(&pin);
 904              		.loc 2 88 36 is_stmt 0 view .LVU220
 905 0032 1120     		movs	r0, #17
 906 0034 FFF7FEFF 		bl	_ZN5daisy9DaisySeed6GetPinEh
 907              	.LVL80:
  89:Dubby.cpp     ****     pin = seed.GetPin(PIN_GATE_IN_4);
 908              		.loc 2 89 31 view .LVU221
 909 0038 01A9     		add	r1, sp, #4
 910 003a 0122     		movs	r2, #1
  88:Dubby.cpp     ****     gateInputs[GATE_IN_3].Init(&pin);
 911              		.loc 2 88 36 view .LVU222
 912 003c ADF80400 		strh	r0, [sp, #4]	@ movhi
  89:Dubby.cpp     ****     pin = seed.GetPin(PIN_GATE_IN_4);
 913              		.loc 2 89 5 is_stmt 1 view .LVU223
  89:Dubby.cpp     ****     pin = seed.GetPin(PIN_GATE_IN_4);
 914              		.loc 2 89 31 is_stmt 0 view .LVU224
 915 0040 04F5F570 		add	r0, r4, #490
 916 0044 FFF7FEFF 		bl	_ZN5daisy6GateIn4InitEP12dsy_gpio_pinb
 917              	.LVL81:
  90:Dubby.cpp     ****     gateInputs[GATE_IN_4].Init(&pin);
 918              		.loc 2 90 5 is_stmt 1 view .LVU225
  90:Dubby.cpp     ****     gateInputs[GATE_IN_4].Init(&pin);
 919              		.loc 2 90 36 is_stmt 0 view .LVU226
 920 0048 1320     		movs	r0, #19
 921 004a FFF7FEFF 		bl	_ZN5daisy9DaisySeed6GetPinEh
 922              	.LVL82:
  91:Dubby.cpp     ****     pin = seed.GetPin(PIN_JS_CLICK);
 923              		.loc 2 91 31 view .LVU227
 924 004e 01A9     		add	r1, sp, #4
 925 0050 0122     		movs	r2, #1
  90:Dubby.cpp     ****     gateInputs[GATE_IN_4].Init(&pin);
 926              		.loc 2 90 36 view .LVU228
 927 0052 ADF80400 		strh	r0, [sp, #4]	@ movhi
  91:Dubby.cpp     ****     pin = seed.GetPin(PIN_JS_CLICK);
 928              		.loc 2 91 5 is_stmt 1 view .LVU229
ARM GAS  /var/folders/1y/_321xjh9623c014x9_qw12rr0000gn/T//ccXuncwa.s 			page 42


  91:Dubby.cpp     ****     pin = seed.GetPin(PIN_JS_CLICK);
 929              		.loc 2 91 31 is_stmt 0 view .LVU230
 930 0056 04F2F110 		addw	r0, r4, #497
 931 005a FFF7FEFF 		bl	_ZN5daisy6GateIn4InitEP12dsy_gpio_pinb
 932              	.LVL83:
  92:Dubby.cpp     ****     gateInputs[GATE_IN_5].Init(&pin);
 933              		.loc 2 92 5 is_stmt 1 view .LVU231
  92:Dubby.cpp     ****     gateInputs[GATE_IN_5].Init(&pin);
 934              		.loc 2 92 35 is_stmt 0 view .LVU232
 935 005e 0320     		movs	r0, #3
 936 0060 FFF7FEFF 		bl	_ZN5daisy9DaisySeed6GetPinEh
 937              	.LVL84:
  93:Dubby.cpp     **** }
 938              		.loc 2 93 31 view .LVU233
 939 0064 0122     		movs	r2, #1
  92:Dubby.cpp     ****     gateInputs[GATE_IN_5].Init(&pin);
 940              		.loc 2 92 35 view .LVU234
 941 0066 0346     		mov	r3, r0	@ movhi
  93:Dubby.cpp     **** }
 942              		.loc 2 93 31 view .LVU235
 943 0068 01A9     		add	r1, sp, #4
 944 006a 04F5FC70 		add	r0, r4, #504
  92:Dubby.cpp     ****     gateInputs[GATE_IN_5].Init(&pin);
 945              		.loc 2 92 35 view .LVU236
 946 006e ADF80430 		strh	r3, [sp, #4]	@ movhi
  93:Dubby.cpp     **** }
 947              		.loc 2 93 5 is_stmt 1 view .LVU237
  93:Dubby.cpp     **** }
 948              		.loc 2 93 31 is_stmt 0 view .LVU238
 949 0072 FFF7FEFF 		bl	_ZN5daisy6GateIn4InitEP12dsy_gpio_pinb
 950              	.LVL85:
  94:Dubby.cpp     **** 
 951              		.loc 2 94 1 view .LVU239
 952 0076 02B0     		add	sp, sp, #8
 953              		.cfi_def_cfa_offset 8
 954              		@ sp needed
 955 0078 10BD     		pop	{r4, pc}
  94:Dubby.cpp     **** 
 956              		.loc 2 94 1 view .LVU240
 957              		.cfi_endproc
 958              	.LFE2570:
 960 007a 00BF     		.section	.text._ZN5daisy5Dubby10DrawBitmapEi,"ax",%progbits
 961              		.align	1
 962              		.p2align 2,,3
 963              		.global	_ZN5daisy5Dubby10DrawBitmapEi
 964              		.syntax unified
 965              		.thumb
 966              		.thumb_func
 968              	_ZN5daisy5Dubby10DrawBitmapEi:
 969              	.LVL86:
 970              	.LFB2580:
 151:Dubby.cpp     ****     display.Fill(false);
 971              		.loc 2 151 1 is_stmt 1 view -0
 972              		.cfi_startproc
 973              		@ args = 0, pretend = 0, frame = 24
 974              		@ frame_needed = 0, uses_anonymous_args = 0
 151:Dubby.cpp     ****     display.Fill(false);
ARM GAS  /var/folders/1y/_321xjh9623c014x9_qw12rr0000gn/T//ccXuncwa.s 			page 43


 975              		.loc 2 151 1 is_stmt 0 view .LVU242
 976 0000 0B46     		mov	r3, r1
 977              	.LBB386:
 978              	.LBB387:
 979              	.LBB388:
 366:../../libDaisy//src/dev/oled_ssd130x.h ****         }
 980              		.loc 4 366 24 view .LVU243
 981 0002 0021     		movs	r1, #0
 982              	.LVL87:
 366:../../libDaisy//src/dev/oled_ssd130x.h ****         }
 983              		.loc 4 366 24 view .LVU244
 984 0004 4FF48062 		mov	r2, #1024
 985 0008 9B02     		lsls	r3, r3, #10
 986              	.LVL88:
 366:../../libDaisy//src/dev/oled_ssd130x.h ****         }
 987              		.loc 4 366 24 view .LVU245
 988              	.LBE388:
 989              	.LBE387:
 990              	.LBE386:
 151:Dubby.cpp     ****     display.Fill(false);
 991              		.loc 2 151 1 view .LVU246
 992 000a 2DE9F04F 		push	{r4, r5, r6, r7, r8, r9, r10, fp, lr}
 993              		.cfi_def_cfa_offset 36
 994              		.cfi_offset 4, -36
 995              		.cfi_offset 5, -32
 996              		.cfi_offset 6, -28
 997              		.cfi_offset 7, -24
 998              		.cfi_offset 8, -20
 999              		.cfi_offset 9, -16
 1000              		.cfi_offset 10, -12
 1001              		.cfi_offset 11, -8
 1002              		.cfi_offset 14, -4
 1003 000e 8246     		mov	r10, r0
 152:Dubby.cpp     ****     display.SetCursor(30, 30);
 1004              		.loc 2 152 5 is_stmt 1 view .LVU247
 1005              	.LVL89:
 1006              	.LBB393:
 1007              	.LBI386:
  34:../../libDaisy//src/hid/disp/oled_display.h **** 
 1008              		.loc 1 34 10 view .LVU248
 1009              	.LBB391:
 1010              	.LBI387:
 362:../../libDaisy//src/dev/oled_ssd130x.h ****     {
 1011              		.loc 4 362 10 view .LVU249
 1012              	.LBB389:
 364:../../libDaisy//src/dev/oled_ssd130x.h ****         {
 1013              		.loc 4 364 29 view .LVU250
 1014              	.LBE389:
 1015              	.LBE391:
 1016              	.LBE393:
 151:Dubby.cpp     ****     display.Fill(false);
 1017              		.loc 2 151 1 is_stmt 0 view .LVU251
 1018 0010 87B0     		sub	sp, sp, #28
 1019              		.cfi_def_cfa_offset 64
 1020 0012 00F22440 		addw	r0, r0, #1060
 1021              	.LVL90:
 1022              	.LBB394:
ARM GAS  /var/folders/1y/_321xjh9623c014x9_qw12rr0000gn/T//ccXuncwa.s 			page 44


 155:Dubby.cpp     ****         for (int y = 0; y < OLED_HEIGHT; y++) {
 1023              		.loc 2 155 14 view .LVU252
 1024 0016 8B46     		mov	fp, r1
 1025 0018 0193     		str	r3, [sp, #4]
 1026 001a 0390     		str	r0, [sp, #12]
 1027              	.LBE394:
 1028              	.LBB464:
 1029              	.LBB392:
 1030              	.LBB390:
 366:../../libDaisy//src/dev/oled_ssd130x.h ****         }
 1031              		.loc 4 366 24 view .LVU253
 1032 001c FFF7FEFF 		bl	memset
 1033              	.LVL91:
 366:../../libDaisy//src/dev/oled_ssd130x.h ****         }
 1034              		.loc 4 366 24 view .LVU254
 1035              	.LBE390:
 1036              	.LBE392:
 1037              	.LBE464:
 153:Dubby.cpp     ****     
 1038              		.loc 2 153 5 is_stmt 1 view .LVU255
 1039              	.LBB465:
 1040              	.LBI465:
 171:../../libDaisy//src/hid/disp/display.h ****     {
 1041              		.loc 3 171 10 view .LVU256
 1042              	.LBB466:
 173:../../libDaisy//src/hid/disp/display.h ****         currentY_ = (y >= Height()) ? Height() - 1 : y;
 1043              		.loc 3 173 9 view .LVU257
 174:../../libDaisy//src/hid/disp/display.h ****     }
 1044              		.loc 3 174 9 view .LVU258
 173:../../libDaisy//src/hid/disp/display.h ****         currentY_ = (y >= Height()) ? Height() - 1 : y;
 1045              		.loc 3 173 19 is_stmt 0 view .LVU259
 1046 0020 4FF01E13 		mov	r3, #1966110
 1047 0024 CAF81434 		str	r3, [r10, #1044]
 1048              	.LVL92:
 173:../../libDaisy//src/hid/disp/display.h ****         currentY_ = (y >= Height()) ? Height() - 1 : y;
 1049              		.loc 3 173 19 view .LVU260
 1050              	.LBE466:
 1051              	.LBE465:
 1052              	.LBB467:
 155:Dubby.cpp     ****         for (int y = 0; y < OLED_HEIGHT; y++) {
 1053              		.loc 2 155 23 is_stmt 1 view .LVU261
 1054              	.L63:
 1055              	.LBB395:
 156:Dubby.cpp     ****             // Calculate the index in the array
 1056              		.loc 2 156 27 view .LVU262
 1057 0028 0BF22443 		addw	r3, fp, #1060
 156:Dubby.cpp     ****             // Calculate the index in the array
 1058              		.loc 2 156 18 is_stmt 0 view .LVU263
 1059 002c 4FF00009 		mov	r9, #0
 1060 0030 0293     		str	r3, [sp, #8]
 1061              	.LVL93:
 1062              	.L60:
 1063              	.LBB396:
 158:Dubby.cpp     **** 
 1064              		.loc 2 158 13 is_stmt 1 view .LVU264
 161:Dubby.cpp     **** 
 1065              		.loc 2 161 13 view .LVU265
ARM GAS  /var/folders/1y/_321xjh9623c014x9_qw12rr0000gn/T//ccXuncwa.s 			page 45


 164:Dubby.cpp     **** 
 1066              		.loc 2 164 13 view .LVU266
 1067              	.LBB397:
 164:Dubby.cpp     **** 
 1068              		.loc 2 164 45 view .LVU267
 1069              	.LBB398:
 1070              	.LBB399:
 1071              	.LBB400:
 1072              	.LBB401:
 1073              	.LBB402:
 1074              	.LBB403:
 359:../../libDaisy//src/dev/oled_ssd130x.h ****     }
 1075              		.loc 4 359 55 is_stmt 0 view .LVU268
 1076 0032 09F00702 		and	r2, r9, #7
 1077              	.LBE403:
 1078              	.LBE402:
 1079              	.LBE401:
 1080              	.LBE400:
 1081              	.LBE399:
 1082              	.LBE398:
 1083              	.LBE397:
 161:Dubby.cpp     **** 
 1084              		.loc 2 161 18 view .LVU269
 1085 0036 3B48     		ldr	r0, .L70
 1086              	.LBB437:
 1087              	.LBB433:
 1088              	.LBB427:
 1089              	.LBB421:
 1090              	.LBB415:
 1091              	.LBB409:
 1092              	.LBB404:
 359:../../libDaisy//src/dev/oled_ssd130x.h ****     }
 1093              		.loc 4 359 49 view .LVU270
 1094 0038 0124     		movs	r4, #1
 1095              	.LBE404:
 1096              	.LBE409:
 1097              	.LBE415:
 1098              	.LBE421:
 1099              	.LBE427:
 1100              	.LBE433:
 1101              	.LBE437:
 158:Dubby.cpp     **** 
 1102              		.loc 2 158 17 view .LVU271
 1103 003a 0BEBC911 		add	r1, fp, r9, lsl #7
 1104              	.LBB438:
 1105              	.LBB434:
 1106              	.LBB428:
 1107              	.LBB422:
 1108              	.LBB416:
 1109              	.LBB410:
 1110              	.LBB405:
 359:../../libDaisy//src/dev/oled_ssd130x.h ****     }
 1111              		.loc 4 359 28 view .LVU272
 1112 003e 4FEAD903 		lsr	r3, r9, #3
 359:../../libDaisy//src/dev/oled_ssd130x.h ****     }
 1113              		.loc 4 359 49 view .LVU273
 1114 0042 9440     		lsls	r4, r4, r2
ARM GAS  /var/folders/1y/_321xjh9623c014x9_qw12rr0000gn/T//ccXuncwa.s 			page 46


 1115              	.LBE405:
 1116              	.LBE410:
 1117              	.LBE416:
 1118              	.LBE422:
 1119              	.LBE428:
 1120              	.LBE434:
 1121              	.LBE438:
 161:Dubby.cpp     **** 
 1122              		.loc 2 161 18 view .LVU274
 1123 0044 00EBE101 		add	r1, r0, r1, asr #3
 1124 0048 0298     		ldr	r0, [sp, #8]
 1125              	.LBB439:
 1126              	.LBB435:
 167:Dubby.cpp     **** 
 1127              		.loc 2 167 31 view .LVU275
 1128 004a 0722     		movs	r2, #7
 1129              	.LBB429:
 1130              	.LBB423:
 1131              	.LBB417:
 1132              	.LBB411:
 1133              	.LBB406:
 359:../../libDaisy//src/dev/oled_ssd130x.h ****     }
 1134              		.loc 4 359 42 view .LVU276
 1135 004c 64B2     		sxtb	r4, r4
 1136 004e 00EBC313 		add	r3, r0, r3, lsl #7
 1137              	.LBE406:
 1138              	.LBE411:
 1139              	.LBE417:
 1140              	.LBE423:
 1141              	.LBE429:
 167:Dubby.cpp     **** 
 1142              		.loc 2 167 31 view .LVU277
 1143 0052 0198     		ldr	r0, [sp, #4]
 1144              	.LBB430:
 1145              	.LBB424:
 1146              	.LBB418:
 1147              	.LBB412:
 1148              	.LBB407:
 359:../../libDaisy//src/dev/oled_ssd130x.h ****     }
 1149              		.loc 4 359 42 view .LVU278
 1150 0054 E543     		mvns	r5, r4
 1151              	.LBE407:
 1152              	.LBE412:
 1153              	.LBE418:
 1154              	.LBE424:
 1155              	.LBE430:
 167:Dubby.cpp     **** 
 1156              		.loc 2 167 31 view .LVU279
 1157 0056 085C     		ldrb	r0, [r1, r0]	@ zero_extendqisi2
 1158 0058 5344     		add	r3, r3, r10
 1159              	.LVL94:
 1160              	.L57:
 167:Dubby.cpp     **** 
 1161              		.loc 2 167 17 is_stmt 1 discriminator 2 view .LVU280
 169:Dubby.cpp     **** 
 1162              		.loc 2 169 17 discriminator 2 view .LVU281
 171:Dubby.cpp     ****             }
ARM GAS  /var/folders/1y/_321xjh9623c014x9_qw12rr0000gn/T//ccXuncwa.s 			page 47


 1163              		.loc 2 171 17 discriminator 2 view .LVU282
 1164              	.LBB431:
 1165              	.LBI399:
 1166              		.loc 1 42 10 discriminator 2 view .LVU283
 1167              	.LBB425:
 1168              	.LBI400:
 352:../../libDaisy//src/dev/oled_ssd130x.h ****     {
 1169              		.loc 4 352 10 discriminator 2 view .LVU284
 1170              	.LBB419:
 1171              	.LBB413:
 1172              	.LBI402:
 352:../../libDaisy//src/dev/oled_ssd130x.h ****     {
 1173              		.loc 4 352 10 discriminator 2 view .LVU285
 352:../../libDaisy//src/dev/oled_ssd130x.h ****     {
 1174              		.loc 4 352 10 is_stmt 0 discriminator 2 view .LVU286
 1175              	.LBE413:
 1176              	.LBE419:
 1177              	.LBE425:
 1178              	.LBE431:
 167:Dubby.cpp     **** 
 1179              		.loc 2 167 36 discriminator 2 view .LVU287
 1180 005a 40FA02F1 		asr	r1, r0, r2
 1181              	.LBE435:
 164:Dubby.cpp     **** 
 1182              		.loc 2 164 45 discriminator 2 view .LVU288
 1183 005e 013A     		subs	r2, r2, #1
 1184 0060 0133     		adds	r3, r3, #1
 1185              	.LBB436:
 1186              	.LBB432:
 1187              	.LBB426:
 1188              	.LBB420:
 356:../../libDaisy//src/dev/oled_ssd130x.h ****             buffer_[x + (y / 8) * width] |= (1 << (y % 8));
 1189              		.loc 4 356 9 discriminator 2 view .LVU289
 1190 0062 11F0010F 		tst	r1, #1
 357:../../libDaisy//src/dev/oled_ssd130x.h ****         else
 1191              		.loc 4 357 42 discriminator 2 view .LVU290
 1192 0066 13F8011C 		ldrb	r1, [r3, #-1]	@ zero_extendqisi2
 1193 006a 14BF     		ite	ne
 1194 006c 2143     		orrne	r1, r1, r4
 1195              	.LBB414:
 1196              	.LBB408:
 359:../../libDaisy//src/dev/oled_ssd130x.h ****     }
 1197              		.loc 4 359 42 discriminator 2 view .LVU291
 1198 006e 2940     		andeq	r1, r1, r5
 1199 0070 03F8011C 		strb	r1, [r3, #-1]
 1200              	.LVL95:
 359:../../libDaisy//src/dev/oled_ssd130x.h ****     }
 1201              		.loc 4 359 42 discriminator 2 view .LVU292
 1202              	.LBE408:
 1203              	.LBE414:
 1204              	.LBE420:
 1205              	.LBE426:
 1206              	.LBE432:
 1207              	.LBE436:
 164:Dubby.cpp     **** 
 1208              		.loc 2 164 13 is_stmt 1 discriminator 2 view .LVU293
 164:Dubby.cpp     **** 
ARM GAS  /var/folders/1y/_321xjh9623c014x9_qw12rr0000gn/T//ccXuncwa.s 			page 48


 1209              		.loc 2 164 45 discriminator 2 view .LVU294
 1210 0074 511C     		adds	r1, r2, #1
 1211 0076 F0D1     		bne	.L57
 1212              	.LBE439:
 174:Dubby.cpp     ****         }
 1213              		.loc 2 174 13 view .LVU295
 1214              	.LBB440:
 1215 0078 2B4B     		ldr	r3, .L70+4
 1216              	.LBE440:
 1217 007a 2C4A     		ldr	r2, .L70+8
 1218              	.LBB441:
 1219 007c 03FB09F3 		mul	r3, r3, r9
 1220              	.LBE441:
 1221 0080 B2EB730F 		cmp	r2, r3, ror #1
 1222 0084 0CD2     		bcs	.L58
 1223              	.L61:
 174:Dubby.cpp     ****         }
 1224              		.loc 2 174 13 is_stmt 0 view .LVU296
 1225              	.LBE396:
 156:Dubby.cpp     ****             // Calculate the index in the array
 1226              		.loc 2 156 9 is_stmt 1 view .LVU297
 1227 0086 09F10109 		add	r9, r9, #1
 1228              	.LVL96:
 156:Dubby.cpp     ****             // Calculate the index in the array
 1229              		.loc 2 156 27 view .LVU298
 1230 008a B9F1400F 		cmp	r9, #64
 1231 008e D0D1     		bne	.L60
 1232              	.LBE395:
 155:Dubby.cpp     ****         for (int y = 0; y < OLED_HEIGHT; y++) {
 1233              		.loc 2 155 5 discriminator 2 view .LVU299
 155:Dubby.cpp     ****         for (int y = 0; y < OLED_HEIGHT; y++) {
 1234              		.loc 2 155 39 is_stmt 0 discriminator 2 view .LVU300
 1235 0090 0BF1080B 		add	fp, fp, #8
 1236              	.LVL97:
 155:Dubby.cpp     ****         for (int y = 0; y < OLED_HEIGHT; y++) {
 1237              		.loc 2 155 23 is_stmt 1 discriminator 2 view .LVU301
 1238 0094 BBF1800F 		cmp	fp, #128
 1239 0098 C6D1     		bne	.L63
 1240              	.LBE467:
 177:Dubby.cpp     **** 
 1241              		.loc 2 177 1 is_stmt 0 view .LVU302
 1242 009a 07B0     		add	sp, sp, #28
 1243              		.cfi_remember_state
 1244              		.cfi_def_cfa_offset 36
 1245              		@ sp needed
 1246 009c BDE8F08F 		pop	{r4, r5, r6, r7, r8, r9, r10, fp, pc}
 1247              	.LVL98:
 1248              	.L58:
 1249              		.cfi_restore_state
 1250              	.LBB468:
 1251              	.LBB463:
 1252              	.LBB462:
 1253              	.LBB442:
 1254              	.LBB443:
 1255              	.LBB444:
 1256              	.LBB445:
 1257              	.LBB446:
ARM GAS  /var/folders/1y/_321xjh9623c014x9_qw12rr0000gn/T//ccXuncwa.s 			page 49


 124:../../libDaisy//src/dev/oled_ssd130x.h ****         spi_.BlockingTransmit(&cmd, 1);
 1258              		.loc 4 124 24 view .LVU303
 1259 00a0 0AF58366 		add	r6, r10, #1048
 1260 00a4 0AF58465 		add	r5, r10, #1056
 1261 00a8 DDF80C80 		ldr	r8, [sp, #12]
 125:../../libDaisy//src/dev/oled_ssd130x.h ****     };
 1262              		.loc 4 125 30 view .LVU304
 1263 00ac B024     		movs	r4, #176
 1264              	.L62:
 1265              	.LVL99:
 124:../../libDaisy//src/dev/oled_ssd130x.h ****         spi_.BlockingTransmit(&cmd, 1);
 1266              		.loc 4 124 23 view .LVU305
 1267 00ae 0021     		movs	r1, #0
 1268 00b0 2846     		mov	r0, r5
 1269 00b2 8DF81740 		strb	r4, [sp, #23]
 1270              	.LVL100:
 124:../../libDaisy//src/dev/oled_ssd130x.h ****         spi_.BlockingTransmit(&cmd, 1);
 1271              		.loc 4 124 23 view .LVU306
 1272              	.LBE446:
 1273              	.LBI445:
 122:../../libDaisy//src/dev/oled_ssd130x.h ****     {
 1274              		.loc 4 122 10 is_stmt 1 view .LVU307
 1275              	.LBB447:
 124:../../libDaisy//src/dev/oled_ssd130x.h ****         spi_.BlockingTransmit(&cmd, 1);
 1276              		.loc 4 124 9 view .LVU308
 1277              	.LBE447:
 1278              	.LBE445:
 1279              		.loc 4 383 22 is_stmt 0 view .LVU309
 1280 00b6 0134     		adds	r4, r4, #1
 1281              	.LVL101:
 1282              		.loc 4 383 22 view .LVU310
 1283 00b8 0F46     		mov	r7, r1
 1284              	.LBB449:
 1285              	.LBB448:
 124:../../libDaisy//src/dev/oled_ssd130x.h ****         spi_.BlockingTransmit(&cmd, 1);
 1286              		.loc 4 124 23 view .LVU311
 1287 00ba FFF7FEFF 		bl	dsy_gpio_write
 1288              	.LVL102:
 125:../../libDaisy//src/dev/oled_ssd130x.h ****     };
 1289              		.loc 4 125 9 is_stmt 1 view .LVU312
 125:../../libDaisy//src/dev/oled_ssd130x.h ****     };
 1290              		.loc 4 125 30 is_stmt 0 view .LVU313
 1291 00be 6423     		movs	r3, #100
 1292 00c0 0122     		movs	r2, #1
 1293 00c2 0DF11701 		add	r1, sp, #23
 1294 00c6 3046     		mov	r0, r6
 1295 00c8 FFF7FEFF 		bl	_ZN5daisy9SpiHandle16BlockingTransmitEPhjm
 1296              	.LVL103:
 125:../../libDaisy//src/dev/oled_ssd130x.h ****     };
 1297              		.loc 4 125 30 view .LVU314
 1298              	.LBE448:
 1299              	.LBE449:
 1300              	.LBB450:
 1301              	.LBB451:
 124:../../libDaisy//src/dev/oled_ssd130x.h ****         spi_.BlockingTransmit(&cmd, 1);
 1302              		.loc 4 124 23 view .LVU315
 1303 00cc 3946     		mov	r1, r7
ARM GAS  /var/folders/1y/_321xjh9623c014x9_qw12rr0000gn/T//ccXuncwa.s 			page 50


 1304 00ce 2846     		mov	r0, r5
 1305 00d0 8DF81770 		strb	r7, [sp, #23]
 1306              	.LVL104:
 124:../../libDaisy//src/dev/oled_ssd130x.h ****         spi_.BlockingTransmit(&cmd, 1);
 1307              		.loc 4 124 23 view .LVU316
 1308              	.LBE451:
 1309              	.LBI450:
 122:../../libDaisy//src/dev/oled_ssd130x.h ****     {
 1310              		.loc 4 122 10 is_stmt 1 view .LVU317
 1311              	.LBB452:
 124:../../libDaisy//src/dev/oled_ssd130x.h ****         spi_.BlockingTransmit(&cmd, 1);
 1312              		.loc 4 124 9 view .LVU318
 124:../../libDaisy//src/dev/oled_ssd130x.h ****         spi_.BlockingTransmit(&cmd, 1);
 1313              		.loc 4 124 23 is_stmt 0 view .LVU319
 1314 00d4 FFF7FEFF 		bl	dsy_gpio_write
 1315              	.LVL105:
 125:../../libDaisy//src/dev/oled_ssd130x.h ****     };
 1316              		.loc 4 125 9 is_stmt 1 view .LVU320
 125:../../libDaisy//src/dev/oled_ssd130x.h ****     };
 1317              		.loc 4 125 30 is_stmt 0 view .LVU321
 1318 00d8 0122     		movs	r2, #1
 1319 00da 6423     		movs	r3, #100
 1320 00dc 0DF11701 		add	r1, sp, #23
 1321 00e0 3046     		mov	r0, r6
 1322              	.LBE452:
 1323              	.LBE450:
 1324              		.loc 4 383 22 view .LVU322
 1325 00e2 E4B2     		uxtb	r4, r4
 1326              	.LBB454:
 1327              	.LBB453:
 125:../../libDaisy//src/dev/oled_ssd130x.h ****     };
 1328              		.loc 4 125 30 view .LVU323
 1329 00e4 FFF7FEFF 		bl	_ZN5daisy9SpiHandle16BlockingTransmitEPhjm
 1330              	.LVL106:
 125:../../libDaisy//src/dev/oled_ssd130x.h ****     };
 1331              		.loc 4 125 30 view .LVU324
 1332 00e8 1023     		movs	r3, #16
 1333              	.LBE453:
 1334              	.LBE454:
 1335              	.LBB455:
 1336              	.LBB456:
 124:../../libDaisy//src/dev/oled_ssd130x.h ****         spi_.BlockingTransmit(&cmd, 1);
 1337              		.loc 4 124 23 view .LVU325
 1338 00ea 3946     		mov	r1, r7
 1339 00ec 2846     		mov	r0, r5
 1340 00ee 8DF81730 		strb	r3, [sp, #23]
 1341              	.LVL107:
 124:../../libDaisy//src/dev/oled_ssd130x.h ****         spi_.BlockingTransmit(&cmd, 1);
 1342              		.loc 4 124 23 view .LVU326
 1343              	.LBE456:
 1344              	.LBI455:
 122:../../libDaisy//src/dev/oled_ssd130x.h ****     {
 1345              		.loc 4 122 10 is_stmt 1 view .LVU327
 1346              	.LBB457:
 124:../../libDaisy//src/dev/oled_ssd130x.h ****         spi_.BlockingTransmit(&cmd, 1);
 1347              		.loc 4 124 9 view .LVU328
 124:../../libDaisy//src/dev/oled_ssd130x.h ****         spi_.BlockingTransmit(&cmd, 1);
ARM GAS  /var/folders/1y/_321xjh9623c014x9_qw12rr0000gn/T//ccXuncwa.s 			page 51


 1348              		.loc 4 124 23 is_stmt 0 view .LVU329
 1349 00f2 FFF7FEFF 		bl	dsy_gpio_write
 1350              	.LVL108:
 125:../../libDaisy//src/dev/oled_ssd130x.h ****     };
 1351              		.loc 4 125 9 is_stmt 1 view .LVU330
 125:../../libDaisy//src/dev/oled_ssd130x.h ****     };
 1352              		.loc 4 125 30 is_stmt 0 view .LVU331
 1353 00f6 6423     		movs	r3, #100
 1354 00f8 0122     		movs	r2, #1
 1355 00fa 0DF11701 		add	r1, sp, #23
 1356 00fe 3046     		mov	r0, r6
 1357 0100 FFF7FEFF 		bl	_ZN5daisy9SpiHandle16BlockingTransmitEPhjm
 1358              	.LVL109:
 125:../../libDaisy//src/dev/oled_ssd130x.h ****     };
 1359              		.loc 4 125 30 view .LVU332
 1360              	.LBE457:
 1361              	.LBE455:
 1362              	.LBB458:
 1363              	.LBI458:
 128:../../libDaisy//src/dev/oled_ssd130x.h ****     {
 1364              		.loc 4 128 10 is_stmt 1 view .LVU333
 1365              	.LBB459:
 130:../../libDaisy//src/dev/oled_ssd130x.h ****         spi_.BlockingTransmit(buff, size);
 1366              		.loc 4 130 9 view .LVU334
 130:../../libDaisy//src/dev/oled_ssd130x.h ****         spi_.BlockingTransmit(buff, size);
 1367              		.loc 4 130 23 is_stmt 0 view .LVU335
 1368 0104 0121     		movs	r1, #1
 1369 0106 2846     		mov	r0, r5
 1370 0108 FFF7FEFF 		bl	dsy_gpio_write
 1371              	.LVL110:
 131:../../libDaisy//src/dev/oled_ssd130x.h ****     };
 1372              		.loc 4 131 9 is_stmt 1 view .LVU336
 131:../../libDaisy//src/dev/oled_ssd130x.h ****     };
 1373              		.loc 4 131 30 is_stmt 0 view .LVU337
 1374 010c 4146     		mov	r1, r8
 1375 010e 6423     		movs	r3, #100
 1376 0110 8022     		movs	r2, #128
 1377 0112 3046     		mov	r0, r6
 1378              	.LBE459:
 1379              	.LBE458:
 1380              		.loc 4 383 22 view .LVU338
 1381 0114 08F18008 		add	r8, r8, #128
 1382              	.LVL111:
 1383              	.LBB461:
 1384              	.LBB460:
 131:../../libDaisy//src/dev/oled_ssd130x.h ****     };
 1385              		.loc 4 131 30 view .LVU339
 1386 0118 FFF7FEFF 		bl	_ZN5daisy9SpiHandle16BlockingTransmitEPhjm
 1387              	.LVL112:
 131:../../libDaisy//src/dev/oled_ssd130x.h ****     };
 1388              		.loc 4 131 30 view .LVU340
 1389              	.LBE460:
 1390              	.LBE461:
 1391              		.loc 4 383 9 is_stmt 1 view .LVU341
 1392              		.loc 4 383 22 view .LVU342
 1393 011c B82C     		cmp	r4, #184
 1394 011e C6D1     		bne	.L62
ARM GAS  /var/folders/1y/_321xjh9623c014x9_qw12rr0000gn/T//ccXuncwa.s 			page 52


 1395 0120 B1E7     		b	.L61
 1396              	.L71:
 1397 0122 00BF     		.align	2
 1398              	.L70:
 1399 0124 00000000 		.word	.LANCHOR0
 1400 0128 ABAAAAAA 		.word	-1431655765
 1401 012c AAAAAA2A 		.word	715827882
 1402              	.LBE444:
 1403              	.LBE443:
 1404              	.LBE442:
 1405              	.LBE462:
 1406              	.LBE463:
 1407              	.LBE468:
 1408              		.cfi_endproc
 1409              	.LFE2580:
 1411              		.section	.text._ZN5daisy5Dubby8DrawLogoEv,"ax",%progbits
 1412              		.align	1
 1413              		.p2align 2,,3
 1414              		.global	_ZN5daisy5Dubby8DrawLogoEv
 1415              		.syntax unified
 1416              		.thumb
 1417              		.thumb_func
 1419              	_ZN5daisy5Dubby8DrawLogoEv:
 1420              	.LVL113:
 1421              	.LFB2579:
 146:Dubby.cpp     ****     DrawBitmap(0);   
 1422              		.loc 2 146 1 view -0
 1423              		.cfi_startproc
 1424              		@ args = 0, pretend = 0, frame = 0
 1425              		@ frame_needed = 0, uses_anonymous_args = 0
 1426              		@ link register save eliminated.
 147:Dubby.cpp     **** }
 1427              		.loc 2 147 5 view .LVU344
 147:Dubby.cpp     **** }
 1428              		.loc 2 147 15 is_stmt 0 view .LVU345
 1429 0000 0021     		movs	r1, #0
 1430 0002 FFF7FEBF 		b	_ZN5daisy5Dubby10DrawBitmapEi
 1431              	.LVL114:
 147:Dubby.cpp     **** }
 1432              		.loc 2 147 15 view .LVU346
 1433              		.cfi_endproc
 1434              	.LFE2579:
 1436 0006 00BF     		.section	.text._ZN5daisy5Dubby9UpdateBarEi,"ax",%progbits
 1437              		.align	1
 1438              		.p2align 2,,3
 1439              		.global	_ZN5daisy5Dubby9UpdateBarEi
 1440              		.syntax unified
 1441              		.thumb
 1442              		.thumb_func
 1444              	_ZN5daisy5Dubby9UpdateBarEi:
 1445              	.LVL115:
 1446              	.LFB2586:
 253:Dubby.cpp     ****     display.DrawRect((i * 32)  + margin, 1, ((i + 1) * 31) - margin, 51, false, true);
 1447              		.loc 2 253 1 is_stmt 1 view -0
 1448              		.cfi_startproc
 1449              		@ args = 0, pretend = 0, frame = 40
 1450              		@ frame_needed = 0, uses_anonymous_args = 0
ARM GAS  /var/folders/1y/_321xjh9623c014x9_qw12rr0000gn/T//ccXuncwa.s 			page 53


 254:Dubby.cpp     ****     display.DrawRect((i * 32)  + margin, int(abs(1.0f - GetKnobValue(static_cast<Dubby::Ctrl>(i))) 
 1451              		.loc 2 254 5 view .LVU348
 254:Dubby.cpp     ****     display.DrawRect((i * 32)  + margin, int(abs(1.0f - GetKnobValue(static_cast<Dubby::Ctrl>(i))) 
 1452              		.loc 2 254 49 is_stmt 0 view .LVU349
 1453 0000 4B1C     		adds	r3, r1, #1
 254:Dubby.cpp     ****     display.DrawRect((i * 32)  + margin, int(abs(1.0f - GetKnobValue(static_cast<Dubby::Ctrl>(i))) 
 1454              		.loc 2 254 34 view .LVU350
 1455 0002 D0F82428 		ldr	r2, [r0, #2084]
 254:Dubby.cpp     ****     display.DrawRect((i * 32)  + margin, int(abs(1.0f - GetKnobValue(static_cast<Dubby::Ctrl>(i))) 
 1456              		.loc 2 254 54 view .LVU351
 1457 0006 C3EB4313 		rsb	r3, r3, r3, lsl #5
 253:Dubby.cpp     ****     display.DrawRect((i * 32)  + margin, 1, ((i + 1) * 31) - margin, 51, false, true);
 1458              		.loc 2 253 1 view .LVU352
 1459 000a 2DE9F04F 		push	{r4, r5, r6, r7, r8, r9, r10, fp, lr}
 1460              		.cfi_def_cfa_offset 36
 1461              		.cfi_offset 4, -36
 1462              		.cfi_offset 5, -32
 1463              		.cfi_offset 6, -28
 1464              		.cfi_offset 7, -24
 1465              		.cfi_offset 8, -20
 1466              		.cfi_offset 9, -16
 1467              		.cfi_offset 10, -12
 1468              		.cfi_offset 11, -8
 1469              		.cfi_offset 14, -4
 254:Dubby.cpp     ****     display.DrawRect((i * 32)  + margin, int(abs(1.0f - GetKnobValue(static_cast<Dubby::Ctrl>(i))) 
 1470              		.loc 2 254 32 view .LVU353
 1471 000e 02EB4115 		add	r5, r2, r1, lsl #5
 254:Dubby.cpp     ****     display.DrawRect((i * 32)  + margin, int(abs(1.0f - GetKnobValue(static_cast<Dubby::Ctrl>(i))) 
 1472              		.loc 2 254 60 view .LVU354
 1473 0012 9A1A     		subs	r2, r3, r2
 253:Dubby.cpp     ****     display.DrawRect((i * 32)  + margin, 1, ((i + 1) * 31) - margin, 51, false, true);
 1474              		.loc 2 253 1 view .LVU355
 1475 0014 8BB0     		sub	sp, sp, #44
 1476              		.cfi_def_cfa_offset 80
 254:Dubby.cpp     ****     display.DrawRect((i * 32)  + margin, int(abs(1.0f - GetKnobValue(static_cast<Dubby::Ctrl>(i))) 
 1477              		.loc 2 254 25 view .LVU356
 1478 0016 4C01     		lsls	r4, r1, #5
 1479              	.LBB583:
 1480              	.LBB584:
 1481              	.LBB585:
 266:../../libDaisy//src/hid/disp/display.h ****             {
 1482              		.loc 3 266 40 view .LVU357
 1483 0018 9542     		cmp	r5, r2
 1484              	.LBE585:
 1485              	.LBE584:
 1486              	.LBE583:
 254:Dubby.cpp     ****     display.DrawRect((i * 32)  + margin, int(abs(1.0f - GetKnobValue(static_cast<Dubby::Ctrl>(i))) 
 1487              		.loc 2 254 21 view .LVU358
 1488 001a 9446     		mov	ip, r2
 253:Dubby.cpp     ****     display.DrawRect((i * 32)  + margin, 1, ((i + 1) * 31) - margin, 51, false, true);
 1489              		.loc 2 253 1 view .LVU359
 1490 001c 0291     		str	r1, [sp, #8]
 254:Dubby.cpp     ****     display.DrawRect((i * 32)  + margin, int(abs(1.0f - GetKnobValue(static_cast<Dubby::Ctrl>(i))) 
 1491              		.loc 2 254 25 view .LVU360
 1492 001e 0594     		str	r4, [sp, #20]
 254:Dubby.cpp     ****     display.DrawRect((i * 32)  + margin, int(abs(1.0f - GetKnobValue(static_cast<Dubby::Ctrl>(i))) 
 1493              		.loc 2 254 54 view .LVU361
ARM GAS  /var/folders/1y/_321xjh9623c014x9_qw12rr0000gn/T//ccXuncwa.s 			page 54


 1494 0020 0693     		str	r3, [sp, #24]
 1495              	.LVL116:
 1496              	.LBB602:
 1497              	.LBI583:
 257:../../libDaisy//src/hid/disp/display.h ****                   uint_fast8_t y1,
 1498              		.loc 3 257 10 is_stmt 1 view .LVU362
 1499              	.LBB601:
 1500              	.LBI584:
 257:../../libDaisy//src/hid/disp/display.h ****                   uint_fast8_t y1,
 1501              		.loc 3 257 10 view .LVU363
 1502              	.LBB600:
 266:../../libDaisy//src/hid/disp/display.h ****             {
 1503              		.loc 3 266 40 view .LVU364
 1504 0022 18D8     		bhi	.L79
 1505 0024 2E46     		mov	r6, r5
 1506              	.LVL117:
 1507              	.L74:
 1508              	.LBB586:
 1509              		.loc 3 268 34 is_stmt 0 view .LVU365
 1510 0026 0121     		movs	r1, #1
 1511              	.L78:
 1512              	.LVL118:
 1513              	.LBB587:
 1514              	.LBI587:
 1515              		.loc 1 42 10 is_stmt 1 view .LVU366
 1516              	.LBB588:
 1517              	.LBI588:
 352:../../libDaisy//src/dev/oled_ssd130x.h ****     {
 1518              		.loc 4 352 10 view .LVU367
 1519              	.LBB589:
 1520              	.LBB590:
 1521              	.LBI590:
 352:../../libDaisy//src/dev/oled_ssd130x.h ****     {
 1522              		.loc 4 352 10 view .LVU368
 352:../../libDaisy//src/dev/oled_ssd130x.h ****     {
 1523              		.loc 4 352 10 is_stmt 0 view .LVU369
 1524              	.LBE590:
 1525              	.LBE589:
 1526              	.LBE588:
 1527              	.LBE587:
 1528              		.loc 3 268 17 is_stmt 1 view .LVU370
 1529              		.loc 3 268 44 view .LVU371
 1530              	.LBB599:
 1531              	.LBB598:
 1532              	.LBB597:
 1533              	.LBB594:
 1534              	.LBB591:
 359:../../libDaisy//src/dev/oled_ssd130x.h ****     }
 1535              		.loc 4 359 28 is_stmt 0 view .LVU372
 1536 0028 CB08     		lsrs	r3, r1, #3
 359:../../libDaisy//src/dev/oled_ssd130x.h ****     }
 1537              		.loc 4 359 55 view .LVU373
 1538 002a 01F00707 		and	r7, r1, #7
 359:../../libDaisy//src/dev/oled_ssd130x.h ****     }
 1539              		.loc 4 359 49 view .LVU374
 1540 002e 0124     		movs	r4, #1
 1541              	.LBE591:
ARM GAS  /var/folders/1y/_321xjh9623c014x9_qw12rr0000gn/T//ccXuncwa.s 			page 55


 1542              	.LBE594:
 354:../../libDaisy//src/dev/oled_ssd130x.h ****             return;
 1543              		.loc 4 354 9 view .LVU375
 1544 0030 7F2E     		cmp	r6, #127
 1545              	.LBB595:
 1546              	.LBB592:
 359:../../libDaisy//src/dev/oled_ssd130x.h ****     }
 1547              		.loc 4 359 42 view .LVU376
 1548 0032 06EBC313 		add	r3, r6, r3, lsl #7
 1549 0036 2144     		add	r1, r1, r4
 1550              	.LVL119:
 359:../../libDaisy//src/dev/oled_ssd130x.h ****     }
 1551              		.loc 4 359 49 view .LVU377
 1552 0038 04FA07F4 		lsl	r4, r4, r7
 359:../../libDaisy//src/dev/oled_ssd130x.h ****     }
 1553              		.loc 4 359 42 view .LVU378
 1554 003c 0344     		add	r3, r3, r0
 1555              	.LBE592:
 1556              	.LBE595:
 354:../../libDaisy//src/dev/oled_ssd130x.h ****             return;
 1557              		.loc 4 354 9 view .LVU379
 1558 003e 05D8     		bhi	.L77
 1559              	.LBB596:
 1560              	.LBB593:
 359:../../libDaisy//src/dev/oled_ssd130x.h ****     }
 1561              		.loc 4 359 42 view .LVU380
 1562 0040 93F82474 		ldrb	r7, [r3, #1060]	@ zero_extendqisi2
 1563 0044 27EA0404 		bic	r4, r7, r4
 1564 0048 83F82444 		strb	r4, [r3, #1060]
 1565              	.L77:
 1566              	.LBE593:
 1567              	.LBE596:
 1568              	.LBE597:
 1569              	.LBE598:
 1570              	.LBE599:
 1571              		.loc 3 268 44 view .LVU381
 1572 004c 3429     		cmp	r1, #52
 1573 004e EBD1     		bne	.L78
 1574              	.LBE586:
 266:../../libDaisy//src/hid/disp/display.h ****             {
 1575              		.loc 3 266 13 is_stmt 1 view .LVU382
 1576 0050 0136     		adds	r6, r6, #1
 1577              	.LVL120:
 266:../../libDaisy//src/hid/disp/display.h ****             {
 1578              		.loc 3 266 40 view .LVU383
 1579 0052 B242     		cmp	r2, r6
 1580 0054 E7D2     		bcs	.L74
 1581              	.LVL121:
 1582              	.L79:
 266:../../libDaisy//src/hid/disp/display.h ****             {
 1583              		.loc 3 266 40 is_stmt 0 view .LVU384
 1584              	.LBE600:
 1585              	.LBE601:
 1586              	.LBE602:
 255:Dubby.cpp     ****     display.DrawRect((i * 32)  + margin, int(abs((currentLevels[i] * 5.0f) - 1.0f) * 51.0f) + 1, ((
 1587              		.loc 2 255 5 is_stmt 1 view .LVU385
 1588              	.LBB603:
ARM GAS  /var/folders/1y/_321xjh9623c014x9_qw12rr0000gn/T//ccXuncwa.s 			page 56


 1589              	.LBI603:
 287:Dubby.cpp     **** 
 288:Dubby.cpp     **** void Dubby::DisplayPreferencesMenu()
 289:Dubby.cpp     **** {
 290:Dubby.cpp     ****     display.DrawRect(PANE_X_START, PANE_Y_START, PANE_X_END, PANE_Y_END, false, true);
 291:Dubby.cpp     **** 
 292:Dubby.cpp     ****     for (int i = 0; i < PREFERENCESMENU_LAST; i++)
 293:Dubby.cpp     ****     {
 294:Dubby.cpp     ****         display.SetCursor(5, 3 + (i * 10));
 295:Dubby.cpp     ****         display.WriteString(GetTextForEnum(PREFERENCESMENU, i), Font_6x8, true);
 296:Dubby.cpp     **** 
 297:Dubby.cpp     ****         if (preferencesMenuItemSelected == i)
 298:Dubby.cpp     ****             display.DrawRect(submenuBoxBounding[i][0], submenuBoxBounding[i][1], submenuBoxBounding
 299:Dubby.cpp     ****     }
 300:Dubby.cpp     **** 
 301:Dubby.cpp     ****     display.Update();
 302:Dubby.cpp     **** }
 303:Dubby.cpp     **** 
 304:Dubby.cpp     **** void Dubby::UpdatePreferencesMenu(int increment) 
 305:Dubby.cpp     **** {
 306:Dubby.cpp     ****     if (((preferencesMenuItemSelected >= 0 && increment == 1 && preferencesMenuItemSelected < PREFE
 307:Dubby.cpp     ****     {
 308:Dubby.cpp     ****         preferencesMenuItemSelected = (PreferenesMenuItems)(preferencesMenuItemSelected + increment
 309:Dubby.cpp     ****         
 310:Dubby.cpp     ****         DisplayPreferencesMenu();
 311:Dubby.cpp     ****     }
 312:Dubby.cpp     **** }
 313:Dubby.cpp     **** 
 314:Dubby.cpp     **** void Dubby::ResetToBootloader() 
 315:Dubby.cpp     **** {
 316:Dubby.cpp     ****     DrawBitmap(1);
 317:Dubby.cpp     **** 
 318:Dubby.cpp     ****     display.SetCursor(20, 55);
 319:Dubby.cpp     ****     display.WriteString("FIRMWARE UPDATE", Font_6x8, true);
 320:Dubby.cpp     **** 
 321:Dubby.cpp     ****     display.Update();
 322:Dubby.cpp     **** 
 323:Dubby.cpp     ****     System::ResetToBootloader();
 324:Dubby.cpp     **** }
 325:Dubby.cpp     **** 
 326:Dubby.cpp     **** void Dubby::InitEncoder()
 327:Dubby.cpp     **** {
 328:Dubby.cpp     ****     encoder.Init(seed.GetPin(PIN_ENC_A),
 329:Dubby.cpp     ****                 seed.GetPin(PIN_ENC_B),
 330:Dubby.cpp     ****                 seed.GetPin(PIN_ENC_CLICK));
 331:Dubby.cpp     **** }
 332:Dubby.cpp     **** 
 333:Dubby.cpp     **** void Dubby::ProcessAllControls()
 334:Dubby.cpp     **** {
 335:Dubby.cpp     ****     ProcessAnalogControls();
 336:Dubby.cpp     ****     ProcessDigitalControls();
 337:Dubby.cpp     **** }
 338:Dubby.cpp     **** 
 339:Dubby.cpp     **** void Dubby::ProcessAnalogControls()
 340:Dubby.cpp     **** {
 341:Dubby.cpp     ****     for(size_t i = 0; i < CTRL_LAST; i++)
 342:Dubby.cpp     ****         analogInputs[i].Process();
ARM GAS  /var/folders/1y/_321xjh9623c014x9_qw12rr0000gn/T//ccXuncwa.s 			page 57


 343:Dubby.cpp     **** }
 344:Dubby.cpp     **** 
 345:Dubby.cpp     **** void Dubby::ProcessDigitalControls()
 346:Dubby.cpp     **** {
 347:Dubby.cpp     ****     encoder.Debounce();
 348:Dubby.cpp     **** }
 349:Dubby.cpp     **** 
 350:Dubby.cpp     **** float Dubby::GetKnobValue(Ctrl k)
 1590              		.loc 2 350 7 view .LVU386
 1591              	.LBE603:
 351:Dubby.cpp     **** {
 352:Dubby.cpp     ****     return (analogInputs[k].Value());
 1592              		.loc 2 352 5 view .LVU387
 1593              	.LBB610:
 1594              	.LBB604:
 1595              	.LBI604:
 1596              		.file 6 "../../libDaisy//src/hid/ctrl.h"
   1:../../libDaisy//src/hid/ctrl.h **** #pragma once
   2:../../libDaisy//src/hid/ctrl.h **** #ifndef DSY_KNOB_H
   3:../../libDaisy//src/hid/ctrl.h **** #define DSY_KNOB_H /**< & */
   4:../../libDaisy//src/hid/ctrl.h **** #include <stdint.h>
   5:../../libDaisy//src/hid/ctrl.h **** 
   6:../../libDaisy//src/hid/ctrl.h **** #ifdef __cplusplus
   7:../../libDaisy//src/hid/ctrl.h **** namespace daisy
   8:../../libDaisy//src/hid/ctrl.h **** {
   9:../../libDaisy//src/hid/ctrl.h **** /**
  10:../../libDaisy//src/hid/ctrl.h ****     @brief Hardware Interface for control inputs \n 
  11:../../libDaisy//src/hid/ctrl.h ****     Primarily designed for ADC input controls such as \n 
  12:../../libDaisy//src/hid/ctrl.h ****     potentiometers, and control voltage. \n 
  13:../../libDaisy//src/hid/ctrl.h ****     @author Stephen Hensley
  14:../../libDaisy//src/hid/ctrl.h ****     @date November 2019
  15:../../libDaisy//src/hid/ctrl.h ****     @ingroup controls
  16:../../libDaisy//src/hid/ctrl.h **** */
  17:../../libDaisy//src/hid/ctrl.h **** class AnalogControl
  18:../../libDaisy//src/hid/ctrl.h **** {
  19:../../libDaisy//src/hid/ctrl.h ****   public:
  20:../../libDaisy//src/hid/ctrl.h ****     /** Constructor */
  21:../../libDaisy//src/hid/ctrl.h ****     AnalogControl() {}
  22:../../libDaisy//src/hid/ctrl.h ****     /** destructor */
  23:../../libDaisy//src/hid/ctrl.h ****     ~AnalogControl() {}
  24:../../libDaisy//src/hid/ctrl.h **** 
  25:../../libDaisy//src/hid/ctrl.h ****     /** 
  26:../../libDaisy//src/hid/ctrl.h ****     Initializes the control
  27:../../libDaisy//src/hid/ctrl.h ****     \param *adcptr is a pointer to the raw adc read value -- This can be acquired with dsy_adc_get_
  28:../../libDaisy//src/hid/ctrl.h ****     \param sr is the samplerate in Hz that the Process function will be called at.
  29:../../libDaisy//src/hid/ctrl.h ****     \param flip determines whether the input is flipped (i.e. 1.f - input) or not before being proc
  30:../../libDaisy//src/hid/ctrl.h ****     \param invert determines whether the input is inverted (i.e. -1.f * input) or note before being
  31:../../libDaisy//src/hid/ctrl.h ****     \param slew_seconds is the slew time in seconds that it takes for the control to change to a ne
  32:../../libDaisy//src/hid/ctrl.h ****     */
  33:../../libDaisy//src/hid/ctrl.h ****     void Init(uint16_t *adcptr,
  34:../../libDaisy//src/hid/ctrl.h ****               float     sr,
  35:../../libDaisy//src/hid/ctrl.h ****               bool      flip         = false,
  36:../../libDaisy//src/hid/ctrl.h ****               bool      invert       = false,
  37:../../libDaisy//src/hid/ctrl.h ****               float     slew_seconds = 0.002f);
  38:../../libDaisy//src/hid/ctrl.h **** 
  39:../../libDaisy//src/hid/ctrl.h ****     /** 
  40:../../libDaisy//src/hid/ctrl.h ****     This Initializes the AnalogControl for a -5V to 5V inverted input
ARM GAS  /var/folders/1y/_321xjh9623c014x9_qw12rr0000gn/T//ccXuncwa.s 			page 58


  41:../../libDaisy//src/hid/ctrl.h ****     All of the Init details are the same otherwise
  42:../../libDaisy//src/hid/ctrl.h ****     \param *adcptr Pointer to analog digital converter
  43:../../libDaisy//src/hid/ctrl.h ****     \param sr Audio engine sample rate
  44:../../libDaisy//src/hid/ctrl.h ****     */
  45:../../libDaisy//src/hid/ctrl.h ****     void InitBipolarCv(uint16_t *adcptr, float sr);
  46:../../libDaisy//src/hid/ctrl.h **** 
  47:../../libDaisy//src/hid/ctrl.h ****     /** 
  48:../../libDaisy//src/hid/ctrl.h ****     Filters, and transforms a raw ADC read into a normalized range.
  49:../../libDaisy//src/hid/ctrl.h ****     this should be called at the rate of specified by samplerate at Init time.   
  50:../../libDaisy//src/hid/ctrl.h ****     Default Initializations will return 0.0 -> 1.0
  51:../../libDaisy//src/hid/ctrl.h ****     Bi-polar CV inputs will return -1.0 -> 1.0
  52:../../libDaisy//src/hid/ctrl.h ****     */
  53:../../libDaisy//src/hid/ctrl.h ****     float Process();
  54:../../libDaisy//src/hid/ctrl.h **** 
  55:../../libDaisy//src/hid/ctrl.h ****     /** Returns the current stored value, without reprocessing */
  56:../../libDaisy//src/hid/ctrl.h ****     inline float Value() const { return val_; }
 1597              		.loc 6 56 18 view .LVU388
 1598              	.LBB605:
 1599              		.loc 6 56 34 view .LVU389
 1600              		.loc 6 56 34 is_stmt 0 view .LVU390
 1601              	.LBE605:
 1602              	.LBE604:
 1603              	.LBE610:
 1604              	.LBB611:
 1605              	.LBI611:
 1606              		.file 7 "/Library/DaisyToolchain/0.2.0/arm/arm-none-eabi/include/c++/10.3.1/bits/std_abs.h"
   1:/Library/DaisyToolchain/0.2.0/arm/arm-none-eabi/include/c++/10.3.1/bits/std_abs.h **** // -*- C++ -*- C library enhancements header.
   2:/Library/DaisyToolchain/0.2.0/arm/arm-none-eabi/include/c++/10.3.1/bits/std_abs.h **** 
   3:/Library/DaisyToolchain/0.2.0/arm/arm-none-eabi/include/c++/10.3.1/bits/std_abs.h **** // Copyright (C) 2016-2020 Free Software Foundation, Inc.
   4:/Library/DaisyToolchain/0.2.0/arm/arm-none-eabi/include/c++/10.3.1/bits/std_abs.h **** //
   5:/Library/DaisyToolchain/0.2.0/arm/arm-none-eabi/include/c++/10.3.1/bits/std_abs.h **** // This file is part of the GNU ISO C++ Library.  This library is free
   6:/Library/DaisyToolchain/0.2.0/arm/arm-none-eabi/include/c++/10.3.1/bits/std_abs.h **** // software; you can redistribute it and/or modify it under the
   7:/Library/DaisyToolchain/0.2.0/arm/arm-none-eabi/include/c++/10.3.1/bits/std_abs.h **** // terms of the GNU General Public License as published by the
   8:/Library/DaisyToolchain/0.2.0/arm/arm-none-eabi/include/c++/10.3.1/bits/std_abs.h **** // Free Software Foundation; either version 3, or (at your option)
   9:/Library/DaisyToolchain/0.2.0/arm/arm-none-eabi/include/c++/10.3.1/bits/std_abs.h **** // any later version.
  10:/Library/DaisyToolchain/0.2.0/arm/arm-none-eabi/include/c++/10.3.1/bits/std_abs.h **** 
  11:/Library/DaisyToolchain/0.2.0/arm/arm-none-eabi/include/c++/10.3.1/bits/std_abs.h **** // This library is distributed in the hope that it will be useful,
  12:/Library/DaisyToolchain/0.2.0/arm/arm-none-eabi/include/c++/10.3.1/bits/std_abs.h **** // but WITHOUT ANY WARRANTY; without even the implied warranty of
  13:/Library/DaisyToolchain/0.2.0/arm/arm-none-eabi/include/c++/10.3.1/bits/std_abs.h **** // MERCHANTABILITY or FITNESS FOR A PARTICULAR PURPOSE.  See the
  14:/Library/DaisyToolchain/0.2.0/arm/arm-none-eabi/include/c++/10.3.1/bits/std_abs.h **** // GNU General Public License for more details.
  15:/Library/DaisyToolchain/0.2.0/arm/arm-none-eabi/include/c++/10.3.1/bits/std_abs.h **** 
  16:/Library/DaisyToolchain/0.2.0/arm/arm-none-eabi/include/c++/10.3.1/bits/std_abs.h **** // Under Section 7 of GPL version 3, you are granted additional
  17:/Library/DaisyToolchain/0.2.0/arm/arm-none-eabi/include/c++/10.3.1/bits/std_abs.h **** // permissions described in the GCC Runtime Library Exception, version
  18:/Library/DaisyToolchain/0.2.0/arm/arm-none-eabi/include/c++/10.3.1/bits/std_abs.h **** // 3.1, as published by the Free Software Foundation.
  19:/Library/DaisyToolchain/0.2.0/arm/arm-none-eabi/include/c++/10.3.1/bits/std_abs.h **** 
  20:/Library/DaisyToolchain/0.2.0/arm/arm-none-eabi/include/c++/10.3.1/bits/std_abs.h **** // You should have received a copy of the GNU General Public License and
  21:/Library/DaisyToolchain/0.2.0/arm/arm-none-eabi/include/c++/10.3.1/bits/std_abs.h **** // a copy of the GCC Runtime Library Exception along with this program;
  22:/Library/DaisyToolchain/0.2.0/arm/arm-none-eabi/include/c++/10.3.1/bits/std_abs.h **** // see the files COPYING3 and COPYING.RUNTIME respectively.  If not, see
  23:/Library/DaisyToolchain/0.2.0/arm/arm-none-eabi/include/c++/10.3.1/bits/std_abs.h **** // <http://www.gnu.org/licenses/>.
  24:/Library/DaisyToolchain/0.2.0/arm/arm-none-eabi/include/c++/10.3.1/bits/std_abs.h **** 
  25:/Library/DaisyToolchain/0.2.0/arm/arm-none-eabi/include/c++/10.3.1/bits/std_abs.h **** /** @file include/bits/std_abs.h
  26:/Library/DaisyToolchain/0.2.0/arm/arm-none-eabi/include/c++/10.3.1/bits/std_abs.h ****  *  This is an internal header file, included by other library headers.
  27:/Library/DaisyToolchain/0.2.0/arm/arm-none-eabi/include/c++/10.3.1/bits/std_abs.h ****  *  Do not attempt to use it directly. @headername{cmath, cstdlib}
  28:/Library/DaisyToolchain/0.2.0/arm/arm-none-eabi/include/c++/10.3.1/bits/std_abs.h ****  */
  29:/Library/DaisyToolchain/0.2.0/arm/arm-none-eabi/include/c++/10.3.1/bits/std_abs.h **** 
  30:/Library/DaisyToolchain/0.2.0/arm/arm-none-eabi/include/c++/10.3.1/bits/std_abs.h **** #ifndef _GLIBCXX_BITS_STD_ABS_H
  31:/Library/DaisyToolchain/0.2.0/arm/arm-none-eabi/include/c++/10.3.1/bits/std_abs.h **** #define _GLIBCXX_BITS_STD_ABS_H
ARM GAS  /var/folders/1y/_321xjh9623c014x9_qw12rr0000gn/T//ccXuncwa.s 			page 59


  32:/Library/DaisyToolchain/0.2.0/arm/arm-none-eabi/include/c++/10.3.1/bits/std_abs.h **** 
  33:/Library/DaisyToolchain/0.2.0/arm/arm-none-eabi/include/c++/10.3.1/bits/std_abs.h **** #pragma GCC system_header
  34:/Library/DaisyToolchain/0.2.0/arm/arm-none-eabi/include/c++/10.3.1/bits/std_abs.h **** 
  35:/Library/DaisyToolchain/0.2.0/arm/arm-none-eabi/include/c++/10.3.1/bits/std_abs.h **** #include <bits/c++config.h>
  36:/Library/DaisyToolchain/0.2.0/arm/arm-none-eabi/include/c++/10.3.1/bits/std_abs.h **** 
  37:/Library/DaisyToolchain/0.2.0/arm/arm-none-eabi/include/c++/10.3.1/bits/std_abs.h **** #define _GLIBCXX_INCLUDE_NEXT_C_HEADERS
  38:/Library/DaisyToolchain/0.2.0/arm/arm-none-eabi/include/c++/10.3.1/bits/std_abs.h **** #include_next <stdlib.h>
  39:/Library/DaisyToolchain/0.2.0/arm/arm-none-eabi/include/c++/10.3.1/bits/std_abs.h **** #ifdef __CORRECT_ISO_CPP_MATH_H_PROTO
  40:/Library/DaisyToolchain/0.2.0/arm/arm-none-eabi/include/c++/10.3.1/bits/std_abs.h **** # include_next <math.h>
  41:/Library/DaisyToolchain/0.2.0/arm/arm-none-eabi/include/c++/10.3.1/bits/std_abs.h **** #endif
  42:/Library/DaisyToolchain/0.2.0/arm/arm-none-eabi/include/c++/10.3.1/bits/std_abs.h **** #undef _GLIBCXX_INCLUDE_NEXT_C_HEADERS
  43:/Library/DaisyToolchain/0.2.0/arm/arm-none-eabi/include/c++/10.3.1/bits/std_abs.h **** 
  44:/Library/DaisyToolchain/0.2.0/arm/arm-none-eabi/include/c++/10.3.1/bits/std_abs.h **** #undef abs
  45:/Library/DaisyToolchain/0.2.0/arm/arm-none-eabi/include/c++/10.3.1/bits/std_abs.h **** 
  46:/Library/DaisyToolchain/0.2.0/arm/arm-none-eabi/include/c++/10.3.1/bits/std_abs.h **** extern "C++"
  47:/Library/DaisyToolchain/0.2.0/arm/arm-none-eabi/include/c++/10.3.1/bits/std_abs.h **** {
  48:/Library/DaisyToolchain/0.2.0/arm/arm-none-eabi/include/c++/10.3.1/bits/std_abs.h **** namespace std _GLIBCXX_VISIBILITY(default)
  49:/Library/DaisyToolchain/0.2.0/arm/arm-none-eabi/include/c++/10.3.1/bits/std_abs.h **** {
  50:/Library/DaisyToolchain/0.2.0/arm/arm-none-eabi/include/c++/10.3.1/bits/std_abs.h **** _GLIBCXX_BEGIN_NAMESPACE_VERSION
  51:/Library/DaisyToolchain/0.2.0/arm/arm-none-eabi/include/c++/10.3.1/bits/std_abs.h **** 
  52:/Library/DaisyToolchain/0.2.0/arm/arm-none-eabi/include/c++/10.3.1/bits/std_abs.h ****   using ::abs;
  53:/Library/DaisyToolchain/0.2.0/arm/arm-none-eabi/include/c++/10.3.1/bits/std_abs.h **** 
  54:/Library/DaisyToolchain/0.2.0/arm/arm-none-eabi/include/c++/10.3.1/bits/std_abs.h **** #ifndef __CORRECT_ISO_CPP_STDLIB_H_PROTO
  55:/Library/DaisyToolchain/0.2.0/arm/arm-none-eabi/include/c++/10.3.1/bits/std_abs.h ****   inline long
  56:/Library/DaisyToolchain/0.2.0/arm/arm-none-eabi/include/c++/10.3.1/bits/std_abs.h ****   abs(long __i) { return __builtin_labs(__i); }
  57:/Library/DaisyToolchain/0.2.0/arm/arm-none-eabi/include/c++/10.3.1/bits/std_abs.h **** #endif
  58:/Library/DaisyToolchain/0.2.0/arm/arm-none-eabi/include/c++/10.3.1/bits/std_abs.h **** 
  59:/Library/DaisyToolchain/0.2.0/arm/arm-none-eabi/include/c++/10.3.1/bits/std_abs.h **** #ifdef _GLIBCXX_USE_LONG_LONG
  60:/Library/DaisyToolchain/0.2.0/arm/arm-none-eabi/include/c++/10.3.1/bits/std_abs.h ****   inline long long
  61:/Library/DaisyToolchain/0.2.0/arm/arm-none-eabi/include/c++/10.3.1/bits/std_abs.h ****   abs(long long __x) { return __builtin_llabs (__x); }
  62:/Library/DaisyToolchain/0.2.0/arm/arm-none-eabi/include/c++/10.3.1/bits/std_abs.h **** #endif
  63:/Library/DaisyToolchain/0.2.0/arm/arm-none-eabi/include/c++/10.3.1/bits/std_abs.h **** 
  64:/Library/DaisyToolchain/0.2.0/arm/arm-none-eabi/include/c++/10.3.1/bits/std_abs.h **** // _GLIBCXX_RESOLVE_LIB_DEFECTS
  65:/Library/DaisyToolchain/0.2.0/arm/arm-none-eabi/include/c++/10.3.1/bits/std_abs.h **** // 2192. Validity and return type of std::abs(0u) is unclear
  66:/Library/DaisyToolchain/0.2.0/arm/arm-none-eabi/include/c++/10.3.1/bits/std_abs.h **** // 2294. <cstdlib> should declare abs(double)
  67:/Library/DaisyToolchain/0.2.0/arm/arm-none-eabi/include/c++/10.3.1/bits/std_abs.h **** // 2735. std::abs(short), std::abs(signed char) and others should return int
  68:/Library/DaisyToolchain/0.2.0/arm/arm-none-eabi/include/c++/10.3.1/bits/std_abs.h **** 
  69:/Library/DaisyToolchain/0.2.0/arm/arm-none-eabi/include/c++/10.3.1/bits/std_abs.h **** #ifndef __CORRECT_ISO_CPP_MATH_H_PROTO
  70:/Library/DaisyToolchain/0.2.0/arm/arm-none-eabi/include/c++/10.3.1/bits/std_abs.h ****   inline _GLIBCXX_CONSTEXPR double
  71:/Library/DaisyToolchain/0.2.0/arm/arm-none-eabi/include/c++/10.3.1/bits/std_abs.h ****   abs(double __x)
  72:/Library/DaisyToolchain/0.2.0/arm/arm-none-eabi/include/c++/10.3.1/bits/std_abs.h ****   { return __builtin_fabs(__x); }
  73:/Library/DaisyToolchain/0.2.0/arm/arm-none-eabi/include/c++/10.3.1/bits/std_abs.h **** 
  74:/Library/DaisyToolchain/0.2.0/arm/arm-none-eabi/include/c++/10.3.1/bits/std_abs.h ****   inline _GLIBCXX_CONSTEXPR float
  75:/Library/DaisyToolchain/0.2.0/arm/arm-none-eabi/include/c++/10.3.1/bits/std_abs.h ****   abs(float __x)
 1607              		.loc 7 75 3 is_stmt 1 view .LVU391
 1608              	.LBB612:
  76:/Library/DaisyToolchain/0.2.0/arm/arm-none-eabi/include/c++/10.3.1/bits/std_abs.h ****   { return __builtin_fabsf(__x); }
 1609              		.loc 7 76 5 view .LVU392
 1610              		.loc 7 76 5 is_stmt 0 view .LVU393
 1611              	.LBE612:
 1612              	.LBE611:
 1613              	.LBB614:
 1614              	.LBB608:
 1615              	.LBB606:
 1616              		.loc 6 56 41 view .LVU394
 1617 0056 9DF80830 		ldrb	r3, [sp, #8]	@ zero_extendqisi2
 1618              	.LBE606:
ARM GAS  /var/folders/1y/_321xjh9623c014x9_qw12rr0000gn/T//ccXuncwa.s 			page 60


 1619              	.LBE608:
 1620              	.LBE614:
 255:Dubby.cpp     ****     display.DrawRect((i * 32)  + margin, int(abs((currentLevels[i] * 5.0f) - 1.0f) * 51.0f) + 1, ((
 1621              		.loc 2 255 49 view .LVU395
 1622 005a F7EE007A 		vmov.f32	s15, #1.0e+0
 255:Dubby.cpp     ****     display.DrawRect((i * 32)  + margin, int(abs((currentLevels[i] * 5.0f) - 1.0f) * 51.0f) + 1, ((
 1623              		.loc 2 255 100 view .LVU396
 1624 005e 9FEDC97A 		vldr.32	s14, .L177
 1625              	.LBB615:
 1626              	.LBB616:
 1627              	.LBB617:
 227:../../libDaisy//src/hid/disp/display.h ****         int_fast16_t deltaY = abs((int_fast16_t)y2 - (int_fast16_t)y1);
 1628              		.loc 3 227 52 view .LVU397
 1629 0062 A2EB050A 		sub	r10, r2, r5
 1630              	.LBE617:
 1631              	.LBE616:
 1632              	.LBE615:
 1633              	.LBB694:
 1634              	.LBB609:
 1635              	.LBB607:
 1636              		.loc 6 56 41 view .LVU398
 1637 0066 00EB4313 		add	r3, r0, r3, lsl #5
 1638              	.LBE607:
 1639              	.LBE609:
 1640              	.LBE694:
 1641              	.LBB695:
 1642              	.LBB644:
 1643              	.LBB639:
 227:../../libDaisy//src/hid/disp/display.h ****         int_fast16_t deltaY = abs((int_fast16_t)y2 - (int_fast16_t)y1);
 1644              		.loc 3 227 22 view .LVU399
 1645 006a BAF1000F 		cmp	r10, #0
 1646              	.LBE639:
 1647              	.LBE644:
 1648              	.LBE695:
 255:Dubby.cpp     ****     display.DrawRect((i * 32)  + margin, int(abs((currentLevels[i] * 5.0f) - 1.0f) * 51.0f) + 1, ((
 1649              		.loc 2 255 49 view .LVU400
 1650 006e D3ED4A6A 		vldr.32	s13, [r3, #296]
 1651              	.LBB696:
 1652              	.LBB645:
 1653              	.LBB640:
 227:../../libDaisy//src/hid/disp/display.h ****         int_fast16_t deltaY = abs((int_fast16_t)y2 - (int_fast16_t)y1);
 1654              		.loc 3 227 22 view .LVU401
 1655 0072 B8BF     		it	lt
 1656 0074 CAF1000A 		rsblt	r10, r10, #0
 229:../../libDaisy//src/hid/disp/display.h ****         int_fast16_t signY  = ((y1 < y2) ? 1 : -1);
 1657              		.loc 3 229 42 view .LVU402
 1658 0078 9542     		cmp	r5, r2
 1659              	.LBE640:
 1660              	.LBE645:
 1661              	.LBE696:
 255:Dubby.cpp     ****     display.DrawRect((i * 32)  + margin, int(abs((currentLevels[i] * 5.0f) - 1.0f) * 51.0f) + 1, ((
 1662              		.loc 2 255 49 view .LVU403
 1663 007a 77EEE67A 		vsub.f32	s15, s15, s13
 1664              	.LBB697:
 1665              	.LBB613:
 1666              		.loc 7 76 31 view .LVU404
 1667 007e F0EEE77A 		vabs.f32	s15, s15
ARM GAS  /var/folders/1y/_321xjh9623c014x9_qw12rr0000gn/T//ccXuncwa.s 			page 61


 1668              	.LBE613:
 1669              	.LBE697:
 255:Dubby.cpp     ****     display.DrawRect((i * 32)  + margin, int(abs((currentLevels[i] * 5.0f) - 1.0f) * 51.0f) + 1, ((
 1670              		.loc 2 255 100 view .LVU405
 1671 0082 67EE877A 		vmul.f32	s15, s15, s14
 255:Dubby.cpp     ****     display.DrawRect((i * 32)  + margin, int(abs((currentLevels[i] * 5.0f) - 1.0f) * 51.0f) + 1, ((
 1672              		.loc 2 255 42 view .LVU406
 1673 0086 FDEEE77A 		vcvt.s32.f32	s15, s15
 255:Dubby.cpp     ****     display.DrawRect((i * 32)  + margin, int(abs((currentLevels[i] * 5.0f) - 1.0f) * 51.0f) + 1, ((
 1674              		.loc 2 255 109 view .LVU407
 1675 008a 17EE903A 		vmov	r3, s15	@ int
 1676 008e 03F10107 		add	r7, r3, #1
 1677              	.LVL122:
 1678              	.LBB698:
 1679              	.LBI615:
 257:../../libDaisy//src/hid/disp/display.h ****                   uint_fast8_t y1,
 1680              		.loc 3 257 10 is_stmt 1 view .LVU408
 1681              	.LBB646:
 1682              	.LBI616:
 221:../../libDaisy//src/hid/disp/display.h ****                   uint_fast8_t y1,
 1683              		.loc 3 221 10 view .LVU409
 1684              	.LBB641:
 229:../../libDaisy//src/hid/disp/display.h ****         int_fast16_t signY  = ((y1 < y2) ? 1 : -1);
 1685              		.loc 3 229 42 is_stmt 0 view .LVU410
 1686 0092 80F08D81 		bcs	.L176
 1687              	.LVL123:
 1688              	.LBB618:
 1689              	.LBI618:
 1690              		.loc 1 42 10 is_stmt 1 view .LVU411
 1691              	.LBB619:
 1692              	.LBB620:
 1693              	.LBB621:
 354:../../libDaisy//src/dev/oled_ssd130x.h ****             return;
 1694              		.loc 4 354 14 is_stmt 0 view .LVU412
 1695 0096 7F2A     		cmp	r2, #127
 1696              	.LBE621:
 1697              	.LBE620:
  43:../../libDaisy//src/hid/disp/oled_display.h ****     {
  44:../../libDaisy//src/hid/disp/oled_display.h ****         driver_.DrawPixel(x, y, on);
 1698              		.loc 1 44 26 view .LVU413
 1699 0098 00F58364 		add	r4, r0, #1048
 1700              	.LVL124:
 1701              	.LBB625:
 1702              	.LBI620:
 352:../../libDaisy//src/dev/oled_ssd130x.h ****     {
 1703              		.loc 4 352 10 is_stmt 1 view .LVU414
 1704              	.LBE625:
 1705              	.LBE619:
 1706              	.LBE618:
 229:../../libDaisy//src/hid/disp/display.h ****         int_fast16_t signY  = ((y1 < y2) ? 1 : -1);
 1707              		.loc 3 229 42 is_stmt 0 view .LVU415
 1708 009c 4FF0010B 		mov	fp, #1
 1709              	.LBB633:
 1710              	.LBB630:
 1711              	.LBB626:
 1712              	.LBB622:
 354:../../libDaisy//src/dev/oled_ssd130x.h ****             return;
ARM GAS  /var/folders/1y/_321xjh9623c014x9_qw12rr0000gn/T//ccXuncwa.s 			page 62


 1713              		.loc 4 354 14 view .LVU416
 1714 00a0 94BF     		ite	ls
 1715 00a2 0023     		movls	r3, #0
 1716 00a4 0123     		movhi	r3, #1
 354:../../libDaisy//src/dev/oled_ssd130x.h ****             return;
 1717              		.loc 4 354 28 view .LVU417
 1718 00a6 3F2F     		cmp	r7, #63
 354:../../libDaisy//src/dev/oled_ssd130x.h ****             return;
 1719              		.loc 4 354 14 view .LVU418
 1720 00a8 0393     		str	r3, [sp, #12]
 354:../../libDaisy//src/dev/oled_ssd130x.h ****             return;
 1721              		.loc 4 354 28 view .LVU419
 1722 00aa 94BF     		ite	ls
 1723 00ac 0021     		movls	r1, #0
 1724 00ae 0121     		movhi	r1, #1
 1725 00b0 0491     		str	r1, [sp, #16]
 354:../../libDaisy//src/dev/oled_ssd130x.h ****             return;
 1726              		.loc 4 354 9 view .LVU420
 1727 00b2 13B9     		cbnz	r3, .L82
 1728 00b4 0029     		cmp	r1, #0
 1729 00b6 00F08B81 		beq	.L119
 1730              	.LVL125:
 1731              	.L82:
 354:../../libDaisy//src/dev/oled_ssd130x.h ****             return;
 1732              		.loc 4 354 9 view .LVU421
 1733              	.LBE622:
 1734              	.LBE626:
 1735              	.LBE630:
 1736              	.LBE633:
 227:../../libDaisy//src/hid/disp/display.h ****         int_fast16_t deltaY = abs((int_fast16_t)y2 - (int_fast16_t)y1);
 1737              		.loc 3 227 22 view .LVU422
 1738 00ba D046     		mov	r8, r10
 1739              	.LBE641:
 1740              	.LBE646:
 1741              	.LBE698:
 255:Dubby.cpp     ****     display.DrawRect((i * 32)  + margin, int(abs((currentLevels[i] * 5.0f) - 1.0f) * 51.0f) + 1, ((
 1742              		.loc 2 255 21 view .LVU423
 1743 00bc 3E46     		mov	r6, r7
 254:Dubby.cpp     ****     display.DrawRect((i * 32)  + margin, int(abs(1.0f - GetKnobValue(static_cast<Dubby::Ctrl>(i))) 
 1744              		.loc 2 254 21 view .LVU424
 1745 00be AE46     		mov	lr, r5
 1746              	.L84:
 1747              	.LVL126:
 1748              	.LBB699:
 1749              	.LBB647:
 1750              	.LBB642:
 1751              	.LBB634:
 1752              	.LBI634:
  42:../../libDaisy//src/hid/disp/oled_display.h ****     {
 1753              		.loc 1 42 10 is_stmt 1 view .LVU425
 1754              	.LBB635:
 1755              	.LBI635:
 352:../../libDaisy//src/dev/oled_ssd130x.h ****     {
 1756              		.loc 4 352 10 view .LVU426
 1757              	.LBB636:
 357:../../libDaisy//src/dev/oled_ssd130x.h ****         else
 1758              		.loc 4 357 28 is_stmt 0 view .LVU427
ARM GAS  /var/folders/1y/_321xjh9623c014x9_qw12rr0000gn/T//ccXuncwa.s 			page 63


 1759 00c0 F108     		lsrs	r1, r6, #3
 357:../../libDaisy//src/dev/oled_ssd130x.h ****         else
 1760              		.loc 4 357 54 view .LVU428
 1761 00c2 06F00703 		and	r3, r6, #7
 357:../../libDaisy//src/dev/oled_ssd130x.h ****         else
 1762              		.loc 4 357 48 view .LVU429
 1763 00c6 4FF00109 		mov	r9, #1
 354:../../libDaisy//src/dev/oled_ssd130x.h ****             return;
 1764              		.loc 4 354 9 view .LVU430
 1765 00ca BEF17F0F 		cmp	lr, #127
 357:../../libDaisy//src/dev/oled_ssd130x.h ****         else
 1766              		.loc 4 357 42 view .LVU431
 1767 00ce 0EEBC111 		add	r1, lr, r1, lsl #7
 357:../../libDaisy//src/dev/oled_ssd130x.h ****         else
 1768              		.loc 4 357 48 view .LVU432
 1769 00d2 09FA03F3 		lsl	r3, r9, r3
 354:../../libDaisy//src/dev/oled_ssd130x.h ****             return;
 1770              		.loc 4 354 9 view .LVU433
 1771 00d6 08D8     		bhi	.L85
 1772 00d8 3F2E     		cmp	r6, #63
 357:../../libDaisy//src/dev/oled_ssd130x.h ****         else
 1773              		.loc 4 357 42 view .LVU434
 1774 00da 0144     		add	r1, r1, r0
 354:../../libDaisy//src/dev/oled_ssd130x.h ****             return;
 1775              		.loc 4 354 9 view .LVU435
 1776 00dc 05D8     		bhi	.L85
 357:../../libDaisy//src/dev/oled_ssd130x.h ****         else
 1777              		.loc 4 357 42 view .LVU436
 1778 00de 91F82494 		ldrb	r9, [r1, #1060]	@ zero_extendqisi2
 1779 00e2 43EA0903 		orr	r3, r3, r9
 1780 00e6 81F82434 		strb	r3, [r1, #1060]
 1781              	.L85:
 357:../../libDaisy//src/dev/oled_ssd130x.h ****         else
 1782              		.loc 4 357 42 view .LVU437
 1783              	.LBE636:
 1784              	.LBE635:
 1785              	.LBE634:
 243:../../libDaisy//src/hid/disp/display.h ****             {
 1786              		.loc 3 243 13 view .LVU438
 1787 00ea 5FEA4803 		lsls	r3, r8, #1
 246:../../libDaisy//src/hid/disp/display.h ****             }
 1788              		.loc 3 246 20 view .LVU439
 1789 00ee 18BF     		it	ne
 1790 00f0 DE44     		addne	lr, lr, fp
 1791              	.LVL127:
 249:../../libDaisy//src/hid/disp/display.h ****             {
 1792              		.loc 3 249 13 view .LVU440
 1793 00f2 9A45     		cmp	r10, r3
 1794 00f4 01DD     		ble	.L87
 251:../../libDaisy//src/hid/disp/display.h ****                 y1 += signY;
 1795              		.loc 3 251 23 view .LVU441
 1796 00f6 D044     		add	r8, r8, r10
 1797              	.LVL128:
 252:../../libDaisy//src/hid/disp/display.h ****             }
 1798              		.loc 3 252 20 view .LVU442
 1799 00f8 013E     		subs	r6, r6, #1
 1800              	.LVL129:
ARM GAS  /var/folders/1y/_321xjh9623c014x9_qw12rr0000gn/T//ccXuncwa.s 			page 64


 1801              	.L87:
 239:../../libDaisy//src/hid/disp/display.h ****         {
 1802              		.loc 3 239 26 is_stmt 1 view .LVU443
 1803 00fa 7245     		cmp	r2, lr
 1804 00fc E0D1     		bne	.L84
 239:../../libDaisy//src/hid/disp/display.h ****         {
 1805              		.loc 3 239 26 is_stmt 0 view .LVU444
 1806 00fe B742     		cmp	r7, r6
 1807 0100 DED1     		bne	.L84
 1808 0102 0023     		movs	r3, #0
 1809 0104 0793     		str	r3, [sp, #28]
 1810              	.LVL130:
 1811              	.L81:
 239:../../libDaisy//src/hid/disp/display.h ****         {
 1812              		.loc 3 239 26 view .LVU445
 1813              	.LBE642:
 1814              	.LBE647:
 1815              	.LBB648:
 1816              	.LBI648:
 221:../../libDaisy//src/hid/disp/display.h ****                   uint_fast8_t y1,
 1817              		.loc 3 221 10 is_stmt 1 view .LVU446
 1818              	.LBB649:
 228:../../libDaisy//src/hid/disp/display.h ****         int_fast16_t signX  = ((x1 < x2) ? 1 : -1);
 1819              		.loc 3 228 52 is_stmt 0 view .LVU447
 1820 0106 C7F13303 		rsb	r3, r7, #51
 230:../../libDaisy//src/hid/disp/display.h ****         int_fast16_t error  = deltaX - deltaY;
 1821              		.loc 3 230 42 view .LVU448
 1822 010a 332F     		cmp	r7, #51
 228:../../libDaisy//src/hid/disp/display.h ****         int_fast16_t signX  = ((x1 < x2) ? 1 : -1);
 1823              		.loc 3 228 22 view .LVU449
 1824 010c 83EAE371 		eor	r1, r3, r3, asr #31
 1825 0110 A1EBE371 		sub	r1, r1, r3, asr #31
 1826 0114 0B46     		mov	r3, r1
 230:../../libDaisy//src/hid/disp/display.h ****         int_fast16_t error  = deltaX - deltaY;
 1827              		.loc 3 230 42 view .LVU450
 1828 0116 B4BF     		ite	lt
 1829 0118 0123     		movlt	r3, #1
 1830 011a 4FF0FF33 		movge	r3, #-1
 231:../../libDaisy//src/hid/disp/display.h ****         int_fast16_t error2;
 1831              		.loc 3 231 22 view .LVU451
 1832 011e C1F1000A 		rsb	r10, r1, #0
 228:../../libDaisy//src/hid/disp/display.h ****         int_fast16_t signX  = ((x1 < x2) ? 1 : -1);
 1833              		.loc 3 228 22 view .LVU452
 1834 0122 0091     		str	r1, [sp]
 1835              	.LVL131:
 230:../../libDaisy//src/hid/disp/display.h ****         int_fast16_t error  = deltaX - deltaY;
 1836              		.loc 3 230 42 view .LVU453
 1837 0124 0193     		str	r3, [sp, #4]
 1838              	.LVL132:
 1839              	.LBB650:
 1840              	.LBI650:
  42:../../libDaisy//src/hid/disp/oled_display.h ****     {
 1841              		.loc 1 42 10 is_stmt 1 view .LVU454
 1842              	.LBB651:
 1843              	.LBI651:
 352:../../libDaisy//src/dev/oled_ssd130x.h ****     {
 1844              		.loc 4 352 10 view .LVU455
ARM GAS  /var/folders/1y/_321xjh9623c014x9_qw12rr0000gn/T//ccXuncwa.s 			page 65


 1845              	.LBB652:
 354:../../libDaisy//src/dev/oled_ssd130x.h ****             return;
 1846              		.loc 4 354 9 is_stmt 0 view .LVU456
 1847 0126 039B     		ldr	r3, [sp, #12]
 1848              	.LVL133:
 354:../../libDaisy//src/dev/oled_ssd130x.h ****             return;
 1849              		.loc 4 354 9 view .LVU457
 1850 0128 43B9     		cbnz	r3, .L89
 357:../../libDaisy//src/dev/oled_ssd130x.h ****         else
 1851              		.loc 4 357 42 view .LVU458
 1852 012a 02F54073 		add	r3, r2, #768
 1853 012e 0344     		add	r3, r3, r0
 1854 0130 93F82414 		ldrb	r1, [r3, #1060]	@ zero_extendqisi2
 1855              	.LVL134:
 357:../../libDaisy//src/dev/oled_ssd130x.h ****         else
 1856              		.loc 4 357 42 view .LVU459
 1857 0134 41F00801 		orr	r1, r1, #8
 1858 0138 83F82414 		strb	r1, [r3, #1060]
 1859              	.L89:
 1860              	.LVL135:
 357:../../libDaisy//src/dev/oled_ssd130x.h ****         else
 1861              		.loc 4 357 42 view .LVU460
 1862              	.LBE652:
 1863              	.LBE651:
 1864              	.LBE650:
 239:../../libDaisy//src/hid/disp/display.h ****         {
 1865              		.loc 3 239 26 is_stmt 1 view .LVU461
 1866 013c 332F     		cmp	r7, #51
 1867 013e 29D0     		beq	.L90
 1868 0140 5646     		mov	r6, r10
 1869 0142 3946     		mov	r1, r7
 1870              	.LBE649:
 1871              	.LBE648:
 1872              	.LBE699:
 254:Dubby.cpp     ****     display.DrawRect((i * 32)  + margin, int(abs(1.0f - GetKnobValue(static_cast<Dubby::Ctrl>(i))) 
 1873              		.loc 2 254 21 is_stmt 0 view .LVU462
 1874 0144 9646     		mov	lr, r2
 1875              	.LVL136:
 1876              	.L91:
 1877              	.LBB700:
 1878              	.LBB660:
 1879              	.LBB659:
 1880              	.LBB653:
 1881              	.LBI653:
  42:../../libDaisy//src/hid/disp/oled_display.h ****     {
 1882              		.loc 1 42 10 is_stmt 1 view .LVU463
 1883              	.LBB654:
 1884              	.LBI654:
 352:../../libDaisy//src/dev/oled_ssd130x.h ****     {
 1885              		.loc 4 352 10 view .LVU464
 1886              	.LBB655:
 357:../../libDaisy//src/dev/oled_ssd130x.h ****         else
 1887              		.loc 4 357 48 is_stmt 0 view .LVU465
 1888 0146 4FF0010B 		mov	fp, #1
 357:../../libDaisy//src/dev/oled_ssd130x.h ****         else
 1889              		.loc 4 357 28 view .LVU466
 1890 014a CB08     		lsrs	r3, r1, #3
ARM GAS  /var/folders/1y/_321xjh9623c014x9_qw12rr0000gn/T//ccXuncwa.s 			page 66


 357:../../libDaisy//src/dev/oled_ssd130x.h ****         else
 1891              		.loc 4 357 54 view .LVU467
 1892 014c 01F00708 		and	r8, r1, #7
 354:../../libDaisy//src/dev/oled_ssd130x.h ****             return;
 1893              		.loc 4 354 9 view .LVU468
 1894 0150 BEF17F0F 		cmp	lr, #127
 357:../../libDaisy//src/dev/oled_ssd130x.h ****         else
 1895              		.loc 4 357 42 view .LVU469
 1896 0154 0EEBC313 		add	r3, lr, r3, lsl #7
 1897              	.LBE655:
 1898              	.LBE654:
 1899              	.LBE653:
 242:../../libDaisy//src/hid/disp/display.h ****             if(error2 > -deltaY)
 1900              		.loc 3 242 20 view .LVU470
 1901 0158 06FA0BF9 		lsl	r9, r6, fp
 1902              	.LVL137:
 1903              	.LBB658:
 1904              	.LBB657:
 1905              	.LBB656:
 357:../../libDaisy//src/dev/oled_ssd130x.h ****         else
 1906              		.loc 4 357 48 view .LVU471
 1907 015c 0BFA08F8 		lsl	r8, fp, r8
 354:../../libDaisy//src/dev/oled_ssd130x.h ****             return;
 1908              		.loc 4 354 9 view .LVU472
 1909 0160 08D8     		bhi	.L93
 354:../../libDaisy//src/dev/oled_ssd130x.h ****             return;
 1910              		.loc 4 354 9 view .LVU473
 1911 0162 3F29     		cmp	r1, #63
 357:../../libDaisy//src/dev/oled_ssd130x.h ****         else
 1912              		.loc 4 357 42 view .LVU474
 1913 0164 0344     		add	r3, r3, r0
 354:../../libDaisy//src/dev/oled_ssd130x.h ****             return;
 1914              		.loc 4 354 9 view .LVU475
 1915 0166 05D8     		bhi	.L93
 357:../../libDaisy//src/dev/oled_ssd130x.h ****         else
 1916              		.loc 4 357 42 view .LVU476
 1917 0168 93F824B4 		ldrb	fp, [r3, #1060]	@ zero_extendqisi2
 1918 016c 48EA0B08 		orr	r8, r8, fp
 1919 0170 83F82484 		strb	r8, [r3, #1060]
 1920              	.L93:
 357:../../libDaisy//src/dev/oled_ssd130x.h ****         else
 1921              		.loc 4 357 42 view .LVU477
 1922              	.LBE656:
 1923              	.LBE657:
 1924              	.LBE658:
 243:../../libDaisy//src/hid/disp/display.h ****             {
 1925              		.loc 3 243 13 view .LVU478
 1926 0174 BAEB460F 		cmp	r10, r6, lsl #1
 1927 0178 03DA     		bge	.L94
 245:../../libDaisy//src/hid/disp/display.h ****                 x1 += signX;
 1928              		.loc 3 245 23 view .LVU479
 1929 017a 009B     		ldr	r3, [sp]
 246:../../libDaisy//src/hid/disp/display.h ****             }
 1930              		.loc 3 246 20 view .LVU480
 1931 017c 0EF1FF3E 		add	lr, lr, #-1
 1932              	.LVL138:
 245:../../libDaisy//src/hid/disp/display.h ****                 x1 += signX;
ARM GAS  /var/folders/1y/_321xjh9623c014x9_qw12rr0000gn/T//ccXuncwa.s 			page 67


 1933              		.loc 3 245 23 view .LVU481
 1934 0180 F61A     		subs	r6, r6, r3
 1935              	.LVL139:
 1936              	.L94:
 249:../../libDaisy//src/hid/disp/display.h ****             {
 1937              		.loc 3 249 13 view .LVU482
 1938 0182 B9F1000F 		cmp	r9, #0
 1939 0186 01D0     		beq	.L95
 252:../../libDaisy//src/hid/disp/display.h ****             }
 1940              		.loc 3 252 20 view .LVU483
 1941 0188 019B     		ldr	r3, [sp, #4]
 1942 018a 1944     		add	r1, r1, r3
 1943              	.LVL140:
 1944              	.L95:
 239:../../libDaisy//src/hid/disp/display.h ****         {
 1945              		.loc 3 239 26 is_stmt 1 view .LVU484
 1946 018c 7245     		cmp	r2, lr
 1947 018e DAD1     		bne	.L91
 239:../../libDaisy//src/hid/disp/display.h ****         {
 1948              		.loc 3 239 26 is_stmt 0 view .LVU485
 1949 0190 3329     		cmp	r1, #51
 1950 0192 D8D1     		bne	.L91
 1951              	.LVL141:
 1952              	.L90:
 239:../../libDaisy//src/hid/disp/display.h ****         {
 1953              		.loc 3 239 26 view .LVU486
 1954              	.LBE659:
 1955              	.LBE660:
 1956              	.LBB661:
 1957              	.LBI661:
 221:../../libDaisy//src/hid/disp/display.h ****                   uint_fast8_t y1,
 1958              		.loc 3 221 10 is_stmt 1 view .LVU487
 1959              	.LBB662:
 227:../../libDaisy//src/hid/disp/display.h ****         int_fast16_t deltaY = abs((int_fast16_t)y2 - (int_fast16_t)y1);
 1960              		.loc 3 227 52 is_stmt 0 view .LVU488
 1961 0194 A5EB0208 		sub	r8, r5, r2
 229:../../libDaisy//src/hid/disp/display.h ****         int_fast16_t signY  = ((y1 < y2) ? 1 : -1);
 1962              		.loc 3 229 42 view .LVU489
 1963 0198 9542     		cmp	r5, r2
 1964 019a 8CBF     		ite	hi
 1965 019c 0122     		movhi	r2, #1
 1966 019e 4FF0FF32 		movls	r2, #-1
 227:../../libDaisy//src/hid/disp/display.h ****         int_fast16_t deltaY = abs((int_fast16_t)y2 - (int_fast16_t)y1);
 1967              		.loc 3 227 22 view .LVU490
 1968 01a2 B8F1000F 		cmp	r8, #0
 1969 01a6 B8BF     		it	lt
 1970 01a8 C8F10008 		rsblt	r8, r8, #0
 1971              	.LVL142:
 1972              	.LBB663:
 1973              	.LBI663:
  42:../../libDaisy//src/hid/disp/oled_display.h ****     {
 1974              		.loc 1 42 10 is_stmt 1 view .LVU491
 1975              	.LBB664:
 1976              	.LBI664:
 352:../../libDaisy//src/dev/oled_ssd130x.h ****     {
 1977              		.loc 4 352 10 view .LVU492
 1978              	.LBB665:
ARM GAS  /var/folders/1y/_321xjh9623c014x9_qw12rr0000gn/T//ccXuncwa.s 			page 68


 354:../../libDaisy//src/dev/oled_ssd130x.h ****             return;
 1979              		.loc 4 354 9 is_stmt 0 view .LVU493
 1980 01ac 7F2D     		cmp	r5, #127
 1981 01ae 08D8     		bhi	.L97
 357:../../libDaisy//src/dev/oled_ssd130x.h ****         else
 1982              		.loc 4 357 42 view .LVU494
 1983 01b0 05F54073 		add	r3, r5, #768
 1984 01b4 0344     		add	r3, r3, r0
 1985 01b6 93F82414 		ldrb	r1, [r3, #1060]	@ zero_extendqisi2
 1986 01ba 41F00801 		orr	r1, r1, #8
 1987 01be 83F82414 		strb	r1, [r3, #1060]
 1988              	.L97:
 1989              	.LVL143:
 357:../../libDaisy//src/dev/oled_ssd130x.h ****         else
 1990              		.loc 4 357 42 view .LVU495
 1991              	.LBE665:
 1992              	.LBE664:
 1993              	.LBE663:
 239:../../libDaisy//src/hid/disp/display.h ****         {
 1994              		.loc 3 239 26 is_stmt 1 view .LVU496
 1995 01c2 079B     		ldr	r3, [sp, #28]
 1996 01c4 0BBB     		cbnz	r3, .L98
 227:../../libDaisy//src/hid/disp/display.h ****         int_fast16_t deltaY = abs((int_fast16_t)y2 - (int_fast16_t)y1);
 1997              		.loc 3 227 22 is_stmt 0 view .LVU497
 1998 01c6 C646     		mov	lr, r8
 239:../../libDaisy//src/hid/disp/display.h ****         {
 1999              		.loc 3 239 26 view .LVU498
 2000 01c8 3326     		movs	r6, #51
 2001              	.LVL144:
 2002              	.L99:
 2003              	.LBB666:
 2004              	.LBI666:
  42:../../libDaisy//src/hid/disp/oled_display.h ****     {
 2005              		.loc 1 42 10 is_stmt 1 view .LVU499
 2006              	.LBB667:
 2007              	.LBI667:
 352:../../libDaisy//src/dev/oled_ssd130x.h ****     {
 2008              		.loc 4 352 10 view .LVU500
 2009              	.LBB668:
 357:../../libDaisy//src/dev/oled_ssd130x.h ****         else
 2010              		.loc 4 357 28 is_stmt 0 view .LVU501
 2011 01ca F308     		lsrs	r3, r6, #3
 357:../../libDaisy//src/dev/oled_ssd130x.h ****         else
 2012              		.loc 4 357 54 view .LVU502
 2013 01cc 06F00709 		and	r9, r6, #7
 357:../../libDaisy//src/dev/oled_ssd130x.h ****         else
 2014              		.loc 4 357 48 view .LVU503
 2015 01d0 0121     		movs	r1, #1
 354:../../libDaisy//src/dev/oled_ssd130x.h ****             return;
 2016              		.loc 4 354 9 view .LVU504
 2017 01d2 BCF17F0F 		cmp	ip, #127
 357:../../libDaisy//src/dev/oled_ssd130x.h ****         else
 2018              		.loc 4 357 42 view .LVU505
 2019 01d6 0CEBC313 		add	r3, ip, r3, lsl #7
 357:../../libDaisy//src/dev/oled_ssd130x.h ****         else
 2020              		.loc 4 357 48 view .LVU506
 2021 01da 01FA09F1 		lsl	r1, r1, r9
ARM GAS  /var/folders/1y/_321xjh9623c014x9_qw12rr0000gn/T//ccXuncwa.s 			page 69


 354:../../libDaisy//src/dev/oled_ssd130x.h ****             return;
 2022              		.loc 4 354 9 view .LVU507
 2023 01de 08D8     		bhi	.L101
 354:../../libDaisy//src/dev/oled_ssd130x.h ****             return;
 2024              		.loc 4 354 9 view .LVU508
 2025 01e0 3F2E     		cmp	r6, #63
 357:../../libDaisy//src/dev/oled_ssd130x.h ****         else
 2026              		.loc 4 357 42 view .LVU509
 2027 01e2 0344     		add	r3, r3, r0
 354:../../libDaisy//src/dev/oled_ssd130x.h ****             return;
 2028              		.loc 4 354 9 view .LVU510
 2029 01e4 05D8     		bhi	.L101
 357:../../libDaisy//src/dev/oled_ssd130x.h ****         else
 2030              		.loc 4 357 42 view .LVU511
 2031 01e6 93F82494 		ldrb	r9, [r3, #1060]	@ zero_extendqisi2
 2032 01ea 41EA0901 		orr	r1, r1, r9
 2033 01ee 83F82414 		strb	r1, [r3, #1060]
 2034              	.L101:
 357:../../libDaisy//src/dev/oled_ssd130x.h ****         else
 2035              		.loc 4 357 42 view .LVU512
 2036              	.LBE668:
 2037              	.LBE667:
 2038              	.LBE666:
 243:../../libDaisy//src/hid/disp/display.h ****             {
 2039              		.loc 3 243 13 view .LVU513
 2040 01f2 5FEA4E03 		lsls	r3, lr, #1
 246:../../libDaisy//src/hid/disp/display.h ****             }
 2041              		.loc 3 246 20 view .LVU514
 2042 01f6 18BF     		it	ne
 2043 01f8 9444     		addne	ip, ip, r2
 2044              	.LVL145:
 249:../../libDaisy//src/hid/disp/display.h ****             {
 2045              		.loc 3 249 13 view .LVU515
 2046 01fa 9845     		cmp	r8, r3
 2047 01fc 01DD     		ble	.L103
 251:../../libDaisy//src/hid/disp/display.h ****                 y1 += signY;
 2048              		.loc 3 251 23 view .LVU516
 2049 01fe C644     		add	lr, lr, r8
 2050              	.LVL146:
 252:../../libDaisy//src/hid/disp/display.h ****             }
 2051              		.loc 3 252 20 view .LVU517
 2052 0200 013E     		subs	r6, r6, #1
 2053              	.LVL147:
 2054              	.L103:
 239:../../libDaisy//src/hid/disp/display.h ****         {
 2055              		.loc 3 239 26 is_stmt 1 view .LVU518
 2056 0202 6545     		cmp	r5, ip
 2057 0204 E1D1     		bne	.L99
 239:../../libDaisy//src/hid/disp/display.h ****         {
 2058              		.loc 3 239 26 is_stmt 0 view .LVU519
 2059 0206 332E     		cmp	r6, #51
 2060 0208 DFD1     		bne	.L99
 2061              	.LVL148:
 2062              	.L98:
 239:../../libDaisy//src/hid/disp/display.h ****         {
 2063              		.loc 3 239 26 view .LVU520
 2064              	.LBE662:
ARM GAS  /var/folders/1y/_321xjh9623c014x9_qw12rr0000gn/T//ccXuncwa.s 			page 70


 2065              	.LBE661:
 2066              	.LBB669:
 2067              	.LBI669:
 221:../../libDaisy//src/hid/disp/display.h ****                   uint_fast8_t y1,
 2068              		.loc 3 221 10 is_stmt 1 view .LVU521
 2069              	.LBB670:
 228:../../libDaisy//src/hid/disp/display.h ****         int_fast16_t signX  = ((x1 < x2) ? 1 : -1);
 2070              		.loc 3 228 52 is_stmt 0 view .LVU522
 2071 020a 17EE903A 		vmov	r3, s15	@ int
 2072 020e A3F1320C 		sub	ip, r3, #50
 228:../../libDaisy//src/hid/disp/display.h ****         int_fast16_t signX  = ((x1 < x2) ? 1 : -1);
 2073              		.loc 3 228 22 view .LVU523
 2074 0212 BCF1000F 		cmp	ip, #0
 2075 0216 B8BF     		it	lt
 2076 0218 CCF1000C 		rsblt	ip, ip, #0
 2077              	.LVL149:
 230:../../libDaisy//src/hid/disp/display.h ****         int_fast16_t error  = deltaX - deltaY;
 2078              		.loc 3 230 42 view .LVU524
 2079 021c 332F     		cmp	r7, #51
 231:../../libDaisy//src/hid/disp/display.h ****         int_fast16_t error2;
 2080              		.loc 3 231 22 view .LVU525
 2081 021e CCF10006 		rsb	r6, ip, #0
 230:../../libDaisy//src/hid/disp/display.h ****         int_fast16_t error  = deltaX - deltaY;
 2082              		.loc 3 230 42 view .LVU526
 2083 0222 00F3B180 		bgt	.L104
 2084              	.LVL150:
 2085              	.LBB671:
 2086              	.LBI671:
  42:../../libDaisy//src/hid/disp/oled_display.h ****     {
 2087              		.loc 1 42 10 is_stmt 1 view .LVU527
 2088              	.LBB672:
 2089              	.LBI672:
 352:../../libDaisy//src/dev/oled_ssd130x.h ****     {
 2090              		.loc 4 352 10 view .LVU528
 2091              	.LBB673:
 354:../../libDaisy//src/dev/oled_ssd130x.h ****             return;
 2092              		.loc 4 354 9 is_stmt 0 view .LVU529
 2093 0226 7F2D     		cmp	r5, #127
 2094              	.LBE673:
 2095              	.LBE672:
 2096              	.LBE671:
 230:../../libDaisy//src/hid/disp/display.h ****         int_fast16_t error  = deltaX - deltaY;
 2097              		.loc 3 230 42 view .LVU530
 2098 0228 4FF0FF3A 		mov	r10, #-1
 2099              	.LBB680:
 2100              	.LBB677:
 2101              	.LBB674:
 354:../../libDaisy//src/dev/oled_ssd130x.h ****             return;
 2102              		.loc 4 354 9 view .LVU531
 2103 022c 03D8     		bhi	.L105
 2104 022e 049B     		ldr	r3, [sp, #16]
 2105 0230 002B     		cmp	r3, #0
 2106 0232 00F0AF80 		beq	.L120
 2107              	.LVL151:
 2108              	.L105:
 354:../../libDaisy//src/dev/oled_ssd130x.h ****             return;
 2109              		.loc 4 354 9 view .LVU532
ARM GAS  /var/folders/1y/_321xjh9623c014x9_qw12rr0000gn/T//ccXuncwa.s 			page 71


 2110              	.LBE674:
 2111              	.LBE677:
 2112              	.LBE680:
 239:../../libDaisy//src/hid/disp/display.h ****         {
 2113              		.loc 3 239 26 is_stmt 1 view .LVU533
 2114 0236 332F     		cmp	r7, #51
 2115 0238 26D0     		beq	.L106
 2116 023a B146     		mov	r9, r6
 2117              	.L107:
 2118              	.LVL152:
 230:../../libDaisy//src/hid/disp/display.h ****         int_fast16_t error  = deltaX - deltaY;
 2119              		.loc 3 230 42 is_stmt 0 view .LVU534
 2120 023c 2946     		mov	r1, r5
 2121 023e 3322     		movs	r2, #51
 2122              	.L109:
 2123              	.LVL153:
 2124              	.LBB681:
 2125              	.LBI681:
  42:../../libDaisy//src/hid/disp/oled_display.h ****     {
 2126              		.loc 1 42 10 is_stmt 1 view .LVU535
 2127              	.LBB682:
 2128              	.LBI682:
 352:../../libDaisy//src/dev/oled_ssd130x.h ****     {
 2129              		.loc 4 352 10 view .LVU536
 2130              	.LBB683:
 357:../../libDaisy//src/dev/oled_ssd130x.h ****         else
 2131              		.loc 4 357 48 is_stmt 0 view .LVU537
 2132 0240 4FF0010B 		mov	fp, #1
 357:../../libDaisy//src/dev/oled_ssd130x.h ****         else
 2133              		.loc 4 357 28 view .LVU538
 2134 0244 D308     		lsrs	r3, r2, #3
 357:../../libDaisy//src/dev/oled_ssd130x.h ****         else
 2135              		.loc 4 357 54 view .LVU539
 2136 0246 02F0070E 		and	lr, r2, #7
 354:../../libDaisy//src/dev/oled_ssd130x.h ****             return;
 2137              		.loc 4 354 9 view .LVU540
 2138 024a 7F29     		cmp	r1, #127
 357:../../libDaisy//src/dev/oled_ssd130x.h ****         else
 2139              		.loc 4 357 42 view .LVU541
 2140 024c 01EBC313 		add	r3, r1, r3, lsl #7
 2141              	.LBE683:
 2142              	.LBE682:
 2143              	.LBE681:
 242:../../libDaisy//src/hid/disp/display.h ****             if(error2 > -deltaY)
 2144              		.loc 3 242 20 view .LVU542
 2145 0250 06FA0BF8 		lsl	r8, r6, fp
 2146              	.LVL154:
 2147              	.LBB686:
 2148              	.LBB685:
 2149              	.LBB684:
 357:../../libDaisy//src/dev/oled_ssd130x.h ****         else
 2150              		.loc 4 357 48 view .LVU543
 2151 0254 0BFA0EFE 		lsl	lr, fp, lr
 354:../../libDaisy//src/dev/oled_ssd130x.h ****             return;
 2152              		.loc 4 354 9 view .LVU544
 2153 0258 08D8     		bhi	.L110
 2154 025a 3F2A     		cmp	r2, #63
ARM GAS  /var/folders/1y/_321xjh9623c014x9_qw12rr0000gn/T//ccXuncwa.s 			page 72


 357:../../libDaisy//src/dev/oled_ssd130x.h ****         else
 2155              		.loc 4 357 42 view .LVU545
 2156 025c 0344     		add	r3, r3, r0
 354:../../libDaisy//src/dev/oled_ssd130x.h ****             return;
 2157              		.loc 4 354 9 view .LVU546
 2158 025e 05D8     		bhi	.L110
 357:../../libDaisy//src/dev/oled_ssd130x.h ****         else
 2159              		.loc 4 357 42 view .LVU547
 2160 0260 93F824B4 		ldrb	fp, [r3, #1060]	@ zero_extendqisi2
 2161 0264 4EEA0B0E 		orr	lr, lr, fp
 2162 0268 83F824E4 		strb	lr, [r3, #1060]
 2163              	.L110:
 357:../../libDaisy//src/dev/oled_ssd130x.h ****         else
 2164              		.loc 4 357 42 view .LVU548
 2165              	.LBE684:
 2166              	.LBE685:
 2167              	.LBE686:
 243:../../libDaisy//src/hid/disp/display.h ****             {
 2168              		.loc 3 243 13 view .LVU549
 2169 026c B9EB460F 		cmp	r9, r6, lsl #1
 2170 0270 02DA     		bge	.L111
 246:../../libDaisy//src/hid/disp/display.h ****             }
 2171              		.loc 3 246 20 view .LVU550
 2172 0272 0139     		subs	r1, r1, #1
 2173              	.LVL155:
 245:../../libDaisy//src/hid/disp/display.h ****                 x1 += signX;
 2174              		.loc 3 245 23 view .LVU551
 2175 0274 A6EB0C06 		sub	r6, r6, ip
 2176              	.LVL156:
 2177              	.L111:
 249:../../libDaisy//src/hid/disp/display.h ****             {
 2178              		.loc 3 249 13 view .LVU552
 2179 0278 B8F1000F 		cmp	r8, #0
 2180 027c 00D0     		beq	.L112
 252:../../libDaisy//src/hid/disp/display.h ****             }
 2181              		.loc 3 252 20 view .LVU553
 2182 027e 5244     		add	r2, r2, r10
 2183              	.LVL157:
 2184              	.L112:
 239:../../libDaisy//src/hid/disp/display.h ****         {
 2185              		.loc 3 239 26 is_stmt 1 view .LVU554
 2186 0280 8D42     		cmp	r5, r1
 2187 0282 DDD1     		bne	.L109
 239:../../libDaisy//src/hid/disp/display.h ****         {
 2188              		.loc 3 239 26 is_stmt 0 view .LVU555
 2189 0284 9742     		cmp	r7, r2
 2190 0286 DBD1     		bne	.L109
 2191              	.LVL158:
 2192              	.L106:
 239:../../libDaisy//src/hid/disp/display.h ****         {
 2193              		.loc 3 239 26 view .LVU556
 2194              	.LBE670:
 2195              	.LBE669:
 2196              	.LBE700:
 256:Dubby.cpp     ****     
 2197              		.loc 2 256 5 is_stmt 1 view .LVU557
 256:Dubby.cpp     ****     
ARM GAS  /var/folders/1y/_321xjh9623c014x9_qw12rr0000gn/T//ccXuncwa.s 			page 73


 2198              		.loc 2 256 66 is_stmt 0 view .LVU558
 2199 0288 029B     		ldr	r3, [sp, #8]
 256:Dubby.cpp     ****     
 2200              		.loc 2 256 49 view .LVU559
 2201 028a F1EE046A 		vmov.f32	s13, #5.0e+0
 2202 028e FFEE007A 		vmov.f32	s15, #-1.0e+0
 256:Dubby.cpp     ****     
 2203              		.loc 2 256 84 view .LVU560
 2204 0292 9FED3C7A 		vldr.32	s14, .L177
 256:Dubby.cpp     ****     
 2205              		.loc 2 256 66 view .LVU561
 2206 0296 03F58073 		add	r3, r3, #256
 256:Dubby.cpp     ****     
 2207              		.loc 2 256 32 view .LVU562
 2208 029a 059D     		ldr	r5, [sp, #20]
 256:Dubby.cpp     ****     
 2209              		.loc 2 256 113 view .LVU563
 2210 029c 069A     		ldr	r2, [sp, #24]
 256:Dubby.cpp     ****     
 2211              		.loc 2 256 66 view .LVU564
 2212 029e 00EB8303 		add	r3, r0, r3, lsl #2
 256:Dubby.cpp     ****     
 2213              		.loc 2 256 49 view .LVU565
 2214 02a2 93ED006A 		vldr.32	s12, [r3]
 256:Dubby.cpp     ****     
 2215              		.loc 2 256 34 view .LVU566
 2216 02a6 D0F82438 		ldr	r3, [r0, #2084]
 256:Dubby.cpp     ****     
 2217              		.loc 2 256 49 view .LVU567
 2218 02aa E6EE267A 		vfma.f32	s15, s12, s13
 2219              	.LVL159:
 2220              	.LBB701:
 2221              	.LBI701:
  75:/Library/DaisyToolchain/0.2.0/arm/arm-none-eabi/include/c++/10.3.1/bits/std_abs.h ****   { return __builtin_fabsf(__x); }
 2222              		.loc 7 75 3 is_stmt 1 view .LVU568
 2223              	.LBB702:
 2224              		.loc 7 76 5 view .LVU569
 2225              		.loc 7 76 5 is_stmt 0 view .LVU570
 2226              	.LBE702:
 2227              	.LBE701:
 256:Dubby.cpp     ****     
 2228              		.loc 2 256 32 view .LVU571
 2229 02ae 1D44     		add	r5, r5, r3
 256:Dubby.cpp     ****     
 2230              		.loc 2 256 113 view .LVU572
 2231 02b0 A2EB030C 		sub	ip, r2, r3
 2232              	.LVL160:
 2233              	.LBB704:
 2234              	.LBB705:
 2235              	.LBB706:
 266:../../libDaisy//src/hid/disp/display.h ****             {
 2236              		.loc 3 266 40 view .LVU573
 2237 02b4 6545     		cmp	r5, ip
 2238              	.LBE706:
 2239              	.LBE705:
 2240              	.LBE704:
 2241              	.LBB715:
ARM GAS  /var/folders/1y/_321xjh9623c014x9_qw12rr0000gn/T//ccXuncwa.s 			page 74


 2242              	.LBB703:
 2243              		.loc 7 76 31 view .LVU574
 2244 02b6 F0EEE77A 		vabs.f32	s15, s15
 2245              	.LBE703:
 2246              	.LBE715:
 256:Dubby.cpp     ****     
 2247              		.loc 2 256 84 view .LVU575
 2248 02ba 67EE877A 		vmul.f32	s15, s15, s14
 256:Dubby.cpp     ****     
 2249              		.loc 2 256 42 view .LVU576
 2250 02be FDEEE77A 		vcvt.s32.f32	s15, s15
 2251 02c2 17EE906A 		vmov	r6, s15	@ int
 256:Dubby.cpp     ****     
 2252              		.loc 2 256 93 view .LVU577
 2253 02c6 06F10106 		add	r6, r6, #1
 2254              	.LVL161:
 2255              	.LBB716:
 2256              	.LBI704:
 257:../../libDaisy//src/hid/disp/display.h ****                   uint_fast8_t y1,
 2257              		.loc 3 257 10 is_stmt 1 view .LVU578
 2258              	.LBB714:
 2259              	.LBI705:
 257:../../libDaisy//src/hid/disp/display.h ****                   uint_fast8_t y1,
 2260              		.loc 3 257 10 view .LVU579
 2261              	.LBB713:
 266:../../libDaisy//src/hid/disp/display.h ****             {
 2262              		.loc 3 266 40 view .LVU580
 2263 02ca 18D8     		bhi	.L116
 2264              	.LVL162:
 2265              	.L113:
 2266              	.LBB707:
 2267              		.loc 3 268 44 view .LVU581
 2268 02cc 332E     		cmp	r6, #51
 2269 02ce 13DC     		bgt	.L118
 2270              		.loc 3 268 44 is_stmt 0 view .LVU582
 2271 02d0 3246     		mov	r2, r6
 2272              	.LVL163:
 2273              	.L115:
 2274              	.LBB708:
 2275              	.LBI708:
  42:../../libDaisy//src/hid/disp/oled_display.h ****     {
 2276              		.loc 1 42 10 is_stmt 1 view .LVU583
 2277              	.LBB709:
 2278              	.LBI709:
 352:../../libDaisy//src/dev/oled_ssd130x.h ****     {
 2279              		.loc 4 352 10 view .LVU584
 352:../../libDaisy//src/dev/oled_ssd130x.h ****     {
 2280              		.loc 4 352 10 is_stmt 0 view .LVU585
 2281              	.LBE709:
 2282              	.LBE708:
 2283              		.loc 3 268 17 is_stmt 1 view .LVU586
 2284              		.loc 3 268 44 view .LVU587
 2285              	.LBB712:
 2286              	.LBB711:
 2287              	.LBB710:
 357:../../libDaisy//src/dev/oled_ssd130x.h ****         else
 2288              		.loc 4 357 28 is_stmt 0 view .LVU588
ARM GAS  /var/folders/1y/_321xjh9623c014x9_qw12rr0000gn/T//ccXuncwa.s 			page 75


 2289 02d2 D308     		lsrs	r3, r2, #3
 357:../../libDaisy//src/dev/oled_ssd130x.h ****         else
 2290              		.loc 4 357 54 view .LVU589
 2291 02d4 02F00707 		and	r7, r2, #7
 357:../../libDaisy//src/dev/oled_ssd130x.h ****         else
 2292              		.loc 4 357 48 view .LVU590
 2293 02d8 0121     		movs	r1, #1
 354:../../libDaisy//src/dev/oled_ssd130x.h ****             return;
 2294              		.loc 4 354 9 view .LVU591
 2295 02da 7F2D     		cmp	r5, #127
 357:../../libDaisy//src/dev/oled_ssd130x.h ****         else
 2296              		.loc 4 357 42 view .LVU592
 2297 02dc 05EBC313 		add	r3, r5, r3, lsl #7
 2298 02e0 0A44     		add	r2, r2, r1
 2299              	.LVL164:
 357:../../libDaisy//src/dev/oled_ssd130x.h ****         else
 2300              		.loc 4 357 48 view .LVU593
 2301 02e2 01FA07F1 		lsl	r1, r1, r7
 357:../../libDaisy//src/dev/oled_ssd130x.h ****         else
 2302              		.loc 4 357 42 view .LVU594
 2303 02e6 0344     		add	r3, r3, r0
 354:../../libDaisy//src/dev/oled_ssd130x.h ****             return;
 2304              		.loc 4 354 9 view .LVU595
 2305 02e8 04D8     		bhi	.L117
 357:../../libDaisy//src/dev/oled_ssd130x.h ****         else
 2306              		.loc 4 357 42 view .LVU596
 2307 02ea 93F82474 		ldrb	r7, [r3, #1060]	@ zero_extendqisi2
 2308 02ee 3943     		orrs	r1, r1, r7
 2309 02f0 83F82414 		strb	r1, [r3, #1060]
 2310              	.L117:
 2311              	.LBE710:
 2312              	.LBE711:
 2313              	.LBE712:
 2314              		.loc 3 268 44 view .LVU597
 2315 02f4 342A     		cmp	r2, #52
 2316 02f6 ECD1     		bne	.L115
 2317              	.LVL165:
 2318              	.L118:
 2319              		.loc 3 268 44 view .LVU598
 2320              	.LBE707:
 266:../../libDaisy//src/hid/disp/display.h ****             {
 2321              		.loc 3 266 13 is_stmt 1 view .LVU599
 2322 02f8 0135     		adds	r5, r5, #1
 2323              	.LVL166:
 266:../../libDaisy//src/hid/disp/display.h ****             {
 2324              		.loc 3 266 40 view .LVU600
 2325 02fa AC45     		cmp	ip, r5
 2326 02fc E6D2     		bcs	.L113
 2327              	.L116:
 266:../../libDaisy//src/hid/disp/display.h ****             {
 2328              		.loc 3 266 40 is_stmt 0 view .LVU601
 2329              	.LBE713:
 2330              	.LBE714:
 2331              	.LBE716:
 2332              	.LBB717:
 2333              	.LBB718:
 2334              	.LBB719:
ARM GAS  /var/folders/1y/_321xjh9623c014x9_qw12rr0000gn/T//ccXuncwa.s 			page 76


 2335              	.LBB720:
 2336              	.LBB721:
 124:../../libDaisy//src/dev/oled_ssd130x.h ****         spi_.BlockingTransmit(&cmd, 1);
 2337              		.loc 4 124 24 view .LVU602
 2338 02fe 00F58467 		add	r7, r0, #1056
 2339 0302 04F10C06 		add	r6, r4, #12
 2340              	.LVL167:
 124:../../libDaisy//src/dev/oled_ssd130x.h ****         spi_.BlockingTransmit(&cmd, 1);
 2341              		.loc 4 124 24 view .LVU603
 2342 0306 04F20C49 		addw	r9, r4, #1036
 2343 030a B025     		movs	r5, #176
 2344              	.LVL168:
 2345              	.L114:
