ARM GAS  /var/folders/1y/_321xjh9623c014x9_qw12rr0000gn/T//ccXuncwa.s 			page 1


   1              		.cpu cortex-m7
   2              		.arch armv7e-m
   3              		.fpu fpv5-d16
   4              		.eabi_attribute 28, 1
   5              		.eabi_attribute 20, 1
   6              		.eabi_attribute 21, 1
   7              		.eabi_attribute 23, 3
   8              		.eabi_attribute 24, 1
   9              		.eabi_attribute 25, 1
  10              		.eabi_attribute 26, 1
  11              		.eabi_attribute 30, 2
  12              		.eabi_attribute 34, 1
  13              		.eabi_attribute 18, 4
  14              		.file	"Dubby.cpp"
  15              		.text
  16              	.Ltext0:
  17              		.cfi_sections	.debug_frame
  18              		.section	.text._ZNK5daisy11OledDisplayINS_13SSD130xDriverILj128ELj64ENS_24SSD130x4WireSpiTransport
  19              		.align	1
  20              		.p2align 2,,3
  21              		.weak	_ZNK5daisy11OledDisplayINS_13SSD130xDriverILj128ELj64ENS_24SSD130x4WireSpiTransportEEEE6Heig
  22              		.syntax unified
  23              		.thumb
  24              		.thumb_func
  26              	_ZNK5daisy11OledDisplayINS_13SSD130xDriverILj128ELj64ENS_24SSD130x4WireSpiTransportEEEE6HeightEv:
  27              	.LVL0:
  28              	.LFB2646:
  29              		.file 1 "../../libDaisy//src/hid/disp/oled_display.h"
   1:../../libDaisy//src/hid/disp/oled_display.h **** #pragma once
   2:../../libDaisy//src/hid/disp/oled_display.h **** #ifndef DSY_OLED_DISPLAY_H
   3:../../libDaisy//src/hid/disp/oled_display.h **** #define DSY_OLED_DISPLAY_H /**< Macro */
   4:../../libDaisy//src/hid/disp/oled_display.h **** 
   5:../../libDaisy//src/hid/disp/oled_display.h **** #include "display.h"
   6:../../libDaisy//src/hid/disp/oled_display.h **** 
   7:../../libDaisy//src/hid/disp/oled_display.h **** namespace daisy
   8:../../libDaisy//src/hid/disp/oled_display.h **** {
   9:../../libDaisy//src/hid/disp/oled_display.h **** /** 
  10:../../libDaisy//src/hid/disp/oled_display.h ****  * This class is for drawing to a monochrome OLED display. 
  11:../../libDaisy//src/hid/disp/oled_display.h ****  * @ingroup device
  12:../../libDaisy//src/hid/disp/oled_display.h **** */
  13:../../libDaisy//src/hid/disp/oled_display.h **** template <typename DisplayDriver>
  14:../../libDaisy//src/hid/disp/oled_display.h **** class OledDisplay : public OneBitGraphicsDisplayImpl<OledDisplay<DisplayDriver>>
  15:../../libDaisy//src/hid/disp/oled_display.h **** {
  16:../../libDaisy//src/hid/disp/oled_display.h ****   public:
  17:../../libDaisy//src/hid/disp/oled_display.h ****     OledDisplay() {}
  18:../../libDaisy//src/hid/disp/oled_display.h ****     virtual ~OledDisplay() {}
  19:../../libDaisy//src/hid/disp/oled_display.h **** 
  20:../../libDaisy//src/hid/disp/oled_display.h ****     struct Config
  21:../../libDaisy//src/hid/disp/oled_display.h ****     {
  22:../../libDaisy//src/hid/disp/oled_display.h ****         typename DisplayDriver::Config driver_config;
  23:../../libDaisy//src/hid/disp/oled_display.h ****     };
  24:../../libDaisy//src/hid/disp/oled_display.h **** 
  25:../../libDaisy//src/hid/disp/oled_display.h ****     void Init(Config config) { driver_.Init(config.driver_config); }
  26:../../libDaisy//src/hid/disp/oled_display.h **** 
  27:../../libDaisy//src/hid/disp/oled_display.h ****     uint16_t Height() const override { return driver_.Height(); }
  30              		.loc 1 27 14 view -0
  31              		.cfi_startproc
ARM GAS  /var/folders/1y/_321xjh9623c014x9_qw12rr0000gn/T//ccXuncwa.s 			page 2


  32              		@ args = 0, pretend = 0, frame = 0
  33              		@ frame_needed = 0, uses_anonymous_args = 0
  34              		@ link register save eliminated.
  35              		.loc 1 27 65 is_stmt 0 view .LVU1
  36 0000 4020     		movs	r0, #64
  37              	.LVL1:
  38              		.loc 1 27 65 view .LVU2
  39 0002 7047     		bx	lr
  40              		.cfi_endproc
  41              	.LFE2646:
  43              		.section	.text._ZNK5daisy11OledDisplayINS_13SSD130xDriverILj128ELj64ENS_24SSD130x4WireSpiTransport
  44              		.align	1
  45              		.p2align 2,,3
  46              		.weak	_ZNK5daisy11OledDisplayINS_13SSD130xDriverILj128ELj64ENS_24SSD130x4WireSpiTransportEEEE5Widt
  47              		.syntax unified
  48              		.thumb
  49              		.thumb_func
  51              	_ZNK5daisy11OledDisplayINS_13SSD130xDriverILj128ELj64ENS_24SSD130x4WireSpiTransportEEEE5WidthEv:
  52              	.LVL2:
  53              	.LFB2647:
  28:../../libDaisy//src/hid/disp/oled_display.h ****     uint16_t Width() const override { return driver_.Width(); }
  54              		.loc 1 28 14 is_stmt 1 view -0
  55              		.cfi_startproc
  56              		@ args = 0, pretend = 0, frame = 0
  57              		@ frame_needed = 0, uses_anonymous_args = 0
  58              		@ link register save eliminated.
  59              		.loc 1 28 63 is_stmt 0 view .LVU4
  60 0000 8020     		movs	r0, #128
  61              	.LVL3:
  62              		.loc 1 28 63 view .LVU5
  63 0002 7047     		bx	lr
  64              		.cfi_endproc
  65              	.LFE2647:
  67              		.section	.text._ZN5daisy5Dubby11RenderScopeEv.part.0,"ax",%progbits
  68              		.align	1
  69              		.p2align 2,,3
  70              		.syntax unified
  71              		.thumb
  72              		.thumb_func
  74              	_ZN5daisy5Dubby11RenderScopeEv.part.0:
  75              	.LVL4:
  76              	.LFB2658:
  77              		.file 2 "Dubby.cpp"
   1:Dubby.cpp     **** #include "Dubby.h"
   2:Dubby.cpp     **** 
   3:Dubby.cpp     **** using namespace daisy;
   4:Dubby.cpp     **** 
   5:Dubby.cpp     **** // Hardware Definitions
   6:Dubby.cpp     **** #define PIN_GATE_IN_1 32
   7:Dubby.cpp     **** #define PIN_GATE_IN_2 23
   8:Dubby.cpp     **** #define PIN_GATE_IN_3 17
   9:Dubby.cpp     **** #define PIN_GATE_IN_4 19
  10:Dubby.cpp     **** #define PIN_KNOB_1 18
  11:Dubby.cpp     **** #define PIN_KNOB_2 15
  12:Dubby.cpp     **** #define PIN_KNOB_3 21
  13:Dubby.cpp     **** #define PIN_KNOB_4 22
  14:Dubby.cpp     **** #define PIN_JS_CLICK 3
ARM GAS  /var/folders/1y/_321xjh9623c014x9_qw12rr0000gn/T//ccXuncwa.s 			page 3


  15:Dubby.cpp     **** #define PIN_JS_V 20
  16:Dubby.cpp     **** #define PIN_JS_H 16
  17:Dubby.cpp     **** #define PIN_ENC_CLICK 4
  18:Dubby.cpp     **** #define PIN_ENC_A 6
  19:Dubby.cpp     **** #define PIN_ENC_B 5 
  20:Dubby.cpp     **** #define PIN_OLED_DC 9
  21:Dubby.cpp     **** #define PIN_OLED_RESET 31
  22:Dubby.cpp     **** 
  23:Dubby.cpp     **** #define OLED_WIDTH 128
  24:Dubby.cpp     **** #define OLED_HEIGHT 64
  25:Dubby.cpp     **** 
  26:Dubby.cpp     **** #define PANE_X_START 1
  27:Dubby.cpp     **** #define PANE_X_END 126
  28:Dubby.cpp     **** #define PANE_Y_START 1
  29:Dubby.cpp     **** #define PANE_Y_END 51
  30:Dubby.cpp     **** 
  31:Dubby.cpp     **** #define SUBMENU_X_START 1
  32:Dubby.cpp     **** #define SUBMENU_X_END 63
  33:Dubby.cpp     **** #define SUBMENU_Y_START 1
  34:Dubby.cpp     **** #define SUBMENU_Y_END 11
  35:Dubby.cpp     **** 
  36:Dubby.cpp     **** void Dubby::Init() 
  37:Dubby.cpp     **** {
  38:Dubby.cpp     ****     InitControls();
  39:Dubby.cpp     ****     InitGates();
  40:Dubby.cpp     ****     
  41:Dubby.cpp     ****     screen_update_period_ = 17; // roughly 60Hz
  42:Dubby.cpp     ****     screen_update_last_   = seed.system.GetNow();
  43:Dubby.cpp     **** 
  44:Dubby.cpp     ****     for (int i = 0; i < 5; i++) 
  45:Dubby.cpp     ****     {
  46:Dubby.cpp     ****         submenuBoxBounding[i][0] = SUBMENU_X_START;
  47:Dubby.cpp     ****         submenuBoxBounding[i][1] = SUBMENU_Y_START + i * 10;
  48:Dubby.cpp     ****         submenuBoxBounding[i][2] = SUBMENU_X_END;
  49:Dubby.cpp     ****         submenuBoxBounding[i][3] = SUBMENU_Y_END + i * 10;
  50:Dubby.cpp     ****     }
  51:Dubby.cpp     **** 
  52:Dubby.cpp     ****     InitDisplay();
  53:Dubby.cpp     ****     InitEncoder();
  54:Dubby.cpp     ****     InitAudio();
  55:Dubby.cpp     **** }
  56:Dubby.cpp     **** 
  57:Dubby.cpp     **** void Dubby::InitControls()
  58:Dubby.cpp     **** {
  59:Dubby.cpp     ****     AdcChannelConfig cfg[CTRL_LAST];
  60:Dubby.cpp     **** 
  61:Dubby.cpp     ****     // Init ADC channels with Pins
  62:Dubby.cpp     ****     cfg[CTRL_1].InitSingle(seed.GetPin(PIN_KNOB_1));
  63:Dubby.cpp     ****     cfg[CTRL_2].InitSingle(seed.GetPin(PIN_KNOB_2));
  64:Dubby.cpp     ****     cfg[CTRL_3].InitSingle(seed.GetPin(PIN_KNOB_3));
  65:Dubby.cpp     ****     cfg[CTRL_4].InitSingle(seed.GetPin(PIN_KNOB_4));
  66:Dubby.cpp     ****     cfg[CTRL_5].InitSingle(seed.GetPin(PIN_JS_H));
  67:Dubby.cpp     ****     cfg[CTRL_6].InitSingle(seed.GetPin(PIN_JS_V));
  68:Dubby.cpp     **** 
  69:Dubby.cpp     ****     // Initialize ADC
  70:Dubby.cpp     ****     seed.adc.Init(cfg, CTRL_LAST);
  71:Dubby.cpp     **** 
ARM GAS  /var/folders/1y/_321xjh9623c014x9_qw12rr0000gn/T//ccXuncwa.s 			page 4


  72:Dubby.cpp     ****     // Initialize analogInputs, with flip set to true
  73:Dubby.cpp     ****     for(size_t i = 0; i < CTRL_LAST; i++)
  74:Dubby.cpp     ****     {
  75:Dubby.cpp     ****         analogInputs[i].Init(seed.adc.GetPtr(i), seed.AudioCallbackRate(), true);
  76:Dubby.cpp     ****     }
  77:Dubby.cpp     **** 
  78:Dubby.cpp     ****     seed.adc.Start();
  79:Dubby.cpp     **** }
  80:Dubby.cpp     **** 
  81:Dubby.cpp     **** void Dubby::InitGates()
  82:Dubby.cpp     **** {
  83:Dubby.cpp     ****     dsy_gpio_pin pin;
  84:Dubby.cpp     ****     pin = seed.GetPin(PIN_GATE_IN_1);
  85:Dubby.cpp     ****     gateInputs[GATE_IN_1].Init(&pin);
  86:Dubby.cpp     ****     pin = seed.GetPin(PIN_GATE_IN_2);
  87:Dubby.cpp     ****     gateInputs[GATE_IN_2].Init(&pin);
  88:Dubby.cpp     ****     pin = seed.GetPin(PIN_GATE_IN_3);
  89:Dubby.cpp     ****     gateInputs[GATE_IN_3].Init(&pin);
  90:Dubby.cpp     ****     pin = seed.GetPin(PIN_GATE_IN_4);
  91:Dubby.cpp     ****     gateInputs[GATE_IN_4].Init(&pin);
  92:Dubby.cpp     ****     pin = seed.GetPin(PIN_JS_CLICK);
  93:Dubby.cpp     ****     gateInputs[GATE_IN_5].Init(&pin);
  94:Dubby.cpp     **** }
  95:Dubby.cpp     **** 
  96:Dubby.cpp     **** 
  97:Dubby.cpp     **** void Dubby::InitDisplay() 
  98:Dubby.cpp     **** {
  99:Dubby.cpp     ****     /** Configure the Display */
 100:Dubby.cpp     ****     OledDisplay<SSD130x4WireSpi128x64Driver>::Config disp_cfg;
 101:Dubby.cpp     ****     disp_cfg.driver_config.transport_config.pin_config.dc    = seed.GetPin(9);
 102:Dubby.cpp     ****     disp_cfg.driver_config.transport_config.pin_config.reset = seed.GetPin(31);
 103:Dubby.cpp     ****     /** And Initialize */
 104:Dubby.cpp     ****     display.Init(disp_cfg);
 105:Dubby.cpp     **** }
 106:Dubby.cpp     **** 
 107:Dubby.cpp     **** void Dubby::UpdateDisplay() 
 108:Dubby.cpp     **** {
 109:Dubby.cpp     ****     if (encoder.TimeHeldMs() > 300) 
 110:Dubby.cpp     ****     {
 111:Dubby.cpp     ****         if (!menuActive) 
 112:Dubby.cpp     ****         {
 113:Dubby.cpp     ****             HightlightMenuItem();
 114:Dubby.cpp     ****             menuActive = true;
 115:Dubby.cpp     ****         }
 116:Dubby.cpp     **** 
 117:Dubby.cpp     ****         if (encoder.Increment()) UpdateMenu(encoder.Increment(), true);
 118:Dubby.cpp     ****     } 
 119:Dubby.cpp     **** 
 120:Dubby.cpp     ****     switch(menuItemSelected) 
 121:Dubby.cpp     ****     {
 122:Dubby.cpp     ****         case MENU1:
 123:Dubby.cpp     ****             RenderScope();
 124:Dubby.cpp     ****             break;
 125:Dubby.cpp     ****         case MENU2:
 126:Dubby.cpp     ****             UpdateMixerPane();
 127:Dubby.cpp     ****             break;
 128:Dubby.cpp     ****         case MENU3:
ARM GAS  /var/folders/1y/_321xjh9623c014x9_qw12rr0000gn/T//ccXuncwa.s 			page 5


 129:Dubby.cpp     ****             if (encoder.Pressed() && preferencesMenuItemSelected == OPTION4) ResetToBootloader();
 130:Dubby.cpp     ****             if (encoder.Increment() && !menuActive) UpdatePreferencesMenu(encoder.Increment());
 131:Dubby.cpp     ****             break;
 132:Dubby.cpp     ****         default:
 133:Dubby.cpp     ****             break;
 134:Dubby.cpp     ****     }
 135:Dubby.cpp     ****     
 136:Dubby.cpp     ****     if (encoder.TimeHeldMs() < 300 && menuActive)
 137:Dubby.cpp     ****     {
 138:Dubby.cpp     ****         menuActive = false;
 139:Dubby.cpp     ****         
 140:Dubby.cpp     ****         ReleaseMenu();
 141:Dubby.cpp     ****         UpdateSubmenu();
 142:Dubby.cpp     ****     }
 143:Dubby.cpp     **** }
 144:Dubby.cpp     **** 
 145:Dubby.cpp     **** void Dubby::DrawLogo() 
 146:Dubby.cpp     **** {
 147:Dubby.cpp     ****     DrawBitmap(0);   
 148:Dubby.cpp     **** }
 149:Dubby.cpp     **** 
 150:Dubby.cpp     **** void Dubby::DrawBitmap(int bitmapIndex)
 151:Dubby.cpp     **** {
 152:Dubby.cpp     ****     display.Fill(false);
 153:Dubby.cpp     ****     display.SetCursor(30, 30);
 154:Dubby.cpp     ****     
 155:Dubby.cpp     ****     for (int x = 0; x < OLED_WIDTH; x += 8) {
 156:Dubby.cpp     ****         for (int y = 0; y < OLED_HEIGHT; y++) {
 157:Dubby.cpp     ****             // Calculate the index in the array
 158:Dubby.cpp     ****             int byteIndex = (y * OLED_WIDTH + x) / 8;
 159:Dubby.cpp     **** 
 160:Dubby.cpp     ****             // Get the byte containing 8 pixels
 161:Dubby.cpp     ****             char byte = bitmaps[bitmapIndex][byteIndex];
 162:Dubby.cpp     **** 
 163:Dubby.cpp     ****             // Process 8 pixels in the byte
 164:Dubby.cpp     ****             for (int bitIndex = 0; bitIndex < 8; bitIndex++) {
 165:Dubby.cpp     **** 
 166:Dubby.cpp     ****                 // Get the pixel value (0 or 1)
 167:Dubby.cpp     ****                 char pixel = (byte >> (7 - bitIndex)) & 0x01;
 168:Dubby.cpp     **** 
 169:Dubby.cpp     ****                 bool isWhite = (pixel == 1);
 170:Dubby.cpp     **** 
 171:Dubby.cpp     ****                 display.DrawPixel(x + bitIndex, y, isWhite);
 172:Dubby.cpp     ****             }
 173:Dubby.cpp     **** 
 174:Dubby.cpp     ****             if (y % 6 == 0) display.Update();
 175:Dubby.cpp     ****         }
 176:Dubby.cpp     ****     }
 177:Dubby.cpp     **** }
 178:Dubby.cpp     **** 
 179:Dubby.cpp     **** void Dubby::UpdateMenu(int increment, bool higlight) 
 180:Dubby.cpp     **** {
 181:Dubby.cpp     ****     if ((menuItemSelected >= 0 && increment == 1 && menuItemSelected < 2) || (increment != 1 && men
 182:Dubby.cpp     ****         menuItemSelected = (MenuItems)(menuItemSelected + increment);
 183:Dubby.cpp     **** 
 184:Dubby.cpp     ****     display.Fill(false);
 185:Dubby.cpp     **** 
ARM GAS  /var/folders/1y/_321xjh9623c014x9_qw12rr0000gn/T//ccXuncwa.s 			page 6


 186:Dubby.cpp     ****     if (higlight) HightlightMenuItem();
 187:Dubby.cpp     ****     else ReleaseMenu();
 188:Dubby.cpp     ****     
 189:Dubby.cpp     ****     UpdateSubmenu();
 190:Dubby.cpp     **** 
 191:Dubby.cpp     ****     display.Update();
 192:Dubby.cpp     **** }
 193:Dubby.cpp     **** 
 194:Dubby.cpp     **** void Dubby::HightlightMenuItem() 
 195:Dubby.cpp     **** {
 196:Dubby.cpp     ****     display.DrawRect(menuBoxBounding[menuItemSelected][0], menuBoxBounding[menuItemSelected][1], me
 197:Dubby.cpp     **** 
 198:Dubby.cpp     ****     for (int i = 0; i < 3; i++) 
 199:Dubby.cpp     ****     {
 200:Dubby.cpp     ****         display.SetCursor(menuTextCursors[i][0], menuTextCursors[i][1]);
 201:Dubby.cpp     ****         display.WriteString(GetTextForEnum(MAINMENU, i), Font_6x8, i == menuItemSelected ? false : 
 202:Dubby.cpp     ****     }
 203:Dubby.cpp     **** 
 204:Dubby.cpp     ****     display.DrawRect(PANE_X_START - 1, PANE_Y_START - 1, PANE_X_END + 1, PANE_Y_END + 1, true);
 205:Dubby.cpp     **** 
 206:Dubby.cpp     ****     display.Update();
 207:Dubby.cpp     **** }
 208:Dubby.cpp     **** 
 209:Dubby.cpp     **** void Dubby::ReleaseMenu() 
 210:Dubby.cpp     **** {        
 211:Dubby.cpp     ****     display.Fill(false);
 212:Dubby.cpp     ****     display.DrawRect(menuBoxBounding[menuItemSelected][0], menuBoxBounding[menuItemSelected][1], me
 213:Dubby.cpp     **** 
 214:Dubby.cpp     ****     for (int i = 0; i < MENU_LAST; i++) 
 215:Dubby.cpp     ****     {
 216:Dubby.cpp     ****         display.SetCursor(menuTextCursors[i][0], menuTextCursors[i][1]);
 217:Dubby.cpp     ****         display.WriteString(GetTextForEnum(MAINMENU, i), Font_6x8, true);
 218:Dubby.cpp     ****     }
 219:Dubby.cpp     **** 
 220:Dubby.cpp     ****     display.Update();
 221:Dubby.cpp     **** }
 222:Dubby.cpp     **** 
 223:Dubby.cpp     **** void Dubby::UpdateMixerPane() 
 224:Dubby.cpp     **** {
 225:Dubby.cpp     ****     if(seed.system.GetNow() - screen_update_last_ > screen_update_period_)
 226:Dubby.cpp     ****     {
 227:Dubby.cpp     ****         screen_update_last_ = seed.system.GetNow();
 228:Dubby.cpp     ****         for (int i = 0; i < 4; i++) UpdateBar(i);
 229:Dubby.cpp     ****     }
 230:Dubby.cpp     **** }
 231:Dubby.cpp     **** 
 232:Dubby.cpp     **** void Dubby::UpdateSubmenu()
 233:Dubby.cpp     **** {
 234:Dubby.cpp     ****     switch(menuItemSelected) 
 235:Dubby.cpp     ****     {
 236:Dubby.cpp     ****         case MENU1:
 237:Dubby.cpp     ****             RenderScope();
 238:Dubby.cpp     ****             break;
 239:Dubby.cpp     ****         case MENU2:
 240:Dubby.cpp     ****             // for (int i = 0; i < 4; i++) UpdateBar(i);
 241:Dubby.cpp     ****             break;
 242:Dubby.cpp     ****         case MENU3:
ARM GAS  /var/folders/1y/_321xjh9623c014x9_qw12rr0000gn/T//ccXuncwa.s 			page 7


 243:Dubby.cpp     ****             DisplayPreferencesMenu();
 244:Dubby.cpp     ****             break;
 245:Dubby.cpp     ****         default:
 246:Dubby.cpp     ****             break;
 247:Dubby.cpp     ****     }
 248:Dubby.cpp     **** 
 249:Dubby.cpp     ****     display.Update();
 250:Dubby.cpp     **** }
 251:Dubby.cpp     **** 
 252:Dubby.cpp     **** void Dubby::UpdateBar(int i) 
 253:Dubby.cpp     **** {
 254:Dubby.cpp     ****     display.DrawRect((i * 32)  + margin, 1, ((i + 1) * 31) - margin, 51, false, true);
 255:Dubby.cpp     ****     display.DrawRect((i * 32)  + margin, int(abs(1.0f - GetKnobValue(static_cast<Dubby::Ctrl>(i))) 
 256:Dubby.cpp     ****     display.DrawRect((i * 32)  + margin, int(abs((currentLevels[i] * 5.0f) - 1.0f) * 51.0f) + 1, ((
 257:Dubby.cpp     ****     
 258:Dubby.cpp     ****     display.Update();
 259:Dubby.cpp     **** }
 260:Dubby.cpp     **** 
 261:Dubby.cpp     **** void Dubby::RenderScope()
  78              		.loc 2 261 6 is_stmt 1 view -0
  79              		.cfi_startproc
  80              		@ args = 0, pretend = 0, frame = 32
  81              		@ frame_needed = 0, uses_anonymous_args = 0
  82              	.LBB267:
 262:Dubby.cpp     **** {
 263:Dubby.cpp     ****     if(seed.system.GetNow() - screen_update_last_ > screen_update_period_)
 264:Dubby.cpp     ****     {
 265:Dubby.cpp     ****         screen_update_last_ = seed.system.GetNow();
  83              		.loc 2 265 9 view .LVU7
  84              	.LBE267:
 261:Dubby.cpp     **** {
  85              		.loc 2 261 6 is_stmt 0 view .LVU8
  86 0000 2DE9F04F 		push	{r4, r5, r6, r7, r8, r9, r10, fp, lr}
  87              		.cfi_def_cfa_offset 36
  88              		.cfi_offset 4, -36
  89              		.cfi_offset 5, -32
  90              		.cfi_offset 6, -28
  91              		.cfi_offset 7, -24
  92              		.cfi_offset 8, -20
  93              		.cfi_offset 9, -16
  94              		.cfi_offset 10, -12
  95              		.cfi_offset 11, -8
  96              		.cfi_offset 14, -4
  97 0004 8246     		mov	r10, r0
  98              	.LBB344:
  99              	.LBB268:
 100              	.LBB269:
 101              	.LBB270:
 102              		.file 3 "../../libDaisy//src/hid/disp/display.h"
   1:../../libDaisy//src/hid/disp/display.h **** #pragma once
   2:../../libDaisy//src/hid/disp/display.h **** #ifndef DSY_DISPLAY_H
   3:../../libDaisy//src/hid/disp/display.h **** #define DSY_DISPLAY_H /**< Macro */
   4:../../libDaisy//src/hid/disp/display.h **** #include <cmath>
   5:../../libDaisy//src/hid/disp/display.h **** #include "util/oled_fonts.h"
   6:../../libDaisy//src/hid/disp/display.h **** #include "daisy_core.h"
   7:../../libDaisy//src/hid/disp/display.h **** #include "graphics_common.h"
   8:../../libDaisy//src/hid/disp/display.h **** 
ARM GAS  /var/folders/1y/_321xjh9623c014x9_qw12rr0000gn/T//ccXuncwa.s 			page 8


   9:../../libDaisy//src/hid/disp/display.h **** #ifndef deg2rad
  10:../../libDaisy//src/hid/disp/display.h **** #define deg2rad(deg) ((deg)*3.141592 / 180.0)
  11:../../libDaisy//src/hid/disp/display.h **** #endif
  12:../../libDaisy//src/hid/disp/display.h **** 
  13:../../libDaisy//src/hid/disp/display.h **** namespace daisy
  14:../../libDaisy//src/hid/disp/display.h **** {
  15:../../libDaisy//src/hid/disp/display.h **** /** 
  16:../../libDaisy//src/hid/disp/display.h ****  * This interface is used as a base class for all types of 1bit-per-pixel
  17:../../libDaisy//src/hid/disp/display.h ****  * graphics displays.
  18:../../libDaisy//src/hid/disp/display.h **** */
  19:../../libDaisy//src/hid/disp/display.h **** class OneBitGraphicsDisplay
  20:../../libDaisy//src/hid/disp/display.h **** {
  21:../../libDaisy//src/hid/disp/display.h ****   public:
  22:../../libDaisy//src/hid/disp/display.h ****     OneBitGraphicsDisplay() {}
  23:../../libDaisy//src/hid/disp/display.h ****     virtual ~OneBitGraphicsDisplay() {}
  24:../../libDaisy//src/hid/disp/display.h **** 
  25:../../libDaisy//src/hid/disp/display.h ****     virtual uint16_t Height() const = 0;
  26:../../libDaisy//src/hid/disp/display.h ****     virtual uint16_t Width() const  = 0;
  27:../../libDaisy//src/hid/disp/display.h **** 
  28:../../libDaisy//src/hid/disp/display.h ****     Rectangle GetBounds() const
  29:../../libDaisy//src/hid/disp/display.h ****     {
  30:../../libDaisy//src/hid/disp/display.h ****         return Rectangle(int16_t(Width()), int16_t(Height()));
  31:../../libDaisy//src/hid/disp/display.h ****     }
  32:../../libDaisy//src/hid/disp/display.h **** 
  33:../../libDaisy//src/hid/disp/display.h **** 
  34:../../libDaisy//src/hid/disp/display.h ****     size_t CurrentX() { return currentX_; };
  35:../../libDaisy//src/hid/disp/display.h ****     size_t CurrentY() { return currentY_; };
  36:../../libDaisy//src/hid/disp/display.h **** 
  37:../../libDaisy//src/hid/disp/display.h ****     /** 
  38:../../libDaisy//src/hid/disp/display.h ****     Fills the entire display with either on/off.
  39:../../libDaisy//src/hid/disp/display.h ****     \param on Sets on or off.
  40:../../libDaisy//src/hid/disp/display.h ****     */
  41:../../libDaisy//src/hid/disp/display.h ****     virtual void Fill(bool on) = 0;
  42:../../libDaisy//src/hid/disp/display.h **** 
  43:../../libDaisy//src/hid/disp/display.h ****     /**
  44:../../libDaisy//src/hid/disp/display.h ****     Sets the pixel at the specified coordinate to be on/off.
  45:../../libDaisy//src/hid/disp/display.h ****     \param x   x Coordinate
  46:../../libDaisy//src/hid/disp/display.h ****     \param y   y coordinate
  47:../../libDaisy//src/hid/disp/display.h ****     \param on  on or off
  48:../../libDaisy//src/hid/disp/display.h ****     */
  49:../../libDaisy//src/hid/disp/display.h ****     virtual void DrawPixel(uint_fast8_t x, uint_fast8_t y, bool on) = 0;
  50:../../libDaisy//src/hid/disp/display.h **** 
  51:../../libDaisy//src/hid/disp/display.h ****     /**
  52:../../libDaisy//src/hid/disp/display.h ****     Draws a line from (x1, y1) to (y1, y2)
  53:../../libDaisy//src/hid/disp/display.h ****     \param x1  x Coordinate of the starting point
  54:../../libDaisy//src/hid/disp/display.h ****     \param y1  y Coordinate of the starting point
  55:../../libDaisy//src/hid/disp/display.h ****     \param x2  x Coordinate of the ending point
  56:../../libDaisy//src/hid/disp/display.h ****     \param y2  y Coordinate of the ending point
  57:../../libDaisy//src/hid/disp/display.h ****     \param on  on or off
  58:../../libDaisy//src/hid/disp/display.h ****     */
  59:../../libDaisy//src/hid/disp/display.h ****     virtual void DrawLine(uint_fast8_t x1,
  60:../../libDaisy//src/hid/disp/display.h ****                           uint_fast8_t y1,
  61:../../libDaisy//src/hid/disp/display.h ****                           uint_fast8_t x2,
  62:../../libDaisy//src/hid/disp/display.h ****                           uint_fast8_t y2,
  63:../../libDaisy//src/hid/disp/display.h ****                           bool         on)
  64:../../libDaisy//src/hid/disp/display.h ****         = 0;
  65:../../libDaisy//src/hid/disp/display.h **** 
ARM GAS  /var/folders/1y/_321xjh9623c014x9_qw12rr0000gn/T//ccXuncwa.s 			page 9


  66:../../libDaisy//src/hid/disp/display.h ****     /**
  67:../../libDaisy//src/hid/disp/display.h ****     Draws a rectangle based on two coordinates.
  68:../../libDaisy//src/hid/disp/display.h ****     \param x1 x Coordinate of the first point
  69:../../libDaisy//src/hid/disp/display.h ****     \param y1 y Coordinate of the first point
  70:../../libDaisy//src/hid/disp/display.h ****     \param x2 x Coordinate of the second point
  71:../../libDaisy//src/hid/disp/display.h ****     \param y2 y Coordinate of the second point
  72:../../libDaisy//src/hid/disp/display.h ****     \param on on or off
  73:../../libDaisy//src/hid/disp/display.h ****     \param fill fill the rectangle or draw only the outline
  74:../../libDaisy//src/hid/disp/display.h ****     */
  75:../../libDaisy//src/hid/disp/display.h ****     virtual void DrawRect(uint_fast8_t x1,
  76:../../libDaisy//src/hid/disp/display.h ****                           uint_fast8_t y1,
  77:../../libDaisy//src/hid/disp/display.h ****                           uint_fast8_t x2,
  78:../../libDaisy//src/hid/disp/display.h ****                           uint_fast8_t y2,
  79:../../libDaisy//src/hid/disp/display.h ****                           bool         on,
  80:../../libDaisy//src/hid/disp/display.h ****                           bool         fill = false)
  81:../../libDaisy//src/hid/disp/display.h ****         = 0;
  82:../../libDaisy//src/hid/disp/display.h **** 
  83:../../libDaisy//src/hid/disp/display.h ****     /**
  84:../../libDaisy//src/hid/disp/display.h ****     Draws a rectangle.
  85:../../libDaisy//src/hid/disp/display.h ****     \param rect the rectangle
  86:../../libDaisy//src/hid/disp/display.h ****     \param on   on or off
  87:../../libDaisy//src/hid/disp/display.h ****     \param fill fill the rectangle or draw only the outline
  88:../../libDaisy//src/hid/disp/display.h ****     */
  89:../../libDaisy//src/hid/disp/display.h ****     void DrawRect(const Rectangle& rect, bool on, bool fill = false)
  90:../../libDaisy//src/hid/disp/display.h ****     {
  91:../../libDaisy//src/hid/disp/display.h ****         DrawRect(rect.GetX(),
  92:../../libDaisy//src/hid/disp/display.h ****                  rect.GetY(),
  93:../../libDaisy//src/hid/disp/display.h ****                  rect.GetRight(),
  94:../../libDaisy//src/hid/disp/display.h ****                  rect.GetBottom(),
  95:../../libDaisy//src/hid/disp/display.h ****                  on,
  96:../../libDaisy//src/hid/disp/display.h ****                  fill);
  97:../../libDaisy//src/hid/disp/display.h ****     }
  98:../../libDaisy//src/hid/disp/display.h **** 
  99:../../libDaisy//src/hid/disp/display.h ****     /**
 100:../../libDaisy//src/hid/disp/display.h ****     Draws an arc around the specified coordinate
 101:../../libDaisy//src/hid/disp/display.h ****     \param x           x Coordinate of the center of the arc
 102:../../libDaisy//src/hid/disp/display.h ****     \param y           y Coordinate of the center of the arc
 103:../../libDaisy//src/hid/disp/display.h ****     \param radius      radius of the arc
 104:../../libDaisy//src/hid/disp/display.h ****     \param start_angle angle where to start the arc
 105:../../libDaisy//src/hid/disp/display.h ****     \param sweep       total angle of the arc
 106:../../libDaisy//src/hid/disp/display.h ****     \param on  on or off
 107:../../libDaisy//src/hid/disp/display.h ****     */
 108:../../libDaisy//src/hid/disp/display.h ****     virtual void DrawArc(uint_fast8_t x,
 109:../../libDaisy//src/hid/disp/display.h ****                          uint_fast8_t y,
 110:../../libDaisy//src/hid/disp/display.h ****                          uint_fast8_t radius,
 111:../../libDaisy//src/hid/disp/display.h ****                          int_fast16_t start_angle,
 112:../../libDaisy//src/hid/disp/display.h ****                          int_fast16_t sweep,
 113:../../libDaisy//src/hid/disp/display.h ****                          bool         on)
 114:../../libDaisy//src/hid/disp/display.h ****         = 0;
 115:../../libDaisy//src/hid/disp/display.h **** 
 116:../../libDaisy//src/hid/disp/display.h ****     /**
 117:../../libDaisy//src/hid/disp/display.h ****     Draws a circle around the specified coordinate
 118:../../libDaisy//src/hid/disp/display.h ****     \param x           x Coordinate of the center of the circle
 119:../../libDaisy//src/hid/disp/display.h ****     \param y           y Coordinate of the center of the circle
 120:../../libDaisy//src/hid/disp/display.h ****     \param radius      radius of the circle
 121:../../libDaisy//src/hid/disp/display.h ****     \param on  on or off
 122:../../libDaisy//src/hid/disp/display.h ****     */
ARM GAS  /var/folders/1y/_321xjh9623c014x9_qw12rr0000gn/T//ccXuncwa.s 			page 10


 123:../../libDaisy//src/hid/disp/display.h ****     void
 124:../../libDaisy//src/hid/disp/display.h ****     DrawCircle(uint_fast8_t x, uint_fast8_t y, uint_fast8_t radius, bool on)
 125:../../libDaisy//src/hid/disp/display.h ****     {
 126:../../libDaisy//src/hid/disp/display.h ****         DrawArc(x, y, radius, 0, 360, on);
 127:../../libDaisy//src/hid/disp/display.h ****     };
 128:../../libDaisy//src/hid/disp/display.h **** 
 129:../../libDaisy//src/hid/disp/display.h ****     /** 
 130:../../libDaisy//src/hid/disp/display.h ****     Writes the character with the specific FontDef
 131:../../libDaisy//src/hid/disp/display.h ****     to the display buffer at the current Cursor position.
 132:../../libDaisy//src/hid/disp/display.h ****     \param ch character to be written
 133:../../libDaisy//src/hid/disp/display.h ****     \param font font to be written in
 134:../../libDaisy//src/hid/disp/display.h ****     \param on    on or off
 135:../../libDaisy//src/hid/disp/display.h ****     \return &
 136:../../libDaisy//src/hid/disp/display.h ****     */
 137:../../libDaisy//src/hid/disp/display.h ****     virtual char WriteChar(char ch, FontDef font, bool on) = 0;
 138:../../libDaisy//src/hid/disp/display.h **** 
 139:../../libDaisy//src/hid/disp/display.h ****     /** 
 140:../../libDaisy//src/hid/disp/display.h ****     Similar to WriteChar, except it will handle an entire String.
 141:../../libDaisy//src/hid/disp/display.h ****     Wrapping does not happen automatically, so the width
 142:../../libDaisy//src/hid/disp/display.h ****     of the string must be kept within the dimensions of the screen.
 143:../../libDaisy//src/hid/disp/display.h ****     \param str string to be written
 144:../../libDaisy//src/hid/disp/display.h ****     \param font font to use
 145:../../libDaisy//src/hid/disp/display.h ****     \param on  on or off
 146:../../libDaisy//src/hid/disp/display.h ****     \return &
 147:../../libDaisy//src/hid/disp/display.h ****     */
 148:../../libDaisy//src/hid/disp/display.h ****     virtual char WriteString(const char* str, FontDef font, bool on) = 0;
 149:../../libDaisy//src/hid/disp/display.h **** 
 150:../../libDaisy//src/hid/disp/display.h ****     /** 
 151:../../libDaisy//src/hid/disp/display.h ****     Similar to WriteString but justified within a bounding box.
 152:../../libDaisy//src/hid/disp/display.h ****     \param str          string to be written
 153:../../libDaisy//src/hid/disp/display.h ****     \param font         font to use
 154:../../libDaisy//src/hid/disp/display.h ****     \param boundingBox  the bounding box to draw the text in
 155:../../libDaisy//src/hid/disp/display.h ****     \param alignment    the alignment to use
 156:../../libDaisy//src/hid/disp/display.h ****     \param on           on or off
 157:../../libDaisy//src/hid/disp/display.h ****     \return The rectangle that was drawn to
 158:../../libDaisy//src/hid/disp/display.h ****     */
 159:../../libDaisy//src/hid/disp/display.h ****     virtual Rectangle WriteStringAligned(const char*    str,
 160:../../libDaisy//src/hid/disp/display.h ****                                          const FontDef& font,
 161:../../libDaisy//src/hid/disp/display.h ****                                          Rectangle      boundingBox,
 162:../../libDaisy//src/hid/disp/display.h ****                                          Alignment      alignment,
 163:../../libDaisy//src/hid/disp/display.h ****                                          bool           on)
 164:../../libDaisy//src/hid/disp/display.h ****         = 0;
 165:../../libDaisy//src/hid/disp/display.h **** 
 166:../../libDaisy//src/hid/disp/display.h ****     /** 
 167:../../libDaisy//src/hid/disp/display.h ****     Moves the 'Cursor' position used for WriteChar, and WriteStr to the specified coordinate.
 168:../../libDaisy//src/hid/disp/display.h ****     \param x x pos
 169:../../libDaisy//src/hid/disp/display.h ****     \param y y pos
 170:../../libDaisy//src/hid/disp/display.h ****     */
 171:../../libDaisy//src/hid/disp/display.h ****     void SetCursor(uint16_t x, uint16_t y)
 172:../../libDaisy//src/hid/disp/display.h ****     {
 173:../../libDaisy//src/hid/disp/display.h ****         currentX_ = (x >= Width()) ? Width() - 1 : x;
 174:../../libDaisy//src/hid/disp/display.h ****         currentY_ = (y >= Height()) ? Height() - 1 : y;
 175:../../libDaisy//src/hid/disp/display.h ****     }
 176:../../libDaisy//src/hid/disp/display.h **** 
 177:../../libDaisy//src/hid/disp/display.h ****     /** 
 178:../../libDaisy//src/hid/disp/display.h ****     Writes the current display buffer to the OLED device using SPI or I2C depending on 
 179:../../libDaisy//src/hid/disp/display.h ****     how the object was initialized.
ARM GAS  /var/folders/1y/_321xjh9623c014x9_qw12rr0000gn/T//ccXuncwa.s 			page 11


 180:../../libDaisy//src/hid/disp/display.h ****     */
 181:../../libDaisy//src/hid/disp/display.h ****     virtual void Update() = 0;
 182:../../libDaisy//src/hid/disp/display.h **** 
 183:../../libDaisy//src/hid/disp/display.h ****   protected:
 184:../../libDaisy//src/hid/disp/display.h ****     uint16_t currentX_;
 185:../../libDaisy//src/hid/disp/display.h ****     uint16_t currentY_;
 186:../../libDaisy//src/hid/disp/display.h **** };
 187:../../libDaisy//src/hid/disp/display.h **** 
 188:../../libDaisy//src/hid/disp/display.h **** /** This class is intended as a intermediary class for your actual implementation of the OneBitGrap
 189:../../libDaisy//src/hid/disp/display.h ****  *  interface. It uses the CRTP design pattern where the template argument is the child class. It p
 190:../../libDaisy//src/hid/disp/display.h ****  *  implementations for most of the functions, except DrawPixel(), Update() and Fill(), which you'l
 191:../../libDaisy//src/hid/disp/display.h ****  *  to provide in your child class.
 192:../../libDaisy//src/hid/disp/display.h ****  *  The main goal of this class is to provide common drawing functions without relying on massive a
 193:../../libDaisy//src/hid/disp/display.h ****  *  virtual function calls that would result in a performance loss. To achieve this, any drawing fu
 194:../../libDaisy//src/hid/disp/display.h ****  *  is implemented here and internally calls other drawing functions (e.g. DrawRect() which interna
 195:../../libDaisy//src/hid/disp/display.h ****  *  DrawPixel() and DrawLine()) makes these calls via the qualified name of these functions to expl
 196:../../libDaisy//src/hid/disp/display.h ****  *  suppress the virtual dispatch mechanism like this:
 197:../../libDaisy//src/hid/disp/display.h ****  * 
 198:../../libDaisy//src/hid/disp/display.h ****  *      ChildType::DrawPixel(...); // no virtual function call; direct call into the child class fu
 199:../../libDaisy//src/hid/disp/display.h ****  *  
 200:../../libDaisy//src/hid/disp/display.h ****  *  To create a custom OneBitGraphicsDisplay implementation, you can 
 201:../../libDaisy//src/hid/disp/display.h ****  *  A) inherit from OneBitGraphicsDisplay directly and provide all the drawing functions yourself
 202:../../libDaisy//src/hid/disp/display.h ****  *  B) Inherit from OneBitGraphicsDisplayImpl and only provide DrawPixel(), Fill() and Update()
 203:../../libDaisy//src/hid/disp/display.h ****  *     like this:
 204:../../libDaisy//src/hid/disp/display.h ****  *  
 205:../../libDaisy//src/hid/disp/display.h ****  *      class MyDisplayClass : public OneBitGraphicsDisplayImpl<MyDisplayClass> 
 206:../../libDaisy//src/hid/disp/display.h ****  *      {
 207:../../libDaisy//src/hid/disp/display.h ****  *      public:
 208:../../libDaisy//src/hid/disp/display.h ****  *          void Fill() override { ... };
 209:../../libDaisy//src/hid/disp/display.h ****  *          void DrawPixel(uint_fast8_t x, uint_fast8_t y, bool on) override { ... };
 210:../../libDaisy//src/hid/disp/display.h ****  *          void Update() override { ... }
 211:../../libDaisy//src/hid/disp/display.h ****  *      };
 212:../../libDaisy//src/hid/disp/display.h ****  *  
 213:../../libDaisy//src/hid/disp/display.h ****  */
 214:../../libDaisy//src/hid/disp/display.h **** template <class ChildType>
 215:../../libDaisy//src/hid/disp/display.h **** class OneBitGraphicsDisplayImpl : public OneBitGraphicsDisplay
 216:../../libDaisy//src/hid/disp/display.h **** {
 217:../../libDaisy//src/hid/disp/display.h ****   public:
 218:../../libDaisy//src/hid/disp/display.h ****     OneBitGraphicsDisplayImpl() {}
 219:../../libDaisy//src/hid/disp/display.h ****     virtual ~OneBitGraphicsDisplayImpl() {}
 220:../../libDaisy//src/hid/disp/display.h **** 
 221:../../libDaisy//src/hid/disp/display.h ****     void DrawLine(uint_fast8_t x1,
 222:../../libDaisy//src/hid/disp/display.h ****                   uint_fast8_t y1,
 223:../../libDaisy//src/hid/disp/display.h ****                   uint_fast8_t x2,
 224:../../libDaisy//src/hid/disp/display.h ****                   uint_fast8_t y2,
 225:../../libDaisy//src/hid/disp/display.h ****                   bool         on) override
 226:../../libDaisy//src/hid/disp/display.h ****     {
 227:../../libDaisy//src/hid/disp/display.h ****         int_fast16_t deltaX = abs((int_fast16_t)x2 - (int_fast16_t)x1);
 228:../../libDaisy//src/hid/disp/display.h ****         int_fast16_t deltaY = abs((int_fast16_t)y2 - (int_fast16_t)y1);
 229:../../libDaisy//src/hid/disp/display.h ****         int_fast16_t signX  = ((x1 < x2) ? 1 : -1);
 230:../../libDaisy//src/hid/disp/display.h ****         int_fast16_t signY  = ((y1 < y2) ? 1 : -1);
 231:../../libDaisy//src/hid/disp/display.h ****         int_fast16_t error  = deltaX - deltaY;
 232:../../libDaisy//src/hid/disp/display.h ****         int_fast16_t error2;
 233:../../libDaisy//src/hid/disp/display.h **** 
 234:../../libDaisy//src/hid/disp/display.h ****         // If we write "ChildType::DrawPixel(x2, y2, on);", we end up with
 235:../../libDaisy//src/hid/disp/display.h ****         // all sorts of weird compiler errors when the Child class is a template
 236:../../libDaisy//src/hid/disp/display.h ****         // class. The only way around this is to use this very verbose syntax:
ARM GAS  /var/folders/1y/_321xjh9623c014x9_qw12rr0000gn/T//ccXuncwa.s 			page 12


 237:../../libDaisy//src/hid/disp/display.h ****         ((ChildType*)(this))->ChildType::DrawPixel(x2, y2, on);
 238:../../libDaisy//src/hid/disp/display.h **** 
 239:../../libDaisy//src/hid/disp/display.h ****         while((x1 != x2) || (y1 != y2))
 240:../../libDaisy//src/hid/disp/display.h ****         {
 241:../../libDaisy//src/hid/disp/display.h ****             ((ChildType*)(this))->ChildType::DrawPixel(x1, y1, on);
 242:../../libDaisy//src/hid/disp/display.h ****             error2 = error * 2;
 243:../../libDaisy//src/hid/disp/display.h ****             if(error2 > -deltaY)
 244:../../libDaisy//src/hid/disp/display.h ****             {
 245:../../libDaisy//src/hid/disp/display.h ****                 error -= deltaY;
 246:../../libDaisy//src/hid/disp/display.h ****                 x1 += signX;
 247:../../libDaisy//src/hid/disp/display.h ****             }
 248:../../libDaisy//src/hid/disp/display.h **** 
 249:../../libDaisy//src/hid/disp/display.h ****             if(error2 < deltaX)
 250:../../libDaisy//src/hid/disp/display.h ****             {
 251:../../libDaisy//src/hid/disp/display.h ****                 error += deltaX;
 252:../../libDaisy//src/hid/disp/display.h ****                 y1 += signY;
 253:../../libDaisy//src/hid/disp/display.h ****             }
 254:../../libDaisy//src/hid/disp/display.h ****         }
 255:../../libDaisy//src/hid/disp/display.h ****     }
 256:../../libDaisy//src/hid/disp/display.h **** 
 257:../../libDaisy//src/hid/disp/display.h ****     void DrawRect(uint_fast8_t x1,
 258:../../libDaisy//src/hid/disp/display.h ****                   uint_fast8_t y1,
 259:../../libDaisy//src/hid/disp/display.h ****                   uint_fast8_t x2,
 260:../../libDaisy//src/hid/disp/display.h ****                   uint_fast8_t y2,
 261:../../libDaisy//src/hid/disp/display.h ****                   bool         on,
 262:../../libDaisy//src/hid/disp/display.h ****                   bool         fill = false) override
 263:../../libDaisy//src/hid/disp/display.h ****     {
 264:../../libDaisy//src/hid/disp/display.h ****         if(fill)
 265:../../libDaisy//src/hid/disp/display.h ****         {
 266:../../libDaisy//src/hid/disp/display.h ****             for(uint_fast8_t x = x1; x <= x2; x++)
 103              		.loc 3 266 30 view .LVU9
 104 0006 0125     		movs	r5, #1
 105              	.LBE270:
 106              	.LBE269:
 107              	.LBE268:
 108              	.LBE344:
 261:Dubby.cpp     **** {
 109              		.loc 2 261 6 view .LVU10
 110 0008 89B0     		sub	sp, sp, #36
 111              		.cfi_def_cfa_offset 72
 112              	.LBB345:
 113              		.loc 2 265 49 view .LVU11
 114 000a FFF7FEFF 		bl	_ZN5daisy6System6GetNowEv
 115              	.LVL5:
 116              		.loc 2 265 29 view .LVU12
 117 000e CAF82C08 		str	r0, [r10, #2092]
 266:Dubby.cpp     ****         display.DrawRect(PANE_X_START, PANE_Y_START, PANE_X_END, PANE_Y_END, false, true);
 118              		.loc 2 266 9 is_stmt 1 view .LVU13
 119              	.LVL6:
 120              	.LBB289:
 121              	.LBI268:
 257:../../libDaisy//src/hid/disp/display.h ****                   uint_fast8_t y1,
 122              		.loc 3 257 10 view .LVU14
 123              	.LBB287:
 124              	.LBI269:
 257:../../libDaisy//src/hid/disp/display.h ****                   uint_fast8_t y1,
 125              		.loc 3 257 10 view .LVU15
ARM GAS  /var/folders/1y/_321xjh9623c014x9_qw12rr0000gn/T//ccXuncwa.s 			page 13


 126              	.LBB285:
 127              		.loc 3 266 40 view .LVU16
 128              	.L6:
 129              	.LBB271:
 267:../../libDaisy//src/hid/disp/display.h ****             {
 268:../../libDaisy//src/hid/disp/display.h ****                 for(uint_fast8_t y = y1; y <= y2; y++)
 130              		.loc 3 268 44 view .LVU17
 131              		.loc 3 268 34 is_stmt 0 view .LVU18
 132 0012 0122     		movs	r2, #1
 133              	.LVL7:
 134              	.L5:
 135              	.LBB272:
 136              	.LBI272:
  29:../../libDaisy//src/hid/disp/oled_display.h **** 
  30:../../libDaisy//src/hid/disp/oled_display.h ****     /** 
  31:../../libDaisy//src/hid/disp/oled_display.h ****     Fills the entire display with either on/off.
  32:../../libDaisy//src/hid/disp/oled_display.h ****     \param on Sets on or off.
  33:../../libDaisy//src/hid/disp/oled_display.h ****     */
  34:../../libDaisy//src/hid/disp/oled_display.h ****     void Fill(bool on) override { driver_.Fill(on); }
  35:../../libDaisy//src/hid/disp/oled_display.h **** 
  36:../../libDaisy//src/hid/disp/oled_display.h ****     /**
  37:../../libDaisy//src/hid/disp/oled_display.h ****     Sets the pixel at the specified coordinate to be on/off.
  38:../../libDaisy//src/hid/disp/oled_display.h ****     \param x   x Coordinate
  39:../../libDaisy//src/hid/disp/oled_display.h ****     \param y   y coordinate
  40:../../libDaisy//src/hid/disp/oled_display.h ****     \param on  on or off
  41:../../libDaisy//src/hid/disp/oled_display.h ****     */
  42:../../libDaisy//src/hid/disp/oled_display.h ****     void DrawPixel(uint_fast8_t x, uint_fast8_t y, bool on) override
 137              		.loc 1 42 10 is_stmt 1 view .LVU19
 138              	.LBB273:
 139              	.LBI273:
 140              		.file 4 "../../libDaisy//src/dev/oled_ssd130x.h"
   1:../../libDaisy//src/dev/oled_ssd130x.h **** #pragma once
   2:../../libDaisy//src/dev/oled_ssd130x.h **** #ifndef SA_OLED_SSD130X_H
   3:../../libDaisy//src/dev/oled_ssd130x.h **** #define SA_OLED_SSD130X_H /**< & */
   4:../../libDaisy//src/dev/oled_ssd130x.h **** 
   5:../../libDaisy//src/dev/oled_ssd130x.h **** #include "per/i2c.h"
   6:../../libDaisy//src/dev/oled_ssd130x.h **** #include "per/spi.h"
   7:../../libDaisy//src/dev/oled_ssd130x.h **** #include "per/gpio.h"
   8:../../libDaisy//src/dev/oled_ssd130x.h **** #include "sys/system.h"
   9:../../libDaisy//src/dev/oled_ssd130x.h **** 
  10:../../libDaisy//src/dev/oled_ssd130x.h **** namespace daisy
  11:../../libDaisy//src/dev/oled_ssd130x.h **** {
  12:../../libDaisy//src/dev/oled_ssd130x.h **** /**
  13:../../libDaisy//src/dev/oled_ssd130x.h ****  * I2C Transport for SSD1306 / SSD1309 OLED display devices
  14:../../libDaisy//src/dev/oled_ssd130x.h ****  */
  15:../../libDaisy//src/dev/oled_ssd130x.h **** class SSD130xI2CTransport
  16:../../libDaisy//src/dev/oled_ssd130x.h **** {
  17:../../libDaisy//src/dev/oled_ssd130x.h ****   public:
  18:../../libDaisy//src/dev/oled_ssd130x.h ****     struct Config
  19:../../libDaisy//src/dev/oled_ssd130x.h ****     {
  20:../../libDaisy//src/dev/oled_ssd130x.h ****         Config()
  21:../../libDaisy//src/dev/oled_ssd130x.h ****         {
  22:../../libDaisy//src/dev/oled_ssd130x.h ****             // Intialize using defaults
  23:../../libDaisy//src/dev/oled_ssd130x.h ****             Defaults();
  24:../../libDaisy//src/dev/oled_ssd130x.h ****         }
  25:../../libDaisy//src/dev/oled_ssd130x.h ****         I2CHandle::Config i2c_config;
  26:../../libDaisy//src/dev/oled_ssd130x.h ****         uint8_t           i2c_address;
ARM GAS  /var/folders/1y/_321xjh9623c014x9_qw12rr0000gn/T//ccXuncwa.s 			page 14


  27:../../libDaisy//src/dev/oled_ssd130x.h ****         void              Defaults()
  28:../../libDaisy//src/dev/oled_ssd130x.h ****         {
  29:../../libDaisy//src/dev/oled_ssd130x.h ****             i2c_config.periph         = I2CHandle::Config::Peripheral::I2C_1;
  30:../../libDaisy//src/dev/oled_ssd130x.h ****             i2c_config.speed          = I2CHandle::Config::Speed::I2C_1MHZ;
  31:../../libDaisy//src/dev/oled_ssd130x.h ****             i2c_config.mode           = I2CHandle::Config::Mode::I2C_MASTER;
  32:../../libDaisy//src/dev/oled_ssd130x.h ****             i2c_config.pin_config.scl = {DSY_GPIOB, 8};
  33:../../libDaisy//src/dev/oled_ssd130x.h ****             i2c_config.pin_config.sda = {DSY_GPIOB, 9};
  34:../../libDaisy//src/dev/oled_ssd130x.h ****             i2c_address               = 0x3C;
  35:../../libDaisy//src/dev/oled_ssd130x.h ****         }
  36:../../libDaisy//src/dev/oled_ssd130x.h ****     };
  37:../../libDaisy//src/dev/oled_ssd130x.h ****     void Init(const Config& config)
  38:../../libDaisy//src/dev/oled_ssd130x.h ****     {
  39:../../libDaisy//src/dev/oled_ssd130x.h ****         i2c_address_ = config.i2c_address;
  40:../../libDaisy//src/dev/oled_ssd130x.h ****         i2c_.Init(config.i2c_config);
  41:../../libDaisy//src/dev/oled_ssd130x.h ****     };
  42:../../libDaisy//src/dev/oled_ssd130x.h ****     void SendCommand(uint8_t cmd)
  43:../../libDaisy//src/dev/oled_ssd130x.h ****     {
  44:../../libDaisy//src/dev/oled_ssd130x.h ****         uint8_t buf[2] = {0X00, cmd};
  45:../../libDaisy//src/dev/oled_ssd130x.h ****         i2c_.TransmitBlocking(i2c_address_, buf, 2, 1000);
  46:../../libDaisy//src/dev/oled_ssd130x.h ****     };
  47:../../libDaisy//src/dev/oled_ssd130x.h **** 
  48:../../libDaisy//src/dev/oled_ssd130x.h ****     void SendData(uint8_t* buff, size_t size)
  49:../../libDaisy//src/dev/oled_ssd130x.h ****     {
  50:../../libDaisy//src/dev/oled_ssd130x.h ****         for(size_t i = 0; i < size; i++)
  51:../../libDaisy//src/dev/oled_ssd130x.h ****         {
  52:../../libDaisy//src/dev/oled_ssd130x.h ****             uint8_t buf[2] = {0X40, buff[i]};
  53:../../libDaisy//src/dev/oled_ssd130x.h ****             i2c_.TransmitBlocking(i2c_address_, buf, 2, 1000);
  54:../../libDaisy//src/dev/oled_ssd130x.h ****         }
  55:../../libDaisy//src/dev/oled_ssd130x.h ****     };
  56:../../libDaisy//src/dev/oled_ssd130x.h **** 
  57:../../libDaisy//src/dev/oled_ssd130x.h ****   private:
  58:../../libDaisy//src/dev/oled_ssd130x.h ****     daisy::I2CHandle i2c_;
  59:../../libDaisy//src/dev/oled_ssd130x.h ****     uint8_t          i2c_address_;
  60:../../libDaisy//src/dev/oled_ssd130x.h **** };
  61:../../libDaisy//src/dev/oled_ssd130x.h **** 
  62:../../libDaisy//src/dev/oled_ssd130x.h **** /**
  63:../../libDaisy//src/dev/oled_ssd130x.h ****  * 4 Wire SPI Transport for SSD1306 / SSD1309 OLED display devices
  64:../../libDaisy//src/dev/oled_ssd130x.h ****  */
  65:../../libDaisy//src/dev/oled_ssd130x.h **** class SSD130x4WireSpiTransport
  66:../../libDaisy//src/dev/oled_ssd130x.h **** {
  67:../../libDaisy//src/dev/oled_ssd130x.h ****   public:
  68:../../libDaisy//src/dev/oled_ssd130x.h ****     struct Config
  69:../../libDaisy//src/dev/oled_ssd130x.h ****     {
  70:../../libDaisy//src/dev/oled_ssd130x.h ****         Config()
  71:../../libDaisy//src/dev/oled_ssd130x.h ****         {
  72:../../libDaisy//src/dev/oled_ssd130x.h ****             // Initialize using defaults
  73:../../libDaisy//src/dev/oled_ssd130x.h ****             Defaults();
  74:../../libDaisy//src/dev/oled_ssd130x.h ****         }
  75:../../libDaisy//src/dev/oled_ssd130x.h ****         SpiHandle::Config spi_config;
  76:../../libDaisy//src/dev/oled_ssd130x.h ****         struct
  77:../../libDaisy//src/dev/oled_ssd130x.h ****         {
  78:../../libDaisy//src/dev/oled_ssd130x.h ****             dsy_gpio_pin dc;    /**< & */
  79:../../libDaisy//src/dev/oled_ssd130x.h ****             dsy_gpio_pin reset; /**< & */
  80:../../libDaisy//src/dev/oled_ssd130x.h ****         } pin_config;
  81:../../libDaisy//src/dev/oled_ssd130x.h ****         void Defaults()
  82:../../libDaisy//src/dev/oled_ssd130x.h ****         {
  83:../../libDaisy//src/dev/oled_ssd130x.h ****             // SPI peripheral config
ARM GAS  /var/folders/1y/_321xjh9623c014x9_qw12rr0000gn/T//ccXuncwa.s 			page 15


  84:../../libDaisy//src/dev/oled_ssd130x.h ****             spi_config.periph = SpiHandle::Config::Peripheral::SPI_1;
  85:../../libDaisy//src/dev/oled_ssd130x.h ****             spi_config.mode   = SpiHandle::Config::Mode::MASTER;
  86:../../libDaisy//src/dev/oled_ssd130x.h ****             spi_config.direction
  87:../../libDaisy//src/dev/oled_ssd130x.h ****                 = SpiHandle::Config::Direction::TWO_LINES_TX_ONLY;
  88:../../libDaisy//src/dev/oled_ssd130x.h ****             spi_config.datasize       = 8;
  89:../../libDaisy//src/dev/oled_ssd130x.h ****             spi_config.clock_polarity = SpiHandle::Config::ClockPolarity::LOW;
  90:../../libDaisy//src/dev/oled_ssd130x.h ****             spi_config.clock_phase    = SpiHandle::Config::ClockPhase::ONE_EDGE;
  91:../../libDaisy//src/dev/oled_ssd130x.h ****             spi_config.nss            = SpiHandle::Config::NSS::HARD_OUTPUT;
  92:../../libDaisy//src/dev/oled_ssd130x.h ****             spi_config.baud_prescaler = SpiHandle::Config::BaudPrescaler::PS_8;
  93:../../libDaisy//src/dev/oled_ssd130x.h ****             // SPI pin config
  94:../../libDaisy//src/dev/oled_ssd130x.h ****             spi_config.pin_config.sclk = {DSY_GPIOG, 11};
  95:../../libDaisy//src/dev/oled_ssd130x.h ****             spi_config.pin_config.miso = {DSY_GPIOX, 0};
  96:../../libDaisy//src/dev/oled_ssd130x.h ****             spi_config.pin_config.mosi = {DSY_GPIOB, 5};
  97:../../libDaisy//src/dev/oled_ssd130x.h ****             spi_config.pin_config.nss  = {DSY_GPIOG, 10};
  98:../../libDaisy//src/dev/oled_ssd130x.h ****             // SSD130x control pin config
  99:../../libDaisy//src/dev/oled_ssd130x.h ****             pin_config.dc    = {DSY_GPIOB, 4};
 100:../../libDaisy//src/dev/oled_ssd130x.h ****             pin_config.reset = {DSY_GPIOB, 15};
 101:../../libDaisy//src/dev/oled_ssd130x.h ****         }
 102:../../libDaisy//src/dev/oled_ssd130x.h ****     };
 103:../../libDaisy//src/dev/oled_ssd130x.h ****     void Init(const Config& config)
 104:../../libDaisy//src/dev/oled_ssd130x.h ****     {
 105:../../libDaisy//src/dev/oled_ssd130x.h ****         // Initialize both GPIO
 106:../../libDaisy//src/dev/oled_ssd130x.h ****         pin_dc_.mode = DSY_GPIO_MODE_OUTPUT_PP;
 107:../../libDaisy//src/dev/oled_ssd130x.h ****         pin_dc_.pin  = config.pin_config.dc;
 108:../../libDaisy//src/dev/oled_ssd130x.h ****         dsy_gpio_init(&pin_dc_);
 109:../../libDaisy//src/dev/oled_ssd130x.h ****         pin_reset_.mode = DSY_GPIO_MODE_OUTPUT_PP;
 110:../../libDaisy//src/dev/oled_ssd130x.h ****         pin_reset_.pin  = config.pin_config.reset;
 111:../../libDaisy//src/dev/oled_ssd130x.h ****         dsy_gpio_init(&pin_reset_);
 112:../../libDaisy//src/dev/oled_ssd130x.h **** 
 113:../../libDaisy//src/dev/oled_ssd130x.h ****         // Initialize SPI
 114:../../libDaisy//src/dev/oled_ssd130x.h ****         spi_.Init(config.spi_config);
 115:../../libDaisy//src/dev/oled_ssd130x.h **** 
 116:../../libDaisy//src/dev/oled_ssd130x.h ****         // Reset and Configure OLED.
 117:../../libDaisy//src/dev/oled_ssd130x.h ****         dsy_gpio_write(&pin_reset_, 0);
 118:../../libDaisy//src/dev/oled_ssd130x.h ****         System::Delay(10);
 119:../../libDaisy//src/dev/oled_ssd130x.h ****         dsy_gpio_write(&pin_reset_, 1);
 120:../../libDaisy//src/dev/oled_ssd130x.h ****         System::Delay(10);
 121:../../libDaisy//src/dev/oled_ssd130x.h ****     };
 122:../../libDaisy//src/dev/oled_ssd130x.h ****     void SendCommand(uint8_t cmd)
 123:../../libDaisy//src/dev/oled_ssd130x.h ****     {
 124:../../libDaisy//src/dev/oled_ssd130x.h ****         dsy_gpio_write(&pin_dc_, 0);
 125:../../libDaisy//src/dev/oled_ssd130x.h ****         spi_.BlockingTransmit(&cmd, 1);
 126:../../libDaisy//src/dev/oled_ssd130x.h ****     };
 127:../../libDaisy//src/dev/oled_ssd130x.h **** 
 128:../../libDaisy//src/dev/oled_ssd130x.h ****     void SendData(uint8_t* buff, size_t size)
 129:../../libDaisy//src/dev/oled_ssd130x.h ****     {
 130:../../libDaisy//src/dev/oled_ssd130x.h ****         dsy_gpio_write(&pin_dc_, 1);
 131:../../libDaisy//src/dev/oled_ssd130x.h ****         spi_.BlockingTransmit(buff, size);
 132:../../libDaisy//src/dev/oled_ssd130x.h ****     };
 133:../../libDaisy//src/dev/oled_ssd130x.h **** 
 134:../../libDaisy//src/dev/oled_ssd130x.h ****   private:
 135:../../libDaisy//src/dev/oled_ssd130x.h ****     SpiHandle spi_;
 136:../../libDaisy//src/dev/oled_ssd130x.h ****     dsy_gpio  pin_reset_;
 137:../../libDaisy//src/dev/oled_ssd130x.h ****     dsy_gpio  pin_dc_;
 138:../../libDaisy//src/dev/oled_ssd130x.h **** };
 139:../../libDaisy//src/dev/oled_ssd130x.h **** 
 140:../../libDaisy//src/dev/oled_ssd130x.h **** /**
ARM GAS  /var/folders/1y/_321xjh9623c014x9_qw12rr0000gn/T//ccXuncwa.s 			page 16


 141:../../libDaisy//src/dev/oled_ssd130x.h ****  * Soft SPI Transport for SSD1306 / SSD1309 OLED display devices
 142:../../libDaisy//src/dev/oled_ssd130x.h ****  */
 143:../../libDaisy//src/dev/oled_ssd130x.h **** class SSD130x4WireSoftSpiTransport
 144:../../libDaisy//src/dev/oled_ssd130x.h **** {
 145:../../libDaisy//src/dev/oled_ssd130x.h ****   public:
 146:../../libDaisy//src/dev/oled_ssd130x.h ****     struct Config
 147:../../libDaisy//src/dev/oled_ssd130x.h ****     {
 148:../../libDaisy//src/dev/oled_ssd130x.h ****         Config()
 149:../../libDaisy//src/dev/oled_ssd130x.h ****         {
 150:../../libDaisy//src/dev/oled_ssd130x.h ****             // Initialize using defaults
 151:../../libDaisy//src/dev/oled_ssd130x.h ****             Defaults();
 152:../../libDaisy//src/dev/oled_ssd130x.h ****         }
 153:../../libDaisy//src/dev/oled_ssd130x.h ****         struct
 154:../../libDaisy//src/dev/oled_ssd130x.h ****         {
 155:../../libDaisy//src/dev/oled_ssd130x.h ****             uint32_t     sclk_delay;
 156:../../libDaisy//src/dev/oled_ssd130x.h ****             dsy_gpio_pin sclk;
 157:../../libDaisy//src/dev/oled_ssd130x.h ****             dsy_gpio_pin mosi;
 158:../../libDaisy//src/dev/oled_ssd130x.h ****             dsy_gpio_pin dc;
 159:../../libDaisy//src/dev/oled_ssd130x.h ****             dsy_gpio_pin reset;
 160:../../libDaisy//src/dev/oled_ssd130x.h ****         } pin_config;
 161:../../libDaisy//src/dev/oled_ssd130x.h ****         void Defaults()
 162:../../libDaisy//src/dev/oled_ssd130x.h ****         {
 163:../../libDaisy//src/dev/oled_ssd130x.h ****             pin_config.sclk_delay = 0; // fast as possible?!
 164:../../libDaisy//src/dev/oled_ssd130x.h ****             // SPI peripheral config
 165:../../libDaisy//src/dev/oled_ssd130x.h ****             pin_config.sclk = {DSY_GPIOD, 3}; /**< D10 - SPI2 SCK  */
 166:../../libDaisy//src/dev/oled_ssd130x.h ****             pin_config.mosi = {DSY_GPIOC, 3}; /**< D9  - SPI2 MOSI */
 167:../../libDaisy//src/dev/oled_ssd130x.h ****             // SSD130x control pin config
 168:../../libDaisy//src/dev/oled_ssd130x.h ****             pin_config.dc    = {DSY_GPIOC, 11}; //D2
 169:../../libDaisy//src/dev/oled_ssd130x.h ****             pin_config.reset = {DSY_GPIOC, 10}; //D3
 170:../../libDaisy//src/dev/oled_ssd130x.h ****         }
 171:../../libDaisy//src/dev/oled_ssd130x.h ****     };
 172:../../libDaisy//src/dev/oled_ssd130x.h ****     void Init(const Config& config)
 173:../../libDaisy//src/dev/oled_ssd130x.h ****     {
 174:../../libDaisy//src/dev/oled_ssd130x.h ****         // Initialize both GPIO
 175:../../libDaisy//src/dev/oled_ssd130x.h ****         pin_sclk_.mode = DSY_GPIO_MODE_OUTPUT_PP;
 176:../../libDaisy//src/dev/oled_ssd130x.h ****         pin_sclk_.pin  = config.pin_config.sclk;
 177:../../libDaisy//src/dev/oled_ssd130x.h ****         dsy_gpio_init(&pin_sclk_);
 178:../../libDaisy//src/dev/oled_ssd130x.h ****         dsy_gpio_write(&pin_sclk_, 1); //ClockPolarity::LOW
 179:../../libDaisy//src/dev/oled_ssd130x.h ****         clk_delay      = config.pin_config.sclk_delay;
 180:../../libDaisy//src/dev/oled_ssd130x.h ****         pin_mosi_.mode = DSY_GPIO_MODE_OUTPUT_PP;
 181:../../libDaisy//src/dev/oled_ssd130x.h ****         pin_mosi_.pin  = config.pin_config.mosi;
 182:../../libDaisy//src/dev/oled_ssd130x.h ****         dsy_gpio_init(&pin_mosi_);
 183:../../libDaisy//src/dev/oled_ssd130x.h ****         dsy_gpio_write(&pin_mosi_, 0);
 184:../../libDaisy//src/dev/oled_ssd130x.h **** 
 185:../../libDaisy//src/dev/oled_ssd130x.h ****         pin_dc_.mode = DSY_GPIO_MODE_OUTPUT_PP;
 186:../../libDaisy//src/dev/oled_ssd130x.h ****         pin_dc_.pin  = config.pin_config.dc;
 187:../../libDaisy//src/dev/oled_ssd130x.h ****         dsy_gpio_init(&pin_dc_);
 188:../../libDaisy//src/dev/oled_ssd130x.h ****         pin_reset_.mode = DSY_GPIO_MODE_OUTPUT_PP;
 189:../../libDaisy//src/dev/oled_ssd130x.h ****         pin_reset_.pin  = config.pin_config.reset;
 190:../../libDaisy//src/dev/oled_ssd130x.h ****         dsy_gpio_init(&pin_reset_);
 191:../../libDaisy//src/dev/oled_ssd130x.h **** 
 192:../../libDaisy//src/dev/oled_ssd130x.h ****         // Reset and Configure OLED.
 193:../../libDaisy//src/dev/oled_ssd130x.h ****         dsy_gpio_write(&pin_reset_, 0);
 194:../../libDaisy//src/dev/oled_ssd130x.h ****         System::Delay(10);
 195:../../libDaisy//src/dev/oled_ssd130x.h ****         dsy_gpio_write(&pin_reset_, 1);
 196:../../libDaisy//src/dev/oled_ssd130x.h ****         System::Delay(10);
 197:../../libDaisy//src/dev/oled_ssd130x.h ****     };
ARM GAS  /var/folders/1y/_321xjh9623c014x9_qw12rr0000gn/T//ccXuncwa.s 			page 17


 198:../../libDaisy//src/dev/oled_ssd130x.h ****     void SendCommand(uint8_t cmd)
 199:../../libDaisy//src/dev/oled_ssd130x.h ****     {
 200:../../libDaisy//src/dev/oled_ssd130x.h ****         dsy_gpio_write(&pin_dc_, 0);
 201:../../libDaisy//src/dev/oled_ssd130x.h ****         SoftSpiTransmit(cmd);
 202:../../libDaisy//src/dev/oled_ssd130x.h ****     };
 203:../../libDaisy//src/dev/oled_ssd130x.h **** 
 204:../../libDaisy//src/dev/oled_ssd130x.h ****     void SendData(uint8_t* buff, size_t size)
 205:../../libDaisy//src/dev/oled_ssd130x.h ****     {
 206:../../libDaisy//src/dev/oled_ssd130x.h ****         dsy_gpio_write(&pin_dc_, 1);
 207:../../libDaisy//src/dev/oled_ssd130x.h ****         for(size_t i = 0; i < size; i++)
 208:../../libDaisy//src/dev/oled_ssd130x.h ****             SoftSpiTransmit(buff[i]);
 209:../../libDaisy//src/dev/oled_ssd130x.h ****     };
 210:../../libDaisy//src/dev/oled_ssd130x.h **** 
 211:../../libDaisy//src/dev/oled_ssd130x.h ****   private:
 212:../../libDaisy//src/dev/oled_ssd130x.h ****     void SoftSpiTransmit(uint8_t val)
 213:../../libDaisy//src/dev/oled_ssd130x.h ****     {
 214:../../libDaisy//src/dev/oled_ssd130x.h ****         // bit flip
 215:../../libDaisy//src/dev/oled_ssd130x.h ****         val = ((val & 0x01) << 7) | ((val & 0x02) << 5) | ((val & 0x04) << 3)
 216:../../libDaisy//src/dev/oled_ssd130x.h ****               | ((val & 0x08) << 1) | ((val & 0x10) >> 1) | ((val & 0x20) >> 3)
 217:../../libDaisy//src/dev/oled_ssd130x.h ****               | ((val & 0x40) >> 5) | ((val & 0x80) >> 7);
 218:../../libDaisy//src/dev/oled_ssd130x.h **** 
 219:../../libDaisy//src/dev/oled_ssd130x.h ****         for(uint8_t bit = 0u; bit < 8u; bit++)
 220:../../libDaisy//src/dev/oled_ssd130x.h ****         {
 221:../../libDaisy//src/dev/oled_ssd130x.h ****             dsy_gpio_write(&pin_mosi_, ((val & (1 << bit)) ? 1 : 0));
 222:../../libDaisy//src/dev/oled_ssd130x.h **** 
 223:../../libDaisy//src/dev/oled_ssd130x.h ****             System::DelayTicks(clk_delay);
 224:../../libDaisy//src/dev/oled_ssd130x.h **** 
 225:../../libDaisy//src/dev/oled_ssd130x.h ****             dsy_gpio_toggle(&pin_sclk_);
 226:../../libDaisy//src/dev/oled_ssd130x.h **** 
 227:../../libDaisy//src/dev/oled_ssd130x.h ****             System::DelayTicks(clk_delay);
 228:../../libDaisy//src/dev/oled_ssd130x.h **** 
 229:../../libDaisy//src/dev/oled_ssd130x.h ****             dsy_gpio_toggle(&pin_sclk_);
 230:../../libDaisy//src/dev/oled_ssd130x.h ****         }
 231:../../libDaisy//src/dev/oled_ssd130x.h ****     }
 232:../../libDaisy//src/dev/oled_ssd130x.h **** 
 233:../../libDaisy//src/dev/oled_ssd130x.h ****     uint32_t clk_delay;
 234:../../libDaisy//src/dev/oled_ssd130x.h ****     dsy_gpio pin_sclk_;
 235:../../libDaisy//src/dev/oled_ssd130x.h ****     dsy_gpio pin_mosi_;
 236:../../libDaisy//src/dev/oled_ssd130x.h ****     dsy_gpio pin_reset_;
 237:../../libDaisy//src/dev/oled_ssd130x.h ****     dsy_gpio pin_dc_;
 238:../../libDaisy//src/dev/oled_ssd130x.h **** };
 239:../../libDaisy//src/dev/oled_ssd130x.h **** 
 240:../../libDaisy//src/dev/oled_ssd130x.h **** 
 241:../../libDaisy//src/dev/oled_ssd130x.h **** /**
 242:../../libDaisy//src/dev/oled_ssd130x.h ****  * A driver implementation for the SSD1306/SSD1309
 243:../../libDaisy//src/dev/oled_ssd130x.h ****  */
 244:../../libDaisy//src/dev/oled_ssd130x.h **** template <size_t width, size_t height, typename Transport>
 245:../../libDaisy//src/dev/oled_ssd130x.h **** class SSD130xDriver
 246:../../libDaisy//src/dev/oled_ssd130x.h **** {
 247:../../libDaisy//src/dev/oled_ssd130x.h ****   public:
 248:../../libDaisy//src/dev/oled_ssd130x.h ****     struct Config
 249:../../libDaisy//src/dev/oled_ssd130x.h ****     {
 250:../../libDaisy//src/dev/oled_ssd130x.h ****         typename Transport::Config transport_config;
 251:../../libDaisy//src/dev/oled_ssd130x.h ****     };
 252:../../libDaisy//src/dev/oled_ssd130x.h **** 
 253:../../libDaisy//src/dev/oled_ssd130x.h ****     void Init(Config config)
 254:../../libDaisy//src/dev/oled_ssd130x.h ****     {
ARM GAS  /var/folders/1y/_321xjh9623c014x9_qw12rr0000gn/T//ccXuncwa.s 			page 18


 255:../../libDaisy//src/dev/oled_ssd130x.h ****         transport_.Init(config.transport_config);
 256:../../libDaisy//src/dev/oled_ssd130x.h **** 
 257:../../libDaisy//src/dev/oled_ssd130x.h ****         // Init routine...
 258:../../libDaisy//src/dev/oled_ssd130x.h **** 
 259:../../libDaisy//src/dev/oled_ssd130x.h ****         // Display Off
 260:../../libDaisy//src/dev/oled_ssd130x.h ****         transport_.SendCommand(0xaE);
 261:../../libDaisy//src/dev/oled_ssd130x.h ****         // Dimension dependent commands...
 262:../../libDaisy//src/dev/oled_ssd130x.h ****         switch(height)
 263:../../libDaisy//src/dev/oled_ssd130x.h ****         {
 264:../../libDaisy//src/dev/oled_ssd130x.h ****             case 16:
 265:../../libDaisy//src/dev/oled_ssd130x.h ****                 // Display Clock Divide Ratio
 266:../../libDaisy//src/dev/oled_ssd130x.h ****                 transport_.SendCommand(0xD5);
 267:../../libDaisy//src/dev/oled_ssd130x.h ****                 transport_.SendCommand(0x60);
 268:../../libDaisy//src/dev/oled_ssd130x.h ****                 // Multiplex Ratio
 269:../../libDaisy//src/dev/oled_ssd130x.h ****                 transport_.SendCommand(0xA8);
 270:../../libDaisy//src/dev/oled_ssd130x.h ****                 transport_.SendCommand(0x0F);
 271:../../libDaisy//src/dev/oled_ssd130x.h ****                 // COM Pins
 272:../../libDaisy//src/dev/oled_ssd130x.h ****                 transport_.SendCommand(0xDA);
 273:../../libDaisy//src/dev/oled_ssd130x.h ****                 transport_.SendCommand(0x02);
 274:../../libDaisy//src/dev/oled_ssd130x.h ****                 break;
 275:../../libDaisy//src/dev/oled_ssd130x.h ****             case 32:
 276:../../libDaisy//src/dev/oled_ssd130x.h ****                 // Display Clock Divide Ratio
 277:../../libDaisy//src/dev/oled_ssd130x.h ****                 transport_.SendCommand(0xD5);
 278:../../libDaisy//src/dev/oled_ssd130x.h ****                 transport_.SendCommand(0x80);
 279:../../libDaisy//src/dev/oled_ssd130x.h ****                 // Multiplex Ratio
 280:../../libDaisy//src/dev/oled_ssd130x.h ****                 transport_.SendCommand(0xA8);
 281:../../libDaisy//src/dev/oled_ssd130x.h ****                 transport_.SendCommand(0x1F);
 282:../../libDaisy//src/dev/oled_ssd130x.h ****                 // COM Pins
 283:../../libDaisy//src/dev/oled_ssd130x.h ****                 transport_.SendCommand(0xDA);
 284:../../libDaisy//src/dev/oled_ssd130x.h ****                 if(width == 64)
 285:../../libDaisy//src/dev/oled_ssd130x.h ****                 {
 286:../../libDaisy//src/dev/oled_ssd130x.h ****                     transport_.SendCommand(0x12);
 287:../../libDaisy//src/dev/oled_ssd130x.h ****                 }
 288:../../libDaisy//src/dev/oled_ssd130x.h ****                 else
 289:../../libDaisy//src/dev/oled_ssd130x.h ****                 {
 290:../../libDaisy//src/dev/oled_ssd130x.h ****                     transport_.SendCommand(0x02);
 291:../../libDaisy//src/dev/oled_ssd130x.h ****                 }
 292:../../libDaisy//src/dev/oled_ssd130x.h **** 
 293:../../libDaisy//src/dev/oled_ssd130x.h ****                 break;
 294:../../libDaisy//src/dev/oled_ssd130x.h ****             case 48:
 295:../../libDaisy//src/dev/oled_ssd130x.h ****                 // Display Clock Divide Ratio
 296:../../libDaisy//src/dev/oled_ssd130x.h ****                 transport_.SendCommand(0xD5);
 297:../../libDaisy//src/dev/oled_ssd130x.h ****                 transport_.SendCommand(0x80);
 298:../../libDaisy//src/dev/oled_ssd130x.h ****                 // Multiplex Ratio
 299:../../libDaisy//src/dev/oled_ssd130x.h ****                 transport_.SendCommand(0xA8);
 300:../../libDaisy//src/dev/oled_ssd130x.h ****                 transport_.SendCommand(0x2F);
 301:../../libDaisy//src/dev/oled_ssd130x.h ****                 // COM Pins
 302:../../libDaisy//src/dev/oled_ssd130x.h ****                 transport_.SendCommand(0xDA);
 303:../../libDaisy//src/dev/oled_ssd130x.h ****                 transport_.SendCommand(0x12);
 304:../../libDaisy//src/dev/oled_ssd130x.h ****                 break;
 305:../../libDaisy//src/dev/oled_ssd130x.h ****             default: // 128
 306:../../libDaisy//src/dev/oled_ssd130x.h ****                 // Display Clock Divide Ratio
 307:../../libDaisy//src/dev/oled_ssd130x.h ****                 transport_.SendCommand(0xD5);
 308:../../libDaisy//src/dev/oled_ssd130x.h ****                 transport_.SendCommand(0x80);
 309:../../libDaisy//src/dev/oled_ssd130x.h ****                 // Multiplex Ratio
 310:../../libDaisy//src/dev/oled_ssd130x.h ****                 transport_.SendCommand(0xA8);
 311:../../libDaisy//src/dev/oled_ssd130x.h ****                 transport_.SendCommand(0x3F);
ARM GAS  /var/folders/1y/_321xjh9623c014x9_qw12rr0000gn/T//ccXuncwa.s 			page 19


 312:../../libDaisy//src/dev/oled_ssd130x.h ****                 // COM Pins
 313:../../libDaisy//src/dev/oled_ssd130x.h ****                 transport_.SendCommand(0xDA);
 314:../../libDaisy//src/dev/oled_ssd130x.h ****                 transport_.SendCommand(0x12);
 315:../../libDaisy//src/dev/oled_ssd130x.h ****                 break;
 316:../../libDaisy//src/dev/oled_ssd130x.h ****         }
 317:../../libDaisy//src/dev/oled_ssd130x.h **** 
 318:../../libDaisy//src/dev/oled_ssd130x.h ****         // Display Offset
 319:../../libDaisy//src/dev/oled_ssd130x.h ****         transport_.SendCommand(0xD3);
 320:../../libDaisy//src/dev/oled_ssd130x.h ****         transport_.SendCommand(0x00);
 321:../../libDaisy//src/dev/oled_ssd130x.h ****         // Start Line Address
 322:../../libDaisy//src/dev/oled_ssd130x.h ****         transport_.SendCommand(0x40);
 323:../../libDaisy//src/dev/oled_ssd130x.h ****         // Normal Display
 324:../../libDaisy//src/dev/oled_ssd130x.h ****         transport_.SendCommand(0xA6);
 325:../../libDaisy//src/dev/oled_ssd130x.h ****         // All On Resume
 326:../../libDaisy//src/dev/oled_ssd130x.h ****         transport_.SendCommand(0xA4);
 327:../../libDaisy//src/dev/oled_ssd130x.h ****         // Charge Pump
 328:../../libDaisy//src/dev/oled_ssd130x.h ****         transport_.SendCommand(0x8D);
 329:../../libDaisy//src/dev/oled_ssd130x.h ****         transport_.SendCommand(0x14);
 330:../../libDaisy//src/dev/oled_ssd130x.h ****         // Set Segment Remap
 331:../../libDaisy//src/dev/oled_ssd130x.h ****         transport_.SendCommand(0xA1);
 332:../../libDaisy//src/dev/oled_ssd130x.h ****         // COM Output Scan Direction
 333:../../libDaisy//src/dev/oled_ssd130x.h ****         transport_.SendCommand(0xC8);
 334:../../libDaisy//src/dev/oled_ssd130x.h ****         // Contrast Control
 335:../../libDaisy//src/dev/oled_ssd130x.h ****         transport_.SendCommand(0x81);
 336:../../libDaisy//src/dev/oled_ssd130x.h ****         transport_.SendCommand(0x8F);
 337:../../libDaisy//src/dev/oled_ssd130x.h ****         // Pre Charge
 338:../../libDaisy//src/dev/oled_ssd130x.h ****         transport_.SendCommand(0xD9);
 339:../../libDaisy//src/dev/oled_ssd130x.h ****         transport_.SendCommand(0x25);
 340:../../libDaisy//src/dev/oled_ssd130x.h ****         // VCOM Detect
 341:../../libDaisy//src/dev/oled_ssd130x.h ****         transport_.SendCommand(0xDB);
 342:../../libDaisy//src/dev/oled_ssd130x.h ****         transport_.SendCommand(0x34);
 343:../../libDaisy//src/dev/oled_ssd130x.h **** 
 344:../../libDaisy//src/dev/oled_ssd130x.h **** 
 345:../../libDaisy//src/dev/oled_ssd130x.h ****         // Display On
 346:../../libDaisy//src/dev/oled_ssd130x.h ****         transport_.SendCommand(0xAF); //--turn on oled panel
 347:../../libDaisy//src/dev/oled_ssd130x.h ****     };
 348:../../libDaisy//src/dev/oled_ssd130x.h **** 
 349:../../libDaisy//src/dev/oled_ssd130x.h ****     size_t Width() const { return width; };
 350:../../libDaisy//src/dev/oled_ssd130x.h ****     size_t Height() const { return height; };
 351:../../libDaisy//src/dev/oled_ssd130x.h **** 
 352:../../libDaisy//src/dev/oled_ssd130x.h ****     void DrawPixel(uint_fast8_t x, uint_fast8_t y, bool on)
 141              		.loc 4 352 10 view .LVU20
 142              	.LBB274:
 143              	.LBI274:
 144              		.loc 4 352 10 view .LVU21
 145              	.LBB275:
 353:../../libDaisy//src/dev/oled_ssd130x.h ****     {
 354:../../libDaisy//src/dev/oled_ssd130x.h ****         if(x >= width || y >= height)
 355:../../libDaisy//src/dev/oled_ssd130x.h ****             return;
 356:../../libDaisy//src/dev/oled_ssd130x.h ****         if(on)
 357:../../libDaisy//src/dev/oled_ssd130x.h ****             buffer_[x + (y / 8) * width] |= (1 << (y % 8));
 358:../../libDaisy//src/dev/oled_ssd130x.h ****         else
 359:../../libDaisy//src/dev/oled_ssd130x.h ****             buffer_[x + (y / 8) * width] &= ~(1 << (y % 8));
 146              		.loc 4 359 28 is_stmt 0 view .LVU22
 147 0014 D308     		lsrs	r3, r2, #3
 148              		.loc 4 359 55 view .LVU23
 149 0016 02F00701 		and	r1, r2, #7
ARM GAS  /var/folders/1y/_321xjh9623c014x9_qw12rr0000gn/T//ccXuncwa.s 			page 20


 150              		.loc 4 359 49 view .LVU24
 151 001a 0124     		movs	r4, #1
 152              		.loc 4 359 42 view .LVU25
 153 001c 05EBC313 		add	r3, r5, r3, lsl #7
 154              		.loc 4 359 49 view .LVU26
 155 0020 04FA01F0 		lsl	r0, r4, r1
 156              	.LBE275:
 157              	.LBE274:
 158              	.LBE273:
 159              	.LBE272:
 160              		.loc 3 268 17 view .LVU27
 161 0024 2244     		add	r2, r2, r4
 162              	.LVL8:
 163              	.LBB282:
 164              	.LBB280:
 165              	.LBB278:
 166              	.LBB276:
 167              		.loc 4 359 42 view .LVU28
 168 0026 5344     		add	r3, r3, r10
 169              	.LBE276:
 170              	.LBE278:
 171              	.LBE280:
 172              	.LBE282:
 173              		.loc 3 268 44 view .LVU29
 174 0028 342A     		cmp	r2, #52
 175              	.LBB283:
 176              	.LBB281:
 177              	.LBB279:
 178              	.LBB277:
 179              		.loc 4 359 42 view .LVU30
 180 002a 93F82414 		ldrb	r1, [r3, #1060]	@ zero_extendqisi2
 181 002e 21EA0001 		bic	r1, r1, r0
 182 0032 83F82414 		strb	r1, [r3, #1060]
 183              	.LVL9:
 184              		.loc 4 359 42 view .LVU31
 185              	.LBE277:
 186              	.LBE279:
 187              	.LBE281:
 188              	.LBE283:
 189              		.loc 3 268 17 is_stmt 1 view .LVU32
 190              		.loc 3 268 44 view .LVU33
 191 0036 EDD1     		bne	.L5
 192              	.LBE271:
 266:../../libDaisy//src/hid/disp/display.h ****             {
 193              		.loc 3 266 13 view .LVU34
 194 0038 2544     		add	r5, r5, r4
 195              	.LVL10:
 266:../../libDaisy//src/hid/disp/display.h ****             {
 196              		.loc 3 266 40 view .LVU35
 197 003a 7F2D     		cmp	r5, #127
 198 003c E9D1     		bne	.L6
 199 003e 0023     		movs	r3, #0
 200 0040 0AF50072 		add	r2, r10, #512
 201              	.LVL11:
 266:../../libDaisy//src/hid/disp/display.h ****             {
 202              		.loc 3 266 40 is_stmt 0 view .LVU36
 203 0044 A146     		mov	r9, r4
ARM GAS  /var/folders/1y/_321xjh9623c014x9_qw12rr0000gn/T//ccXuncwa.s 			page 21


 204              	.LBE285:
 205              	.LBE287:
 206              	.LBE289:
 267:Dubby.cpp     ****         int prev_x = 0;
 268:Dubby.cpp     ****         int prev_y = (OLED_HEIGHT - 15) / 2;
 207              		.loc 2 268 13 view .LVU37
 208 0046 1826     		movs	r6, #24
 209              	.LBB290:
 210              	.LBB288:
 211              	.LBB286:
 266:../../libDaisy//src/hid/disp/display.h ****             {
 212              		.loc 3 266 40 view .LVU38
 213 0048 0193     		str	r3, [sp, #4]
 214 004a 0492     		str	r2, [sp, #16]
 215 004c 06E0     		b	.L21
 216              	.LVL12:
 217              	.L9:
 266:../../libDaisy//src/hid/disp/display.h ****             {
 218              		.loc 3 266 40 view .LVU39
 219 004e 019B     		ldr	r3, [sp, #4]
 220 0050 09F10109 		add	r9, r9, #1
 221              	.LVL13:
 222              	.LBB284:
 223              		.loc 3 268 34 view .LVU40
 224 0054 2646     		mov	r6, r4
 225 0056 7E33     		adds	r3, r3, #126
 226 0058 0193     		str	r3, [sp, #4]
 227              	.LBE284:
 228              	.LBE286:
 229              	.LBE288:
 230              	.LBE290:
 231              	.LBB291:
 232              	.LBB292:
 269:Dubby.cpp     ****         for(size_t i = 0; i < AUDIO_BLOCK_SIZE; i++)
 270:Dubby.cpp     ****         {
 271:Dubby.cpp     ****             int y = 1 + std::min(std::max((OLED_HEIGHT - 15) / 2
 272:Dubby.cpp     ****                                         - int(scope_buffer[i] * 150),
 273:Dubby.cpp     ****                                     0),
 274:Dubby.cpp     ****                             OLED_HEIGHT - 15);
 275:Dubby.cpp     ****             int x = 1 + i * (OLED_WIDTH - 2) / AUDIO_BLOCK_SIZE;
 276:Dubby.cpp     ****             if(i != 0)
 277:Dubby.cpp     ****             {
 278:Dubby.cpp     ****                 display.DrawLine(prev_x, prev_y, x, y, true);
 279:Dubby.cpp     ****             }
 280:Dubby.cpp     ****             prev_x = x;
 233              		.loc 2 280 20 view .LVU41
 234 005a 2B46     		mov	r3, r5
 235              	.LVL14:
 236              	.L21:
 271:Dubby.cpp     ****                                         - int(scope_buffer[i] * 150),
 237              		.loc 2 271 13 is_stmt 1 view .LVU42
 238              	.LBB293:
 239              	.LBI293:
 240              		.file 5 "/Library/DaisyToolchain/0.2.0/arm/arm-none-eabi/include/c++/10.3.1/bits/stl_algobase.h"
   1:/Library/DaisyToolchain/0.2.0/arm/arm-none-eabi/include/c++/10.3.1/bits/stl_algobase.h **** // Core algorithmic facilities -*- C++ -*-
   2:/Library/DaisyToolchain/0.2.0/arm/arm-none-eabi/include/c++/10.3.1/bits/stl_algobase.h **** 
   3:/Library/DaisyToolchain/0.2.0/arm/arm-none-eabi/include/c++/10.3.1/bits/stl_algobase.h **** // Copyright (C) 2001-2020 Free Software Foundation, Inc.
ARM GAS  /var/folders/1y/_321xjh9623c014x9_qw12rr0000gn/T//ccXuncwa.s 			page 22


   4:/Library/DaisyToolchain/0.2.0/arm/arm-none-eabi/include/c++/10.3.1/bits/stl_algobase.h **** //
   5:/Library/DaisyToolchain/0.2.0/arm/arm-none-eabi/include/c++/10.3.1/bits/stl_algobase.h **** // This file is part of the GNU ISO C++ Library.  This library is free
   6:/Library/DaisyToolchain/0.2.0/arm/arm-none-eabi/include/c++/10.3.1/bits/stl_algobase.h **** // software; you can redistribute it and/or modify it under the
   7:/Library/DaisyToolchain/0.2.0/arm/arm-none-eabi/include/c++/10.3.1/bits/stl_algobase.h **** // terms of the GNU General Public License as published by the
   8:/Library/DaisyToolchain/0.2.0/arm/arm-none-eabi/include/c++/10.3.1/bits/stl_algobase.h **** // Free Software Foundation; either version 3, or (at your option)
   9:/Library/DaisyToolchain/0.2.0/arm/arm-none-eabi/include/c++/10.3.1/bits/stl_algobase.h **** // any later version.
  10:/Library/DaisyToolchain/0.2.0/arm/arm-none-eabi/include/c++/10.3.1/bits/stl_algobase.h **** 
  11:/Library/DaisyToolchain/0.2.0/arm/arm-none-eabi/include/c++/10.3.1/bits/stl_algobase.h **** // This library is distributed in the hope that it will be useful,
  12:/Library/DaisyToolchain/0.2.0/arm/arm-none-eabi/include/c++/10.3.1/bits/stl_algobase.h **** // but WITHOUT ANY WARRANTY; without even the implied warranty of
  13:/Library/DaisyToolchain/0.2.0/arm/arm-none-eabi/include/c++/10.3.1/bits/stl_algobase.h **** // MERCHANTABILITY or FITNESS FOR A PARTICULAR PURPOSE.  See the
  14:/Library/DaisyToolchain/0.2.0/arm/arm-none-eabi/include/c++/10.3.1/bits/stl_algobase.h **** // GNU General Public License for more details.
  15:/Library/DaisyToolchain/0.2.0/arm/arm-none-eabi/include/c++/10.3.1/bits/stl_algobase.h **** 
  16:/Library/DaisyToolchain/0.2.0/arm/arm-none-eabi/include/c++/10.3.1/bits/stl_algobase.h **** // Under Section 7 of GPL version 3, you are granted additional
  17:/Library/DaisyToolchain/0.2.0/arm/arm-none-eabi/include/c++/10.3.1/bits/stl_algobase.h **** // permissions described in the GCC Runtime Library Exception, version
  18:/Library/DaisyToolchain/0.2.0/arm/arm-none-eabi/include/c++/10.3.1/bits/stl_algobase.h **** // 3.1, as published by the Free Software Foundation.
  19:/Library/DaisyToolchain/0.2.0/arm/arm-none-eabi/include/c++/10.3.1/bits/stl_algobase.h **** 
  20:/Library/DaisyToolchain/0.2.0/arm/arm-none-eabi/include/c++/10.3.1/bits/stl_algobase.h **** // You should have received a copy of the GNU General Public License and
  21:/Library/DaisyToolchain/0.2.0/arm/arm-none-eabi/include/c++/10.3.1/bits/stl_algobase.h **** // a copy of the GCC Runtime Library Exception along with this program;
  22:/Library/DaisyToolchain/0.2.0/arm/arm-none-eabi/include/c++/10.3.1/bits/stl_algobase.h **** // see the files COPYING3 and COPYING.RUNTIME respectively.  If not, see
  23:/Library/DaisyToolchain/0.2.0/arm/arm-none-eabi/include/c++/10.3.1/bits/stl_algobase.h **** // <http://www.gnu.org/licenses/>.
  24:/Library/DaisyToolchain/0.2.0/arm/arm-none-eabi/include/c++/10.3.1/bits/stl_algobase.h **** 
  25:/Library/DaisyToolchain/0.2.0/arm/arm-none-eabi/include/c++/10.3.1/bits/stl_algobase.h **** /*
  26:/Library/DaisyToolchain/0.2.0/arm/arm-none-eabi/include/c++/10.3.1/bits/stl_algobase.h ****  *
  27:/Library/DaisyToolchain/0.2.0/arm/arm-none-eabi/include/c++/10.3.1/bits/stl_algobase.h ****  * Copyright (c) 1994
  28:/Library/DaisyToolchain/0.2.0/arm/arm-none-eabi/include/c++/10.3.1/bits/stl_algobase.h ****  * Hewlett-Packard Company
  29:/Library/DaisyToolchain/0.2.0/arm/arm-none-eabi/include/c++/10.3.1/bits/stl_algobase.h ****  *
  30:/Library/DaisyToolchain/0.2.0/arm/arm-none-eabi/include/c++/10.3.1/bits/stl_algobase.h ****  * Permission to use, copy, modify, distribute and sell this software
  31:/Library/DaisyToolchain/0.2.0/arm/arm-none-eabi/include/c++/10.3.1/bits/stl_algobase.h ****  * and its documentation for any purpose is hereby granted without fee,
  32:/Library/DaisyToolchain/0.2.0/arm/arm-none-eabi/include/c++/10.3.1/bits/stl_algobase.h ****  * provided that the above copyright notice appear in all copies and
  33:/Library/DaisyToolchain/0.2.0/arm/arm-none-eabi/include/c++/10.3.1/bits/stl_algobase.h ****  * that both that copyright notice and this permission notice appear
  34:/Library/DaisyToolchain/0.2.0/arm/arm-none-eabi/include/c++/10.3.1/bits/stl_algobase.h ****  * in supporting documentation.  Hewlett-Packard Company makes no
  35:/Library/DaisyToolchain/0.2.0/arm/arm-none-eabi/include/c++/10.3.1/bits/stl_algobase.h ****  * representations about the suitability of this software for any
  36:/Library/DaisyToolchain/0.2.0/arm/arm-none-eabi/include/c++/10.3.1/bits/stl_algobase.h ****  * purpose.  It is provided "as is" without express or implied warranty.
  37:/Library/DaisyToolchain/0.2.0/arm/arm-none-eabi/include/c++/10.3.1/bits/stl_algobase.h ****  *
  38:/Library/DaisyToolchain/0.2.0/arm/arm-none-eabi/include/c++/10.3.1/bits/stl_algobase.h ****  *
  39:/Library/DaisyToolchain/0.2.0/arm/arm-none-eabi/include/c++/10.3.1/bits/stl_algobase.h ****  * Copyright (c) 1996-1998
  40:/Library/DaisyToolchain/0.2.0/arm/arm-none-eabi/include/c++/10.3.1/bits/stl_algobase.h ****  * Silicon Graphics Computer Systems, Inc.
  41:/Library/DaisyToolchain/0.2.0/arm/arm-none-eabi/include/c++/10.3.1/bits/stl_algobase.h ****  *
  42:/Library/DaisyToolchain/0.2.0/arm/arm-none-eabi/include/c++/10.3.1/bits/stl_algobase.h ****  * Permission to use, copy, modify, distribute and sell this software
  43:/Library/DaisyToolchain/0.2.0/arm/arm-none-eabi/include/c++/10.3.1/bits/stl_algobase.h ****  * and its documentation for any purpose is hereby granted without fee,
  44:/Library/DaisyToolchain/0.2.0/arm/arm-none-eabi/include/c++/10.3.1/bits/stl_algobase.h ****  * provided that the above copyright notice appear in all copies and
  45:/Library/DaisyToolchain/0.2.0/arm/arm-none-eabi/include/c++/10.3.1/bits/stl_algobase.h ****  * that both that copyright notice and this permission notice appear
  46:/Library/DaisyToolchain/0.2.0/arm/arm-none-eabi/include/c++/10.3.1/bits/stl_algobase.h ****  * in supporting documentation.  Silicon Graphics makes no
  47:/Library/DaisyToolchain/0.2.0/arm/arm-none-eabi/include/c++/10.3.1/bits/stl_algobase.h ****  * representations about the suitability of this software for any
  48:/Library/DaisyToolchain/0.2.0/arm/arm-none-eabi/include/c++/10.3.1/bits/stl_algobase.h ****  * purpose.  It is provided "as is" without express or implied warranty.
  49:/Library/DaisyToolchain/0.2.0/arm/arm-none-eabi/include/c++/10.3.1/bits/stl_algobase.h ****  */
  50:/Library/DaisyToolchain/0.2.0/arm/arm-none-eabi/include/c++/10.3.1/bits/stl_algobase.h **** 
  51:/Library/DaisyToolchain/0.2.0/arm/arm-none-eabi/include/c++/10.3.1/bits/stl_algobase.h **** /** @file bits/stl_algobase.h
  52:/Library/DaisyToolchain/0.2.0/arm/arm-none-eabi/include/c++/10.3.1/bits/stl_algobase.h ****  *  This is an internal header file, included by other library headers.
  53:/Library/DaisyToolchain/0.2.0/arm/arm-none-eabi/include/c++/10.3.1/bits/stl_algobase.h ****  *  Do not attempt to use it directly. @headername{algorithm}
  54:/Library/DaisyToolchain/0.2.0/arm/arm-none-eabi/include/c++/10.3.1/bits/stl_algobase.h ****  */
  55:/Library/DaisyToolchain/0.2.0/arm/arm-none-eabi/include/c++/10.3.1/bits/stl_algobase.h **** 
  56:/Library/DaisyToolchain/0.2.0/arm/arm-none-eabi/include/c++/10.3.1/bits/stl_algobase.h **** #ifndef _STL_ALGOBASE_H
  57:/Library/DaisyToolchain/0.2.0/arm/arm-none-eabi/include/c++/10.3.1/bits/stl_algobase.h **** #define _STL_ALGOBASE_H 1
  58:/Library/DaisyToolchain/0.2.0/arm/arm-none-eabi/include/c++/10.3.1/bits/stl_algobase.h **** 
  59:/Library/DaisyToolchain/0.2.0/arm/arm-none-eabi/include/c++/10.3.1/bits/stl_algobase.h **** #include <bits/c++config.h>
  60:/Library/DaisyToolchain/0.2.0/arm/arm-none-eabi/include/c++/10.3.1/bits/stl_algobase.h **** #include <bits/functexcept.h>
ARM GAS  /var/folders/1y/_321xjh9623c014x9_qw12rr0000gn/T//ccXuncwa.s 			page 23


  61:/Library/DaisyToolchain/0.2.0/arm/arm-none-eabi/include/c++/10.3.1/bits/stl_algobase.h **** #include <bits/cpp_type_traits.h>
  62:/Library/DaisyToolchain/0.2.0/arm/arm-none-eabi/include/c++/10.3.1/bits/stl_algobase.h **** #include <ext/type_traits.h>
  63:/Library/DaisyToolchain/0.2.0/arm/arm-none-eabi/include/c++/10.3.1/bits/stl_algobase.h **** #include <ext/numeric_traits.h>
  64:/Library/DaisyToolchain/0.2.0/arm/arm-none-eabi/include/c++/10.3.1/bits/stl_algobase.h **** #include <bits/stl_pair.h>
  65:/Library/DaisyToolchain/0.2.0/arm/arm-none-eabi/include/c++/10.3.1/bits/stl_algobase.h **** #include <bits/stl_iterator_base_types.h>
  66:/Library/DaisyToolchain/0.2.0/arm/arm-none-eabi/include/c++/10.3.1/bits/stl_algobase.h **** #include <bits/stl_iterator_base_funcs.h>
  67:/Library/DaisyToolchain/0.2.0/arm/arm-none-eabi/include/c++/10.3.1/bits/stl_algobase.h **** #include <bits/stl_iterator.h>
  68:/Library/DaisyToolchain/0.2.0/arm/arm-none-eabi/include/c++/10.3.1/bits/stl_algobase.h **** #include <bits/concept_check.h>
  69:/Library/DaisyToolchain/0.2.0/arm/arm-none-eabi/include/c++/10.3.1/bits/stl_algobase.h **** #include <debug/debug.h>
  70:/Library/DaisyToolchain/0.2.0/arm/arm-none-eabi/include/c++/10.3.1/bits/stl_algobase.h **** #include <bits/move.h> // For std::swap
  71:/Library/DaisyToolchain/0.2.0/arm/arm-none-eabi/include/c++/10.3.1/bits/stl_algobase.h **** #include <bits/predefined_ops.h>
  72:/Library/DaisyToolchain/0.2.0/arm/arm-none-eabi/include/c++/10.3.1/bits/stl_algobase.h **** #if __cplusplus >= 201103L
  73:/Library/DaisyToolchain/0.2.0/arm/arm-none-eabi/include/c++/10.3.1/bits/stl_algobase.h **** # include <type_traits>
  74:/Library/DaisyToolchain/0.2.0/arm/arm-none-eabi/include/c++/10.3.1/bits/stl_algobase.h **** #endif
  75:/Library/DaisyToolchain/0.2.0/arm/arm-none-eabi/include/c++/10.3.1/bits/stl_algobase.h **** #if __cplusplus > 201703L
  76:/Library/DaisyToolchain/0.2.0/arm/arm-none-eabi/include/c++/10.3.1/bits/stl_algobase.h **** # include <compare>
  77:/Library/DaisyToolchain/0.2.0/arm/arm-none-eabi/include/c++/10.3.1/bits/stl_algobase.h **** #endif
  78:/Library/DaisyToolchain/0.2.0/arm/arm-none-eabi/include/c++/10.3.1/bits/stl_algobase.h **** 
  79:/Library/DaisyToolchain/0.2.0/arm/arm-none-eabi/include/c++/10.3.1/bits/stl_algobase.h **** namespace std _GLIBCXX_VISIBILITY(default)
  80:/Library/DaisyToolchain/0.2.0/arm/arm-none-eabi/include/c++/10.3.1/bits/stl_algobase.h **** {
  81:/Library/DaisyToolchain/0.2.0/arm/arm-none-eabi/include/c++/10.3.1/bits/stl_algobase.h **** _GLIBCXX_BEGIN_NAMESPACE_VERSION
  82:/Library/DaisyToolchain/0.2.0/arm/arm-none-eabi/include/c++/10.3.1/bits/stl_algobase.h **** 
  83:/Library/DaisyToolchain/0.2.0/arm/arm-none-eabi/include/c++/10.3.1/bits/stl_algobase.h ****   /*
  84:/Library/DaisyToolchain/0.2.0/arm/arm-none-eabi/include/c++/10.3.1/bits/stl_algobase.h ****    * A constexpr wrapper for __builtin_memcmp.
  85:/Library/DaisyToolchain/0.2.0/arm/arm-none-eabi/include/c++/10.3.1/bits/stl_algobase.h ****    * @param __num The number of elements of type _Tp (not bytes).
  86:/Library/DaisyToolchain/0.2.0/arm/arm-none-eabi/include/c++/10.3.1/bits/stl_algobase.h ****    */
  87:/Library/DaisyToolchain/0.2.0/arm/arm-none-eabi/include/c++/10.3.1/bits/stl_algobase.h ****   template<typename _Tp, typename _Up>
  88:/Library/DaisyToolchain/0.2.0/arm/arm-none-eabi/include/c++/10.3.1/bits/stl_algobase.h ****     _GLIBCXX14_CONSTEXPR
  89:/Library/DaisyToolchain/0.2.0/arm/arm-none-eabi/include/c++/10.3.1/bits/stl_algobase.h ****     inline int
  90:/Library/DaisyToolchain/0.2.0/arm/arm-none-eabi/include/c++/10.3.1/bits/stl_algobase.h ****     __memcmp(const _Tp* __first1, const _Up* __first2, size_t __num)
  91:/Library/DaisyToolchain/0.2.0/arm/arm-none-eabi/include/c++/10.3.1/bits/stl_algobase.h ****     {
  92:/Library/DaisyToolchain/0.2.0/arm/arm-none-eabi/include/c++/10.3.1/bits/stl_algobase.h **** #if __cplusplus >= 201103L
  93:/Library/DaisyToolchain/0.2.0/arm/arm-none-eabi/include/c++/10.3.1/bits/stl_algobase.h ****       static_assert(sizeof(_Tp) == sizeof(_Up), "can be compared with memcmp");
  94:/Library/DaisyToolchain/0.2.0/arm/arm-none-eabi/include/c++/10.3.1/bits/stl_algobase.h **** #endif
  95:/Library/DaisyToolchain/0.2.0/arm/arm-none-eabi/include/c++/10.3.1/bits/stl_algobase.h **** #ifdef __cpp_lib_is_constant_evaluated
  96:/Library/DaisyToolchain/0.2.0/arm/arm-none-eabi/include/c++/10.3.1/bits/stl_algobase.h ****       if (std::is_constant_evaluated())
  97:/Library/DaisyToolchain/0.2.0/arm/arm-none-eabi/include/c++/10.3.1/bits/stl_algobase.h **** 	{
  98:/Library/DaisyToolchain/0.2.0/arm/arm-none-eabi/include/c++/10.3.1/bits/stl_algobase.h **** 	  for(; __num > 0; ++__first1, ++__first2, --__num)
  99:/Library/DaisyToolchain/0.2.0/arm/arm-none-eabi/include/c++/10.3.1/bits/stl_algobase.h **** 	    if (*__first1 != *__first2)
 100:/Library/DaisyToolchain/0.2.0/arm/arm-none-eabi/include/c++/10.3.1/bits/stl_algobase.h **** 	      return *__first1 < *__first2 ? -1 : 1;
 101:/Library/DaisyToolchain/0.2.0/arm/arm-none-eabi/include/c++/10.3.1/bits/stl_algobase.h **** 	  return 0;
 102:/Library/DaisyToolchain/0.2.0/arm/arm-none-eabi/include/c++/10.3.1/bits/stl_algobase.h **** 	}
 103:/Library/DaisyToolchain/0.2.0/arm/arm-none-eabi/include/c++/10.3.1/bits/stl_algobase.h ****       else
 104:/Library/DaisyToolchain/0.2.0/arm/arm-none-eabi/include/c++/10.3.1/bits/stl_algobase.h **** #endif
 105:/Library/DaisyToolchain/0.2.0/arm/arm-none-eabi/include/c++/10.3.1/bits/stl_algobase.h **** 	return __builtin_memcmp(__first1, __first2, sizeof(_Tp) * __num);
 106:/Library/DaisyToolchain/0.2.0/arm/arm-none-eabi/include/c++/10.3.1/bits/stl_algobase.h ****     }
 107:/Library/DaisyToolchain/0.2.0/arm/arm-none-eabi/include/c++/10.3.1/bits/stl_algobase.h **** 
 108:/Library/DaisyToolchain/0.2.0/arm/arm-none-eabi/include/c++/10.3.1/bits/stl_algobase.h **** #if __cplusplus < 201103L
 109:/Library/DaisyToolchain/0.2.0/arm/arm-none-eabi/include/c++/10.3.1/bits/stl_algobase.h ****   // See http://gcc.gnu.org/ml/libstdc++/2004-08/msg00167.html: in a
 110:/Library/DaisyToolchain/0.2.0/arm/arm-none-eabi/include/c++/10.3.1/bits/stl_algobase.h ****   // nutshell, we are partially implementing the resolution of DR 187,
 111:/Library/DaisyToolchain/0.2.0/arm/arm-none-eabi/include/c++/10.3.1/bits/stl_algobase.h ****   // when it's safe, i.e., the value_types are equal.
 112:/Library/DaisyToolchain/0.2.0/arm/arm-none-eabi/include/c++/10.3.1/bits/stl_algobase.h ****   template<bool _BoolType>
 113:/Library/DaisyToolchain/0.2.0/arm/arm-none-eabi/include/c++/10.3.1/bits/stl_algobase.h ****     struct __iter_swap
 114:/Library/DaisyToolchain/0.2.0/arm/arm-none-eabi/include/c++/10.3.1/bits/stl_algobase.h ****     {
 115:/Library/DaisyToolchain/0.2.0/arm/arm-none-eabi/include/c++/10.3.1/bits/stl_algobase.h ****       template<typename _ForwardIterator1, typename _ForwardIterator2>
 116:/Library/DaisyToolchain/0.2.0/arm/arm-none-eabi/include/c++/10.3.1/bits/stl_algobase.h **** 	static void
 117:/Library/DaisyToolchain/0.2.0/arm/arm-none-eabi/include/c++/10.3.1/bits/stl_algobase.h **** 	iter_swap(_ForwardIterator1 __a, _ForwardIterator2 __b)
ARM GAS  /var/folders/1y/_321xjh9623c014x9_qw12rr0000gn/T//ccXuncwa.s 			page 24


 118:/Library/DaisyToolchain/0.2.0/arm/arm-none-eabi/include/c++/10.3.1/bits/stl_algobase.h **** 	{
 119:/Library/DaisyToolchain/0.2.0/arm/arm-none-eabi/include/c++/10.3.1/bits/stl_algobase.h **** 	  typedef typename iterator_traits<_ForwardIterator1>::value_type
 120:/Library/DaisyToolchain/0.2.0/arm/arm-none-eabi/include/c++/10.3.1/bits/stl_algobase.h **** 	    _ValueType1;
 121:/Library/DaisyToolchain/0.2.0/arm/arm-none-eabi/include/c++/10.3.1/bits/stl_algobase.h **** 	  _ValueType1 __tmp = *__a;
 122:/Library/DaisyToolchain/0.2.0/arm/arm-none-eabi/include/c++/10.3.1/bits/stl_algobase.h **** 	  *__a = *__b;
 123:/Library/DaisyToolchain/0.2.0/arm/arm-none-eabi/include/c++/10.3.1/bits/stl_algobase.h **** 	  *__b = __tmp;
 124:/Library/DaisyToolchain/0.2.0/arm/arm-none-eabi/include/c++/10.3.1/bits/stl_algobase.h **** 	}
 125:/Library/DaisyToolchain/0.2.0/arm/arm-none-eabi/include/c++/10.3.1/bits/stl_algobase.h ****     };
 126:/Library/DaisyToolchain/0.2.0/arm/arm-none-eabi/include/c++/10.3.1/bits/stl_algobase.h **** 
 127:/Library/DaisyToolchain/0.2.0/arm/arm-none-eabi/include/c++/10.3.1/bits/stl_algobase.h ****   template<>
 128:/Library/DaisyToolchain/0.2.0/arm/arm-none-eabi/include/c++/10.3.1/bits/stl_algobase.h ****     struct __iter_swap<true>
 129:/Library/DaisyToolchain/0.2.0/arm/arm-none-eabi/include/c++/10.3.1/bits/stl_algobase.h ****     {
 130:/Library/DaisyToolchain/0.2.0/arm/arm-none-eabi/include/c++/10.3.1/bits/stl_algobase.h ****       template<typename _ForwardIterator1, typename _ForwardIterator2>
 131:/Library/DaisyToolchain/0.2.0/arm/arm-none-eabi/include/c++/10.3.1/bits/stl_algobase.h **** 	static void
 132:/Library/DaisyToolchain/0.2.0/arm/arm-none-eabi/include/c++/10.3.1/bits/stl_algobase.h **** 	iter_swap(_ForwardIterator1 __a, _ForwardIterator2 __b)
 133:/Library/DaisyToolchain/0.2.0/arm/arm-none-eabi/include/c++/10.3.1/bits/stl_algobase.h **** 	{
 134:/Library/DaisyToolchain/0.2.0/arm/arm-none-eabi/include/c++/10.3.1/bits/stl_algobase.h **** 	  swap(*__a, *__b);
 135:/Library/DaisyToolchain/0.2.0/arm/arm-none-eabi/include/c++/10.3.1/bits/stl_algobase.h **** 	}
 136:/Library/DaisyToolchain/0.2.0/arm/arm-none-eabi/include/c++/10.3.1/bits/stl_algobase.h ****     };
 137:/Library/DaisyToolchain/0.2.0/arm/arm-none-eabi/include/c++/10.3.1/bits/stl_algobase.h **** #endif // C++03
 138:/Library/DaisyToolchain/0.2.0/arm/arm-none-eabi/include/c++/10.3.1/bits/stl_algobase.h **** 
 139:/Library/DaisyToolchain/0.2.0/arm/arm-none-eabi/include/c++/10.3.1/bits/stl_algobase.h ****   /**
 140:/Library/DaisyToolchain/0.2.0/arm/arm-none-eabi/include/c++/10.3.1/bits/stl_algobase.h ****    *  @brief Swaps the contents of two iterators.
 141:/Library/DaisyToolchain/0.2.0/arm/arm-none-eabi/include/c++/10.3.1/bits/stl_algobase.h ****    *  @ingroup mutating_algorithms
 142:/Library/DaisyToolchain/0.2.0/arm/arm-none-eabi/include/c++/10.3.1/bits/stl_algobase.h ****    *  @param  __a  An iterator.
 143:/Library/DaisyToolchain/0.2.0/arm/arm-none-eabi/include/c++/10.3.1/bits/stl_algobase.h ****    *  @param  __b  Another iterator.
 144:/Library/DaisyToolchain/0.2.0/arm/arm-none-eabi/include/c++/10.3.1/bits/stl_algobase.h ****    *  @return   Nothing.
 145:/Library/DaisyToolchain/0.2.0/arm/arm-none-eabi/include/c++/10.3.1/bits/stl_algobase.h ****    *
 146:/Library/DaisyToolchain/0.2.0/arm/arm-none-eabi/include/c++/10.3.1/bits/stl_algobase.h ****    *  This function swaps the values pointed to by two iterators, not the
 147:/Library/DaisyToolchain/0.2.0/arm/arm-none-eabi/include/c++/10.3.1/bits/stl_algobase.h ****    *  iterators themselves.
 148:/Library/DaisyToolchain/0.2.0/arm/arm-none-eabi/include/c++/10.3.1/bits/stl_algobase.h ****   */
 149:/Library/DaisyToolchain/0.2.0/arm/arm-none-eabi/include/c++/10.3.1/bits/stl_algobase.h ****   template<typename _ForwardIterator1, typename _ForwardIterator2>
 150:/Library/DaisyToolchain/0.2.0/arm/arm-none-eabi/include/c++/10.3.1/bits/stl_algobase.h ****     _GLIBCXX20_CONSTEXPR
 151:/Library/DaisyToolchain/0.2.0/arm/arm-none-eabi/include/c++/10.3.1/bits/stl_algobase.h ****     inline void
 152:/Library/DaisyToolchain/0.2.0/arm/arm-none-eabi/include/c++/10.3.1/bits/stl_algobase.h ****     iter_swap(_ForwardIterator1 __a, _ForwardIterator2 __b)
 153:/Library/DaisyToolchain/0.2.0/arm/arm-none-eabi/include/c++/10.3.1/bits/stl_algobase.h ****     {
 154:/Library/DaisyToolchain/0.2.0/arm/arm-none-eabi/include/c++/10.3.1/bits/stl_algobase.h ****       // concept requirements
 155:/Library/DaisyToolchain/0.2.0/arm/arm-none-eabi/include/c++/10.3.1/bits/stl_algobase.h ****       __glibcxx_function_requires(_Mutable_ForwardIteratorConcept<
 156:/Library/DaisyToolchain/0.2.0/arm/arm-none-eabi/include/c++/10.3.1/bits/stl_algobase.h **** 				  _ForwardIterator1>)
 157:/Library/DaisyToolchain/0.2.0/arm/arm-none-eabi/include/c++/10.3.1/bits/stl_algobase.h ****       __glibcxx_function_requires(_Mutable_ForwardIteratorConcept<
 158:/Library/DaisyToolchain/0.2.0/arm/arm-none-eabi/include/c++/10.3.1/bits/stl_algobase.h **** 				  _ForwardIterator2>)
 159:/Library/DaisyToolchain/0.2.0/arm/arm-none-eabi/include/c++/10.3.1/bits/stl_algobase.h **** 
 160:/Library/DaisyToolchain/0.2.0/arm/arm-none-eabi/include/c++/10.3.1/bits/stl_algobase.h **** #if __cplusplus < 201103L
 161:/Library/DaisyToolchain/0.2.0/arm/arm-none-eabi/include/c++/10.3.1/bits/stl_algobase.h ****       typedef typename iterator_traits<_ForwardIterator1>::value_type
 162:/Library/DaisyToolchain/0.2.0/arm/arm-none-eabi/include/c++/10.3.1/bits/stl_algobase.h **** 	_ValueType1;
 163:/Library/DaisyToolchain/0.2.0/arm/arm-none-eabi/include/c++/10.3.1/bits/stl_algobase.h ****       typedef typename iterator_traits<_ForwardIterator2>::value_type
 164:/Library/DaisyToolchain/0.2.0/arm/arm-none-eabi/include/c++/10.3.1/bits/stl_algobase.h **** 	_ValueType2;
 165:/Library/DaisyToolchain/0.2.0/arm/arm-none-eabi/include/c++/10.3.1/bits/stl_algobase.h **** 
 166:/Library/DaisyToolchain/0.2.0/arm/arm-none-eabi/include/c++/10.3.1/bits/stl_algobase.h ****       __glibcxx_function_requires(_ConvertibleConcept<_ValueType1,
 167:/Library/DaisyToolchain/0.2.0/arm/arm-none-eabi/include/c++/10.3.1/bits/stl_algobase.h **** 				  _ValueType2>)
 168:/Library/DaisyToolchain/0.2.0/arm/arm-none-eabi/include/c++/10.3.1/bits/stl_algobase.h ****       __glibcxx_function_requires(_ConvertibleConcept<_ValueType2,
 169:/Library/DaisyToolchain/0.2.0/arm/arm-none-eabi/include/c++/10.3.1/bits/stl_algobase.h **** 				  _ValueType1>)
 170:/Library/DaisyToolchain/0.2.0/arm/arm-none-eabi/include/c++/10.3.1/bits/stl_algobase.h **** 
 171:/Library/DaisyToolchain/0.2.0/arm/arm-none-eabi/include/c++/10.3.1/bits/stl_algobase.h ****       typedef typename iterator_traits<_ForwardIterator1>::reference
 172:/Library/DaisyToolchain/0.2.0/arm/arm-none-eabi/include/c++/10.3.1/bits/stl_algobase.h **** 	_ReferenceType1;
 173:/Library/DaisyToolchain/0.2.0/arm/arm-none-eabi/include/c++/10.3.1/bits/stl_algobase.h ****       typedef typename iterator_traits<_ForwardIterator2>::reference
 174:/Library/DaisyToolchain/0.2.0/arm/arm-none-eabi/include/c++/10.3.1/bits/stl_algobase.h **** 	_ReferenceType2;
ARM GAS  /var/folders/1y/_321xjh9623c014x9_qw12rr0000gn/T//ccXuncwa.s 			page 25


 175:/Library/DaisyToolchain/0.2.0/arm/arm-none-eabi/include/c++/10.3.1/bits/stl_algobase.h ****       std::__iter_swap<__are_same<_ValueType1, _ValueType2>::__value
 176:/Library/DaisyToolchain/0.2.0/arm/arm-none-eabi/include/c++/10.3.1/bits/stl_algobase.h **** 	&& __are_same<_ValueType1&, _ReferenceType1>::__value
 177:/Library/DaisyToolchain/0.2.0/arm/arm-none-eabi/include/c++/10.3.1/bits/stl_algobase.h **** 	&& __are_same<_ValueType2&, _ReferenceType2>::__value>::
 178:/Library/DaisyToolchain/0.2.0/arm/arm-none-eabi/include/c++/10.3.1/bits/stl_algobase.h **** 	iter_swap(__a, __b);
 179:/Library/DaisyToolchain/0.2.0/arm/arm-none-eabi/include/c++/10.3.1/bits/stl_algobase.h **** #else
 180:/Library/DaisyToolchain/0.2.0/arm/arm-none-eabi/include/c++/10.3.1/bits/stl_algobase.h ****       // _GLIBCXX_RESOLVE_LIB_DEFECTS
 181:/Library/DaisyToolchain/0.2.0/arm/arm-none-eabi/include/c++/10.3.1/bits/stl_algobase.h ****       // 187. iter_swap underspecified
 182:/Library/DaisyToolchain/0.2.0/arm/arm-none-eabi/include/c++/10.3.1/bits/stl_algobase.h ****       swap(*__a, *__b);
 183:/Library/DaisyToolchain/0.2.0/arm/arm-none-eabi/include/c++/10.3.1/bits/stl_algobase.h **** #endif
 184:/Library/DaisyToolchain/0.2.0/arm/arm-none-eabi/include/c++/10.3.1/bits/stl_algobase.h ****     }
 185:/Library/DaisyToolchain/0.2.0/arm/arm-none-eabi/include/c++/10.3.1/bits/stl_algobase.h **** 
 186:/Library/DaisyToolchain/0.2.0/arm/arm-none-eabi/include/c++/10.3.1/bits/stl_algobase.h ****   /**
 187:/Library/DaisyToolchain/0.2.0/arm/arm-none-eabi/include/c++/10.3.1/bits/stl_algobase.h ****    *  @brief Swap the elements of two sequences.
 188:/Library/DaisyToolchain/0.2.0/arm/arm-none-eabi/include/c++/10.3.1/bits/stl_algobase.h ****    *  @ingroup mutating_algorithms
 189:/Library/DaisyToolchain/0.2.0/arm/arm-none-eabi/include/c++/10.3.1/bits/stl_algobase.h ****    *  @param  __first1  A forward iterator.
 190:/Library/DaisyToolchain/0.2.0/arm/arm-none-eabi/include/c++/10.3.1/bits/stl_algobase.h ****    *  @param  __last1   A forward iterator.
 191:/Library/DaisyToolchain/0.2.0/arm/arm-none-eabi/include/c++/10.3.1/bits/stl_algobase.h ****    *  @param  __first2  A forward iterator.
 192:/Library/DaisyToolchain/0.2.0/arm/arm-none-eabi/include/c++/10.3.1/bits/stl_algobase.h ****    *  @return   An iterator equal to @p first2+(last1-first1).
 193:/Library/DaisyToolchain/0.2.0/arm/arm-none-eabi/include/c++/10.3.1/bits/stl_algobase.h ****    *
 194:/Library/DaisyToolchain/0.2.0/arm/arm-none-eabi/include/c++/10.3.1/bits/stl_algobase.h ****    *  Swaps each element in the range @p [first1,last1) with the
 195:/Library/DaisyToolchain/0.2.0/arm/arm-none-eabi/include/c++/10.3.1/bits/stl_algobase.h ****    *  corresponding element in the range @p [first2,(last1-first1)).
 196:/Library/DaisyToolchain/0.2.0/arm/arm-none-eabi/include/c++/10.3.1/bits/stl_algobase.h ****    *  The ranges must not overlap.
 197:/Library/DaisyToolchain/0.2.0/arm/arm-none-eabi/include/c++/10.3.1/bits/stl_algobase.h ****   */
 198:/Library/DaisyToolchain/0.2.0/arm/arm-none-eabi/include/c++/10.3.1/bits/stl_algobase.h ****   template<typename _ForwardIterator1, typename _ForwardIterator2>
 199:/Library/DaisyToolchain/0.2.0/arm/arm-none-eabi/include/c++/10.3.1/bits/stl_algobase.h ****     _GLIBCXX20_CONSTEXPR
 200:/Library/DaisyToolchain/0.2.0/arm/arm-none-eabi/include/c++/10.3.1/bits/stl_algobase.h ****     _ForwardIterator2
 201:/Library/DaisyToolchain/0.2.0/arm/arm-none-eabi/include/c++/10.3.1/bits/stl_algobase.h ****     swap_ranges(_ForwardIterator1 __first1, _ForwardIterator1 __last1,
 202:/Library/DaisyToolchain/0.2.0/arm/arm-none-eabi/include/c++/10.3.1/bits/stl_algobase.h **** 		_ForwardIterator2 __first2)
 203:/Library/DaisyToolchain/0.2.0/arm/arm-none-eabi/include/c++/10.3.1/bits/stl_algobase.h ****     {
 204:/Library/DaisyToolchain/0.2.0/arm/arm-none-eabi/include/c++/10.3.1/bits/stl_algobase.h ****       // concept requirements
 205:/Library/DaisyToolchain/0.2.0/arm/arm-none-eabi/include/c++/10.3.1/bits/stl_algobase.h ****       __glibcxx_function_requires(_Mutable_ForwardIteratorConcept<
 206:/Library/DaisyToolchain/0.2.0/arm/arm-none-eabi/include/c++/10.3.1/bits/stl_algobase.h **** 				  _ForwardIterator1>)
 207:/Library/DaisyToolchain/0.2.0/arm/arm-none-eabi/include/c++/10.3.1/bits/stl_algobase.h ****       __glibcxx_function_requires(_Mutable_ForwardIteratorConcept<
 208:/Library/DaisyToolchain/0.2.0/arm/arm-none-eabi/include/c++/10.3.1/bits/stl_algobase.h **** 				  _ForwardIterator2>)
 209:/Library/DaisyToolchain/0.2.0/arm/arm-none-eabi/include/c++/10.3.1/bits/stl_algobase.h ****       __glibcxx_requires_valid_range(__first1, __last1);
 210:/Library/DaisyToolchain/0.2.0/arm/arm-none-eabi/include/c++/10.3.1/bits/stl_algobase.h **** 
 211:/Library/DaisyToolchain/0.2.0/arm/arm-none-eabi/include/c++/10.3.1/bits/stl_algobase.h ****       for (; __first1 != __last1; ++__first1, (void)++__first2)
 212:/Library/DaisyToolchain/0.2.0/arm/arm-none-eabi/include/c++/10.3.1/bits/stl_algobase.h **** 	std::iter_swap(__first1, __first2);
 213:/Library/DaisyToolchain/0.2.0/arm/arm-none-eabi/include/c++/10.3.1/bits/stl_algobase.h ****       return __first2;
 214:/Library/DaisyToolchain/0.2.0/arm/arm-none-eabi/include/c++/10.3.1/bits/stl_algobase.h ****     }
 215:/Library/DaisyToolchain/0.2.0/arm/arm-none-eabi/include/c++/10.3.1/bits/stl_algobase.h **** 
 216:/Library/DaisyToolchain/0.2.0/arm/arm-none-eabi/include/c++/10.3.1/bits/stl_algobase.h ****   /**
 217:/Library/DaisyToolchain/0.2.0/arm/arm-none-eabi/include/c++/10.3.1/bits/stl_algobase.h ****    *  @brief This does what you think it does.
 218:/Library/DaisyToolchain/0.2.0/arm/arm-none-eabi/include/c++/10.3.1/bits/stl_algobase.h ****    *  @ingroup sorting_algorithms
 219:/Library/DaisyToolchain/0.2.0/arm/arm-none-eabi/include/c++/10.3.1/bits/stl_algobase.h ****    *  @param  __a  A thing of arbitrary type.
 220:/Library/DaisyToolchain/0.2.0/arm/arm-none-eabi/include/c++/10.3.1/bits/stl_algobase.h ****    *  @param  __b  Another thing of arbitrary type.
 221:/Library/DaisyToolchain/0.2.0/arm/arm-none-eabi/include/c++/10.3.1/bits/stl_algobase.h ****    *  @return   The lesser of the parameters.
 222:/Library/DaisyToolchain/0.2.0/arm/arm-none-eabi/include/c++/10.3.1/bits/stl_algobase.h ****    *
 223:/Library/DaisyToolchain/0.2.0/arm/arm-none-eabi/include/c++/10.3.1/bits/stl_algobase.h ****    *  This is the simple classic generic implementation.  It will work on
 224:/Library/DaisyToolchain/0.2.0/arm/arm-none-eabi/include/c++/10.3.1/bits/stl_algobase.h ****    *  temporary expressions, since they are only evaluated once, unlike a
 225:/Library/DaisyToolchain/0.2.0/arm/arm-none-eabi/include/c++/10.3.1/bits/stl_algobase.h ****    *  preprocessor macro.
 226:/Library/DaisyToolchain/0.2.0/arm/arm-none-eabi/include/c++/10.3.1/bits/stl_algobase.h ****   */
 227:/Library/DaisyToolchain/0.2.0/arm/arm-none-eabi/include/c++/10.3.1/bits/stl_algobase.h ****   template<typename _Tp>
 228:/Library/DaisyToolchain/0.2.0/arm/arm-none-eabi/include/c++/10.3.1/bits/stl_algobase.h ****     _GLIBCXX14_CONSTEXPR
 229:/Library/DaisyToolchain/0.2.0/arm/arm-none-eabi/include/c++/10.3.1/bits/stl_algobase.h ****     inline const _Tp&
 230:/Library/DaisyToolchain/0.2.0/arm/arm-none-eabi/include/c++/10.3.1/bits/stl_algobase.h ****     min(const _Tp& __a, const _Tp& __b)
 231:/Library/DaisyToolchain/0.2.0/arm/arm-none-eabi/include/c++/10.3.1/bits/stl_algobase.h ****     {
ARM GAS  /var/folders/1y/_321xjh9623c014x9_qw12rr0000gn/T//ccXuncwa.s 			page 26


 232:/Library/DaisyToolchain/0.2.0/arm/arm-none-eabi/include/c++/10.3.1/bits/stl_algobase.h ****       // concept requirements
 233:/Library/DaisyToolchain/0.2.0/arm/arm-none-eabi/include/c++/10.3.1/bits/stl_algobase.h ****       __glibcxx_function_requires(_LessThanComparableConcept<_Tp>)
 234:/Library/DaisyToolchain/0.2.0/arm/arm-none-eabi/include/c++/10.3.1/bits/stl_algobase.h ****       //return __b < __a ? __b : __a;
 235:/Library/DaisyToolchain/0.2.0/arm/arm-none-eabi/include/c++/10.3.1/bits/stl_algobase.h ****       if (__b < __a)
 236:/Library/DaisyToolchain/0.2.0/arm/arm-none-eabi/include/c++/10.3.1/bits/stl_algobase.h **** 	return __b;
 237:/Library/DaisyToolchain/0.2.0/arm/arm-none-eabi/include/c++/10.3.1/bits/stl_algobase.h ****       return __a;
 238:/Library/DaisyToolchain/0.2.0/arm/arm-none-eabi/include/c++/10.3.1/bits/stl_algobase.h ****     }
 239:/Library/DaisyToolchain/0.2.0/arm/arm-none-eabi/include/c++/10.3.1/bits/stl_algobase.h **** 
 240:/Library/DaisyToolchain/0.2.0/arm/arm-none-eabi/include/c++/10.3.1/bits/stl_algobase.h ****   /**
 241:/Library/DaisyToolchain/0.2.0/arm/arm-none-eabi/include/c++/10.3.1/bits/stl_algobase.h ****    *  @brief This does what you think it does.
 242:/Library/DaisyToolchain/0.2.0/arm/arm-none-eabi/include/c++/10.3.1/bits/stl_algobase.h ****    *  @ingroup sorting_algorithms
 243:/Library/DaisyToolchain/0.2.0/arm/arm-none-eabi/include/c++/10.3.1/bits/stl_algobase.h ****    *  @param  __a  A thing of arbitrary type.
 244:/Library/DaisyToolchain/0.2.0/arm/arm-none-eabi/include/c++/10.3.1/bits/stl_algobase.h ****    *  @param  __b  Another thing of arbitrary type.
 245:/Library/DaisyToolchain/0.2.0/arm/arm-none-eabi/include/c++/10.3.1/bits/stl_algobase.h ****    *  @return   The greater of the parameters.
 246:/Library/DaisyToolchain/0.2.0/arm/arm-none-eabi/include/c++/10.3.1/bits/stl_algobase.h ****    *
 247:/Library/DaisyToolchain/0.2.0/arm/arm-none-eabi/include/c++/10.3.1/bits/stl_algobase.h ****    *  This is the simple classic generic implementation.  It will work on
 248:/Library/DaisyToolchain/0.2.0/arm/arm-none-eabi/include/c++/10.3.1/bits/stl_algobase.h ****    *  temporary expressions, since they are only evaluated once, unlike a
 249:/Library/DaisyToolchain/0.2.0/arm/arm-none-eabi/include/c++/10.3.1/bits/stl_algobase.h ****    *  preprocessor macro.
 250:/Library/DaisyToolchain/0.2.0/arm/arm-none-eabi/include/c++/10.3.1/bits/stl_algobase.h ****   */
 251:/Library/DaisyToolchain/0.2.0/arm/arm-none-eabi/include/c++/10.3.1/bits/stl_algobase.h ****   template<typename _Tp>
 252:/Library/DaisyToolchain/0.2.0/arm/arm-none-eabi/include/c++/10.3.1/bits/stl_algobase.h ****     _GLIBCXX14_CONSTEXPR
 253:/Library/DaisyToolchain/0.2.0/arm/arm-none-eabi/include/c++/10.3.1/bits/stl_algobase.h ****     inline const _Tp&
 254:/Library/DaisyToolchain/0.2.0/arm/arm-none-eabi/include/c++/10.3.1/bits/stl_algobase.h ****     max(const _Tp& __a, const _Tp& __b)
 241              		.loc 5 254 5 view .LVU43
 242              	.LBE293:
 272:Dubby.cpp     ****                                     0),
 243              		.loc 2 272 61 is_stmt 0 view .LVU44
 244 005c 049A     		ldr	r2, [sp, #16]
 272:Dubby.cpp     ****                                     0),
 245              		.loc 2 272 63 view .LVU45
 246 005e 9FED617A 		vldr.32	s14, .L44
 272:Dubby.cpp     ****                                     0),
 247              		.loc 2 272 61 view .LVU46
 248 0062 F2EC017A 		vldmia.32	r2!, {s15}
 272:Dubby.cpp     ****                                     0),
 249              		.loc 2 272 63 view .LVU47
 250 0066 67EE877A 		vmul.f32	s15, s15, s14
 272:Dubby.cpp     ****                                     0),
 251              		.loc 2 272 61 view .LVU48
 252 006a 0492     		str	r2, [sp, #16]
 272:Dubby.cpp     ****                                     0),
 253              		.loc 2 272 43 view .LVU49
 254 006c FDEEE77A 		vcvt.s32.f32	s15, s15
 255              	.LBB296:
 256              	.LBB294:
 255:/Library/DaisyToolchain/0.2.0/arm/arm-none-eabi/include/c++/10.3.1/bits/stl_algobase.h ****     {
 256:/Library/DaisyToolchain/0.2.0/arm/arm-none-eabi/include/c++/10.3.1/bits/stl_algobase.h ****       // concept requirements
 257:/Library/DaisyToolchain/0.2.0/arm/arm-none-eabi/include/c++/10.3.1/bits/stl_algobase.h ****       __glibcxx_function_requires(_LessThanComparableConcept<_Tp>)
 258:/Library/DaisyToolchain/0.2.0/arm/arm-none-eabi/include/c++/10.3.1/bits/stl_algobase.h ****       //return  __a < __b ? __b : __a;
 259:/Library/DaisyToolchain/0.2.0/arm/arm-none-eabi/include/c++/10.3.1/bits/stl_algobase.h ****       if (__a < __b)
 257              		.loc 5 259 7 view .LVU50
 258 0070 17EE902A 		vmov	r2, s15	@ int
 259 0074 D2F11804 		rsbs	r4, r2, #24
 260 0078 00F1AD80 		bmi	.L26
 261              	.LVL15:
 262              		.loc 5 259 7 view .LVU51
 263              	.LBE294:
ARM GAS  /var/folders/1y/_321xjh9623c014x9_qw12rr0000gn/T//ccXuncwa.s 			page 27


 264              	.LBE296:
 265              	.LBB297:
 266              	.LBI297:
 230:/Library/DaisyToolchain/0.2.0/arm/arm-none-eabi/include/c++/10.3.1/bits/stl_algobase.h ****     {
 267              		.loc 5 230 5 is_stmt 1 view .LVU52
 268              	.LBB298:
 235:/Library/DaisyToolchain/0.2.0/arm/arm-none-eabi/include/c++/10.3.1/bits/stl_algobase.h **** 	return __b;
 269              		.loc 5 235 7 is_stmt 0 view .LVU53
 270 007c 312C     		cmp	r4, #49
 271 007e 40F3AB80 		ble	.L7
 272 0082 3224     		movs	r4, #50
 273              	.LVL16:
 274              	.L8:
 235:/Library/DaisyToolchain/0.2.0/arm/arm-none-eabi/include/c++/10.3.1/bits/stl_algobase.h **** 	return __b;
 275              		.loc 5 235 7 view .LVU54
 276              	.LBE298:
 277              	.LBE297:
 275:Dubby.cpp     ****             if(i != 0)
 278              		.loc 2 275 13 is_stmt 1 view .LVU55
 275:Dubby.cpp     ****             if(i != 0)
 279              		.loc 2 275 46 is_stmt 0 view .LVU56
 280 0084 019A     		ldr	r2, [sp, #4]
 276:Dubby.cpp     ****             {
 281              		.loc 2 276 13 view .LVU57
 282 0086 B9F1010F 		cmp	r9, #1
 275:Dubby.cpp     ****             if(i != 0)
 283              		.loc 2 275 46 view .LVU58
 284 008a 4FEAD215 		lsr	r5, r2, #7
 275:Dubby.cpp     ****             if(i != 0)
 285              		.loc 2 275 23 view .LVU59
 286 008e 05F10105 		add	r5, r5, #1
 287              	.LVL17:
 276:Dubby.cpp     ****             {
 288              		.loc 2 276 13 is_stmt 1 view .LVU60
 289 0092 DCD0     		beq	.L9
 278:Dubby.cpp     ****             }
 290              		.loc 2 278 17 view .LVU61
 291              	.LBB299:
 292              	.LBB300:
 227:../../libDaisy//src/hid/disp/display.h ****         int_fast16_t deltaY = abs((int_fast16_t)y2 - (int_fast16_t)y1);
 293              		.loc 3 227 52 is_stmt 0 view .LVU62
 294 0094 EF1A     		subs	r7, r5, r3
 228:../../libDaisy//src/hid/disp/display.h ****         int_fast16_t signX  = ((x1 < x2) ? 1 : -1);
 295              		.loc 3 228 52 view .LVU63
 296 0096 A4EB060E 		sub	lr, r4, r6
 297              	.LBE300:
 298              	.LBE299:
 278:Dubby.cpp     ****             }
 299              		.loc 2 278 33 view .LVU64
 300 009a 1946     		mov	r1, r3
 301 009c 3246     		mov	r2, r6
 302              	.LVL18:
 303              	.LBB319:
 304              	.LBI299:
 221:../../libDaisy//src/hid/disp/display.h ****                   uint_fast8_t y1,
 305              		.loc 3 221 10 is_stmt 1 view .LVU65
 306              	.LBB317:
ARM GAS  /var/folders/1y/_321xjh9623c014x9_qw12rr0000gn/T//ccXuncwa.s 			page 28


 227:../../libDaisy//src/hid/disp/display.h ****         int_fast16_t deltaY = abs((int_fast16_t)y2 - (int_fast16_t)y1);
 307              		.loc 3 227 22 is_stmt 0 view .LVU66
 308 009e 002F     		cmp	r7, #0
 309 00a0 B8BF     		it	lt
 310 00a2 7F42     		rsblt	r7, r7, #0
 311              	.LVL19:
 228:../../libDaisy//src/hid/disp/display.h ****         int_fast16_t signX  = ((x1 < x2) ? 1 : -1);
 312              		.loc 3 228 22 view .LVU67
 313 00a4 BEF1000F 		cmp	lr, #0
 314 00a8 B8BF     		it	lt
 315 00aa CEF1000E 		rsblt	lr, lr, #0
 316              	.LVL20:
 229:../../libDaisy//src/hid/disp/display.h ****         int_fast16_t signY  = ((y1 < y2) ? 1 : -1);
 317              		.loc 3 229 42 view .LVU68
 318 00ae 9D42     		cmp	r5, r3
 319 00b0 8CBF     		ite	hi
 320 00b2 0120     		movhi	r0, #1
 321 00b4 4FF0FF30 		movls	r0, #-1
 230:../../libDaisy//src/hid/disp/display.h ****         int_fast16_t error  = deltaX - deltaY;
 322              		.loc 3 230 42 view .LVU69
 323 00b8 A642     		cmp	r6, r4
 229:../../libDaisy//src/hid/disp/display.h ****         int_fast16_t signY  = ((y1 < y2) ? 1 : -1);
 324              		.loc 3 229 42 view .LVU70
 325 00ba 0290     		str	r0, [sp, #8]
 326              	.LVL21:
 231:../../libDaisy//src/hid/disp/display.h ****         int_fast16_t error2;
 327              		.loc 3 231 22 view .LVU71
 328 00bc A7EB0E00 		sub	r0, r7, lr
 329              	.LVL22:
 231:../../libDaisy//src/hid/disp/display.h ****         int_fast16_t error2;
 330              		.loc 3 231 22 view .LVU72
 331 00c0 0590     		str	r0, [sp, #20]
 230:../../libDaisy//src/hid/disp/display.h ****         int_fast16_t error  = deltaX - deltaY;
 332              		.loc 3 230 42 view .LVU73
 333 00c2 C0F08B80 		bcc	.L24
 334              	.LVL23:
 335              	.LBB301:
 336              	.LBI301:
 337              		.loc 1 42 10 is_stmt 1 view .LVU74
 338              	.LBB302:
 339              	.LBI302:
 352:../../libDaisy//src/dev/oled_ssd130x.h ****     {
 340              		.loc 4 352 10 view .LVU75
 341              	.LBE302:
 342              	.LBE301:
 230:../../libDaisy//src/hid/disp/display.h ****         int_fast16_t error  = deltaX - deltaY;
 343              		.loc 3 230 42 is_stmt 0 view .LVU76
 344 00c6 4FF0FF30 		mov	r0, #-1
 345              	.LVL24:
 230:../../libDaisy//src/hid/disp/display.h ****         int_fast16_t error  = deltaX - deltaY;
 346              		.loc 3 230 42 view .LVU77
 347 00ca 0390     		str	r0, [sp, #12]
 348              	.LVL25:
 349              	.L23:
 350              	.LBB308:
 351              	.LBB305:
 352              	.LBB303:
ARM GAS  /var/folders/1y/_321xjh9623c014x9_qw12rr0000gn/T//ccXuncwa.s 			page 29


 357:../../libDaisy//src/dev/oled_ssd130x.h ****         else
 353              		.loc 4 357 28 view .LVU78
 354 00cc 4FEAD40C 		lsr	ip, r4, #3
 357:../../libDaisy//src/dev/oled_ssd130x.h ****         else
 355              		.loc 4 357 48 view .LVU79
 356 00d0 4FF0010B 		mov	fp, #1
 357:../../libDaisy//src/dev/oled_ssd130x.h ****         else
 357              		.loc 4 357 54 view .LVU80
 358 00d4 04F00708 		and	r8, r4, #7
 359              	.LBE303:
 360              	.LBE305:
 361              	.LBE308:
 239:../../libDaisy//src/hid/disp/display.h ****         {
 362              		.loc 3 239 26 view .LVU81
 363 00d8 9D42     		cmp	r5, r3
 364              	.LBB309:
 365              	.LBB306:
 366              	.LBB304:
 357:../../libDaisy//src/dev/oled_ssd130x.h ****         else
 367              		.loc 4 357 42 view .LVU82
 368 00da 05EBCC1C 		add	ip, r5, ip, lsl #7
 357:../../libDaisy//src/dev/oled_ssd130x.h ****         else
 369              		.loc 4 357 48 view .LVU83
 370 00de 0BFA08F8 		lsl	r8, fp, r8
 357:../../libDaisy//src/dev/oled_ssd130x.h ****         else
 371              		.loc 4 357 42 view .LVU84
 372 00e2 D444     		add	ip, ip, r10
 373 00e4 9CF824B4 		ldrb	fp, [ip, #1060]	@ zero_extendqisi2
 374 00e8 48EA0B08 		orr	r8, r8, fp
 375 00ec 8CF82484 		strb	r8, [ip, #1060]
 376              	.LVL26:
 357:../../libDaisy//src/dev/oled_ssd130x.h ****         else
 377              		.loc 4 357 42 view .LVU85
 378              	.LBE304:
 379              	.LBE306:
 380              	.LBE309:
 239:../../libDaisy//src/hid/disp/display.h ****         {
 381              		.loc 3 239 26 is_stmt 1 view .LVU86
 382 00f0 01D1     		bne	.L14
 383 00f2 A642     		cmp	r6, r4
 384 00f4 28D0     		beq	.L12
 385              	.L14:
 386              	.LVL27:
 243:../../libDaisy//src/hid/disp/display.h ****             {
 387              		.loc 3 243 23 is_stmt 0 view .LVU87
 388 00f6 CEF10008 		rsb	r8, lr, #0
 389 00fa 0598     		ldr	r0, [sp, #20]
 390              	.LVL28:
 391              	.L16:
 392              	.LBB310:
 393              	.LBI310:
 394              		.loc 1 42 10 is_stmt 1 view .LVU88
 395              	.LBB311:
 396              	.LBI311:
 352:../../libDaisy//src/dev/oled_ssd130x.h ****     {
 397              		.loc 4 352 10 view .LVU89
 398              	.LBB312:
ARM GAS  /var/folders/1y/_321xjh9623c014x9_qw12rr0000gn/T//ccXuncwa.s 			page 30


 357:../../libDaisy//src/dev/oled_ssd130x.h ****         else
 399              		.loc 4 357 48 is_stmt 0 view .LVU90
 400 00fc 4FF0010C 		mov	ip, #1
 357:../../libDaisy//src/dev/oled_ssd130x.h ****         else
 401              		.loc 4 357 28 view .LVU91
 402 0100 D308     		lsrs	r3, r2, #3
 357:../../libDaisy//src/dev/oled_ssd130x.h ****         else
 403              		.loc 4 357 54 view .LVU92
 404 0102 02F00706 		and	r6, r2, #7
 354:../../libDaisy//src/dev/oled_ssd130x.h ****             return;
 405              		.loc 4 354 9 view .LVU93
 406 0106 7F29     		cmp	r1, #127
 357:../../libDaisy//src/dev/oled_ssd130x.h ****         else
 407              		.loc 4 357 42 view .LVU94
 408 0108 01EBC313 		add	r3, r1, r3, lsl #7
 409              	.LBE312:
 410              	.LBE311:
 411              	.LBE310:
 242:../../libDaisy//src/hid/disp/display.h ****             if(error2 > -deltaY)
 412              		.loc 3 242 20 view .LVU95
 413 010c 00FA0CFB 		lsl	fp, r0, ip
 414              	.LVL29:
 415              	.LBB315:
 416              	.LBB314:
 417              	.LBB313:
 357:../../libDaisy//src/dev/oled_ssd130x.h ****         else
 418              		.loc 4 357 48 view .LVU96
 419 0110 0CFA06F6 		lsl	r6, ip, r6
 354:../../libDaisy//src/dev/oled_ssd130x.h ****             return;
 420              		.loc 4 354 9 view .LVU97
 421 0114 08D8     		bhi	.L17
 422 0116 3F2A     		cmp	r2, #63
 357:../../libDaisy//src/dev/oled_ssd130x.h ****         else
 423              		.loc 4 357 42 view .LVU98
 424 0118 5344     		add	r3, r3, r10
 354:../../libDaisy//src/dev/oled_ssd130x.h ****             return;
 425              		.loc 4 354 9 view .LVU99
 426 011a 05D8     		bhi	.L17
 357:../../libDaisy//src/dev/oled_ssd130x.h ****         else
 427              		.loc 4 357 42 view .LVU100
 428 011c 93F824C4 		ldrb	ip, [r3, #1060]	@ zero_extendqisi2
 429 0120 46EA0C06 		orr	r6, r6, ip
 430 0124 83F82464 		strb	r6, [r3, #1060]
 431              	.L17:
 357:../../libDaisy//src/dev/oled_ssd130x.h ****         else
 432              		.loc 4 357 42 view .LVU101
 433              	.LBE313:
 434              	.LBE314:
 435              	.LBE315:
 243:../../libDaisy//src/hid/disp/display.h ****             {
 436              		.loc 3 243 13 view .LVU102
 437 0128 B8EB400F 		cmp	r8, r0, lsl #1
 438 012c 03DA     		bge	.L18
 246:../../libDaisy//src/hid/disp/display.h ****             }
 439              		.loc 3 246 20 view .LVU103
 440 012e 029B     		ldr	r3, [sp, #8]
 245:../../libDaisy//src/hid/disp/display.h ****                 x1 += signX;
ARM GAS  /var/folders/1y/_321xjh9623c014x9_qw12rr0000gn/T//ccXuncwa.s 			page 31


 441              		.loc 3 245 23 view .LVU104
 442 0130 A0EB0E00 		sub	r0, r0, lr
 443              	.LVL30:
 246:../../libDaisy//src/hid/disp/display.h ****             }
 444              		.loc 3 246 20 view .LVU105
 445 0134 1944     		add	r1, r1, r3
 446              	.LVL31:
 447              	.L18:
 249:../../libDaisy//src/hid/disp/display.h ****             {
 448              		.loc 3 249 13 view .LVU106
 449 0136 5F45     		cmp	r7, fp
 450 0138 02DD     		ble	.L19
 252:../../libDaisy//src/hid/disp/display.h ****             }
 451              		.loc 3 252 20 view .LVU107
 452 013a 039B     		ldr	r3, [sp, #12]
 251:../../libDaisy//src/hid/disp/display.h ****                 y1 += signY;
 453              		.loc 3 251 23 view .LVU108
 454 013c 3844     		add	r0, r0, r7
 455              	.LVL32:
 252:../../libDaisy//src/hid/disp/display.h ****             }
 456              		.loc 3 252 20 view .LVU109
 457 013e 1A44     		add	r2, r2, r3
 458              	.LVL33:
 459              	.L19:
 239:../../libDaisy//src/hid/disp/display.h ****         {
 460              		.loc 3 239 26 is_stmt 1 view .LVU110
 461 0140 8D42     		cmp	r5, r1
 462 0142 DBD1     		bne	.L16
 239:../../libDaisy//src/hid/disp/display.h ****         {
 463              		.loc 3 239 26 is_stmt 0 view .LVU111
 464 0144 9442     		cmp	r4, r2
 465 0146 D9D1     		bne	.L16
 466              	.LVL34:
 467              	.L12:
 239:../../libDaisy//src/hid/disp/display.h ****         {
 468              		.loc 3 239 26 view .LVU112
 469              	.LBE317:
 470              	.LBE319:
 471              		.loc 2 280 13 is_stmt 1 view .LVU113
 281:Dubby.cpp     ****             prev_y = y;
 472              		.loc 2 281 13 view .LVU114
 473              		.loc 2 281 13 is_stmt 0 view .LVU115
 474              	.LBE292:
 269:Dubby.cpp     ****         {
 475              		.loc 2 269 9 is_stmt 1 view .LVU116
 269:Dubby.cpp     ****         {
 476              		.loc 2 269 29 view .LVU117
 477 0148 B9F1800F 		cmp	r9, #128
 478 014c 7FF47FAF 		bne	.L9
 479              	.LBE291:
 480              	.LBB323:
 481              	.LBB324:
 482              	.LBB325:
 483              	.LBB326:
 484              	.LBB327:
 124:../../libDaisy//src/dev/oled_ssd130x.h ****         spi_.BlockingTransmit(&cmd, 1);
 485              		.loc 4 124 24 is_stmt 0 view .LVU118
ARM GAS  /var/folders/1y/_321xjh9623c014x9_qw12rr0000gn/T//ccXuncwa.s 			page 32


 486 0150 0AF58367 		add	r7, r10, #1048
 487 0154 0AF58466 		add	r6, r10, #1056
 488 0158 0AF22444 		addw	r4, r10, #1060
 125:../../libDaisy//src/dev/oled_ssd130x.h ****     };
 489              		.loc 4 125 30 view .LVU119
 490 015c B025     		movs	r5, #176
 491              	.LVL35:
 492              	.L22:
 125:../../libDaisy//src/dev/oled_ssd130x.h ****     };
 493              		.loc 4 125 30 view .LVU120
 494 015e 4FF00008 		mov	r8, #0
 124:../../libDaisy//src/dev/oled_ssd130x.h ****         spi_.BlockingTransmit(&cmd, 1);
 495              		.loc 4 124 23 view .LVU121
 496 0162 3046     		mov	r0, r6
 497 0164 8DF81F50 		strb	r5, [sp, #31]
 498              	.LVL36:
 124:../../libDaisy//src/dev/oled_ssd130x.h ****         spi_.BlockingTransmit(&cmd, 1);
 499              		.loc 4 124 23 view .LVU122
 500              	.LBE327:
 501              	.LBI326:
 122:../../libDaisy//src/dev/oled_ssd130x.h ****     {
 502              		.loc 4 122 10 is_stmt 1 view .LVU123
 503              	.LBB328:
 124:../../libDaisy//src/dev/oled_ssd130x.h ****         spi_.BlockingTransmit(&cmd, 1);
 504              		.loc 4 124 9 view .LVU124
 505              	.LBE328:
 506              	.LBE326:
 360:../../libDaisy//src/dev/oled_ssd130x.h ****     }
 361:../../libDaisy//src/dev/oled_ssd130x.h **** 
 362:../../libDaisy//src/dev/oled_ssd130x.h ****     void Fill(bool on)
 363:../../libDaisy//src/dev/oled_ssd130x.h ****     {
 364:../../libDaisy//src/dev/oled_ssd130x.h ****         for(size_t i = 0; i < sizeof(buffer_); i++)
 365:../../libDaisy//src/dev/oled_ssd130x.h ****         {
 366:../../libDaisy//src/dev/oled_ssd130x.h ****             buffer_[i] = on ? 0xff : 0x00;
 367:../../libDaisy//src/dev/oled_ssd130x.h ****         }
 368:../../libDaisy//src/dev/oled_ssd130x.h ****     };
 369:../../libDaisy//src/dev/oled_ssd130x.h **** 
 370:../../libDaisy//src/dev/oled_ssd130x.h ****     /**
 371:../../libDaisy//src/dev/oled_ssd130x.h ****      * Update the display 
 372:../../libDaisy//src/dev/oled_ssd130x.h ****     */
 373:../../libDaisy//src/dev/oled_ssd130x.h ****     void Update()
 374:../../libDaisy//src/dev/oled_ssd130x.h ****     {
 375:../../libDaisy//src/dev/oled_ssd130x.h ****         uint8_t i;
 376:../../libDaisy//src/dev/oled_ssd130x.h ****         uint8_t high_column_addr;
 377:../../libDaisy//src/dev/oled_ssd130x.h ****         switch(height)
 378:../../libDaisy//src/dev/oled_ssd130x.h ****         {
 379:../../libDaisy//src/dev/oled_ssd130x.h ****             case 32: high_column_addr = 0x12; break;
 380:../../libDaisy//src/dev/oled_ssd130x.h **** 
 381:../../libDaisy//src/dev/oled_ssd130x.h ****             default: high_column_addr = 0x10; break;
 382:../../libDaisy//src/dev/oled_ssd130x.h ****         }
 383:../../libDaisy//src/dev/oled_ssd130x.h ****         for(i = 0; i < (height / 8); i++)
 507              		.loc 4 383 22 is_stmt 0 view .LVU125
 508 0168 0135     		adds	r5, r5, #1
 509              	.LVL37:
 510              	.LBB331:
 511              	.LBB329:
 124:../../libDaisy//src/dev/oled_ssd130x.h ****         spi_.BlockingTransmit(&cmd, 1);
ARM GAS  /var/folders/1y/_321xjh9623c014x9_qw12rr0000gn/T//ccXuncwa.s 			page 33


 512              		.loc 4 124 23 view .LVU126
 513 016a 4146     		mov	r1, r8
 514 016c FFF7FEFF 		bl	dsy_gpio_write
 515              	.LVL38:
 125:../../libDaisy//src/dev/oled_ssd130x.h ****     };
 516              		.loc 4 125 9 is_stmt 1 view .LVU127
 125:../../libDaisy//src/dev/oled_ssd130x.h ****     };
 517              		.loc 4 125 30 is_stmt 0 view .LVU128
 518 0170 6423     		movs	r3, #100
 519 0172 0122     		movs	r2, #1
 520 0174 0DF11F01 		add	r1, sp, #31
 521 0178 3846     		mov	r0, r7
 522              	.LBE329:
 523              	.LBE331:
 524              		.loc 4 383 22 view .LVU129
 525 017a EDB2     		uxtb	r5, r5
 526              	.LBB332:
 527              	.LBB330:
 125:../../libDaisy//src/dev/oled_ssd130x.h ****     };
 528              		.loc 4 125 30 view .LVU130
 529 017c FFF7FEFF 		bl	_ZN5daisy9SpiHandle16BlockingTransmitEPhjm
 530              	.LVL39:
 125:../../libDaisy//src/dev/oled_ssd130x.h ****     };
 531              		.loc 4 125 30 view .LVU131
 532              	.LBE330:
 533              	.LBE332:
 534              	.LBB333:
 535              	.LBB334:
 124:../../libDaisy//src/dev/oled_ssd130x.h ****         spi_.BlockingTransmit(&cmd, 1);
 536              		.loc 4 124 23 view .LVU132
 537 0180 4146     		mov	r1, r8
 538 0182 3046     		mov	r0, r6
 539 0184 8DF81F80 		strb	r8, [sp, #31]
 540              	.LVL40:
 124:../../libDaisy//src/dev/oled_ssd130x.h ****         spi_.BlockingTransmit(&cmd, 1);
 541              		.loc 4 124 23 view .LVU133
 542              	.LBE334:
 543              	.LBI333:
 122:../../libDaisy//src/dev/oled_ssd130x.h ****     {
 544              		.loc 4 122 10 is_stmt 1 view .LVU134
 545              	.LBB335:
 124:../../libDaisy//src/dev/oled_ssd130x.h ****         spi_.BlockingTransmit(&cmd, 1);
 546              		.loc 4 124 9 view .LVU135
 124:../../libDaisy//src/dev/oled_ssd130x.h ****         spi_.BlockingTransmit(&cmd, 1);
 547              		.loc 4 124 23 is_stmt 0 view .LVU136
 548 0188 FFF7FEFF 		bl	dsy_gpio_write
 549              	.LVL41:
 125:../../libDaisy//src/dev/oled_ssd130x.h ****     };
 550              		.loc 4 125 9 is_stmt 1 view .LVU137
 125:../../libDaisy//src/dev/oled_ssd130x.h ****     };
 551              		.loc 4 125 30 is_stmt 0 view .LVU138
 552 018c 0122     		movs	r2, #1
 553 018e 6423     		movs	r3, #100
 554 0190 0DF11F01 		add	r1, sp, #31
 555 0194 3846     		mov	r0, r7
 556 0196 FFF7FEFF 		bl	_ZN5daisy9SpiHandle16BlockingTransmitEPhjm
 557              	.LVL42:
ARM GAS  /var/folders/1y/_321xjh9623c014x9_qw12rr0000gn/T//ccXuncwa.s 			page 34


 125:../../libDaisy//src/dev/oled_ssd130x.h ****     };
 558              		.loc 4 125 30 view .LVU139
 559 019a 1023     		movs	r3, #16
 560              	.LBE335:
 561              	.LBE333:
 562              	.LBB336:
 563              	.LBB337:
 124:../../libDaisy//src/dev/oled_ssd130x.h ****         spi_.BlockingTransmit(&cmd, 1);
 564              		.loc 4 124 23 view .LVU140
 565 019c 4146     		mov	r1, r8
 566 019e 3046     		mov	r0, r6
 567 01a0 8DF81F30 		strb	r3, [sp, #31]
 568              	.LVL43:
 124:../../libDaisy//src/dev/oled_ssd130x.h ****         spi_.BlockingTransmit(&cmd, 1);
 569              		.loc 4 124 23 view .LVU141
 570              	.LBE337:
 571              	.LBI336:
 122:../../libDaisy//src/dev/oled_ssd130x.h ****     {
 572              		.loc 4 122 10 is_stmt 1 view .LVU142
 573              	.LBB338:
 124:../../libDaisy//src/dev/oled_ssd130x.h ****         spi_.BlockingTransmit(&cmd, 1);
 574              		.loc 4 124 9 view .LVU143
 124:../../libDaisy//src/dev/oled_ssd130x.h ****         spi_.BlockingTransmit(&cmd, 1);
 575              		.loc 4 124 23 is_stmt 0 view .LVU144
 576 01a4 FFF7FEFF 		bl	dsy_gpio_write
 577              	.LVL44:
 125:../../libDaisy//src/dev/oled_ssd130x.h ****     };
 578              		.loc 4 125 9 is_stmt 1 view .LVU145
 125:../../libDaisy//src/dev/oled_ssd130x.h ****     };
 579              		.loc 4 125 30 is_stmt 0 view .LVU146
 580 01a8 6423     		movs	r3, #100
 581 01aa 0122     		movs	r2, #1
 582 01ac 0DF11F01 		add	r1, sp, #31
 583 01b0 3846     		mov	r0, r7
 584 01b2 FFF7FEFF 		bl	_ZN5daisy9SpiHandle16BlockingTransmitEPhjm
 585              	.LVL45:
 125:../../libDaisy//src/dev/oled_ssd130x.h ****     };
 586              		.loc 4 125 30 view .LVU147
 587              	.LBE338:
 588              	.LBE336:
 589              	.LBB339:
 590              	.LBI339:
 128:../../libDaisy//src/dev/oled_ssd130x.h ****     {
 591              		.loc 4 128 10 is_stmt 1 view .LVU148
 592              	.LBB340:
 130:../../libDaisy//src/dev/oled_ssd130x.h ****         spi_.BlockingTransmit(buff, size);
 593              		.loc 4 130 9 view .LVU149
 130:../../libDaisy//src/dev/oled_ssd130x.h ****         spi_.BlockingTransmit(buff, size);
 594              		.loc 4 130 23 is_stmt 0 view .LVU150
 595 01b6 0121     		movs	r1, #1
 596 01b8 3046     		mov	r0, r6
 597 01ba FFF7FEFF 		bl	dsy_gpio_write
 598              	.LVL46:
 131:../../libDaisy//src/dev/oled_ssd130x.h ****     };
 599              		.loc 4 131 9 is_stmt 1 view .LVU151
 131:../../libDaisy//src/dev/oled_ssd130x.h ****     };
 600              		.loc 4 131 30 is_stmt 0 view .LVU152
ARM GAS  /var/folders/1y/_321xjh9623c014x9_qw12rr0000gn/T//ccXuncwa.s 			page 35


 601 01be 8022     		movs	r2, #128
 602 01c0 2146     		mov	r1, r4
 603 01c2 6423     		movs	r3, #100
 604 01c4 3846     		mov	r0, r7
 605              	.LBE340:
 606              	.LBE339:
 607              		.loc 4 383 22 view .LVU153
 608 01c6 1444     		add	r4, r4, r2
 609              	.LVL47:
 610              	.LBB342:
 611              	.LBB341:
 131:../../libDaisy//src/dev/oled_ssd130x.h ****     };
 612              		.loc 4 131 30 view .LVU154
 613 01c8 FFF7FEFF 		bl	_ZN5daisy9SpiHandle16BlockingTransmitEPhjm
 614              	.LVL48:
 131:../../libDaisy//src/dev/oled_ssd130x.h ****     };
 615              		.loc 4 131 30 view .LVU155
 616              	.LBE341:
 617              	.LBE342:
 618              		.loc 4 383 9 is_stmt 1 view .LVU156
 619              		.loc 4 383 22 view .LVU157
 620 01cc B82D     		cmp	r5, #184
 621 01ce C6D1     		bne	.L22
 622              	.LBE325:
 623              	.LBE324:
 624              	.LBE323:
 625              	.LBE345:
 282:Dubby.cpp     ****         }
 283:Dubby.cpp     **** 
 284:Dubby.cpp     ****         display.Update();
 285:Dubby.cpp     ****     }   
 286:Dubby.cpp     **** }
 626              		.loc 2 286 1 is_stmt 0 view .LVU158
 627 01d0 09B0     		add	sp, sp, #36
 628              		.cfi_remember_state
 629              		.cfi_def_cfa_offset 36
 630              		@ sp needed
 631 01d2 BDE8F08F 		pop	{r4, r5, r6, r7, r8, r9, r10, fp, pc}
 632              	.LVL49:
 633              	.L26:
 634              		.cfi_restore_state
 635              	.LBB346:
 636              	.LBB343:
 637              	.LBB322:
 638              	.LBB320:
 639              	.LBB295:
 640              		.loc 2 286 1 view .LVU159
 641 01d6 0024     		movs	r4, #0
 642              	.LVL50:
 643              	.L7:
 644              		.loc 2 286 1 view .LVU160
 645              	.LBE295:
 646              	.LBE320:
 274:Dubby.cpp     ****             int x = 1 + i * (OLED_WIDTH - 2) / AUDIO_BLOCK_SIZE;
 647              		.loc 2 274 45 view .LVU161
 648 01d8 0134     		adds	r4, r4, #1
 649 01da 53E7     		b	.L8
ARM GAS  /var/folders/1y/_321xjh9623c014x9_qw12rr0000gn/T//ccXuncwa.s 			page 36


 650              	.LVL51:
 651              	.L24:
 652              	.LBB321:
 653              	.LBB318:
 654              	.LBB316:
 655              		.loc 1 42 10 is_stmt 1 view .LVU162
 656              	.LBB307:
 352:../../libDaisy//src/dev/oled_ssd130x.h ****     {
 657              		.loc 4 352 10 view .LVU163
 658              	.LBE307:
 659              	.LBE316:
 230:../../libDaisy//src/hid/disp/display.h ****         int_fast16_t error  = deltaX - deltaY;
 660              		.loc 3 230 42 is_stmt 0 view .LVU164
 661 01dc 0120     		movs	r0, #1
 662 01de 0390     		str	r0, [sp, #12]
 663 01e0 74E7     		b	.L23
 664              	.L45:
 665 01e2 00BF     		.align	2
 666              	.L44:
 667 01e4 00001643 		.word	1125515264
 668              	.LBE318:
 669              	.LBE321:
 670              	.LBE322:
 671              	.LBE343:
 672              	.LBE346:
 673              		.cfi_endproc
 674              	.LFE2658:
 676              		.section	.text._ZN5daisy5Dubby12InitControlsEv,"ax",%progbits
 677              		.align	1
 678              		.p2align 2,,3
 679              		.global	_ZN5daisy5Dubby12InitControlsEv
 680              		.syntax unified
 681              		.thumb
 682              		.thumb_func
 684              	_ZN5daisy5Dubby12InitControlsEv:
 685              	.LVL52:
 686              	.LFB2569:
  58:Dubby.cpp     ****     AdcChannelConfig cfg[CTRL_LAST];
 687              		.loc 2 58 1 is_stmt 1 view -0
 688              		.cfi_startproc
 689              		@ args = 0, pretend = 0, frame = 136
 690              		@ frame_needed = 0, uses_anonymous_args = 0
  59:Dubby.cpp     **** 
 691              		.loc 2 59 5 view .LVU166
  62:Dubby.cpp     ****     cfg[CTRL_2].InitSingle(seed.GetPin(PIN_KNOB_2));
 692              		.loc 2 62 5 view .LVU167
  58:Dubby.cpp     ****     AdcChannelConfig cfg[CTRL_LAST];
 693              		.loc 2 58 1 is_stmt 0 view .LVU168
 694 0000 F0B5     		push	{r4, r5, r6, r7, lr}
 695              		.cfi_def_cfa_offset 20
 696              		.cfi_offset 4, -20
 697              		.cfi_offset 5, -16
 698              		.cfi_offset 6, -12
 699              		.cfi_offset 7, -8
 700              		.cfi_offset 14, -4
 701 0002 0546     		mov	r5, r0
 702 0004 A3B0     		sub	sp, sp, #140
ARM GAS  /var/folders/1y/_321xjh9623c014x9_qw12rr0000gn/T//ccXuncwa.s 			page 37


 703              		.cfi_def_cfa_offset 160
  62:Dubby.cpp     ****     cfg[CTRL_2].InitSingle(seed.GetPin(PIN_KNOB_2));
 704              		.loc 2 62 27 view .LVU169
 705 0006 1220     		movs	r0, #18
 706              	.LVL53:
 707              	.LBB347:
  73:Dubby.cpp     ****     {
 708              		.loc 2 73 16 view .LVU170
 709 0008 0024     		movs	r4, #0
 710              	.LBE347:
  62:Dubby.cpp     ****     cfg[CTRL_2].InitSingle(seed.GetPin(PIN_KNOB_2));
 711              		.loc 2 62 27 view .LVU171
 712 000a FFF7FEFF 		bl	_ZN5daisy9DaisySeed6GetPinEh
 713              	.LVL54:
 714 000e 0346     		mov	r3, r0	@ movhi
 715 0010 08A8     		add	r0, sp, #32
  70:Dubby.cpp     **** 
 716              		.loc 2 70 18 view .LVU172
 717 0012 05F13406 		add	r6, r5, #52
  62:Dubby.cpp     ****     cfg[CTRL_2].InitSingle(seed.GetPin(PIN_KNOB_2));
 718              		.loc 2 62 27 view .LVU173
 719 0016 ADF80830 		strh	r3, [sp, #8]	@ movhi
 720              	.LBB348:
  75:Dubby.cpp     ****     }
 721              		.loc 2 75 29 view .LVU174
 722 001a 05F11C07 		add	r7, r5, #28
 723              	.LBE348:
  62:Dubby.cpp     ****     cfg[CTRL_2].InitSingle(seed.GetPin(PIN_KNOB_2));
 724              		.loc 2 62 27 view .LVU175
 725 001e 0299     		ldr	r1, [sp, #8]
 726 0020 05F58E75 		add	r5, r5, #284
 727              	.LVL55:
  62:Dubby.cpp     ****     cfg[CTRL_2].InitSingle(seed.GetPin(PIN_KNOB_2));
 728              		.loc 2 62 27 view .LVU176
 729 0024 FFF7FEFF 		bl	_ZN5daisy16AdcChannelConfig10InitSingleE12dsy_gpio_pin
 730              	.LVL56:
  63:Dubby.cpp     ****     cfg[CTRL_3].InitSingle(seed.GetPin(PIN_KNOB_3));
 731              		.loc 2 63 5 is_stmt 1 view .LVU177
  63:Dubby.cpp     ****     cfg[CTRL_3].InitSingle(seed.GetPin(PIN_KNOB_3));
 732              		.loc 2 63 27 is_stmt 0 view .LVU178
 733 0028 0F20     		movs	r0, #15
 734 002a FFF7FEFF 		bl	_ZN5daisy9DaisySeed6GetPinEh
 735              	.LVL57:
 736 002e 0346     		mov	r3, r0	@ movhi
 737 0030 0DF13100 		add	r0, sp, #49
 738 0034 ADF80C30 		strh	r3, [sp, #12]	@ movhi
 739 0038 0399     		ldr	r1, [sp, #12]
 740 003a FFF7FEFF 		bl	_ZN5daisy16AdcChannelConfig10InitSingleE12dsy_gpio_pin
 741              	.LVL58:
  64:Dubby.cpp     ****     cfg[CTRL_4].InitSingle(seed.GetPin(PIN_KNOB_4));
 742              		.loc 2 64 5 is_stmt 1 view .LVU179
  64:Dubby.cpp     ****     cfg[CTRL_4].InitSingle(seed.GetPin(PIN_KNOB_4));
 743              		.loc 2 64 27 is_stmt 0 view .LVU180
 744 003e 1520     		movs	r0, #21
 745 0040 FFF7FEFF 		bl	_ZN5daisy9DaisySeed6GetPinEh
 746              	.LVL59:
 747 0044 0346     		mov	r3, r0	@ movhi
ARM GAS  /var/folders/1y/_321xjh9623c014x9_qw12rr0000gn/T//ccXuncwa.s 			page 38


 748 0046 0DF14200 		add	r0, sp, #66
 749 004a ADF81030 		strh	r3, [sp, #16]	@ movhi
 750 004e 0499     		ldr	r1, [sp, #16]
 751 0050 FFF7FEFF 		bl	_ZN5daisy16AdcChannelConfig10InitSingleE12dsy_gpio_pin
 752              	.LVL60:
  65:Dubby.cpp     ****     cfg[CTRL_5].InitSingle(seed.GetPin(PIN_JS_H));
 753              		.loc 2 65 5 is_stmt 1 view .LVU181
  65:Dubby.cpp     ****     cfg[CTRL_5].InitSingle(seed.GetPin(PIN_JS_H));
 754              		.loc 2 65 27 is_stmt 0 view .LVU182
 755 0054 1620     		movs	r0, #22
 756 0056 FFF7FEFF 		bl	_ZN5daisy9DaisySeed6GetPinEh
 757              	.LVL61:
 758 005a 0346     		mov	r3, r0	@ movhi
 759 005c 0DF15300 		add	r0, sp, #83
 760 0060 ADF81430 		strh	r3, [sp, #20]	@ movhi
 761 0064 0599     		ldr	r1, [sp, #20]
 762 0066 FFF7FEFF 		bl	_ZN5daisy16AdcChannelConfig10InitSingleE12dsy_gpio_pin
 763              	.LVL62:
  66:Dubby.cpp     ****     cfg[CTRL_6].InitSingle(seed.GetPin(PIN_JS_V));
 764              		.loc 2 66 5 is_stmt 1 view .LVU183
  66:Dubby.cpp     ****     cfg[CTRL_6].InitSingle(seed.GetPin(PIN_JS_V));
 765              		.loc 2 66 27 is_stmt 0 view .LVU184
 766 006a 1020     		movs	r0, #16
 767 006c FFF7FEFF 		bl	_ZN5daisy9DaisySeed6GetPinEh
 768              	.LVL63:
 769 0070 0346     		mov	r3, r0	@ movhi
 770 0072 19A8     		add	r0, sp, #100
 771 0074 ADF81830 		strh	r3, [sp, #24]	@ movhi
 772 0078 0699     		ldr	r1, [sp, #24]
 773 007a FFF7FEFF 		bl	_ZN5daisy16AdcChannelConfig10InitSingleE12dsy_gpio_pin
 774              	.LVL64:
  67:Dubby.cpp     **** 
 775              		.loc 2 67 5 is_stmt 1 view .LVU185
  67:Dubby.cpp     **** 
 776              		.loc 2 67 27 is_stmt 0 view .LVU186
 777 007e 1420     		movs	r0, #20
 778 0080 FFF7FEFF 		bl	_ZN5daisy9DaisySeed6GetPinEh
 779              	.LVL65:
 780 0084 0346     		mov	r3, r0	@ movhi
 781 0086 0DF17500 		add	r0, sp, #117
 782 008a ADF81C30 		strh	r3, [sp, #28]	@ movhi
 783 008e 0799     		ldr	r1, [sp, #28]
 784 0090 FFF7FEFF 		bl	_ZN5daisy16AdcChannelConfig10InitSingleE12dsy_gpio_pin
 785              	.LVL66:
  70:Dubby.cpp     **** 
 786              		.loc 2 70 5 is_stmt 1 view .LVU187
  70:Dubby.cpp     **** 
 787              		.loc 2 70 18 is_stmt 0 view .LVU188
 788 0094 0423     		movs	r3, #4
 789 0096 0622     		movs	r2, #6
 790 0098 08A9     		add	r1, sp, #32
 791 009a 3046     		mov	r0, r6
 792 009c FFF7FEFF 		bl	_ZN5daisy9AdcHandle4InitEPNS_16AdcChannelConfigEjNS0_12OverSamplingE
 793              	.LVL67:
  73:Dubby.cpp     ****     {
 794              		.loc 2 73 5 is_stmt 1 view .LVU189
 795              	.LBB349:
ARM GAS  /var/folders/1y/_321xjh9623c014x9_qw12rr0000gn/T//ccXuncwa.s 			page 39


  73:Dubby.cpp     ****     {
 796              		.loc 2 73 25 view .LVU190
 797              	.L47:
  75:Dubby.cpp     ****     }
 798              		.loc 2 75 9 discriminator 2 view .LVU191
  75:Dubby.cpp     ****     }
 799              		.loc 2 75 29 is_stmt 0 discriminator 2 view .LVU192
 800 00a0 E1B2     		uxtb	r1, r4
 801 00a2 3046     		mov	r0, r6
 802 00a4 FFF7FEFF 		bl	_ZNK5daisy9AdcHandle6GetPtrEh
 803              	.LVL68:
 804 00a8 0146     		mov	r1, r0
  73:Dubby.cpp     ****     {
 805              		.loc 2 73 5 discriminator 2 view .LVU193
 806 00aa 0134     		adds	r4, r4, #1
 807              	.LVL69:
  75:Dubby.cpp     ****     }
 808              		.loc 2 75 29 discriminator 2 view .LVU194
 809 00ac 3846     		mov	r0, r7
 810 00ae 0191     		str	r1, [sp, #4]
 811 00b0 FFF7FEFF 		bl	_ZNK5daisy9DaisySeed17AudioCallbackRateEv
 812              	.LVL70:
 813 00b4 2846     		mov	r0, r5
 814 00b6 DFED070A 		vldr.32	s1, .L50
 815 00ba 0023     		movs	r3, #0
 816 00bc 0122     		movs	r2, #1
 817 00be 0199     		ldr	r1, [sp, #4]
  73:Dubby.cpp     ****     {
 818              		.loc 2 73 25 discriminator 2 view .LVU195
 819 00c0 2035     		adds	r5, r5, #32
  75:Dubby.cpp     ****     }
 820              		.loc 2 75 29 discriminator 2 view .LVU196
 821 00c2 FFF7FEFF 		bl	_ZN5daisy13AnalogControl4InitEPtfbbf
 822              	.LVL71:
  73:Dubby.cpp     ****     {
 823              		.loc 2 73 5 is_stmt 1 discriminator 2 view .LVU197
  73:Dubby.cpp     ****     {
 824              		.loc 2 73 25 discriminator 2 view .LVU198
 825 00c6 062C     		cmp	r4, #6
 826 00c8 EAD1     		bne	.L47
 827              	.LBE349:
  78:Dubby.cpp     **** }
 828              		.loc 2 78 5 view .LVU199
  78:Dubby.cpp     **** }
 829              		.loc 2 78 19 is_stmt 0 view .LVU200
 830 00ca 3046     		mov	r0, r6
 831 00cc FFF7FEFF 		bl	_ZN5daisy9AdcHandle5StartEv
 832              	.LVL72:
  79:Dubby.cpp     **** 
 833              		.loc 2 79 1 view .LVU201
 834 00d0 23B0     		add	sp, sp, #140
 835              		.cfi_def_cfa_offset 20
 836              		@ sp needed
 837 00d2 F0BD     		pop	{r4, r5, r6, r7, pc}
 838              	.LVL73:
 839              	.L51:
  79:Dubby.cpp     **** 
ARM GAS  /var/folders/1y/_321xjh9623c014x9_qw12rr0000gn/T//ccXuncwa.s 			page 40


 840              		.loc 2 79 1 view .LVU202
 841              		.align	2
 842              	.L50:
 843 00d4 6F12033B 		.word	990057071
 844              		.cfi_endproc
 845              	.LFE2569:
 847              		.section	.text._ZN5daisy5Dubby9InitGatesEv,"ax",%progbits
 848              		.align	1
 849              		.p2align 2,,3
 850              		.global	_ZN5daisy5Dubby9InitGatesEv
 851              		.syntax unified
 852              		.thumb
 853              		.thumb_func
 855              	_ZN5daisy5Dubby9InitGatesEv:
 856              	.LVL74:
 857              	.LFB2570:
  82:Dubby.cpp     ****     dsy_gpio_pin pin;
 858              		.loc 2 82 1 is_stmt 1 view -0
 859              		.cfi_startproc
 860              		@ args = 0, pretend = 0, frame = 8
 861              		@ frame_needed = 0, uses_anonymous_args = 0
  83:Dubby.cpp     ****     pin = seed.GetPin(PIN_GATE_IN_1);
 862              		.loc 2 83 5 view .LVU204
  84:Dubby.cpp     ****     gateInputs[GATE_IN_1].Init(&pin);
 863              		.loc 2 84 5 view .LVU205
  82:Dubby.cpp     ****     dsy_gpio_pin pin;
 864              		.loc 2 82 1 is_stmt 0 view .LVU206
 865 0000 10B5     		push	{r4, lr}
 866              		.cfi_def_cfa_offset 8
 867              		.cfi_offset 4, -8
 868              		.cfi_offset 14, -4
 869 0002 0446     		mov	r4, r0
 870 0004 82B0     		sub	sp, sp, #8
 871              		.cfi_def_cfa_offset 16
  84:Dubby.cpp     ****     gateInputs[GATE_IN_1].Init(&pin);
 872              		.loc 2 84 36 view .LVU207
 873 0006 2020     		movs	r0, #32
 874              	.LVL75:
  84:Dubby.cpp     ****     gateInputs[GATE_IN_1].Init(&pin);
 875              		.loc 2 84 36 view .LVU208
 876 0008 FFF7FEFF 		bl	_ZN5daisy9DaisySeed6GetPinEh
 877              	.LVL76:
  85:Dubby.cpp     ****     pin = seed.GetPin(PIN_GATE_IN_2);
 878              		.loc 2 85 31 view .LVU209
 879 000c 01A9     		add	r1, sp, #4
 880 000e 0122     		movs	r2, #1
  84:Dubby.cpp     ****     gateInputs[GATE_IN_1].Init(&pin);
 881              		.loc 2 84 36 view .LVU210
 882 0010 ADF80400 		strh	r0, [sp, #4]	@ movhi
  85:Dubby.cpp     ****     pin = seed.GetPin(PIN_GATE_IN_2);
 883              		.loc 2 85 5 is_stmt 1 view .LVU211
  85:Dubby.cpp     ****     pin = seed.GetPin(PIN_GATE_IN_2);
 884              		.loc 2 85 31 is_stmt 0 view .LVU212
 885 0014 04F5EE70 		add	r0, r4, #476
 886 0018 FFF7FEFF 		bl	_ZN5daisy6GateIn4InitEP12dsy_gpio_pinb
 887              	.LVL77:
  86:Dubby.cpp     ****     gateInputs[GATE_IN_2].Init(&pin);
ARM GAS  /var/folders/1y/_321xjh9623c014x9_qw12rr0000gn/T//ccXuncwa.s 			page 41


 888              		.loc 2 86 5 is_stmt 1 view .LVU213
  86:Dubby.cpp     ****     gateInputs[GATE_IN_2].Init(&pin);
 889              		.loc 2 86 36 is_stmt 0 view .LVU214
 890 001c 1720     		movs	r0, #23
 891 001e FFF7FEFF 		bl	_ZN5daisy9DaisySeed6GetPinEh
 892              	.LVL78:
  87:Dubby.cpp     ****     pin = seed.GetPin(PIN_GATE_IN_3);
 893              		.loc 2 87 31 view .LVU215
 894 0022 01A9     		add	r1, sp, #4
 895 0024 0122     		movs	r2, #1
  86:Dubby.cpp     ****     gateInputs[GATE_IN_2].Init(&pin);
 896              		.loc 2 86 36 view .LVU216
 897 0026 ADF80400 		strh	r0, [sp, #4]	@ movhi
  87:Dubby.cpp     ****     pin = seed.GetPin(PIN_GATE_IN_3);
 898              		.loc 2 87 5 is_stmt 1 view .LVU217
  87:Dubby.cpp     ****     pin = seed.GetPin(PIN_GATE_IN_3);
 899              		.loc 2 87 31 is_stmt 0 view .LVU218
 900 002a 04F2E310 		addw	r0, r4, #483
 901 002e FFF7FEFF 		bl	_ZN5daisy6GateIn4InitEP12dsy_gpio_pinb
 902              	.LVL79:
  88:Dubby.cpp     ****     gateInputs[GATE_IN_3].Init(&pin);
 903              		.loc 2 88 5 is_stmt 1 view .LVU219
  88:Dubby.cpp     ****     gateInputs[GATE_IN_3].Init(&pin);
 904              		.loc 2 88 36 is_stmt 0 view .LVU220
 905 0032 1120     		movs	r0, #17
 906 0034 FFF7FEFF 		bl	_ZN5daisy9DaisySeed6GetPinEh
 907              	.LVL80:
  89:Dubby.cpp     ****     pin = seed.GetPin(PIN_GATE_IN_4);
 908              		.loc 2 89 31 view .LVU221
 909 0038 01A9     		add	r1, sp, #4
 910 003a 0122     		movs	r2, #1
  88:Dubby.cpp     ****     gateInputs[GATE_IN_3].Init(&pin);
 911              		.loc 2 88 36 view .LVU222
 912 003c ADF80400 		strh	r0, [sp, #4]	@ movhi
  89:Dubby.cpp     ****     pin = seed.GetPin(PIN_GATE_IN_4);
 913              		.loc 2 89 5 is_stmt 1 view .LVU223
  89:Dubby.cpp     ****     pin = seed.GetPin(PIN_GATE_IN_4);
 914              		.loc 2 89 31 is_stmt 0 view .LVU224
 915 0040 04F5F570 		add	r0, r4, #490
 916 0044 FFF7FEFF 		bl	_ZN5daisy6GateIn4InitEP12dsy_gpio_pinb
 917              	.LVL81:
  90:Dubby.cpp     ****     gateInputs[GATE_IN_4].Init(&pin);
 918              		.loc 2 90 5 is_stmt 1 view .LVU225
  90:Dubby.cpp     ****     gateInputs[GATE_IN_4].Init(&pin);
 919              		.loc 2 90 36 is_stmt 0 view .LVU226
 920 0048 1320     		movs	r0, #19
 921 004a FFF7FEFF 		bl	_ZN5daisy9DaisySeed6GetPinEh
 922              	.LVL82:
  91:Dubby.cpp     ****     pin = seed.GetPin(PIN_JS_CLICK);
 923              		.loc 2 91 31 view .LVU227
 924 004e 01A9     		add	r1, sp, #4
 925 0050 0122     		movs	r2, #1
  90:Dubby.cpp     ****     gateInputs[GATE_IN_4].Init(&pin);
 926              		.loc 2 90 36 view .LVU228
 927 0052 ADF80400 		strh	r0, [sp, #4]	@ movhi
  91:Dubby.cpp     ****     pin = seed.GetPin(PIN_JS_CLICK);
 928              		.loc 2 91 5 is_stmt 1 view .LVU229
ARM GAS  /var/folders/1y/_321xjh9623c014x9_qw12rr0000gn/T//ccXuncwa.s 			page 42


  91:Dubby.cpp     ****     pin = seed.GetPin(PIN_JS_CLICK);
 929              		.loc 2 91 31 is_stmt 0 view .LVU230
 930 0056 04F2F110 		addw	r0, r4, #497
 931 005a FFF7FEFF 		bl	_ZN5daisy6GateIn4InitEP12dsy_gpio_pinb
 932              	.LVL83:
  92:Dubby.cpp     ****     gateInputs[GATE_IN_5].Init(&pin);
 933              		.loc 2 92 5 is_stmt 1 view .LVU231
  92:Dubby.cpp     ****     gateInputs[GATE_IN_5].Init(&pin);
 934              		.loc 2 92 35 is_stmt 0 view .LVU232
 935 005e 0320     		movs	r0, #3
 936 0060 FFF7FEFF 		bl	_ZN5daisy9DaisySeed6GetPinEh
 937              	.LVL84:
  93:Dubby.cpp     **** }
 938              		.loc 2 93 31 view .LVU233
 939 0064 0122     		movs	r2, #1
  92:Dubby.cpp     ****     gateInputs[GATE_IN_5].Init(&pin);
 940              		.loc 2 92 35 view .LVU234
 941 0066 0346     		mov	r3, r0	@ movhi
  93:Dubby.cpp     **** }
 942              		.loc 2 93 31 view .LVU235
 943 0068 01A9     		add	r1, sp, #4
 944 006a 04F5FC70 		add	r0, r4, #504
  92:Dubby.cpp     ****     gateInputs[GATE_IN_5].Init(&pin);
 945              		.loc 2 92 35 view .LVU236
 946 006e ADF80430 		strh	r3, [sp, #4]	@ movhi
  93:Dubby.cpp     **** }
 947              		.loc 2 93 5 is_stmt 1 view .LVU237
  93:Dubby.cpp     **** }
 948              		.loc 2 93 31 is_stmt 0 view .LVU238
 949 0072 FFF7FEFF 		bl	_ZN5daisy6GateIn4InitEP12dsy_gpio_pinb
 950              	.LVL85:
  94:Dubby.cpp     **** 
 951              		.loc 2 94 1 view .LVU239
 952 0076 02B0     		add	sp, sp, #8
 953              		.cfi_def_cfa_offset 8
 954              		@ sp needed
 955 0078 10BD     		pop	{r4, pc}
  94:Dubby.cpp     **** 
 956              		.loc 2 94 1 view .LVU240
 957              		.cfi_endproc
 958              	.LFE2570:
 960 007a 00BF     		.section	.text._ZN5daisy5Dubby10DrawBitmapEi,"ax",%progbits
 961              		.align	1
 962              		.p2align 2,,3
 963              		.global	_ZN5daisy5Dubby10DrawBitmapEi
 964              		.syntax unified
 965              		.thumb
 966              		.thumb_func
 968              	_ZN5daisy5Dubby10DrawBitmapEi:
 969              	.LVL86:
 970              	.LFB2580:
 151:Dubby.cpp     ****     display.Fill(false);
 971              		.loc 2 151 1 is_stmt 1 view -0
 972              		.cfi_startproc
 973              		@ args = 0, pretend = 0, frame = 24
 974              		@ frame_needed = 0, uses_anonymous_args = 0
 151:Dubby.cpp     ****     display.Fill(false);
ARM GAS  /var/folders/1y/_321xjh9623c014x9_qw12rr0000gn/T//ccXuncwa.s 			page 43


 975              		.loc 2 151 1 is_stmt 0 view .LVU242
 976 0000 0B46     		mov	r3, r1
 977              	.LBB386:
 978              	.LBB387:
 979              	.LBB388:
 366:../../libDaisy//src/dev/oled_ssd130x.h ****         }
 980              		.loc 4 366 24 view .LVU243
 981 0002 0021     		movs	r1, #0
 982              	.LVL87:
 366:../../libDaisy//src/dev/oled_ssd130x.h ****         }
 983              		.loc 4 366 24 view .LVU244
 984 0004 4FF48062 		mov	r2, #1024
 985 0008 9B02     		lsls	r3, r3, #10
 986              	.LVL88:
 366:../../libDaisy//src/dev/oled_ssd130x.h ****         }
 987              		.loc 4 366 24 view .LVU245
 988              	.LBE388:
 989              	.LBE387:
 990              	.LBE386:
 151:Dubby.cpp     ****     display.Fill(false);
 991              		.loc 2 151 1 view .LVU246
 992 000a 2DE9F04F 		push	{r4, r5, r6, r7, r8, r9, r10, fp, lr}
 993              		.cfi_def_cfa_offset 36
 994              		.cfi_offset 4, -36
 995              		.cfi_offset 5, -32
 996              		.cfi_offset 6, -28
 997              		.cfi_offset 7, -24
 998              		.cfi_offset 8, -20
 999              		.cfi_offset 9, -16
 1000              		.cfi_offset 10, -12
 1001              		.cfi_offset 11, -8
 1002              		.cfi_offset 14, -4
 1003 000e 8246     		mov	r10, r0
 152:Dubby.cpp     ****     display.SetCursor(30, 30);
 1004              		.loc 2 152 5 is_stmt 1 view .LVU247
 1005              	.LVL89:
 1006              	.LBB393:
 1007              	.LBI386:
  34:../../libDaisy//src/hid/disp/oled_display.h **** 
 1008              		.loc 1 34 10 view .LVU248
 1009              	.LBB391:
 1010              	.LBI387:
 362:../../libDaisy//src/dev/oled_ssd130x.h ****     {
 1011              		.loc 4 362 10 view .LVU249
 1012              	.LBB389:
 364:../../libDaisy//src/dev/oled_ssd130x.h ****         {
 1013              		.loc 4 364 29 view .LVU250
 1014              	.LBE389:
 1015              	.LBE391:
 1016              	.LBE393:
 151:Dubby.cpp     ****     display.Fill(false);
 1017              		.loc 2 151 1 is_stmt 0 view .LVU251
 1018 0010 87B0     		sub	sp, sp, #28
 1019              		.cfi_def_cfa_offset 64
 1020 0012 00F22440 		addw	r0, r0, #1060
 1021              	.LVL90:
 1022              	.LBB394:
ARM GAS  /var/folders/1y/_321xjh9623c014x9_qw12rr0000gn/T//ccXuncwa.s 			page 44


 155:Dubby.cpp     ****         for (int y = 0; y < OLED_HEIGHT; y++) {
 1023              		.loc 2 155 14 view .LVU252
 1024 0016 8B46     		mov	fp, r1
 1025 0018 0193     		str	r3, [sp, #4]
 1026 001a 0390     		str	r0, [sp, #12]
 1027              	.LBE394:
 1028              	.LBB464:
 1029              	.LBB392:
 1030              	.LBB390:
 366:../../libDaisy//src/dev/oled_ssd130x.h ****         }
 1031              		.loc 4 366 24 view .LVU253
 1032 001c FFF7FEFF 		bl	memset
 1033              	.LVL91:
 366:../../libDaisy//src/dev/oled_ssd130x.h ****         }
 1034              		.loc 4 366 24 view .LVU254
 1035              	.LBE390:
 1036              	.LBE392:
 1037              	.LBE464:
 153:Dubby.cpp     ****     
 1038              		.loc 2 153 5 is_stmt 1 view .LVU255
 1039              	.LBB465:
 1040              	.LBI465:
 171:../../libDaisy//src/hid/disp/display.h ****     {
 1041              		.loc 3 171 10 view .LVU256
 1042              	.LBB466:
 173:../../libDaisy//src/hid/disp/display.h ****         currentY_ = (y >= Height()) ? Height() - 1 : y;
 1043              		.loc 3 173 9 view .LVU257
 174:../../libDaisy//src/hid/disp/display.h ****     }
 1044              		.loc 3 174 9 view .LVU258
 173:../../libDaisy//src/hid/disp/display.h ****         currentY_ = (y >= Height()) ? Height() - 1 : y;
 1045              		.loc 3 173 19 is_stmt 0 view .LVU259
 1046 0020 4FF01E13 		mov	r3, #1966110
 1047 0024 CAF81434 		str	r3, [r10, #1044]
 1048              	.LVL92:
 173:../../libDaisy//src/hid/disp/display.h ****         currentY_ = (y >= Height()) ? Height() - 1 : y;
 1049              		.loc 3 173 19 view .LVU260
 1050              	.LBE466:
 1051              	.LBE465:
 1052              	.LBB467:
 155:Dubby.cpp     ****         for (int y = 0; y < OLED_HEIGHT; y++) {
 1053              		.loc 2 155 23 is_stmt 1 view .LVU261
 1054              	.L63:
 1055              	.LBB395:
 156:Dubby.cpp     ****             // Calculate the index in the array
 1056              		.loc 2 156 27 view .LVU262
 1057 0028 0BF22443 		addw	r3, fp, #1060
 156:Dubby.cpp     ****             // Calculate the index in the array
 1058              		.loc 2 156 18 is_stmt 0 view .LVU263
 1059 002c 4FF00009 		mov	r9, #0
 1060 0030 0293     		str	r3, [sp, #8]
 1061              	.LVL93:
 1062              	.L60:
 1063              	.LBB396:
 158:Dubby.cpp     **** 
 1064              		.loc 2 158 13 is_stmt 1 view .LVU264
 161:Dubby.cpp     **** 
 1065              		.loc 2 161 13 view .LVU265
ARM GAS  /var/folders/1y/_321xjh9623c014x9_qw12rr0000gn/T//ccXuncwa.s 			page 45


 164:Dubby.cpp     **** 
 1066              		.loc 2 164 13 view .LVU266
 1067              	.LBB397:
 164:Dubby.cpp     **** 
 1068              		.loc 2 164 45 view .LVU267
 1069              	.LBB398:
 1070              	.LBB399:
 1071              	.LBB400:
 1072              	.LBB401:
 1073              	.LBB402:
 1074              	.LBB403:
 359:../../libDaisy//src/dev/oled_ssd130x.h ****     }
 1075              		.loc 4 359 55 is_stmt 0 view .LVU268
 1076 0032 09F00702 		and	r2, r9, #7
 1077              	.LBE403:
 1078              	.LBE402:
 1079              	.LBE401:
 1080              	.LBE400:
 1081              	.LBE399:
 1082              	.LBE398:
 1083              	.LBE397:
 161:Dubby.cpp     **** 
 1084              		.loc 2 161 18 view .LVU269
 1085 0036 3B48     		ldr	r0, .L70
 1086              	.LBB437:
 1087              	.LBB433:
 1088              	.LBB427:
 1089              	.LBB421:
 1090              	.LBB415:
 1091              	.LBB409:
 1092              	.LBB404:
 359:../../libDaisy//src/dev/oled_ssd130x.h ****     }
 1093              		.loc 4 359 49 view .LVU270
 1094 0038 0124     		movs	r4, #1
 1095              	.LBE404:
 1096              	.LBE409:
 1097              	.LBE415:
 1098              	.LBE421:
 1099              	.LBE427:
 1100              	.LBE433:
 1101              	.LBE437:
 158:Dubby.cpp     **** 
 1102              		.loc 2 158 17 view .LVU271
 1103 003a 0BEBC911 		add	r1, fp, r9, lsl #7
 1104              	.LBB438:
 1105              	.LBB434:
 1106              	.LBB428:
 1107              	.LBB422:
 1108              	.LBB416:
 1109              	.LBB410:
 1110              	.LBB405:
 359:../../libDaisy//src/dev/oled_ssd130x.h ****     }
 1111              		.loc 4 359 28 view .LVU272
 1112 003e 4FEAD903 		lsr	r3, r9, #3
 359:../../libDaisy//src/dev/oled_ssd130x.h ****     }
 1113              		.loc 4 359 49 view .LVU273
 1114 0042 9440     		lsls	r4, r4, r2
ARM GAS  /var/folders/1y/_321xjh9623c014x9_qw12rr0000gn/T//ccXuncwa.s 			page 46


 1115              	.LBE405:
 1116              	.LBE410:
 1117              	.LBE416:
 1118              	.LBE422:
 1119              	.LBE428:
 1120              	.LBE434:
 1121              	.LBE438:
 161:Dubby.cpp     **** 
 1122              		.loc 2 161 18 view .LVU274
 1123 0044 00EBE101 		add	r1, r0, r1, asr #3
 1124 0048 0298     		ldr	r0, [sp, #8]
 1125              	.LBB439:
 1126              	.LBB435:
 167:Dubby.cpp     **** 
 1127              		.loc 2 167 31 view .LVU275
 1128 004a 0722     		movs	r2, #7
 1129              	.LBB429:
 1130              	.LBB423:
 1131              	.LBB417:
 1132              	.LBB411:
 1133              	.LBB406:
 359:../../libDaisy//src/dev/oled_ssd130x.h ****     }
 1134              		.loc 4 359 42 view .LVU276
 1135 004c 64B2     		sxtb	r4, r4
 1136 004e 00EBC313 		add	r3, r0, r3, lsl #7
 1137              	.LBE406:
 1138              	.LBE411:
 1139              	.LBE417:
 1140              	.LBE423:
 1141              	.LBE429:
 167:Dubby.cpp     **** 
 1142              		.loc 2 167 31 view .LVU277
 1143 0052 0198     		ldr	r0, [sp, #4]
 1144              	.LBB430:
 1145              	.LBB424:
 1146              	.LBB418:
 1147              	.LBB412:
 1148              	.LBB407:
 359:../../libDaisy//src/dev/oled_ssd130x.h ****     }
 1149              		.loc 4 359 42 view .LVU278
 1150 0054 E543     		mvns	r5, r4
 1151              	.LBE407:
 1152              	.LBE412:
 1153              	.LBE418:
 1154              	.LBE424:
 1155              	.LBE430:
 167:Dubby.cpp     **** 
 1156              		.loc 2 167 31 view .LVU279
 1157 0056 085C     		ldrb	r0, [r1, r0]	@ zero_extendqisi2
 1158 0058 5344     		add	r3, r3, r10
 1159              	.LVL94:
 1160              	.L57:
 167:Dubby.cpp     **** 
 1161              		.loc 2 167 17 is_stmt 1 discriminator 2 view .LVU280
 169:Dubby.cpp     **** 
 1162              		.loc 2 169 17 discriminator 2 view .LVU281
 171:Dubby.cpp     ****             }
ARM GAS  /var/folders/1y/_321xjh9623c014x9_qw12rr0000gn/T//ccXuncwa.s 			page 47


 1163              		.loc 2 171 17 discriminator 2 view .LVU282
 1164              	.LBB431:
 1165              	.LBI399:
 1166              		.loc 1 42 10 discriminator 2 view .LVU283
 1167              	.LBB425:
 1168              	.LBI400:
 352:../../libDaisy//src/dev/oled_ssd130x.h ****     {
 1169              		.loc 4 352 10 discriminator 2 view .LVU284
 1170              	.LBB419:
 1171              	.LBB413:
 1172              	.LBI402:
 352:../../libDaisy//src/dev/oled_ssd130x.h ****     {
 1173              		.loc 4 352 10 discriminator 2 view .LVU285
 352:../../libDaisy//src/dev/oled_ssd130x.h ****     {
 1174              		.loc 4 352 10 is_stmt 0 discriminator 2 view .LVU286
 1175              	.LBE413:
 1176              	.LBE419:
 1177              	.LBE425:
 1178              	.LBE431:
 167:Dubby.cpp     **** 
 1179              		.loc 2 167 36 discriminator 2 view .LVU287
 1180 005a 40FA02F1 		asr	r1, r0, r2
 1181              	.LBE435:
 164:Dubby.cpp     **** 
 1182              		.loc 2 164 45 discriminator 2 view .LVU288
 1183 005e 013A     		subs	r2, r2, #1
 1184 0060 0133     		adds	r3, r3, #1
 1185              	.LBB436:
 1186              	.LBB432:
 1187              	.LBB426:
 1188              	.LBB420:
 356:../../libDaisy//src/dev/oled_ssd130x.h ****             buffer_[x + (y / 8) * width] |= (1 << (y % 8));
 1189              		.loc 4 356 9 discriminator 2 view .LVU289
 1190 0062 11F0010F 		tst	r1, #1
 357:../../libDaisy//src/dev/oled_ssd130x.h ****         else
 1191              		.loc 4 357 42 discriminator 2 view .LVU290
 1192 0066 13F8011C 		ldrb	r1, [r3, #-1]	@ zero_extendqisi2
 1193 006a 14BF     		ite	ne
 1194 006c 2143     		orrne	r1, r1, r4
 1195              	.LBB414:
 1196              	.LBB408:
 359:../../libDaisy//src/dev/oled_ssd130x.h ****     }
 1197              		.loc 4 359 42 discriminator 2 view .LVU291
 1198 006e 2940     		andeq	r1, r1, r5
 1199 0070 03F8011C 		strb	r1, [r3, #-1]
 1200              	.LVL95:
 359:../../libDaisy//src/dev/oled_ssd130x.h ****     }
 1201              		.loc 4 359 42 discriminator 2 view .LVU292
 1202              	.LBE408:
 1203              	.LBE414:
 1204              	.LBE420:
 1205              	.LBE426:
 1206              	.LBE432:
 1207              	.LBE436:
 164:Dubby.cpp     **** 
 1208              		.loc 2 164 13 is_stmt 1 discriminator 2 view .LVU293
 164:Dubby.cpp     **** 
ARM GAS  /var/folders/1y/_321xjh9623c014x9_qw12rr0000gn/T//ccXuncwa.s 			page 48


 1209              		.loc 2 164 45 discriminator 2 view .LVU294
 1210 0074 511C     		adds	r1, r2, #1
 1211 0076 F0D1     		bne	.L57
 1212              	.LBE439:
 174:Dubby.cpp     ****         }
 1213              		.loc 2 174 13 view .LVU295
 1214              	.LBB440:
 1215 0078 2B4B     		ldr	r3, .L70+4
 1216              	.LBE440:
 1217 007a 2C4A     		ldr	r2, .L70+8
 1218              	.LBB441:
 1219 007c 03FB09F3 		mul	r3, r3, r9
 1220              	.LBE441:
 1221 0080 B2EB730F 		cmp	r2, r3, ror #1
 1222 0084 0CD2     		bcs	.L58
 1223              	.L61:
 174:Dubby.cpp     ****         }
 1224              		.loc 2 174 13 is_stmt 0 view .LVU296
 1225              	.LBE396:
 156:Dubby.cpp     ****             // Calculate the index in the array
 1226              		.loc 2 156 9 is_stmt 1 view .LVU297
 1227 0086 09F10109 		add	r9, r9, #1
 1228              	.LVL96:
 156:Dubby.cpp     ****             // Calculate the index in the array
 1229              		.loc 2 156 27 view .LVU298
 1230 008a B9F1400F 		cmp	r9, #64
 1231 008e D0D1     		bne	.L60
 1232              	.LBE395:
 155:Dubby.cpp     ****         for (int y = 0; y < OLED_HEIGHT; y++) {
 1233              		.loc 2 155 5 discriminator 2 view .LVU299
 155:Dubby.cpp     ****         for (int y = 0; y < OLED_HEIGHT; y++) {
 1234              		.loc 2 155 39 is_stmt 0 discriminator 2 view .LVU300
 1235 0090 0BF1080B 		add	fp, fp, #8
 1236              	.LVL97:
 155:Dubby.cpp     ****         for (int y = 0; y < OLED_HEIGHT; y++) {
 1237              		.loc 2 155 23 is_stmt 1 discriminator 2 view .LVU301
 1238 0094 BBF1800F 		cmp	fp, #128
 1239 0098 C6D1     		bne	.L63
 1240              	.LBE467:
 177:Dubby.cpp     **** 
 1241              		.loc 2 177 1 is_stmt 0 view .LVU302
 1242 009a 07B0     		add	sp, sp, #28
 1243              		.cfi_remember_state
 1244              		.cfi_def_cfa_offset 36
 1245              		@ sp needed
 1246 009c BDE8F08F 		pop	{r4, r5, r6, r7, r8, r9, r10, fp, pc}
 1247              	.LVL98:
 1248              	.L58:
 1249              		.cfi_restore_state
 1250              	.LBB468:
 1251              	.LBB463:
 1252              	.LBB462:
 1253              	.LBB442:
 1254              	.LBB443:
 1255              	.LBB444:
 1256              	.LBB445:
 1257              	.LBB446:
ARM GAS  /var/folders/1y/_321xjh9623c014x9_qw12rr0000gn/T//ccXuncwa.s 			page 49


 124:../../libDaisy//src/dev/oled_ssd130x.h ****         spi_.BlockingTransmit(&cmd, 1);
 1258              		.loc 4 124 24 view .LVU303
 1259 00a0 0AF58366 		add	r6, r10, #1048
 1260 00a4 0AF58465 		add	r5, r10, #1056
 1261 00a8 DDF80C80 		ldr	r8, [sp, #12]
 125:../../libDaisy//src/dev/oled_ssd130x.h ****     };
 1262              		.loc 4 125 30 view .LVU304
 1263 00ac B024     		movs	r4, #176
 1264              	.L62:
 1265              	.LVL99:
 124:../../libDaisy//src/dev/oled_ssd130x.h ****         spi_.BlockingTransmit(&cmd, 1);
 1266              		.loc 4 124 23 view .LVU305
 1267 00ae 0021     		movs	r1, #0
 1268 00b0 2846     		mov	r0, r5
 1269 00b2 8DF81740 		strb	r4, [sp, #23]
 1270              	.LVL100:
 124:../../libDaisy//src/dev/oled_ssd130x.h ****         spi_.BlockingTransmit(&cmd, 1);
 1271              		.loc 4 124 23 view .LVU306
 1272              	.LBE446:
 1273              	.LBI445:
 122:../../libDaisy//src/dev/oled_ssd130x.h ****     {
 1274              		.loc 4 122 10 is_stmt 1 view .LVU307
 1275              	.LBB447:
 124:../../libDaisy//src/dev/oled_ssd130x.h ****         spi_.BlockingTransmit(&cmd, 1);
 1276              		.loc 4 124 9 view .LVU308
 1277              	.LBE447:
 1278              	.LBE445:
 1279              		.loc 4 383 22 is_stmt 0 view .LVU309
 1280 00b6 0134     		adds	r4, r4, #1
 1281              	.LVL101:
 1282              		.loc 4 383 22 view .LVU310
 1283 00b8 0F46     		mov	r7, r1
 1284              	.LBB449:
 1285              	.LBB448:
 124:../../libDaisy//src/dev/oled_ssd130x.h ****         spi_.BlockingTransmit(&cmd, 1);
 1286              		.loc 4 124 23 view .LVU311
 1287 00ba FFF7FEFF 		bl	dsy_gpio_write
 1288              	.LVL102:
 125:../../libDaisy//src/dev/oled_ssd130x.h ****     };
 1289              		.loc 4 125 9 is_stmt 1 view .LVU312
 125:../../libDaisy//src/dev/oled_ssd130x.h ****     };
 1290              		.loc 4 125 30 is_stmt 0 view .LVU313
 1291 00be 6423     		movs	r3, #100
 1292 00c0 0122     		movs	r2, #1
 1293 00c2 0DF11701 		add	r1, sp, #23
 1294 00c6 3046     		mov	r0, r6
 1295 00c8 FFF7FEFF 		bl	_ZN5daisy9SpiHandle16BlockingTransmitEPhjm
 1296              	.LVL103:
 125:../../libDaisy//src/dev/oled_ssd130x.h ****     };
 1297              		.loc 4 125 30 view .LVU314
 1298              	.LBE448:
 1299              	.LBE449:
 1300              	.LBB450:
 1301              	.LBB451:
 124:../../libDaisy//src/dev/oled_ssd130x.h ****         spi_.BlockingTransmit(&cmd, 1);
 1302              		.loc 4 124 23 view .LVU315
 1303 00cc 3946     		mov	r1, r7
ARM GAS  /var/folders/1y/_321xjh9623c014x9_qw12rr0000gn/T//ccXuncwa.s 			page 50


 1304 00ce 2846     		mov	r0, r5
 1305 00d0 8DF81770 		strb	r7, [sp, #23]
 1306              	.LVL104:
 124:../../libDaisy//src/dev/oled_ssd130x.h ****         spi_.BlockingTransmit(&cmd, 1);
 1307              		.loc 4 124 23 view .LVU316
 1308              	.LBE451:
 1309              	.LBI450:
 122:../../libDaisy//src/dev/oled_ssd130x.h ****     {
 1310              		.loc 4 122 10 is_stmt 1 view .LVU317
 1311              	.LBB452:
 124:../../libDaisy//src/dev/oled_ssd130x.h ****         spi_.BlockingTransmit(&cmd, 1);
 1312              		.loc 4 124 9 view .LVU318
 124:../../libDaisy//src/dev/oled_ssd130x.h ****         spi_.BlockingTransmit(&cmd, 1);
 1313              		.loc 4 124 23 is_stmt 0 view .LVU319
 1314 00d4 FFF7FEFF 		bl	dsy_gpio_write
 1315              	.LVL105:
 125:../../libDaisy//src/dev/oled_ssd130x.h ****     };
 1316              		.loc 4 125 9 is_stmt 1 view .LVU320
 125:../../libDaisy//src/dev/oled_ssd130x.h ****     };
 1317              		.loc 4 125 30 is_stmt 0 view .LVU321
 1318 00d8 0122     		movs	r2, #1
 1319 00da 6423     		movs	r3, #100
 1320 00dc 0DF11701 		add	r1, sp, #23
 1321 00e0 3046     		mov	r0, r6
 1322              	.LBE452:
 1323              	.LBE450:
 1324              		.loc 4 383 22 view .LVU322
 1325 00e2 E4B2     		uxtb	r4, r4
 1326              	.LBB454:
 1327              	.LBB453:
 125:../../libDaisy//src/dev/oled_ssd130x.h ****     };
 1328              		.loc 4 125 30 view .LVU323
 1329 00e4 FFF7FEFF 		bl	_ZN5daisy9SpiHandle16BlockingTransmitEPhjm
 1330              	.LVL106:
 125:../../libDaisy//src/dev/oled_ssd130x.h ****     };
 1331              		.loc 4 125 30 view .LVU324
 1332 00e8 1023     		movs	r3, #16
 1333              	.LBE453:
 1334              	.LBE454:
 1335              	.LBB455:
 1336              	.LBB456:
 124:../../libDaisy//src/dev/oled_ssd130x.h ****         spi_.BlockingTransmit(&cmd, 1);
 1337              		.loc 4 124 23 view .LVU325
 1338 00ea 3946     		mov	r1, r7
 1339 00ec 2846     		mov	r0, r5
 1340 00ee 8DF81730 		strb	r3, [sp, #23]
 1341              	.LVL107:
 124:../../libDaisy//src/dev/oled_ssd130x.h ****         spi_.BlockingTransmit(&cmd, 1);
 1342              		.loc 4 124 23 view .LVU326
 1343              	.LBE456:
 1344              	.LBI455:
 122:../../libDaisy//src/dev/oled_ssd130x.h ****     {
 1345              		.loc 4 122 10 is_stmt 1 view .LVU327
 1346              	.LBB457:
 124:../../libDaisy//src/dev/oled_ssd130x.h ****         spi_.BlockingTransmit(&cmd, 1);
 1347              		.loc 4 124 9 view .LVU328
 124:../../libDaisy//src/dev/oled_ssd130x.h ****         spi_.BlockingTransmit(&cmd, 1);
ARM GAS  /var/folders/1y/_321xjh9623c014x9_qw12rr0000gn/T//ccXuncwa.s 			page 51


 1348              		.loc 4 124 23 is_stmt 0 view .LVU329
 1349 00f2 FFF7FEFF 		bl	dsy_gpio_write
 1350              	.LVL108:
 125:../../libDaisy//src/dev/oled_ssd130x.h ****     };
 1351              		.loc 4 125 9 is_stmt 1 view .LVU330
 125:../../libDaisy//src/dev/oled_ssd130x.h ****     };
 1352              		.loc 4 125 30 is_stmt 0 view .LVU331
 1353 00f6 6423     		movs	r3, #100
 1354 00f8 0122     		movs	r2, #1
 1355 00fa 0DF11701 		add	r1, sp, #23
 1356 00fe 3046     		mov	r0, r6
 1357 0100 FFF7FEFF 		bl	_ZN5daisy9SpiHandle16BlockingTransmitEPhjm
 1358              	.LVL109:
 125:../../libDaisy//src/dev/oled_ssd130x.h ****     };
 1359              		.loc 4 125 30 view .LVU332
 1360              	.LBE457:
 1361              	.LBE455:
 1362              	.LBB458:
 1363              	.LBI458:
 128:../../libDaisy//src/dev/oled_ssd130x.h ****     {
 1364              		.loc 4 128 10 is_stmt 1 view .LVU333
 1365              	.LBB459:
 130:../../libDaisy//src/dev/oled_ssd130x.h ****         spi_.BlockingTransmit(buff, size);
 1366              		.loc 4 130 9 view .LVU334
 130:../../libDaisy//src/dev/oled_ssd130x.h ****         spi_.BlockingTransmit(buff, size);
 1367              		.loc 4 130 23 is_stmt 0 view .LVU335
 1368 0104 0121     		movs	r1, #1
 1369 0106 2846     		mov	r0, r5
 1370 0108 FFF7FEFF 		bl	dsy_gpio_write
 1371              	.LVL110:
 131:../../libDaisy//src/dev/oled_ssd130x.h ****     };
 1372              		.loc 4 131 9 is_stmt 1 view .LVU336
 131:../../libDaisy//src/dev/oled_ssd130x.h ****     };
 1373              		.loc 4 131 30 is_stmt 0 view .LVU337
 1374 010c 4146     		mov	r1, r8
 1375 010e 6423     		movs	r3, #100
 1376 0110 8022     		movs	r2, #128
 1377 0112 3046     		mov	r0, r6
 1378              	.LBE459:
 1379              	.LBE458:
 1380              		.loc 4 383 22 view .LVU338
 1381 0114 08F18008 		add	r8, r8, #128
 1382              	.LVL111:
 1383              	.LBB461:
 1384              	.LBB460:
 131:../../libDaisy//src/dev/oled_ssd130x.h ****     };
 1385              		.loc 4 131 30 view .LVU339
 1386 0118 FFF7FEFF 		bl	_ZN5daisy9SpiHandle16BlockingTransmitEPhjm
 1387              	.LVL112:
 131:../../libDaisy//src/dev/oled_ssd130x.h ****     };
 1388              		.loc 4 131 30 view .LVU340
 1389              	.LBE460:
 1390              	.LBE461:
 1391              		.loc 4 383 9 is_stmt 1 view .LVU341
 1392              		.loc 4 383 22 view .LVU342
 1393 011c B82C     		cmp	r4, #184
 1394 011e C6D1     		bne	.L62
ARM GAS  /var/folders/1y/_321xjh9623c014x9_qw12rr0000gn/T//ccXuncwa.s 			page 52


 1395 0120 B1E7     		b	.L61
 1396              	.L71:
 1397 0122 00BF     		.align	2
 1398              	.L70:
 1399 0124 00000000 		.word	.LANCHOR0
 1400 0128 ABAAAAAA 		.word	-1431655765
 1401 012c AAAAAA2A 		.word	715827882
 1402              	.LBE444:
 1403              	.LBE443:
 1404              	.LBE442:
 1405              	.LBE462:
 1406              	.LBE463:
 1407              	.LBE468:
 1408              		.cfi_endproc
 1409              	.LFE2580:
 1411              		.section	.text._ZN5daisy5Dubby8DrawLogoEv,"ax",%progbits
 1412              		.align	1
 1413              		.p2align 2,,3
 1414              		.global	_ZN5daisy5Dubby8DrawLogoEv
 1415              		.syntax unified
 1416              		.thumb
 1417              		.thumb_func
 1419              	_ZN5daisy5Dubby8DrawLogoEv:
 1420              	.LVL113:
 1421              	.LFB2579:
 146:Dubby.cpp     ****     DrawBitmap(0);   
 1422              		.loc 2 146 1 view -0
 1423              		.cfi_startproc
 1424              		@ args = 0, pretend = 0, frame = 0
 1425              		@ frame_needed = 0, uses_anonymous_args = 0
 1426              		@ link register save eliminated.
 147:Dubby.cpp     **** }
 1427              		.loc 2 147 5 view .LVU344
 147:Dubby.cpp     **** }
 1428              		.loc 2 147 15 is_stmt 0 view .LVU345
 1429 0000 0021     		movs	r1, #0
 1430 0002 FFF7FEBF 		b	_ZN5daisy5Dubby10DrawBitmapEi
 1431              	.LVL114:
 147:Dubby.cpp     **** }
 1432              		.loc 2 147 15 view .LVU346
 1433              		.cfi_endproc
 1434              	.LFE2579:
 1436 0006 00BF     		.section	.text._ZN5daisy5Dubby9UpdateBarEi,"ax",%progbits
 1437              		.align	1
 1438              		.p2align 2,,3
 1439              		.global	_ZN5daisy5Dubby9UpdateBarEi
 1440              		.syntax unified
 1441              		.thumb
 1442              		.thumb_func
 1444              	_ZN5daisy5Dubby9UpdateBarEi:
 1445              	.LVL115:
 1446              	.LFB2586:
 253:Dubby.cpp     ****     display.DrawRect((i * 32)  + margin, 1, ((i + 1) * 31) - margin, 51, false, true);
 1447              		.loc 2 253 1 is_stmt 1 view -0
 1448              		.cfi_startproc
 1449              		@ args = 0, pretend = 0, frame = 40
 1450              		@ frame_needed = 0, uses_anonymous_args = 0
ARM GAS  /var/folders/1y/_321xjh9623c014x9_qw12rr0000gn/T//ccXuncwa.s 			page 53


 254:Dubby.cpp     ****     display.DrawRect((i * 32)  + margin, int(abs(1.0f - GetKnobValue(static_cast<Dubby::Ctrl>(i))) 
 1451              		.loc 2 254 5 view .LVU348
 254:Dubby.cpp     ****     display.DrawRect((i * 32)  + margin, int(abs(1.0f - GetKnobValue(static_cast<Dubby::Ctrl>(i))) 
 1452              		.loc 2 254 49 is_stmt 0 view .LVU349
 1453 0000 4B1C     		adds	r3, r1, #1
 254:Dubby.cpp     ****     display.DrawRect((i * 32)  + margin, int(abs(1.0f - GetKnobValue(static_cast<Dubby::Ctrl>(i))) 
 1454              		.loc 2 254 34 view .LVU350
 1455 0002 D0F82428 		ldr	r2, [r0, #2084]
 254:Dubby.cpp     ****     display.DrawRect((i * 32)  + margin, int(abs(1.0f - GetKnobValue(static_cast<Dubby::Ctrl>(i))) 
 1456              		.loc 2 254 54 view .LVU351
 1457 0006 C3EB4313 		rsb	r3, r3, r3, lsl #5
 253:Dubby.cpp     ****     display.DrawRect((i * 32)  + margin, 1, ((i + 1) * 31) - margin, 51, false, true);
 1458              		.loc 2 253 1 view .LVU352
 1459 000a 2DE9F04F 		push	{r4, r5, r6, r7, r8, r9, r10, fp, lr}
 1460              		.cfi_def_cfa_offset 36
 1461              		.cfi_offset 4, -36
 1462              		.cfi_offset 5, -32
 1463              		.cfi_offset 6, -28
 1464              		.cfi_offset 7, -24
 1465              		.cfi_offset 8, -20
 1466              		.cfi_offset 9, -16
 1467              		.cfi_offset 10, -12
 1468              		.cfi_offset 11, -8
 1469              		.cfi_offset 14, -4
 254:Dubby.cpp     ****     display.DrawRect((i * 32)  + margin, int(abs(1.0f - GetKnobValue(static_cast<Dubby::Ctrl>(i))) 
 1470              		.loc 2 254 32 view .LVU353
 1471 000e 02EB4115 		add	r5, r2, r1, lsl #5
 254:Dubby.cpp     ****     display.DrawRect((i * 32)  + margin, int(abs(1.0f - GetKnobValue(static_cast<Dubby::Ctrl>(i))) 
 1472              		.loc 2 254 60 view .LVU354
 1473 0012 9A1A     		subs	r2, r3, r2
 253:Dubby.cpp     ****     display.DrawRect((i * 32)  + margin, 1, ((i + 1) * 31) - margin, 51, false, true);
 1474              		.loc 2 253 1 view .LVU355
 1475 0014 8BB0     		sub	sp, sp, #44
 1476              		.cfi_def_cfa_offset 80
 254:Dubby.cpp     ****     display.DrawRect((i * 32)  + margin, int(abs(1.0f - GetKnobValue(static_cast<Dubby::Ctrl>(i))) 
 1477              		.loc 2 254 25 view .LVU356
 1478 0016 4C01     		lsls	r4, r1, #5
 1479              	.LBB583:
 1480              	.LBB584:
 1481              	.LBB585:
 266:../../libDaisy//src/hid/disp/display.h ****             {
 1482              		.loc 3 266 40 view .LVU357
 1483 0018 9542     		cmp	r5, r2
 1484              	.LBE585:
 1485              	.LBE584:
 1486              	.LBE583:
 254:Dubby.cpp     ****     display.DrawRect((i * 32)  + margin, int(abs(1.0f - GetKnobValue(static_cast<Dubby::Ctrl>(i))) 
 1487              		.loc 2 254 21 view .LVU358
 1488 001a 9446     		mov	ip, r2
 253:Dubby.cpp     ****     display.DrawRect((i * 32)  + margin, 1, ((i + 1) * 31) - margin, 51, false, true);
 1489              		.loc 2 253 1 view .LVU359
 1490 001c 0291     		str	r1, [sp, #8]
 254:Dubby.cpp     ****     display.DrawRect((i * 32)  + margin, int(abs(1.0f - GetKnobValue(static_cast<Dubby::Ctrl>(i))) 
 1491              		.loc 2 254 25 view .LVU360
 1492 001e 0594     		str	r4, [sp, #20]
 254:Dubby.cpp     ****     display.DrawRect((i * 32)  + margin, int(abs(1.0f - GetKnobValue(static_cast<Dubby::Ctrl>(i))) 
 1493              		.loc 2 254 54 view .LVU361
ARM GAS  /var/folders/1y/_321xjh9623c014x9_qw12rr0000gn/T//ccXuncwa.s 			page 54


 1494 0020 0693     		str	r3, [sp, #24]
 1495              	.LVL116:
 1496              	.LBB602:
 1497              	.LBI583:
 257:../../libDaisy//src/hid/disp/display.h ****                   uint_fast8_t y1,
 1498              		.loc 3 257 10 is_stmt 1 view .LVU362
 1499              	.LBB601:
 1500              	.LBI584:
 257:../../libDaisy//src/hid/disp/display.h ****                   uint_fast8_t y1,
 1501              		.loc 3 257 10 view .LVU363
 1502              	.LBB600:
 266:../../libDaisy//src/hid/disp/display.h ****             {
 1503              		.loc 3 266 40 view .LVU364
 1504 0022 18D8     		bhi	.L79
 1505 0024 2E46     		mov	r6, r5
 1506              	.LVL117:
 1507              	.L74:
 1508              	.LBB586:
 1509              		.loc 3 268 34 is_stmt 0 view .LVU365
 1510 0026 0121     		movs	r1, #1
 1511              	.L78:
 1512              	.LVL118:
 1513              	.LBB587:
 1514              	.LBI587:
 1515              		.loc 1 42 10 is_stmt 1 view .LVU366
 1516              	.LBB588:
 1517              	.LBI588:
 352:../../libDaisy//src/dev/oled_ssd130x.h ****     {
 1518              		.loc 4 352 10 view .LVU367
 1519              	.LBB589:
 1520              	.LBB590:
 1521              	.LBI590:
 352:../../libDaisy//src/dev/oled_ssd130x.h ****     {
 1522              		.loc 4 352 10 view .LVU368
 352:../../libDaisy//src/dev/oled_ssd130x.h ****     {
 1523              		.loc 4 352 10 is_stmt 0 view .LVU369
 1524              	.LBE590:
 1525              	.LBE589:
 1526              	.LBE588:
 1527              	.LBE587:
 1528              		.loc 3 268 17 is_stmt 1 view .LVU370
 1529              		.loc 3 268 44 view .LVU371
 1530              	.LBB599:
 1531              	.LBB598:
 1532              	.LBB597:
 1533              	.LBB594:
 1534              	.LBB591:
 359:../../libDaisy//src/dev/oled_ssd130x.h ****     }
 1535              		.loc 4 359 28 is_stmt 0 view .LVU372
 1536 0028 CB08     		lsrs	r3, r1, #3
 359:../../libDaisy//src/dev/oled_ssd130x.h ****     }
 1537              		.loc 4 359 55 view .LVU373
 1538 002a 01F00707 		and	r7, r1, #7
 359:../../libDaisy//src/dev/oled_ssd130x.h ****     }
 1539              		.loc 4 359 49 view .LVU374
 1540 002e 0124     		movs	r4, #1
 1541              	.LBE591:
ARM GAS  /var/folders/1y/_321xjh9623c014x9_qw12rr0000gn/T//ccXuncwa.s 			page 55


 1542              	.LBE594:
 354:../../libDaisy//src/dev/oled_ssd130x.h ****             return;
 1543              		.loc 4 354 9 view .LVU375
 1544 0030 7F2E     		cmp	r6, #127
 1545              	.LBB595:
 1546              	.LBB592:
 359:../../libDaisy//src/dev/oled_ssd130x.h ****     }
 1547              		.loc 4 359 42 view .LVU376
 1548 0032 06EBC313 		add	r3, r6, r3, lsl #7
 1549 0036 2144     		add	r1, r1, r4
 1550              	.LVL119:
 359:../../libDaisy//src/dev/oled_ssd130x.h ****     }
 1551              		.loc 4 359 49 view .LVU377
 1552 0038 04FA07F4 		lsl	r4, r4, r7
 359:../../libDaisy//src/dev/oled_ssd130x.h ****     }
 1553              		.loc 4 359 42 view .LVU378
 1554 003c 0344     		add	r3, r3, r0
 1555              	.LBE592:
 1556              	.LBE595:
 354:../../libDaisy//src/dev/oled_ssd130x.h ****             return;
 1557              		.loc 4 354 9 view .LVU379
 1558 003e 05D8     		bhi	.L77
 1559              	.LBB596:
 1560              	.LBB593:
 359:../../libDaisy//src/dev/oled_ssd130x.h ****     }
 1561              		.loc 4 359 42 view .LVU380
 1562 0040 93F82474 		ldrb	r7, [r3, #1060]	@ zero_extendqisi2
 1563 0044 27EA0404 		bic	r4, r7, r4
 1564 0048 83F82444 		strb	r4, [r3, #1060]
 1565              	.L77:
 1566              	.LBE593:
 1567              	.LBE596:
 1568              	.LBE597:
 1569              	.LBE598:
 1570              	.LBE599:
 1571              		.loc 3 268 44 view .LVU381
 1572 004c 3429     		cmp	r1, #52
 1573 004e EBD1     		bne	.L78
 1574              	.LBE586:
 266:../../libDaisy//src/hid/disp/display.h ****             {
 1575              		.loc 3 266 13 is_stmt 1 view .LVU382
 1576 0050 0136     		adds	r6, r6, #1
 1577              	.LVL120:
 266:../../libDaisy//src/hid/disp/display.h ****             {
 1578              		.loc 3 266 40 view .LVU383
 1579 0052 B242     		cmp	r2, r6
 1580 0054 E7D2     		bcs	.L74
 1581              	.LVL121:
 1582              	.L79:
 266:../../libDaisy//src/hid/disp/display.h ****             {
 1583              		.loc 3 266 40 is_stmt 0 view .LVU384
 1584              	.LBE600:
 1585              	.LBE601:
 1586              	.LBE602:
 255:Dubby.cpp     ****     display.DrawRect((i * 32)  + margin, int(abs((currentLevels[i] * 5.0f) - 1.0f) * 51.0f) + 1, ((
 1587              		.loc 2 255 5 is_stmt 1 view .LVU385
 1588              	.LBB603:
ARM GAS  /var/folders/1y/_321xjh9623c014x9_qw12rr0000gn/T//ccXuncwa.s 			page 56


 1589              	.LBI603:
 287:Dubby.cpp     **** 
 288:Dubby.cpp     **** void Dubby::DisplayPreferencesMenu()
 289:Dubby.cpp     **** {
 290:Dubby.cpp     ****     display.DrawRect(PANE_X_START, PANE_Y_START, PANE_X_END, PANE_Y_END, false, true);
 291:Dubby.cpp     **** 
 292:Dubby.cpp     ****     for (int i = 0; i < PREFERENCESMENU_LAST; i++)
 293:Dubby.cpp     ****     {
 294:Dubby.cpp     ****         display.SetCursor(5, 3 + (i * 10));
 295:Dubby.cpp     ****         display.WriteString(GetTextForEnum(PREFERENCESMENU, i), Font_6x8, true);
 296:Dubby.cpp     **** 
 297:Dubby.cpp     ****         if (preferencesMenuItemSelected == i)
 298:Dubby.cpp     ****             display.DrawRect(submenuBoxBounding[i][0], submenuBoxBounding[i][1], submenuBoxBounding
 299:Dubby.cpp     ****     }
 300:Dubby.cpp     **** 
 301:Dubby.cpp     ****     display.Update();
 302:Dubby.cpp     **** }
 303:Dubby.cpp     **** 
 304:Dubby.cpp     **** void Dubby::UpdatePreferencesMenu(int increment) 
 305:Dubby.cpp     **** {
 306:Dubby.cpp     ****     if (((preferencesMenuItemSelected >= 0 && increment == 1 && preferencesMenuItemSelected < PREFE
 307:Dubby.cpp     ****     {
 308:Dubby.cpp     ****         preferencesMenuItemSelected = (PreferenesMenuItems)(preferencesMenuItemSelected + increment
 309:Dubby.cpp     ****         
 310:Dubby.cpp     ****         DisplayPreferencesMenu();
 311:Dubby.cpp     ****     }
 312:Dubby.cpp     **** }
 313:Dubby.cpp     **** 
 314:Dubby.cpp     **** void Dubby::ResetToBootloader() 
 315:Dubby.cpp     **** {
 316:Dubby.cpp     ****     DrawBitmap(1);
 317:Dubby.cpp     **** 
 318:Dubby.cpp     ****     display.SetCursor(20, 55);
 319:Dubby.cpp     ****     display.WriteString("FIRMWARE UPDATE", Font_6x8, true);
 320:Dubby.cpp     **** 
 321:Dubby.cpp     ****     display.Update();
 322:Dubby.cpp     **** 
 323:Dubby.cpp     ****     System::ResetToBootloader();
 324:Dubby.cpp     **** }
 325:Dubby.cpp     **** 
 326:Dubby.cpp     **** void Dubby::InitEncoder()
 327:Dubby.cpp     **** {
 328:Dubby.cpp     ****     encoder.Init(seed.GetPin(PIN_ENC_A),
 329:Dubby.cpp     ****                 seed.GetPin(PIN_ENC_B),
 330:Dubby.cpp     ****                 seed.GetPin(PIN_ENC_CLICK));
 331:Dubby.cpp     **** }
 332:Dubby.cpp     **** 
 333:Dubby.cpp     **** void Dubby::ProcessAllControls()
 334:Dubby.cpp     **** {
 335:Dubby.cpp     ****     ProcessAnalogControls();
 336:Dubby.cpp     ****     ProcessDigitalControls();
 337:Dubby.cpp     **** }
 338:Dubby.cpp     **** 
 339:Dubby.cpp     **** void Dubby::ProcessAnalogControls()
 340:Dubby.cpp     **** {
 341:Dubby.cpp     ****     for(size_t i = 0; i < CTRL_LAST; i++)
 342:Dubby.cpp     ****         analogInputs[i].Process();
ARM GAS  /var/folders/1y/_321xjh9623c014x9_qw12rr0000gn/T//ccXuncwa.s 			page 57


 343:Dubby.cpp     **** }
 344:Dubby.cpp     **** 
 345:Dubby.cpp     **** void Dubby::ProcessDigitalControls()
 346:Dubby.cpp     **** {
 347:Dubby.cpp     ****     encoder.Debounce();
 348:Dubby.cpp     **** }
 349:Dubby.cpp     **** 
 350:Dubby.cpp     **** float Dubby::GetKnobValue(Ctrl k)
 1590              		.loc 2 350 7 view .LVU386
 1591              	.LBE603:
 351:Dubby.cpp     **** {
 352:Dubby.cpp     ****     return (analogInputs[k].Value());
 1592              		.loc 2 352 5 view .LVU387
 1593              	.LBB610:
 1594              	.LBB604:
 1595              	.LBI604:
 1596              		.file 6 "../../libDaisy//src/hid/ctrl.h"
   1:../../libDaisy//src/hid/ctrl.h **** #pragma once
   2:../../libDaisy//src/hid/ctrl.h **** #ifndef DSY_KNOB_H
   3:../../libDaisy//src/hid/ctrl.h **** #define DSY_KNOB_H /**< & */
   4:../../libDaisy//src/hid/ctrl.h **** #include <stdint.h>
   5:../../libDaisy//src/hid/ctrl.h **** 
   6:../../libDaisy//src/hid/ctrl.h **** #ifdef __cplusplus
   7:../../libDaisy//src/hid/ctrl.h **** namespace daisy
   8:../../libDaisy//src/hid/ctrl.h **** {
   9:../../libDaisy//src/hid/ctrl.h **** /**
  10:../../libDaisy//src/hid/ctrl.h ****     @brief Hardware Interface for control inputs \n 
  11:../../libDaisy//src/hid/ctrl.h ****     Primarily designed for ADC input controls such as \n 
  12:../../libDaisy//src/hid/ctrl.h ****     potentiometers, and control voltage. \n 
  13:../../libDaisy//src/hid/ctrl.h ****     @author Stephen Hensley
  14:../../libDaisy//src/hid/ctrl.h ****     @date November 2019
  15:../../libDaisy//src/hid/ctrl.h ****     @ingroup controls
  16:../../libDaisy//src/hid/ctrl.h **** */
  17:../../libDaisy//src/hid/ctrl.h **** class AnalogControl
  18:../../libDaisy//src/hid/ctrl.h **** {
  19:../../libDaisy//src/hid/ctrl.h ****   public:
  20:../../libDaisy//src/hid/ctrl.h ****     /** Constructor */
  21:../../libDaisy//src/hid/ctrl.h ****     AnalogControl() {}
  22:../../libDaisy//src/hid/ctrl.h ****     /** destructor */
  23:../../libDaisy//src/hid/ctrl.h ****     ~AnalogControl() {}
  24:../../libDaisy//src/hid/ctrl.h **** 
  25:../../libDaisy//src/hid/ctrl.h ****     /** 
  26:../../libDaisy//src/hid/ctrl.h ****     Initializes the control
  27:../../libDaisy//src/hid/ctrl.h ****     \param *adcptr is a pointer to the raw adc read value -- This can be acquired with dsy_adc_get_
  28:../../libDaisy//src/hid/ctrl.h ****     \param sr is the samplerate in Hz that the Process function will be called at.
  29:../../libDaisy//src/hid/ctrl.h ****     \param flip determines whether the input is flipped (i.e. 1.f - input) or not before being proc
  30:../../libDaisy//src/hid/ctrl.h ****     \param invert determines whether the input is inverted (i.e. -1.f * input) or note before being
  31:../../libDaisy//src/hid/ctrl.h ****     \param slew_seconds is the slew time in seconds that it takes for the control to change to a ne
  32:../../libDaisy//src/hid/ctrl.h ****     */
  33:../../libDaisy//src/hid/ctrl.h ****     void Init(uint16_t *adcptr,
  34:../../libDaisy//src/hid/ctrl.h ****               float     sr,
  35:../../libDaisy//src/hid/ctrl.h ****               bool      flip         = false,
  36:../../libDaisy//src/hid/ctrl.h ****               bool      invert       = false,
  37:../../libDaisy//src/hid/ctrl.h ****               float     slew_seconds = 0.002f);
  38:../../libDaisy//src/hid/ctrl.h **** 
  39:../../libDaisy//src/hid/ctrl.h ****     /** 
  40:../../libDaisy//src/hid/ctrl.h ****     This Initializes the AnalogControl for a -5V to 5V inverted input
ARM GAS  /var/folders/1y/_321xjh9623c014x9_qw12rr0000gn/T//ccXuncwa.s 			page 58


  41:../../libDaisy//src/hid/ctrl.h ****     All of the Init details are the same otherwise
  42:../../libDaisy//src/hid/ctrl.h ****     \param *adcptr Pointer to analog digital converter
  43:../../libDaisy//src/hid/ctrl.h ****     \param sr Audio engine sample rate
  44:../../libDaisy//src/hid/ctrl.h ****     */
  45:../../libDaisy//src/hid/ctrl.h ****     void InitBipolarCv(uint16_t *adcptr, float sr);
  46:../../libDaisy//src/hid/ctrl.h **** 
  47:../../libDaisy//src/hid/ctrl.h ****     /** 
  48:../../libDaisy//src/hid/ctrl.h ****     Filters, and transforms a raw ADC read into a normalized range.
  49:../../libDaisy//src/hid/ctrl.h ****     this should be called at the rate of specified by samplerate at Init time.   
  50:../../libDaisy//src/hid/ctrl.h ****     Default Initializations will return 0.0 -> 1.0
  51:../../libDaisy//src/hid/ctrl.h ****     Bi-polar CV inputs will return -1.0 -> 1.0
  52:../../libDaisy//src/hid/ctrl.h ****     */
  53:../../libDaisy//src/hid/ctrl.h ****     float Process();
  54:../../libDaisy//src/hid/ctrl.h **** 
  55:../../libDaisy//src/hid/ctrl.h ****     /** Returns the current stored value, without reprocessing */
  56:../../libDaisy//src/hid/ctrl.h ****     inline float Value() const { return val_; }
 1597              		.loc 6 56 18 view .LVU388
 1598              	.LBB605:
 1599              		.loc 6 56 34 view .LVU389
 1600              		.loc 6 56 34 is_stmt 0 view .LVU390
 1601              	.LBE605:
 1602              	.LBE604:
 1603              	.LBE610:
 1604              	.LBB611:
 1605              	.LBI611:
 1606              		.file 7 "/Library/DaisyToolchain/0.2.0/arm/arm-none-eabi/include/c++/10.3.1/bits/std_abs.h"
   1:/Library/DaisyToolchain/0.2.0/arm/arm-none-eabi/include/c++/10.3.1/bits/std_abs.h **** // -*- C++ -*- C library enhancements header.
   2:/Library/DaisyToolchain/0.2.0/arm/arm-none-eabi/include/c++/10.3.1/bits/std_abs.h **** 
   3:/Library/DaisyToolchain/0.2.0/arm/arm-none-eabi/include/c++/10.3.1/bits/std_abs.h **** // Copyright (C) 2016-2020 Free Software Foundation, Inc.
   4:/Library/DaisyToolchain/0.2.0/arm/arm-none-eabi/include/c++/10.3.1/bits/std_abs.h **** //
   5:/Library/DaisyToolchain/0.2.0/arm/arm-none-eabi/include/c++/10.3.1/bits/std_abs.h **** // This file is part of the GNU ISO C++ Library.  This library is free
   6:/Library/DaisyToolchain/0.2.0/arm/arm-none-eabi/include/c++/10.3.1/bits/std_abs.h **** // software; you can redistribute it and/or modify it under the
   7:/Library/DaisyToolchain/0.2.0/arm/arm-none-eabi/include/c++/10.3.1/bits/std_abs.h **** // terms of the GNU General Public License as published by the
   8:/Library/DaisyToolchain/0.2.0/arm/arm-none-eabi/include/c++/10.3.1/bits/std_abs.h **** // Free Software Foundation; either version 3, or (at your option)
   9:/Library/DaisyToolchain/0.2.0/arm/arm-none-eabi/include/c++/10.3.1/bits/std_abs.h **** // any later version.
  10:/Library/DaisyToolchain/0.2.0/arm/arm-none-eabi/include/c++/10.3.1/bits/std_abs.h **** 
  11:/Library/DaisyToolchain/0.2.0/arm/arm-none-eabi/include/c++/10.3.1/bits/std_abs.h **** // This library is distributed in the hope that it will be useful,
  12:/Library/DaisyToolchain/0.2.0/arm/arm-none-eabi/include/c++/10.3.1/bits/std_abs.h **** // but WITHOUT ANY WARRANTY; without even the implied warranty of
  13:/Library/DaisyToolchain/0.2.0/arm/arm-none-eabi/include/c++/10.3.1/bits/std_abs.h **** // MERCHANTABILITY or FITNESS FOR A PARTICULAR PURPOSE.  See the
  14:/Library/DaisyToolchain/0.2.0/arm/arm-none-eabi/include/c++/10.3.1/bits/std_abs.h **** // GNU General Public License for more details.
  15:/Library/DaisyToolchain/0.2.0/arm/arm-none-eabi/include/c++/10.3.1/bits/std_abs.h **** 
  16:/Library/DaisyToolchain/0.2.0/arm/arm-none-eabi/include/c++/10.3.1/bits/std_abs.h **** // Under Section 7 of GPL version 3, you are granted additional
  17:/Library/DaisyToolchain/0.2.0/arm/arm-none-eabi/include/c++/10.3.1/bits/std_abs.h **** // permissions described in the GCC Runtime Library Exception, version
  18:/Library/DaisyToolchain/0.2.0/arm/arm-none-eabi/include/c++/10.3.1/bits/std_abs.h **** // 3.1, as published by the Free Software Foundation.
  19:/Library/DaisyToolchain/0.2.0/arm/arm-none-eabi/include/c++/10.3.1/bits/std_abs.h **** 
  20:/Library/DaisyToolchain/0.2.0/arm/arm-none-eabi/include/c++/10.3.1/bits/std_abs.h **** // You should have received a copy of the GNU General Public License and
  21:/Library/DaisyToolchain/0.2.0/arm/arm-none-eabi/include/c++/10.3.1/bits/std_abs.h **** // a copy of the GCC Runtime Library Exception along with this program;
  22:/Library/DaisyToolchain/0.2.0/arm/arm-none-eabi/include/c++/10.3.1/bits/std_abs.h **** // see the files COPYING3 and COPYING.RUNTIME respectively.  If not, see
  23:/Library/DaisyToolchain/0.2.0/arm/arm-none-eabi/include/c++/10.3.1/bits/std_abs.h **** // <http://www.gnu.org/licenses/>.
  24:/Library/DaisyToolchain/0.2.0/arm/arm-none-eabi/include/c++/10.3.1/bits/std_abs.h **** 
  25:/Library/DaisyToolchain/0.2.0/arm/arm-none-eabi/include/c++/10.3.1/bits/std_abs.h **** /** @file include/bits/std_abs.h
  26:/Library/DaisyToolchain/0.2.0/arm/arm-none-eabi/include/c++/10.3.1/bits/std_abs.h ****  *  This is an internal header file, included by other library headers.
  27:/Library/DaisyToolchain/0.2.0/arm/arm-none-eabi/include/c++/10.3.1/bits/std_abs.h ****  *  Do not attempt to use it directly. @headername{cmath, cstdlib}
  28:/Library/DaisyToolchain/0.2.0/arm/arm-none-eabi/include/c++/10.3.1/bits/std_abs.h ****  */
  29:/Library/DaisyToolchain/0.2.0/arm/arm-none-eabi/include/c++/10.3.1/bits/std_abs.h **** 
  30:/Library/DaisyToolchain/0.2.0/arm/arm-none-eabi/include/c++/10.3.1/bits/std_abs.h **** #ifndef _GLIBCXX_BITS_STD_ABS_H
  31:/Library/DaisyToolchain/0.2.0/arm/arm-none-eabi/include/c++/10.3.1/bits/std_abs.h **** #define _GLIBCXX_BITS_STD_ABS_H
ARM GAS  /var/folders/1y/_321xjh9623c014x9_qw12rr0000gn/T//ccXuncwa.s 			page 59


  32:/Library/DaisyToolchain/0.2.0/arm/arm-none-eabi/include/c++/10.3.1/bits/std_abs.h **** 
  33:/Library/DaisyToolchain/0.2.0/arm/arm-none-eabi/include/c++/10.3.1/bits/std_abs.h **** #pragma GCC system_header
  34:/Library/DaisyToolchain/0.2.0/arm/arm-none-eabi/include/c++/10.3.1/bits/std_abs.h **** 
  35:/Library/DaisyToolchain/0.2.0/arm/arm-none-eabi/include/c++/10.3.1/bits/std_abs.h **** #include <bits/c++config.h>
  36:/Library/DaisyToolchain/0.2.0/arm/arm-none-eabi/include/c++/10.3.1/bits/std_abs.h **** 
  37:/Library/DaisyToolchain/0.2.0/arm/arm-none-eabi/include/c++/10.3.1/bits/std_abs.h **** #define _GLIBCXX_INCLUDE_NEXT_C_HEADERS
  38:/Library/DaisyToolchain/0.2.0/arm/arm-none-eabi/include/c++/10.3.1/bits/std_abs.h **** #include_next <stdlib.h>
  39:/Library/DaisyToolchain/0.2.0/arm/arm-none-eabi/include/c++/10.3.1/bits/std_abs.h **** #ifdef __CORRECT_ISO_CPP_MATH_H_PROTO
  40:/Library/DaisyToolchain/0.2.0/arm/arm-none-eabi/include/c++/10.3.1/bits/std_abs.h **** # include_next <math.h>
  41:/Library/DaisyToolchain/0.2.0/arm/arm-none-eabi/include/c++/10.3.1/bits/std_abs.h **** #endif
  42:/Library/DaisyToolchain/0.2.0/arm/arm-none-eabi/include/c++/10.3.1/bits/std_abs.h **** #undef _GLIBCXX_INCLUDE_NEXT_C_HEADERS
  43:/Library/DaisyToolchain/0.2.0/arm/arm-none-eabi/include/c++/10.3.1/bits/std_abs.h **** 
  44:/Library/DaisyToolchain/0.2.0/arm/arm-none-eabi/include/c++/10.3.1/bits/std_abs.h **** #undef abs
  45:/Library/DaisyToolchain/0.2.0/arm/arm-none-eabi/include/c++/10.3.1/bits/std_abs.h **** 
  46:/Library/DaisyToolchain/0.2.0/arm/arm-none-eabi/include/c++/10.3.1/bits/std_abs.h **** extern "C++"
  47:/Library/DaisyToolchain/0.2.0/arm/arm-none-eabi/include/c++/10.3.1/bits/std_abs.h **** {
  48:/Library/DaisyToolchain/0.2.0/arm/arm-none-eabi/include/c++/10.3.1/bits/std_abs.h **** namespace std _GLIBCXX_VISIBILITY(default)
  49:/Library/DaisyToolchain/0.2.0/arm/arm-none-eabi/include/c++/10.3.1/bits/std_abs.h **** {
  50:/Library/DaisyToolchain/0.2.0/arm/arm-none-eabi/include/c++/10.3.1/bits/std_abs.h **** _GLIBCXX_BEGIN_NAMESPACE_VERSION
  51:/Library/DaisyToolchain/0.2.0/arm/arm-none-eabi/include/c++/10.3.1/bits/std_abs.h **** 
  52:/Library/DaisyToolchain/0.2.0/arm/arm-none-eabi/include/c++/10.3.1/bits/std_abs.h ****   using ::abs;
  53:/Library/DaisyToolchain/0.2.0/arm/arm-none-eabi/include/c++/10.3.1/bits/std_abs.h **** 
  54:/Library/DaisyToolchain/0.2.0/arm/arm-none-eabi/include/c++/10.3.1/bits/std_abs.h **** #ifndef __CORRECT_ISO_CPP_STDLIB_H_PROTO
  55:/Library/DaisyToolchain/0.2.0/arm/arm-none-eabi/include/c++/10.3.1/bits/std_abs.h ****   inline long
  56:/Library/DaisyToolchain/0.2.0/arm/arm-none-eabi/include/c++/10.3.1/bits/std_abs.h ****   abs(long __i) { return __builtin_labs(__i); }
  57:/Library/DaisyToolchain/0.2.0/arm/arm-none-eabi/include/c++/10.3.1/bits/std_abs.h **** #endif
  58:/Library/DaisyToolchain/0.2.0/arm/arm-none-eabi/include/c++/10.3.1/bits/std_abs.h **** 
  59:/Library/DaisyToolchain/0.2.0/arm/arm-none-eabi/include/c++/10.3.1/bits/std_abs.h **** #ifdef _GLIBCXX_USE_LONG_LONG
  60:/Library/DaisyToolchain/0.2.0/arm/arm-none-eabi/include/c++/10.3.1/bits/std_abs.h ****   inline long long
  61:/Library/DaisyToolchain/0.2.0/arm/arm-none-eabi/include/c++/10.3.1/bits/std_abs.h ****   abs(long long __x) { return __builtin_llabs (__x); }
  62:/Library/DaisyToolchain/0.2.0/arm/arm-none-eabi/include/c++/10.3.1/bits/std_abs.h **** #endif
  63:/Library/DaisyToolchain/0.2.0/arm/arm-none-eabi/include/c++/10.3.1/bits/std_abs.h **** 
  64:/Library/DaisyToolchain/0.2.0/arm/arm-none-eabi/include/c++/10.3.1/bits/std_abs.h **** // _GLIBCXX_RESOLVE_LIB_DEFECTS
  65:/Library/DaisyToolchain/0.2.0/arm/arm-none-eabi/include/c++/10.3.1/bits/std_abs.h **** // 2192. Validity and return type of std::abs(0u) is unclear
  66:/Library/DaisyToolchain/0.2.0/arm/arm-none-eabi/include/c++/10.3.1/bits/std_abs.h **** // 2294. <cstdlib> should declare abs(double)
  67:/Library/DaisyToolchain/0.2.0/arm/arm-none-eabi/include/c++/10.3.1/bits/std_abs.h **** // 2735. std::abs(short), std::abs(signed char) and others should return int
  68:/Library/DaisyToolchain/0.2.0/arm/arm-none-eabi/include/c++/10.3.1/bits/std_abs.h **** 
  69:/Library/DaisyToolchain/0.2.0/arm/arm-none-eabi/include/c++/10.3.1/bits/std_abs.h **** #ifndef __CORRECT_ISO_CPP_MATH_H_PROTO
  70:/Library/DaisyToolchain/0.2.0/arm/arm-none-eabi/include/c++/10.3.1/bits/std_abs.h ****   inline _GLIBCXX_CONSTEXPR double
  71:/Library/DaisyToolchain/0.2.0/arm/arm-none-eabi/include/c++/10.3.1/bits/std_abs.h ****   abs(double __x)
  72:/Library/DaisyToolchain/0.2.0/arm/arm-none-eabi/include/c++/10.3.1/bits/std_abs.h ****   { return __builtin_fabs(__x); }
  73:/Library/DaisyToolchain/0.2.0/arm/arm-none-eabi/include/c++/10.3.1/bits/std_abs.h **** 
  74:/Library/DaisyToolchain/0.2.0/arm/arm-none-eabi/include/c++/10.3.1/bits/std_abs.h ****   inline _GLIBCXX_CONSTEXPR float
  75:/Library/DaisyToolchain/0.2.0/arm/arm-none-eabi/include/c++/10.3.1/bits/std_abs.h ****   abs(float __x)
 1607              		.loc 7 75 3 is_stmt 1 view .LVU391
 1608              	.LBB612:
  76:/Library/DaisyToolchain/0.2.0/arm/arm-none-eabi/include/c++/10.3.1/bits/std_abs.h ****   { return __builtin_fabsf(__x); }
 1609              		.loc 7 76 5 view .LVU392
 1610              		.loc 7 76 5 is_stmt 0 view .LVU393
 1611              	.LBE612:
 1612              	.LBE611:
 1613              	.LBB614:
 1614              	.LBB608:
 1615              	.LBB606:
 1616              		.loc 6 56 41 view .LVU394
 1617 0056 9DF80830 		ldrb	r3, [sp, #8]	@ zero_extendqisi2
 1618              	.LBE606:
ARM GAS  /var/folders/1y/_321xjh9623c014x9_qw12rr0000gn/T//ccXuncwa.s 			page 60


 1619              	.LBE608:
 1620              	.LBE614:
 255:Dubby.cpp     ****     display.DrawRect((i * 32)  + margin, int(abs((currentLevels[i] * 5.0f) - 1.0f) * 51.0f) + 1, ((
 1621              		.loc 2 255 49 view .LVU395
 1622 005a F7EE007A 		vmov.f32	s15, #1.0e+0
 255:Dubby.cpp     ****     display.DrawRect((i * 32)  + margin, int(abs((currentLevels[i] * 5.0f) - 1.0f) * 51.0f) + 1, ((
 1623              		.loc 2 255 100 view .LVU396
 1624 005e 9FEDC97A 		vldr.32	s14, .L177
 1625              	.LBB615:
 1626              	.LBB616:
 1627              	.LBB617:
 227:../../libDaisy//src/hid/disp/display.h ****         int_fast16_t deltaY = abs((int_fast16_t)y2 - (int_fast16_t)y1);
 1628              		.loc 3 227 52 view .LVU397
 1629 0062 A2EB050A 		sub	r10, r2, r5
 1630              	.LBE617:
 1631              	.LBE616:
 1632              	.LBE615:
 1633              	.LBB694:
 1634              	.LBB609:
 1635              	.LBB607:
 1636              		.loc 6 56 41 view .LVU398
 1637 0066 00EB4313 		add	r3, r0, r3, lsl #5
 1638              	.LBE607:
 1639              	.LBE609:
 1640              	.LBE694:
 1641              	.LBB695:
 1642              	.LBB644:
 1643              	.LBB639:
 227:../../libDaisy//src/hid/disp/display.h ****         int_fast16_t deltaY = abs((int_fast16_t)y2 - (int_fast16_t)y1);
 1644              		.loc 3 227 22 view .LVU399
 1645 006a BAF1000F 		cmp	r10, #0
 1646              	.LBE639:
 1647              	.LBE644:
 1648              	.LBE695:
 255:Dubby.cpp     ****     display.DrawRect((i * 32)  + margin, int(abs((currentLevels[i] * 5.0f) - 1.0f) * 51.0f) + 1, ((
 1649              		.loc 2 255 49 view .LVU400
 1650 006e D3ED4A6A 		vldr.32	s13, [r3, #296]
 1651              	.LBB696:
 1652              	.LBB645:
 1653              	.LBB640:
 227:../../libDaisy//src/hid/disp/display.h ****         int_fast16_t deltaY = abs((int_fast16_t)y2 - (int_fast16_t)y1);
 1654              		.loc 3 227 22 view .LVU401
 1655 0072 B8BF     		it	lt
 1656 0074 CAF1000A 		rsblt	r10, r10, #0
 229:../../libDaisy//src/hid/disp/display.h ****         int_fast16_t signY  = ((y1 < y2) ? 1 : -1);
 1657              		.loc 3 229 42 view .LVU402
 1658 0078 9542     		cmp	r5, r2
 1659              	.LBE640:
 1660              	.LBE645:
 1661              	.LBE696:
 255:Dubby.cpp     ****     display.DrawRect((i * 32)  + margin, int(abs((currentLevels[i] * 5.0f) - 1.0f) * 51.0f) + 1, ((
 1662              		.loc 2 255 49 view .LVU403
 1663 007a 77EEE67A 		vsub.f32	s15, s15, s13
 1664              	.LBB697:
 1665              	.LBB613:
 1666              		.loc 7 76 31 view .LVU404
 1667 007e F0EEE77A 		vabs.f32	s15, s15
ARM GAS  /var/folders/1y/_321xjh9623c014x9_qw12rr0000gn/T//ccXuncwa.s 			page 61


 1668              	.LBE613:
 1669              	.LBE697:
 255:Dubby.cpp     ****     display.DrawRect((i * 32)  + margin, int(abs((currentLevels[i] * 5.0f) - 1.0f) * 51.0f) + 1, ((
 1670              		.loc 2 255 100 view .LVU405
 1671 0082 67EE877A 		vmul.f32	s15, s15, s14
 255:Dubby.cpp     ****     display.DrawRect((i * 32)  + margin, int(abs((currentLevels[i] * 5.0f) - 1.0f) * 51.0f) + 1, ((
 1672              		.loc 2 255 42 view .LVU406
 1673 0086 FDEEE77A 		vcvt.s32.f32	s15, s15
 255:Dubby.cpp     ****     display.DrawRect((i * 32)  + margin, int(abs((currentLevels[i] * 5.0f) - 1.0f) * 51.0f) + 1, ((
 1674              		.loc 2 255 109 view .LVU407
 1675 008a 17EE903A 		vmov	r3, s15	@ int
 1676 008e 03F10107 		add	r7, r3, #1
 1677              	.LVL122:
 1678              	.LBB698:
 1679              	.LBI615:
 257:../../libDaisy//src/hid/disp/display.h ****                   uint_fast8_t y1,
 1680              		.loc 3 257 10 is_stmt 1 view .LVU408
 1681              	.LBB646:
 1682              	.LBI616:
 221:../../libDaisy//src/hid/disp/display.h ****                   uint_fast8_t y1,
 1683              		.loc 3 221 10 view .LVU409
 1684              	.LBB641:
 229:../../libDaisy//src/hid/disp/display.h ****         int_fast16_t signY  = ((y1 < y2) ? 1 : -1);
 1685              		.loc 3 229 42 is_stmt 0 view .LVU410
 1686 0092 80F08D81 		bcs	.L176
 1687              	.LVL123:
 1688              	.LBB618:
 1689              	.LBI618:
 1690              		.loc 1 42 10 is_stmt 1 view .LVU411
 1691              	.LBB619:
 1692              	.LBB620:
 1693              	.LBB621:
 354:../../libDaisy//src/dev/oled_ssd130x.h ****             return;
 1694              		.loc 4 354 14 is_stmt 0 view .LVU412
 1695 0096 7F2A     		cmp	r2, #127
 1696              	.LBE621:
 1697              	.LBE620:
  43:../../libDaisy//src/hid/disp/oled_display.h ****     {
  44:../../libDaisy//src/hid/disp/oled_display.h ****         driver_.DrawPixel(x, y, on);
 1698              		.loc 1 44 26 view .LVU413
 1699 0098 00F58364 		add	r4, r0, #1048
 1700              	.LVL124:
 1701              	.LBB625:
 1702              	.LBI620:
 352:../../libDaisy//src/dev/oled_ssd130x.h ****     {
 1703              		.loc 4 352 10 is_stmt 1 view .LVU414
 1704              	.LBE625:
 1705              	.LBE619:
 1706              	.LBE618:
 229:../../libDaisy//src/hid/disp/display.h ****         int_fast16_t signY  = ((y1 < y2) ? 1 : -1);
 1707              		.loc 3 229 42 is_stmt 0 view .LVU415
 1708 009c 4FF0010B 		mov	fp, #1
 1709              	.LBB633:
 1710              	.LBB630:
 1711              	.LBB626:
 1712              	.LBB622:
 354:../../libDaisy//src/dev/oled_ssd130x.h ****             return;
ARM GAS  /var/folders/1y/_321xjh9623c014x9_qw12rr0000gn/T//ccXuncwa.s 			page 62


 1713              		.loc 4 354 14 view .LVU416
 1714 00a0 94BF     		ite	ls
 1715 00a2 0023     		movls	r3, #0
 1716 00a4 0123     		movhi	r3, #1
 354:../../libDaisy//src/dev/oled_ssd130x.h ****             return;
 1717              		.loc 4 354 28 view .LVU417
 1718 00a6 3F2F     		cmp	r7, #63
 354:../../libDaisy//src/dev/oled_ssd130x.h ****             return;
 1719              		.loc 4 354 14 view .LVU418
 1720 00a8 0393     		str	r3, [sp, #12]
 354:../../libDaisy//src/dev/oled_ssd130x.h ****             return;
 1721              		.loc 4 354 28 view .LVU419
 1722 00aa 94BF     		ite	ls
 1723 00ac 0021     		movls	r1, #0
 1724 00ae 0121     		movhi	r1, #1
 1725 00b0 0491     		str	r1, [sp, #16]
 354:../../libDaisy//src/dev/oled_ssd130x.h ****             return;
 1726              		.loc 4 354 9 view .LVU420
 1727 00b2 13B9     		cbnz	r3, .L82
 1728 00b4 0029     		cmp	r1, #0
 1729 00b6 00F08B81 		beq	.L119
 1730              	.LVL125:
 1731              	.L82:
 354:../../libDaisy//src/dev/oled_ssd130x.h ****             return;
 1732              		.loc 4 354 9 view .LVU421
 1733              	.LBE622:
 1734              	.LBE626:
 1735              	.LBE630:
 1736              	.LBE633:
 227:../../libDaisy//src/hid/disp/display.h ****         int_fast16_t deltaY = abs((int_fast16_t)y2 - (int_fast16_t)y1);
 1737              		.loc 3 227 22 view .LVU422
 1738 00ba D046     		mov	r8, r10
 1739              	.LBE641:
 1740              	.LBE646:
 1741              	.LBE698:
 255:Dubby.cpp     ****     display.DrawRect((i * 32)  + margin, int(abs((currentLevels[i] * 5.0f) - 1.0f) * 51.0f) + 1, ((
 1742              		.loc 2 255 21 view .LVU423
 1743 00bc 3E46     		mov	r6, r7
 254:Dubby.cpp     ****     display.DrawRect((i * 32)  + margin, int(abs(1.0f - GetKnobValue(static_cast<Dubby::Ctrl>(i))) 
 1744              		.loc 2 254 21 view .LVU424
 1745 00be AE46     		mov	lr, r5
 1746              	.L84:
 1747              	.LVL126:
 1748              	.LBB699:
 1749              	.LBB647:
 1750              	.LBB642:
 1751              	.LBB634:
 1752              	.LBI634:
  42:../../libDaisy//src/hid/disp/oled_display.h ****     {
 1753              		.loc 1 42 10 is_stmt 1 view .LVU425
 1754              	.LBB635:
 1755              	.LBI635:
 352:../../libDaisy//src/dev/oled_ssd130x.h ****     {
 1756              		.loc 4 352 10 view .LVU426
 1757              	.LBB636:
 357:../../libDaisy//src/dev/oled_ssd130x.h ****         else
 1758              		.loc 4 357 28 is_stmt 0 view .LVU427
ARM GAS  /var/folders/1y/_321xjh9623c014x9_qw12rr0000gn/T//ccXuncwa.s 			page 63


 1759 00c0 F108     		lsrs	r1, r6, #3
 357:../../libDaisy//src/dev/oled_ssd130x.h ****         else
 1760              		.loc 4 357 54 view .LVU428
 1761 00c2 06F00703 		and	r3, r6, #7
 357:../../libDaisy//src/dev/oled_ssd130x.h ****         else
 1762              		.loc 4 357 48 view .LVU429
 1763 00c6 4FF00109 		mov	r9, #1
 354:../../libDaisy//src/dev/oled_ssd130x.h ****             return;
 1764              		.loc 4 354 9 view .LVU430
 1765 00ca BEF17F0F 		cmp	lr, #127
 357:../../libDaisy//src/dev/oled_ssd130x.h ****         else
 1766              		.loc 4 357 42 view .LVU431
 1767 00ce 0EEBC111 		add	r1, lr, r1, lsl #7
 357:../../libDaisy//src/dev/oled_ssd130x.h ****         else
 1768              		.loc 4 357 48 view .LVU432
 1769 00d2 09FA03F3 		lsl	r3, r9, r3
 354:../../libDaisy//src/dev/oled_ssd130x.h ****             return;
 1770              		.loc 4 354 9 view .LVU433
 1771 00d6 08D8     		bhi	.L85
 1772 00d8 3F2E     		cmp	r6, #63
 357:../../libDaisy//src/dev/oled_ssd130x.h ****         else
 1773              		.loc 4 357 42 view .LVU434
 1774 00da 0144     		add	r1, r1, r0
 354:../../libDaisy//src/dev/oled_ssd130x.h ****             return;
 1775              		.loc 4 354 9 view .LVU435
 1776 00dc 05D8     		bhi	.L85
 357:../../libDaisy//src/dev/oled_ssd130x.h ****         else
 1777              		.loc 4 357 42 view .LVU436
 1778 00de 91F82494 		ldrb	r9, [r1, #1060]	@ zero_extendqisi2
 1779 00e2 43EA0903 		orr	r3, r3, r9
 1780 00e6 81F82434 		strb	r3, [r1, #1060]
 1781              	.L85:
 357:../../libDaisy//src/dev/oled_ssd130x.h ****         else
 1782              		.loc 4 357 42 view .LVU437
 1783              	.LBE636:
 1784              	.LBE635:
 1785              	.LBE634:
 243:../../libDaisy//src/hid/disp/display.h ****             {
 1786              		.loc 3 243 13 view .LVU438
 1787 00ea 5FEA4803 		lsls	r3, r8, #1
 246:../../libDaisy//src/hid/disp/display.h ****             }
 1788              		.loc 3 246 20 view .LVU439
 1789 00ee 18BF     		it	ne
 1790 00f0 DE44     		addne	lr, lr, fp
 1791              	.LVL127:
 249:../../libDaisy//src/hid/disp/display.h ****             {
 1792              		.loc 3 249 13 view .LVU440
 1793 00f2 9A45     		cmp	r10, r3
 1794 00f4 01DD     		ble	.L87
 251:../../libDaisy//src/hid/disp/display.h ****                 y1 += signY;
 1795              		.loc 3 251 23 view .LVU441
 1796 00f6 D044     		add	r8, r8, r10
 1797              	.LVL128:
 252:../../libDaisy//src/hid/disp/display.h ****             }
 1798              		.loc 3 252 20 view .LVU442
 1799 00f8 013E     		subs	r6, r6, #1
 1800              	.LVL129:
ARM GAS  /var/folders/1y/_321xjh9623c014x9_qw12rr0000gn/T//ccXuncwa.s 			page 64


 1801              	.L87:
 239:../../libDaisy//src/hid/disp/display.h ****         {
 1802              		.loc 3 239 26 is_stmt 1 view .LVU443
 1803 00fa 7245     		cmp	r2, lr
 1804 00fc E0D1     		bne	.L84
 239:../../libDaisy//src/hid/disp/display.h ****         {
 1805              		.loc 3 239 26 is_stmt 0 view .LVU444
 1806 00fe B742     		cmp	r7, r6
 1807 0100 DED1     		bne	.L84
 1808 0102 0023     		movs	r3, #0
 1809 0104 0793     		str	r3, [sp, #28]
 1810              	.LVL130:
 1811              	.L81:
 239:../../libDaisy//src/hid/disp/display.h ****         {
 1812              		.loc 3 239 26 view .LVU445
 1813              	.LBE642:
 1814              	.LBE647:
 1815              	.LBB648:
 1816              	.LBI648:
 221:../../libDaisy//src/hid/disp/display.h ****                   uint_fast8_t y1,
 1817              		.loc 3 221 10 is_stmt 1 view .LVU446
 1818              	.LBB649:
 228:../../libDaisy//src/hid/disp/display.h ****         int_fast16_t signX  = ((x1 < x2) ? 1 : -1);
 1819              		.loc 3 228 52 is_stmt 0 view .LVU447
 1820 0106 C7F13303 		rsb	r3, r7, #51
 230:../../libDaisy//src/hid/disp/display.h ****         int_fast16_t error  = deltaX - deltaY;
 1821              		.loc 3 230 42 view .LVU448
 1822 010a 332F     		cmp	r7, #51
 228:../../libDaisy//src/hid/disp/display.h ****         int_fast16_t signX  = ((x1 < x2) ? 1 : -1);
 1823              		.loc 3 228 22 view .LVU449
 1824 010c 83EAE371 		eor	r1, r3, r3, asr #31
 1825 0110 A1EBE371 		sub	r1, r1, r3, asr #31
 1826 0114 0B46     		mov	r3, r1
 230:../../libDaisy//src/hid/disp/display.h ****         int_fast16_t error  = deltaX - deltaY;
 1827              		.loc 3 230 42 view .LVU450
 1828 0116 B4BF     		ite	lt
 1829 0118 0123     		movlt	r3, #1
 1830 011a 4FF0FF33 		movge	r3, #-1
 231:../../libDaisy//src/hid/disp/display.h ****         int_fast16_t error2;
 1831              		.loc 3 231 22 view .LVU451
 1832 011e C1F1000A 		rsb	r10, r1, #0
 228:../../libDaisy//src/hid/disp/display.h ****         int_fast16_t signX  = ((x1 < x2) ? 1 : -1);
 1833              		.loc 3 228 22 view .LVU452
 1834 0122 0091     		str	r1, [sp]
 1835              	.LVL131:
 230:../../libDaisy//src/hid/disp/display.h ****         int_fast16_t error  = deltaX - deltaY;
 1836              		.loc 3 230 42 view .LVU453
 1837 0124 0193     		str	r3, [sp, #4]
 1838              	.LVL132:
 1839              	.LBB650:
 1840              	.LBI650:
  42:../../libDaisy//src/hid/disp/oled_display.h ****     {
 1841              		.loc 1 42 10 is_stmt 1 view .LVU454
 1842              	.LBB651:
 1843              	.LBI651:
 352:../../libDaisy//src/dev/oled_ssd130x.h ****     {
 1844              		.loc 4 352 10 view .LVU455
ARM GAS  /var/folders/1y/_321xjh9623c014x9_qw12rr0000gn/T//ccXuncwa.s 			page 65


 1845              	.LBB652:
 354:../../libDaisy//src/dev/oled_ssd130x.h ****             return;
 1846              		.loc 4 354 9 is_stmt 0 view .LVU456
 1847 0126 039B     		ldr	r3, [sp, #12]
 1848              	.LVL133:
 354:../../libDaisy//src/dev/oled_ssd130x.h ****             return;
 1849              		.loc 4 354 9 view .LVU457
 1850 0128 43B9     		cbnz	r3, .L89
 357:../../libDaisy//src/dev/oled_ssd130x.h ****         else
 1851              		.loc 4 357 42 view .LVU458
 1852 012a 02F54073 		add	r3, r2, #768
 1853 012e 0344     		add	r3, r3, r0
 1854 0130 93F82414 		ldrb	r1, [r3, #1060]	@ zero_extendqisi2
 1855              	.LVL134:
 357:../../libDaisy//src/dev/oled_ssd130x.h ****         else
 1856              		.loc 4 357 42 view .LVU459
 1857 0134 41F00801 		orr	r1, r1, #8
 1858 0138 83F82414 		strb	r1, [r3, #1060]
 1859              	.L89:
 1860              	.LVL135:
 357:../../libDaisy//src/dev/oled_ssd130x.h ****         else
 1861              		.loc 4 357 42 view .LVU460
 1862              	.LBE652:
 1863              	.LBE651:
 1864              	.LBE650:
 239:../../libDaisy//src/hid/disp/display.h ****         {
 1865              		.loc 3 239 26 is_stmt 1 view .LVU461
 1866 013c 332F     		cmp	r7, #51
 1867 013e 29D0     		beq	.L90
 1868 0140 5646     		mov	r6, r10
 1869 0142 3946     		mov	r1, r7
 1870              	.LBE649:
 1871              	.LBE648:
 1872              	.LBE699:
 254:Dubby.cpp     ****     display.DrawRect((i * 32)  + margin, int(abs(1.0f - GetKnobValue(static_cast<Dubby::Ctrl>(i))) 
 1873              		.loc 2 254 21 is_stmt 0 view .LVU462
 1874 0144 9646     		mov	lr, r2
 1875              	.LVL136:
 1876              	.L91:
 1877              	.LBB700:
 1878              	.LBB660:
 1879              	.LBB659:
 1880              	.LBB653:
 1881              	.LBI653:
  42:../../libDaisy//src/hid/disp/oled_display.h ****     {
 1882              		.loc 1 42 10 is_stmt 1 view .LVU463
 1883              	.LBB654:
 1884              	.LBI654:
 352:../../libDaisy//src/dev/oled_ssd130x.h ****     {
 1885              		.loc 4 352 10 view .LVU464
 1886              	.LBB655:
 357:../../libDaisy//src/dev/oled_ssd130x.h ****         else
 1887              		.loc 4 357 48 is_stmt 0 view .LVU465
 1888 0146 4FF0010B 		mov	fp, #1
 357:../../libDaisy//src/dev/oled_ssd130x.h ****         else
 1889              		.loc 4 357 28 view .LVU466
 1890 014a CB08     		lsrs	r3, r1, #3
ARM GAS  /var/folders/1y/_321xjh9623c014x9_qw12rr0000gn/T//ccXuncwa.s 			page 66


 357:../../libDaisy//src/dev/oled_ssd130x.h ****         else
 1891              		.loc 4 357 54 view .LVU467
 1892 014c 01F00708 		and	r8, r1, #7
 354:../../libDaisy//src/dev/oled_ssd130x.h ****             return;
 1893              		.loc 4 354 9 view .LVU468
 1894 0150 BEF17F0F 		cmp	lr, #127
 357:../../libDaisy//src/dev/oled_ssd130x.h ****         else
 1895              		.loc 4 357 42 view .LVU469
 1896 0154 0EEBC313 		add	r3, lr, r3, lsl #7
 1897              	.LBE655:
 1898              	.LBE654:
 1899              	.LBE653:
 242:../../libDaisy//src/hid/disp/display.h ****             if(error2 > -deltaY)
 1900              		.loc 3 242 20 view .LVU470
 1901 0158 06FA0BF9 		lsl	r9, r6, fp
 1902              	.LVL137:
 1903              	.LBB658:
 1904              	.LBB657:
 1905              	.LBB656:
 357:../../libDaisy//src/dev/oled_ssd130x.h ****         else
 1906              		.loc 4 357 48 view .LVU471
 1907 015c 0BFA08F8 		lsl	r8, fp, r8
 354:../../libDaisy//src/dev/oled_ssd130x.h ****             return;
 1908              		.loc 4 354 9 view .LVU472
 1909 0160 08D8     		bhi	.L93
 354:../../libDaisy//src/dev/oled_ssd130x.h ****             return;
 1910              		.loc 4 354 9 view .LVU473
 1911 0162 3F29     		cmp	r1, #63
 357:../../libDaisy//src/dev/oled_ssd130x.h ****         else
 1912              		.loc 4 357 42 view .LVU474
 1913 0164 0344     		add	r3, r3, r0
 354:../../libDaisy//src/dev/oled_ssd130x.h ****             return;
 1914              		.loc 4 354 9 view .LVU475
 1915 0166 05D8     		bhi	.L93
 357:../../libDaisy//src/dev/oled_ssd130x.h ****         else
 1916              		.loc 4 357 42 view .LVU476
 1917 0168 93F824B4 		ldrb	fp, [r3, #1060]	@ zero_extendqisi2
 1918 016c 48EA0B08 		orr	r8, r8, fp
 1919 0170 83F82484 		strb	r8, [r3, #1060]
 1920              	.L93:
 357:../../libDaisy//src/dev/oled_ssd130x.h ****         else
 1921              		.loc 4 357 42 view .LVU477
 1922              	.LBE656:
 1923              	.LBE657:
 1924              	.LBE658:
 243:../../libDaisy//src/hid/disp/display.h ****             {
 1925              		.loc 3 243 13 view .LVU478
 1926 0174 BAEB460F 		cmp	r10, r6, lsl #1
 1927 0178 03DA     		bge	.L94
 245:../../libDaisy//src/hid/disp/display.h ****                 x1 += signX;
 1928              		.loc 3 245 23 view .LVU479
 1929 017a 009B     		ldr	r3, [sp]
 246:../../libDaisy//src/hid/disp/display.h ****             }
 1930              		.loc 3 246 20 view .LVU480
 1931 017c 0EF1FF3E 		add	lr, lr, #-1
 1932              	.LVL138:
 245:../../libDaisy//src/hid/disp/display.h ****                 x1 += signX;
ARM GAS  /var/folders/1y/_321xjh9623c014x9_qw12rr0000gn/T//ccXuncwa.s 			page 67


 1933              		.loc 3 245 23 view .LVU481
 1934 0180 F61A     		subs	r6, r6, r3
 1935              	.LVL139:
 1936              	.L94:
 249:../../libDaisy//src/hid/disp/display.h ****             {
 1937              		.loc 3 249 13 view .LVU482
 1938 0182 B9F1000F 		cmp	r9, #0
 1939 0186 01D0     		beq	.L95
 252:../../libDaisy//src/hid/disp/display.h ****             }
 1940              		.loc 3 252 20 view .LVU483
 1941 0188 019B     		ldr	r3, [sp, #4]
 1942 018a 1944     		add	r1, r1, r3
 1943              	.LVL140:
 1944              	.L95:
 239:../../libDaisy//src/hid/disp/display.h ****         {
 1945              		.loc 3 239 26 is_stmt 1 view .LVU484
 1946 018c 7245     		cmp	r2, lr
 1947 018e DAD1     		bne	.L91
 239:../../libDaisy//src/hid/disp/display.h ****         {
 1948              		.loc 3 239 26 is_stmt 0 view .LVU485
 1949 0190 3329     		cmp	r1, #51
 1950 0192 D8D1     		bne	.L91
 1951              	.LVL141:
 1952              	.L90:
 239:../../libDaisy//src/hid/disp/display.h ****         {
 1953              		.loc 3 239 26 view .LVU486
 1954              	.LBE659:
 1955              	.LBE660:
 1956              	.LBB661:
 1957              	.LBI661:
 221:../../libDaisy//src/hid/disp/display.h ****                   uint_fast8_t y1,
 1958              		.loc 3 221 10 is_stmt 1 view .LVU487
 1959              	.LBB662:
 227:../../libDaisy//src/hid/disp/display.h ****         int_fast16_t deltaY = abs((int_fast16_t)y2 - (int_fast16_t)y1);
 1960              		.loc 3 227 52 is_stmt 0 view .LVU488
 1961 0194 A5EB0208 		sub	r8, r5, r2
 229:../../libDaisy//src/hid/disp/display.h ****         int_fast16_t signY  = ((y1 < y2) ? 1 : -1);
 1962              		.loc 3 229 42 view .LVU489
 1963 0198 9542     		cmp	r5, r2
 1964 019a 8CBF     		ite	hi
 1965 019c 0122     		movhi	r2, #1
 1966 019e 4FF0FF32 		movls	r2, #-1
 227:../../libDaisy//src/hid/disp/display.h ****         int_fast16_t deltaY = abs((int_fast16_t)y2 - (int_fast16_t)y1);
 1967              		.loc 3 227 22 view .LVU490
 1968 01a2 B8F1000F 		cmp	r8, #0
 1969 01a6 B8BF     		it	lt
 1970 01a8 C8F10008 		rsblt	r8, r8, #0
 1971              	.LVL142:
 1972              	.LBB663:
 1973              	.LBI663:
  42:../../libDaisy//src/hid/disp/oled_display.h ****     {
 1974              		.loc 1 42 10 is_stmt 1 view .LVU491
 1975              	.LBB664:
 1976              	.LBI664:
 352:../../libDaisy//src/dev/oled_ssd130x.h ****     {
 1977              		.loc 4 352 10 view .LVU492
 1978              	.LBB665:
ARM GAS  /var/folders/1y/_321xjh9623c014x9_qw12rr0000gn/T//ccXuncwa.s 			page 68


 354:../../libDaisy//src/dev/oled_ssd130x.h ****             return;
 1979              		.loc 4 354 9 is_stmt 0 view .LVU493
 1980 01ac 7F2D     		cmp	r5, #127
 1981 01ae 08D8     		bhi	.L97
 357:../../libDaisy//src/dev/oled_ssd130x.h ****         else
 1982              		.loc 4 357 42 view .LVU494
 1983 01b0 05F54073 		add	r3, r5, #768
 1984 01b4 0344     		add	r3, r3, r0
 1985 01b6 93F82414 		ldrb	r1, [r3, #1060]	@ zero_extendqisi2
 1986 01ba 41F00801 		orr	r1, r1, #8
 1987 01be 83F82414 		strb	r1, [r3, #1060]
 1988              	.L97:
 1989              	.LVL143:
 357:../../libDaisy//src/dev/oled_ssd130x.h ****         else
 1990              		.loc 4 357 42 view .LVU495
 1991              	.LBE665:
 1992              	.LBE664:
 1993              	.LBE663:
 239:../../libDaisy//src/hid/disp/display.h ****         {
 1994              		.loc 3 239 26 is_stmt 1 view .LVU496
 1995 01c2 079B     		ldr	r3, [sp, #28]
 1996 01c4 0BBB     		cbnz	r3, .L98
 227:../../libDaisy//src/hid/disp/display.h ****         int_fast16_t deltaY = abs((int_fast16_t)y2 - (int_fast16_t)y1);
 1997              		.loc 3 227 22 is_stmt 0 view .LVU497
 1998 01c6 C646     		mov	lr, r8
 239:../../libDaisy//src/hid/disp/display.h ****         {
 1999              		.loc 3 239 26 view .LVU498
 2000 01c8 3326     		movs	r6, #51
 2001              	.LVL144:
 2002              	.L99:
 2003              	.LBB666:
 2004              	.LBI666:
  42:../../libDaisy//src/hid/disp/oled_display.h ****     {
 2005              		.loc 1 42 10 is_stmt 1 view .LVU499
 2006              	.LBB667:
 2007              	.LBI667:
 352:../../libDaisy//src/dev/oled_ssd130x.h ****     {
 2008              		.loc 4 352 10 view .LVU500
 2009              	.LBB668:
 357:../../libDaisy//src/dev/oled_ssd130x.h ****         else
 2010              		.loc 4 357 28 is_stmt 0 view .LVU501
 2011 01ca F308     		lsrs	r3, r6, #3
 357:../../libDaisy//src/dev/oled_ssd130x.h ****         else
 2012              		.loc 4 357 54 view .LVU502
 2013 01cc 06F00709 		and	r9, r6, #7
 357:../../libDaisy//src/dev/oled_ssd130x.h ****         else
 2014              		.loc 4 357 48 view .LVU503
 2015 01d0 0121     		movs	r1, #1
 354:../../libDaisy//src/dev/oled_ssd130x.h ****             return;
 2016              		.loc 4 354 9 view .LVU504
 2017 01d2 BCF17F0F 		cmp	ip, #127
 357:../../libDaisy//src/dev/oled_ssd130x.h ****         else
 2018              		.loc 4 357 42 view .LVU505
 2019 01d6 0CEBC313 		add	r3, ip, r3, lsl #7
 357:../../libDaisy//src/dev/oled_ssd130x.h ****         else
 2020              		.loc 4 357 48 view .LVU506
 2021 01da 01FA09F1 		lsl	r1, r1, r9
ARM GAS  /var/folders/1y/_321xjh9623c014x9_qw12rr0000gn/T//ccXuncwa.s 			page 69


 354:../../libDaisy//src/dev/oled_ssd130x.h ****             return;
 2022              		.loc 4 354 9 view .LVU507
 2023 01de 08D8     		bhi	.L101
 354:../../libDaisy//src/dev/oled_ssd130x.h ****             return;
 2024              		.loc 4 354 9 view .LVU508
 2025 01e0 3F2E     		cmp	r6, #63
 357:../../libDaisy//src/dev/oled_ssd130x.h ****         else
 2026              		.loc 4 357 42 view .LVU509
 2027 01e2 0344     		add	r3, r3, r0
 354:../../libDaisy//src/dev/oled_ssd130x.h ****             return;
 2028              		.loc 4 354 9 view .LVU510
 2029 01e4 05D8     		bhi	.L101
 357:../../libDaisy//src/dev/oled_ssd130x.h ****         else
 2030              		.loc 4 357 42 view .LVU511
 2031 01e6 93F82494 		ldrb	r9, [r3, #1060]	@ zero_extendqisi2
 2032 01ea 41EA0901 		orr	r1, r1, r9
 2033 01ee 83F82414 		strb	r1, [r3, #1060]
 2034              	.L101:
 357:../../libDaisy//src/dev/oled_ssd130x.h ****         else
 2035              		.loc 4 357 42 view .LVU512
 2036              	.LBE668:
 2037              	.LBE667:
 2038              	.LBE666:
 243:../../libDaisy//src/hid/disp/display.h ****             {
 2039              		.loc 3 243 13 view .LVU513
 2040 01f2 5FEA4E03 		lsls	r3, lr, #1
 246:../../libDaisy//src/hid/disp/display.h ****             }
 2041              		.loc 3 246 20 view .LVU514
 2042 01f6 18BF     		it	ne
 2043 01f8 9444     		addne	ip, ip, r2
 2044              	.LVL145:
 249:../../libDaisy//src/hid/disp/display.h ****             {
 2045              		.loc 3 249 13 view .LVU515
 2046 01fa 9845     		cmp	r8, r3
 2047 01fc 01DD     		ble	.L103
 251:../../libDaisy//src/hid/disp/display.h ****                 y1 += signY;
 2048              		.loc 3 251 23 view .LVU516
 2049 01fe C644     		add	lr, lr, r8
 2050              	.LVL146:
 252:../../libDaisy//src/hid/disp/display.h ****             }
 2051              		.loc 3 252 20 view .LVU517
 2052 0200 013E     		subs	r6, r6, #1
 2053              	.LVL147:
 2054              	.L103:
 239:../../libDaisy//src/hid/disp/display.h ****         {
 2055              		.loc 3 239 26 is_stmt 1 view .LVU518
 2056 0202 6545     		cmp	r5, ip
 2057 0204 E1D1     		bne	.L99
 239:../../libDaisy//src/hid/disp/display.h ****         {
 2058              		.loc 3 239 26 is_stmt 0 view .LVU519
 2059 0206 332E     		cmp	r6, #51
 2060 0208 DFD1     		bne	.L99
 2061              	.LVL148:
 2062              	.L98:
 239:../../libDaisy//src/hid/disp/display.h ****         {
 2063              		.loc 3 239 26 view .LVU520
 2064              	.LBE662:
ARM GAS  /var/folders/1y/_321xjh9623c014x9_qw12rr0000gn/T//ccXuncwa.s 			page 70


 2065              	.LBE661:
 2066              	.LBB669:
 2067              	.LBI669:
 221:../../libDaisy//src/hid/disp/display.h ****                   uint_fast8_t y1,
 2068              		.loc 3 221 10 is_stmt 1 view .LVU521
 2069              	.LBB670:
 228:../../libDaisy//src/hid/disp/display.h ****         int_fast16_t signX  = ((x1 < x2) ? 1 : -1);
 2070              		.loc 3 228 52 is_stmt 0 view .LVU522
 2071 020a 17EE903A 		vmov	r3, s15	@ int
 2072 020e A3F1320C 		sub	ip, r3, #50
 228:../../libDaisy//src/hid/disp/display.h ****         int_fast16_t signX  = ((x1 < x2) ? 1 : -1);
 2073              		.loc 3 228 22 view .LVU523
 2074 0212 BCF1000F 		cmp	ip, #0
 2075 0216 B8BF     		it	lt
 2076 0218 CCF1000C 		rsblt	ip, ip, #0
 2077              	.LVL149:
 230:../../libDaisy//src/hid/disp/display.h ****         int_fast16_t error  = deltaX - deltaY;
 2078              		.loc 3 230 42 view .LVU524
 2079 021c 332F     		cmp	r7, #51
 231:../../libDaisy//src/hid/disp/display.h ****         int_fast16_t error2;
 2080              		.loc 3 231 22 view .LVU525
 2081 021e CCF10006 		rsb	r6, ip, #0
 230:../../libDaisy//src/hid/disp/display.h ****         int_fast16_t error  = deltaX - deltaY;
 2082              		.loc 3 230 42 view .LVU526
 2083 0222 00F3B180 		bgt	.L104
 2084              	.LVL150:
 2085              	.LBB671:
 2086              	.LBI671:
  42:../../libDaisy//src/hid/disp/oled_display.h ****     {
 2087              		.loc 1 42 10 is_stmt 1 view .LVU527
 2088              	.LBB672:
 2089              	.LBI672:
 352:../../libDaisy//src/dev/oled_ssd130x.h ****     {
 2090              		.loc 4 352 10 view .LVU528
 2091              	.LBB673:
 354:../../libDaisy//src/dev/oled_ssd130x.h ****             return;
 2092              		.loc 4 354 9 is_stmt 0 view .LVU529
 2093 0226 7F2D     		cmp	r5, #127
 2094              	.LBE673:
 2095              	.LBE672:
 2096              	.LBE671:
 230:../../libDaisy//src/hid/disp/display.h ****         int_fast16_t error  = deltaX - deltaY;
 2097              		.loc 3 230 42 view .LVU530
 2098 0228 4FF0FF3A 		mov	r10, #-1
 2099              	.LBB680:
 2100              	.LBB677:
 2101              	.LBB674:
 354:../../libDaisy//src/dev/oled_ssd130x.h ****             return;
 2102              		.loc 4 354 9 view .LVU531
 2103 022c 03D8     		bhi	.L105
 2104 022e 049B     		ldr	r3, [sp, #16]
 2105 0230 002B     		cmp	r3, #0
 2106 0232 00F0AF80 		beq	.L120
 2107              	.LVL151:
 2108              	.L105:
 354:../../libDaisy//src/dev/oled_ssd130x.h ****             return;
 2109              		.loc 4 354 9 view .LVU532
ARM GAS  /var/folders/1y/_321xjh9623c014x9_qw12rr0000gn/T//ccXuncwa.s 			page 71


 2110              	.LBE674:
 2111              	.LBE677:
 2112              	.LBE680:
 239:../../libDaisy//src/hid/disp/display.h ****         {
 2113              		.loc 3 239 26 is_stmt 1 view .LVU533
 2114 0236 332F     		cmp	r7, #51
 2115 0238 26D0     		beq	.L106
 2116 023a B146     		mov	r9, r6
 2117              	.L107:
 2118              	.LVL152:
 230:../../libDaisy//src/hid/disp/display.h ****         int_fast16_t error  = deltaX - deltaY;
 2119              		.loc 3 230 42 is_stmt 0 view .LVU534
 2120 023c 2946     		mov	r1, r5
 2121 023e 3322     		movs	r2, #51
 2122              	.L109:
 2123              	.LVL153:
 2124              	.LBB681:
 2125              	.LBI681:
  42:../../libDaisy//src/hid/disp/oled_display.h ****     {
 2126              		.loc 1 42 10 is_stmt 1 view .LVU535
 2127              	.LBB682:
 2128              	.LBI682:
 352:../../libDaisy//src/dev/oled_ssd130x.h ****     {
 2129              		.loc 4 352 10 view .LVU536
 2130              	.LBB683:
 357:../../libDaisy//src/dev/oled_ssd130x.h ****         else
 2131              		.loc 4 357 48 is_stmt 0 view .LVU537
 2132 0240 4FF0010B 		mov	fp, #1
 357:../../libDaisy//src/dev/oled_ssd130x.h ****         else
 2133              		.loc 4 357 28 view .LVU538
 2134 0244 D308     		lsrs	r3, r2, #3
 357:../../libDaisy//src/dev/oled_ssd130x.h ****         else
 2135              		.loc 4 357 54 view .LVU539
 2136 0246 02F0070E 		and	lr, r2, #7
 354:../../libDaisy//src/dev/oled_ssd130x.h ****             return;
 2137              		.loc 4 354 9 view .LVU540
 2138 024a 7F29     		cmp	r1, #127
 357:../../libDaisy//src/dev/oled_ssd130x.h ****         else
 2139              		.loc 4 357 42 view .LVU541
 2140 024c 01EBC313 		add	r3, r1, r3, lsl #7
 2141              	.LBE683:
 2142              	.LBE682:
 2143              	.LBE681:
 242:../../libDaisy//src/hid/disp/display.h ****             if(error2 > -deltaY)
 2144              		.loc 3 242 20 view .LVU542
 2145 0250 06FA0BF8 		lsl	r8, r6, fp
 2146              	.LVL154:
 2147              	.LBB686:
 2148              	.LBB685:
 2149              	.LBB684:
 357:../../libDaisy//src/dev/oled_ssd130x.h ****         else
 2150              		.loc 4 357 48 view .LVU543
 2151 0254 0BFA0EFE 		lsl	lr, fp, lr
 354:../../libDaisy//src/dev/oled_ssd130x.h ****             return;
 2152              		.loc 4 354 9 view .LVU544
 2153 0258 08D8     		bhi	.L110
 2154 025a 3F2A     		cmp	r2, #63
ARM GAS  /var/folders/1y/_321xjh9623c014x9_qw12rr0000gn/T//ccXuncwa.s 			page 72


 357:../../libDaisy//src/dev/oled_ssd130x.h ****         else
 2155              		.loc 4 357 42 view .LVU545
 2156 025c 0344     		add	r3, r3, r0
 354:../../libDaisy//src/dev/oled_ssd130x.h ****             return;
 2157              		.loc 4 354 9 view .LVU546
 2158 025e 05D8     		bhi	.L110
 357:../../libDaisy//src/dev/oled_ssd130x.h ****         else
 2159              		.loc 4 357 42 view .LVU547
 2160 0260 93F824B4 		ldrb	fp, [r3, #1060]	@ zero_extendqisi2
 2161 0264 4EEA0B0E 		orr	lr, lr, fp
 2162 0268 83F824E4 		strb	lr, [r3, #1060]
 2163              	.L110:
 357:../../libDaisy//src/dev/oled_ssd130x.h ****         else
 2164              		.loc 4 357 42 view .LVU548
 2165              	.LBE684:
 2166              	.LBE685:
 2167              	.LBE686:
 243:../../libDaisy//src/hid/disp/display.h ****             {
 2168              		.loc 3 243 13 view .LVU549
 2169 026c B9EB460F 		cmp	r9, r6, lsl #1
 2170 0270 02DA     		bge	.L111
 246:../../libDaisy//src/hid/disp/display.h ****             }
 2171              		.loc 3 246 20 view .LVU550
 2172 0272 0139     		subs	r1, r1, #1
 2173              	.LVL155:
 245:../../libDaisy//src/hid/disp/display.h ****                 x1 += signX;
 2174              		.loc 3 245 23 view .LVU551
 2175 0274 A6EB0C06 		sub	r6, r6, ip
 2176              	.LVL156:
 2177              	.L111:
 249:../../libDaisy//src/hid/disp/display.h ****             {
 2178              		.loc 3 249 13 view .LVU552
 2179 0278 B8F1000F 		cmp	r8, #0
 2180 027c 00D0     		beq	.L112
 252:../../libDaisy//src/hid/disp/display.h ****             }
 2181              		.loc 3 252 20 view .LVU553
 2182 027e 5244     		add	r2, r2, r10
 2183              	.LVL157:
 2184              	.L112:
 239:../../libDaisy//src/hid/disp/display.h ****         {
 2185              		.loc 3 239 26 is_stmt 1 view .LVU554
 2186 0280 8D42     		cmp	r5, r1
 2187 0282 DDD1     		bne	.L109
 239:../../libDaisy//src/hid/disp/display.h ****         {
 2188              		.loc 3 239 26 is_stmt 0 view .LVU555
 2189 0284 9742     		cmp	r7, r2
 2190 0286 DBD1     		bne	.L109
 2191              	.LVL158:
 2192              	.L106:
 239:../../libDaisy//src/hid/disp/display.h ****         {
 2193              		.loc 3 239 26 view .LVU556
 2194              	.LBE670:
 2195              	.LBE669:
 2196              	.LBE700:
 256:Dubby.cpp     ****     
 2197              		.loc 2 256 5 is_stmt 1 view .LVU557
 256:Dubby.cpp     ****     
ARM GAS  /var/folders/1y/_321xjh9623c014x9_qw12rr0000gn/T//ccXuncwa.s 			page 73


 2198              		.loc 2 256 66 is_stmt 0 view .LVU558
 2199 0288 029B     		ldr	r3, [sp, #8]
 256:Dubby.cpp     ****     
 2200              		.loc 2 256 49 view .LVU559
 2201 028a F1EE046A 		vmov.f32	s13, #5.0e+0
 2202 028e FFEE007A 		vmov.f32	s15, #-1.0e+0
 256:Dubby.cpp     ****     
 2203              		.loc 2 256 84 view .LVU560
 2204 0292 9FED3C7A 		vldr.32	s14, .L177
 256:Dubby.cpp     ****     
 2205              		.loc 2 256 66 view .LVU561
 2206 0296 03F58073 		add	r3, r3, #256
 256:Dubby.cpp     ****     
 2207              		.loc 2 256 32 view .LVU562
 2208 029a 059D     		ldr	r5, [sp, #20]
 256:Dubby.cpp     ****     
 2209              		.loc 2 256 113 view .LVU563
 2210 029c 069A     		ldr	r2, [sp, #24]
 256:Dubby.cpp     ****     
 2211              		.loc 2 256 66 view .LVU564
 2212 029e 00EB8303 		add	r3, r0, r3, lsl #2
 256:Dubby.cpp     ****     
 2213              		.loc 2 256 49 view .LVU565
 2214 02a2 93ED006A 		vldr.32	s12, [r3]
 256:Dubby.cpp     ****     
 2215              		.loc 2 256 34 view .LVU566
 2216 02a6 D0F82438 		ldr	r3, [r0, #2084]
 256:Dubby.cpp     ****     
 2217              		.loc 2 256 49 view .LVU567
 2218 02aa E6EE267A 		vfma.f32	s15, s12, s13
 2219              	.LVL159:
 2220              	.LBB701:
 2221              	.LBI701:
  75:/Library/DaisyToolchain/0.2.0/arm/arm-none-eabi/include/c++/10.3.1/bits/std_abs.h ****   { return __builtin_fabsf(__x); }
 2222              		.loc 7 75 3 is_stmt 1 view .LVU568
 2223              	.LBB702:
 2224              		.loc 7 76 5 view .LVU569
 2225              		.loc 7 76 5 is_stmt 0 view .LVU570
 2226              	.LBE702:
 2227              	.LBE701:
 256:Dubby.cpp     ****     
 2228              		.loc 2 256 32 view .LVU571
 2229 02ae 1D44     		add	r5, r5, r3
 256:Dubby.cpp     ****     
 2230              		.loc 2 256 113 view .LVU572
 2231 02b0 A2EB030C 		sub	ip, r2, r3
 2232              	.LVL160:
 2233              	.LBB704:
 2234              	.LBB705:
 2235              	.LBB706:
 266:../../libDaisy//src/hid/disp/display.h ****             {
 2236              		.loc 3 266 40 view .LVU573
 2237 02b4 6545     		cmp	r5, ip
 2238              	.LBE706:
 2239              	.LBE705:
 2240              	.LBE704:
 2241              	.LBB715:
ARM GAS  /var/folders/1y/_321xjh9623c014x9_qw12rr0000gn/T//ccXuncwa.s 			page 74


 2242              	.LBB703:
 2243              		.loc 7 76 31 view .LVU574
 2244 02b6 F0EEE77A 		vabs.f32	s15, s15
 2245              	.LBE703:
 2246              	.LBE715:
 256:Dubby.cpp     ****     
 2247              		.loc 2 256 84 view .LVU575
 2248 02ba 67EE877A 		vmul.f32	s15, s15, s14
 256:Dubby.cpp     ****     
 2249              		.loc 2 256 42 view .LVU576
 2250 02be FDEEE77A 		vcvt.s32.f32	s15, s15
 2251 02c2 17EE906A 		vmov	r6, s15	@ int
 256:Dubby.cpp     ****     
 2252              		.loc 2 256 93 view .LVU577
 2253 02c6 06F10106 		add	r6, r6, #1
 2254              	.LVL161:
 2255              	.LBB716:
 2256              	.LBI704:
 257:../../libDaisy//src/hid/disp/display.h ****                   uint_fast8_t y1,
 2257              		.loc 3 257 10 is_stmt 1 view .LVU578
 2258              	.LBB714:
 2259              	.LBI705:
 257:../../libDaisy//src/hid/disp/display.h ****                   uint_fast8_t y1,
 2260              		.loc 3 257 10 view .LVU579
 2261              	.LBB713:
 266:../../libDaisy//src/hid/disp/display.h ****             {
 2262              		.loc 3 266 40 view .LVU580
 2263 02ca 18D8     		bhi	.L116
 2264              	.LVL162:
 2265              	.L113:
 2266              	.LBB707:
 2267              		.loc 3 268 44 view .LVU581
 2268 02cc 332E     		cmp	r6, #51
 2269 02ce 13DC     		bgt	.L118
 2270              		.loc 3 268 44 is_stmt 0 view .LVU582
 2271 02d0 3246     		mov	r2, r6
 2272              	.LVL163:
 2273              	.L115:
 2274              	.LBB708:
 2275              	.LBI708:
  42:../../libDaisy//src/hid/disp/oled_display.h ****     {
 2276              		.loc 1 42 10 is_stmt 1 view .LVU583
 2277              	.LBB709:
 2278              	.LBI709:
 352:../../libDaisy//src/dev/oled_ssd130x.h ****     {
 2279              		.loc 4 352 10 view .LVU584
 352:../../libDaisy//src/dev/oled_ssd130x.h ****     {
 2280              		.loc 4 352 10 is_stmt 0 view .LVU585
 2281              	.LBE709:
 2282              	.LBE708:
 2283              		.loc 3 268 17 is_stmt 1 view .LVU586
 2284              		.loc 3 268 44 view .LVU587
 2285              	.LBB712:
 2286              	.LBB711:
 2287              	.LBB710:
 357:../../libDaisy//src/dev/oled_ssd130x.h ****         else
 2288              		.loc 4 357 28 is_stmt 0 view .LVU588
ARM GAS  /var/folders/1y/_321xjh9623c014x9_qw12rr0000gn/T//ccXuncwa.s 			page 75


 2289 02d2 D308     		lsrs	r3, r2, #3
 357:../../libDaisy//src/dev/oled_ssd130x.h ****         else
 2290              		.loc 4 357 54 view .LVU589
 2291 02d4 02F00707 		and	r7, r2, #7
 357:../../libDaisy//src/dev/oled_ssd130x.h ****         else
 2292              		.loc 4 357 48 view .LVU590
 2293 02d8 0121     		movs	r1, #1
 354:../../libDaisy//src/dev/oled_ssd130x.h ****             return;
 2294              		.loc 4 354 9 view .LVU591
 2295 02da 7F2D     		cmp	r5, #127
 357:../../libDaisy//src/dev/oled_ssd130x.h ****         else
 2296              		.loc 4 357 42 view .LVU592
 2297 02dc 05EBC313 		add	r3, r5, r3, lsl #7
 2298 02e0 0A44     		add	r2, r2, r1
 2299              	.LVL164:
 357:../../libDaisy//src/dev/oled_ssd130x.h ****         else
 2300              		.loc 4 357 48 view .LVU593
 2301 02e2 01FA07F1 		lsl	r1, r1, r7
 357:../../libDaisy//src/dev/oled_ssd130x.h ****         else
 2302              		.loc 4 357 42 view .LVU594
 2303 02e6 0344     		add	r3, r3, r0
 354:../../libDaisy//src/dev/oled_ssd130x.h ****             return;
 2304              		.loc 4 354 9 view .LVU595
 2305 02e8 04D8     		bhi	.L117
 357:../../libDaisy//src/dev/oled_ssd130x.h ****         else
 2306              		.loc 4 357 42 view .LVU596
 2307 02ea 93F82474 		ldrb	r7, [r3, #1060]	@ zero_extendqisi2
 2308 02ee 3943     		orrs	r1, r1, r7
 2309 02f0 83F82414 		strb	r1, [r3, #1060]
 2310              	.L117:
 2311              	.LBE710:
 2312              	.LBE711:
 2313              	.LBE712:
 2314              		.loc 3 268 44 view .LVU597
 2315 02f4 342A     		cmp	r2, #52
 2316 02f6 ECD1     		bne	.L115
 2317              	.LVL165:
 2318              	.L118:
 2319              		.loc 3 268 44 view .LVU598
 2320              	.LBE707:
 266:../../libDaisy//src/hid/disp/display.h ****             {
 2321              		.loc 3 266 13 is_stmt 1 view .LVU599
 2322 02f8 0135     		adds	r5, r5, #1
 2323              	.LVL166:
 266:../../libDaisy//src/hid/disp/display.h ****             {
 2324              		.loc 3 266 40 view .LVU600
 2325 02fa AC45     		cmp	ip, r5
 2326 02fc E6D2     		bcs	.L113
 2327              	.L116:
 266:../../libDaisy//src/hid/disp/display.h ****             {
 2328              		.loc 3 266 40 is_stmt 0 view .LVU601
 2329              	.LBE713:
 2330              	.LBE714:
 2331              	.LBE716:
 2332              	.LBB717:
 2333              	.LBB718:
 2334              	.LBB719:
ARM GAS  /var/folders/1y/_321xjh9623c014x9_qw12rr0000gn/T//ccXuncwa.s 			page 76


 2335              	.LBB720:
 2336              	.LBB721:
 124:../../libDaisy//src/dev/oled_ssd130x.h ****         spi_.BlockingTransmit(&cmd, 1);
 2337              		.loc 4 124 24 view .LVU602
 2338 02fe 00F58467 		add	r7, r0, #1056
 2339 0302 04F10C06 		add	r6, r4, #12
 2340              	.LVL167:
 124:../../libDaisy//src/dev/oled_ssd130x.h ****         spi_.BlockingTransmit(&cmd, 1);
 2341              		.loc 4 124 24 view .LVU603
 2342 0306 04F20C49 		addw	r9, r4, #1036
 2343 030a B025     		movs	r5, #176
 2344              	.LVL168:
 2345              	.L114:
 124:../../libDaisy//src/dev/oled_ssd130x.h ****         spi_.BlockingTransmit(&cmd, 1);
 2346              		.loc 4 124 24 view .LVU604
 2347 030c 4FF00008 		mov	r8, #0
 124:../../libDaisy//src/dev/oled_ssd130x.h ****         spi_.BlockingTransmit(&cmd, 1);
 2348              		.loc 4 124 23 view .LVU605
 2349 0310 3846     		mov	r0, r7
 2350 0312 8DF82750 		strb	r5, [sp, #39]
 2351              	.LVL169:
 124:../../libDaisy//src/dev/oled_ssd130x.h ****         spi_.BlockingTransmit(&cmd, 1);
 2352              		.loc 4 124 23 view .LVU606
 2353              	.LBE721:
 2354              	.LBI720:
 122:../../libDaisy//src/dev/oled_ssd130x.h ****     {
 2355              		.loc 4 122 10 is_stmt 1 view .LVU607
 2356              	.LBB722:
 124:../../libDaisy//src/dev/oled_ssd130x.h ****         spi_.BlockingTransmit(&cmd, 1);
 2357              		.loc 4 124 9 view .LVU608
 2358              	.LBE722:
 2359              	.LBE720:
 2360              		.loc 4 383 22 is_stmt 0 view .LVU609
 2361 0316 0135     		adds	r5, r5, #1
 2362              	.LVL170:
 2363              	.LBB725:
 2364              	.LBB723:
 124:../../libDaisy//src/dev/oled_ssd130x.h ****         spi_.BlockingTransmit(&cmd, 1);
 2365              		.loc 4 124 23 view .LVU610
 2366 0318 4146     		mov	r1, r8
 2367 031a FFF7FEFF 		bl	dsy_gpio_write
 2368              	.LVL171:
 125:../../libDaisy//src/dev/oled_ssd130x.h ****     };
 2369              		.loc 4 125 9 is_stmt 1 view .LVU611
 125:../../libDaisy//src/dev/oled_ssd130x.h ****     };
 2370              		.loc 4 125 30 is_stmt 0 view .LVU612
 2371 031e 6423     		movs	r3, #100
 2372 0320 0122     		movs	r2, #1
 2373 0322 0DF12701 		add	r1, sp, #39
 2374 0326 2046     		mov	r0, r4
 2375              	.LBE723:
 2376              	.LBE725:
 2377              		.loc 4 383 22 view .LVU613
 2378 0328 EDB2     		uxtb	r5, r5
 2379              	.LBB726:
 2380              	.LBB724:
 125:../../libDaisy//src/dev/oled_ssd130x.h ****     };
ARM GAS  /var/folders/1y/_321xjh9623c014x9_qw12rr0000gn/T//ccXuncwa.s 			page 77


 2381              		.loc 4 125 30 view .LVU614
 2382 032a FFF7FEFF 		bl	_ZN5daisy9SpiHandle16BlockingTransmitEPhjm
 2383              	.LVL172:
 125:../../libDaisy//src/dev/oled_ssd130x.h ****     };
 2384              		.loc 4 125 30 view .LVU615
 2385              	.LBE724:
 2386              	.LBE726:
 2387              	.LBB727:
 2388              	.LBB728:
 124:../../libDaisy//src/dev/oled_ssd130x.h ****         spi_.BlockingTransmit(&cmd, 1);
 2389              		.loc 4 124 23 view .LVU616
 2390 032e 4146     		mov	r1, r8
 2391 0330 3846     		mov	r0, r7
 2392 0332 8DF82780 		strb	r8, [sp, #39]
 2393              	.LVL173:
 124:../../libDaisy//src/dev/oled_ssd130x.h ****         spi_.BlockingTransmit(&cmd, 1);
 2394              		.loc 4 124 23 view .LVU617
 2395              	.LBE728:
 2396              	.LBI727:
 122:../../libDaisy//src/dev/oled_ssd130x.h ****     {
 2397              		.loc 4 122 10 is_stmt 1 view .LVU618
 2398              	.LBB729:
 124:../../libDaisy//src/dev/oled_ssd130x.h ****         spi_.BlockingTransmit(&cmd, 1);
 2399              		.loc 4 124 9 view .LVU619
 124:../../libDaisy//src/dev/oled_ssd130x.h ****         spi_.BlockingTransmit(&cmd, 1);
 2400              		.loc 4 124 23 is_stmt 0 view .LVU620
 2401 0336 FFF7FEFF 		bl	dsy_gpio_write
 2402              	.LVL174:
 125:../../libDaisy//src/dev/oled_ssd130x.h ****     };
 2403              		.loc 4 125 9 is_stmt 1 view .LVU621
 125:../../libDaisy//src/dev/oled_ssd130x.h ****     };
 2404              		.loc 4 125 30 is_stmt 0 view .LVU622
 2405 033a 0122     		movs	r2, #1
 2406 033c 6423     		movs	r3, #100
 2407 033e 0DF12701 		add	r1, sp, #39
 2408 0342 2046     		mov	r0, r4
 2409 0344 FFF7FEFF 		bl	_ZN5daisy9SpiHandle16BlockingTransmitEPhjm
 2410              	.LVL175:
 125:../../libDaisy//src/dev/oled_ssd130x.h ****     };
 2411              		.loc 4 125 30 view .LVU623
 2412 0348 1023     		movs	r3, #16
 2413              	.LBE729:
 2414              	.LBE727:
 2415              	.LBB730:
 2416              	.LBB731:
 124:../../libDaisy//src/dev/oled_ssd130x.h ****         spi_.BlockingTransmit(&cmd, 1);
 2417              		.loc 4 124 23 view .LVU624
 2418 034a 4146     		mov	r1, r8
 2419 034c 3846     		mov	r0, r7
 2420 034e 8DF82730 		strb	r3, [sp, #39]
 2421              	.LVL176:
 124:../../libDaisy//src/dev/oled_ssd130x.h ****         spi_.BlockingTransmit(&cmd, 1);
 2422              		.loc 4 124 23 view .LVU625
 2423              	.LBE731:
 2424              	.LBI730:
 122:../../libDaisy//src/dev/oled_ssd130x.h ****     {
 2425              		.loc 4 122 10 is_stmt 1 view .LVU626
ARM GAS  /var/folders/1y/_321xjh9623c014x9_qw12rr0000gn/T//ccXuncwa.s 			page 78


 2426              	.LBB732:
 124:../../libDaisy//src/dev/oled_ssd130x.h ****         spi_.BlockingTransmit(&cmd, 1);
 2427              		.loc 4 124 9 view .LVU627
 124:../../libDaisy//src/dev/oled_ssd130x.h ****         spi_.BlockingTransmit(&cmd, 1);
 2428              		.loc 4 124 23 is_stmt 0 view .LVU628
 2429 0352 FFF7FEFF 		bl	dsy_gpio_write
 2430              	.LVL177:
 125:../../libDaisy//src/dev/oled_ssd130x.h ****     };
 2431              		.loc 4 125 9 is_stmt 1 view .LVU629
 125:../../libDaisy//src/dev/oled_ssd130x.h ****     };
 2432              		.loc 4 125 30 is_stmt 0 view .LVU630
 2433 0356 6423     		movs	r3, #100
 2434 0358 0122     		movs	r2, #1
 2435 035a 0DF12701 		add	r1, sp, #39
 2436 035e 2046     		mov	r0, r4
 2437 0360 FFF7FEFF 		bl	_ZN5daisy9SpiHandle16BlockingTransmitEPhjm
 2438              	.LVL178:
 125:../../libDaisy//src/dev/oled_ssd130x.h ****     };
 2439              		.loc 4 125 30 view .LVU631
 2440              	.LBE732:
 2441              	.LBE730:
 2442              	.LBB733:
 2443              	.LBI733:
 128:../../libDaisy//src/dev/oled_ssd130x.h ****     {
 2444              		.loc 4 128 10 is_stmt 1 view .LVU632
 2445              	.LBB734:
 130:../../libDaisy//src/dev/oled_ssd130x.h ****         spi_.BlockingTransmit(buff, size);
 2446              		.loc 4 130 9 view .LVU633
 130:../../libDaisy//src/dev/oled_ssd130x.h ****         spi_.BlockingTransmit(buff, size);
 2447              		.loc 4 130 23 is_stmt 0 view .LVU634
 2448 0364 0121     		movs	r1, #1
 2449 0366 3846     		mov	r0, r7
 2450 0368 FFF7FEFF 		bl	dsy_gpio_write
 2451              	.LVL179:
 131:../../libDaisy//src/dev/oled_ssd130x.h ****     };
 2452              		.loc 4 131 9 is_stmt 1 view .LVU635
 131:../../libDaisy//src/dev/oled_ssd130x.h ****     };
 2453              		.loc 4 131 30 is_stmt 0 view .LVU636
 2454 036c 8022     		movs	r2, #128
 2455 036e 3146     		mov	r1, r6
 2456 0370 6423     		movs	r3, #100
 2457              	.LBE734:
 2458              	.LBE733:
 2459              		.loc 4 383 22 view .LVU637
 2460 0372 1644     		add	r6, r6, r2
 2461              	.LVL180:
 2462              	.LBB736:
 2463              	.LBB735:
 131:../../libDaisy//src/dev/oled_ssd130x.h ****     };
 2464              		.loc 4 131 30 view .LVU638
 2465 0374 2046     		mov	r0, r4
 2466 0376 FFF7FEFF 		bl	_ZN5daisy9SpiHandle16BlockingTransmitEPhjm
 2467              	.LVL181:
 131:../../libDaisy//src/dev/oled_ssd130x.h ****     };
 2468              		.loc 4 131 30 view .LVU639
 2469              	.LBE735:
 2470              	.LBE736:
ARM GAS  /var/folders/1y/_321xjh9623c014x9_qw12rr0000gn/T//ccXuncwa.s 			page 79


 2471              		.loc 4 383 9 is_stmt 1 view .LVU640
 2472              		.loc 4 383 22 view .LVU641
 2473 037a B145     		cmp	r9, r6
 2474 037c C6D1     		bne	.L114
 2475              	.LBE719:
 2476              	.LBE718:
 2477              	.LBE717:
 259:Dubby.cpp     **** 
 2478              		.loc 2 259 1 is_stmt 0 view .LVU642
 2479 037e 0BB0     		add	sp, sp, #44
 2480              		.cfi_remember_state
 2481              		.cfi_def_cfa_offset 36
 2482              		@ sp needed
 2483 0380 BDE8F08F 		pop	{r4, r5, r6, r7, r8, r9, r10, fp, pc}
 2484              	.LVL182:
 2485              	.L178:
 259:Dubby.cpp     **** 
 2486              		.loc 2 259 1 view .LVU643
 2487              		.align	2
 2488              	.L177:
 2489 0384 00004C42 		.word	1112276992
 2490              	.LVL183:
 2491              	.L104:
 2492              		.cfi_restore_state
 2493              	.LBB737:
 2494              	.LBB691:
 2495              	.LBB689:
 2496              	.LBB687:
  42:../../libDaisy//src/hid/disp/oled_display.h ****     {
 2497              		.loc 1 42 10 is_stmt 1 view .LVU644
 2498              	.LBB678:
 352:../../libDaisy//src/dev/oled_ssd130x.h ****     {
 2499              		.loc 4 352 10 view .LVU645
 2500              	.LBB675:
 354:../../libDaisy//src/dev/oled_ssd130x.h ****             return;
 2501              		.loc 4 354 9 is_stmt 0 view .LVU646
 2502 0388 7F2D     		cmp	r5, #127
 2503 038a 38D8     		bhi	.L130
 2504 038c 049B     		ldr	r3, [sp, #16]
 2505 038e B3BB     		cbnz	r3, .L130
 2506              	.LBE675:
 2507              	.LBE678:
 2508              	.LBE687:
 230:../../libDaisy//src/hid/disp/display.h ****         int_fast16_t error  = deltaX - deltaY;
 2509              		.loc 3 230 42 view .LVU647
 2510 0390 4FF0010A 		mov	r10, #1
 2511              	.LVL184:
 2512              	.L120:
 2513              	.LBB688:
 2514              	.LBB679:
 2515              	.LBB676:
 357:../../libDaisy//src/dev/oled_ssd130x.h ****         else
 2516              		.loc 4 357 28 view .LVU648
 2517 0394 FB08     		lsrs	r3, r7, #3
 357:../../libDaisy//src/dev/oled_ssd130x.h ****         else
 2518              		.loc 4 357 54 view .LVU649
 2519 0396 07F00701 		and	r1, r7, #7
ARM GAS  /var/folders/1y/_321xjh9623c014x9_qw12rr0000gn/T//ccXuncwa.s 			page 80


 357:../../libDaisy//src/dev/oled_ssd130x.h ****         else
 2520              		.loc 4 357 48 view .LVU650
 2521 039a 0122     		movs	r2, #1
 2522              	.LVL185:
 357:../../libDaisy//src/dev/oled_ssd130x.h ****         else
 2523              		.loc 4 357 42 view .LVU651
 2524 039c 05EBC313 		add	r3, r5, r3, lsl #7
 357:../../libDaisy//src/dev/oled_ssd130x.h ****         else
 2525              		.loc 4 357 48 view .LVU652
 2526 03a0 8A40     		lsls	r2, r2, r1
 357:../../libDaisy//src/dev/oled_ssd130x.h ****         else
 2527              		.loc 4 357 42 view .LVU653
 2528 03a2 0344     		add	r3, r3, r0
 2529 03a4 93F82414 		ldrb	r1, [r3, #1060]	@ zero_extendqisi2
 2530 03a8 0A43     		orrs	r2, r2, r1
 2531 03aa 83F82424 		strb	r2, [r3, #1060]
 2532 03ae 42E7     		b	.L105
 2533              	.LVL186:
 2534              	.L176:
 357:../../libDaisy//src/dev/oled_ssd130x.h ****         else
 2535              		.loc 4 357 42 view .LVU654
 2536              	.LBE676:
 2537              	.LBE679:
 2538              	.LBE688:
 2539              	.LBE689:
 2540              	.LBE691:
 2541              	.LBB692:
 2542              	.LBB643:
 2543              	.LBB637:
  42:../../libDaisy//src/hid/disp/oled_display.h ****     {
 2544              		.loc 1 42 10 is_stmt 1 view .LVU655
 2545              	.LBB631:
 2546              	.LBB627:
 2547              	.LBB623:
 354:../../libDaisy//src/dev/oled_ssd130x.h ****             return;
 2548              		.loc 4 354 14 is_stmt 0 view .LVU656
 2549 03b0 7F2A     		cmp	r2, #127
 2550              	.LBE623:
 2551              	.LBE627:
 2552              		.loc 1 44 26 view .LVU657
 2553 03b2 00F58364 		add	r4, r0, #1048
 2554              	.LVL187:
 2555              	.LBB628:
 352:../../libDaisy//src/dev/oled_ssd130x.h ****     {
 2556              		.loc 4 352 10 is_stmt 1 view .LVU658
 2557              	.LBE628:
 2558              	.LBE631:
 2559              	.LBE637:
 229:../../libDaisy//src/hid/disp/display.h ****         int_fast16_t signY  = ((y1 < y2) ? 1 : -1);
 2560              		.loc 3 229 42 is_stmt 0 view .LVU659
 2561 03b6 4FF0FF3B 		mov	fp, #-1
 2562              	.LBB638:
 2563              	.LBB632:
 2564              	.LBB629:
 2565              	.LBB624:
 354:../../libDaisy//src/dev/oled_ssd130x.h ****             return;
 2566              		.loc 4 354 14 view .LVU660
ARM GAS  /var/folders/1y/_321xjh9623c014x9_qw12rr0000gn/T//ccXuncwa.s 			page 81


 2567 03ba 94BF     		ite	ls
 2568 03bc 0023     		movls	r3, #0
 2569 03be 0123     		movhi	r3, #1
 354:../../libDaisy//src/dev/oled_ssd130x.h ****             return;
 2570              		.loc 4 354 28 view .LVU661
 2571 03c0 3F2F     		cmp	r7, #63
 354:../../libDaisy//src/dev/oled_ssd130x.h ****             return;
 2572              		.loc 4 354 14 view .LVU662
 2573 03c2 0393     		str	r3, [sp, #12]
 354:../../libDaisy//src/dev/oled_ssd130x.h ****             return;
 2574              		.loc 4 354 28 view .LVU663
 2575 03c4 94BF     		ite	ls
 2576 03c6 0021     		movls	r1, #0
 2577 03c8 0121     		movhi	r1, #1
 2578 03ca 0491     		str	r1, [sp, #16]
 354:../../libDaisy//src/dev/oled_ssd130x.h ****             return;
 2579              		.loc 4 354 9 view .LVU664
 2580 03cc 8BB9     		cbnz	r3, .L80
 2581 03ce 81B9     		cbnz	r1, .L80
 2582              	.LVL188:
 2583              	.L119:
 357:../../libDaisy//src/dev/oled_ssd130x.h ****         else
 2584              		.loc 4 357 28 view .LVU665
 2585 03d0 FB08     		lsrs	r3, r7, #3
 357:../../libDaisy//src/dev/oled_ssd130x.h ****         else
 2586              		.loc 4 357 48 view .LVU666
 2587 03d2 0126     		movs	r6, #1
 357:../../libDaisy//src/dev/oled_ssd130x.h ****         else
 2588              		.loc 4 357 54 view .LVU667
 2589 03d4 07F00701 		and	r1, r7, #7
 357:../../libDaisy//src/dev/oled_ssd130x.h ****         else
 2590              		.loc 4 357 42 view .LVU668
 2591 03d8 02EBC313 		add	r3, r2, r3, lsl #7
 357:../../libDaisy//src/dev/oled_ssd130x.h ****         else
 2592              		.loc 4 357 48 view .LVU669
 2593 03dc 06FA01F1 		lsl	r1, r6, r1
 357:../../libDaisy//src/dev/oled_ssd130x.h ****         else
 2594              		.loc 4 357 42 view .LVU670
 2595 03e0 0344     		add	r3, r3, r0
 2596 03e2 93F82464 		ldrb	r6, [r3, #1060]	@ zero_extendqisi2
 2597 03e6 3143     		orrs	r1, r1, r6
 2598 03e8 83F82414 		strb	r1, [r3, #1060]
 2599 03ec 0023     		movs	r3, #0
 2600 03ee CDE90333 		strd	r3, r3, [sp, #12]
 2601              	.L80:
 2602              	.LVL189:
 357:../../libDaisy//src/dev/oled_ssd130x.h ****         else
 2603              		.loc 4 357 42 view .LVU671
 2604              	.LBE624:
 2605              	.LBE629:
 2606              	.LBE632:
 2607              	.LBE638:
 239:../../libDaisy//src/hid/disp/display.h ****         {
 2608              		.loc 3 239 26 is_stmt 1 view .LVU672
 2609 03f2 9542     		cmp	r5, r2
 2610 03f4 7FF461AE 		bne	.L82
 239:../../libDaisy//src/hid/disp/display.h ****         {
ARM GAS  /var/folders/1y/_321xjh9623c014x9_qw12rr0000gn/T//ccXuncwa.s 			page 82


 2611              		.loc 3 239 19 is_stmt 0 view .LVU673
 2612 03f8 0123     		movs	r3, #1
 2613 03fa 0793     		str	r3, [sp, #28]
 2614 03fc 83E6     		b	.L81
 2615              	.LVL190:
 2616              	.L130:
 239:../../libDaisy//src/hid/disp/display.h ****         {
 2617              		.loc 3 239 19 view .LVU674
 2618              	.LBE643:
 2619              	.LBE692:
 2620              	.LBB693:
 2621              	.LBB690:
 231:../../libDaisy//src/hid/disp/display.h ****         int_fast16_t error2;
 2622              		.loc 3 231 22 view .LVU675
 2623 03fe B146     		mov	r9, r6
 230:../../libDaisy//src/hid/disp/display.h ****         int_fast16_t error  = deltaX - deltaY;
 2624              		.loc 3 230 42 view .LVU676
 2625 0400 4FF0010A 		mov	r10, #1
 2626 0404 1AE7     		b	.L107
 2627              	.LBE690:
 2628              	.LBE693:
 2629              	.LBE737:
 2630              		.cfi_endproc
 2631              	.LFE2586:
 2633 0406 00BF     		.section	.text._ZN5daisy5Dubby15UpdateMixerPaneEv,"ax",%progbits
 2634              		.align	1
 2635              		.p2align 2,,3
 2636              		.global	_ZN5daisy5Dubby15UpdateMixerPaneEv
 2637              		.syntax unified
 2638              		.thumb
 2639              		.thumb_func
 2641              	_ZN5daisy5Dubby15UpdateMixerPaneEv:
 2642              	.LVL191:
 2643              	.LFB2584:
 224:Dubby.cpp     ****     if(seed.system.GetNow() - screen_update_last_ > screen_update_period_)
 2644              		.loc 2 224 1 is_stmt 1 view -0
 2645              		.cfi_startproc
 2646              		@ args = 0, pretend = 0, frame = 0
 2647              		@ frame_needed = 0, uses_anonymous_args = 0
 225:Dubby.cpp     ****     {
 2648              		.loc 2 225 5 view .LVU678
 224:Dubby.cpp     ****     if(seed.system.GetNow() - screen_update_last_ > screen_update_period_)
 2649              		.loc 2 224 1 is_stmt 0 view .LVU679
 2650 0000 38B5     		push	{r3, r4, r5, lr}
 2651              		.cfi_def_cfa_offset 16
 2652              		.cfi_offset 3, -16
 2653              		.cfi_offset 4, -12
 2654              		.cfi_offset 5, -8
 2655              		.cfi_offset 14, -4
 224:Dubby.cpp     ****     if(seed.system.GetNow() - screen_update_last_ > screen_update_period_)
 2656              		.loc 2 224 1 view .LVU680
 2657 0002 0446     		mov	r4, r0
 2658              	.LBB745:
 225:Dubby.cpp     ****     {
 2659              		.loc 2 225 26 view .LVU681
 2660 0004 FFF7FEFF 		bl	_ZN5daisy6System6GetNowEv
 2661              	.LVL192:
ARM GAS  /var/folders/1y/_321xjh9623c014x9_qw12rr0000gn/T//ccXuncwa.s 			page 83


 225:Dubby.cpp     ****     {
 2662              		.loc 2 225 29 view .LVU682
 2663 0008 D4F82C28 		ldr	r2, [r4, #2092]
 225:Dubby.cpp     ****     {
 2664              		.loc 2 225 5 view .LVU683
 2665 000c D4F83038 		ldr	r3, [r4, #2096]
 225:Dubby.cpp     ****     {
 2666              		.loc 2 225 29 view .LVU684
 2667 0010 801A     		subs	r0, r0, r2
 225:Dubby.cpp     ****     {
 2668              		.loc 2 225 5 view .LVU685
 2669 0012 9842     		cmp	r0, r3
 2670 0014 00D8     		bhi	.L184
 2671              	.LBE745:
 230:Dubby.cpp     **** 
 2672              		.loc 2 230 1 view .LVU686
 2673 0016 38BD     		pop	{r3, r4, r5, pc}
 2674              	.LVL193:
 2675              	.L184:
 2676              	.LBB746:
 2677              	.LBI746:
 223:Dubby.cpp     **** {
 2678              		.loc 2 223 6 is_stmt 1 view .LVU687
 2679              	.LBB747:
 227:Dubby.cpp     ****         for (int i = 0; i < 4; i++) UpdateBar(i);
 2680              		.loc 2 227 9 view .LVU688
 2681              	.LBB748:
 228:Dubby.cpp     ****     }
 2682              		.loc 2 228 18 is_stmt 0 view .LVU689
 2683 0018 0025     		movs	r5, #0
 2684              	.LBE748:
 227:Dubby.cpp     ****         for (int i = 0; i < 4; i++) UpdateBar(i);
 2685              		.loc 2 227 49 view .LVU690
 2686 001a FFF7FEFF 		bl	_ZN5daisy6System6GetNowEv
 2687              	.LVL194:
 227:Dubby.cpp     ****         for (int i = 0; i < 4; i++) UpdateBar(i);
 2688              		.loc 2 227 29 view .LVU691
 2689 001e C4F82C08 		str	r0, [r4, #2092]
 228:Dubby.cpp     ****     }
 2690              		.loc 2 228 9 is_stmt 1 view .LVU692
 2691              	.LVL195:
 2692              	.LBB749:
 228:Dubby.cpp     ****     }
 2693              		.loc 2 228 27 view .LVU693
 2694              	.L181:
 228:Dubby.cpp     ****     }
 2695              		.loc 2 228 37 view .LVU694
 228:Dubby.cpp     ****     }
 2696              		.loc 2 228 46 is_stmt 0 view .LVU695
 2697 0022 2946     		mov	r1, r5
 228:Dubby.cpp     ****     }
 2698              		.loc 2 228 9 view .LVU696
 2699 0024 0135     		adds	r5, r5, #1
 2700              	.LVL196:
 228:Dubby.cpp     ****     }
 2701              		.loc 2 228 46 view .LVU697
 2702 0026 2046     		mov	r0, r4
ARM GAS  /var/folders/1y/_321xjh9623c014x9_qw12rr0000gn/T//ccXuncwa.s 			page 84


 2703 0028 FFF7FEFF 		bl	_ZN5daisy5Dubby9UpdateBarEi
 2704              	.LVL197:
 228:Dubby.cpp     ****     }
 2705              		.loc 2 228 9 is_stmt 1 view .LVU698
 228:Dubby.cpp     ****     }
 2706              		.loc 2 228 27 view .LVU699
 2707 002c 042D     		cmp	r5, #4
 2708 002e F8D1     		bne	.L181
 2709              	.LBE749:
 2710              	.LBE747:
 2711              	.LBE746:
 230:Dubby.cpp     **** 
 2712              		.loc 2 230 1 is_stmt 0 view .LVU700
 2713 0030 38BD     		pop	{r3, r4, r5, pc}
 230:Dubby.cpp     **** 
 2714              		.loc 2 230 1 view .LVU701
 2715              		.cfi_endproc
 2716              	.LFE2584:
 2718 0032 00BF     		.section	.text._ZN5daisy5Dubby11RenderScopeEv,"ax",%progbits
 2719              		.align	1
 2720              		.p2align 2,,3
 2721              		.global	_ZN5daisy5Dubby11RenderScopeEv
 2722              		.syntax unified
 2723              		.thumb
 2724              		.thumb_func
 2726              	_ZN5daisy5Dubby11RenderScopeEv:
 2727              	.LVL198:
 2728              	.LFB2587:
 262:Dubby.cpp     ****     if(seed.system.GetNow() - screen_update_last_ > screen_update_period_)
 2729              		.loc 2 262 1 is_stmt 1 view -0
 2730              		.cfi_startproc
 2731              		@ args = 0, pretend = 0, frame = 0
 2732              		@ frame_needed = 0, uses_anonymous_args = 0
 263:Dubby.cpp     ****     {
 2733              		.loc 2 263 5 view .LVU703
 262:Dubby.cpp     ****     if(seed.system.GetNow() - screen_update_last_ > screen_update_period_)
 2734              		.loc 2 262 1 is_stmt 0 view .LVU704
 2735 0000 10B5     		push	{r4, lr}
 2736              		.cfi_def_cfa_offset 8
 2737              		.cfi_offset 4, -8
 2738              		.cfi_offset 14, -4
 262:Dubby.cpp     ****     if(seed.system.GetNow() - screen_update_last_ > screen_update_period_)
 2739              		.loc 2 262 1 view .LVU705
 2740 0002 0446     		mov	r4, r0
 2741              	.LBB751:
 263:Dubby.cpp     ****     {
 2742              		.loc 2 263 26 view .LVU706
 2743 0004 FFF7FEFF 		bl	_ZN5daisy6System6GetNowEv
 2744              	.LVL199:
 263:Dubby.cpp     ****     {
 2745              		.loc 2 263 29 view .LVU707
 2746 0008 D4F82C28 		ldr	r2, [r4, #2092]
 263:Dubby.cpp     ****     {
 2747              		.loc 2 263 5 view .LVU708
 2748 000c D4F83038 		ldr	r3, [r4, #2096]
 263:Dubby.cpp     ****     {
 2749              		.loc 2 263 29 view .LVU709
ARM GAS  /var/folders/1y/_321xjh9623c014x9_qw12rr0000gn/T//ccXuncwa.s 			page 85


 2750 0010 801A     		subs	r0, r0, r2
 263:Dubby.cpp     ****     {
 2751              		.loc 2 263 5 view .LVU710
 2752 0012 9842     		cmp	r0, r3
 2753 0014 00D8     		bhi	.L188
 2754              	.LBE751:
 286:Dubby.cpp     **** 
 2755              		.loc 2 286 1 view .LVU711
 2756 0016 10BD     		pop	{r4, pc}
 2757              	.LVL200:
 2758              	.L188:
 286:Dubby.cpp     **** 
 2759              		.loc 2 286 1 view .LVU712
 2760 0018 2046     		mov	r0, r4
 2761 001a BDE81040 		pop	{r4, lr}
 2762              		.cfi_restore 14
 2763              		.cfi_restore 4
 2764              		.cfi_def_cfa_offset 0
 2765              	.LVL201:
 286:Dubby.cpp     **** 
 2766              		.loc 2 286 1 view .LVU713
 2767 001e FFF7FEBF 		b	_ZN5daisy5Dubby11RenderScopeEv.part.0
 2768              	.LVL202:
 286:Dubby.cpp     **** 
 2769              		.loc 2 286 1 view .LVU714
 2770              		.cfi_endproc
 2771              	.LFE2587:
 2773 0022 00BF     		.section	.text._ZN5daisy5Dubby11InitEncoderEv,"ax",%progbits
 2774              		.align	1
 2775              		.p2align 2,,3
 2776              		.global	_ZN5daisy5Dubby11InitEncoderEv
 2777              		.syntax unified
 2778              		.thumb
 2779              		.thumb_func
 2781              	_ZN5daisy5Dubby11InitEncoderEv:
 2782              	.LVL203:
 2783              	.LFB2591:
 327:Dubby.cpp     ****     encoder.Init(seed.GetPin(PIN_ENC_A),
 2784              		.loc 2 327 1 is_stmt 1 view -0
 2785              		.cfi_startproc
 2786              		@ args = 0, pretend = 0, frame = 16
 2787              		@ frame_needed = 0, uses_anonymous_args = 0
 328:Dubby.cpp     ****                 seed.GetPin(PIN_ENC_B),
 2788              		.loc 2 328 5 view .LVU716
 327:Dubby.cpp     ****     encoder.Init(seed.GetPin(PIN_ENC_A),
 2789              		.loc 2 327 1 is_stmt 0 view .LVU717
 2790 0000 10B5     		push	{r4, lr}
 2791              		.cfi_def_cfa_offset 8
 2792              		.cfi_offset 4, -8
 2793              		.cfi_offset 14, -4
 2794 0002 0446     		mov	r4, r0
 2795 0004 84B0     		sub	sp, sp, #16
 2796              		.cfi_def_cfa_offset 24
 328:Dubby.cpp     ****                 seed.GetPin(PIN_ENC_B),
 2797              		.loc 2 328 17 view .LVU718
 2798 0006 0620     		movs	r0, #6
 2799              	.LVL204:
ARM GAS  /var/folders/1y/_321xjh9623c014x9_qw12rr0000gn/T//ccXuncwa.s 			page 86


 328:Dubby.cpp     ****                 seed.GetPin(PIN_ENC_B),
 2800              		.loc 2 328 17 view .LVU719
 2801 0008 FFF7FEFF 		bl	_ZN5daisy9DaisySeed6GetPinEh
 2802              	.LVL205:
 2803 000c 0346     		mov	r3, r0	@ movhi
 2804 000e 0520     		movs	r0, #5
 2805 0010 ADF80430 		strh	r3, [sp, #4]	@ movhi
 2806 0014 FFF7FEFF 		bl	_ZN5daisy9DaisySeed6GetPinEh
 2807              	.LVL206:
 2808 0018 0346     		mov	r3, r0	@ movhi
 2809 001a 0420     		movs	r0, #4
 2810 001c ADF80830 		strh	r3, [sp, #8]	@ movhi
 2811 0020 FFF7FEFF 		bl	_ZN5daisy9DaisySeed6GetPinEh
 2812              	.LVL207:
 2813 0024 ADF80C00 		strh	r0, [sp, #12]	@ movhi
 2814 0028 04F1F400 		add	r0, r4, #244
 2815 002c 9FED040A 		vldr.32	s0, .L191
 2816 0030 039B     		ldr	r3, [sp, #12]
 2817 0032 DDE90112 		ldrd	r1, r2, [sp, #4]
 331:Dubby.cpp     **** 
 2818              		.loc 2 331 1 view .LVU720
 2819 0036 04B0     		add	sp, sp, #16
 2820              		.cfi_def_cfa_offset 8
 2821              		@ sp needed
 2822 0038 BDE81040 		pop	{r4, lr}
 2823              		.cfi_restore 14
 2824              		.cfi_restore 4
 2825              		.cfi_def_cfa_offset 0
 2826              	.LVL208:
 328:Dubby.cpp     ****                 seed.GetPin(PIN_ENC_B),
 2827              		.loc 2 328 17 view .LVU721
 2828 003c FFF7FEBF 		b	_ZN5daisy7Encoder4InitE12dsy_gpio_pinS1_S1_f
 2829              	.LVL209:
 2830              	.L192:
 328:Dubby.cpp     ****                 seed.GetPin(PIN_ENC_B),
 2831              		.loc 2 328 17 view .LVU722
 2832              		.align	2
 2833              	.L191:
 2834 0040 00000000 		.word	0
 2835              		.cfi_endproc
 2836              	.LFE2591:
 2838              		.section	.text._ZN5daisy5Dubby18ProcessAllControlsEv,"ax",%progbits
 2839              		.align	1
 2840              		.p2align 2,,3
 2841              		.global	_ZN5daisy5Dubby18ProcessAllControlsEv
 2842              		.syntax unified
 2843              		.thumb
 2844              		.thumb_func
 2846              	_ZN5daisy5Dubby18ProcessAllControlsEv:
 2847              	.LVL210:
 2848              	.LFB2592:
 334:Dubby.cpp     ****     ProcessAnalogControls();
 2849              		.loc 2 334 1 is_stmt 1 view -0
 2850              		.cfi_startproc
 2851              		@ args = 0, pretend = 0, frame = 0
 2852              		@ frame_needed = 0, uses_anonymous_args = 0
 335:Dubby.cpp     ****     ProcessDigitalControls();
ARM GAS  /var/folders/1y/_321xjh9623c014x9_qw12rr0000gn/T//ccXuncwa.s 			page 87


 2853              		.loc 2 335 5 view .LVU724
 334:Dubby.cpp     ****     ProcessAnalogControls();
 2854              		.loc 2 334 1 is_stmt 0 view .LVU725
 2855 0000 70B5     		push	{r4, r5, r6, lr}
 2856              		.cfi_def_cfa_offset 16
 2857              		.cfi_offset 4, -16
 2858              		.cfi_offset 5, -12
 2859              		.cfi_offset 6, -8
 2860              		.cfi_offset 14, -4
 334:Dubby.cpp     ****     ProcessAnalogControls();
 2861              		.loc 2 334 1 view .LVU726
 2862 0002 0646     		mov	r6, r0
 2863              	.LVL211:
 2864              	.LBB752:
 2865              	.LBI752:
 339:Dubby.cpp     **** {
 2866              		.loc 2 339 6 is_stmt 1 view .LVU727
 2867              	.LBE752:
 341:Dubby.cpp     ****         analogInputs[i].Process();
 2868              		.loc 2 341 5 view .LVU728
 2869              	.LBB754:
 2870              	.LBB753:
 341:Dubby.cpp     ****         analogInputs[i].Process();
 2871              		.loc 2 341 25 view .LVU729
 2872 0004 00F58E74 		add	r4, r0, #284
 2873 0008 00F5EE75 		add	r5, r0, #476
 2874              	.LVL212:
 2875              	.L194:
 342:Dubby.cpp     **** }
 2876              		.loc 2 342 9 view .LVU730
 342:Dubby.cpp     **** }
 2877              		.loc 2 342 32 is_stmt 0 view .LVU731
 2878 000c 2046     		mov	r0, r4
 341:Dubby.cpp     ****         analogInputs[i].Process();
 2879              		.loc 2 341 25 view .LVU732
 2880 000e 2034     		adds	r4, r4, #32
 342:Dubby.cpp     **** }
 2881              		.loc 2 342 32 view .LVU733
 2882 0010 FFF7FEFF 		bl	_ZN5daisy13AnalogControl7ProcessEv
 2883              	.LVL213:
 341:Dubby.cpp     ****         analogInputs[i].Process();
 2884              		.loc 2 341 5 is_stmt 1 view .LVU734
 341:Dubby.cpp     ****         analogInputs[i].Process();
 2885              		.loc 2 341 25 view .LVU735
 2886 0014 AC42     		cmp	r4, r5
 2887 0016 F9D1     		bne	.L194
 2888              	.LVL214:
 341:Dubby.cpp     ****         analogInputs[i].Process();
 2889              		.loc 2 341 25 is_stmt 0 view .LVU736
 2890              	.LBE753:
 2891              	.LBE754:
 336:Dubby.cpp     **** }
 2892              		.loc 2 336 5 is_stmt 1 view .LVU737
 2893              	.LBB755:
 2894              	.LBI755:
 345:Dubby.cpp     **** {
 2895              		.loc 2 345 6 view .LVU738
ARM GAS  /var/folders/1y/_321xjh9623c014x9_qw12rr0000gn/T//ccXuncwa.s 			page 88


 2896              	.LBB756:
 347:Dubby.cpp     **** }
 2897              		.loc 2 347 5 view .LVU739
 347:Dubby.cpp     **** }
 2898              		.loc 2 347 21 is_stmt 0 view .LVU740
 2899 0018 06F1F400 		add	r0, r6, #244
 2900              	.LBE756:
 2901              	.LBE755:
 337:Dubby.cpp     **** 
 2902              		.loc 2 337 1 view .LVU741
 2903 001c BDE87040 		pop	{r4, r5, r6, lr}
 2904              		.cfi_restore 14
 2905              		.cfi_restore 6
 2906              		.cfi_restore 5
 2907              		.cfi_restore 4
 2908              		.cfi_def_cfa_offset 0
 2909              	.LVL215:
 2910              	.LBB758:
 2911              	.LBB757:
 347:Dubby.cpp     **** }
 2912              		.loc 2 347 21 view .LVU742
 2913 0020 FFF7FEBF 		b	_ZN5daisy7Encoder8DebounceEv
 2914              	.LVL216:
 347:Dubby.cpp     **** }
 2915              		.loc 2 347 21 view .LVU743
 2916              	.LBE757:
 2917              	.LBE758:
 2918              		.cfi_endproc
 2919              	.LFE2592:
 2921              		.section	.text._ZN5daisy5Dubby21ProcessAnalogControlsEv,"ax",%progbits
 2922              		.align	1
 2923              		.p2align 2,,3
 2924              		.global	_ZN5daisy5Dubby21ProcessAnalogControlsEv
 2925              		.syntax unified
 2926              		.thumb
 2927              		.thumb_func
 2929              	_ZN5daisy5Dubby21ProcessAnalogControlsEv:
 2930              	.LVL217:
 2931              	.LFB2593:
 340:Dubby.cpp     ****     for(size_t i = 0; i < CTRL_LAST; i++)
 2932              		.loc 2 340 1 is_stmt 1 view -0
 2933              		.cfi_startproc
 2934              		@ args = 0, pretend = 0, frame = 0
 2935              		@ frame_needed = 0, uses_anonymous_args = 0
 341:Dubby.cpp     ****         analogInputs[i].Process();
 2936              		.loc 2 341 5 view .LVU745
 2937              	.LBB759:
 341:Dubby.cpp     ****         analogInputs[i].Process();
 2938              		.loc 2 341 25 view .LVU746
 2939              	.LBE759:
 340:Dubby.cpp     ****     for(size_t i = 0; i < CTRL_LAST; i++)
 2940              		.loc 2 340 1 is_stmt 0 view .LVU747
 2941 0000 38B5     		push	{r3, r4, r5, lr}
 2942              		.cfi_def_cfa_offset 16
 2943              		.cfi_offset 3, -16
 2944              		.cfi_offset 4, -12
 2945              		.cfi_offset 5, -8
ARM GAS  /var/folders/1y/_321xjh9623c014x9_qw12rr0000gn/T//ccXuncwa.s 			page 89


 2946              		.cfi_offset 14, -4
 2947 0002 00F58E74 		add	r4, r0, #284
 2948 0006 00F5EE75 		add	r5, r0, #476
 2949              	.LVL218:
 2950              	.L198:
 2951              	.LBB760:
 342:Dubby.cpp     **** }
 2952              		.loc 2 342 9 is_stmt 1 discriminator 2 view .LVU748
 342:Dubby.cpp     **** }
 2953              		.loc 2 342 32 is_stmt 0 discriminator 2 view .LVU749
 2954 000a 2046     		mov	r0, r4
 341:Dubby.cpp     ****         analogInputs[i].Process();
 2955              		.loc 2 341 25 discriminator 2 view .LVU750
 2956 000c 2034     		adds	r4, r4, #32
 342:Dubby.cpp     **** }
 2957              		.loc 2 342 32 discriminator 2 view .LVU751
 2958 000e FFF7FEFF 		bl	_ZN5daisy13AnalogControl7ProcessEv
 2959              	.LVL219:
 341:Dubby.cpp     ****         analogInputs[i].Process();
 2960              		.loc 2 341 5 is_stmt 1 discriminator 2 view .LVU752
 341:Dubby.cpp     ****         analogInputs[i].Process();
 2961              		.loc 2 341 25 discriminator 2 view .LVU753
 2962 0012 AC42     		cmp	r4, r5
 2963 0014 F9D1     		bne	.L198
 2964              	.LBE760:
 343:Dubby.cpp     **** 
 2965              		.loc 2 343 1 is_stmt 0 view .LVU754
 2966 0016 38BD     		pop	{r3, r4, r5, pc}
 343:Dubby.cpp     **** 
 2967              		.loc 2 343 1 view .LVU755
 2968              		.cfi_endproc
 2969              	.LFE2593:
 2971              		.section	.text._ZN5daisy5Dubby22ProcessDigitalControlsEv,"ax",%progbits
 2972              		.align	1
 2973              		.p2align 2,,3
 2974              		.global	_ZN5daisy5Dubby22ProcessDigitalControlsEv
 2975              		.syntax unified
 2976              		.thumb
 2977              		.thumb_func
 2979              	_ZN5daisy5Dubby22ProcessDigitalControlsEv:
 2980              	.LVL220:
 2981              	.LFB2594:
 346:Dubby.cpp     ****     encoder.Debounce();
 2982              		.loc 2 346 1 is_stmt 1 view -0
 2983              		.cfi_startproc
 2984              		@ args = 0, pretend = 0, frame = 0
 2985              		@ frame_needed = 0, uses_anonymous_args = 0
 2986              		@ link register save eliminated.
 347:Dubby.cpp     **** }
 2987              		.loc 2 347 5 view .LVU757
 347:Dubby.cpp     **** }
 2988              		.loc 2 347 21 is_stmt 0 view .LVU758
 2989 0000 F430     		adds	r0, r0, #244
 2990              	.LVL221:
 347:Dubby.cpp     **** }
 2991              		.loc 2 347 21 view .LVU759
 2992 0002 FFF7FEBF 		b	_ZN5daisy7Encoder8DebounceEv
ARM GAS  /var/folders/1y/_321xjh9623c014x9_qw12rr0000gn/T//ccXuncwa.s 			page 90


 2993              	.LVL222:
 347:Dubby.cpp     **** }
 2994              		.loc 2 347 21 view .LVU760
 2995              		.cfi_endproc
 2996              	.LFE2594:
 2998 0006 00BF     		.section	.text._ZN5daisy5Dubby12GetKnobValueENS0_4CtrlE,"ax",%progbits
 2999              		.align	1
 3000              		.p2align 2,,3
 3001              		.global	_ZN5daisy5Dubby12GetKnobValueENS0_4CtrlE
 3002              		.syntax unified
 3003              		.thumb
 3004              		.thumb_func
 3006              	_ZN5daisy5Dubby12GetKnobValueENS0_4CtrlE:
 3007              	.LVL223:
 3008              	.LFB2595:
 351:Dubby.cpp     ****     return (analogInputs[k].Value());
 3009              		.loc 2 351 1 is_stmt 1 view -0
 3010              		.cfi_startproc
 3011              		@ args = 0, pretend = 0, frame = 0
 3012              		@ frame_needed = 0, uses_anonymous_args = 0
 3013              		@ link register save eliminated.
 3014              		.loc 2 352 5 view .LVU762
 3015              	.LBB761:
 3016              	.LBI761:
 3017              		.loc 6 56 18 view .LVU763
 3018              	.LBB762:
 3019              		.loc 6 56 34 view .LVU764
 3020              		.loc 6 56 41 is_stmt 0 view .LVU765
 3021 0000 00EB4111 		add	r1, r0, r1, lsl #5
 3022              	.LVL224:
 3023              		.loc 6 56 41 view .LVU766
 3024              	.LBE762:
 3025              	.LBE761:
 353:Dubby.cpp     **** }
 3026              		.loc 2 353 1 view .LVU767
 3027 0004 91ED4A0A 		vldr.32	s0, [r1, #296]
 3028 0008 7047     		bx	lr
 3029              		.cfi_endproc
 3030              	.LFE2595:
 3032 000a 00BF     		.section	.text._ZN5daisy5Dubby9InitAudioEv,"ax",%progbits
 3033              		.align	1
 3034              		.p2align 2,,3
 3035              		.global	_ZN5daisy5Dubby9InitAudioEv
 3036              		.syntax unified
 3037              		.thumb
 3038              		.thumb_func
 3040              	_ZN5daisy5Dubby9InitAudioEv:
 3041              	.LVL225:
 3042              	.LFB2596:
 354:Dubby.cpp     **** 
 355:Dubby.cpp     **** void Dubby::InitAudio() 
 356:Dubby.cpp     **** {
 3043              		.loc 2 356 1 is_stmt 1 view -0
 3044              		.cfi_startproc
 3045              		@ args = 0, pretend = 0, frame = 136
 3046              		@ frame_needed = 0, uses_anonymous_args = 0
 357:Dubby.cpp     ****     // Handle Seed Audio as-is and then
ARM GAS  /var/folders/1y/_321xjh9623c014x9_qw12rr0000gn/T//ccXuncwa.s 			page 91


 358:Dubby.cpp     ****     SaiHandle::Config sai_config[2];
 3047              		.loc 2 358 5 view .LVU769
 359:Dubby.cpp     ****     // Internal Codec
 360:Dubby.cpp     ****     if(seed.CheckBoardVersion() == DaisySeed::BoardVersion::DAISY_SEED_1_1)
 3048              		.loc 2 360 5 view .LVU770
 356:Dubby.cpp     ****     // Handle Seed Audio as-is and then
 3049              		.loc 2 356 1 is_stmt 0 view .LVU771
 3050 0000 2DE9F041 		push	{r4, r5, r6, r7, r8, lr}
 3051              		.cfi_def_cfa_offset 24
 3052              		.cfi_offset 4, -24
 3053              		.cfi_offset 5, -20
 3054              		.cfi_offset 6, -16
 3055              		.cfi_offset 7, -12
 3056              		.cfi_offset 8, -8
 3057              		.cfi_offset 14, -4
 3058 0004 0746     		mov	r7, r0
 3059 0006 A2B0     		sub	sp, sp, #136
 3060              		.cfi_def_cfa_offset 160
 3061              		.loc 2 360 30 view .LVU772
 3062 0008 1C30     		adds	r0, r0, #28
 3063              	.LVL226:
 361:Dubby.cpp     ****     {
 362:Dubby.cpp     ****         sai_config[0].pin_config.sa = {DSY_GPIOE, 6};
 3064              		.loc 2 362 37 view .LVU773
 3065 000a 3F4D     		ldr	r5, .L208
 360:Dubby.cpp     ****     {
 3066              		.loc 2 360 30 view .LVU774
 3067 000c FFF7FEFF 		bl	_ZN5daisy9DaisySeed17CheckBoardVersionEv
 3068              	.LVL227:
 360:Dubby.cpp     ****     {
 3069              		.loc 2 360 5 view .LVU775
 3070 0010 0128     		cmp	r0, #1
 363:Dubby.cpp     ****         sai_config[0].pin_config.sb = {DSY_GPIOE, 3};
 364:Dubby.cpp     ****         sai_config[0].a_dir         = SaiHandle::Config::Direction::RECEIVE;
 365:Dubby.cpp     ****         sai_config[0].b_dir         = SaiHandle::Config::Direction::TRANSMIT;
 3071              		.loc 2 365 37 view .LVU776
 3072 0012 4FF00001 		mov	r1, #0
 360:Dubby.cpp     ****     {
 3073              		.loc 2 360 5 view .LVU777
 3074 0016 6DD0     		beq	.L207
 366:Dubby.cpp     ****     }
 367:Dubby.cpp     ****     else
 368:Dubby.cpp     ****     {
 369:Dubby.cpp     ****         sai_config[0].pin_config.sa = {DSY_GPIOE, 6};
 3075              		.loc 2 369 9 is_stmt 1 view .LVU778
 3076              		.loc 2 369 37 is_stmt 0 view .LVU779
 3077 0018 2B88     		ldrh	r3, [r5]
 370:Dubby.cpp     ****         sai_config[0].pin_config.sb = {DSY_GPIOE, 3};
 371:Dubby.cpp     ****         sai_config[0].a_dir         = SaiHandle::Config::Direction::TRANSMIT;
 372:Dubby.cpp     ****         sai_config[0].b_dir         = SaiHandle::Config::Direction::RECEIVE;
 3078              		.loc 2 372 37 view .LVU780
 3079 001a 0122     		movs	r2, #1
 369:Dubby.cpp     ****         sai_config[0].pin_config.sb = {DSY_GPIOE, 3};
 3080              		.loc 2 369 37 view .LVU781
 3081 001c ADF84230 		strh	r3, [sp, #66]	@ movhi
 370:Dubby.cpp     ****         sai_config[0].pin_config.sb = {DSY_GPIOE, 3};
 3082              		.loc 2 370 9 is_stmt 1 view .LVU782
ARM GAS  /var/folders/1y/_321xjh9623c014x9_qw12rr0000gn/T//ccXuncwa.s 			page 92


 370:Dubby.cpp     ****         sai_config[0].pin_config.sb = {DSY_GPIOE, 3};
 3083              		.loc 2 370 37 is_stmt 0 view .LVU783
 3084 0020 AB88     		ldrh	r3, [r5, #4]
 3085              		.loc 2 372 37 view .LVU784
 3086 0022 CDE91612 		strd	r1, r2, [sp, #88]
 370:Dubby.cpp     ****         sai_config[0].pin_config.sb = {DSY_GPIOE, 3};
 3087              		.loc 2 370 37 view .LVU785
 3088 0026 ADF84430 		strh	r3, [sp, #68]	@ movhi
 371:Dubby.cpp     ****         sai_config[0].b_dir         = SaiHandle::Config::Direction::RECEIVE;
 3089              		.loc 2 371 9 is_stmt 1 view .LVU786
 3090              		.loc 2 372 9 view .LVU787
 3091              	.L205:
 373:Dubby.cpp     ****     }
 374:Dubby.cpp     ****     sai_config[0].periph          = SaiHandle::Config::Peripheral::SAI_1;
 3092              		.loc 2 374 5 view .LVU788
 375:Dubby.cpp     ****     sai_config[0].sr              = SaiHandle::Config::SampleRate::SAI_48KHZ;
 376:Dubby.cpp     ****     sai_config[0].bit_depth       = SaiHandle::Config::BitDepth::SAI_24BIT;
 377:Dubby.cpp     ****     sai_config[0].a_sync          = SaiHandle::Config::Sync::MASTER;
 378:Dubby.cpp     ****     sai_config[0].b_sync          = SaiHandle::Config::Sync::SLAVE;
 379:Dubby.cpp     ****     sai_config[0].pin_config.fs   = {DSY_GPIOE, 4};
 3093              		.loc 2 379 35 is_stmt 0 view .LVU789
 3094 002a 2B89     		ldrh	r3, [r5, #8]
 374:Dubby.cpp     ****     sai_config[0].sr              = SaiHandle::Config::SampleRate::SAI_48KHZ;
 3095              		.loc 2 374 35 view .LVU790
 3096 002c 0024     		movs	r4, #0
 376:Dubby.cpp     ****     sai_config[0].a_sync          = SaiHandle::Config::Sync::MASTER;
 3097              		.loc 2 376 35 view .LVU791
 3098 002e 0126     		movs	r6, #1
 375:Dubby.cpp     ****     sai_config[0].sr              = SaiHandle::Config::SampleRate::SAI_48KHZ;
 3099              		.loc 2 375 35 view .LVU792
 3100 0030 4FF00308 		mov	r8, #3
 3101              		.loc 2 379 35 view .LVU793
 3102 0034 ADF83E30 		strh	r3, [sp, #62]	@ movhi
 380:Dubby.cpp     ****     sai_config[0].pin_config.mclk = {DSY_GPIOE, 2};
 381:Dubby.cpp     ****     sai_config[0].pin_config.sck  = {DSY_GPIOE, 5};
 382:Dubby.cpp     **** 
 383:Dubby.cpp     ****     // External Codec
 384:Dubby.cpp     **** 
 385:Dubby.cpp     ****     I2CHandle::Config i2c_cfg;
 386:Dubby.cpp     ****     i2c_cfg.periph         = I2CHandle::Config::Peripheral::I2C_1;
 387:Dubby.cpp     ****     i2c_cfg.mode           = I2CHandle::Config::Mode::I2C_MASTER;
 388:Dubby.cpp     ****     i2c_cfg.speed          = I2CHandle::Config::Speed::I2C_400KHZ;
 389:Dubby.cpp     ****     i2c_cfg.pin_config.scl = {DSY_GPIOB, 8};
 390:Dubby.cpp     ****     i2c_cfg.pin_config.sda = {DSY_GPIOB, 9};
 391:Dubby.cpp     **** 
 392:Dubby.cpp     ****     I2CHandle i2c2;
 393:Dubby.cpp     ****     i2c2.Init(i2c_cfg);
 3103              		.loc 2 393 14 view .LVU794
 3104 0038 09A9     		add	r1, sp, #36
 380:Dubby.cpp     ****     sai_config[0].pin_config.mclk = {DSY_GPIOE, 2};
 3105              		.loc 2 380 35 view .LVU795
 3106 003a AB89     		ldrh	r3, [r5, #12]
 3107              		.loc 2 393 14 view .LVU796
 3108 003c 6846     		mov	r0, sp
 374:Dubby.cpp     ****     sai_config[0].sr              = SaiHandle::Config::SampleRate::SAI_48KHZ;
 3109              		.loc 2 374 35 view .LVU797
 3110 003e 0E94     		str	r4, [sp, #56]
ARM GAS  /var/folders/1y/_321xjh9623c014x9_qw12rr0000gn/T//ccXuncwa.s 			page 93


 375:Dubby.cpp     ****     sai_config[0].bit_depth       = SaiHandle::Config::BitDepth::SAI_24BIT;
 3111              		.loc 2 375 5 is_stmt 1 view .LVU798
 380:Dubby.cpp     ****     sai_config[0].pin_config.mclk = {DSY_GPIOE, 2};
 3112              		.loc 2 380 35 is_stmt 0 view .LVU799
 3113 0040 ADF83C30 		strh	r3, [sp, #60]	@ movhi
 381:Dubby.cpp     **** 
 3114              		.loc 2 381 35 view .LVU800
 3115 0044 2B8A     		ldrh	r3, [r5, #16]
 386:Dubby.cpp     ****     i2c_cfg.mode           = I2CHandle::Config::Mode::I2C_MASTER;
 3116              		.loc 2 386 28 view .LVU801
 3117 0046 0994     		str	r4, [sp, #36]
 381:Dubby.cpp     **** 
 3118              		.loc 2 381 35 view .LVU802
 3119 0048 ADF84030 		strh	r3, [sp, #64]	@ movhi
 389:Dubby.cpp     ****     i2c_cfg.pin_config.sda = {DSY_GPIOB, 9};
 3120              		.loc 2 389 28 view .LVU803
 3121 004c AB8A     		ldrh	r3, [r5, #20]
 3122              	.LBB763:
 3123              	.LBB764:
 3124              	.LBB765:
 3125              		.file 8 "../../libDaisy//src/per/i2c.h"
   1:../../libDaisy//src/per/i2c.h **** #pragma once
   2:../../libDaisy//src/per/i2c.h **** #include "daisy_core.h"
   3:../../libDaisy//src/per/i2c.h **** 
   4:../../libDaisy//src/per/i2c.h **** namespace daisy
   5:../../libDaisy//src/per/i2c.h **** {
   6:../../libDaisy//src/per/i2c.h **** /** A handle for interacting with an I2C peripheral. This is a dumb
   7:../../libDaisy//src/per/i2c.h ****  *  gateway that internally points to one of the four I2C peripherals
   8:../../libDaisy//src/per/i2c.h ****  *  after it was initialised. It can then be copied and passed around.
   9:../../libDaisy//src/per/i2c.h ****  *  Use an I2CHandle like this:
  10:../../libDaisy//src/per/i2c.h ****  *  
  11:../../libDaisy//src/per/i2c.h ****  *      // setup the configuration
  12:../../libDaisy//src/per/i2c.h ****  *      I2CHandle::Config i2c_conf;
  13:../../libDaisy//src/per/i2c.h ****  *      i2c_conf.periph = I2CHandle::Config::Peripheral::I2C_1;
  14:../../libDaisy//src/per/i2c.h ****  *      i2c_conf.speed  = I2CHandle::Config::Speed::I2C_400KHZ;
  15:../../libDaisy//src/per/i2c.h ****  *      i2c_conf.mode   = I2CHandle::Config::Mode::Master;
  16:../../libDaisy//src/per/i2c.h ****  *      i2c_conf.pin_config.scl  = {DSY_GPIOB, 8};
  17:../../libDaisy//src/per/i2c.h ****  *      i2c_conf.pin_config.sda  = {DSY_GPIOB, 9};
  18:../../libDaisy//src/per/i2c.h ****  *      // initialise the peripheral
  19:../../libDaisy//src/per/i2c.h ****  *      I2CHandle i2c;
  20:../../libDaisy//src/per/i2c.h ****  *      i2c.Init(i2c_conf);
  21:../../libDaisy//src/per/i2c.h ****  *      // now i2c points to the corresponding peripheral and can be used.
  22:../../libDaisy//src/per/i2c.h ****  *      i2c.TransmitBlocking( ... );
  23:../../libDaisy//src/per/i2c.h ****  */
  24:../../libDaisy//src/per/i2c.h **** class I2CHandle
  25:../../libDaisy//src/per/i2c.h **** {
  26:../../libDaisy//src/per/i2c.h ****   public:
  27:../../libDaisy//src/per/i2c.h ****     /** Contains settings for initialising an I2C interface. */
  28:../../libDaisy//src/per/i2c.h ****     struct Config
  29:../../libDaisy//src/per/i2c.h ****     {
  30:../../libDaisy//src/per/i2c.h ****         /** Specifies whether the interface will operate in master or slave mode. */
  31:../../libDaisy//src/per/i2c.h ****         enum class Mode
  32:../../libDaisy//src/per/i2c.h ****         {
  33:../../libDaisy//src/per/i2c.h ****             I2C_MASTER,
  34:../../libDaisy//src/per/i2c.h ****             I2C_SLAVE,
  35:../../libDaisy//src/per/i2c.h ****         };
  36:../../libDaisy//src/per/i2c.h **** 
ARM GAS  /var/folders/1y/_321xjh9623c014x9_qw12rr0000gn/T//ccXuncwa.s 			page 94


  37:../../libDaisy//src/per/i2c.h ****         /** Specifices the internal peripheral to use (these are mapped to different pins on the ha
  38:../../libDaisy//src/per/i2c.h ****         enum class Peripheral
  39:../../libDaisy//src/per/i2c.h ****         {
  40:../../libDaisy//src/per/i2c.h ****             I2C_1 = 0, /**< & */
  41:../../libDaisy//src/per/i2c.h ****             I2C_2,     /**< & */
  42:../../libDaisy//src/per/i2c.h ****             I2C_3,     /**< & */
  43:../../libDaisy//src/per/i2c.h ****             I2C_4,     /**< & */
  44:../../libDaisy//src/per/i2c.h ****         };
  45:../../libDaisy//src/per/i2c.h **** 
  46:../../libDaisy//src/per/i2c.h ****         /** Rate at which the clock/data will be sent/received. The device being used will have max
  47:../../libDaisy//src/per/i2c.h ****          *  1MHZ Mode is currently 886kHz
  48:../../libDaisy//src/per/i2c.h ****          */
  49:../../libDaisy//src/per/i2c.h ****         enum class Speed
  50:../../libDaisy//src/per/i2c.h ****         {
  51:../../libDaisy//src/per/i2c.h ****             I2C_100KHZ, /**< & */
  52:../../libDaisy//src/per/i2c.h ****             I2C_400KHZ, /**< & */
  53:../../libDaisy//src/per/i2c.h ****             I2C_1MHZ,   /**< & */
  54:../../libDaisy//src/per/i2c.h ****         };
  55:../../libDaisy//src/per/i2c.h **** 
  56:../../libDaisy//src/per/i2c.h ****         Peripheral periph; /**< & */
  57:../../libDaisy//src/per/i2c.h ****         struct
  58:../../libDaisy//src/per/i2c.h ****         {
  59:../../libDaisy//src/per/i2c.h ****             dsy_gpio_pin scl; /**< & */
  60:../../libDaisy//src/per/i2c.h ****             dsy_gpio_pin sda; /**< & */
  61:../../libDaisy//src/per/i2c.h ****         } pin_config;         /**< & */
  62:../../libDaisy//src/per/i2c.h **** 
  63:../../libDaisy//src/per/i2c.h ****         Speed speed; /**< & */
  64:../../libDaisy//src/per/i2c.h ****         Mode  mode;  /**< & */
  65:../../libDaisy//src/per/i2c.h ****         // 0x10 is chosen as a default to avoid conflicts with reserved addresses
  66:../../libDaisy//src/per/i2c.h ****         uint8_t address = 0x10; /**< & */
  67:../../libDaisy//src/per/i2c.h ****     };
  68:../../libDaisy//src/per/i2c.h **** 
  69:../../libDaisy//src/per/i2c.h ****     /** Return values for I2C functions. */
  70:../../libDaisy//src/per/i2c.h ****     enum class Result
  71:../../libDaisy//src/per/i2c.h ****     {
  72:../../libDaisy//src/per/i2c.h ****         OK, /**< & */
  73:../../libDaisy//src/per/i2c.h ****         ERR /**< & */
  74:../../libDaisy//src/per/i2c.h ****     };
  75:../../libDaisy//src/per/i2c.h **** 
  76:../../libDaisy//src/per/i2c.h ****     enum class Direction
  77:../../libDaisy//src/per/i2c.h ****     {
  78:../../libDaisy//src/per/i2c.h ****         TRANSMIT, /**< & */
  79:../../libDaisy//src/per/i2c.h ****         RECEIVE,  /**< & */
  80:../../libDaisy//src/per/i2c.h ****     };
  81:../../libDaisy//src/per/i2c.h **** 
  82:../../libDaisy//src/per/i2c.h ****     I2CHandle() : pimpl_(nullptr) {}
 3126              		.loc 8 82 33 view .LVU804
 3127 004e 0094     		str	r4, [sp]
 3128              	.LBE765:
 3129              	.LBE764:
 3130              	.LBE763:
 389:Dubby.cpp     ****     i2c_cfg.pin_config.sda = {DSY_GPIOB, 9};
 3131              		.loc 2 389 28 view .LVU805
 3132 0050 ADF82830 		strh	r3, [sp, #40]	@ movhi
 390:Dubby.cpp     **** 
 3133              		.loc 2 390 28 view .LVU806
 3134 0054 2B8B     		ldrh	r3, [r5, #24]
ARM GAS  /var/folders/1y/_321xjh9623c014x9_qw12rr0000gn/T//ccXuncwa.s 			page 95


 3135 0056 ADF82A30 		strh	r3, [sp, #42]	@ movhi
 3136              	.LBB766:
 3137              	.LBB767:
  28:../../libDaisy//src/per/i2c.h ****     {
 3138              		.loc 8 28 12 view .LVU807
 3139 005a 1023     		movs	r3, #16
 3140              	.LBE767:
 3141              	.LBE766:
 378:Dubby.cpp     ****     sai_config[0].pin_config.fs   = {DSY_GPIOE, 4};
 3142              		.loc 2 378 35 view .LVU808
 3143 005c CDE91446 		strd	r4, r6, [sp, #80]
 388:Dubby.cpp     ****     i2c_cfg.pin_config.scl = {DSY_GPIOB, 8};
 3144              		.loc 2 388 28 view .LVU809
 3145 0060 CDE90B64 		strd	r6, r4, [sp, #44]
 3146              	.LBB769:
 3147              	.LBB768:
  28:../../libDaisy//src/per/i2c.h ****     {
 3148              		.loc 8 28 12 view .LVU810
 3149 0064 8DF83430 		strb	r3, [sp, #52]
 3150              	.LBE768:
 3151              	.LBE769:
 375:Dubby.cpp     ****     sai_config[0].bit_depth       = SaiHandle::Config::BitDepth::SAI_24BIT;
 3152              		.loc 2 375 35 view .LVU811
 3153 0068 CDE91286 		strd	r8, r6, [sp, #72]
 376:Dubby.cpp     ****     sai_config[0].a_sync          = SaiHandle::Config::Sync::MASTER;
 3154              		.loc 2 376 5 is_stmt 1 view .LVU812
 377:Dubby.cpp     ****     sai_config[0].b_sync          = SaiHandle::Config::Sync::SLAVE;
 3155              		.loc 2 377 5 view .LVU813
 379:Dubby.cpp     ****     sai_config[0].pin_config.mclk = {DSY_GPIOE, 2};
 3156              		.loc 2 379 5 view .LVU814
 380:Dubby.cpp     ****     sai_config[0].pin_config.sck  = {DSY_GPIOE, 5};
 3157              		.loc 2 380 5 view .LVU815
 381:Dubby.cpp     **** 
 3158              		.loc 2 381 5 view .LVU816
 385:Dubby.cpp     ****     i2c_cfg.periph         = I2CHandle::Config::Peripheral::I2C_1;
 3159              		.loc 2 385 5 view .LVU817
 3160              	.LVL228:
 3161              	.LBB770:
 3162              	.LBI766:
  28:../../libDaisy//src/per/i2c.h ****     {
 3163              		.loc 8 28 12 view .LVU818
  28:../../libDaisy//src/per/i2c.h ****     {
 3164              		.loc 8 28 12 is_stmt 0 view .LVU819
 3165              	.LBE770:
 386:Dubby.cpp     ****     i2c_cfg.mode           = I2CHandle::Config::Mode::I2C_MASTER;
 3166              		.loc 2 386 5 is_stmt 1 view .LVU820
 387:Dubby.cpp     ****     i2c_cfg.speed          = I2CHandle::Config::Speed::I2C_400KHZ;
 3167              		.loc 2 387 5 view .LVU821
 388:Dubby.cpp     ****     i2c_cfg.pin_config.scl = {DSY_GPIOB, 8};
 3168              		.loc 2 388 5 view .LVU822
 389:Dubby.cpp     ****     i2c_cfg.pin_config.sda = {DSY_GPIOB, 9};
 3169              		.loc 2 389 5 view .LVU823
 390:Dubby.cpp     **** 
 3170              		.loc 2 390 5 view .LVU824
 392:Dubby.cpp     ****     i2c2.Init(i2c_cfg);
 3171              		.loc 2 392 5 view .LVU825
 3172              	.LBB771:
ARM GAS  /var/folders/1y/_321xjh9623c014x9_qw12rr0000gn/T//ccXuncwa.s 			page 96


 3173              	.LBI763:
 3174              		.loc 8 82 5 view .LVU826
 3175              		.loc 8 82 5 is_stmt 0 view .LVU827
 3176              	.LBE771:
 3177              		.loc 2 393 5 is_stmt 1 view .LVU828
 3178              		.loc 2 393 14 is_stmt 0 view .LVU829
 3179 006c FFF7FEFF 		bl	_ZN5daisy9I2CHandle4InitERKNS0_6ConfigE
 3180              	.LVL229:
 394:Dubby.cpp     **** 
 395:Dubby.cpp     ****     // pullups must be enabled
 396:Dubby.cpp     ****     GPIOB->PUPDR &= ~((GPIO_PUPDR_PUPD8)|(GPIO_PUPDR_PUPD9)); 
 3181              		.loc 2 396 5 is_stmt 1 view .LVU830
 3182              		.loc 2 396 18 is_stmt 0 view .LVU831
 3183 0070 264B     		ldr	r3, .L208+4
 397:Dubby.cpp     ****     GPIOB->PUPDR |= ((GPIO_PUPDR_PUPD8_0)|(GPIO_PUPDR_PUPD9_0)); 
 398:Dubby.cpp     **** 
 399:Dubby.cpp     ****     Pcm3060 codec;
 400:Dubby.cpp     **** 
 401:Dubby.cpp     ****     codec.Init(i2c2);        
 3184              		.loc 2 401 15 view .LVU832
 3185 0072 0099     		ldr	r1, [sp]
 3186 0074 01A8     		add	r0, sp, #4
 396:Dubby.cpp     ****     GPIOB->PUPDR |= ((GPIO_PUPDR_PUPD8_0)|(GPIO_PUPDR_PUPD9_0)); 
 3187              		.loc 2 396 18 view .LVU833
 3188 0076 DA68     		ldr	r2, [r3, #12]
 3189 0078 22F47022 		bic	r2, r2, #983040
 3190 007c DA60     		str	r2, [r3, #12]
 397:Dubby.cpp     ****     GPIOB->PUPDR |= ((GPIO_PUPDR_PUPD8_0)|(GPIO_PUPDR_PUPD9_0)); 
 3191              		.loc 2 397 5 is_stmt 1 view .LVU834
 397:Dubby.cpp     ****     GPIOB->PUPDR |= ((GPIO_PUPDR_PUPD8_0)|(GPIO_PUPDR_PUPD9_0)); 
 3192              		.loc 2 397 18 is_stmt 0 view .LVU835
 3193 007e DA68     		ldr	r2, [r3, #12]
 3194 0080 42F4A022 		orr	r2, r2, #327680
 3195 0084 DA60     		str	r2, [r3, #12]
 399:Dubby.cpp     **** 
 3196              		.loc 2 399 5 is_stmt 1 view .LVU836
 3197              	.LVL230:
 3198              	.LBB772:
 3199              	.LBI772:
 3200              		.file 9 "../../libDaisy//src/dev/codec_pcm3060.h"
   1:../../libDaisy//src/dev/codec_pcm3060.h **** #pragma once
   2:../../libDaisy//src/dev/codec_pcm3060.h **** #ifndef DSY_CODEC_PCM3060_H
   3:../../libDaisy//src/dev/codec_pcm3060.h **** #define DSY_CODEC_PCM3060_H
   4:../../libDaisy//src/dev/codec_pcm3060.h **** #include "per/i2c.h"
   5:../../libDaisy//src/dev/codec_pcm3060.h **** namespace daisy
   6:../../libDaisy//src/dev/codec_pcm3060.h **** {
   7:../../libDaisy//src/dev/codec_pcm3060.h **** /**
   8:../../libDaisy//src/dev/codec_pcm3060.h ****  * @brief Driver for the TI PCM3060 Audio Codec.
   9:../../libDaisy//src/dev/codec_pcm3060.h ****  * @addtogroup codec
  10:../../libDaisy//src/dev/codec_pcm3060.h ****  * 
  11:../../libDaisy//src/dev/codec_pcm3060.h ****  * For now this is a limited interface that uses I2C to communicate with the PCM3060
  12:../../libDaisy//src/dev/codec_pcm3060.h ****  * The device can also be accessed with SPI, which is not yet supported.
  13:../../libDaisy//src/dev/codec_pcm3060.h ****  * 
  14:../../libDaisy//src/dev/codec_pcm3060.h ****  * For now all registers are set to their defaults, and the Init function will 
  15:../../libDaisy//src/dev/codec_pcm3060.h ****  * perform a MRST and SRST before setting the format to 24bit LJ, and disabling 
  16:../../libDaisy//src/dev/codec_pcm3060.h ****  * power save for both the ADC and DAC.
  17:../../libDaisy//src/dev/codec_pcm3060.h ****  *
ARM GAS  /var/folders/1y/_321xjh9623c014x9_qw12rr0000gn/T//ccXuncwa.s 			page 97


  18:../../libDaisy//src/dev/codec_pcm3060.h ****  */
  19:../../libDaisy//src/dev/codec_pcm3060.h **** class Pcm3060
  20:../../libDaisy//src/dev/codec_pcm3060.h **** {
  21:../../libDaisy//src/dev/codec_pcm3060.h ****   public:
  22:../../libDaisy//src/dev/codec_pcm3060.h ****     enum class Result
  23:../../libDaisy//src/dev/codec_pcm3060.h ****     {
  24:../../libDaisy//src/dev/codec_pcm3060.h ****         OK,
  25:../../libDaisy//src/dev/codec_pcm3060.h ****         ERR,
  26:../../libDaisy//src/dev/codec_pcm3060.h ****     };
  27:../../libDaisy//src/dev/codec_pcm3060.h **** 
  28:../../libDaisy//src/dev/codec_pcm3060.h ****     Pcm3060() {}
 3201              		.loc 9 28 5 view .LVU837
 3202              	.LBB773:
 3203              	.LBB774:
 3204              	.LBI774:
 3205              		.loc 8 82 5 view .LVU838
 3206              	.LBB775:
 3207              	.LBB776:
 3208              		.loc 8 82 33 is_stmt 0 view .LVU839
 3209 0086 0194     		str	r4, [sp, #4]
 3210              	.LVL231:
 3211              		.loc 8 82 33 view .LVU840
 3212              	.LBE776:
 3213              	.LBE775:
 3214              	.LBE774:
 3215              	.LBE773:
 3216              	.LBE772:
 3217              		.loc 2 401 5 is_stmt 1 view .LVU841
 3218              		.loc 2 401 15 is_stmt 0 view .LVU842
 3219 0088 FFF7FEFF 		bl	_ZN5daisy7Pcm30604InitENS_9I2CHandleE
 3220              	.LVL232:
 402:Dubby.cpp     **** 
 403:Dubby.cpp     ****     sai_config[1].periph          = SaiHandle::Config::Peripheral::SAI_2;
 3221              		.loc 2 403 5 is_stmt 1 view .LVU843
 404:Dubby.cpp     ****     sai_config[1].sr              = SaiHandle::Config::SampleRate::SAI_48KHZ;
 3222              		.loc 2 404 5 view .LVU844
 405:Dubby.cpp     ****     sai_config[1].bit_depth       = SaiHandle::Config::BitDepth::SAI_24BIT;
 406:Dubby.cpp     ****     sai_config[1].a_sync          = SaiHandle::Config::Sync::SLAVE;
 407:Dubby.cpp     ****     sai_config[1].b_sync          = SaiHandle::Config::Sync::MASTER;
 408:Dubby.cpp     ****     sai_config[1].pin_config.fs   = {DSY_GPIOG, 9};
 3223              		.loc 2 408 35 is_stmt 0 view .LVU845
 3224 008c AB8B     		ldrh	r3, [r5, #28]
 409:Dubby.cpp     ****     sai_config[1].pin_config.mclk = {DSY_GPIOA, 1};
 410:Dubby.cpp     ****     sai_config[1].pin_config.sck  = {DSY_GPIOA, 2};
 411:Dubby.cpp     ****     sai_config[1].a_dir         = SaiHandle::Config::Direction::TRANSMIT;
 412:Dubby.cpp     ****     sai_config[1].pin_config.sa = {DSY_GPIOD, 11};
 413:Dubby.cpp     ****     sai_config[1].b_dir         = SaiHandle::Config::Direction::RECEIVE;
 414:Dubby.cpp     ****     sai_config[1].pin_config.sb = {DSY_GPIOA, 0};
 415:Dubby.cpp     **** 
 416:Dubby.cpp     ****     SaiHandle sai_handle[2];
 417:Dubby.cpp     ****     sai_handle[0].Init(sai_config[1]);
 3225              		.loc 2 417 23 view .LVU846
 3226 008e 18A9     		add	r1, sp, #96
 412:Dubby.cpp     ****     sai_config[1].b_dir         = SaiHandle::Config::Direction::RECEIVE;
 3227              		.loc 2 412 33 view .LVU847
 3228 0090 2A8C     		ldrh	r2, [r5, #32]
 3229              		.loc 2 417 23 view .LVU848
ARM GAS  /var/folders/1y/_321xjh9623c014x9_qw12rr0000gn/T//ccXuncwa.s 			page 98


 3230 0092 03A8     		add	r0, sp, #12
 408:Dubby.cpp     ****     sai_config[1].pin_config.mclk = {DSY_GPIOA, 1};
 3231              		.loc 2 408 35 view .LVU849
 3232 0094 ADF86630 		strh	r3, [sp, #102]	@ movhi
 409:Dubby.cpp     ****     sai_config[1].pin_config.mclk = {DSY_GPIOA, 1};
 3233              		.loc 2 409 35 view .LVU850
 3234 0098 4FF48073 		mov	r3, #256
 412:Dubby.cpp     ****     sai_config[1].b_dir         = SaiHandle::Config::Direction::RECEIVE;
 3235              		.loc 2 412 33 view .LVU851
 3236 009c ADF86A20 		strh	r2, [sp, #106]	@ movhi
 409:Dubby.cpp     ****     sai_config[1].pin_config.mclk = {DSY_GPIOA, 1};
 3237              		.loc 2 409 35 view .LVU852
 3238 00a0 ADF86430 		strh	r3, [sp, #100]	@ movhi
 410:Dubby.cpp     ****     sai_config[1].a_dir         = SaiHandle::Config::Direction::TRANSMIT;
 3239              		.loc 2 410 35 view .LVU853
 3240 00a4 4FF40073 		mov	r3, #512
 414:Dubby.cpp     **** 
 3241              		.loc 2 414 33 view .LVU854
 3242 00a8 ADF86C40 		strh	r4, [sp, #108]	@ movhi
 410:Dubby.cpp     ****     sai_config[1].a_dir         = SaiHandle::Config::Direction::TRANSMIT;
 3243              		.loc 2 410 35 view .LVU855
 3244 00ac ADF86830 		strh	r3, [sp, #104]	@ movhi
 403:Dubby.cpp     ****     sai_config[1].sr              = SaiHandle::Config::SampleRate::SAI_48KHZ;
 3245              		.loc 2 403 35 view .LVU856
 3246 00b0 1896     		str	r6, [sp, #96]
 407:Dubby.cpp     ****     sai_config[1].pin_config.fs   = {DSY_GPIOG, 9};
 3247              		.loc 2 407 35 view .LVU857
 3248 00b2 CDE91E64 		strd	r6, r4, [sp, #120]
 411:Dubby.cpp     ****     sai_config[1].pin_config.sa = {DSY_GPIOD, 11};
 3249              		.loc 2 411 33 view .LVU858
 3250 00b6 CDE92046 		strd	r4, r6, [sp, #128]
 3251              	.LBB777:
 3252              	.LBB778:
 3253              	.LBB779:
 3254              		.file 10 "../../libDaisy//src/per/sai.h"
   1:../../libDaisy//src/per/sai.h **** #pragma once
   2:../../libDaisy//src/per/sai.h **** #ifndef DSY_SAI_H
   3:../../libDaisy//src/per/sai.h **** #define DSY_SAI_H
   4:../../libDaisy//src/per/sai.h **** 
   5:../../libDaisy//src/per/sai.h **** #include "daisy_core.h"
   6:../../libDaisy//src/per/sai.h **** 
   7:../../libDaisy//src/per/sai.h **** namespace daisy
   8:../../libDaisy//src/per/sai.h **** {
   9:../../libDaisy//src/per/sai.h **** /** 
  10:../../libDaisy//src/per/sai.h ****  * Support for I2S Audio Protocol with different bit-depth, samplerate options
  11:../../libDaisy//src/per/sai.h ****  * Allows for master or slave, as well as freedom of selecting direction, 
  12:../../libDaisy//src/per/sai.h ****  * and other behavior for each peripheral, and block.
  13:../../libDaisy//src/per/sai.h ****  * 
  14:../../libDaisy//src/per/sai.h ****  * DMA Transfer commands must use buffers located within non-cached memory or use cache maintenance
  15:../../libDaisy//src/per/sai.h ****  * To declare an unitialized global element in the DMA memory section:
  16:../../libDaisy//src/per/sai.h ****  *    int32_t DSY_DMA_BUFFER_SECTOR my_buffer[96];
  17:../../libDaisy//src/per/sai.h ****  *
  18:../../libDaisy//src/per/sai.h ****  * Callback functions will be called once per half of the buffer. In the above example, 
  19:../../libDaisy//src/per/sai.h ****  * the callback function would be called once for every 48 samples.
  20:../../libDaisy//src/per/sai.h ****  * 
  21:../../libDaisy//src/per/sai.h ****  * Use SAI Handle like this:
  22:../../libDaisy//src/per/sai.h ****  * 
ARM GAS  /var/folders/1y/_321xjh9623c014x9_qw12rr0000gn/T//ccXuncwa.s 			page 99


  23:../../libDaisy//src/per/sai.h ****  *  SaiHandle::Config sai_config;
  24:../../libDaisy//src/per/sai.h ****  *  sai_config.periph          = SaiHandle::Config::Peripheral::SAI_1;
  25:../../libDaisy//src/per/sai.h ****  *  sai_config.sr              = SaiHandle::Config::SampleRate::SAI_48KHZ;
  26:../../libDaisy//src/per/sai.h ****  *  sai_config.bit_depth       = SaiHandle::Config::BitDepth::SAI_24BIT;
  27:../../libDaisy//src/per/sai.h ****  *  sai_config.a_sync          = SaiHandle::Config::Sync::MASTER;
  28:../../libDaisy//src/per/sai.h ****  *  sai_config.b_sync          = SaiHandle::Config::Sync::SLAVE;
  29:../../libDaisy//src/per/sai.h ****  *  sai_config.a_dir           = SaiHandle::Config::Direction::RECEIVE;
  30:../../libDaisy//src/per/sai.h ****  *  sai_config.b_dir           = SaiHandle::Config::Direction::TRANSMIT;
  31:../../libDaisy//src/per/sai.h ****  *  sai_config.pin_config.fs   = {DSY_GPIOE, 4};
  32:../../libDaisy//src/per/sai.h ****  *  sai_config.pin_config.mclk = {DSY_GPIOE, 2};
  33:../../libDaisy//src/per/sai.h ****  *  sai_config.pin_config.sck  = {DSY_GPIOE, 5};
  34:../../libDaisy//src/per/sai.h ****  *  sai_config.pin_config.sa   = {DSY_GPIOE, 6};
  35:../../libDaisy//src/per/sai.h ****  *  sai_config.pin_config.sb   = {DSY_GPIOE, 3};
  36:../../libDaisy//src/per/sai.h ****  *  // Then Initialize
  37:../../libDaisy//src/per/sai.h ****  *  SaiHandle sai;
  38:../../libDaisy//src/per/sai.h ****  *  sai.Init(sai_config);
  39:../../libDaisy//src/per/sai.h ****  *  // Now you can use it:
  40:../../libDaisy//src/per/sai.h ****  *  sai.StartDma(. . .);
  41:../../libDaisy//src/per/sai.h ****  */
  42:../../libDaisy//src/per/sai.h **** class SaiHandle
  43:../../libDaisy//src/per/sai.h **** {
  44:../../libDaisy//src/per/sai.h ****   public:
  45:../../libDaisy//src/per/sai.h ****     /** Contains settings for initialising an SAI Interface */
  46:../../libDaisy//src/per/sai.h ****     struct Config
  47:../../libDaisy//src/per/sai.h ****     {
  48:../../libDaisy//src/per/sai.h ****         /** Specifies the internal peripheral to use (mapped to different hardware pins) */
  49:../../libDaisy//src/per/sai.h ****         enum class Peripheral
  50:../../libDaisy//src/per/sai.h ****         {
  51:../../libDaisy//src/per/sai.h ****             SAI_1,
  52:../../libDaisy//src/per/sai.h ****             SAI_2,
  53:../../libDaisy//src/per/sai.h ****         };
  54:../../libDaisy//src/per/sai.h **** 
  55:../../libDaisy//src/per/sai.h ****         /** Rate at which samples will be streaming to/from the device. */
  56:../../libDaisy//src/per/sai.h ****         enum class SampleRate
  57:../../libDaisy//src/per/sai.h ****         {
  58:../../libDaisy//src/per/sai.h ****             SAI_8KHZ,
  59:../../libDaisy//src/per/sai.h ****             SAI_16KHZ,
  60:../../libDaisy//src/per/sai.h ****             SAI_32KHZ,
  61:../../libDaisy//src/per/sai.h ****             SAI_48KHZ,
  62:../../libDaisy//src/per/sai.h ****             SAI_96KHZ,
  63:../../libDaisy//src/per/sai.h ****         };
  64:../../libDaisy//src/per/sai.h **** 
  65:../../libDaisy//src/per/sai.h ****         /** Bit Depth that the hardware expects to be transferred to/from the device. */
  66:../../libDaisy//src/per/sai.h ****         enum class BitDepth
  67:../../libDaisy//src/per/sai.h ****         {
  68:../../libDaisy//src/per/sai.h ****             SAI_16BIT,
  69:../../libDaisy//src/per/sai.h ****             SAI_24BIT,
  70:../../libDaisy//src/per/sai.h ****             SAI_32BIT,
  71:../../libDaisy//src/per/sai.h ****         };
  72:../../libDaisy//src/per/sai.h **** 
  73:../../libDaisy//src/per/sai.h ****         /** Specifies whether a particular block is the master or the slave 
  74:../../libDaisy//src/per/sai.h ****          ** If both are set to slave, no MCLK signal will be used, and it is
  75:../../libDaisy//src/per/sai.h ****          ** expected that the codec will have its own xtal.
  76:../../libDaisy//src/per/sai.h ****          */
  77:../../libDaisy//src/per/sai.h ****         enum class Sync
  78:../../libDaisy//src/per/sai.h ****         {
  79:../../libDaisy//src/per/sai.h ****             MASTER,
ARM GAS  /var/folders/1y/_321xjh9623c014x9_qw12rr0000gn/T//ccXuncwa.s 			page 100


  80:../../libDaisy//src/per/sai.h ****             SLAVE,
  81:../../libDaisy//src/per/sai.h ****         };
  82:../../libDaisy//src/per/sai.h **** 
  83:../../libDaisy//src/per/sai.h ****         /** Specifies the direction for each peripheral block. */
  84:../../libDaisy//src/per/sai.h ****         enum class Direction
  85:../../libDaisy//src/per/sai.h ****         {
  86:../../libDaisy//src/per/sai.h ****             TRANSMIT,
  87:../../libDaisy//src/per/sai.h ****             RECEIVE,
  88:../../libDaisy//src/per/sai.h ****         };
  89:../../libDaisy//src/per/sai.h **** 
  90:../../libDaisy//src/per/sai.h ****         Peripheral periph;
  91:../../libDaisy//src/per/sai.h ****         struct
  92:../../libDaisy//src/per/sai.h ****         {
  93:../../libDaisy//src/per/sai.h ****             dsy_gpio_pin mclk, fs, sck, sa, sb;
  94:../../libDaisy//src/per/sai.h ****         } pin_config;
  95:../../libDaisy//src/per/sai.h ****         SampleRate sr;
  96:../../libDaisy//src/per/sai.h ****         BitDepth   bit_depth;
  97:../../libDaisy//src/per/sai.h ****         Sync       a_sync, b_sync;
  98:../../libDaisy//src/per/sai.h ****         Direction  a_dir, b_dir;
  99:../../libDaisy//src/per/sai.h ****     };
 100:../../libDaisy//src/per/sai.h **** 
 101:../../libDaisy//src/per/sai.h ****     /** Return values for SAI functions */
 102:../../libDaisy//src/per/sai.h ****     enum class Result
 103:../../libDaisy//src/per/sai.h ****     {
 104:../../libDaisy//src/per/sai.h ****         OK,
 105:../../libDaisy//src/per/sai.h ****         ERR,
 106:../../libDaisy//src/per/sai.h ****     };
 107:../../libDaisy//src/per/sai.h **** 
 108:../../libDaisy//src/per/sai.h ****     SaiHandle() : pimpl_(nullptr) {}
 3255              		.loc 10 108 33 view .LVU859
 3256 00ba CDE90344 		strd	r4, r4, [sp, #12]
 3257              	.LBE779:
 3258              	.LBE778:
 3259              	.LBE777:
 405:Dubby.cpp     ****     sai_config[1].a_sync          = SaiHandle::Config::Sync::SLAVE;
 3260              		.loc 2 405 35 view .LVU860
 3261 00be CDE91C86 		strd	r8, r6, [sp, #112]
 406:Dubby.cpp     ****     sai_config[1].b_sync          = SaiHandle::Config::Sync::MASTER;
 3262              		.loc 2 406 5 is_stmt 1 view .LVU861
 408:Dubby.cpp     ****     sai_config[1].pin_config.mclk = {DSY_GPIOA, 1};
 3263              		.loc 2 408 5 view .LVU862
 409:Dubby.cpp     ****     sai_config[1].pin_config.sck  = {DSY_GPIOA, 2};
 3264              		.loc 2 409 5 view .LVU863
 410:Dubby.cpp     ****     sai_config[1].a_dir         = SaiHandle::Config::Direction::TRANSMIT;
 3265              		.loc 2 410 5 view .LVU864
 411:Dubby.cpp     ****     sai_config[1].pin_config.sa = {DSY_GPIOD, 11};
 3266              		.loc 2 411 5 view .LVU865
 412:Dubby.cpp     ****     sai_config[1].b_dir         = SaiHandle::Config::Direction::RECEIVE;
 3267              		.loc 2 412 5 view .LVU866
 413:Dubby.cpp     ****     sai_config[1].pin_config.sb = {DSY_GPIOA, 0};
 3268              		.loc 2 413 5 view .LVU867
 414:Dubby.cpp     **** 
 3269              		.loc 2 414 5 view .LVU868
 416:Dubby.cpp     ****     sai_handle[0].Init(sai_config[1]);
 3270              		.loc 2 416 5 view .LVU869
 416:Dubby.cpp     ****     sai_handle[0].Init(sai_config[1]);
 3271              		.loc 2 416 27 view .LVU870
ARM GAS  /var/folders/1y/_321xjh9623c014x9_qw12rr0000gn/T//ccXuncwa.s 			page 101


 3272              	.LVL233:
 3273              	.LBB780:
 3274              	.LBI777:
 3275              		.loc 10 108 5 view .LVU871
 3276              		.loc 10 108 5 is_stmt 0 view .LVU872
 3277              	.LBE780:
 416:Dubby.cpp     ****     sai_handle[0].Init(sai_config[1]);
 3278              		.loc 2 416 27 is_stmt 1 view .LVU873
 416:Dubby.cpp     ****     sai_handle[0].Init(sai_config[1]);
 3279              		.loc 2 416 27 view .LVU874
 3280              	.LBB781:
 3281              		.loc 10 108 5 view .LVU875
 3282              		.loc 10 108 5 is_stmt 0 view .LVU876
 3283              	.LBE781:
 416:Dubby.cpp     ****     sai_handle[0].Init(sai_config[1]);
 3284              		.loc 2 416 27 is_stmt 1 view .LVU877
 416:Dubby.cpp     ****     sai_handle[0].Init(sai_config[1]);
 3285              		.loc 2 416 27 view .LVU878
 3286              		.loc 2 417 5 view .LVU879
 3287              		.loc 2 417 23 is_stmt 0 view .LVU880
 3288 00c2 FFF7FEFF 		bl	_ZN5daisy9SaiHandle4InitERKNS0_6ConfigE
 3289              	.LVL234:
 418:Dubby.cpp     ****     sai_handle[1].Init(sai_config[0]);
 3290              		.loc 2 418 5 is_stmt 1 view .LVU881
 3291              		.loc 2 418 23 is_stmt 0 view .LVU882
 3292 00c6 0EA9     		add	r1, sp, #56
 3293 00c8 04A8     		add	r0, sp, #16
 419:Dubby.cpp     **** 
 420:Dubby.cpp     ****     // Reinit Audio for _both_ codecs...
 421:Dubby.cpp     ****     AudioHandle::Config cfg;
 422:Dubby.cpp     ****     cfg.blocksize  = 48;
 423:Dubby.cpp     ****     cfg.samplerate = SaiHandle::Config::SampleRate::SAI_48KHZ;
 424:Dubby.cpp     ****     cfg.postgain   = 0.5f;
 3294              		.loc 2 424 20 view .LVU883
 3295 00ca 4FF07C54 		mov	r4, #1056964608
 418:Dubby.cpp     ****     sai_handle[1].Init(sai_config[0]);
 3296              		.loc 2 418 23 view .LVU884
 3297 00ce FFF7FEFF 		bl	_ZN5daisy9SaiHandle4InitERKNS0_6ConfigE
 3298              	.LVL235:
 421:Dubby.cpp     ****     cfg.blocksize  = 48;
 3299              		.loc 2 421 5 is_stmt 1 view .LVU885
 3300              	.LBB782:
 3301              	.LBI782:
 3302              		.file 11 "../../libDaisy//src/hid/audio.h"
   1:../../libDaisy//src/hid/audio.h **** #ifndef DSY_AUDIO_H
   2:../../libDaisy//src/hid/audio.h **** #define DSY_AUDIO_H /**< & */
   3:../../libDaisy//src/hid/audio.h **** 
   4:../../libDaisy//src/hid/audio.h **** #include "per/sai.h"
   5:../../libDaisy//src/hid/audio.h **** 
   6:../../libDaisy//src/hid/audio.h **** namespace daisy
   7:../../libDaisy//src/hid/audio.h **** {
   8:../../libDaisy//src/hid/audio.h **** /** @brief Audio Engine Handle
   9:../../libDaisy//src/hid/audio.h ****  *  @ingroup audio 
  10:../../libDaisy//src/hid/audio.h ****  *  @details This class allows for higher level access to an audio engine.
  11:../../libDaisy//src/hid/audio.h ****  *           If you're using a SOM like the DaisySeed or DaisyPatchSM (or any 
  12:../../libDaisy//src/hid/audio.h ****  *            board that includes one of those objects) then the intialization
  13:../../libDaisy//src/hid/audio.h ****  *            is already taken  care of.
ARM GAS  /var/folders/1y/_321xjh9623c014x9_qw12rr0000gn/T//ccXuncwa.s 			page 102


  14:../../libDaisy//src/hid/audio.h ****  *           If you're setting up your own custom hardware, or need to make changes
  15:../../libDaisy//src/hid/audio.h ****  *           you will have to take the following steps:
  16:../../libDaisy//src/hid/audio.h ****  *             1. Create and Initialize an SaiHandle or two depending on your requirements
  17:../../libDaisy//src/hid/audio.h ****  *             2. Initialize the Audio Handle with the desired settings and the Initialized SaiHand
  18:../../libDaisy//src/hid/audio.h ****  *             3. If the connected codec requires special configuration or initialization, do so
  19:../../libDaisy//src/hid/audio.h ****  *             4. Write a callback method using either the AudioCallback or the InterleavingAudioCa
  20:../../libDaisy//src/hid/audio.h ****  *             5. Start the Audio using one of the StartAudio function
  21:../../libDaisy//src/hid/audio.h ****  */
  22:../../libDaisy//src/hid/audio.h **** class AudioHandle
  23:../../libDaisy//src/hid/audio.h **** {
  24:../../libDaisy//src/hid/audio.h ****   public:
  25:../../libDaisy//src/hid/audio.h ****     /** Manually configurable details about the Audio Engine */
  26:../../libDaisy//src/hid/audio.h ****     /** TODO: Figure out how to get samplerate in here. */
  27:../../libDaisy//src/hid/audio.h ****     struct Config
  28:../../libDaisy//src/hid/audio.h ****     {
  29:../../libDaisy//src/hid/audio.h ****         /** number of samples to process per callback */
  30:../../libDaisy//src/hid/audio.h ****         size_t blocksize;
  31:../../libDaisy//src/hid/audio.h **** 
  32:../../libDaisy//src/hid/audio.h ****         /**< Sample rate of audio */
  33:../../libDaisy//src/hid/audio.h ****         SaiHandle::Config::SampleRate samplerate;
  34:../../libDaisy//src/hid/audio.h **** 
  35:../../libDaisy//src/hid/audio.h ****         /** factor for adjustment before and after callback for hardware that may have extra headro
  36:../../libDaisy//src/hid/audio.h ****         float postgain;
  37:../../libDaisy//src/hid/audio.h **** 
  38:../../libDaisy//src/hid/audio.h ****         /** factor for additional one-sided compensation to audio path for hardware that may
  39:../../libDaisy//src/hid/audio.h ****          *  have unequal input/output ranges
  40:../../libDaisy//src/hid/audio.h ****          */
  41:../../libDaisy//src/hid/audio.h ****         float output_compensation;
  42:../../libDaisy//src/hid/audio.h **** 
  43:../../libDaisy//src/hid/audio.h ****         /** Sets default values for config struct */
  44:../../libDaisy//src/hid/audio.h ****         Config()
 3303              		.loc 11 44 9 view .LVU886
 3304              	.LBB783:
 3305              	.LBB784:
  45:../../libDaisy//src/hid/audio.h ****         : blocksize(48),
  46:../../libDaisy//src/hid/audio.h ****           samplerate(SaiHandle::Config::SampleRate::SAI_48KHZ),
  47:../../libDaisy//src/hid/audio.h ****           postgain(1.f),
  48:../../libDaisy//src/hid/audio.h ****           output_compensation(1.f)
 3306              		.loc 11 48 34 is_stmt 0 view .LVU887
 3307 00d2 3021     		movs	r1, #48
 3308 00d4 4FF07E52 		mov	r2, #1065353216
 3309              	.LBE784:
 3310              	.LBE783:
 3311              	.LBE782:
 425:Dubby.cpp     ****     seed.audio_handle.Init(cfg, sai_handle[0], sai_handle[1]);
 3312              		.loc 2 425 27 view .LVU888
 3313 00d8 049B     		ldr	r3, [sp, #16]
 3314 00da 7818     		adds	r0, r7, r1
 3315              	.LBB789:
 3316              	.LBB787:
 3317              	.LBB785:
 3318              		.loc 11 48 34 view .LVU889
 3319 00dc 0591     		str	r1, [sp, #20]
 3320 00de 0892     		str	r2, [sp, #32]	@ float
 3321              	.LVL236:
 3322              		.loc 11 48 34 view .LVU890
 3323              	.LBE785:
ARM GAS  /var/folders/1y/_321xjh9623c014x9_qw12rr0000gn/T//ccXuncwa.s 			page 103


 3324              	.LBE787:
 3325              	.LBE789:
 422:Dubby.cpp     ****     cfg.samplerate = SaiHandle::Config::SampleRate::SAI_48KHZ;
 3326              		.loc 2 422 5 is_stmt 1 view .LVU891
 423:Dubby.cpp     ****     cfg.postgain   = 0.5f;
 3327              		.loc 2 423 5 view .LVU892
 424:Dubby.cpp     ****     seed.audio_handle.Init(cfg, sai_handle[0], sai_handle[1]);
 3328              		.loc 2 424 5 view .LVU893
 3329              		.loc 2 425 27 is_stmt 0 view .LVU894
 3330 00e0 05A9     		add	r1, sp, #20
 3331 00e2 039A     		ldr	r2, [sp, #12]
 3332              	.LBB790:
 3333              	.LBB788:
 3334              	.LBB786:
 3335              		.loc 11 48 34 view .LVU895
 3336 00e4 CDF81880 		str	r8, [sp, #24]
 3337              	.LBE786:
 3338              	.LBE788:
 3339              	.LBE790:
 424:Dubby.cpp     ****     seed.audio_handle.Init(cfg, sai_handle[0], sai_handle[1]);
 3340              		.loc 2 424 20 view .LVU896
 3341 00e8 0794     		str	r4, [sp, #28]	@ float
 3342              		.loc 2 425 5 is_stmt 1 view .LVU897
 3343              		.loc 2 425 27 is_stmt 0 view .LVU898
 3344 00ea FFF7FEFF 		bl	_ZN5daisy11AudioHandle4InitERKNS0_6ConfigENS_9SaiHandleES4_
 3345              	.LVL237:
 3346              	.LBB791:
 3347              	.LBI791:
  29:../../libDaisy//src/dev/codec_pcm3060.h ****     ~Pcm3060() {}
 3348              		.loc 9 29 5 is_stmt 1 view .LVU899
 3349              		.loc 9 29 5 is_stmt 0 view .LVU900
 3350              	.LBE791:
 426:Dubby.cpp     **** }
 3351              		.loc 2 426 1 view .LVU901
 3352 00ee 22B0     		add	sp, sp, #136
 3353              		.cfi_remember_state
 3354              		.cfi_def_cfa_offset 24
 3355              		@ sp needed
 3356 00f0 BDE8F081 		pop	{r4, r5, r6, r7, r8, pc}
 3357              	.LVL238:
 3358              	.L207:
 3359              		.cfi_restore_state
 362:Dubby.cpp     ****         sai_config[0].pin_config.sb = {DSY_GPIOE, 3};
 3360              		.loc 2 362 9 is_stmt 1 view .LVU902
 362:Dubby.cpp     ****         sai_config[0].pin_config.sb = {DSY_GPIOE, 3};
 3361              		.loc 2 362 37 is_stmt 0 view .LVU903
 3362 00f4 2A88     		ldrh	r2, [r5]
 363:Dubby.cpp     ****         sai_config[0].a_dir         = SaiHandle::Config::Direction::RECEIVE;
 3363              		.loc 2 363 37 view .LVU904
 3364 00f6 AB88     		ldrh	r3, [r5, #4]
 364:Dubby.cpp     ****         sai_config[0].b_dir         = SaiHandle::Config::Direction::TRANSMIT;
 3365              		.loc 2 364 37 view .LVU905
 3366 00f8 1690     		str	r0, [sp, #88]
 365:Dubby.cpp     ****     }
 3367              		.loc 2 365 37 view .LVU906
 3368 00fa 1791     		str	r1, [sp, #92]
 362:Dubby.cpp     ****         sai_config[0].pin_config.sb = {DSY_GPIOE, 3};
ARM GAS  /var/folders/1y/_321xjh9623c014x9_qw12rr0000gn/T//ccXuncwa.s 			page 104


 3369              		.loc 2 362 37 view .LVU907
 3370 00fc ADF84220 		strh	r2, [sp, #66]	@ movhi
 363:Dubby.cpp     ****         sai_config[0].a_dir         = SaiHandle::Config::Direction::RECEIVE;
 3371              		.loc 2 363 9 is_stmt 1 view .LVU908
 363:Dubby.cpp     ****         sai_config[0].a_dir         = SaiHandle::Config::Direction::RECEIVE;
 3372              		.loc 2 363 37 is_stmt 0 view .LVU909
 3373 0100 ADF84430 		strh	r3, [sp, #68]	@ movhi
 364:Dubby.cpp     ****         sai_config[0].b_dir         = SaiHandle::Config::Direction::TRANSMIT;
 3374              		.loc 2 364 9 is_stmt 1 view .LVU910
 365:Dubby.cpp     ****     }
 3375              		.loc 2 365 9 view .LVU911
 3376 0104 91E7     		b	.L205
 3377              	.L209:
 3378 0106 00BF     		.align	2
 3379              	.L208:
 3380 0108 00000000 		.word	.LANCHOR1
 3381 010c 00040258 		.word	1476527104
 3382              		.cfi_endproc
 3383              	.LFE2596:
 3385              		.section	.rodata._ZN5daisy5Dubby14GetTextForEnumENS0_9MenuTypesEi.str1.4,"aMS",%progbits,1
 3386              		.align	2
 3387              	.LC14:
 3388 0000 00       		.ascii	"\000"
 3389              		.section	.text._ZN5daisy5Dubby14GetTextForEnumENS0_9MenuTypesEi,"ax",%progbits
 3390              		.align	1
 3391              		.p2align 2,,3
 3392              		.global	_ZN5daisy5Dubby14GetTextForEnumENS0_9MenuTypesEi
 3393              		.syntax unified
 3394              		.thumb
 3395              		.thumb_func
 3397              	_ZN5daisy5Dubby14GetTextForEnumENS0_9MenuTypesEi:
 3398              	.LVL239:
 3399              	.LFB2597:
 427:Dubby.cpp     **** 
 428:Dubby.cpp     **** const char * Dubby::GetTextForEnum(MenuTypes m, int enumVal)
 429:Dubby.cpp     **** {
 3400              		.loc 2 429 1 view -0
 3401              		.cfi_startproc
 3402              		@ args = 0, pretend = 0, frame = 0
 3403              		@ frame_needed = 0, uses_anonymous_args = 0
 3404              		@ link register save eliminated.
 430:Dubby.cpp     ****     switch (m)
 3405              		.loc 2 430 5 view .LVU913
 3406 0000 39B1     		cbz	r1, .L211
 3407 0002 0129     		cmp	r1, #1
 3408 0004 03D1     		bne	.L214
 431:Dubby.cpp     ****     {
 432:Dubby.cpp     ****         case MAINMENU:
 433:Dubby.cpp     ****             return MenuItemsStrings[enumVal];
 434:Dubby.cpp     ****             break;
 3409              		.loc 2 434 13 view .LVU914
 435:Dubby.cpp     ****         case PREFERENCESMENU:
 3410              		.loc 2 435 9 view .LVU915
 436:Dubby.cpp     ****             return PreferencesMenuItemsStrings[enumVal];
 3411              		.loc 2 436 13 view .LVU916
 3412              		.loc 2 436 55 is_stmt 0 view .LVU917
 3413 0006 00EB8200 		add	r0, r0, r2, lsl #2
ARM GAS  /var/folders/1y/_321xjh9623c014x9_qw12rr0000gn/T//ccXuncwa.s 			page 105


 3414              	.LVL240:
 3415              		.loc 2 436 55 view .LVU918
 3416 000a C068     		ldr	r0, [r0, #12]
 437:Dubby.cpp     ****             break;
 438:Dubby.cpp     ****         default:
 439:Dubby.cpp     ****             return "";
 440:Dubby.cpp     ****             break;
 441:Dubby.cpp     ****     }
 442:Dubby.cpp     **** }...
 3417              		.loc 2 442 1 view .LVU919
 3418 000c 7047     		bx	lr
 3419              	.LVL241:
 3420              	.L214:
 430:Dubby.cpp     ****     switch (m)
 3421              		.loc 2 430 5 view .LVU920
 3422 000e 0248     		ldr	r0, .L215
 3423              	.LVL242:
 430:Dubby.cpp     ****     switch (m)
 3424              		.loc 2 430 5 view .LVU921
 3425 0010 7047     		bx	lr
 3426              	.LVL243:
 3427              	.L211:
 432:Dubby.cpp     ****         case MAINMENU:
 3428              		.loc 2 432 9 is_stmt 1 view .LVU922
 433:Dubby.cpp     ****             return MenuItemsStrings[enumVal];
 3429              		.loc 2 433 13 view .LVU923
 433:Dubby.cpp     ****             return MenuItemsStrings[enumVal];
 3430              		.loc 2 433 44 is_stmt 0 view .LVU924
 3431 0012 50F82200 		ldr	r0, [r0, r2, lsl #2]
 3432              	.LVL244:
 433:Dubby.cpp     ****             return MenuItemsStrings[enumVal];
 3433              		.loc 2 433 44 view .LVU925
 3434 0016 7047     		bx	lr
 3435              	.L216:
 3436              		.align	2
 3437              	.L215:
 3438 0018 00000000 		.word	.LC14
 3439              		.cfi_endproc
 3440              	.LFE2597:
 3442              		.section	.text._ZN5daisy25OneBitGraphicsDisplayImplINS_11OledDisplayINS_13SSD130xDriverILj128ELj64
 3443              		.align	1
 3444              		.p2align 2,,3
 3445              		.weak	_ZN5daisy25OneBitGraphicsDisplayImplINS_11OledDisplayINS_13SSD130xDriverILj128ELj64ENS_24SSD
 3446              		.syntax unified
 3447              		.thumb
 3448              		.thumb_func
 3450              	_ZN5daisy25OneBitGraphicsDisplayImplINS_11OledDisplayINS_13SSD130xDriverILj128ELj64ENS_24SSD130x4Wi
 3451              	.LVL245:
 3452              	.LFB2625:
 269:../../libDaisy//src/hid/disp/display.h ****                 {
 270:../../libDaisy//src/hid/disp/display.h ****                     ((ChildType*)(this))->ChildType::DrawPixel(x, y, on);
 271:../../libDaisy//src/hid/disp/display.h ****                 }
 272:../../libDaisy//src/hid/disp/display.h ****             }
 273:../../libDaisy//src/hid/disp/display.h ****         }
 274:../../libDaisy//src/hid/disp/display.h ****         else
 275:../../libDaisy//src/hid/disp/display.h ****         {
 276:../../libDaisy//src/hid/disp/display.h ****             ((ChildType*)(this))->ChildType::DrawLine(x1, y1, x2, y1, on);
ARM GAS  /var/folders/1y/_321xjh9623c014x9_qw12rr0000gn/T//ccXuncwa.s 			page 106


 277:../../libDaisy//src/hid/disp/display.h ****             ((ChildType*)(this))->ChildType::DrawLine(x2, y1, x2, y2, on);
 278:../../libDaisy//src/hid/disp/display.h ****             ((ChildType*)(this))->ChildType::DrawLine(x2, y2, x1, y2, on);
 279:../../libDaisy//src/hid/disp/display.h ****             ((ChildType*)(this))->ChildType::DrawLine(x1, y2, x1, y1, on);
 280:../../libDaisy//src/hid/disp/display.h ****         }
 281:../../libDaisy//src/hid/disp/display.h ****     }
 282:../../libDaisy//src/hid/disp/display.h **** 
 283:../../libDaisy//src/hid/disp/display.h ****     void DrawArc(uint_fast8_t x,
 284:../../libDaisy//src/hid/disp/display.h ****                  uint_fast8_t y,
 285:../../libDaisy//src/hid/disp/display.h ****                  uint_fast8_t radius,
 286:../../libDaisy//src/hid/disp/display.h ****                  int_fast16_t start_angle,
 287:../../libDaisy//src/hid/disp/display.h ****                  int_fast16_t sweep,
 288:../../libDaisy//src/hid/disp/display.h ****                  bool         on) override
 289:../../libDaisy//src/hid/disp/display.h ****     {
 290:../../libDaisy//src/hid/disp/display.h ****         // Values to calculate the circle
 291:../../libDaisy//src/hid/disp/display.h ****         int_fast16_t t_x, t_y, err, e2;
 292:../../libDaisy//src/hid/disp/display.h **** 
 293:../../libDaisy//src/hid/disp/display.h ****         // Temporary values to speed up comparisons
 294:../../libDaisy//src/hid/disp/display.h ****         float t_sxy, t_syx, t_sxny, t_synx;
 295:../../libDaisy//src/hid/disp/display.h ****         float t_exy, t_eyx, t_exny, t_eynx;
 296:../../libDaisy//src/hid/disp/display.h **** 
 297:../../libDaisy//src/hid/disp/display.h ****         float start_angle_rad, end_angle_rad;
 298:../../libDaisy//src/hid/disp/display.h ****         float start_x, start_y, end_x, end_y;
 299:../../libDaisy//src/hid/disp/display.h **** 
 300:../../libDaisy//src/hid/disp/display.h ****         bool d1, d2, d3, d4;
 301:../../libDaisy//src/hid/disp/display.h **** 
 302:../../libDaisy//src/hid/disp/display.h ****         d1 = d2 = d3 = d4 = true;
 303:../../libDaisy//src/hid/disp/display.h **** 
 304:../../libDaisy//src/hid/disp/display.h ****         bool circle = false;
 305:../../libDaisy//src/hid/disp/display.h **** 
 306:../../libDaisy//src/hid/disp/display.h ****         if(sweep < 0)
 307:../../libDaisy//src/hid/disp/display.h ****         {
 308:../../libDaisy//src/hid/disp/display.h ****             start_angle += sweep;
 309:../../libDaisy//src/hid/disp/display.h ****             sweep = -sweep;
 310:../../libDaisy//src/hid/disp/display.h ****         }
 311:../../libDaisy//src/hid/disp/display.h **** 
 312:../../libDaisy//src/hid/disp/display.h ****         start_angle_rad = deg2rad(start_angle);
 313:../../libDaisy//src/hid/disp/display.h ****         end_angle_rad   = deg2rad(start_angle + sweep);
 314:../../libDaisy//src/hid/disp/display.h **** 
 315:../../libDaisy//src/hid/disp/display.h ****         start_x = cos(start_angle_rad) * radius;
 316:../../libDaisy//src/hid/disp/display.h ****         start_y = -sin(start_angle_rad) * radius;
 317:../../libDaisy//src/hid/disp/display.h ****         end_x   = cos(end_angle_rad) * radius;
 318:../../libDaisy//src/hid/disp/display.h ****         end_y   = -sin(end_angle_rad) * radius;
 319:../../libDaisy//src/hid/disp/display.h **** 
 320:../../libDaisy//src/hid/disp/display.h ****         // Check if start and endpoint are very near
 321:../../libDaisy//src/hid/disp/display.h ****         if((end_x - start_x) * (end_x - start_x)
 322:../../libDaisy//src/hid/disp/display.h ****                + (end_y - start_y) * (end_y - start_y)
 323:../../libDaisy//src/hid/disp/display.h ****            < 2.0f)
 324:../../libDaisy//src/hid/disp/display.h ****         {
 325:../../libDaisy//src/hid/disp/display.h ****             if(sweep > 180)
 326:../../libDaisy//src/hid/disp/display.h ****                 circle = true;
 327:../../libDaisy//src/hid/disp/display.h ****             else
 328:../../libDaisy//src/hid/disp/display.h ****                 // Nothing to draw
 329:../../libDaisy//src/hid/disp/display.h ****                 return;
 330:../../libDaisy//src/hid/disp/display.h ****         }
 331:../../libDaisy//src/hid/disp/display.h **** 
 332:../../libDaisy//src/hid/disp/display.h ****         t_x = -radius;
 333:../../libDaisy//src/hid/disp/display.h ****         t_y = 0;
ARM GAS  /var/folders/1y/_321xjh9623c014x9_qw12rr0000gn/T//ccXuncwa.s 			page 107


 334:../../libDaisy//src/hid/disp/display.h ****         err = 2 - 2 * radius;
 335:../../libDaisy//src/hid/disp/display.h **** 
 336:../../libDaisy//src/hid/disp/display.h ****         do
 337:../../libDaisy//src/hid/disp/display.h ****         {
 338:../../libDaisy//src/hid/disp/display.h ****             if(!circle)
 339:../../libDaisy//src/hid/disp/display.h ****             {
 340:../../libDaisy//src/hid/disp/display.h ****                 t_sxy  = start_x * t_y;
 341:../../libDaisy//src/hid/disp/display.h ****                 t_syx  = start_y * t_x;
 342:../../libDaisy//src/hid/disp/display.h ****                 t_sxny = start_x * -t_y;
 343:../../libDaisy//src/hid/disp/display.h ****                 t_synx = start_y * -t_x;
 344:../../libDaisy//src/hid/disp/display.h ****                 t_exy  = end_x * t_y;
 345:../../libDaisy//src/hid/disp/display.h ****                 t_eyx  = end_y * t_x;
 346:../../libDaisy//src/hid/disp/display.h ****                 t_exny = end_x * -t_y;
 347:../../libDaisy//src/hid/disp/display.h ****                 t_eynx = end_y * -t_x;
 348:../../libDaisy//src/hid/disp/display.h **** 
 349:../../libDaisy//src/hid/disp/display.h ****                 if(sweep > 180)
 350:../../libDaisy//src/hid/disp/display.h ****                 {
 351:../../libDaisy//src/hid/disp/display.h ****                     d1 = (t_sxy - t_synx < 0 || t_exy - t_eynx > 0);
 352:../../libDaisy//src/hid/disp/display.h ****                     d2 = (t_sxy - t_syx < 0 || t_exy - t_eyx > 0);
 353:../../libDaisy//src/hid/disp/display.h ****                     d3 = (t_sxny - t_syx < 0 || t_exny - t_eyx > 0);
 354:../../libDaisy//src/hid/disp/display.h ****                     d4 = (t_sxny - t_synx < 0 || t_exny - t_eynx > 0);
 355:../../libDaisy//src/hid/disp/display.h ****                 }
 356:../../libDaisy//src/hid/disp/display.h ****                 else
 357:../../libDaisy//src/hid/disp/display.h ****                 {
 358:../../libDaisy//src/hid/disp/display.h ****                     d1 = (t_sxy - t_synx < 0 && t_exy - t_eynx > 0);
 359:../../libDaisy//src/hid/disp/display.h ****                     d2 = (t_sxy - t_syx < 0 && t_exy - t_eyx > 0);
 360:../../libDaisy//src/hid/disp/display.h ****                     d3 = (t_sxny - t_syx < 0 && t_exny - t_eyx > 0);
 361:../../libDaisy//src/hid/disp/display.h ****                     d4 = (t_sxny - t_synx < 0 && t_exny - t_eynx > 0);
 362:../../libDaisy//src/hid/disp/display.h ****                 }
 363:../../libDaisy//src/hid/disp/display.h ****             }
 364:../../libDaisy//src/hid/disp/display.h **** 
 365:../../libDaisy//src/hid/disp/display.h ****             if(d1)
 366:../../libDaisy//src/hid/disp/display.h ****                 ((ChildType*)(this))
 367:../../libDaisy//src/hid/disp/display.h ****                     ->ChildType::DrawPixel(x - t_x, y + t_y, on);
 368:../../libDaisy//src/hid/disp/display.h ****             if(d2)
 369:../../libDaisy//src/hid/disp/display.h ****                 ((ChildType*)(this))
 370:../../libDaisy//src/hid/disp/display.h ****                     ->ChildType::DrawPixel(x + t_x, y + t_y, on);
 371:../../libDaisy//src/hid/disp/display.h ****             if(d3)
 372:../../libDaisy//src/hid/disp/display.h ****                 ((ChildType*)(this))
 373:../../libDaisy//src/hid/disp/display.h ****                     ->ChildType::DrawPixel(x + t_x, y - t_y, on);
 374:../../libDaisy//src/hid/disp/display.h ****             if(d4)
 375:../../libDaisy//src/hid/disp/display.h ****                 ((ChildType*)(this))
 376:../../libDaisy//src/hid/disp/display.h ****                     ->ChildType::DrawPixel(x - t_x, y - t_y, on);
 377:../../libDaisy//src/hid/disp/display.h **** 
 378:../../libDaisy//src/hid/disp/display.h ****             e2 = err;
 379:../../libDaisy//src/hid/disp/display.h ****             if(e2 <= t_y)
 380:../../libDaisy//src/hid/disp/display.h ****             {
 381:../../libDaisy//src/hid/disp/display.h ****                 t_y++;
 382:../../libDaisy//src/hid/disp/display.h ****                 err = err + (t_y * 2 + 1);
 383:../../libDaisy//src/hid/disp/display.h ****                 if(-t_x == t_y && e2 <= t_x)
 384:../../libDaisy//src/hid/disp/display.h ****                 {
 385:../../libDaisy//src/hid/disp/display.h ****                     e2 = 0;
 386:../../libDaisy//src/hid/disp/display.h ****                 }
 387:../../libDaisy//src/hid/disp/display.h ****             }
 388:../../libDaisy//src/hid/disp/display.h ****             if(e2 > t_x)
 389:../../libDaisy//src/hid/disp/display.h ****             {
 390:../../libDaisy//src/hid/disp/display.h ****                 t_x++;
ARM GAS  /var/folders/1y/_321xjh9623c014x9_qw12rr0000gn/T//ccXuncwa.s 			page 108


 391:../../libDaisy//src/hid/disp/display.h ****                 err = err + (t_x * 2 + 1);
 392:../../libDaisy//src/hid/disp/display.h ****             }
 393:../../libDaisy//src/hid/disp/display.h ****         } while(t_x <= 0);
 394:../../libDaisy//src/hid/disp/display.h ****     }
 395:../../libDaisy//src/hid/disp/display.h **** 
 396:../../libDaisy//src/hid/disp/display.h ****     char WriteChar(char ch, FontDef font, bool on) override
 397:../../libDaisy//src/hid/disp/display.h ****     {
 398:../../libDaisy//src/hid/disp/display.h ****         uint32_t i, b, j;
 399:../../libDaisy//src/hid/disp/display.h **** 
 400:../../libDaisy//src/hid/disp/display.h ****         // Check if character is valid
 401:../../libDaisy//src/hid/disp/display.h ****         if(ch < 32 || ch > 126)
 402:../../libDaisy//src/hid/disp/display.h ****             return 0;
 403:../../libDaisy//src/hid/disp/display.h **** 
 404:../../libDaisy//src/hid/disp/display.h ****         // Check remaining space on current line
 405:../../libDaisy//src/hid/disp/display.h ****         if(Width() < (currentX_ + font.FontWidth)
 406:../../libDaisy//src/hid/disp/display.h ****            || Height() < (currentY_ + font.FontHeight))
 407:../../libDaisy//src/hid/disp/display.h ****         {
 408:../../libDaisy//src/hid/disp/display.h ****             // Not enough space on current line
 409:../../libDaisy//src/hid/disp/display.h ****             return 0;
 410:../../libDaisy//src/hid/disp/display.h ****         }
 411:../../libDaisy//src/hid/disp/display.h **** 
 412:../../libDaisy//src/hid/disp/display.h ****         // Use the font to write
 413:../../libDaisy//src/hid/disp/display.h ****         for(i = 0; i < font.FontHeight; i++)
 414:../../libDaisy//src/hid/disp/display.h ****         {
 415:../../libDaisy//src/hid/disp/display.h ****             b = font.data[(ch - 32) * font.FontHeight + i];
 416:../../libDaisy//src/hid/disp/display.h ****             for(j = 0; j < font.FontWidth; j++)
 417:../../libDaisy//src/hid/disp/display.h ****             {
 418:../../libDaisy//src/hid/disp/display.h ****                 if((b << j) & 0x8000)
 419:../../libDaisy//src/hid/disp/display.h ****                 {
 420:../../libDaisy//src/hid/disp/display.h ****                     ((ChildType*)(this))
 421:../../libDaisy//src/hid/disp/display.h ****                         ->ChildType::DrawPixel(
 422:../../libDaisy//src/hid/disp/display.h ****                             currentX_ + j, (currentY_ + i), on);
 423:../../libDaisy//src/hid/disp/display.h ****                 }
 424:../../libDaisy//src/hid/disp/display.h ****                 else
 425:../../libDaisy//src/hid/disp/display.h ****                 {
 426:../../libDaisy//src/hid/disp/display.h ****                     ((ChildType*)(this))
 427:../../libDaisy//src/hid/disp/display.h ****                         ->ChildType::DrawPixel(
 428:../../libDaisy//src/hid/disp/display.h ****                             currentX_ + j, (currentY_ + i), !on);
 429:../../libDaisy//src/hid/disp/display.h ****                 }
 430:../../libDaisy//src/hid/disp/display.h ****             }
 431:../../libDaisy//src/hid/disp/display.h ****         }
 432:../../libDaisy//src/hid/disp/display.h **** 
 433:../../libDaisy//src/hid/disp/display.h ****         // The current space is now taken
 434:../../libDaisy//src/hid/disp/display.h ****         SetCursor(currentX_ + font.FontWidth, currentY_);
 435:../../libDaisy//src/hid/disp/display.h **** 
 436:../../libDaisy//src/hid/disp/display.h ****         // Return written char for validation
 437:../../libDaisy//src/hid/disp/display.h ****         return ch;
 438:../../libDaisy//src/hid/disp/display.h ****     }
 439:../../libDaisy//src/hid/disp/display.h **** 
 440:../../libDaisy//src/hid/disp/display.h ****     char WriteString(const char* str, FontDef font, bool on) override
 3453              		.loc 3 440 10 is_stmt 1 view -0
 3454              		.cfi_startproc
 3455              		@ args = 4, pretend = 0, frame = 32
 3456              		@ frame_needed = 0, uses_anonymous_args = 0
 3457              		.loc 3 440 10 is_stmt 0 view .LVU927
 3458 0000 2DE9F04F 		push	{r4, r5, r6, r7, r8, r9, r10, fp, lr}
 3459              		.cfi_def_cfa_offset 36
ARM GAS  /var/folders/1y/_321xjh9623c014x9_qw12rr0000gn/T//ccXuncwa.s 			page 109


 3460              		.cfi_offset 4, -36
 3461              		.cfi_offset 5, -32
 3462              		.cfi_offset 6, -28
 3463              		.cfi_offset 7, -24
 3464              		.cfi_offset 8, -20
 3465              		.cfi_offset 9, -16
 3466              		.cfi_offset 10, -12
 3467              		.cfi_offset 11, -8
 3468              		.cfi_offset 14, -4
 3469 0004 89B0     		sub	sp, sp, #36
 3470              		.cfi_def_cfa_offset 72
 3471              		.loc 3 440 10 view .LVU928
 3472 0006 08AC     		add	r4, sp, #32
 3473 0008 9DF84870 		ldrb	r7, [sp, #72]	@ zero_extendqisi2
 3474 000c 0191     		str	r1, [sp, #4]
 3475 000e 04E90C00 		stmdb	r4, {r2, r3}
 441:../../libDaisy//src/hid/disp/display.h ****     {
 442:../../libDaisy//src/hid/disp/display.h ****         // Write until null-byte
 443:../../libDaisy//src/hid/disp/display.h ****         while(*str)
 3476              		.loc 3 443 9 is_stmt 1 view .LVU929
 3477 0012 0B78     		ldrb	r3, [r1]	@ zero_extendqisi2
 3478 0014 002B     		cmp	r3, #0
 3479 0016 00F0AB80 		beq	.L241
 3480 001a 1A46     		mov	r2, r3
 3481 001c 9DF81880 		ldrb	r8, [sp, #24]	@ zero_extendqisi2
 3482 0020 9DF81930 		ldrb	r3, [sp, #25]	@ zero_extendqisi2
 3483 0024 0646     		mov	r6, r0
 3484 0026 4546     		mov	r5, r8
 3485 0028 9046     		mov	r8, r2
 3486 002a 0393     		str	r3, [sp, #12]
 3487 002c 079B     		ldr	r3, [sp, #28]
 3488 002e 0593     		str	r3, [sp, #20]
 3489              	.LVL246:
 3490              	.L242:
 3491              	.LBB820:
 3492              	.LBI820:
 396:../../libDaisy//src/hid/disp/display.h ****     {
 3493              		.loc 3 396 10 view .LVU930
 3494              	.LBB821:
 401:../../libDaisy//src/hid/disp/display.h ****             return 0;
 3495              		.loc 3 401 20 is_stmt 0 view .LVU931
 3496 0030 A8F12004 		sub	r4, r8, #32
 401:../../libDaisy//src/hid/disp/display.h ****             return 0;
 3497              		.loc 3 401 9 view .LVU932
 3498 0034 E3B2     		uxtb	r3, r4
 3499 0036 5E2B     		cmp	r3, #94
 3500 0038 00F29E80 		bhi	.L223
 405:../../libDaisy//src/hid/disp/display.h ****            || Height() < (currentY_ + font.FontHeight))
 3501              		.loc 3 405 17 view .LVU933
 3502 003c 3368     		ldr	r3, [r6]
 3503 003e 5E4A     		ldr	r2, .L263
 3504 0040 DB68     		ldr	r3, [r3, #12]
 3505 0042 9342     		cmp	r3, r2
 3506 0044 40F09B80 		bne	.L256
 3507 0048 8020     		movs	r0, #128
 3508              	.L222:
 405:../../libDaisy//src/hid/disp/display.h ****            || Height() < (currentY_ + font.FontHeight))
ARM GAS  /var/folders/1y/_321xjh9623c014x9_qw12rr0000gn/T//ccXuncwa.s 			page 110


 3509              		.loc 3 405 23 view .LVU934
 3510 004a B388     		ldrh	r3, [r6, #4]
 405:../../libDaisy//src/hid/disp/display.h ****            || Height() < (currentY_ + font.FontHeight))
 3511              		.loc 3 405 33 view .LVU935
 3512 004c 2B44     		add	r3, r3, r5
 406:../../libDaisy//src/hid/disp/display.h ****         {
 3513              		.loc 3 406 12 view .LVU936
 3514 004e 8342     		cmp	r3, r0
 3515 0050 00F39280 		bgt	.L223
 406:../../libDaisy//src/hid/disp/display.h ****         {
 3516              		.loc 3 406 21 view .LVU937
 3517 0054 3368     		ldr	r3, [r6]
 3518 0056 594A     		ldr	r2, .L263+4
 3519 0058 9B68     		ldr	r3, [r3, #8]
 3520 005a 9342     		cmp	r3, r2
 3521 005c 40F09280 		bne	.L257
 3522 0060 4020     		movs	r0, #64
 3523              	.L224:
 406:../../libDaisy//src/hid/disp/display.h ****         {
 3524              		.loc 3 406 27 view .LVU938
 3525 0062 F188     		ldrh	r1, [r6, #6]
 406:../../libDaisy//src/hid/disp/display.h ****         {
 3526              		.loc 3 406 37 view .LVU939
 3527 0064 039A     		ldr	r2, [sp, #12]
 406:../../libDaisy//src/hid/disp/display.h ****         {
 3528              		.loc 3 406 27 view .LVU940
 3529 0066 0291     		str	r1, [sp, #8]
 406:../../libDaisy//src/hid/disp/display.h ****         {
 3530              		.loc 3 406 37 view .LVU941
 3531 0068 8B18     		adds	r3, r1, r2
 406:../../libDaisy//src/hid/disp/display.h ****         {
 3532              		.loc 3 406 12 view .LVU942
 3533 006a 8342     		cmp	r3, r0
 3534 006c 00F38480 		bgt	.L223
 3535              	.LVL247:
 413:../../libDaisy//src/hid/disp/display.h ****         {
 3536              		.loc 3 413 22 is_stmt 1 view .LVU943
 3537 0070 002A     		cmp	r2, #0
 3538 0072 00F09180 		beq	.L225
 415:../../libDaisy//src/hid/disp/display.h ****             for(j = 0; j < font.FontWidth; j++)
 3539              		.loc 3 415 37 is_stmt 0 view .LVU944
 3540 0076 02FB04F4 		mul	r4, r2, r4
 3541 007a 6FF00049 		mvn	r9, #-2147483648
 3542 007e 059B     		ldr	r3, [sp, #20]
 3543 0080 A144     		add	r9, r9, r4
 3544 0082 1444     		add	r4, r4, r2
 434:../../libDaisy//src/hid/disp/display.h **** 
 3545              		.loc 3 434 19 view .LVU945
 3546 0084 B6F804B0 		ldrh	fp, [r6, #4]
 3547 0088 03EB4909 		add	r9, r3, r9, lsl #1
 3548 008c 023B     		subs	r3, r3, #2
 3549 008e CDF81080 		str	r8, [sp, #16]
 3550 0092 03EB4403 		add	r3, r3, r4, lsl #1
 3551 0096 0C46     		mov	r4, r1
 3552 0098 9A46     		mov	r10, r3
 3553              	.LVL248:
 3554              	.L228:
ARM GAS  /var/folders/1y/_321xjh9623c014x9_qw12rr0000gn/T//ccXuncwa.s 			page 111


 415:../../libDaisy//src/hid/disp/display.h ****             for(j = 0; j < font.FontWidth; j++)
 3555              		.loc 3 415 15 view .LVU946
 3556 009a 39F802CF 		ldrh	ip, [r9, #2]!
 3557              	.LVL249:
 416:../../libDaisy//src/hid/disp/display.h ****             {
 3558              		.loc 3 416 26 is_stmt 1 view .LVU947
 3559 009e A5B3     		cbz	r5, .L233
 3560              	.LBB822:
 3561              	.LBB823:
 3562              	.LBB824:
 3563              	.LBB825:
 3564              	.LBB826:
 359:../../libDaisy//src/dev/oled_ssd130x.h ****     }
 3565              		.loc 4 359 55 is_stmt 0 view .LVU948
 3566 00a0 04F00703 		and	r3, r4, #7
 359:../../libDaisy//src/dev/oled_ssd130x.h ****     }
 3567              		.loc 4 359 49 view .LVU949
 3568 00a4 4FF0010E 		mov	lr, #1
 359:../../libDaisy//src/dev/oled_ssd130x.h ****     }
 3569              		.loc 4 359 28 view .LVU950
 3570 00a8 E208     		lsrs	r2, r4, #3
 3571 00aa 5946     		mov	r1, fp
 359:../../libDaisy//src/dev/oled_ssd130x.h ****     }
 3572              		.loc 4 359 49 view .LVU951
 3573 00ac 0EFA03FE 		lsl	lr, lr, r3
 3574 00b0 0BF11403 		add	r3, fp, #20
 359:../../libDaisy//src/dev/oled_ssd130x.h ****     }
 3575              		.loc 4 359 42 view .LVU952
 3576 00b4 4FFA8EFE 		sxtb	lr, lr
 3577 00b8 03EBC212 		add	r2, r3, r2, lsl #7
 3578              	.LBE826:
 3579              	.LBE825:
 3580              	.LBE824:
 3581              	.LBE823:
 3582              	.LBE822:
 416:../../libDaisy//src/hid/disp/display.h ****             {
 3583              		.loc 3 416 19 view .LVU953
 3584 00bc 0023     		movs	r3, #0
 3585              	.LBB844:
 3586              	.LBB839:
 3587              	.LBB834:
 3588              	.LBB830:
 3589              	.LBB827:
 359:../../libDaisy//src/dev/oled_ssd130x.h ****     }
 3590              		.loc 4 359 42 view .LVU954
 3591 00be 6FEA0E08 		mvn	r8, lr
 3592 00c2 3244     		add	r2, r2, r6
 3593 00c4 0DE0     		b	.L234
 3594              	.LVL250:
 3595              	.L258:
 359:../../libDaisy//src/dev/oled_ssd130x.h ****     }
 3596              		.loc 4 359 42 view .LVU955
 3597              	.LBE827:
 3598              	.LBE830:
 3599              	.LBE834:
 3600              	.LBE839:
 3601              	.LBE844:
ARM GAS  /var/folders/1y/_321xjh9623c014x9_qw12rr0000gn/T//ccXuncwa.s 			page 112


 3602              	.LBB845:
 3603              	.LBI845:
  42:../../libDaisy//src/hid/disp/oled_display.h ****     {
 3604              		.loc 1 42 10 is_stmt 1 view .LVU956
 3605              	.LBB846:
 3606              	.LBI846:
 352:../../libDaisy//src/dev/oled_ssd130x.h ****     {
 3607              		.loc 4 352 10 view .LVU957
 3608              	.LBB847:
 354:../../libDaisy//src/dev/oled_ssd130x.h ****             return;
 3609              		.loc 4 354 9 is_stmt 0 view .LVU958
 3610 00c6 7F29     		cmp	r1, #127
 3611 00c8 06D8     		bhi	.L230
 3612 00ca 3F2C     		cmp	r4, #63
 3613 00cc 04D8     		bhi	.L230
 357:../../libDaisy//src/dev/oled_ssd130x.h ****         else
 3614              		.loc 4 357 42 view .LVU959
 3615 00ce 1078     		ldrb	r0, [r2]	@ zero_extendqisi2
 356:../../libDaisy//src/dev/oled_ssd130x.h ****             buffer_[x + (y / 8) * width] |= (1 << (y % 8));
 3616              		.loc 4 356 9 view .LVU960
 3617 00d0 97B1     		cbz	r7, .L232
 3618              	.L255:
 356:../../libDaisy//src/dev/oled_ssd130x.h ****             buffer_[x + (y / 8) * width] |= (1 << (y % 8));
 3619              		.loc 4 356 9 view .LVU961
 3620              	.LBE847:
 3621              	.LBE846:
 3622              	.LBE845:
 3623              	.LBB848:
 3624              	.LBB840:
 3625              	.LBB835:
 357:../../libDaisy//src/dev/oled_ssd130x.h ****         else
 3626              		.loc 4 357 42 view .LVU962
 3627 00d2 4EEA0000 		orr	r0, lr, r0
 3628 00d6 1070     		strb	r0, [r2]
 3629              	.L230:
 3630              	.LBE835:
 3631              	.LBE840:
 3632              	.LBE848:
 416:../../libDaisy//src/hid/disp/display.h ****             {
 3633              		.loc 3 416 13 is_stmt 1 view .LVU963
 3634 00d8 0133     		adds	r3, r3, #1
 3635              	.LVL251:
 416:../../libDaisy//src/hid/disp/display.h ****             {
 3636              		.loc 3 416 26 view .LVU964
 3637 00da 0132     		adds	r2, r2, #1
 3638 00dc 0131     		adds	r1, r1, #1
 3639 00de AB42     		cmp	r3, r5
 3640 00e0 13D0     		beq	.L233
 3641              	.LVL252:
 3642              	.L234:
 418:../../libDaisy//src/hid/disp/display.h ****                 {
 3643              		.loc 3 418 23 is_stmt 0 view .LVU965
 3644 00e2 0CFA03F0 		lsl	r0, ip, r3
 418:../../libDaisy//src/hid/disp/display.h ****                 {
 3645              		.loc 3 418 17 view .LVU966
 3646 00e6 0004     		lsls	r0, r0, #16
 3647 00e8 EDD4     		bmi	.L258
ARM GAS  /var/folders/1y/_321xjh9623c014x9_qw12rr0000gn/T//ccXuncwa.s 			page 113


 3648              	.LVL253:
 3649              	.LBB849:
 3650              	.LBI822:
  42:../../libDaisy//src/hid/disp/oled_display.h ****     {
 3651              		.loc 1 42 10 is_stmt 1 view .LVU967
 3652              	.LBB841:
 3653              	.LBI823:
 352:../../libDaisy//src/dev/oled_ssd130x.h ****     {
 3654              		.loc 4 352 10 view .LVU968
 3655              	.LBB836:
 354:../../libDaisy//src/dev/oled_ssd130x.h ****             return;
 3656              		.loc 4 354 9 is_stmt 0 view .LVU969
 3657 00ea 7F29     		cmp	r1, #127
 3658 00ec F4D8     		bhi	.L230
 3659 00ee 3F2C     		cmp	r4, #63
 3660 00f0 F2D8     		bhi	.L230
 357:../../libDaisy//src/dev/oled_ssd130x.h ****         else
 3661              		.loc 4 357 42 view .LVU970
 3662 00f2 1078     		ldrb	r0, [r2]	@ zero_extendqisi2
 356:../../libDaisy//src/dev/oled_ssd130x.h ****             buffer_[x + (y / 8) * width] |= (1 << (y % 8));
 3663              		.loc 4 356 9 view .LVU971
 3664 00f4 002F     		cmp	r7, #0
 3665 00f6 ECD0     		beq	.L255
 3666              	.L232:
 3667              	.LVL254:
 3668              	.LBB831:
 3669              	.LBI825:
 352:../../libDaisy//src/dev/oled_ssd130x.h ****     {
 3670              		.loc 4 352 10 is_stmt 1 view .LVU972
 352:../../libDaisy//src/dev/oled_ssd130x.h ****     {
 3671              		.loc 4 352 10 is_stmt 0 view .LVU973
 3672              	.LBE831:
 3673              	.LBE836:
 3674              	.LBE841:
 3675              	.LBE849:
 416:../../libDaisy//src/hid/disp/display.h ****             {
 3676              		.loc 3 416 13 view .LVU974
 3677 00f8 0133     		adds	r3, r3, #1
 3678              	.LVL255:
 3679              	.LBB850:
 3680              	.LBB842:
 3681              	.LBB837:
 3682              	.LBB832:
 3683              	.LBB828:
 359:../../libDaisy//src/dev/oled_ssd130x.h ****     }
 3684              		.loc 4 359 42 view .LVU975
 3685 00fa 08EA0000 		and	r0, r8, r0
 3686              	.LBE828:
 3687              	.LBE832:
 3688              	.LBE837:
 3689              	.LBE842:
 3690              	.LBE850:
 416:../../libDaisy//src/hid/disp/display.h ****             {
 3691              		.loc 3 416 26 view .LVU976
 3692 00fe 0132     		adds	r2, r2, #1
 3693 0100 0131     		adds	r1, r1, #1
 3694 0102 AB42     		cmp	r3, r5
ARM GAS  /var/folders/1y/_321xjh9623c014x9_qw12rr0000gn/T//ccXuncwa.s 			page 114


 3695              	.LBB851:
 3696              	.LBB843:
 3697              	.LBB838:
 3698              	.LBB833:
 3699              	.LBB829:
 359:../../libDaisy//src/dev/oled_ssd130x.h ****     }
 3700              		.loc 4 359 42 view .LVU977
 3701 0104 02F8010C 		strb	r0, [r2, #-1]
 359:../../libDaisy//src/dev/oled_ssd130x.h ****     }
 3702              		.loc 4 359 42 view .LVU978
 3703              	.LBE829:
 3704              	.LBE833:
 3705              	.LBE838:
 3706              	.LBE843:
 3707              	.LBE851:
 416:../../libDaisy//src/hid/disp/display.h ****             {
 3708              		.loc 3 416 13 is_stmt 1 view .LVU979
 3709              	.LVL256:
 416:../../libDaisy//src/hid/disp/display.h ****             {
 3710              		.loc 3 416 26 view .LVU980
 3711 0108 EBD1     		bne	.L234
 3712              	.LVL257:
 3713              	.L233:
 413:../../libDaisy//src/hid/disp/display.h ****         {
 3714              		.loc 3 413 9 view .LVU981
 413:../../libDaisy//src/hid/disp/display.h ****         {
 3715              		.loc 3 413 22 view .LVU982
 3716 010a D145     		cmp	r9, r10
 3717 010c 04F10104 		add	r4, r4, #1
 3718 0110 C3D1     		bne	.L228
 3719 0112 DDF81080 		ldr	r8, [sp, #16]
 3720              	.LVL258:
 3721              	.L227:
 3722              	.LBB852:
 3723              	.LBB853:
 173:../../libDaisy//src/hid/disp/display.h ****         currentY_ = (y >= Height()) ? Height() - 1 : y;
 3724              		.loc 3 173 33 is_stmt 0 view .LVU983
 3725 0116 3268     		ldr	r2, [r6]
 3726              	.LBE853:
 3727              	.LBE852:
 434:../../libDaisy//src/hid/disp/display.h **** 
 3728              		.loc 3 434 18 view .LVU984
 3729 0118 0BEB0504 		add	r4, fp, r5
 3730 011c 2649     		ldr	r1, .L263
 3731              	.LBB858:
 3732              	.LBB854:
 173:../../libDaisy//src/hid/disp/display.h ****         currentY_ = (y >= Height()) ? Height() - 1 : y;
 3733              		.loc 3 173 33 view .LVU985
 3734 011e D368     		ldr	r3, [r2, #12]
 3735              	.LBE854:
 3736              	.LBE858:
 434:../../libDaisy//src/hid/disp/display.h **** 
 3737              		.loc 3 434 18 view .LVU986
 3738 0120 A4B2     		uxth	r4, r4
 3739              	.LVL259:
 3740              	.LBB859:
 3741              	.LBI852:
ARM GAS  /var/folders/1y/_321xjh9623c014x9_qw12rr0000gn/T//ccXuncwa.s 			page 115


 171:../../libDaisy//src/hid/disp/display.h ****     {
 3742              		.loc 3 171 10 is_stmt 1 view .LVU987
 3743              	.LBB855:
 173:../../libDaisy//src/hid/disp/display.h ****         currentY_ = (y >= Height()) ? Height() - 1 : y;
 3744              		.loc 3 173 9 view .LVU988
 3745 0122 8B42     		cmp	r3, r1
 3746 0124 34D1     		bne	.L259
 173:../../libDaisy//src/hid/disp/display.h ****         currentY_ = (y >= Height()) ? Height() - 1 : y;
 3747              		.loc 3 173 33 is_stmt 0 view .LVU989
 3748 0126 8020     		movs	r0, #128
 3749              	.L235:
 173:../../libDaisy//src/hid/disp/display.h ****         currentY_ = (y >= Height()) ? Height() - 1 : y;
 3750              		.loc 3 173 19 view .LVU990
 3751 0128 8442     		cmp	r4, r0
 3752 012a 04D3     		bcc	.L236
 173:../../libDaisy//src/hid/disp/display.h ****         currentY_ = (y >= Height()) ? Height() - 1 : y;
 3753              		.loc 3 173 44 view .LVU991
 3754 012c D368     		ldr	r3, [r2, #12]
 3755 012e 2249     		ldr	r1, .L263
 3756 0130 8B42     		cmp	r3, r1
 3757 0132 3AD1     		bne	.L260
 3758 0134 7F24     		movs	r4, #127
 3759              	.LVL260:
 3760              	.L236:
 174:../../libDaisy//src/hid/disp/display.h ****     }
 3761              		.loc 3 174 34 view .LVU992
 3762 0136 9368     		ldr	r3, [r2, #8]
 3763 0138 204A     		ldr	r2, .L263+4
 173:../../libDaisy//src/hid/disp/display.h ****         currentY_ = (y >= Height()) ? Height() - 1 : y;
 3764              		.loc 3 173 19 view .LVU993
 3765 013a B480     		strh	r4, [r6, #4]	@ movhi
 174:../../libDaisy//src/hid/disp/display.h ****     }
 3766              		.loc 3 174 9 is_stmt 1 view .LVU994
 3767 013c 9342     		cmp	r3, r2
 3768 013e 24D1     		bne	.L261
 174:../../libDaisy//src/hid/disp/display.h ****     }
 3769              		.loc 3 174 34 is_stmt 0 view .LVU995
 3770 0140 4020     		movs	r0, #64
 3771              	.L238:
 174:../../libDaisy//src/hid/disp/display.h ****     }
 3772              		.loc 3 174 19 view .LVU996
 3773 0142 029B     		ldr	r3, [sp, #8]
 3774 0144 8342     		cmp	r3, r0
 3775 0146 06D3     		bcc	.L239
 174:../../libDaisy//src/hid/disp/display.h ****     }
 3776              		.loc 3 174 46 view .LVU997
 3777 0148 3368     		ldr	r3, [r6]
 3778 014a 1C4A     		ldr	r2, .L263+4
 3779 014c 9B68     		ldr	r3, [r3, #8]
 3780 014e 9342     		cmp	r3, r2
 3781 0150 25D1     		bne	.L262
 3782 0152 3F23     		movs	r3, #63
 3783 0154 0293     		str	r3, [sp, #8]
 3784              	.LVL261:
 3785              	.L239:
 174:../../libDaisy//src/hid/disp/display.h ****     }
 3786              		.loc 3 174 19 view .LVU998
ARM GAS  /var/folders/1y/_321xjh9623c014x9_qw12rr0000gn/T//ccXuncwa.s 			page 116


 3787 0156 029B     		ldr	r3, [sp, #8]
 3788 0158 F380     		strh	r3, [r6, #6]	@ movhi
 3789              	.LVL262:
 3790              	.L221:
 174:../../libDaisy//src/hid/disp/display.h ****     }
 3791              		.loc 3 174 19 view .LVU999
 3792              	.LBE855:
 3793              	.LBE859:
 3794              	.LBE821:
 3795              	.LBE820:
 444:../../libDaisy//src/hid/disp/display.h ****         {
 445:../../libDaisy//src/hid/disp/display.h ****             if(((ChildType*)(this))->ChildType::WriteChar(*str, font, on)
 446:../../libDaisy//src/hid/disp/display.h ****                != *str)
 3796              		.loc 3 446 16 view .LVU1000
 3797 015a 019B     		ldr	r3, [sp, #4]
 3798 015c 1878     		ldrb	r0, [r3]	@ zero_extendqisi2
 445:../../libDaisy//src/hid/disp/display.h ****                != *str)
 3799              		.loc 3 445 13 view .LVU1001
 3800 015e 4045     		cmp	r0, r8
 3801 0160 07D1     		bne	.L219
 3802              	.LVL263:
 443:../../libDaisy//src/hid/disp/display.h ****         {
 3803              		.loc 3 443 9 is_stmt 1 view .LVU1002
 3804 0162 13F8018F 		ldrb	r8, [r3, #1]!	@ zero_extendqisi2
 3805              	.LVL264:
 443:../../libDaisy//src/hid/disp/display.h ****         {
 3806              		.loc 3 443 9 is_stmt 0 view .LVU1003
 3807 0166 0193     		str	r3, [sp, #4]
 3808 0168 B8F1000F 		cmp	r8, #0
 3809 016c 7FF460AF 		bne	.L242
 3810              	.LVL265:
 3811              	.L241:
 3812              	.LBB864:
 3813              	.LBB862:
 402:../../libDaisy//src/hid/disp/display.h **** 
 3814              		.loc 3 402 20 view .LVU1004
 3815 0170 0020     		movs	r0, #0
 3816              	.L219:
 3817              	.LBE862:
 3818              	.LBE864:
 447:../../libDaisy//src/hid/disp/display.h ****             {
 448:../../libDaisy//src/hid/disp/display.h ****                 // Char could not be written
 449:../../libDaisy//src/hid/disp/display.h ****                 return *str;
 450:../../libDaisy//src/hid/disp/display.h ****             }
 451:../../libDaisy//src/hid/disp/display.h **** 
 452:../../libDaisy//src/hid/disp/display.h ****             // Next char
 453:../../libDaisy//src/hid/disp/display.h ****             str++;
 454:../../libDaisy//src/hid/disp/display.h ****         }
 455:../../libDaisy//src/hid/disp/display.h **** 
 456:../../libDaisy//src/hid/disp/display.h ****         // Everything ok
 457:../../libDaisy//src/hid/disp/display.h ****         return *str;
 458:../../libDaisy//src/hid/disp/display.h ****     }
 3819              		.loc 3 458 5 view .LVU1005
 3820 0172 09B0     		add	sp, sp, #36
 3821              		.cfi_remember_state
 3822              		.cfi_def_cfa_offset 36
 3823              		@ sp needed
ARM GAS  /var/folders/1y/_321xjh9623c014x9_qw12rr0000gn/T//ccXuncwa.s 			page 117


 3824 0174 BDE8F08F 		pop	{r4, r5, r6, r7, r8, r9, r10, fp, pc}
 3825              	.LVL266:
 3826              	.L223:
 3827              		.cfi_restore_state
 3828              	.LBB865:
 3829              	.LBB863:
 402:../../libDaisy//src/hid/disp/display.h **** 
 3830              		.loc 3 402 20 view .LVU1006
 3831 0178 4FF00008 		mov	r8, #0
 3832              	.LVL267:
 402:../../libDaisy//src/hid/disp/display.h **** 
 3833              		.loc 3 402 20 view .LVU1007
 3834 017c EDE7     		b	.L221
 3835              	.LVL268:
 3836              	.L256:
 405:../../libDaisy//src/hid/disp/display.h ****            || Height() < (currentY_ + font.FontHeight))
 3837              		.loc 3 405 17 view .LVU1008
 3838 017e 3046     		mov	r0, r6
 3839 0180 9847     		blx	r3
 3840              	.LVL269:
 3841 0182 62E7     		b	.L222
 3842              	.L257:
 406:../../libDaisy//src/hid/disp/display.h ****         {
 3843              		.loc 3 406 21 view .LVU1009
 3844 0184 3046     		mov	r0, r6
 3845 0186 9847     		blx	r3
 3846              	.LVL270:
 3847 0188 6BE7     		b	.L224
 3848              	.LVL271:
 3849              	.L261:
 3850              	.LBB860:
 3851              	.LBB856:
 174:../../libDaisy//src/hid/disp/display.h ****     }
 3852              		.loc 3 174 33 view .LVU1010
 3853 018a 3046     		mov	r0, r6
 3854 018c 9847     		blx	r3
 3855              	.LVL272:
 3856 018e D8E7     		b	.L238
 3857              	.LVL273:
 3858              	.L259:
 173:../../libDaisy//src/hid/disp/display.h ****         currentY_ = (y >= Height()) ? Height() - 1 : y;
 3859              		.loc 3 173 32 view .LVU1011
 3860 0190 3046     		mov	r0, r6
 3861 0192 9847     		blx	r3
 3862              	.LVL274:
 173:../../libDaisy//src/hid/disp/display.h ****         currentY_ = (y >= Height()) ? Height() - 1 : y;
 3863              		.loc 3 173 44 view .LVU1012
 3864 0194 3268     		ldr	r2, [r6]
 3865 0196 C7E7     		b	.L235
 3866              	.LVL275:
 3867              	.L225:
 173:../../libDaisy//src/hid/disp/display.h ****         currentY_ = (y >= Height()) ? Height() - 1 : y;
 3868              		.loc 3 173 44 view .LVU1013
 3869              	.LBE856:
 3870              	.LBE860:
 434:../../libDaisy//src/hid/disp/display.h **** 
 3871              		.loc 3 434 19 view .LVU1014
ARM GAS  /var/folders/1y/_321xjh9623c014x9_qw12rr0000gn/T//ccXuncwa.s 			page 118


 3872 0198 B6F804B0 		ldrh	fp, [r6, #4]
 3873 019c BBE7     		b	.L227
 3874              	.LVL276:
 3875              	.L262:
 3876              	.LBB861:
 3877              	.LBB857:
 174:../../libDaisy//src/hid/disp/display.h ****     }
 3878              		.loc 3 174 45 view .LVU1015
 3879 019e 3046     		mov	r0, r6
 3880 01a0 9847     		blx	r3
 3881              	.LVL277:
 174:../../libDaisy//src/hid/disp/display.h ****     }
 3882              		.loc 3 174 19 view .LVU1016
 3883 01a2 0138     		subs	r0, r0, #1
 3884 01a4 83B2     		uxth	r3, r0
 3885 01a6 0293     		str	r3, [sp, #8]
 3886              	.LVL278:
 174:../../libDaisy//src/hid/disp/display.h ****     }
 3887              		.loc 3 174 19 view .LVU1017
 3888 01a8 D5E7     		b	.L239
 3889              	.LVL279:
 3890              	.L260:
 173:../../libDaisy//src/hid/disp/display.h ****         currentY_ = (y >= Height()) ? Height() - 1 : y;
 3891              		.loc 3 173 43 view .LVU1018
 3892 01aa 3046     		mov	r0, r6
 3893 01ac 9847     		blx	r3
 3894              	.LVL280:
 173:../../libDaisy//src/hid/disp/display.h ****         currentY_ = (y >= Height()) ? Height() - 1 : y;
 3895              		.loc 3 173 19 view .LVU1019
 3896 01ae 0138     		subs	r0, r0, #1
 174:../../libDaisy//src/hid/disp/display.h ****     }
 3897              		.loc 3 174 34 view .LVU1020
 3898 01b0 3268     		ldr	r2, [r6]
 173:../../libDaisy//src/hid/disp/display.h ****         currentY_ = (y >= Height()) ? Height() - 1 : y;
 3899              		.loc 3 173 19 view .LVU1021
 3900 01b2 84B2     		uxth	r4, r0
 3901              	.LVL281:
 173:../../libDaisy//src/hid/disp/display.h ****         currentY_ = (y >= Height()) ? Height() - 1 : y;
 3902              		.loc 3 173 19 view .LVU1022
 3903 01b4 BFE7     		b	.L236
 3904              	.L264:
 3905 01b6 00BF     		.align	2
 3906              	.L263:
 3907 01b8 00000000 		.word	_ZNK5daisy11OledDisplayINS_13SSD130xDriverILj128ELj64ENS_24SSD130x4WireSpiTransportEEEE5Widt
 3908 01bc 00000000 		.word	_ZNK5daisy11OledDisplayINS_13SSD130xDriverILj128ELj64ENS_24SSD130x4WireSpiTransportEEEE6Heig
 3909              	.LBE857:
 3910              	.LBE861:
 3911              	.LBE863:
 3912              	.LBE865:
 3913              		.cfi_endproc
 3914              	.LFE2625:
 3916              		.section	.text._ZN5daisy5Dubby18HightlightMenuItemEv,"ax",%progbits
 3917              		.align	1
 3918              		.p2align 2,,3
 3919              		.global	_ZN5daisy5Dubby18HightlightMenuItemEv
 3920              		.syntax unified
 3921              		.thumb
ARM GAS  /var/folders/1y/_321xjh9623c014x9_qw12rr0000gn/T//ccXuncwa.s 			page 119


 3922              		.thumb_func
 3924              	_ZN5daisy5Dubby18HightlightMenuItemEv:
 3925              	.LVL282:
 3926              	.LFB2582:
 195:Dubby.cpp     **** {
 3927              		.loc 2 195 1 is_stmt 1 view -0
 3928              		.cfi_startproc
 3929              		@ args = 0, pretend = 0, frame = 8
 3930              		@ frame_needed = 0, uses_anonymous_args = 0
 196:Dubby.cpp     ****     display.DrawRect(menuBoxBounding[menuItemSelected][0], menuBoxBounding[menuItemSelected][1], me
 3931              		.loc 2 196 5 view .LVU1024
 195:Dubby.cpp     **** {
 3932              		.loc 2 195 1 is_stmt 0 view .LVU1025
 3933 0000 2DE9F043 		push	{r4, r5, r6, r7, r8, r9, lr}
 3934              		.cfi_def_cfa_offset 28
 3935              		.cfi_offset 4, -28
 3936              		.cfi_offset 5, -24
 3937              		.cfi_offset 6, -20
 3938              		.cfi_offset 7, -16
 3939              		.cfi_offset 8, -12
 3940              		.cfi_offset 9, -8
 3941              		.cfi_offset 14, -4
 196:Dubby.cpp     ****     display.DrawRect(menuBoxBounding[menuItemSelected][0], menuBoxBounding[menuItemSelected][1], me
 3942              		.loc 2 196 38 view .LVU1026
 3943 0004 90F858E0 		ldrb	lr, [r0, #88]	@ zero_extendqisi2
 195:Dubby.cpp     **** {
 3944              		.loc 2 195 1 view .LVU1027
 3945 0008 0446     		mov	r4, r0
 196:Dubby.cpp     ****     display.DrawRect(menuBoxBounding[menuItemSelected][0], menuBoxBounding[menuItemSelected][1], me
 3946              		.loc 2 196 21 view .LVU1028
 3947 000a 00F58265 		add	r5, r0, #1040
 195:Dubby.cpp     **** {
 3948              		.loc 2 195 1 view .LVU1029
 3949 000e 85B0     		sub	sp, sp, #20
 3950              		.cfi_def_cfa_offset 48
 196:Dubby.cpp     ****     display.DrawRect(menuBoxBounding[menuItemSelected][0], menuBoxBounding[menuItemSelected][1], me
 3951              		.loc 2 196 95 view .LVU1030
 3952 0010 00EB0E13 		add	r3, r0, lr, lsl #4
 196:Dubby.cpp     ****     display.DrawRect(menuBoxBounding[menuItemSelected][0], menuBoxBounding[menuItemSelected][1], me
 3953              		.loc 2 196 21 view .LVU1031
 3954 0014 586F     		ldr	r0, [r3, #116]
 3955              	.LVL283:
 196:Dubby.cpp     ****     display.DrawRect(menuBoxBounding[menuItemSelected][0], menuBoxBounding[menuItemSelected][1], me
 3956              		.loc 2 196 21 view .LVU1032
 3957 0016 D3F88060 		ldr	r6, [r3, #128]
 3958              	.LVL284:
 196:Dubby.cpp     ****     display.DrawRect(menuBoxBounding[menuItemSelected][0], menuBoxBounding[menuItemSelected][1], me
 3959              		.loc 2 196 21 view .LVU1033
 3960 001a D3E91EC8 		ldrd	ip, r8, [r3, #120]
 3961              	.LVL285:
 3962              	.LBB973:
 3963              	.LBI973:
 257:../../libDaisy//src/hid/disp/display.h ****                   uint_fast8_t y1,
 3964              		.loc 3 257 10 is_stmt 1 view .LVU1034
 3965              	.LBB974:
 3966              	.LBI974:
 257:../../libDaisy//src/hid/disp/display.h ****                   uint_fast8_t y1,
ARM GAS  /var/folders/1y/_321xjh9623c014x9_qw12rr0000gn/T//ccXuncwa.s 			page 120


 3967              		.loc 3 257 10 view .LVU1035
 3968              	.LBB975:
 266:../../libDaisy//src/hid/disp/display.h ****             {
 3969              		.loc 3 266 40 view .LVU1036
 3970 001e 4045     		cmp	r0, r8
 3971 0020 1ED8     		bhi	.L269
 3972              	.LVL286:
 3973              	.L266:
 3974              	.LBB976:
 268:../../libDaisy//src/hid/disp/display.h ****                 {
 3975              		.loc 3 268 44 view .LVU1037
 3976 0022 B445     		cmp	ip, r6
 3977 0024 19D8     		bhi	.L271
 3978              	.LBB977:
 3979              	.LBB978:
 3980              	.LBB979:
 354:../../libDaisy//src/dev/oled_ssd130x.h ****             return;
 3981              		.loc 4 354 14 is_stmt 0 view .LVU1038
 3982 0026 7F28     		cmp	r0, #127
 3983 0028 6346     		mov	r3, ip
 3984 002a 94BF     		ite	ls
 3985 002c 0027     		movls	r7, #0
 3986 002e 0127     		movhi	r7, #1
 3987              	.LVL287:
 3988              	.L272:
 354:../../libDaisy//src/dev/oled_ssd130x.h ****             return;
 3989              		.loc 4 354 14 view .LVU1039
 3990              	.LBE979:
 3991              	.LBE978:
 3992              	.LBI977:
  42:../../libDaisy//src/hid/disp/oled_display.h ****     {
 3993              		.loc 1 42 10 is_stmt 1 view .LVU1040
 3994              	.LBB983:
 3995              	.LBI978:
 352:../../libDaisy//src/dev/oled_ssd130x.h ****     {
 3996              		.loc 4 352 10 view .LVU1041
 352:../../libDaisy//src/dev/oled_ssd130x.h ****     {
 3997              		.loc 4 352 10 is_stmt 0 view .LVU1042
 3998              	.LBE983:
 3999              	.LBE977:
 268:../../libDaisy//src/hid/disp/display.h ****                 {
 4000              		.loc 3 268 17 is_stmt 1 view .LVU1043
 4001              	.LBB987:
 4002              	.LBB984:
 4003              	.LBB980:
 357:../../libDaisy//src/dev/oled_ssd130x.h ****         else
 4004              		.loc 4 357 28 is_stmt 0 view .LVU1044
 4005 0030 DA08     		lsrs	r2, r3, #3
 357:../../libDaisy//src/dev/oled_ssd130x.h ****         else
 4006              		.loc 4 357 54 view .LVU1045
 4007 0032 03F00709 		and	r9, r3, #7
 357:../../libDaisy//src/dev/oled_ssd130x.h ****         else
 4008              		.loc 4 357 48 view .LVU1046
 4009 0036 0121     		movs	r1, #1
 354:../../libDaisy//src/dev/oled_ssd130x.h ****             return;
 4010              		.loc 4 354 9 view .LVU1047
 4011 0038 3F2B     		cmp	r3, #63
ARM GAS  /var/folders/1y/_321xjh9623c014x9_qw12rr0000gn/T//ccXuncwa.s 			page 121


 357:../../libDaisy//src/dev/oled_ssd130x.h ****         else
 4012              		.loc 4 357 42 view .LVU1048
 4013 003a 00EBC212 		add	r2, r0, r2, lsl #7
 4014              	.LBE980:
 4015              	.LBE984:
 4016              	.LBE987:
 268:../../libDaisy//src/hid/disp/display.h ****                 {
 4017              		.loc 3 268 17 view .LVU1049
 4018 003e 0B44     		add	r3, r3, r1
 4019              	.LVL288:
 268:../../libDaisy//src/hid/disp/display.h ****                 {
 4020              		.loc 3 268 44 is_stmt 1 view .LVU1050
 4021              	.LBB988:
 4022              	.LBB985:
 4023              	.LBB981:
 357:../../libDaisy//src/dev/oled_ssd130x.h ****         else
 4024              		.loc 4 357 48 is_stmt 0 view .LVU1051
 4025 0040 01FA09F1 		lsl	r1, r1, r9
 354:../../libDaisy//src/dev/oled_ssd130x.h ****             return;
 4026              		.loc 4 354 9 view .LVU1052
 4027 0044 07D8     		bhi	.L270
 357:../../libDaisy//src/dev/oled_ssd130x.h ****         else
 4028              		.loc 4 357 42 view .LVU1053
 4029 0046 2244     		add	r2, r2, r4
 354:../../libDaisy//src/dev/oled_ssd130x.h ****             return;
 4030              		.loc 4 354 9 view .LVU1054
 4031 0048 2FB9     		cbnz	r7, .L270
 357:../../libDaisy//src/dev/oled_ssd130x.h ****         else
 4032              		.loc 4 357 42 view .LVU1055
 4033 004a 92F82494 		ldrb	r9, [r2, #1060]	@ zero_extendqisi2
 4034 004e 41EA0901 		orr	r1, r1, r9
 4035 0052 82F82414 		strb	r1, [r2, #1060]
 4036              	.L270:
 357:../../libDaisy//src/dev/oled_ssd130x.h ****         else
 4037              		.loc 4 357 42 view .LVU1056
 4038              	.LBE981:
 4039              	.LBE985:
 4040              	.LBE988:
 268:../../libDaisy//src/hid/disp/display.h ****                 {
 4041              		.loc 3 268 44 view .LVU1057
 4042 0056 9E42     		cmp	r6, r3
 4043 0058 EAD2     		bcs	.L272
 4044              	.LVL289:
 4045              	.L271:
 268:../../libDaisy//src/hid/disp/display.h ****                 {
 4046              		.loc 3 268 44 view .LVU1058
 4047              	.LBE976:
 266:../../libDaisy//src/hid/disp/display.h ****             {
 4048              		.loc 3 266 13 is_stmt 1 view .LVU1059
 4049 005a 0130     		adds	r0, r0, #1
 4050              	.LVL290:
 266:../../libDaisy//src/hid/disp/display.h ****             {
 4051              		.loc 3 266 40 view .LVU1060
 4052 005c 8045     		cmp	r8, r0
 4053 005e E0D2     		bcs	.L266
 4054              	.L269:
 4055              	.LBB990:
ARM GAS  /var/folders/1y/_321xjh9623c014x9_qw12rr0000gn/T//ccXuncwa.s 			page 122


 4056              	.LBB989:
 4057              	.LBB986:
 4058              	.LBB982:
 354:../../libDaisy//src/dev/oled_ssd130x.h ****             return;
 4059              		.loc 4 354 14 is_stmt 0 view .LVU1061
 4060 0060 2746     		mov	r7, r4
 4061              	.LBE982:
 4062              	.LBE986:
 4063              	.LBE989:
 4064              	.LBE990:
 4065              	.LBE975:
 4066              	.LBE974:
 4067              	.LBE973:
 4068              	.LBB991:
 198:Dubby.cpp     ****     for (int i = 0; i < 3; i++) 
 4069              		.loc 2 198 14 view .LVU1062
 4070 0062 0026     		movs	r6, #0
 4071              	.LVL291:
 198:Dubby.cpp     ****     for (int i = 0; i < 3; i++) 
 4072              		.loc 2 198 14 view .LVU1063
 4073 0064 DFF88481 		ldr	r8, .L289
 4074              	.LVL292:
 4075              	.L267:
 200:Dubby.cpp     ****         display.SetCursor(menuTextCursors[i][0], menuTextCursors[i][1]);
 4076              		.loc 2 200 9 is_stmt 1 discriminator 2 view .LVU1064
 4077              	.LBB992:
 4078              	.LBB993:
 173:../../libDaisy//src/hid/disp/display.h ****         currentY_ = (y >= Height()) ? Height() - 1 : y;
 4079              		.loc 3 173 19 is_stmt 0 discriminator 2 view .LVU1065
 4080 0068 B7F85C90 		ldrh	r9, [r7, #92]
 4081              	.LBE993:
 4082              	.LBE992:
 201:Dubby.cpp     ****         display.WriteString(GetTextForEnum(MAINMENU, i), Font_6x8, i == menuItemSelected ? false : 
 4083              		.loc 2 201 28 discriminator 2 view .LVU1066
 4084 006c BEEB060E 		subs	lr, lr, r6
 200:Dubby.cpp     ****         display.SetCursor(menuTextCursors[i][0], menuTextCursors[i][1]);
 4085              		.loc 2 200 26 discriminator 2 view .LVU1067
 4086 0070 B7F860C0 		ldrh	ip, [r7, #96]
 4087              	.LVL293:
 4088              	.LBB999:
 4089              	.LBI992:
 171:../../libDaisy//src/hid/disp/display.h ****     {
 4090              		.loc 3 171 10 is_stmt 1 discriminator 2 view .LVU1068
 4091              	.LBB994:
 173:../../libDaisy//src/hid/disp/display.h ****         currentY_ = (y >= Height()) ? Height() - 1 : y;
 4092              		.loc 3 173 9 discriminator 2 view .LVU1069
 4093              	.LBE994:
 4094              	.LBE999:
 201:Dubby.cpp     ****         display.WriteString(GetTextForEnum(MAINMENU, i), Font_6x8, i == menuItemSelected ? false : 
 4095              		.loc 2 201 28 is_stmt 0 discriminator 2 view .LVU1070
 4096 0074 2846     		mov	r0, r5
 4097 0076 18BF     		it	ne
 4098 0078 4FF0010E 		movne	lr, #1
 4099              	.LBB1000:
 4100              	.LBB995:
 173:../../libDaisy//src/hid/disp/display.h ****         currentY_ = (y >= Height()) ? Height() - 1 : y;
 4101              		.loc 3 173 19 discriminator 2 view .LVU1071
ARM GAS  /var/folders/1y/_321xjh9623c014x9_qw12rr0000gn/T//ccXuncwa.s 			page 123


 4102 007c B9F17F0F 		cmp	r9, #127
 4103              	.LBE995:
 4104              	.LBE1000:
 201:Dubby.cpp     ****         display.WriteString(GetTextForEnum(MAINMENU, i), Font_6x8, i == menuItemSelected ? false : 
 4105              		.loc 2 201 28 discriminator 2 view .LVU1072
 4106 0080 54F82610 		ldr	r1, [r4, r6, lsl #2]
 198:Dubby.cpp     ****     for (int i = 0; i < 3; i++) 
 4107              		.loc 2 198 5 discriminator 2 view .LVU1073
 4108 0084 06F10106 		add	r6, r6, #1
 4109              	.LVL294:
 4110              	.LBB1001:
 4111              	.LBB996:
 173:../../libDaisy//src/hid/disp/display.h ****         currentY_ = (y >= Height()) ? Height() - 1 : y;
 4112              		.loc 3 173 19 discriminator 2 view .LVU1074
 4113 0088 28BF     		it	cs
 4114 008a 4FF07F09 		movcs	r9, #127
 174:../../libDaisy//src/hid/disp/display.h ****     }
 4115              		.loc 3 174 19 discriminator 2 view .LVU1075
 4116 008e BCF13F0F 		cmp	ip, #63
 4117              	.LBE996:
 4118              	.LBE1001:
 198:Dubby.cpp     ****     for (int i = 0; i < 3; i++) 
 4119              		.loc 2 198 23 discriminator 2 view .LVU1076
 4120 0092 07F10807 		add	r7, r7, #8
 4121              	.LVL295:
 4122              	.LBB1002:
 4123              	.LBB997:
 174:../../libDaisy//src/hid/disp/display.h ****     }
 4124              		.loc 3 174 19 discriminator 2 view .LVU1077
 4125 0096 28BF     		it	cs
 4126 0098 4FF03F0C 		movcs	ip, #63
 4127              	.LVL296:
 173:../../libDaisy//src/hid/disp/display.h ****         currentY_ = (y >= Height()) ? Height() - 1 : y;
 4128              		.loc 3 173 19 discriminator 2 view .LVU1078
 4129 009c A4F81494 		strh	r9, [r4, #1044]	@ movhi
 174:../../libDaisy//src/hid/disp/display.h ****     }
 4130              		.loc 3 174 9 is_stmt 1 discriminator 2 view .LVU1079
 4131              	.LBE997:
 4132              	.LBE1002:
 201:Dubby.cpp     ****         display.WriteString(GetTextForEnum(MAINMENU, i), Font_6x8, i == menuItemSelected ? false : 
 4133              		.loc 2 201 28 is_stmt 0 discriminator 2 view .LVU1080
 4134 00a0 98E80C00 		ldm	r8, {r2, r3}
 4135              	.LBB1003:
 4136              	.LBB998:
 174:../../libDaisy//src/hid/disp/display.h ****     }
 4137              		.loc 3 174 19 discriminator 2 view .LVU1081
 4138 00a4 A4F816C4 		strh	ip, [r4, #1046]	@ movhi
 4139              	.LVL297:
 174:../../libDaisy//src/hid/disp/display.h ****     }
 4140              		.loc 3 174 19 discriminator 2 view .LVU1082
 4141              	.LBE998:
 4142              	.LBE1003:
 201:Dubby.cpp     ****         display.WriteString(GetTextForEnum(MAINMENU, i), Font_6x8, i == menuItemSelected ? false : 
 4143              		.loc 2 201 9 is_stmt 1 discriminator 2 view .LVU1083
 4144              	.LBB1004:
 4145              	.LBI1004:
 428:Dubby.cpp     **** const char * Dubby::GetTextForEnum(MenuTypes m, int enumVal)
ARM GAS  /var/folders/1y/_321xjh9623c014x9_qw12rr0000gn/T//ccXuncwa.s 			page 124


 4146              		.loc 2 428 14 discriminator 2 view .LVU1084
 4147              	.LBB1005:
 430:Dubby.cpp     ****     switch (m)
 4148              		.loc 2 430 5 discriminator 2 view .LVU1085
 432:Dubby.cpp     ****         case MAINMENU:
 4149              		.loc 2 432 9 discriminator 2 view .LVU1086
 433:Dubby.cpp     ****             return MenuItemsStrings[enumVal];
 4150              		.loc 2 433 13 discriminator 2 view .LVU1087
 433:Dubby.cpp     ****             return MenuItemsStrings[enumVal];
 4151              		.loc 2 433 13 is_stmt 0 discriminator 2 view .LVU1088
 4152              	.LBE1005:
 4153              	.LBE1004:
 201:Dubby.cpp     ****         display.WriteString(GetTextForEnum(MAINMENU, i), Font_6x8, i == menuItemSelected ? false : 
 4154              		.loc 2 201 28 discriminator 2 view .LVU1089
 4155 00a8 CDF800E0 		str	lr, [sp]
 4156 00ac FFF7FEFF 		bl	_ZN5daisy25OneBitGraphicsDisplayImplINS_11OledDisplayINS_13SSD130xDriverILj128ELj64ENS_24SSD130
 4157              	.LVL298:
 198:Dubby.cpp     ****     for (int i = 0; i < 3; i++) 
 4158              		.loc 2 198 5 is_stmt 1 discriminator 2 view .LVU1090
 198:Dubby.cpp     ****     for (int i = 0; i < 3; i++) 
 4159              		.loc 2 198 23 discriminator 2 view .LVU1091
 4160 00b0 032E     		cmp	r6, #3
 4161 00b2 02D0     		beq	.L273
 201:Dubby.cpp     ****         display.WriteString(GetTextForEnum(MAINMENU, i), Font_6x8, i == menuItemSelected ? false : 
 4162              		.loc 2 201 73 is_stmt 0 view .LVU1092
 4163 00b4 94F858E0 		ldrb	lr, [r4, #88]	@ zero_extendqisi2
 4164 00b8 D6E7     		b	.L267
 4165              	.L273:
 4166              	.LBE991:
 204:Dubby.cpp     ****     display.DrawRect(PANE_X_START - 1, PANE_Y_START - 1, PANE_X_END + 1, PANE_Y_END + 1, true);
 4167              		.loc 2 204 5 is_stmt 1 view .LVU1093
 4168              	.LVL299:
 4169              	.LBB1006:
 4170              	.LBI1006:
 257:../../libDaisy//src/hid/disp/display.h ****                   uint_fast8_t y1,
 4171              		.loc 3 257 10 view .LVU1094
 4172              	.LBB1007:
 4173              	.LBI1007:
 221:../../libDaisy//src/hid/disp/display.h ****                   uint_fast8_t y1,
 4174              		.loc 3 221 10 view .LVU1095
 4175              	.LBB1008:
 4176              	.LBB1009:
 4177              	.LBI1009:
  42:../../libDaisy//src/hid/disp/oled_display.h ****     {
 4178              		.loc 1 42 10 view .LVU1096
 4179              	.LBB1010:
 4180              	.LBB1011:
 4181              	.LBB1012:
 357:../../libDaisy//src/dev/oled_ssd130x.h ****         else
 4182              		.loc 4 357 42 is_stmt 0 view .LVU1097
 4183 00ba 94F8A324 		ldrb	r2, [r4, #1187]	@ zero_extendqisi2
 4184              	.LBE1012:
 4185              	.LBE1011:
 4186              		.loc 1 44 26 view .LVU1098
 4187 00be 04F58366 		add	r6, r4, #1048
 4188              	.LVL300:
 4189              	.LBB1014:
ARM GAS  /var/folders/1y/_321xjh9623c014x9_qw12rr0000gn/T//ccXuncwa.s 			page 125


 4190              	.LBI1011:
 352:../../libDaisy//src/dev/oled_ssd130x.h ****     {
 4191              		.loc 4 352 10 is_stmt 1 view .LVU1099
 4192 00c2 04F22441 		addw	r1, r4, #1060
 4193 00c6 04F22343 		addw	r3, r4, #1059
 4194              	.LBB1013:
 357:../../libDaisy//src/dev/oled_ssd130x.h ****         else
 4195              		.loc 4 357 42 is_stmt 0 view .LVU1100
 4196 00ca 42F00102 		orr	r2, r2, #1
 4197 00ce 04F2A240 		addw	r0, r4, #1186
 4198 00d2 84F8A324 		strb	r2, [r4, #1187]
 4199              	.LVL301:
 357:../../libDaisy//src/dev/oled_ssd130x.h ****         else
 4200              		.loc 4 357 42 view .LVU1101
 4201              	.LBE1013:
 4202              	.LBE1014:
 4203              	.LBE1010:
 4204              	.LBE1009:
 239:../../libDaisy//src/hid/disp/display.h ****         {
 4205              		.loc 3 239 26 is_stmt 1 view .LVU1102
 4206              	.L274:
 4207              	.LBB1015:
 4208              	.LBI1015:
  42:../../libDaisy//src/hid/disp/oled_display.h ****     {
 4209              		.loc 1 42 10 view .LVU1103
 4210              	.LBB1016:
 4211              	.LBI1016:
 352:../../libDaisy//src/dev/oled_ssd130x.h ****     {
 4212              		.loc 4 352 10 view .LVU1104
 4213              	.LBB1017:
 357:../../libDaisy//src/dev/oled_ssd130x.h ****         else
 4214              		.loc 4 357 42 is_stmt 0 view .LVU1105
 4215 00d6 13F8012F 		ldrb	r2, [r3, #1]!	@ zero_extendqisi2
 4216              	.LVL302:
 357:../../libDaisy//src/dev/oled_ssd130x.h ****         else
 4217              		.loc 4 357 42 view .LVU1106
 4218 00da 42F00102 		orr	r2, r2, #1
 4219              	.LBE1017:
 4220              	.LBE1016:
 4221              	.LBE1015:
 239:../../libDaisy//src/hid/disp/display.h ****         {
 4222              		.loc 3 239 26 view .LVU1107
 4223 00de 9842     		cmp	r0, r3
 4224              	.LBB1020:
 4225              	.LBB1019:
 4226              	.LBB1018:
 357:../../libDaisy//src/dev/oled_ssd130x.h ****         else
 4227              		.loc 4 357 42 view .LVU1108
 4228 00e0 1A70     		strb	r2, [r3]
 4229              	.LVL303:
 357:../../libDaisy//src/dev/oled_ssd130x.h ****         else
 4230              		.loc 4 357 42 view .LVU1109
 4231              	.LBE1018:
 4232              	.LBE1019:
 4233              	.LBE1020:
 239:../../libDaisy//src/hid/disp/display.h ****         {
 4234              		.loc 3 239 26 is_stmt 1 view .LVU1110
ARM GAS  /var/folders/1y/_321xjh9623c014x9_qw12rr0000gn/T//ccXuncwa.s 			page 126


 4235 00e2 F8D1     		bne	.L274
 4236              	.LVL304:
 239:../../libDaisy//src/hid/disp/display.h ****         {
 4237              		.loc 3 239 26 is_stmt 0 view .LVU1111
 4238              	.LBE1008:
 4239              	.LBE1007:
 4240              	.LBB1021:
 4241              	.LBI1021:
 221:../../libDaisy//src/hid/disp/display.h ****                   uint_fast8_t y1,
 4242              		.loc 3 221 10 is_stmt 1 view .LVU1112
 4243              	.LBB1022:
 4244              	.LBB1023:
 4245              	.LBI1023:
  42:../../libDaisy//src/hid/disp/oled_display.h ****     {
 4246              		.loc 1 42 10 view .LVU1113
 4247              	.LBB1024:
 4248              	.LBI1024:
 352:../../libDaisy//src/dev/oled_ssd130x.h ****     {
 4249              		.loc 4 352 10 view .LVU1114
 4250              	.LBB1025:
 357:../../libDaisy//src/dev/oled_ssd130x.h ****         else
 4251              		.loc 4 357 42 is_stmt 0 view .LVU1115
 4252 00e4 94F8A327 		ldrb	r2, [r4, #1955]	@ zero_extendqisi2
 4253 00e8 0023     		movs	r3, #0
 4254 00ea 42F01002 		orr	r2, r2, #16
 4255 00ee 84F8A327 		strb	r2, [r4, #1955]
 4256              	.LVL305:
 357:../../libDaisy//src/dev/oled_ssd130x.h ****         else
 4257              		.loc 4 357 42 view .LVU1116
 4258              	.LBE1025:
 4259              	.LBE1024:
 4260              	.LBE1023:
 239:../../libDaisy//src/hid/disp/display.h ****         {
 4261              		.loc 3 239 26 is_stmt 1 view .LVU1117
 4262              	.L275:
 4263              	.LBB1026:
 4264              	.LBI1026:
  42:../../libDaisy//src/hid/disp/oled_display.h ****     {
 4265              		.loc 1 42 10 view .LVU1118
 4266              	.LBB1027:
 4267              	.LBI1027:
 352:../../libDaisy//src/dev/oled_ssd130x.h ****     {
 4268              		.loc 4 352 10 view .LVU1119
 4269              	.LBB1028:
 357:../../libDaisy//src/dev/oled_ssd130x.h ****         else
 4270              		.loc 4 357 42 is_stmt 0 view .LVU1120
 4271 00f2 1A01     		lsls	r2, r3, #4
 357:../../libDaisy//src/dev/oled_ssd130x.h ****         else
 4272              		.loc 4 357 54 view .LVU1121
 4273 00f4 03F00705 		and	r5, r3, #7
 357:../../libDaisy//src/dev/oled_ssd130x.h ****         else
 4274              		.loc 4 357 48 view .LVU1122
 4275 00f8 0120     		movs	r0, #1
 357:../../libDaisy//src/dev/oled_ssd130x.h ****         else
 4276              		.loc 4 357 42 view .LVU1123
 4277 00fa 42F07F02 		orr	r2, r2, #127
 4278              	.LBE1028:
ARM GAS  /var/folders/1y/_321xjh9623c014x9_qw12rr0000gn/T//ccXuncwa.s 			page 127


 4279              	.LBE1027:
 4280              	.LBE1026:
 252:../../libDaisy//src/hid/disp/display.h ****             }
 4281              		.loc 3 252 20 view .LVU1124
 4282 00fe 0344     		add	r3, r3, r0
 4283              	.LVL306:
 4284              	.LBB1033:
 4285              	.LBB1031:
 4286              	.LBB1029:
 357:../../libDaisy//src/dev/oled_ssd130x.h ****         else
 4287              		.loc 4 357 48 view .LVU1125
 4288 0100 A840     		lsls	r0, r0, r5
 357:../../libDaisy//src/dev/oled_ssd130x.h ****         else
 4289              		.loc 4 357 42 view .LVU1126
 4290 0102 2244     		add	r2, r2, r4
 4291              	.LBE1029:
 4292              	.LBE1031:
 4293              	.LBE1033:
 239:../../libDaisy//src/hid/disp/display.h ****         {
 4294              		.loc 3 239 26 view .LVU1127
 4295 0104 342B     		cmp	r3, #52
 4296              	.LBB1034:
 4297              	.LBB1032:
 4298              	.LBB1030:
 357:../../libDaisy//src/dev/oled_ssd130x.h ****         else
 4299              		.loc 4 357 42 view .LVU1128
 4300 0106 92F82454 		ldrb	r5, [r2, #1060]	@ zero_extendqisi2
 4301 010a 40EA0500 		orr	r0, r0, r5
 4302 010e 82F82404 		strb	r0, [r2, #1060]
 4303              	.LVL307:
 357:../../libDaisy//src/dev/oled_ssd130x.h ****         else
 4304              		.loc 4 357 42 view .LVU1129
 4305              	.LBE1030:
 4306              	.LBE1032:
 4307              	.LBE1034:
 239:../../libDaisy//src/hid/disp/display.h ****         {
 4308              		.loc 3 239 26 is_stmt 1 view .LVU1130
 4309 0112 EED1     		bne	.L275
 4310              	.LVL308:
 239:../../libDaisy//src/hid/disp/display.h ****         {
 4311              		.loc 3 239 26 is_stmt 0 view .LVU1131
 4312              	.LBE1022:
 4313              	.LBE1021:
 4314              	.LBB1035:
 4315              	.LBI1035:
 221:../../libDaisy//src/hid/disp/display.h ****                   uint_fast8_t y1,
 4316              		.loc 3 221 10 is_stmt 1 view .LVU1132
 4317              	.LBB1036:
 4318              	.LBB1037:
 4319              	.LBI1037:
  42:../../libDaisy//src/hid/disp/oled_display.h ****     {
 4320              		.loc 1 42 10 view .LVU1133
 4321              	.LBB1038:
 4322              	.LBI1038:
 352:../../libDaisy//src/dev/oled_ssd130x.h ****     {
 4323              		.loc 4 352 10 view .LVU1134
 4324              	.LBB1039:
ARM GAS  /var/folders/1y/_321xjh9623c014x9_qw12rr0000gn/T//ccXuncwa.s 			page 128


 357:../../libDaisy//src/dev/oled_ssd130x.h ****         else
 4325              		.loc 4 357 42 is_stmt 0 view .LVU1135
 4326 0114 94F82427 		ldrb	r2, [r4, #1828]	@ zero_extendqisi2
 4327 0118 04F2A470 		addw	r0, r4, #1956
 4328 011c 42F01007 		orr	r7, r2, #16
 4329 0120 04F22572 		addw	r2, r4, #1829
 4330 0124 84F82477 		strb	r7, [r4, #1828]
 4331              	.LVL309:
 357:../../libDaisy//src/dev/oled_ssd130x.h ****         else
 4332              		.loc 4 357 42 view .LVU1136
 4333              	.LBE1039:
 4334              	.LBE1038:
 4335              	.LBE1037:
 239:../../libDaisy//src/hid/disp/display.h ****         {
 4336              		.loc 3 239 26 is_stmt 1 view .LVU1137
 4337              	.L276:
 4338              	.LBB1040:
 4339              	.LBI1040:
  42:../../libDaisy//src/hid/disp/oled_display.h ****     {
 4340              		.loc 1 42 10 view .LVU1138
 4341              	.LBB1041:
 4342              	.LBI1041:
 352:../../libDaisy//src/dev/oled_ssd130x.h ****     {
 4343              		.loc 4 352 10 view .LVU1139
 4344              	.LBB1042:
 357:../../libDaisy//src/dev/oled_ssd130x.h ****         else
 4345              		.loc 4 357 42 is_stmt 0 view .LVU1140
 4346 0128 10F8015D 		ldrb	r5, [r0, #-1]!	@ zero_extendqisi2
 4347              	.LVL310:
 357:../../libDaisy//src/dev/oled_ssd130x.h ****         else
 4348              		.loc 4 357 42 view .LVU1141
 4349 012c 45F01005 		orr	r5, r5, #16
 4350              	.LBE1042:
 4351              	.LBE1041:
 4352              	.LBE1040:
 239:../../libDaisy//src/hid/disp/display.h ****         {
 4353              		.loc 3 239 26 view .LVU1142
 4354 0130 8242     		cmp	r2, r0
 4355              	.LBB1045:
 4356              	.LBB1044:
 4357              	.LBB1043:
 357:../../libDaisy//src/dev/oled_ssd130x.h ****         else
 4358              		.loc 4 357 42 view .LVU1143
 4359 0132 0570     		strb	r5, [r0]
 4360              	.LVL311:
 357:../../libDaisy//src/dev/oled_ssd130x.h ****         else
 4361              		.loc 4 357 42 view .LVU1144
 4362              	.LBE1043:
 4363              	.LBE1044:
 4364              	.LBE1045:
 239:../../libDaisy//src/hid/disp/display.h ****         {
 4365              		.loc 3 239 26 is_stmt 1 view .LVU1145
 4366 0134 F8D1     		bne	.L276
 4367              	.LVL312:
 239:../../libDaisy//src/hid/disp/display.h ****         {
 4368              		.loc 3 239 26 is_stmt 0 view .LVU1146
 4369              	.LBE1036:
ARM GAS  /var/folders/1y/_321xjh9623c014x9_qw12rr0000gn/T//ccXuncwa.s 			page 129


 4370              	.LBE1035:
 4371              	.LBB1046:
 4372              	.LBI1046:
 221:../../libDaisy//src/hid/disp/display.h ****                   uint_fast8_t y1,
 4373              		.loc 3 221 10 is_stmt 1 view .LVU1147
 4374              	.LBB1047:
 4375              	.LBB1048:
 4376              	.LBI1048:
  42:../../libDaisy//src/hid/disp/oled_display.h ****     {
 4377              		.loc 1 42 10 view .LVU1148
 4378              	.LBB1049:
 4379              	.LBI1049:
 352:../../libDaisy//src/dev/oled_ssd130x.h ****     {
 4380              		.loc 4 352 10 view .LVU1149
 4381              	.LBB1050:
 357:../../libDaisy//src/dev/oled_ssd130x.h ****         else
 4382              		.loc 4 357 42 is_stmt 0 view .LVU1150
 4383 0136 94F82424 		ldrb	r2, [r4, #1060]	@ zero_extendqisi2
 4384 013a 0620     		movs	r0, #6
 4385 013c 42F00102 		orr	r2, r2, #1
 4386 0140 84F82424 		strb	r2, [r4, #1060]
 4387              	.LVL313:
 357:../../libDaisy//src/dev/oled_ssd130x.h ****         else
 4388              		.loc 4 357 42 view .LVU1151
 4389              	.LBE1050:
 4390              	.LBE1049:
 4391              	.LBE1048:
 239:../../libDaisy//src/hid/disp/display.h ****         {
 4392              		.loc 3 239 26 is_stmt 1 view .LVU1152
 4393 0144 03E0     		b	.L278
 4394              	.LVL314:
 4395              	.L288:
 4396              	.LBB1051:
 4397              	.LBB1052:
 4398              	.LBB1053:
 357:../../libDaisy//src/dev/oled_ssd130x.h ****         else
 4399              		.loc 4 357 42 is_stmt 0 view .LVU1153
 4400 0146 04EBC012 		add	r2, r4, r0, lsl #7
 4401 014a 92F82474 		ldrb	r7, [r2, #1060]	@ zero_extendqisi2
 4402              	.LVL315:
 4403              	.L278:
 357:../../libDaisy//src/dev/oled_ssd130x.h ****         else
 4404              		.loc 4 357 42 view .LVU1154
 4405              	.LBE1053:
 4406              	.LBE1052:
 4407              	.LBI1051:
  42:../../libDaisy//src/hid/disp/oled_display.h ****     {
 4408              		.loc 1 42 10 is_stmt 1 view .LVU1155
 4409              	.LBB1057:
 4410              	.LBI1052:
 352:../../libDaisy//src/dev/oled_ssd130x.h ****     {
 4411              		.loc 4 352 10 view .LVU1156
 4412              	.LBB1054:
 357:../../libDaisy//src/dev/oled_ssd130x.h ****         else
 4413              		.loc 4 357 54 is_stmt 0 view .LVU1157
 4414 014e 03F00705 		and	r5, r3, #7
 357:../../libDaisy//src/dev/oled_ssd130x.h ****         else
ARM GAS  /var/folders/1y/_321xjh9623c014x9_qw12rr0000gn/T//ccXuncwa.s 			page 130


 4415              		.loc 4 357 48 view .LVU1158
 4416 0152 0122     		movs	r2, #1
 357:../../libDaisy//src/dev/oled_ssd130x.h ****         else
 4417              		.loc 4 357 42 view .LVU1159
 4418 0154 04EBC010 		add	r0, r4, r0, lsl #7
 4419              	.LBE1054:
 4420              	.LBE1057:
 4421              	.LBE1051:
 239:../../libDaisy//src/hid/disp/display.h ****         {
 4422              		.loc 3 239 26 view .LVU1160
 4423 0158 013B     		subs	r3, r3, #1
 4424              	.LVL316:
 4425              	.LBB1060:
 4426              	.LBB1058:
 4427              	.LBB1055:
 357:../../libDaisy//src/dev/oled_ssd130x.h ****         else
 4428              		.loc 4 357 48 view .LVU1161
 4429 015a 02FA05F2 		lsl	r2, r2, r5
 357:../../libDaisy//src/dev/oled_ssd130x.h ****         else
 4430              		.loc 4 357 42 view .LVU1162
 4431 015e 42EA0702 		orr	r2, r2, r7
 4432 0162 80F82424 		strb	r2, [r0, #1060]
 4433              	.LVL317:
 357:../../libDaisy//src/dev/oled_ssd130x.h ****         else
 4434              		.loc 4 357 42 view .LVU1163
 4435              	.LBE1055:
 4436              	.LBE1058:
 4437              	.LBE1060:
 239:../../libDaisy//src/hid/disp/display.h ****         {
 4438              		.loc 3 239 26 is_stmt 1 view .LVU1164
 4439              	.LBB1061:
 4440              	.LBB1059:
 4441              	.LBB1056:
 357:../../libDaisy//src/dev/oled_ssd130x.h ****         else
 4442              		.loc 4 357 28 is_stmt 0 view .LVU1165
 4443 0166 4FEAD300 		lsr	r0, r3, #3
 4444              	.LBE1056:
 4445              	.LBE1059:
 4446              	.LBE1061:
 239:../../libDaisy//src/hid/disp/display.h ****         {
 4447              		.loc 3 239 26 view .LVU1166
 4448 016a ECD1     		bne	.L288
 4449              	.LBE1047:
 4450              	.LBE1046:
 4451              	.LBE1006:
 4452              	.LBB1062:
 4453              	.LBB1063:
 4454              	.LBB1064:
 4455              	.LBB1065:
 4456              	.LBB1066:
 124:../../libDaisy//src/dev/oled_ssd130x.h ****         spi_.BlockingTransmit(&cmd, 1);
 4457              		.loc 4 124 24 view .LVU1167
 4458 016c 04F58464 		add	r4, r4, #1056
 4459              	.LVL318:
 124:../../libDaisy//src/dev/oled_ssd130x.h ****         spi_.BlockingTransmit(&cmd, 1);
 4460              		.loc 4 124 24 view .LVU1168
 4461 0170 8846     		mov	r8, r1
ARM GAS  /var/folders/1y/_321xjh9623c014x9_qw12rr0000gn/T//ccXuncwa.s 			page 131


 4462 0172 B025     		movs	r5, #176
 4463              	.LVL319:
 4464              	.L279:
 124:../../libDaisy//src/dev/oled_ssd130x.h ****         spi_.BlockingTransmit(&cmd, 1);
 4465              		.loc 4 124 24 view .LVU1169
 4466 0174 0027     		movs	r7, #0
 124:../../libDaisy//src/dev/oled_ssd130x.h ****         spi_.BlockingTransmit(&cmd, 1);
 4467              		.loc 4 124 23 view .LVU1170
 4468 0176 2046     		mov	r0, r4
 4469 0178 8DF80F50 		strb	r5, [sp, #15]
 4470              	.LVL320:
 124:../../libDaisy//src/dev/oled_ssd130x.h ****         spi_.BlockingTransmit(&cmd, 1);
 4471              		.loc 4 124 23 view .LVU1171
 4472              	.LBE1066:
 4473              	.LBI1065:
 122:../../libDaisy//src/dev/oled_ssd130x.h ****     {
 4474              		.loc 4 122 10 is_stmt 1 view .LVU1172
 4475              	.LBB1067:
 124:../../libDaisy//src/dev/oled_ssd130x.h ****         spi_.BlockingTransmit(&cmd, 1);
 4476              		.loc 4 124 9 view .LVU1173
 4477              	.LBE1067:
 4478              	.LBE1065:
 4479              		.loc 4 383 22 is_stmt 0 view .LVU1174
 4480 017c 0135     		adds	r5, r5, #1
 4481              	.LVL321:
 4482              	.LBB1070:
 4483              	.LBB1068:
 124:../../libDaisy//src/dev/oled_ssd130x.h ****         spi_.BlockingTransmit(&cmd, 1);
 4484              		.loc 4 124 23 view .LVU1175
 4485 017e 3946     		mov	r1, r7
 4486 0180 FFF7FEFF 		bl	dsy_gpio_write
 4487              	.LVL322:
 125:../../libDaisy//src/dev/oled_ssd130x.h ****     };
 4488              		.loc 4 125 9 is_stmt 1 view .LVU1176
 125:../../libDaisy//src/dev/oled_ssd130x.h ****     };
 4489              		.loc 4 125 30 is_stmt 0 view .LVU1177
 4490 0184 6423     		movs	r3, #100
 4491 0186 0122     		movs	r2, #1
 4492 0188 0DF10F01 		add	r1, sp, #15
 4493 018c 3046     		mov	r0, r6
 4494              	.LBE1068:
 4495              	.LBE1070:
 4496              		.loc 4 383 22 view .LVU1178
 4497 018e EDB2     		uxtb	r5, r5
 4498              	.LBB1071:
 4499              	.LBB1069:
 125:../../libDaisy//src/dev/oled_ssd130x.h ****     };
 4500              		.loc 4 125 30 view .LVU1179
 4501 0190 FFF7FEFF 		bl	_ZN5daisy9SpiHandle16BlockingTransmitEPhjm
 4502              	.LVL323:
 125:../../libDaisy//src/dev/oled_ssd130x.h ****     };
 4503              		.loc 4 125 30 view .LVU1180
 4504              	.LBE1069:
 4505              	.LBE1071:
 4506              	.LBB1072:
 4507              	.LBB1073:
 124:../../libDaisy//src/dev/oled_ssd130x.h ****         spi_.BlockingTransmit(&cmd, 1);
ARM GAS  /var/folders/1y/_321xjh9623c014x9_qw12rr0000gn/T//ccXuncwa.s 			page 132


 4508              		.loc 4 124 23 view .LVU1181
 4509 0194 3946     		mov	r1, r7
 4510 0196 2046     		mov	r0, r4
 4511 0198 8DF80F70 		strb	r7, [sp, #15]
 4512              	.LVL324:
 124:../../libDaisy//src/dev/oled_ssd130x.h ****         spi_.BlockingTransmit(&cmd, 1);
 4513              		.loc 4 124 23 view .LVU1182
 4514              	.LBE1073:
 4515              	.LBI1072:
 122:../../libDaisy//src/dev/oled_ssd130x.h ****     {
 4516              		.loc 4 122 10 is_stmt 1 view .LVU1183
 4517              	.LBB1074:
 124:../../libDaisy//src/dev/oled_ssd130x.h ****         spi_.BlockingTransmit(&cmd, 1);
 4518              		.loc 4 124 9 view .LVU1184
 124:../../libDaisy//src/dev/oled_ssd130x.h ****         spi_.BlockingTransmit(&cmd, 1);
 4519              		.loc 4 124 23 is_stmt 0 view .LVU1185
 4520 019c FFF7FEFF 		bl	dsy_gpio_write
 4521              	.LVL325:
 125:../../libDaisy//src/dev/oled_ssd130x.h ****     };
 4522              		.loc 4 125 9 is_stmt 1 view .LVU1186
 125:../../libDaisy//src/dev/oled_ssd130x.h ****     };
 4523              		.loc 4 125 30 is_stmt 0 view .LVU1187
 4524 01a0 0122     		movs	r2, #1
 4525 01a2 6423     		movs	r3, #100
 4526 01a4 0DF10F01 		add	r1, sp, #15
 4527 01a8 3046     		mov	r0, r6
 4528 01aa FFF7FEFF 		bl	_ZN5daisy9SpiHandle16BlockingTransmitEPhjm
 4529              	.LVL326:
 125:../../libDaisy//src/dev/oled_ssd130x.h ****     };
 4530              		.loc 4 125 30 view .LVU1188
 4531 01ae 1023     		movs	r3, #16
 4532              	.LBE1074:
 4533              	.LBE1072:
 4534              	.LBB1075:
 4535              	.LBB1076:
 124:../../libDaisy//src/dev/oled_ssd130x.h ****         spi_.BlockingTransmit(&cmd, 1);
 4536              		.loc 4 124 23 view .LVU1189
 4537 01b0 3946     		mov	r1, r7
 4538 01b2 2046     		mov	r0, r4
 4539 01b4 8DF80F30 		strb	r3, [sp, #15]
 4540              	.LVL327:
 124:../../libDaisy//src/dev/oled_ssd130x.h ****         spi_.BlockingTransmit(&cmd, 1);
 4541              		.loc 4 124 23 view .LVU1190
 4542              	.LBE1076:
 4543              	.LBI1075:
 122:../../libDaisy//src/dev/oled_ssd130x.h ****     {
 4544              		.loc 4 122 10 is_stmt 1 view .LVU1191
 4545              	.LBB1077:
 124:../../libDaisy//src/dev/oled_ssd130x.h ****         spi_.BlockingTransmit(&cmd, 1);
 4546              		.loc 4 124 9 view .LVU1192
 124:../../libDaisy//src/dev/oled_ssd130x.h ****         spi_.BlockingTransmit(&cmd, 1);
 4547              		.loc 4 124 23 is_stmt 0 view .LVU1193
 4548 01b8 FFF7FEFF 		bl	dsy_gpio_write
 4549              	.LVL328:
 125:../../libDaisy//src/dev/oled_ssd130x.h ****     };
 4550              		.loc 4 125 9 is_stmt 1 view .LVU1194
 125:../../libDaisy//src/dev/oled_ssd130x.h ****     };
ARM GAS  /var/folders/1y/_321xjh9623c014x9_qw12rr0000gn/T//ccXuncwa.s 			page 133


 4551              		.loc 4 125 30 is_stmt 0 view .LVU1195
 4552 01bc 6423     		movs	r3, #100
 4553 01be 0122     		movs	r2, #1
 4554 01c0 0DF10F01 		add	r1, sp, #15
 4555 01c4 3046     		mov	r0, r6
 4556 01c6 FFF7FEFF 		bl	_ZN5daisy9SpiHandle16BlockingTransmitEPhjm
 4557              	.LVL329:
 125:../../libDaisy//src/dev/oled_ssd130x.h ****     };
 4558              		.loc 4 125 30 view .LVU1196
 4559              	.LBE1077:
 4560              	.LBE1075:
 4561              	.LBB1078:
 4562              	.LBI1078:
 128:../../libDaisy//src/dev/oled_ssd130x.h ****     {
 4563              		.loc 4 128 10 is_stmt 1 view .LVU1197
 4564              	.LBB1079:
 130:../../libDaisy//src/dev/oled_ssd130x.h ****         spi_.BlockingTransmit(buff, size);
 4565              		.loc 4 130 9 view .LVU1198
 130:../../libDaisy//src/dev/oled_ssd130x.h ****         spi_.BlockingTransmit(buff, size);
 4566              		.loc 4 130 23 is_stmt 0 view .LVU1199
 4567 01ca 0121     		movs	r1, #1
 4568 01cc 2046     		mov	r0, r4
 4569 01ce FFF7FEFF 		bl	dsy_gpio_write
 4570              	.LVL330:
 131:../../libDaisy//src/dev/oled_ssd130x.h ****     };
 4571              		.loc 4 131 9 is_stmt 1 view .LVU1200
 131:../../libDaisy//src/dev/oled_ssd130x.h ****     };
 4572              		.loc 4 131 30 is_stmt 0 view .LVU1201
 4573 01d2 8022     		movs	r2, #128
 4574 01d4 4146     		mov	r1, r8
 4575 01d6 6423     		movs	r3, #100
 4576 01d8 3046     		mov	r0, r6
 4577              	.LBE1079:
 4578              	.LBE1078:
 4579              		.loc 4 383 22 view .LVU1202
 4580 01da 9044     		add	r8, r8, r2
 4581              	.LVL331:
 4582              	.LBB1081:
 4583              	.LBB1080:
 131:../../libDaisy//src/dev/oled_ssd130x.h ****     };
 4584              		.loc 4 131 30 view .LVU1203
 4585 01dc FFF7FEFF 		bl	_ZN5daisy9SpiHandle16BlockingTransmitEPhjm
 4586              	.LVL332:
 131:../../libDaisy//src/dev/oled_ssd130x.h ****     };
 4587              		.loc 4 131 30 view .LVU1204
 4588              	.LBE1080:
 4589              	.LBE1081:
 4590              		.loc 4 383 9 is_stmt 1 view .LVU1205
 4591              		.loc 4 383 22 view .LVU1206
 4592 01e0 B82D     		cmp	r5, #184
 4593 01e2 C7D1     		bne	.L279
 4594              	.LBE1064:
 4595              	.LBE1063:
 4596              	.LBE1062:
 207:Dubby.cpp     **** }
 4597              		.loc 2 207 1 is_stmt 0 view .LVU1207
 4598 01e4 05B0     		add	sp, sp, #20
ARM GAS  /var/folders/1y/_321xjh9623c014x9_qw12rr0000gn/T//ccXuncwa.s 			page 134


 4599              		.cfi_def_cfa_offset 28
 4600              		@ sp needed
 4601 01e6 BDE8F083 		pop	{r4, r5, r6, r7, r8, r9, pc}
 4602              	.LVL333:
 4603              	.L290:
 207:Dubby.cpp     **** }
 4604              		.loc 2 207 1 view .LVU1208
 4605 01ea 00BF     		.align	2
 4606              	.L289:
 4607 01ec 00000000 		.word	Font_6x8
 4608              		.cfi_endproc
 4609              	.LFE2582:
 4611              		.section	.text._ZN5daisy5Dubby11ReleaseMenuEv,"ax",%progbits
 4612              		.align	1
 4613              		.p2align 2,,3
 4614              		.global	_ZN5daisy5Dubby11ReleaseMenuEv
 4615              		.syntax unified
 4616              		.thumb
 4617              		.thumb_func
 4619              	_ZN5daisy5Dubby11ReleaseMenuEv:
 4620              	.LVL334:
 4621              	.LFB2583:
 210:Dubby.cpp     **** {        
 4622              		.loc 2 210 1 is_stmt 1 view -0
 4623              		.cfi_startproc
 4624              		@ args = 0, pretend = 0, frame = 40
 4625              		@ frame_needed = 0, uses_anonymous_args = 0
 211:Dubby.cpp     ****     display.Fill(false);
 4626              		.loc 2 211 5 view .LVU1210
 4627              	.LBB1181:
 4628              	.LBI1181:
  34:../../libDaisy//src/hid/disp/oled_display.h **** 
 4629              		.loc 1 34 10 view .LVU1211
 4630              	.LBB1182:
 4631              	.LBI1182:
 362:../../libDaisy//src/dev/oled_ssd130x.h ****     {
 4632              		.loc 4 362 10 view .LVU1212
 4633              	.LBB1183:
 364:../../libDaisy//src/dev/oled_ssd130x.h ****         {
 4634              		.loc 4 364 29 view .LVU1213
 4635              	.LBE1183:
 4636              	.LBE1182:
 4637              	.LBE1181:
 210:Dubby.cpp     **** {        
 4638              		.loc 2 210 1 is_stmt 0 view .LVU1214
 4639 0000 2DE9F04F 		push	{r4, r5, r6, r7, r8, r9, r10, fp, lr}
 4640              		.cfi_def_cfa_offset 36
 4641              		.cfi_offset 4, -36
 4642              		.cfi_offset 5, -32
 4643              		.cfi_offset 6, -28
 4644              		.cfi_offset 7, -24
 4645              		.cfi_offset 8, -20
 4646              		.cfi_offset 9, -16
 4647              		.cfi_offset 10, -12
 4648              		.cfi_offset 11, -8
 4649              		.cfi_offset 14, -4
 4650 0004 0446     		mov	r4, r0
ARM GAS  /var/folders/1y/_321xjh9623c014x9_qw12rr0000gn/T//ccXuncwa.s 			page 135


 4651              	.LBB1188:
 4652              	.LBB1186:
 4653              	.LBB1184:
 366:../../libDaisy//src/dev/oled_ssd130x.h ****         }
 4654              		.loc 4 366 24 view .LVU1215
 4655 0006 4FF48062 		mov	r2, #1024
 4656 000a 0021     		movs	r1, #0
 4657 000c 00F22440 		addw	r0, r0, #1060
 4658              	.LVL335:
 366:../../libDaisy//src/dev/oled_ssd130x.h ****         }
 4659              		.loc 4 366 24 view .LVU1216
 4660              	.LBE1184:
 4661              	.LBE1186:
 4662              	.LBE1188:
 212:Dubby.cpp     ****     display.DrawRect(menuBoxBounding[menuItemSelected][0], menuBoxBounding[menuItemSelected][1], me
 4663              		.loc 2 212 21 view .LVU1217
 4664 0010 04F58263 		add	r3, r4, #1040
 210:Dubby.cpp     **** {        
 4665              		.loc 2 210 1 view .LVU1218
 4666 0014 2DED028B 		vpush.64	{d8}
 4667              		.cfi_def_cfa_offset 44
 4668              		.cfi_offset 80, -44
 4669              		.cfi_offset 81, -40
 4670 0018 8DB0     		sub	sp, sp, #52
 4671              		.cfi_def_cfa_offset 96
 212:Dubby.cpp     ****     display.DrawRect(menuBoxBounding[menuItemSelected][0], menuBoxBounding[menuItemSelected][1], me
 4672              		.loc 2 212 21 view .LVU1219
 4673 001a 08EE103A 		vmov	s16, r3	@ int
 4674              	.LBB1189:
 4675              	.LBB1187:
 4676              	.LBB1185:
 366:../../libDaisy//src/dev/oled_ssd130x.h ****         }
 4677              		.loc 4 366 24 view .LVU1220
 4678 001e FFF7FEFF 		bl	memset
 4679              	.LVL336:
 366:../../libDaisy//src/dev/oled_ssd130x.h ****         }
 4680              		.loc 4 366 24 view .LVU1221
 4681              	.LBE1185:
 4682              	.LBE1187:
 4683              	.LBE1189:
 212:Dubby.cpp     ****     display.DrawRect(menuBoxBounding[menuItemSelected][0], menuBoxBounding[menuItemSelected][1], me
 4684              		.loc 2 212 5 is_stmt 1 view .LVU1222
 212:Dubby.cpp     ****     display.DrawRect(menuBoxBounding[menuItemSelected][0], menuBoxBounding[menuItemSelected][1], me
 4685              		.loc 2 212 38 is_stmt 0 view .LVU1223
 4686 0022 94F85830 		ldrb	r3, [r4, #88]	@ zero_extendqisi2
 212:Dubby.cpp     ****     display.DrawRect(menuBoxBounding[menuItemSelected][0], menuBoxBounding[menuItemSelected][1], me
 4687              		.loc 2 212 95 view .LVU1224
 4688 0026 04EB0312 		add	r2, r4, r3, lsl #4
 4689 002a D2E91D73 		ldrd	r7, r3, [r2, #116]
 212:Dubby.cpp     ****     display.DrawRect(menuBoxBounding[menuItemSelected][0], menuBoxBounding[menuItemSelected][1], me
 4690              		.loc 2 212 171 view .LVU1225
 4691 002e D2E91F62 		ldrd	r6, r2, [r2, #124]
 212:Dubby.cpp     ****     display.DrawRect(menuBoxBounding[menuItemSelected][0], menuBoxBounding[menuItemSelected][1], me
 4692              		.loc 2 212 95 view .LVU1226
 4693 0032 0393     		str	r3, [sp, #12]
 4694              	.LBB1190:
 4695              	.LBB1191:
ARM GAS  /var/folders/1y/_321xjh9623c014x9_qw12rr0000gn/T//ccXuncwa.s 			page 136


 4696              	.LBB1192:
 227:../../libDaisy//src/hid/disp/display.h ****         int_fast16_t deltaY = abs((int_fast16_t)y2 - (int_fast16_t)y1);
 4697              		.loc 3 227 52 view .LVU1227
 4698 0034 A6EB0709 		sub	r9, r6, r7
 4699              	.LBE1192:
 4700              	.LBE1191:
 4701              	.LBE1190:
 212:Dubby.cpp     ****     display.DrawRect(menuBoxBounding[menuItemSelected][0], menuBoxBounding[menuItemSelected][1], me
 4702              		.loc 2 212 21 view .LVU1228
 4703 0038 3046     		mov	r0, r6
 4704              	.LVL337:
 4705              	.LBB1285:
 4706              	.LBI1190:
 257:../../libDaisy//src/hid/disp/display.h ****                   uint_fast8_t y1,
 4707              		.loc 3 257 10 is_stmt 1 view .LVU1229
 4708              	.LBB1218:
 4709              	.LBI1191:
 221:../../libDaisy//src/hid/disp/display.h ****                   uint_fast8_t y1,
 4710              		.loc 3 221 10 view .LVU1230
 4711              	.LBE1218:
 4712              	.LBE1285:
 212:Dubby.cpp     ****     display.DrawRect(menuBoxBounding[menuItemSelected][0], menuBoxBounding[menuItemSelected][1], me
 4713              		.loc 2 212 171 is_stmt 0 view .LVU1231
 4714 003a 0492     		str	r2, [sp, #16]
 4715              	.LBB1286:
 4716              	.LBB1219:
 4717              	.LBB1214:
 227:../../libDaisy//src/hid/disp/display.h ****         int_fast16_t deltaY = abs((int_fast16_t)y2 - (int_fast16_t)y1);
 4718              		.loc 3 227 22 view .LVU1232
 4719 003c B9F1000F 		cmp	r9, #0
 4720 0040 B8BF     		it	lt
 4721 0042 C9F10009 		rsblt	r9, r9, #0
 4722              	.LVL338:
 229:../../libDaisy//src/hid/disp/display.h ****         int_fast16_t signY  = ((y1 < y2) ? 1 : -1);
 4723              		.loc 3 229 42 view .LVU1233
 4724 0046 B742     		cmp	r7, r6
 4725 0048 C0F0BB81 		bcc	.L292
 4726              	.LVL339:
 4727              	.LBB1193:
 4728              	.LBI1193:
  42:../../libDaisy//src/hid/disp/oled_display.h ****     {
 4729              		.loc 1 42 10 is_stmt 1 view .LVU1234
 4730              	.LBB1194:
 4731              	.LBB1195:
 4732              	.LBB1196:
 354:../../libDaisy//src/dev/oled_ssd130x.h ****             return;
 4733              		.loc 4 354 14 is_stmt 0 view .LVU1235
 4734 004c 7F2E     		cmp	r6, #127
 4735              	.LBE1196:
 4736              	.LBE1195:
 4737              		.loc 1 44 26 view .LVU1236
 4738 004e 04F58365 		add	r5, r4, #1048
 4739              	.LVL340:
 4740              	.LBB1200:
 4741              	.LBI1195:
 352:../../libDaisy//src/dev/oled_ssd130x.h ****     {
 4742              		.loc 4 352 10 is_stmt 1 view .LVU1237
ARM GAS  /var/folders/1y/_321xjh9623c014x9_qw12rr0000gn/T//ccXuncwa.s 			page 137


 4743              	.LBE1200:
 4744              	.LBE1194:
 4745              	.LBE1193:
 229:../../libDaisy//src/hid/disp/display.h ****         int_fast16_t signY  = ((y1 < y2) ? 1 : -1);
 4746              		.loc 3 229 42 is_stmt 0 view .LVU1238
 4747 0052 4FF0FF3B 		mov	fp, #-1
 4748              	.LBB1208:
 4749              	.LBB1205:
 4750              	.LBB1201:
 4751              	.LBB1197:
 354:../../libDaisy//src/dev/oled_ssd130x.h ****             return;
 4752              		.loc 4 354 14 view .LVU1239
 4753 0056 94BF     		ite	ls
 4754 0058 0021     		movls	r1, #0
 4755 005a 0121     		movhi	r1, #1
 354:../../libDaisy//src/dev/oled_ssd130x.h ****             return;
 4756              		.loc 4 354 28 view .LVU1240
 4757 005c 3F2B     		cmp	r3, #63
 354:../../libDaisy//src/dev/oled_ssd130x.h ****             return;
 4758              		.loc 4 354 14 view .LVU1241
 4759 005e 0691     		str	r1, [sp, #24]
 354:../../libDaisy//src/dev/oled_ssd130x.h ****             return;
 4760              		.loc 4 354 28 view .LVU1242
 4761 0060 94BF     		ite	ls
 4762 0062 0023     		movls	r3, #0
 4763              	.LVL341:
 354:../../libDaisy//src/dev/oled_ssd130x.h ****             return;
 4764              		.loc 4 354 28 view .LVU1243
 4765 0064 0123     		movhi	r3, #1
 4766 0066 0893     		str	r3, [sp, #32]
 354:../../libDaisy//src/dev/oled_ssd130x.h ****             return;
 4767              		.loc 4 354 9 view .LVU1244
 4768 0068 99B9     		cbnz	r1, .L293
 4769 006a 93B9     		cbnz	r3, .L293
 4770              	.LVL342:
 4771              	.L329:
 357:../../libDaisy//src/dev/oled_ssd130x.h ****         else
 4772              		.loc 4 357 28 view .LVU1245
 4773 006c 0399     		ldr	r1, [sp, #12]
 4774 006e CB08     		lsrs	r3, r1, #3
 357:../../libDaisy//src/dev/oled_ssd130x.h ****         else
 4775              		.loc 4 357 54 view .LVU1246
 4776 0070 01F0070C 		and	ip, r1, #7
 357:../../libDaisy//src/dev/oled_ssd130x.h ****         else
 4777              		.loc 4 357 48 view .LVU1247
 4778 0074 0121     		movs	r1, #1
 357:../../libDaisy//src/dev/oled_ssd130x.h ****         else
 4779              		.loc 4 357 42 view .LVU1248
 4780 0076 06EBC313 		add	r3, r6, r3, lsl #7
 357:../../libDaisy//src/dev/oled_ssd130x.h ****         else
 4781              		.loc 4 357 48 view .LVU1249
 4782 007a 01FA0CF1 		lsl	r1, r1, ip
 357:../../libDaisy//src/dev/oled_ssd130x.h ****         else
 4783              		.loc 4 357 42 view .LVU1250
 4784 007e 2344     		add	r3, r3, r4
 4785 0080 93F824C4 		ldrb	ip, [r3, #1060]	@ zero_extendqisi2
 4786 0084 41EA0C01 		orr	r1, r1, ip
ARM GAS  /var/folders/1y/_321xjh9623c014x9_qw12rr0000gn/T//ccXuncwa.s 			page 138


 4787 0088 83F82414 		strb	r1, [r3, #1060]
 4788              	.LVL343:
 357:../../libDaisy//src/dev/oled_ssd130x.h ****         else
 4789              		.loc 4 357 42 view .LVU1251
 4790 008c 0023     		movs	r3, #0
 4791 008e 0893     		str	r3, [sp, #32]
 4792 0090 0693     		str	r3, [sp, #24]
 4793              	.L293:
 4794              	.LVL344:
 357:../../libDaisy//src/dev/oled_ssd130x.h ****         else
 4795              		.loc 4 357 42 view .LVU1252
 4796              	.LBE1197:
 4797              	.LBE1201:
 4798              	.LBE1205:
 4799              	.LBE1208:
 239:../../libDaisy//src/hid/disp/display.h ****         {
 4800              		.loc 3 239 26 is_stmt 1 view .LVU1253
 4801 0092 B742     		cmp	r7, r6
 4802 0094 00F0C881 		beq	.L372
 4803              	.L295:
 4804              	.LVL345:
 227:../../libDaisy//src/hid/disp/display.h ****         int_fast16_t deltaY = abs((int_fast16_t)y2 - (int_fast16_t)y1);
 4805              		.loc 3 227 22 is_stmt 0 view .LVU1254
 4806 0098 C846     		mov	r8, r9
 4807              	.LBE1214:
 4808              	.LBE1219:
 4809              	.LBE1286:
 212:Dubby.cpp     ****     display.DrawRect(menuBoxBounding[menuItemSelected][0], menuBoxBounding[menuItemSelected][1], me
 4810              		.loc 2 212 21 view .LVU1255
 4811 009a DDF80CC0 		ldr	ip, [sp, #12]
 4812 009e BE46     		mov	lr, r7
 4813              	.L297:
 4814              	.LVL346:
 4815              	.LBB1287:
 4816              	.LBB1220:
 4817              	.LBB1215:
 4818              	.LBB1209:
 4819              	.LBI1209:
  42:../../libDaisy//src/hid/disp/oled_display.h ****     {
 4820              		.loc 1 42 10 is_stmt 1 view .LVU1256
 4821              	.LBB1210:
 4822              	.LBI1210:
 352:../../libDaisy//src/dev/oled_ssd130x.h ****     {
 4823              		.loc 4 352 10 view .LVU1257
 4824              	.LBB1211:
 357:../../libDaisy//src/dev/oled_ssd130x.h ****         else
 4825              		.loc 4 357 28 is_stmt 0 view .LVU1258
 4826 00a0 4FEADC03 		lsr	r3, ip, #3
 357:../../libDaisy//src/dev/oled_ssd130x.h ****         else
 4827              		.loc 4 357 54 view .LVU1259
 4828 00a4 0CF00701 		and	r1, ip, #7
 357:../../libDaisy//src/dev/oled_ssd130x.h ****         else
 4829              		.loc 4 357 48 view .LVU1260
 4830 00a8 4FF0010A 		mov	r10, #1
 354:../../libDaisy//src/dev/oled_ssd130x.h ****             return;
 4831              		.loc 4 354 9 view .LVU1261
 4832 00ac BEF17F0F 		cmp	lr, #127
ARM GAS  /var/folders/1y/_321xjh9623c014x9_qw12rr0000gn/T//ccXuncwa.s 			page 139


 357:../../libDaisy//src/dev/oled_ssd130x.h ****         else
 4833              		.loc 4 357 42 view .LVU1262
 4834 00b0 0EEBC313 		add	r3, lr, r3, lsl #7
 357:../../libDaisy//src/dev/oled_ssd130x.h ****         else
 4835              		.loc 4 357 48 view .LVU1263
 4836 00b4 0AFA01F1 		lsl	r1, r10, r1
 354:../../libDaisy//src/dev/oled_ssd130x.h ****             return;
 4837              		.loc 4 354 9 view .LVU1264
 4838 00b8 09D8     		bhi	.L298
 4839 00ba BCF13F0F 		cmp	ip, #63
 357:../../libDaisy//src/dev/oled_ssd130x.h ****         else
 4840              		.loc 4 357 42 view .LVU1265
 4841 00be 2344     		add	r3, r3, r4
 354:../../libDaisy//src/dev/oled_ssd130x.h ****             return;
 4842              		.loc 4 354 9 view .LVU1266
 4843 00c0 05D8     		bhi	.L298
 357:../../libDaisy//src/dev/oled_ssd130x.h ****         else
 4844              		.loc 4 357 42 view .LVU1267
 4845 00c2 93F824A4 		ldrb	r10, [r3, #1060]	@ zero_extendqisi2
 4846 00c6 41EA0A01 		orr	r1, r1, r10
 4847 00ca 83F82414 		strb	r1, [r3, #1060]
 4848              	.L298:
 357:../../libDaisy//src/dev/oled_ssd130x.h ****         else
 4849              		.loc 4 357 42 view .LVU1268
 4850              	.LBE1211:
 4851              	.LBE1210:
 4852              	.LBE1209:
 243:../../libDaisy//src/hid/disp/display.h ****             {
 4853              		.loc 3 243 13 view .LVU1269
 4854 00ce 5FEA4803 		lsls	r3, r8, #1
 246:../../libDaisy//src/hid/disp/display.h ****             }
 4855              		.loc 3 246 20 view .LVU1270
 4856 00d2 18BF     		it	ne
 4857 00d4 DE44     		addne	lr, lr, fp
 4858              	.LVL347:
 249:../../libDaisy//src/hid/disp/display.h ****             {
 4859              		.loc 3 249 13 view .LVU1271
 4860 00d6 9945     		cmp	r9, r3
 4861 00d8 02DD     		ble	.L300
 251:../../libDaisy//src/hid/disp/display.h ****                 y1 += signY;
 4862              		.loc 3 251 23 view .LVU1272
 4863 00da C844     		add	r8, r8, r9
 4864              	.LVL348:
 252:../../libDaisy//src/hid/disp/display.h ****             }
 4865              		.loc 3 252 20 view .LVU1273
 4866 00dc 0CF1FF3C 		add	ip, ip, #-1
 4867              	.LVL349:
 4868              	.L300:
 239:../../libDaisy//src/hid/disp/display.h ****         {
 4869              		.loc 3 239 26 is_stmt 1 view .LVU1274
 4870 00e0 7645     		cmp	r6, lr
 4871 00e2 DDD1     		bne	.L297
 239:../../libDaisy//src/hid/disp/display.h ****         {
 4872              		.loc 3 239 26 is_stmt 0 view .LVU1275
 4873 00e4 039B     		ldr	r3, [sp, #12]
 4874 00e6 6345     		cmp	r3, ip
 4875 00e8 DAD1     		bne	.L297
ARM GAS  /var/folders/1y/_321xjh9623c014x9_qw12rr0000gn/T//ccXuncwa.s 			page 140


 4876 00ea 0023     		movs	r3, #0
 4877 00ec 0993     		str	r3, [sp, #36]
 4878              	.LVL350:
 4879              	.L294:
 239:../../libDaisy//src/hid/disp/display.h ****         {
 4880              		.loc 3 239 26 view .LVU1276
 4881              	.LBE1215:
 4882              	.LBE1220:
 4883              	.LBB1221:
 4884              	.LBI1221:
 221:../../libDaisy//src/hid/disp/display.h ****                   uint_fast8_t y1,
 4885              		.loc 3 221 10 is_stmt 1 view .LVU1277
 4886              	.LBB1222:
 228:../../libDaisy//src/hid/disp/display.h ****         int_fast16_t signX  = ((x1 < x2) ? 1 : -1);
 4887              		.loc 3 228 52 is_stmt 0 view .LVU1278
 4888 00ee DDE90331 		ldrd	r3, r1, [sp, #12]
 4889 00f2 CB1A     		subs	r3, r1, r3
 228:../../libDaisy//src/hid/disp/display.h ****         int_fast16_t signX  = ((x1 < x2) ? 1 : -1);
 4890              		.loc 3 228 22 view .LVU1279
 4891 00f4 83EAE37C 		eor	ip, r3, r3, asr #31
 4892 00f8 ACEBE37C 		sub	ip, ip, r3, asr #31
 230:../../libDaisy//src/hid/disp/display.h ****         int_fast16_t error  = deltaX - deltaY;
 4893              		.loc 3 230 42 view .LVU1280
 4894 00fc 039B     		ldr	r3, [sp, #12]
 4895 00fe 8B42     		cmp	r3, r1
 228:../../libDaisy//src/hid/disp/display.h ****         int_fast16_t signX  = ((x1 < x2) ? 1 : -1);
 4896              		.loc 3 228 22 view .LVU1281
 4897 0100 CDF814C0 		str	ip, [sp, #20]
 4898              	.LVL351:
 230:../../libDaisy//src/hid/disp/display.h ****         int_fast16_t error  = deltaX - deltaY;
 4899              		.loc 3 230 42 view .LVU1282
 4900 0104 C0F07381 		bcc	.L301
 4901              	.LVL352:
 4902              	.LBB1223:
 4903              	.LBB1224:
 4904              	.LBB1225:
 354:../../libDaisy//src/dev/oled_ssd130x.h ****             return;
 4905              		.loc 4 354 28 view .LVU1283
 4906 0108 3F29     		cmp	r1, #63
 4907              	.LBE1225:
 4908              	.LBE1224:
 4909              	.LBE1223:
 231:../../libDaisy//src/hid/disp/display.h ****         int_fast16_t error2;
 4910              		.loc 3 231 22 view .LVU1284
 4911 010a 6346     		mov	r3, ip
 4912              	.LBB1238:
 4913              	.LBB1232:
 4914              	.LBB1226:
 354:../../libDaisy//src/dev/oled_ssd130x.h ****             return;
 4915              		.loc 4 354 9 view .LVU1285
 4916 010c 0699     		ldr	r1, [sp, #24]
 4917              	.LBE1226:
 4918              	.LBE1232:
 4919              	.LBE1238:
 231:../../libDaisy//src/hid/disp/display.h ****         int_fast16_t error2;
 4920              		.loc 3 231 22 view .LVU1286
 4921 010e CCF1000A 		rsb	r10, ip, #0
ARM GAS  /var/folders/1y/_321xjh9623c014x9_qw12rr0000gn/T//ccXuncwa.s 			page 141


 4922              	.LVL353:
 4923              	.LBB1239:
 4924              	.LBI1223:
  42:../../libDaisy//src/hid/disp/oled_display.h ****     {
 4925              		.loc 1 42 10 is_stmt 1 view .LVU1287
 4926              	.LBB1233:
 4927              	.LBI1224:
 352:../../libDaisy//src/dev/oled_ssd130x.h ****     {
 4928              		.loc 4 352 10 view .LVU1288
 4929              	.LBB1227:
 354:../../libDaisy//src/dev/oled_ssd130x.h ****             return;
 4930              		.loc 4 354 28 is_stmt 0 view .LVU1289
 4931 0112 94BF     		ite	ls
 4932 0114 0023     		movls	r3, #0
 4933 0116 0123     		movhi	r3, #1
 4934 0118 0793     		str	r3, [sp, #28]
 354:../../libDaisy//src/dev/oled_ssd130x.h ****             return;
 4935              		.loc 4 354 9 view .LVU1290
 4936 011a 0029     		cmp	r1, #0
 4937 011c 40F07981 		bne	.L333
 4938 0120 002B     		cmp	r3, #0
 4939 0122 40F07681 		bne	.L333
 4940              	.LBE1227:
 4941              	.LBE1233:
 4942              	.LBE1239:
 230:../../libDaisy//src/hid/disp/display.h ****         int_fast16_t error  = deltaX - deltaY;
 4943              		.loc 3 230 42 view .LVU1291
 4944 0126 4FF0FF33 		mov	r3, #-1
 4945 012a 0693     		str	r3, [sp, #24]
 4946              	.LVL354:
 4947              	.L328:
 4948              	.LBB1240:
 4949              	.LBB1234:
 4950              	.LBB1228:
 357:../../libDaisy//src/dev/oled_ssd130x.h ****         else
 4951              		.loc 4 357 28 view .LVU1292
 4952 012c 0499     		ldr	r1, [sp, #16]
 357:../../libDaisy//src/dev/oled_ssd130x.h ****         else
 4953              		.loc 4 357 48 view .LVU1293
 4954 012e 4FF0010C 		mov	ip, #1
 357:../../libDaisy//src/dev/oled_ssd130x.h ****         else
 4955              		.loc 4 357 28 view .LVU1294
 4956 0132 CB08     		lsrs	r3, r1, #3
 357:../../libDaisy//src/dev/oled_ssd130x.h ****         else
 4957              		.loc 4 357 54 view .LVU1295
 4958 0134 01F00701 		and	r1, r1, #7
 357:../../libDaisy//src/dev/oled_ssd130x.h ****         else
 4959              		.loc 4 357 42 view .LVU1296
 4960 0138 06EBC313 		add	r3, r6, r3, lsl #7
 357:../../libDaisy//src/dev/oled_ssd130x.h ****         else
 4961              		.loc 4 357 48 view .LVU1297
 4962 013c 0CFA01F1 		lsl	r1, ip, r1
 357:../../libDaisy//src/dev/oled_ssd130x.h ****         else
 4963              		.loc 4 357 42 view .LVU1298
 4964 0140 2344     		add	r3, r3, r4
 4965 0142 93F824C4 		ldrb	ip, [r3, #1060]	@ zero_extendqisi2
 4966 0146 41EA0C01 		orr	r1, r1, ip
ARM GAS  /var/folders/1y/_321xjh9623c014x9_qw12rr0000gn/T//ccXuncwa.s 			page 142


 4967 014a 83F82414 		strb	r1, [r3, #1060]
 4968 014e 0023     		movs	r3, #0
 4969 0150 0793     		str	r3, [sp, #28]
 4970              	.LVL355:
 357:../../libDaisy//src/dev/oled_ssd130x.h ****         else
 4971              		.loc 4 357 42 view .LVU1299
 4972              	.LBE1228:
 4973              	.LBE1234:
 4974              	.LBE1240:
 239:../../libDaisy//src/hid/disp/display.h ****         {
 4975              		.loc 3 239 26 is_stmt 1 view .LVU1300
 4976 0152 DDE90331 		ldrd	r3, r1, [sp, #12]
 4977 0156 8B42     		cmp	r3, r1
 4978 0158 00F06381 		beq	.L373
 4979              	.L304:
 4980              	.LVL356:
 230:../../libDaisy//src/hid/disp/display.h ****         int_fast16_t error  = deltaX - deltaY;
 4981              		.loc 3 230 42 is_stmt 0 view .LVU1301
 4982 015c D646     		mov	lr, r10
 4983              	.LBE1222:
 4984              	.LBE1221:
 4985              	.LBE1287:
 212:Dubby.cpp     ****     display.DrawRect(menuBoxBounding[menuItemSelected][0], menuBoxBounding[menuItemSelected][1], me
 4986              		.loc 2 212 21 view .LVU1302
 4987 015e 0399     		ldr	r1, [sp, #12]
 4988 0160 B446     		mov	ip, r6
 4989              	.L306:
 4990              	.LVL357:
 4991              	.LBB1288:
 4992              	.LBB1252:
 4993              	.LBB1250:
 4994              	.LBB1241:
 4995              	.LBI1241:
  42:../../libDaisy//src/hid/disp/oled_display.h ****     {
 4996              		.loc 1 42 10 is_stmt 1 view .LVU1303
 4997              	.LBB1242:
 4998              	.LBI1242:
 352:../../libDaisy//src/dev/oled_ssd130x.h ****     {
 4999              		.loc 4 352 10 view .LVU1304
 5000              	.LBB1243:
 357:../../libDaisy//src/dev/oled_ssd130x.h ****         else
 5001              		.loc 4 357 48 is_stmt 0 view .LVU1305
 5002 0162 4FF0010B 		mov	fp, #1
 357:../../libDaisy//src/dev/oled_ssd130x.h ****         else
 5003              		.loc 4 357 28 view .LVU1306
 5004 0166 CB08     		lsrs	r3, r1, #3
 357:../../libDaisy//src/dev/oled_ssd130x.h ****         else
 5005              		.loc 4 357 54 view .LVU1307
 5006 0168 01F00708 		and	r8, r1, #7
 354:../../libDaisy//src/dev/oled_ssd130x.h ****             return;
 5007              		.loc 4 354 9 view .LVU1308
 5008 016c BCF17F0F 		cmp	ip, #127
 357:../../libDaisy//src/dev/oled_ssd130x.h ****         else
 5009              		.loc 4 357 42 view .LVU1309
 5010 0170 0CEBC313 		add	r3, ip, r3, lsl #7
 5011              	.LBE1243:
 5012              	.LBE1242:
ARM GAS  /var/folders/1y/_321xjh9623c014x9_qw12rr0000gn/T//ccXuncwa.s 			page 143


 5013              	.LBE1241:
 242:../../libDaisy//src/hid/disp/display.h ****             if(error2 > -deltaY)
 5014              		.loc 3 242 20 view .LVU1310
 5015 0174 0EFA0BF9 		lsl	r9, lr, fp
 5016              	.LVL358:
 5017              	.LBB1246:
 5018              	.LBB1245:
 5019              	.LBB1244:
 357:../../libDaisy//src/dev/oled_ssd130x.h ****         else
 5020              		.loc 4 357 48 view .LVU1311
 5021 0178 0BFA08F8 		lsl	r8, fp, r8
 354:../../libDaisy//src/dev/oled_ssd130x.h ****             return;
 5022              		.loc 4 354 9 view .LVU1312
 5023 017c 08D8     		bhi	.L307
 5024 017e 3F29     		cmp	r1, #63
 357:../../libDaisy//src/dev/oled_ssd130x.h ****         else
 5025              		.loc 4 357 42 view .LVU1313
 5026 0180 2344     		add	r3, r3, r4
 354:../../libDaisy//src/dev/oled_ssd130x.h ****             return;
 5027              		.loc 4 354 9 view .LVU1314
 5028 0182 05D8     		bhi	.L307
 357:../../libDaisy//src/dev/oled_ssd130x.h ****         else
 5029              		.loc 4 357 42 view .LVU1315
 5030 0184 93F824B4 		ldrb	fp, [r3, #1060]	@ zero_extendqisi2
 5031 0188 48EA0B08 		orr	r8, r8, fp
 5032 018c 83F82484 		strb	r8, [r3, #1060]
 5033              	.L307:
 357:../../libDaisy//src/dev/oled_ssd130x.h ****         else
 5034              		.loc 4 357 42 view .LVU1316
 5035              	.LBE1244:
 5036              	.LBE1245:
 5037              	.LBE1246:
 243:../../libDaisy//src/hid/disp/display.h ****             {
 5038              		.loc 3 243 13 view .LVU1317
 5039 0190 BAEB4E0F 		cmp	r10, lr, lsl #1
 5040 0194 04DA     		bge	.L308
 245:../../libDaisy//src/hid/disp/display.h ****                 x1 += signX;
 5041              		.loc 3 245 23 view .LVU1318
 5042 0196 059B     		ldr	r3, [sp, #20]
 246:../../libDaisy//src/hid/disp/display.h ****             }
 5043              		.loc 3 246 20 view .LVU1319
 5044 0198 0CF1FF3C 		add	ip, ip, #-1
 5045              	.LVL359:
 245:../../libDaisy//src/hid/disp/display.h ****                 x1 += signX;
 5046              		.loc 3 245 23 view .LVU1320
 5047 019c AEEB030E 		sub	lr, lr, r3
 5048              	.LVL360:
 5049              	.L308:
 249:../../libDaisy//src/hid/disp/display.h ****             {
 5050              		.loc 3 249 13 view .LVU1321
 5051 01a0 B9F1000F 		cmp	r9, #0
 5052 01a4 01D0     		beq	.L309
 252:../../libDaisy//src/hid/disp/display.h ****             }
 5053              		.loc 3 252 20 view .LVU1322
 5054 01a6 069B     		ldr	r3, [sp, #24]
 5055 01a8 1944     		add	r1, r1, r3
 5056              	.LVL361:
ARM GAS  /var/folders/1y/_321xjh9623c014x9_qw12rr0000gn/T//ccXuncwa.s 			page 144


 5057              	.L309:
 239:../../libDaisy//src/hid/disp/display.h ****         {
 5058              		.loc 3 239 26 is_stmt 1 view .LVU1323
 5059 01aa 6645     		cmp	r6, ip
 5060 01ac D9D1     		bne	.L306
 239:../../libDaisy//src/hid/disp/display.h ****         {
 5061              		.loc 3 239 26 is_stmt 0 view .LVU1324
 5062 01ae 049B     		ldr	r3, [sp, #16]
 5063 01b0 8B42     		cmp	r3, r1
 5064 01b2 D6D1     		bne	.L306
 5065 01b4 4FF0000B 		mov	fp, #0
 5066              	.LVL362:
 5067              	.L303:
 239:../../libDaisy//src/hid/disp/display.h ****         {
 5068              		.loc 3 239 26 view .LVU1325
 5069              	.LBE1250:
 5070              	.LBE1252:
 5071              	.LBB1253:
 5072              	.LBI1253:
 221:../../libDaisy//src/hid/disp/display.h ****                   uint_fast8_t y1,
 5073              		.loc 3 221 10 is_stmt 1 view .LVU1326
 5074              	.LBB1254:
 227:../../libDaisy//src/hid/disp/display.h ****         int_fast16_t deltaY = abs((int_fast16_t)y2 - (int_fast16_t)y1);
 5075              		.loc 3 227 52 is_stmt 0 view .LVU1327
 5076 01b8 A7EB060E 		sub	lr, r7, r6
 229:../../libDaisy//src/hid/disp/display.h ****         int_fast16_t signY  = ((y1 < y2) ? 1 : -1);
 5077              		.loc 3 229 42 view .LVU1328
 5078 01bc B742     		cmp	r7, r6
 5079 01be 8CBF     		ite	hi
 5080 01c0 0126     		movhi	r6, #1
 5081 01c2 4FF0FF36 		movls	r6, #-1
 5082              	.LBB1255:
 5083              	.LBB1256:
 5084              	.LBB1257:
 354:../../libDaisy//src/dev/oled_ssd130x.h ****             return;
 5085              		.loc 4 354 9 view .LVU1329
 5086 01c6 079B     		ldr	r3, [sp, #28]
 5087              	.LBE1257:
 5088              	.LBE1256:
 5089              	.LBE1255:
 227:../../libDaisy//src/hid/disp/display.h ****         int_fast16_t deltaY = abs((int_fast16_t)y2 - (int_fast16_t)y1);
 5090              		.loc 3 227 22 view .LVU1330
 5091 01c8 BEF1000F 		cmp	lr, #0
 5092 01cc B8BF     		it	lt
 5093 01ce CEF1000E 		rsblt	lr, lr, #0
 5094              	.LVL363:
 5095              	.LBB1260:
 5096              	.LBI1255:
  42:../../libDaisy//src/hid/disp/oled_display.h ****     {
 5097              		.loc 1 42 10 is_stmt 1 view .LVU1331
 5098              	.LBB1259:
 5099              	.LBI1256:
 352:../../libDaisy//src/dev/oled_ssd130x.h ****     {
 5100              		.loc 4 352 10 view .LVU1332
 5101              	.LBB1258:
 354:../../libDaisy//src/dev/oled_ssd130x.h ****             return;
 5102              		.loc 4 354 14 is_stmt 0 view .LVU1333
ARM GAS  /var/folders/1y/_321xjh9623c014x9_qw12rr0000gn/T//ccXuncwa.s 			page 145


 5103 01d2 7F2F     		cmp	r7, #127
 5104 01d4 94BF     		ite	ls
 5105 01d6 4FF0000A 		movls	r10, #0
 5106 01da 4FF0010A 		movhi	r10, #1
 354:../../libDaisy//src/dev/oled_ssd130x.h ****             return;
 5107              		.loc 4 354 9 view .LVU1334
 5108 01de 9BB9     		cbnz	r3, .L311
 5109 01e0 BAF1000F 		cmp	r10, #0
 5110 01e4 10D1     		bne	.L311
 357:../../libDaisy//src/dev/oled_ssd130x.h ****         else
 5111              		.loc 4 357 28 view .LVU1335
 5112 01e6 0499     		ldr	r1, [sp, #16]
 357:../../libDaisy//src/dev/oled_ssd130x.h ****         else
 5113              		.loc 4 357 48 view .LVU1336
 5114 01e8 4FF0010C 		mov	ip, #1
 357:../../libDaisy//src/dev/oled_ssd130x.h ****         else
 5115              		.loc 4 357 28 view .LVU1337
 5116 01ec CB08     		lsrs	r3, r1, #3
 357:../../libDaisy//src/dev/oled_ssd130x.h ****         else
 5117              		.loc 4 357 54 view .LVU1338
 5118 01ee 01F00701 		and	r1, r1, #7
 357:../../libDaisy//src/dev/oled_ssd130x.h ****         else
 5119              		.loc 4 357 42 view .LVU1339
 5120 01f2 07EBC313 		add	r3, r7, r3, lsl #7
 357:../../libDaisy//src/dev/oled_ssd130x.h ****         else
 5121              		.loc 4 357 48 view .LVU1340
 5122 01f6 0CFA01F1 		lsl	r1, ip, r1
 357:../../libDaisy//src/dev/oled_ssd130x.h ****         else
 5123              		.loc 4 357 42 view .LVU1341
 5124 01fa 2344     		add	r3, r3, r4
 5125 01fc 93F824C4 		ldrb	ip, [r3, #1060]	@ zero_extendqisi2
 5126 0200 41EA0C01 		orr	r1, r1, ip
 5127 0204 83F82414 		strb	r1, [r3, #1060]
 5128              	.L311:
 5129              	.LVL364:
 357:../../libDaisy//src/dev/oled_ssd130x.h ****         else
 5130              		.loc 4 357 42 view .LVU1342
 5131              	.LBE1258:
 5132              	.LBE1259:
 5133              	.LBE1260:
 239:../../libDaisy//src/hid/disp/display.h ****         {
 5134              		.loc 3 239 26 is_stmt 1 view .LVU1343
 5135 0208 099B     		ldr	r3, [sp, #36]
 5136 020a 33BB     		cbnz	r3, .L312
 227:../../libDaisy//src/hid/disp/display.h ****         int_fast16_t deltaY = abs((int_fast16_t)y2 - (int_fast16_t)y1);
 5137              		.loc 3 227 22 is_stmt 0 view .LVU1344
 5138 020c F046     		mov	r8, lr
 5139              	.LBE1254:
 5140              	.LBE1253:
 5141              	.LBE1288:
 212:Dubby.cpp     ****     display.DrawRect(menuBoxBounding[menuItemSelected][0], menuBoxBounding[menuItemSelected][1], me
 5142              		.loc 2 212 21 view .LVU1345
 5143 020e DDF810C0 		ldr	ip, [sp, #16]
 5144              	.LVL365:
 5145              	.L313:
 5146              	.LBB1289:
 5147              	.LBB1265:
ARM GAS  /var/folders/1y/_321xjh9623c014x9_qw12rr0000gn/T//ccXuncwa.s 			page 146


 5148              	.LBB1264:
 5149              	.LBB1261:
 5150              	.LBI1261:
  42:../../libDaisy//src/hid/disp/oled_display.h ****     {
 5151              		.loc 1 42 10 is_stmt 1 view .LVU1346
 5152              	.LBB1262:
 5153              	.LBI1262:
 352:../../libDaisy//src/dev/oled_ssd130x.h ****     {
 5154              		.loc 4 352 10 view .LVU1347
 5155              	.LBB1263:
 357:../../libDaisy//src/dev/oled_ssd130x.h ****         else
 5156              		.loc 4 357 28 is_stmt 0 view .LVU1348
 5157 0212 4FEADC03 		lsr	r3, ip, #3
 357:../../libDaisy//src/dev/oled_ssd130x.h ****         else
 5158              		.loc 4 357 54 view .LVU1349
 5159 0216 0CF00701 		and	r1, ip, #7
 357:../../libDaisy//src/dev/oled_ssd130x.h ****         else
 5160              		.loc 4 357 48 view .LVU1350
 5161 021a 4FF00109 		mov	r9, #1
 354:../../libDaisy//src/dev/oled_ssd130x.h ****             return;
 5162              		.loc 4 354 9 view .LVU1351
 5163 021e 7F28     		cmp	r0, #127
 357:../../libDaisy//src/dev/oled_ssd130x.h ****         else
 5164              		.loc 4 357 42 view .LVU1352
 5165 0220 00EBC313 		add	r3, r0, r3, lsl #7
 357:../../libDaisy//src/dev/oled_ssd130x.h ****         else
 5166              		.loc 4 357 48 view .LVU1353
 5167 0224 09FA01F1 		lsl	r1, r9, r1
 354:../../libDaisy//src/dev/oled_ssd130x.h ****             return;
 5168              		.loc 4 354 9 view .LVU1354
 5169 0228 09D8     		bhi	.L315
 354:../../libDaisy//src/dev/oled_ssd130x.h ****             return;
 5170              		.loc 4 354 9 view .LVU1355
 5171 022a BCF13F0F 		cmp	ip, #63
 357:../../libDaisy//src/dev/oled_ssd130x.h ****         else
 5172              		.loc 4 357 42 view .LVU1356
 5173 022e 2344     		add	r3, r3, r4
 354:../../libDaisy//src/dev/oled_ssd130x.h ****             return;
 5174              		.loc 4 354 9 view .LVU1357
 5175 0230 05D8     		bhi	.L315
 357:../../libDaisy//src/dev/oled_ssd130x.h ****         else
 5176              		.loc 4 357 42 view .LVU1358
 5177 0232 93F82494 		ldrb	r9, [r3, #1060]	@ zero_extendqisi2
 5178 0236 41EA0901 		orr	r1, r1, r9
 5179 023a 83F82414 		strb	r1, [r3, #1060]
 5180              	.L315:
 357:../../libDaisy//src/dev/oled_ssd130x.h ****         else
 5181              		.loc 4 357 42 view .LVU1359
 5182              	.LBE1263:
 5183              	.LBE1262:
 5184              	.LBE1261:
 243:../../libDaisy//src/hid/disp/display.h ****             {
 5185              		.loc 3 243 13 view .LVU1360
 5186 023e 5FEA4803 		lsls	r3, r8, #1
 246:../../libDaisy//src/hid/disp/display.h ****             }
 5187              		.loc 3 246 20 view .LVU1361
 5188 0242 18BF     		it	ne
ARM GAS  /var/folders/1y/_321xjh9623c014x9_qw12rr0000gn/T//ccXuncwa.s 			page 147


 5189 0244 8019     		addne	r0, r0, r6
 5190              	.LVL366:
 249:../../libDaisy//src/hid/disp/display.h ****             {
 5191              		.loc 3 249 13 view .LVU1362
 5192 0246 9E45     		cmp	lr, r3
 5193 0248 02DD     		ble	.L317
 251:../../libDaisy//src/hid/disp/display.h ****                 y1 += signY;
 5194              		.loc 3 251 23 view .LVU1363
 5195 024a F044     		add	r8, r8, lr
 5196              	.LVL367:
 252:../../libDaisy//src/hid/disp/display.h ****             }
 5197              		.loc 3 252 20 view .LVU1364
 5198 024c 0CF1FF3C 		add	ip, ip, #-1
 5199              	.LVL368:
 5200              	.L317:
 239:../../libDaisy//src/hid/disp/display.h ****         {
 5201              		.loc 3 239 26 is_stmt 1 view .LVU1365
 5202 0250 8742     		cmp	r7, r0
 5203 0252 DED1     		bne	.L313
 239:../../libDaisy//src/hid/disp/display.h ****         {
 5204              		.loc 3 239 26 is_stmt 0 view .LVU1366
 5205 0254 049B     		ldr	r3, [sp, #16]
 5206 0256 6345     		cmp	r3, ip
 5207 0258 DBD1     		bne	.L313
 5208              	.LVL369:
 5209              	.L312:
 239:../../libDaisy//src/hid/disp/display.h ****         {
 5210              		.loc 3 239 26 view .LVU1367
 5211              	.LBE1264:
 5212              	.LBE1265:
 5213              	.LBB1266:
 5214              	.LBI1266:
 221:../../libDaisy//src/hid/disp/display.h ****                   uint_fast8_t y1,
 5215              		.loc 3 221 10 is_stmt 1 view .LVU1368
 5216              	.LBB1267:
 228:../../libDaisy//src/hid/disp/display.h ****         int_fast16_t signX  = ((x1 < x2) ? 1 : -1);
 5217              		.loc 3 228 52 is_stmt 0 view .LVU1369
 5218 025a DDE90331 		ldrd	r3, r1, [sp, #12]
 5219 025e A3EB010E 		sub	lr, r3, r1
 230:../../libDaisy//src/hid/disp/display.h ****         int_fast16_t error  = deltaX - deltaY;
 5220              		.loc 3 230 42 view .LVU1370
 5221 0262 8B42     		cmp	r3, r1
 5222 0264 8CBF     		ite	hi
 5223 0266 4FF00108 		movhi	r8, #1
 5224 026a 4FF0FF38 		movls	r8, #-1
 5225              	.LBB1268:
 5226              	.LBB1269:
 5227              	.LBB1270:
 354:../../libDaisy//src/dev/oled_ssd130x.h ****             return;
 5228              		.loc 4 354 9 view .LVU1371
 5229 026e 0899     		ldr	r1, [sp, #32]
 5230              	.LBE1270:
 5231              	.LBE1269:
 5232              	.LBE1268:
 228:../../libDaisy//src/hid/disp/display.h ****         int_fast16_t signX  = ((x1 < x2) ? 1 : -1);
 5233              		.loc 3 228 22 view .LVU1372
 5234 0270 BEF1000F 		cmp	lr, #0
ARM GAS  /var/folders/1y/_321xjh9623c014x9_qw12rr0000gn/T//ccXuncwa.s 			page 148


 5235 0274 B8BF     		it	lt
 5236 0276 CEF1000E 		rsblt	lr, lr, #0
 5237              	.LVL370:
 231:../../libDaisy//src/hid/disp/display.h ****         int_fast16_t error2;
 5238              		.loc 3 231 22 view .LVU1373
 5239 027a CEF1000C 		rsb	ip, lr, #0
 5240              	.LVL371:
 5241              	.LBB1273:
 5242              	.LBI1268:
  42:../../libDaisy//src/hid/disp/oled_display.h ****     {
 5243              		.loc 1 42 10 is_stmt 1 view .LVU1374
 5244              	.LBB1272:
 5245              	.LBI1269:
 352:../../libDaisy//src/dev/oled_ssd130x.h ****     {
 5246              		.loc 4 352 10 view .LVU1375
 5247              	.LBB1271:
 354:../../libDaisy//src/dev/oled_ssd130x.h ****             return;
 5248              		.loc 4 354 9 is_stmt 0 view .LVU1376
 5249 027e 81B9     		cbnz	r1, .L319
 5250 0280 BAF1000F 		cmp	r10, #0
 5251 0284 0DD1     		bne	.L319
 357:../../libDaisy//src/dev/oled_ssd130x.h ****         else
 5252              		.loc 4 357 28 view .LVU1377
 5253 0286 1946     		mov	r1, r3
 5254 0288 DB08     		lsrs	r3, r3, #3
 357:../../libDaisy//src/dev/oled_ssd130x.h ****         else
 5255              		.loc 4 357 42 view .LVU1378
 5256 028a 07EBC313 		add	r3, r7, r3, lsl #7
 357:../../libDaisy//src/dev/oled_ssd130x.h ****         else
 5257              		.loc 4 357 54 view .LVU1379
 5258 028e 01F00700 		and	r0, r1, #7
 357:../../libDaisy//src/dev/oled_ssd130x.h ****         else
 5259              		.loc 4 357 48 view .LVU1380
 5260 0292 0121     		movs	r1, #1
 357:../../libDaisy//src/dev/oled_ssd130x.h ****         else
 5261              		.loc 4 357 42 view .LVU1381
 5262 0294 2344     		add	r3, r3, r4
 357:../../libDaisy//src/dev/oled_ssd130x.h ****         else
 5263              		.loc 4 357 48 view .LVU1382
 5264 0296 8140     		lsls	r1, r1, r0
 357:../../libDaisy//src/dev/oled_ssd130x.h ****         else
 5265              		.loc 4 357 42 view .LVU1383
 5266 0298 93F82404 		ldrb	r0, [r3, #1060]	@ zero_extendqisi2
 5267 029c 0143     		orrs	r1, r1, r0
 5268 029e 83F82414 		strb	r1, [r3, #1060]
 5269              	.L319:
 5270              	.LVL372:
 357:../../libDaisy//src/dev/oled_ssd130x.h ****         else
 5271              		.loc 4 357 42 view .LVU1384
 5272              	.LBE1271:
 5273              	.LBE1272:
 5274              	.LBE1273:
 239:../../libDaisy//src/hid/disp/display.h ****         {
 5275              		.loc 3 239 26 is_stmt 1 view .LVU1385
 5276 02a2 BBF1000F 		cmp	fp, #0
 5277 02a6 25D1     		bne	.L320
 5278 02a8 6046     		mov	r0, ip
ARM GAS  /var/folders/1y/_321xjh9623c014x9_qw12rr0000gn/T//ccXuncwa.s 			page 149


 5279              	.LBE1267:
 5280              	.LBE1266:
 5281              	.LBE1289:
 212:Dubby.cpp     ****     display.DrawRect(menuBoxBounding[menuItemSelected][0], menuBoxBounding[menuItemSelected][1], me
 5282              		.loc 2 212 21 is_stmt 0 view .LVU1386
 5283 02aa 3946     		mov	r1, r7
 5284              	.LVL373:
 5285              	.L321:
 5286              	.LBB1290:
 5287              	.LBB1281:
 5288              	.LBB1280:
 5289              	.LBB1274:
 5290              	.LBI1274:
  42:../../libDaisy//src/hid/disp/oled_display.h ****     {
 5291              		.loc 1 42 10 is_stmt 1 view .LVU1387
 5292              	.LBB1275:
 5293              	.LBI1275:
 352:../../libDaisy//src/dev/oled_ssd130x.h ****     {
 5294              		.loc 4 352 10 view .LVU1388
 5295              	.LBB1276:
 357:../../libDaisy//src/dev/oled_ssd130x.h ****         else
 5296              		.loc 4 357 48 is_stmt 0 view .LVU1389
 5297 02ac 0126     		movs	r6, #1
 357:../../libDaisy//src/dev/oled_ssd130x.h ****         else
 5298              		.loc 4 357 28 view .LVU1390
 5299 02ae D308     		lsrs	r3, r2, #3
 357:../../libDaisy//src/dev/oled_ssd130x.h ****         else
 5300              		.loc 4 357 54 view .LVU1391
 5301 02b0 02F0070A 		and	r10, r2, #7
 354:../../libDaisy//src/dev/oled_ssd130x.h ****             return;
 5302              		.loc 4 354 9 view .LVU1392
 5303 02b4 7F29     		cmp	r1, #127
 5304              	.LBE1276:
 5305              	.LBE1275:
 5306              	.LBE1274:
 242:../../libDaisy//src/hid/disp/display.h ****             if(error2 > -deltaY)
 5307              		.loc 3 242 20 view .LVU1393
 5308 02b6 00FA06F9 		lsl	r9, r0, r6
 5309              	.LVL374:
 5310              	.LBB1279:
 5311              	.LBB1278:
 5312              	.LBB1277:
 357:../../libDaisy//src/dev/oled_ssd130x.h ****         else
 5313              		.loc 4 357 42 view .LVU1394
 5314 02ba 01EBC313 		add	r3, r1, r3, lsl #7
 357:../../libDaisy//src/dev/oled_ssd130x.h ****         else
 5315              		.loc 4 357 48 view .LVU1395
 5316 02be 06FA0AF6 		lsl	r6, r6, r10
 354:../../libDaisy//src/dev/oled_ssd130x.h ****             return;
 5317              		.loc 4 354 9 view .LVU1396
 5318 02c2 08D8     		bhi	.L323
 354:../../libDaisy//src/dev/oled_ssd130x.h ****             return;
 5319              		.loc 4 354 9 view .LVU1397
 5320 02c4 3F2A     		cmp	r2, #63
 357:../../libDaisy//src/dev/oled_ssd130x.h ****         else
 5321              		.loc 4 357 42 view .LVU1398
 5322 02c6 2344     		add	r3, r3, r4
ARM GAS  /var/folders/1y/_321xjh9623c014x9_qw12rr0000gn/T//ccXuncwa.s 			page 150


 354:../../libDaisy//src/dev/oled_ssd130x.h ****             return;
 5323              		.loc 4 354 9 view .LVU1399
 5324 02c8 05D8     		bhi	.L323
 357:../../libDaisy//src/dev/oled_ssd130x.h ****         else
 5325              		.loc 4 357 42 view .LVU1400
 5326 02ca 93F824A4 		ldrb	r10, [r3, #1060]	@ zero_extendqisi2
 5327 02ce 46EA0A06 		orr	r6, r6, r10
 5328 02d2 83F82464 		strb	r6, [r3, #1060]
 5329              	.L323:
 357:../../libDaisy//src/dev/oled_ssd130x.h ****         else
 5330              		.loc 4 357 42 view .LVU1401
 5331              	.LBE1277:
 5332              	.LBE1278:
 5333              	.LBE1279:
 243:../../libDaisy//src/hid/disp/display.h ****             {
 5334              		.loc 3 243 13 view .LVU1402
 5335 02d6 BCEB400F 		cmp	ip, r0, lsl #1
 5336 02da 02DA     		bge	.L324
 246:../../libDaisy//src/hid/disp/display.h ****             }
 5337              		.loc 3 246 20 view .LVU1403
 5338 02dc 0139     		subs	r1, r1, #1
 5339              	.LVL375:
 245:../../libDaisy//src/hid/disp/display.h ****                 x1 += signX;
 5340              		.loc 3 245 23 view .LVU1404
 5341 02de A0EB0E00 		sub	r0, r0, lr
 5342              	.LVL376:
 5343              	.L324:
 249:../../libDaisy//src/hid/disp/display.h ****             {
 5344              		.loc 3 249 13 view .LVU1405
 5345 02e2 B9F1000F 		cmp	r9, #0
 5346 02e6 00D0     		beq	.L325
 252:../../libDaisy//src/hid/disp/display.h ****             }
 5347              		.loc 3 252 20 view .LVU1406
 5348 02e8 4244     		add	r2, r2, r8
 5349              	.LVL377:
 5350              	.L325:
 239:../../libDaisy//src/hid/disp/display.h ****         {
 5351              		.loc 3 239 26 is_stmt 1 view .LVU1407
 5352 02ea 8F42     		cmp	r7, r1
 5353 02ec DED1     		bne	.L321
 239:../../libDaisy//src/hid/disp/display.h ****         {
 5354              		.loc 3 239 26 is_stmt 0 view .LVU1408
 5355 02ee 039B     		ldr	r3, [sp, #12]
 5356 02f0 9342     		cmp	r3, r2
 5357 02f2 DBD1     		bne	.L321
 5358              	.LVL378:
 5359              	.L320:
 239:../../libDaisy//src/hid/disp/display.h ****         {
 5360              		.loc 3 239 26 view .LVU1409
 5361 02f4 2646     		mov	r6, r4
 5362 02f6 A4F10408 		sub	r8, r4, #4
 5363              	.LVL379:
 239:../../libDaisy//src/hid/disp/display.h ****         {
 5364              		.loc 3 239 26 view .LVU1410
 5365 02fa 04F11809 		add	r9, r4, #24
 5366 02fe 4C4F     		ldr	r7, .L374
 5367              	.LVL380:
ARM GAS  /var/folders/1y/_321xjh9623c014x9_qw12rr0000gn/T//ccXuncwa.s 			page 151


 239:../../libDaisy//src/hid/disp/display.h ****         {
 5368              		.loc 3 239 26 view .LVU1411
 5369 0300 18EE10AA 		vmov	r10, s16	@ int
 5370              	.LVL381:
 5371              	.L326:
 239:../../libDaisy//src/hid/disp/display.h ****         {
 5372              		.loc 3 239 26 view .LVU1412
 5373              	.LBE1280:
 5374              	.LBE1281:
 5375              	.LBE1290:
 5376              	.LBB1291:
 216:Dubby.cpp     ****         display.SetCursor(menuTextCursors[i][0], menuTextCursors[i][1]);
 5377              		.loc 2 216 9 is_stmt 1 discriminator 2 view .LVU1413
 5378              	.LBB1292:
 5379              	.LBB1293:
 173:../../libDaisy//src/hid/disp/display.h ****         currentY_ = (y >= Height()) ? Height() - 1 : y;
 5380              		.loc 3 173 19 is_stmt 0 discriminator 2 view .LVU1414
 5381 0304 B6F85C00 		ldrh	r0, [r6, #92]
 5382              	.LBE1293:
 5383              	.LBE1292:
 217:Dubby.cpp     ****         display.WriteString(GetTextForEnum(MAINMENU, i), Font_6x8, true);
 5384              		.loc 2 217 28 discriminator 2 view .LVU1415
 5385 0308 0123     		movs	r3, #1
 216:Dubby.cpp     ****         display.SetCursor(menuTextCursors[i][0], menuTextCursors[i][1]);
 5386              		.loc 2 216 26 discriminator 2 view .LVU1416
 5387 030a B6F86010 		ldrh	r1, [r6, #96]
 5388              	.LVL382:
 5389              	.LBB1298:
 5390              	.LBI1292:
 171:../../libDaisy//src/hid/disp/display.h ****     {
 5391              		.loc 3 171 10 is_stmt 1 discriminator 2 view .LVU1417
 5392              	.LBB1294:
 173:../../libDaisy//src/hid/disp/display.h ****         currentY_ = (y >= Height()) ? Height() - 1 : y;
 5393              		.loc 3 173 9 discriminator 2 view .LVU1418
 5394              	.LBE1294:
 5395              	.LBE1298:
 214:Dubby.cpp     ****     for (int i = 0; i < MENU_LAST; i++) 
 5396              		.loc 2 214 23 is_stmt 0 discriminator 2 view .LVU1419
 5397 030e 0836     		adds	r6, r6, #8
 5398              	.LVL383:
 5399              	.LBB1299:
 5400              	.LBB1295:
 173:../../libDaisy//src/hid/disp/display.h ****         currentY_ = (y >= Height()) ? Height() - 1 : y;
 5401              		.loc 3 173 19 discriminator 2 view .LVU1420
 5402 0310 7F28     		cmp	r0, #127
 5403              	.LBE1295:
 5404              	.LBE1299:
 217:Dubby.cpp     ****         display.WriteString(GetTextForEnum(MAINMENU, i), Font_6x8, true);
 5405              		.loc 2 217 28 discriminator 2 view .LVU1421
 5406 0312 0093     		str	r3, [sp]
 5407              	.LVL384:
 5408              	.LBB1300:
 5409              	.LBB1296:
 173:../../libDaisy//src/hid/disp/display.h ****         currentY_ = (y >= Height()) ? Height() - 1 : y;
 5410              		.loc 3 173 19 discriminator 2 view .LVU1422
 5411 0314 28BF     		it	cs
 5412 0316 7F20     		movcs	r0, #127
ARM GAS  /var/folders/1y/_321xjh9623c014x9_qw12rr0000gn/T//ccXuncwa.s 			page 152


 5413              	.LVL385:
 174:../../libDaisy//src/hid/disp/display.h ****     }
 5414              		.loc 3 174 19 discriminator 2 view .LVU1423
 5415 0318 3F29     		cmp	r1, #63
 5416 031a 28BF     		it	cs
 5417 031c 3F21     		movcs	r1, #63
 5418              	.LVL386:
 173:../../libDaisy//src/hid/disp/display.h ****         currentY_ = (y >= Height()) ? Height() - 1 : y;
 5419              		.loc 3 173 19 discriminator 2 view .LVU1424
 5420 031e A4F81404 		strh	r0, [r4, #1044]	@ movhi
 174:../../libDaisy//src/hid/disp/display.h ****     }
 5421              		.loc 3 174 9 is_stmt 1 discriminator 2 view .LVU1425
 5422              	.LBE1296:
 5423              	.LBE1300:
 217:Dubby.cpp     ****         display.WriteString(GetTextForEnum(MAINMENU, i), Font_6x8, true);
 5424              		.loc 2 217 28 is_stmt 0 discriminator 2 view .LVU1426
 5425 0322 5046     		mov	r0, r10
 5426              	.LBB1301:
 5427              	.LBB1297:
 174:../../libDaisy//src/hid/disp/display.h ****     }
 5428              		.loc 3 174 19 discriminator 2 view .LVU1427
 5429 0324 A4F81614 		strh	r1, [r4, #1046]	@ movhi
 5430              	.LVL387:
 174:../../libDaisy//src/hid/disp/display.h ****     }
 5431              		.loc 3 174 19 discriminator 2 view .LVU1428
 5432              	.LBE1297:
 5433              	.LBE1301:
 217:Dubby.cpp     ****         display.WriteString(GetTextForEnum(MAINMENU, i), Font_6x8, true);
 5434              		.loc 2 217 9 is_stmt 1 discriminator 2 view .LVU1429
 5435              	.LBB1302:
 5436              	.LBI1302:
 428:Dubby.cpp     **** const char * Dubby::GetTextForEnum(MenuTypes m, int enumVal)
 5437              		.loc 2 428 14 discriminator 2 view .LVU1430
 5438              	.LBB1303:
 430:Dubby.cpp     ****     switch (m)
 5439              		.loc 2 430 5 discriminator 2 view .LVU1431
 432:Dubby.cpp     ****         case MAINMENU:
 5440              		.loc 2 432 9 discriminator 2 view .LVU1432
 433:Dubby.cpp     ****             return MenuItemsStrings[enumVal];
 5441              		.loc 2 433 13 discriminator 2 view .LVU1433
 433:Dubby.cpp     ****             return MenuItemsStrings[enumVal];
 5442              		.loc 2 433 13 is_stmt 0 discriminator 2 view .LVU1434
 5443              	.LBE1303:
 5444              	.LBE1302:
 217:Dubby.cpp     ****         display.WriteString(GetTextForEnum(MAINMENU, i), Font_6x8, true);
 5445              		.loc 2 217 28 discriminator 2 view .LVU1435
 5446 0328 58F8041F 		ldr	r1, [r8, #4]!
 5447 032c 97E80C00 		ldm	r7, {r2, r3}
 5448 0330 FFF7FEFF 		bl	_ZN5daisy25OneBitGraphicsDisplayImplINS_11OledDisplayINS_13SSD130xDriverILj128ELj64ENS_24SSD130
 5449              	.LVL388:
 214:Dubby.cpp     ****     for (int i = 0; i < MENU_LAST; i++) 
 5450              		.loc 2 214 5 is_stmt 1 discriminator 2 view .LVU1436
 214:Dubby.cpp     ****     for (int i = 0; i < MENU_LAST; i++) 
 5451              		.loc 2 214 23 discriminator 2 view .LVU1437
 5452 0334 B145     		cmp	r9, r6
 5453 0336 E5D1     		bne	.L326
 5454              	.LBE1291:
ARM GAS  /var/folders/1y/_321xjh9623c014x9_qw12rr0000gn/T//ccXuncwa.s 			page 153


 5455              	.LBB1304:
 5456              	.LBB1305:
 5457              	.LBB1306:
 5458              	.LBB1307:
 5459              	.LBB1308:
 124:../../libDaisy//src/dev/oled_ssd130x.h ****         spi_.BlockingTransmit(&cmd, 1);
 5460              		.loc 4 124 24 is_stmt 0 view .LVU1438
 5461 0338 04F58464 		add	r4, r4, #1056
 5462              	.LVL389:
 124:../../libDaisy//src/dev/oled_ssd130x.h ****         spi_.BlockingTransmit(&cmd, 1);
 5463              		.loc 4 124 24 view .LVU1439
 5464 033c 05F10C07 		add	r7, r5, #12
 5465 0340 05F20C49 		addw	r9, r5, #1036
 5466              	.LVL390:
 124:../../libDaisy//src/dev/oled_ssd130x.h ****         spi_.BlockingTransmit(&cmd, 1);
 5467              		.loc 4 124 24 view .LVU1440
 5468 0344 B026     		movs	r6, #176
 5469              	.L327:
 5470              	.LVL391:
 124:../../libDaisy//src/dev/oled_ssd130x.h ****         spi_.BlockingTransmit(&cmd, 1);
 5471              		.loc 4 124 24 view .LVU1441
 5472 0346 4FF00008 		mov	r8, #0
 124:../../libDaisy//src/dev/oled_ssd130x.h ****         spi_.BlockingTransmit(&cmd, 1);
 5473              		.loc 4 124 23 view .LVU1442
 5474 034a 2046     		mov	r0, r4
 5475 034c 8DF82F60 		strb	r6, [sp, #47]
 5476              	.LVL392:
 124:../../libDaisy//src/dev/oled_ssd130x.h ****         spi_.BlockingTransmit(&cmd, 1);
 5477              		.loc 4 124 23 view .LVU1443
 5478              	.LBE1308:
 5479              	.LBI1307:
 122:../../libDaisy//src/dev/oled_ssd130x.h ****     {
 5480              		.loc 4 122 10 is_stmt 1 view .LVU1444
 5481              	.LBB1309:
 124:../../libDaisy//src/dev/oled_ssd130x.h ****         spi_.BlockingTransmit(&cmd, 1);
 5482              		.loc 4 124 9 view .LVU1445
 5483              	.LBE1309:
 5484              	.LBE1307:
 5485              		.loc 4 383 22 is_stmt 0 view .LVU1446
 5486 0350 0136     		adds	r6, r6, #1
 5487              	.LVL393:
 5488              	.LBB1312:
 5489              	.LBB1310:
 124:../../libDaisy//src/dev/oled_ssd130x.h ****         spi_.BlockingTransmit(&cmd, 1);
 5490              		.loc 4 124 23 view .LVU1447
 5491 0352 4146     		mov	r1, r8
 5492 0354 FFF7FEFF 		bl	dsy_gpio_write
 5493              	.LVL394:
 125:../../libDaisy//src/dev/oled_ssd130x.h ****     };
 5494              		.loc 4 125 9 is_stmt 1 view .LVU1448
 125:../../libDaisy//src/dev/oled_ssd130x.h ****     };
 5495              		.loc 4 125 30 is_stmt 0 view .LVU1449
 5496 0358 6423     		movs	r3, #100
 5497 035a 0122     		movs	r2, #1
 5498 035c 0DF12F01 		add	r1, sp, #47
 5499 0360 2846     		mov	r0, r5
 5500              	.LBE1310:
ARM GAS  /var/folders/1y/_321xjh9623c014x9_qw12rr0000gn/T//ccXuncwa.s 			page 154


 5501              	.LBE1312:
 5502              		.loc 4 383 22 view .LVU1450
 5503 0362 F6B2     		uxtb	r6, r6
 5504              	.LBB1313:
 5505              	.LBB1311:
 125:../../libDaisy//src/dev/oled_ssd130x.h ****     };
 5506              		.loc 4 125 30 view .LVU1451
 5507 0364 FFF7FEFF 		bl	_ZN5daisy9SpiHandle16BlockingTransmitEPhjm
 5508              	.LVL395:
 125:../../libDaisy//src/dev/oled_ssd130x.h ****     };
 5509              		.loc 4 125 30 view .LVU1452
 5510              	.LBE1311:
 5511              	.LBE1313:
 5512              	.LBB1314:
 5513              	.LBB1315:
 124:../../libDaisy//src/dev/oled_ssd130x.h ****         spi_.BlockingTransmit(&cmd, 1);
 5514              		.loc 4 124 23 view .LVU1453
 5515 0368 4146     		mov	r1, r8
 5516 036a 2046     		mov	r0, r4
 5517 036c 8DF82F80 		strb	r8, [sp, #47]
 5518              	.LVL396:
 124:../../libDaisy//src/dev/oled_ssd130x.h ****         spi_.BlockingTransmit(&cmd, 1);
 5519              		.loc 4 124 23 view .LVU1454
 5520              	.LBE1315:
 5521              	.LBI1314:
 122:../../libDaisy//src/dev/oled_ssd130x.h ****     {
 5522              		.loc 4 122 10 is_stmt 1 view .LVU1455
 5523              	.LBB1316:
 124:../../libDaisy//src/dev/oled_ssd130x.h ****         spi_.BlockingTransmit(&cmd, 1);
 5524              		.loc 4 124 9 view .LVU1456
 124:../../libDaisy//src/dev/oled_ssd130x.h ****         spi_.BlockingTransmit(&cmd, 1);
 5525              		.loc 4 124 23 is_stmt 0 view .LVU1457
 5526 0370 FFF7FEFF 		bl	dsy_gpio_write
 5527              	.LVL397:
 125:../../libDaisy//src/dev/oled_ssd130x.h ****     };
 5528              		.loc 4 125 9 is_stmt 1 view .LVU1458
 125:../../libDaisy//src/dev/oled_ssd130x.h ****     };
 5529              		.loc 4 125 30 is_stmt 0 view .LVU1459
 5530 0374 0122     		movs	r2, #1
 5531 0376 6423     		movs	r3, #100
 5532 0378 0DF12F01 		add	r1, sp, #47
 5533 037c 2846     		mov	r0, r5
 5534 037e FFF7FEFF 		bl	_ZN5daisy9SpiHandle16BlockingTransmitEPhjm
 5535              	.LVL398:
 125:../../libDaisy//src/dev/oled_ssd130x.h ****     };
 5536              		.loc 4 125 30 view .LVU1460
 5537 0382 1023     		movs	r3, #16
 5538              	.LBE1316:
 5539              	.LBE1314:
 5540              	.LBB1317:
 5541              	.LBB1318:
 124:../../libDaisy//src/dev/oled_ssd130x.h ****         spi_.BlockingTransmit(&cmd, 1);
 5542              		.loc 4 124 23 view .LVU1461
 5543 0384 4146     		mov	r1, r8
 5544 0386 2046     		mov	r0, r4
 5545 0388 8DF82F30 		strb	r3, [sp, #47]
 5546              	.LVL399:
ARM GAS  /var/folders/1y/_321xjh9623c014x9_qw12rr0000gn/T//ccXuncwa.s 			page 155


 124:../../libDaisy//src/dev/oled_ssd130x.h ****         spi_.BlockingTransmit(&cmd, 1);
 5547              		.loc 4 124 23 view .LVU1462
 5548              	.LBE1318:
 5549              	.LBI1317:
 122:../../libDaisy//src/dev/oled_ssd130x.h ****     {
 5550              		.loc 4 122 10 is_stmt 1 view .LVU1463
 5551              	.LBB1319:
 124:../../libDaisy//src/dev/oled_ssd130x.h ****         spi_.BlockingTransmit(&cmd, 1);
 5552              		.loc 4 124 9 view .LVU1464
 124:../../libDaisy//src/dev/oled_ssd130x.h ****         spi_.BlockingTransmit(&cmd, 1);
 5553              		.loc 4 124 23 is_stmt 0 view .LVU1465
 5554 038c FFF7FEFF 		bl	dsy_gpio_write
 5555              	.LVL400:
 125:../../libDaisy//src/dev/oled_ssd130x.h ****     };
 5556              		.loc 4 125 9 is_stmt 1 view .LVU1466
 125:../../libDaisy//src/dev/oled_ssd130x.h ****     };
 5557              		.loc 4 125 30 is_stmt 0 view .LVU1467
 5558 0390 6423     		movs	r3, #100
 5559 0392 0122     		movs	r2, #1
 5560 0394 0DF12F01 		add	r1, sp, #47
 5561 0398 2846     		mov	r0, r5
 5562 039a FFF7FEFF 		bl	_ZN5daisy9SpiHandle16BlockingTransmitEPhjm
 5563              	.LVL401:
 125:../../libDaisy//src/dev/oled_ssd130x.h ****     };
 5564              		.loc 4 125 30 view .LVU1468
 5565              	.LBE1319:
 5566              	.LBE1317:
 5567              	.LBB1320:
 5568              	.LBI1320:
 128:../../libDaisy//src/dev/oled_ssd130x.h ****     {
 5569              		.loc 4 128 10 is_stmt 1 view .LVU1469
 5570              	.LBB1321:
 130:../../libDaisy//src/dev/oled_ssd130x.h ****         spi_.BlockingTransmit(buff, size);
 5571              		.loc 4 130 9 view .LVU1470
 130:../../libDaisy//src/dev/oled_ssd130x.h ****         spi_.BlockingTransmit(buff, size);
 5572              		.loc 4 130 23 is_stmt 0 view .LVU1471
 5573 039e 0121     		movs	r1, #1
 5574 03a0 2046     		mov	r0, r4
 5575 03a2 FFF7FEFF 		bl	dsy_gpio_write
 5576              	.LVL402:
 131:../../libDaisy//src/dev/oled_ssd130x.h ****     };
 5577              		.loc 4 131 9 is_stmt 1 view .LVU1472
 131:../../libDaisy//src/dev/oled_ssd130x.h ****     };
 5578              		.loc 4 131 30 is_stmt 0 view .LVU1473
 5579 03a6 8022     		movs	r2, #128
 5580 03a8 3946     		mov	r1, r7
 5581 03aa 6423     		movs	r3, #100
 5582              	.LBE1321:
 5583              	.LBE1320:
 5584              		.loc 4 383 22 view .LVU1474
 5585 03ac 1744     		add	r7, r7, r2
 5586              	.LVL403:
 5587              	.LBB1323:
 5588              	.LBB1322:
 131:../../libDaisy//src/dev/oled_ssd130x.h ****     };
 5589              		.loc 4 131 30 view .LVU1475
 5590 03ae 2846     		mov	r0, r5
ARM GAS  /var/folders/1y/_321xjh9623c014x9_qw12rr0000gn/T//ccXuncwa.s 			page 156


 5591 03b0 FFF7FEFF 		bl	_ZN5daisy9SpiHandle16BlockingTransmitEPhjm
 5592              	.LVL404:
 131:../../libDaisy//src/dev/oled_ssd130x.h ****     };
 5593              		.loc 4 131 30 view .LVU1476
 5594              	.LBE1322:
 5595              	.LBE1323:
 5596              		.loc 4 383 9 is_stmt 1 view .LVU1477
 5597              		.loc 4 383 22 view .LVU1478
 5598 03b4 4F45     		cmp	r7, r9
 5599 03b6 C6D1     		bne	.L327
 5600              	.LBE1306:
 5601              	.LBE1305:
 5602              	.LBE1304:
 221:Dubby.cpp     **** }
 5603              		.loc 2 221 1 is_stmt 0 view .LVU1479
 5604 03b8 0DB0     		add	sp, sp, #52
 5605              		.cfi_remember_state
 5606              		.cfi_def_cfa_offset 44
 5607              		@ sp needed
 5608 03ba BDEC028B 		vldm	sp!, {d8}
 5609              		.cfi_restore 80
 5610              		.cfi_restore 81
 5611              		.cfi_def_cfa_offset 36
 5612 03be BDE8F08F 		pop	{r4, r5, r6, r7, r8, r9, r10, fp, pc}
 5613              	.LVL405:
 5614              	.L292:
 5615              		.cfi_restore_state
 5616              	.LBB1324:
 5617              	.LBB1282:
 5618              	.LBB1216:
 5619              	.LBB1212:
  42:../../libDaisy//src/hid/disp/oled_display.h ****     {
 5620              		.loc 1 42 10 is_stmt 1 view .LVU1480
 5621              	.LBB1206:
 5622              	.LBB1202:
 5623              	.LBB1198:
 354:../../libDaisy//src/dev/oled_ssd130x.h ****             return;
 5624              		.loc 4 354 28 is_stmt 0 view .LVU1481
 5625 03c2 039B     		ldr	r3, [sp, #12]
 5626              	.LVL406:
 354:../../libDaisy//src/dev/oled_ssd130x.h ****             return;
 5627              		.loc 4 354 28 view .LVU1482
 5628              	.LBE1198:
 5629              	.LBE1202:
 5630              		.loc 1 44 26 view .LVU1483
 5631 03c4 04F58365 		add	r5, r4, #1048
 5632              	.LVL407:
 5633              	.LBB1203:
 352:../../libDaisy//src/dev/oled_ssd130x.h ****     {
 5634              		.loc 4 352 10 is_stmt 1 view .LVU1484
 5635              	.LBE1203:
 5636              	.LBE1206:
 5637              	.LBE1212:
 229:../../libDaisy//src/hid/disp/display.h ****         int_fast16_t signY  = ((y1 < y2) ? 1 : -1);
 5638              		.loc 3 229 42 is_stmt 0 view .LVU1485
 5639 03c8 4FF0010B 		mov	fp, #1
 5640              	.LBB1213:
ARM GAS  /var/folders/1y/_321xjh9623c014x9_qw12rr0000gn/T//ccXuncwa.s 			page 157


 5641              	.LBB1207:
 5642              	.LBB1204:
 5643              	.LBB1199:
 354:../../libDaisy//src/dev/oled_ssd130x.h ****             return;
 5644              		.loc 4 354 28 view .LVU1486
 5645 03cc 3F2B     		cmp	r3, #63
 5646 03ce 94BF     		ite	ls
 5647 03d0 0023     		movls	r3, #0
 5648 03d2 0123     		movhi	r3, #1
 354:../../libDaisy//src/dev/oled_ssd130x.h ****             return;
 5649              		.loc 4 354 14 view .LVU1487
 5650 03d4 7F2E     		cmp	r6, #127
 354:../../libDaisy//src/dev/oled_ssd130x.h ****             return;
 5651              		.loc 4 354 28 view .LVU1488
 5652 03d6 0893     		str	r3, [sp, #32]
 354:../../libDaisy//src/dev/oled_ssd130x.h ****             return;
 5653              		.loc 4 354 14 view .LVU1489
 5654 03d8 94BF     		ite	ls
 5655 03da 0021     		movls	r1, #0
 5656 03dc 0121     		movhi	r1, #1
 5657 03de 0691     		str	r1, [sp, #24]
 354:../../libDaisy//src/dev/oled_ssd130x.h ****             return;
 5658              		.loc 4 354 9 view .LVU1490
 5659 03e0 002B     		cmp	r3, #0
 5660 03e2 7FF459AE 		bne	.L295
 5661 03e6 0029     		cmp	r1, #0
 5662 03e8 3FF440AE 		beq	.L329
 5663 03ec 54E6     		b	.L295
 5664              	.LVL408:
 5665              	.L301:
 354:../../libDaisy//src/dev/oled_ssd130x.h ****             return;
 5666              		.loc 4 354 9 view .LVU1491
 5667              	.LBE1199:
 5668              	.LBE1204:
 5669              	.LBE1207:
 5670              	.LBE1213:
 5671              	.LBE1216:
 5672              	.LBE1282:
 5673              	.LBB1283:
 5674              	.LBB1251:
 5675              	.LBB1247:
 5676              	.LBB1235:
 5677              	.LBB1229:
 354:../../libDaisy//src/dev/oled_ssd130x.h ****             return;
 5678              		.loc 4 354 28 view .LVU1492
 5679 03ee 049B     		ldr	r3, [sp, #16]
 5680              	.LVL409:
 354:../../libDaisy//src/dev/oled_ssd130x.h ****             return;
 5681              		.loc 4 354 28 view .LVU1493
 5682              	.LBE1229:
 5683              	.LBE1235:
 5684              	.LBE1247:
 231:../../libDaisy//src/hid/disp/display.h ****         int_fast16_t error2;
 5685              		.loc 3 231 22 view .LVU1494
 5686 03f0 0599     		ldr	r1, [sp, #20]
 5687              	.LBB1248:
 5688              	.LBB1236:
ARM GAS  /var/folders/1y/_321xjh9623c014x9_qw12rr0000gn/T//ccXuncwa.s 			page 158


 5689              	.LBB1230:
 354:../../libDaisy//src/dev/oled_ssd130x.h ****             return;
 5690              		.loc 4 354 28 view .LVU1495
 5691 03f2 3F2B     		cmp	r3, #63
 5692              	.LBE1230:
 5693              	.LBE1236:
 5694              	.LBE1248:
 231:../../libDaisy//src/hid/disp/display.h ****         int_fast16_t error2;
 5695              		.loc 3 231 22 view .LVU1496
 5696 03f4 C1F1000A 		rsb	r10, r1, #0
 5697              	.LVL410:
 5698              	.LBB1249:
  42:../../libDaisy//src/hid/disp/oled_display.h ****     {
 5699              		.loc 1 42 10 is_stmt 1 view .LVU1497
 5700              	.LBB1237:
 352:../../libDaisy//src/dev/oled_ssd130x.h ****     {
 5701              		.loc 4 352 10 view .LVU1498
 5702              	.LBB1231:
 354:../../libDaisy//src/dev/oled_ssd130x.h ****             return;
 5703              		.loc 4 354 28 is_stmt 0 view .LVU1499
 5704 03f8 94BF     		ite	ls
 5705 03fa 0023     		movls	r3, #0
 5706 03fc 0123     		movhi	r3, #1
 5707 03fe 0793     		str	r3, [sp, #28]
 354:../../libDaisy//src/dev/oled_ssd130x.h ****             return;
 5708              		.loc 4 354 9 view .LVU1500
 5709 0400 23B9     		cbnz	r3, .L338
 5710 0402 069B     		ldr	r3, [sp, #24]
 5711 0404 13B9     		cbnz	r3, .L338
 5712              	.LBE1231:
 5713              	.LBE1237:
 5714              	.LBE1249:
 230:../../libDaisy//src/hid/disp/display.h ****         int_fast16_t error  = deltaX - deltaY;
 5715              		.loc 3 230 42 view .LVU1501
 5716 0406 0123     		movs	r3, #1
 5717 0408 0693     		str	r3, [sp, #24]
 5718 040a 8FE6     		b	.L328
 5719              	.L338:
 5720 040c 0123     		movs	r3, #1
 5721 040e 0693     		str	r3, [sp, #24]
 5722 0410 A4E6     		b	.L304
 5723              	.LVL411:
 5724              	.L333:
 230:../../libDaisy//src/hid/disp/display.h ****         int_fast16_t error  = deltaX - deltaY;
 5725              		.loc 3 230 42 view .LVU1502
 5726 0412 4FF0FF33 		mov	r3, #-1
 5727 0416 0693     		str	r3, [sp, #24]
 5728              	.LVL412:
 239:../../libDaisy//src/hid/disp/display.h ****         {
 5729              		.loc 3 239 26 is_stmt 1 view .LVU1503
 5730 0418 DDE90331 		ldrd	r3, r1, [sp, #12]
 5731 041c 8B42     		cmp	r3, r1
 5732 041e 7FF49DAE 		bne	.L304
 5733              	.LVL413:
 5734              	.L373:
 239:../../libDaisy//src/hid/disp/display.h ****         {
 5735              		.loc 3 239 33 is_stmt 0 view .LVU1504
ARM GAS  /var/folders/1y/_321xjh9623c014x9_qw12rr0000gn/T//ccXuncwa.s 			page 159


 5736 0422 4FF0010B 		mov	fp, #1
 5737 0426 C7E6     		b	.L303
 5738              	.LVL414:
 5739              	.L372:
 239:../../libDaisy//src/hid/disp/display.h ****         {
 5740              		.loc 3 239 33 view .LVU1505
 5741              	.LBE1251:
 5742              	.LBE1283:
 5743              	.LBB1284:
 5744              	.LBB1217:
 239:../../libDaisy//src/hid/disp/display.h ****         {
 5745              		.loc 3 239 19 view .LVU1506
 5746 0428 0123     		movs	r3, #1
 5747 042a 0993     		str	r3, [sp, #36]
 5748 042c 5FE6     		b	.L294
 5749              	.L375:
 5750 042e 00BF     		.align	2
 5751              	.L374:
 5752 0430 00000000 		.word	Font_6x8
 5753              	.LBE1217:
 5754              	.LBE1284:
 5755              	.LBE1324:
 5756              		.cfi_endproc
 5757              	.LFE2583:
 5759              		.section	.text._ZN5daisy5Dubby22DisplayPreferencesMenuEv,"ax",%progbits
 5760              		.align	1
 5761              		.p2align 2,,3
 5762              		.global	_ZN5daisy5Dubby22DisplayPreferencesMenuEv
 5763              		.syntax unified
 5764              		.thumb
 5765              		.thumb_func
 5767              	_ZN5daisy5Dubby22DisplayPreferencesMenuEv:
 5768              	.LVL415:
 5769              	.LFB2588:
 289:Dubby.cpp     **** {
 5770              		.loc 2 289 1 is_stmt 1 view -0
 5771              		.cfi_startproc
 5772              		@ args = 0, pretend = 0, frame = 48
 5773              		@ frame_needed = 0, uses_anonymous_args = 0
 290:Dubby.cpp     ****     display.DrawRect(PANE_X_START, PANE_Y_START, PANE_X_END, PANE_Y_END, false, true);
 5774              		.loc 2 290 5 view .LVU1508
 290:Dubby.cpp     ****     display.DrawRect(PANE_X_START, PANE_Y_START, PANE_X_END, PANE_Y_END, false, true);
 5775              		.loc 2 290 21 is_stmt 0 view .LVU1509
 5776 0000 00F58263 		add	r3, r0, #1040
 289:Dubby.cpp     **** {
 5777              		.loc 2 289 1 view .LVU1510
 5778 0004 2DE9F04F 		push	{r4, r5, r6, r7, r8, r9, r10, fp, lr}
 5779              		.cfi_def_cfa_offset 36
 5780              		.cfi_offset 4, -36
 5781              		.cfi_offset 5, -32
 5782              		.cfi_offset 6, -28
 5783              		.cfi_offset 7, -24
 5784              		.cfi_offset 8, -20
 5785              		.cfi_offset 9, -16
 5786              		.cfi_offset 10, -12
 5787              		.cfi_offset 11, -8
 5788              		.cfi_offset 14, -4
ARM GAS  /var/folders/1y/_321xjh9623c014x9_qw12rr0000gn/T//ccXuncwa.s 			page 160


 5789              	.LBB1434:
 5790              	.LBB1435:
 5791              	.LBB1436:
 266:../../libDaisy//src/hid/disp/display.h ****             {
 5792              		.loc 3 266 30 view .LVU1511
 5793 0008 0124     		movs	r4, #1
 5794              	.LBE1436:
 5795              	.LBE1435:
 5796              	.LBE1434:
 289:Dubby.cpp     **** {
 5797              		.loc 2 289 1 view .LVU1512
 5798 000a 0546     		mov	r5, r0
 5799 000c 2DED028B 		vpush.64	{d8}
 5800              		.cfi_def_cfa_offset 44
 5801              		.cfi_offset 80, -44
 5802              		.cfi_offset 81, -40
 290:Dubby.cpp     ****     display.DrawRect(PANE_X_START, PANE_Y_START, PANE_X_END, PANE_Y_END, false, true);
 5803              		.loc 2 290 21 view .LVU1513
 5804 0010 08EE103A 		vmov	s16, r3	@ int
 5805              	.LVL416:
 5806              	.LBB1454:
 5807              	.LBI1434:
 257:../../libDaisy//src/hid/disp/display.h ****                   uint_fast8_t y1,
 5808              		.loc 3 257 10 is_stmt 1 view .LVU1514
 5809              	.LBB1452:
 5810              	.LBI1435:
 257:../../libDaisy//src/hid/disp/display.h ****                   uint_fast8_t y1,
 5811              		.loc 3 257 10 view .LVU1515
 5812              	.LBB1450:
 266:../../libDaisy//src/hid/disp/display.h ****             {
 5813              		.loc 3 266 40 view .LVU1516
 5814              	.LBE1450:
 5815              	.LBE1452:
 5816              	.LBE1454:
 289:Dubby.cpp     **** {
 5817              		.loc 2 289 1 is_stmt 0 view .LVU1517
 5818 0014 8FB0     		sub	sp, sp, #60
 5819              		.cfi_def_cfa_offset 104
 5820              	.LVL417:
 5821              	.L378:
 5822              	.LBB1455:
 5823              	.LBB1453:
 5824              	.LBB1451:
 5825              	.LBB1437:
 268:../../libDaisy//src/hid/disp/display.h ****                 {
 5826              		.loc 3 268 44 is_stmt 1 view .LVU1518
 268:../../libDaisy//src/hid/disp/display.h ****                 {
 5827              		.loc 3 268 34 is_stmt 0 view .LVU1519
 5828 0016 0122     		movs	r2, #1
 5829              	.LVL418:
 5830              	.L377:
 5831              	.LBB1438:
 5832              	.LBI1438:
  42:../../libDaisy//src/hid/disp/oled_display.h ****     {
 5833              		.loc 1 42 10 is_stmt 1 view .LVU1520
 5834              	.LBB1439:
 5835              	.LBI1439:
ARM GAS  /var/folders/1y/_321xjh9623c014x9_qw12rr0000gn/T//ccXuncwa.s 			page 161


 352:../../libDaisy//src/dev/oled_ssd130x.h ****     {
 5836              		.loc 4 352 10 view .LVU1521
 5837              	.LBB1440:
 5838              	.LBI1440:
 352:../../libDaisy//src/dev/oled_ssd130x.h ****     {
 5839              		.loc 4 352 10 view .LVU1522
 5840              	.LBB1441:
 359:../../libDaisy//src/dev/oled_ssd130x.h ****     }
 5841              		.loc 4 359 28 is_stmt 0 view .LVU1523
 5842 0018 D308     		lsrs	r3, r2, #3
 359:../../libDaisy//src/dev/oled_ssd130x.h ****     }
 5843              		.loc 4 359 49 view .LVU1524
 5844 001a 0121     		movs	r1, #1
 359:../../libDaisy//src/dev/oled_ssd130x.h ****     }
 5845              		.loc 4 359 55 view .LVU1525
 5846 001c 02F00700 		and	r0, r2, #7
 359:../../libDaisy//src/dev/oled_ssd130x.h ****     }
 5847              		.loc 4 359 42 view .LVU1526
 5848 0020 04EBC313 		add	r3, r4, r3, lsl #7
 5849              	.LBE1441:
 5850              	.LBE1440:
 5851              	.LBE1439:
 5852              	.LBE1438:
 268:../../libDaisy//src/hid/disp/display.h ****                 {
 5853              		.loc 3 268 17 view .LVU1527
 5854 0024 0A44     		add	r2, r2, r1
 5855              	.LVL419:
 5856              	.LBB1448:
 5857              	.LBB1446:
 5858              	.LBB1444:
 5859              	.LBB1442:
 359:../../libDaisy//src/dev/oled_ssd130x.h ****     }
 5860              		.loc 4 359 49 view .LVU1528
 5861 0026 01FA00F0 		lsl	r0, r1, r0
 359:../../libDaisy//src/dev/oled_ssd130x.h ****     }
 5862              		.loc 4 359 42 view .LVU1529
 5863 002a 2B44     		add	r3, r3, r5
 5864              	.LBE1442:
 5865              	.LBE1444:
 5866              	.LBE1446:
 5867              	.LBE1448:
 268:../../libDaisy//src/hid/disp/display.h ****                 {
 5868              		.loc 3 268 44 view .LVU1530
 5869 002c 342A     		cmp	r2, #52
 5870              	.LBB1449:
 5871              	.LBB1447:
 5872              	.LBB1445:
 5873              	.LBB1443:
 359:../../libDaisy//src/dev/oled_ssd130x.h ****     }
 5874              		.loc 4 359 42 view .LVU1531
 5875 002e 93F82414 		ldrb	r1, [r3, #1060]	@ zero_extendqisi2
 5876 0032 21EA0001 		bic	r1, r1, r0
 5877 0036 83F82414 		strb	r1, [r3, #1060]
 5878              	.LVL420:
 359:../../libDaisy//src/dev/oled_ssd130x.h ****     }
 5879              		.loc 4 359 42 view .LVU1532
 5880              	.LBE1443:
ARM GAS  /var/folders/1y/_321xjh9623c014x9_qw12rr0000gn/T//ccXuncwa.s 			page 162


 5881              	.LBE1445:
 5882              	.LBE1447:
 5883              	.LBE1449:
 268:../../libDaisy//src/hid/disp/display.h ****                 {
 5884              		.loc 3 268 17 is_stmt 1 view .LVU1533
 268:../../libDaisy//src/hid/disp/display.h ****                 {
 5885              		.loc 3 268 44 view .LVU1534
 5886 003a EDD1     		bne	.L377
 5887              	.LBE1437:
 266:../../libDaisy//src/hid/disp/display.h ****             {
 5888              		.loc 3 266 13 view .LVU1535
 5889 003c 0134     		adds	r4, r4, #1
 5890              	.LVL421:
 266:../../libDaisy//src/hid/disp/display.h ****             {
 5891              		.loc 3 266 40 view .LVU1536
 5892 003e 7F2C     		cmp	r4, #127
 5893 0040 E9D1     		bne	.L378
 5894 0042 05F10C03 		add	r3, r5, #12
 5895              	.LBE1451:
 5896              	.LBE1453:
 5897              	.LBE1455:
 5898              	.LBB1456:
 292:Dubby.cpp     ****     for (int i = 0; i < PREFERENCESMENU_LAST; i++)
 5899              		.loc 2 292 14 is_stmt 0 view .LVU1537
 5900 0046 0322     		movs	r2, #3
 5901              	.LVL422:
 292:Dubby.cpp     ****     for (int i = 0; i < PREFERENCESMENU_LAST; i++)
 5902              		.loc 2 292 14 view .LVU1538
 5903 0048 CDE90553 		strd	r5, r3, [sp, #20]
 5904 004c 0023     		movs	r3, #0
 5905 004e CDE90232 		strd	r3, r2, [sp, #8]
 5906              	.LVL423:
 5907              	.L413:
 294:Dubby.cpp     ****         display.SetCursor(5, 3 + (i * 10));
 5908              		.loc 2 294 9 is_stmt 1 view .LVU1539
 5909              	.LBB1457:
 5910              	.LBI1457:
 171:../../libDaisy//src/hid/disp/display.h ****     {
 5911              		.loc 3 171 10 view .LVU1540
 5912              	.LBB1458:
 173:../../libDaisy//src/hid/disp/display.h ****         currentY_ = (y >= Height()) ? Height() - 1 : y;
 5913              		.loc 3 173 9 view .LVU1541
 174:../../libDaisy//src/hid/disp/display.h ****     }
 5914              		.loc 3 174 19 is_stmt 0 view .LVU1542
 5915 0052 0398     		ldr	r0, [sp, #12]
 173:../../libDaisy//src/hid/disp/display.h ****         currentY_ = (y >= Height()) ? Height() - 1 : y;
 5916              		.loc 3 173 19 view .LVU1543
 5917 0054 0521     		movs	r1, #5
 5918              	.LBE1458:
 5919              	.LBE1457:
 295:Dubby.cpp     ****         display.WriteString(GetTextForEnum(PREFERENCESMENU, i), Font_6x8, true);
 5920              		.loc 2 295 28 view .LVU1544
 5921 0056 0124     		movs	r4, #1
 5922 0058 324B     		ldr	r3, .L464
 5923              	.LBB1461:
 5924              	.LBB1459:
 174:../../libDaisy//src/hid/disp/display.h ****     }
ARM GAS  /var/folders/1y/_321xjh9623c014x9_qw12rr0000gn/T//ccXuncwa.s 			page 163


 5925              		.loc 3 174 19 view .LVU1545
 5926 005a A5F81604 		strh	r0, [r5, #1046]	@ movhi
 5927              	.LBE1459:
 5928              	.LBE1461:
 295:Dubby.cpp     ****         display.WriteString(GetTextForEnum(PREFERENCESMENU, i), Font_6x8, true);
 5929              		.loc 2 295 28 view .LVU1546
 5930 005e 0698     		ldr	r0, [sp, #24]
 5931              	.LBB1462:
 5932              	.LBB1460:
 173:../../libDaisy//src/hid/disp/display.h ****         currentY_ = (y >= Height()) ? Height() - 1 : y;
 5933              		.loc 3 173 19 view .LVU1547
 5934 0060 A5F81414 		strh	r1, [r5, #1044]	@ movhi
 174:../../libDaisy//src/hid/disp/display.h ****     }
 5935              		.loc 3 174 9 is_stmt 1 view .LVU1548
 5936              	.LVL424:
 174:../../libDaisy//src/hid/disp/display.h ****     }
 5937              		.loc 3 174 9 is_stmt 0 view .LVU1549
 5938              	.LBE1460:
 5939              	.LBE1462:
 295:Dubby.cpp     ****         display.WriteString(GetTextForEnum(PREFERENCESMENU, i), Font_6x8, true);
 5940              		.loc 2 295 9 is_stmt 1 view .LVU1550
 5941              	.LBB1463:
 5942              	.LBI1463:
 428:Dubby.cpp     **** const char * Dubby::GetTextForEnum(MenuTypes m, int enumVal)
 5943              		.loc 2 428 14 view .LVU1551
 5944              	.LBB1464:
 430:Dubby.cpp     ****     switch (m)
 5945              		.loc 2 430 5 view .LVU1552
 434:Dubby.cpp     ****             break;
 5946              		.loc 2 434 13 view .LVU1553
 435:Dubby.cpp     ****         case PREFERENCESMENU:
 5947              		.loc 2 435 9 view .LVU1554
 436:Dubby.cpp     ****             return PreferencesMenuItemsStrings[enumVal];
 5948              		.loc 2 436 13 view .LVU1555
 436:Dubby.cpp     ****             return PreferencesMenuItemsStrings[enumVal];
 5949              		.loc 2 436 13 is_stmt 0 view .LVU1556
 5950              	.LBE1464:
 5951              	.LBE1463:
 295:Dubby.cpp     ****         display.WriteString(GetTextForEnum(PREFERENCESMENU, i), Font_6x8, true);
 5952              		.loc 2 295 28 view .LVU1557
 5953 0064 50F8041B 		ldr	r1, [r0], #4
 5954 0068 0CCB     		ldm	r3, {r2, r3}
 5955 006a 0690     		str	r0, [sp, #24]
 5956 006c 18EE100A 		vmov	r0, s16	@ int
 5957 0070 0094     		str	r4, [sp]
 5958 0072 FFF7FEFF 		bl	_ZN5daisy25OneBitGraphicsDisplayImplINS_11OledDisplayINS_13SSD130xDriverILj128ELj64ENS_24SSD130
 5959              	.LVL425:
 297:Dubby.cpp     ****         if (preferencesMenuItemSelected == i)
 5960              		.loc 2 297 9 is_stmt 1 view .LVU1558
 297:Dubby.cpp     ****         if (preferencesMenuItemSelected == i)
 5961              		.loc 2 297 13 is_stmt 0 view .LVU1559
 5962 0076 95F85930 		ldrb	r3, [r5, #89]	@ zero_extendqisi2
 297:Dubby.cpp     ****         if (preferencesMenuItemSelected == i)
 5963              		.loc 2 297 9 view .LVU1560
 5964 007a 029A     		ldr	r2, [sp, #8]
 5965 007c 9342     		cmp	r3, r2
 5966 007e 53D0     		beq	.L461
ARM GAS  /var/folders/1y/_321xjh9623c014x9_qw12rr0000gn/T//ccXuncwa.s 			page 164


 5967              	.L379:
 292:Dubby.cpp     ****     for (int i = 0; i < PREFERENCESMENU_LAST; i++)
 5968              		.loc 2 292 5 is_stmt 1 view .LVU1561
 292:Dubby.cpp     ****     for (int i = 0; i < PREFERENCESMENU_LAST; i++)
 5969              		.loc 2 292 23 is_stmt 0 view .LVU1562
 5970 0080 039B     		ldr	r3, [sp, #12]
 292:Dubby.cpp     ****     for (int i = 0; i < PREFERENCESMENU_LAST; i++)
 5971              		.loc 2 292 5 view .LVU1563
 5972 0082 029A     		ldr	r2, [sp, #8]
 292:Dubby.cpp     ****     for (int i = 0; i < PREFERENCESMENU_LAST; i++)
 5973              		.loc 2 292 23 view .LVU1564
 5974 0084 0599     		ldr	r1, [sp, #20]
 5975 0086 0A33     		adds	r3, r3, #10
 292:Dubby.cpp     ****     for (int i = 0; i < PREFERENCESMENU_LAST; i++)
 5976              		.loc 2 292 5 view .LVU1565
 5977 0088 0132     		adds	r2, r2, #1
 292:Dubby.cpp     ****     for (int i = 0; i < PREFERENCESMENU_LAST; i++)
 5978              		.loc 2 292 23 view .LVU1566
 5979 008a 1031     		adds	r1, r1, #16
 5980 008c 9BB2     		uxth	r3, r3
 5981 008e 042A     		cmp	r2, #4
 292:Dubby.cpp     ****     for (int i = 0; i < PREFERENCESMENU_LAST; i++)
 5982              		.loc 2 292 5 view .LVU1567
 5983 0090 0292     		str	r2, [sp, #8]
 5984              	.LVL426:
 292:Dubby.cpp     ****     for (int i = 0; i < PREFERENCESMENU_LAST; i++)
 5985              		.loc 2 292 23 is_stmt 1 view .LVU1568
 5986 0092 0591     		str	r1, [sp, #20]
 5987 0094 0393     		str	r3, [sp, #12]
 5988 0096 DCD1     		bne	.L413
 5989              	.LBE1456:
 5990              	.LBB1554:
 5991              	.LBB1555:
 5992              	.LBB1556:
 5993              	.LBB1557:
 5994              	.LBB1558:
 124:../../libDaisy//src/dev/oled_ssd130x.h ****         spi_.BlockingTransmit(&cmd, 1);
 5995              		.loc 4 124 24 is_stmt 0 view .LVU1569
 5996 0098 05F58367 		add	r7, r5, #1048
 5997 009c 05F58466 		add	r6, r5, #1056
 5998 00a0 05F22444 		addw	r4, r5, #1060
 125:../../libDaisy//src/dev/oled_ssd130x.h ****     };
 5999              		.loc 4 125 30 view .LVU1570
 6000 00a4 B025     		movs	r5, #176
 6001              	.LVL427:
 6002              	.L414:
 125:../../libDaisy//src/dev/oled_ssd130x.h ****     };
 6003              		.loc 4 125 30 view .LVU1571
 6004 00a6 4FF00008 		mov	r8, #0
 124:../../libDaisy//src/dev/oled_ssd130x.h ****         spi_.BlockingTransmit(&cmd, 1);
 6005              		.loc 4 124 23 view .LVU1572
 6006 00aa 3046     		mov	r0, r6
 6007 00ac 8DF83750 		strb	r5, [sp, #55]
 6008              	.LVL428:
 124:../../libDaisy//src/dev/oled_ssd130x.h ****         spi_.BlockingTransmit(&cmd, 1);
 6009              		.loc 4 124 23 view .LVU1573
 6010              	.LBE1558:
ARM GAS  /var/folders/1y/_321xjh9623c014x9_qw12rr0000gn/T//ccXuncwa.s 			page 165


 6011              	.LBI1557:
 122:../../libDaisy//src/dev/oled_ssd130x.h ****     {
 6012              		.loc 4 122 10 is_stmt 1 view .LVU1574
 6013              	.LBB1559:
 124:../../libDaisy//src/dev/oled_ssd130x.h ****         spi_.BlockingTransmit(&cmd, 1);
 6014              		.loc 4 124 9 view .LVU1575
 6015              	.LBE1559:
 6016              	.LBE1557:
 6017              		.loc 4 383 22 is_stmt 0 view .LVU1576
 6018 00b0 0135     		adds	r5, r5, #1
 6019              	.LVL429:
 6020              	.LBB1562:
 6021              	.LBB1560:
 124:../../libDaisy//src/dev/oled_ssd130x.h ****         spi_.BlockingTransmit(&cmd, 1);
 6022              		.loc 4 124 23 view .LVU1577
 6023 00b2 4146     		mov	r1, r8
 6024 00b4 FFF7FEFF 		bl	dsy_gpio_write
 6025              	.LVL430:
 125:../../libDaisy//src/dev/oled_ssd130x.h ****     };
 6026              		.loc 4 125 9 is_stmt 1 view .LVU1578
 125:../../libDaisy//src/dev/oled_ssd130x.h ****     };
 6027              		.loc 4 125 30 is_stmt 0 view .LVU1579
 6028 00b8 6423     		movs	r3, #100
 6029 00ba 0122     		movs	r2, #1
 6030 00bc 0DF13701 		add	r1, sp, #55
 6031 00c0 3846     		mov	r0, r7
 6032              	.LBE1560:
 6033              	.LBE1562:
 6034              		.loc 4 383 22 view .LVU1580
 6035 00c2 EDB2     		uxtb	r5, r5
 6036              	.LBB1563:
 6037              	.LBB1561:
 125:../../libDaisy//src/dev/oled_ssd130x.h ****     };
 6038              		.loc 4 125 30 view .LVU1581
 6039 00c4 FFF7FEFF 		bl	_ZN5daisy9SpiHandle16BlockingTransmitEPhjm
 6040              	.LVL431:
 125:../../libDaisy//src/dev/oled_ssd130x.h ****     };
 6041              		.loc 4 125 30 view .LVU1582
 6042              	.LBE1561:
 6043              	.LBE1563:
 6044              	.LBB1564:
 6045              	.LBB1565:
 124:../../libDaisy//src/dev/oled_ssd130x.h ****         spi_.BlockingTransmit(&cmd, 1);
 6046              		.loc 4 124 23 view .LVU1583
 6047 00c8 4146     		mov	r1, r8
 6048 00ca 3046     		mov	r0, r6
 6049 00cc 8DF83780 		strb	r8, [sp, #55]
 6050              	.LVL432:
 124:../../libDaisy//src/dev/oled_ssd130x.h ****         spi_.BlockingTransmit(&cmd, 1);
 6051              		.loc 4 124 23 view .LVU1584
 6052              	.LBE1565:
 6053              	.LBI1564:
 122:../../libDaisy//src/dev/oled_ssd130x.h ****     {
 6054              		.loc 4 122 10 is_stmt 1 view .LVU1585
 6055              	.LBB1566:
 124:../../libDaisy//src/dev/oled_ssd130x.h ****         spi_.BlockingTransmit(&cmd, 1);
 6056              		.loc 4 124 9 view .LVU1586
ARM GAS  /var/folders/1y/_321xjh9623c014x9_qw12rr0000gn/T//ccXuncwa.s 			page 166


 124:../../libDaisy//src/dev/oled_ssd130x.h ****         spi_.BlockingTransmit(&cmd, 1);
 6057              		.loc 4 124 23 is_stmt 0 view .LVU1587
 6058 00d0 FFF7FEFF 		bl	dsy_gpio_write
 6059              	.LVL433:
 125:../../libDaisy//src/dev/oled_ssd130x.h ****     };
 6060              		.loc 4 125 9 is_stmt 1 view .LVU1588
 125:../../libDaisy//src/dev/oled_ssd130x.h ****     };
 6061              		.loc 4 125 30 is_stmt 0 view .LVU1589
 6062 00d4 0122     		movs	r2, #1
 6063 00d6 6423     		movs	r3, #100
 6064 00d8 0DF13701 		add	r1, sp, #55
 6065 00dc 3846     		mov	r0, r7
 6066 00de FFF7FEFF 		bl	_ZN5daisy9SpiHandle16BlockingTransmitEPhjm
 6067              	.LVL434:
 125:../../libDaisy//src/dev/oled_ssd130x.h ****     };
 6068              		.loc 4 125 30 view .LVU1590
 6069 00e2 1023     		movs	r3, #16
 6070              	.LBE1566:
 6071              	.LBE1564:
 6072              	.LBB1567:
 6073              	.LBB1568:
 124:../../libDaisy//src/dev/oled_ssd130x.h ****         spi_.BlockingTransmit(&cmd, 1);
 6074              		.loc 4 124 23 view .LVU1591
 6075 00e4 4146     		mov	r1, r8
 6076 00e6 3046     		mov	r0, r6
 6077 00e8 8DF83730 		strb	r3, [sp, #55]
 6078              	.LVL435:
 124:../../libDaisy//src/dev/oled_ssd130x.h ****         spi_.BlockingTransmit(&cmd, 1);
 6079              		.loc 4 124 23 view .LVU1592
 6080              	.LBE1568:
 6081              	.LBI1567:
 122:../../libDaisy//src/dev/oled_ssd130x.h ****     {
 6082              		.loc 4 122 10 is_stmt 1 view .LVU1593
 6083              	.LBB1569:
 124:../../libDaisy//src/dev/oled_ssd130x.h ****         spi_.BlockingTransmit(&cmd, 1);
 6084              		.loc 4 124 9 view .LVU1594
 124:../../libDaisy//src/dev/oled_ssd130x.h ****         spi_.BlockingTransmit(&cmd, 1);
 6085              		.loc 4 124 23 is_stmt 0 view .LVU1595
 6086 00ec FFF7FEFF 		bl	dsy_gpio_write
 6087              	.LVL436:
 125:../../libDaisy//src/dev/oled_ssd130x.h ****     };
 6088              		.loc 4 125 9 is_stmt 1 view .LVU1596
 125:../../libDaisy//src/dev/oled_ssd130x.h ****     };
 6089              		.loc 4 125 30 is_stmt 0 view .LVU1597
 6090 00f0 6423     		movs	r3, #100
 6091 00f2 0122     		movs	r2, #1
 6092 00f4 0DF13701 		add	r1, sp, #55
 6093 00f8 3846     		mov	r0, r7
 6094 00fa FFF7FEFF 		bl	_ZN5daisy9SpiHandle16BlockingTransmitEPhjm
 6095              	.LVL437:
 125:../../libDaisy//src/dev/oled_ssd130x.h ****     };
 6096              		.loc 4 125 30 view .LVU1598
 6097              	.LBE1569:
 6098              	.LBE1567:
 6099              	.LBB1570:
 6100              	.LBI1570:
 128:../../libDaisy//src/dev/oled_ssd130x.h ****     {
ARM GAS  /var/folders/1y/_321xjh9623c014x9_qw12rr0000gn/T//ccXuncwa.s 			page 167


 6101              		.loc 4 128 10 is_stmt 1 view .LVU1599
 6102              	.LBB1571:
 130:../../libDaisy//src/dev/oled_ssd130x.h ****         spi_.BlockingTransmit(buff, size);
 6103              		.loc 4 130 9 view .LVU1600
 130:../../libDaisy//src/dev/oled_ssd130x.h ****         spi_.BlockingTransmit(buff, size);
 6104              		.loc 4 130 23 is_stmt 0 view .LVU1601
 6105 00fe 0121     		movs	r1, #1
 6106 0100 3046     		mov	r0, r6
 6107 0102 FFF7FEFF 		bl	dsy_gpio_write
 6108              	.LVL438:
 131:../../libDaisy//src/dev/oled_ssd130x.h ****     };
 6109              		.loc 4 131 9 is_stmt 1 view .LVU1602
 131:../../libDaisy//src/dev/oled_ssd130x.h ****     };
 6110              		.loc 4 131 30 is_stmt 0 view .LVU1603
 6111 0106 8022     		movs	r2, #128
 6112 0108 2146     		mov	r1, r4
 6113 010a 6423     		movs	r3, #100
 6114 010c 3846     		mov	r0, r7
 6115              	.LBE1571:
 6116              	.LBE1570:
 6117              		.loc 4 383 22 view .LVU1604
 6118 010e 1444     		add	r4, r4, r2
 6119              	.LVL439:
 6120              	.LBB1573:
 6121              	.LBB1572:
 131:../../libDaisy//src/dev/oled_ssd130x.h ****     };
 6122              		.loc 4 131 30 view .LVU1605
 6123 0110 FFF7FEFF 		bl	_ZN5daisy9SpiHandle16BlockingTransmitEPhjm
 6124              	.LVL440:
 131:../../libDaisy//src/dev/oled_ssd130x.h ****     };
 6125              		.loc 4 131 30 view .LVU1606
 6126              	.LBE1572:
 6127              	.LBE1573:
 6128              		.loc 4 383 9 is_stmt 1 view .LVU1607
 6129              		.loc 4 383 22 view .LVU1608
 6130 0114 B82D     		cmp	r5, #184
 6131 0116 C6D1     		bne	.L414
 6132              	.LBE1556:
 6133              	.LBE1555:
 6134              	.LBE1554:
 302:Dubby.cpp     **** }
 6135              		.loc 2 302 1 is_stmt 0 view .LVU1609
 6136 0118 0FB0     		add	sp, sp, #60
 6137              		.cfi_remember_state
 6138              		.cfi_def_cfa_offset 44
 6139              		@ sp needed
 6140 011a BDEC028B 		vldm	sp!, {d8}
 6141              		.cfi_restore 80
 6142              		.cfi_restore 81
 6143              		.cfi_def_cfa_offset 36
 6144 011e BDE8F08F 		pop	{r4, r5, r6, r7, r8, r9, r10, fp, pc}
 6145              	.LVL441:
 6146              	.L465:
 302:Dubby.cpp     **** }
 6147              		.loc 2 302 1 view .LVU1610
 6148 0122 00BF     		.align	2
 6149              	.L464:
ARM GAS  /var/folders/1y/_321xjh9623c014x9_qw12rr0000gn/T//ccXuncwa.s 			page 168


 6150 0124 00000000 		.word	Font_6x8
 6151              	.LVL442:
 6152              	.L461:
 6153              		.cfi_restore_state
 6154              	.LBB1574:
 298:Dubby.cpp     ****             display.DrawRect(submenuBoxBounding[i][0], submenuBoxBounding[i][1], submenuBoxBounding
 6155              		.loc 2 298 13 is_stmt 1 view .LVU1611
 298:Dubby.cpp     ****             display.DrawRect(submenuBoxBounding[i][0], submenuBoxBounding[i][1], submenuBoxBounding
 6156              		.loc 2 298 105 is_stmt 0 view .LVU1612
 6157 0128 059B     		ldr	r3, [sp, #20]
 6158 012a D3F8AC60 		ldr	r6, [r3, #172]
 298:Dubby.cpp     ****             display.DrawRect(submenuBoxBounding[i][0], submenuBoxBounding[i][1], submenuBoxBounding
 6159              		.loc 2 298 53 view .LVU1613
 6160 012e D3F8A470 		ldr	r7, [r3, #164]
 298:Dubby.cpp     ****             display.DrawRect(submenuBoxBounding[i][0], submenuBoxBounding[i][1], submenuBoxBounding
 6161              		.loc 2 298 131 view .LVU1614
 6162 0132 D3F8B0C0 		ldr	ip, [r3, #176]
 298:Dubby.cpp     ****             display.DrawRect(submenuBoxBounding[i][0], submenuBoxBounding[i][1], submenuBoxBounding
 6163              		.loc 2 298 29 view .LVU1615
 6164 0136 3046     		mov	r0, r6
 6165              	.LBB1465:
 6166              	.LBB1466:
 6167              	.LBB1467:
 227:../../libDaisy//src/hid/disp/display.h ****         int_fast16_t deltaY = abs((int_fast16_t)y2 - (int_fast16_t)y1);
 6168              		.loc 3 227 52 view .LVU1616
 6169 0138 A6EB0709 		sub	r9, r6, r7
 6170              	.LBE1467:
 6171              	.LBE1466:
 6172              	.LBE1465:
 298:Dubby.cpp     ****             display.DrawRect(submenuBoxBounding[i][0], submenuBoxBounding[i][1], submenuBoxBounding
 6173              		.loc 2 298 79 view .LVU1617
 6174 013c D3F8A830 		ldr	r3, [r3, #168]
 298:Dubby.cpp     ****             display.DrawRect(submenuBoxBounding[i][0], submenuBoxBounding[i][1], submenuBoxBounding
 6175              		.loc 2 298 29 view .LVU1618
 6176 0140 6246     		mov	r2, ip
 6177              	.LBB1548:
 6178              	.LBB1485:
 6179              	.LBB1480:
 227:../../libDaisy//src/hid/disp/display.h ****         int_fast16_t deltaY = abs((int_fast16_t)y2 - (int_fast16_t)y1);
 6180              		.loc 3 227 22 view .LVU1619
 6181 0142 B9F1000F 		cmp	r9, #0
 6182              	.LBE1480:
 6183              	.LBE1485:
 6184              	.LBE1548:
 298:Dubby.cpp     ****             display.DrawRect(submenuBoxBounding[i][0], submenuBoxBounding[i][1], submenuBoxBounding
 6185              		.loc 2 298 79 view .LVU1620
 6186 0146 0493     		str	r3, [sp, #16]
 6187              	.LVL443:
 6188              	.LBB1549:
 6189              	.LBI1465:
 257:../../libDaisy//src/hid/disp/display.h ****                   uint_fast8_t y1,
 6190              		.loc 3 257 10 is_stmt 1 view .LVU1621
 6191              	.LBB1486:
 6192              	.LBI1466:
 221:../../libDaisy//src/hid/disp/display.h ****                   uint_fast8_t y1,
 6193              		.loc 3 221 10 view .LVU1622
 6194              	.LBB1481:
ARM GAS  /var/folders/1y/_321xjh9623c014x9_qw12rr0000gn/T//ccXuncwa.s 			page 169


 227:../../libDaisy//src/hid/disp/display.h ****         int_fast16_t deltaY = abs((int_fast16_t)y2 - (int_fast16_t)y1);
 6195              		.loc 3 227 22 is_stmt 0 view .LVU1623
 6196 0148 B8BF     		it	lt
 6197 014a C9F10009 		rsblt	r9, r9, #0
 6198              	.LVL444:
 229:../../libDaisy//src/hid/disp/display.h ****         int_fast16_t signY  = ((y1 < y2) ? 1 : -1);
 6199              		.loc 3 229 42 view .LVU1624
 6200 014e B742     		cmp	r7, r6
 6201 0150 C0F03E81 		bcc	.L380
 6202              	.LVL445:
 6203              	.LBB1468:
 6204              	.LBI1468:
  42:../../libDaisy//src/hid/disp/oled_display.h ****     {
 6205              		.loc 1 42 10 is_stmt 1 view .LVU1625
 6206              	.LBB1469:
 6207              	.LBI1469:
 352:../../libDaisy//src/dev/oled_ssd130x.h ****     {
 6208              		.loc 4 352 10 view .LVU1626
 6209              	.LBB1470:
 354:../../libDaisy//src/dev/oled_ssd130x.h ****             return;
 6210              		.loc 4 354 14 is_stmt 0 view .LVU1627
 6211 0154 7F2E     		cmp	r6, #127
 6212              	.LBE1470:
 6213              	.LBE1469:
 6214              	.LBE1468:
 229:../../libDaisy//src/hid/disp/display.h ****         int_fast16_t signY  = ((y1 < y2) ? 1 : -1);
 6215              		.loc 3 229 42 view .LVU1628
 6216 0156 4FF0FF3B 		mov	fp, #-1
 6217              	.LBB1475:
 6218              	.LBB1473:
 6219              	.LBB1471:
 354:../../libDaisy//src/dev/oled_ssd130x.h ****             return;
 6220              		.loc 4 354 14 view .LVU1629
 6221 015a 94BF     		ite	ls
 6222 015c 0021     		movls	r1, #0
 6223 015e 0121     		movhi	r1, #1
 354:../../libDaisy//src/dev/oled_ssd130x.h ****             return;
 6224              		.loc 4 354 28 view .LVU1630
 6225 0160 3F2B     		cmp	r3, #63
 354:../../libDaisy//src/dev/oled_ssd130x.h ****             return;
 6226              		.loc 4 354 14 view .LVU1631
 6227 0162 0891     		str	r1, [sp, #32]
 354:../../libDaisy//src/dev/oled_ssd130x.h ****             return;
 6228              		.loc 4 354 28 view .LVU1632
 6229 0164 94BF     		ite	ls
 6230 0166 0023     		movls	r3, #0
 6231              	.LVL446:
 354:../../libDaisy//src/dev/oled_ssd130x.h ****             return;
 6232              		.loc 4 354 28 view .LVU1633
 6233 0168 0123     		movhi	r3, #1
 6234 016a 0993     		str	r3, [sp, #36]
 354:../../libDaisy//src/dev/oled_ssd130x.h ****             return;
 6235              		.loc 4 354 9 view .LVU1634
 6236 016c 91B9     		cbnz	r1, .L381
 6237 016e 8BB9     		cbnz	r3, .L381
 6238              	.LVL447:
 6239              	.L416:
ARM GAS  /var/folders/1y/_321xjh9623c014x9_qw12rr0000gn/T//ccXuncwa.s 			page 170


 357:../../libDaisy//src/dev/oled_ssd130x.h ****         else
 6240              		.loc 4 357 28 view .LVU1635
 6241 0170 0499     		ldr	r1, [sp, #16]
 357:../../libDaisy//src/dev/oled_ssd130x.h ****         else
 6242              		.loc 4 357 48 view .LVU1636
 6243 0172 0124     		movs	r4, #1
 357:../../libDaisy//src/dev/oled_ssd130x.h ****         else
 6244              		.loc 4 357 28 view .LVU1637
 6245 0174 CB08     		lsrs	r3, r1, #3
 357:../../libDaisy//src/dev/oled_ssd130x.h ****         else
 6246              		.loc 4 357 54 view .LVU1638
 6247 0176 01F00701 		and	r1, r1, #7
 357:../../libDaisy//src/dev/oled_ssd130x.h ****         else
 6248              		.loc 4 357 42 view .LVU1639
 6249 017a 06EBC313 		add	r3, r6, r3, lsl #7
 357:../../libDaisy//src/dev/oled_ssd130x.h ****         else
 6250              		.loc 4 357 48 view .LVU1640
 6251 017e 04FA01F1 		lsl	r1, r4, r1
 357:../../libDaisy//src/dev/oled_ssd130x.h ****         else
 6252              		.loc 4 357 42 view .LVU1641
 6253 0182 2B44     		add	r3, r3, r5
 6254 0184 93F82444 		ldrb	r4, [r3, #1060]	@ zero_extendqisi2
 6255 0188 2143     		orrs	r1, r1, r4
 6256 018a 83F82414 		strb	r1, [r3, #1060]
 6257              	.LVL448:
 357:../../libDaisy//src/dev/oled_ssd130x.h ****         else
 6258              		.loc 4 357 42 view .LVU1642
 6259 018e 0023     		movs	r3, #0
 6260 0190 CDE90833 		strd	r3, r3, [sp, #32]
 6261              	.L381:
 6262              	.LVL449:
 357:../../libDaisy//src/dev/oled_ssd130x.h ****         else
 6263              		.loc 4 357 42 view .LVU1643
 6264              	.LBE1471:
 6265              	.LBE1473:
 6266              	.LBE1475:
 239:../../libDaisy//src/hid/disp/display.h ****         {
 6267              		.loc 3 239 26 is_stmt 1 view .LVU1644
 6268 0194 B742     		cmp	r7, r6
 6269 0196 00F04381 		beq	.L462
 6270              	.L383:
 6271              	.LVL450:
 227:../../libDaisy//src/hid/disp/display.h ****         int_fast16_t deltaY = abs((int_fast16_t)y2 - (int_fast16_t)y1);
 6272              		.loc 3 227 22 is_stmt 0 view .LVU1645
 6273 019a C846     		mov	r8, r9
 6274              	.LBE1481:
 6275              	.LBE1486:
 6276              	.LBE1549:
 298:Dubby.cpp     ****             display.DrawRect(submenuBoxBounding[i][0], submenuBoxBounding[i][1], submenuBoxBounding
 6277              		.loc 2 298 29 view .LVU1646
 6278 019c 049C     		ldr	r4, [sp, #16]
 6279 019e BE46     		mov	lr, r7
 6280              	.L385:
 6281              	.LVL451:
 6282              	.LBB1550:
 6283              	.LBB1487:
 6284              	.LBB1482:
ARM GAS  /var/folders/1y/_321xjh9623c014x9_qw12rr0000gn/T//ccXuncwa.s 			page 171


 6285              	.LBB1476:
 6286              	.LBI1476:
  42:../../libDaisy//src/hid/disp/oled_display.h ****     {
 6287              		.loc 1 42 10 is_stmt 1 view .LVU1647
 6288              	.LBB1477:
 6289              	.LBI1477:
 352:../../libDaisy//src/dev/oled_ssd130x.h ****     {
 6290              		.loc 4 352 10 view .LVU1648
 6291              	.LBB1478:
 357:../../libDaisy//src/dev/oled_ssd130x.h ****         else
 6292              		.loc 4 357 28 is_stmt 0 view .LVU1649
 6293 01a0 E308     		lsrs	r3, r4, #3
 357:../../libDaisy//src/dev/oled_ssd130x.h ****         else
 6294              		.loc 4 357 54 view .LVU1650
 6295 01a2 04F00701 		and	r1, r4, #7
 357:../../libDaisy//src/dev/oled_ssd130x.h ****         else
 6296              		.loc 4 357 48 view .LVU1651
 6297 01a6 4FF0010A 		mov	r10, #1
 354:../../libDaisy//src/dev/oled_ssd130x.h ****             return;
 6298              		.loc 4 354 9 view .LVU1652
 6299 01aa BEF17F0F 		cmp	lr, #127
 357:../../libDaisy//src/dev/oled_ssd130x.h ****         else
 6300              		.loc 4 357 42 view .LVU1653
 6301 01ae 0EEBC313 		add	r3, lr, r3, lsl #7
 357:../../libDaisy//src/dev/oled_ssd130x.h ****         else
 6302              		.loc 4 357 48 view .LVU1654
 6303 01b2 0AFA01F1 		lsl	r1, r10, r1
 354:../../libDaisy//src/dev/oled_ssd130x.h ****             return;
 6304              		.loc 4 354 9 view .LVU1655
 6305 01b6 08D8     		bhi	.L386
 6306 01b8 3F2C     		cmp	r4, #63
 357:../../libDaisy//src/dev/oled_ssd130x.h ****         else
 6307              		.loc 4 357 42 view .LVU1656
 6308 01ba 2B44     		add	r3, r3, r5
 354:../../libDaisy//src/dev/oled_ssd130x.h ****             return;
 6309              		.loc 4 354 9 view .LVU1657
 6310 01bc 05D8     		bhi	.L386
 357:../../libDaisy//src/dev/oled_ssd130x.h ****         else
 6311              		.loc 4 357 42 view .LVU1658
 6312 01be 93F824A4 		ldrb	r10, [r3, #1060]	@ zero_extendqisi2
 6313 01c2 41EA0A01 		orr	r1, r1, r10
 6314 01c6 83F82414 		strb	r1, [r3, #1060]
 6315              	.L386:
 357:../../libDaisy//src/dev/oled_ssd130x.h ****         else
 6316              		.loc 4 357 42 view .LVU1659
 6317              	.LBE1478:
 6318              	.LBE1477:
 6319              	.LBE1476:
 243:../../libDaisy//src/hid/disp/display.h ****             {
 6320              		.loc 3 243 13 view .LVU1660
 6321 01ca 5FEA4803 		lsls	r3, r8, #1
 246:../../libDaisy//src/hid/disp/display.h ****             }
 6322              		.loc 3 246 20 view .LVU1661
 6323 01ce 18BF     		it	ne
 6324 01d0 DE44     		addne	lr, lr, fp
 6325              	.LVL452:
 249:../../libDaisy//src/hid/disp/display.h ****             {
ARM GAS  /var/folders/1y/_321xjh9623c014x9_qw12rr0000gn/T//ccXuncwa.s 			page 172


 6326              		.loc 3 249 13 view .LVU1662
 6327 01d2 9945     		cmp	r9, r3
 6328 01d4 01DD     		ble	.L388
 251:../../libDaisy//src/hid/disp/display.h ****                 y1 += signY;
 6329              		.loc 3 251 23 view .LVU1663
 6330 01d6 C844     		add	r8, r8, r9
 6331              	.LVL453:
 252:../../libDaisy//src/hid/disp/display.h ****             }
 6332              		.loc 3 252 20 view .LVU1664
 6333 01d8 013C     		subs	r4, r4, #1
 6334              	.LVL454:
 6335              	.L388:
 239:../../libDaisy//src/hid/disp/display.h ****         {
 6336              		.loc 3 239 26 is_stmt 1 view .LVU1665
 6337 01da 7645     		cmp	r6, lr
 6338 01dc E0D1     		bne	.L385
 239:../../libDaisy//src/hid/disp/display.h ****         {
 6339              		.loc 3 239 26 is_stmt 0 view .LVU1666
 6340 01de 049B     		ldr	r3, [sp, #16]
 6341 01e0 A342     		cmp	r3, r4
 6342 01e2 DDD1     		bne	.L385
 6343 01e4 0023     		movs	r3, #0
 6344 01e6 0B93     		str	r3, [sp, #44]
 6345              	.LVL455:
 6346              	.L382:
 239:../../libDaisy//src/hid/disp/display.h ****         {
 6347              		.loc 3 239 26 view .LVU1667
 6348              	.LBE1482:
 6349              	.LBE1487:
 6350              	.LBB1488:
 6351              	.LBI1488:
 221:../../libDaisy//src/hid/disp/display.h ****                   uint_fast8_t y1,
 6352              		.loc 3 221 10 is_stmt 1 view .LVU1668
 6353              	.LBB1489:
 228:../../libDaisy//src/hid/disp/display.h ****         int_fast16_t signX  = ((x1 < x2) ? 1 : -1);
 6354              		.loc 3 228 52 is_stmt 0 view .LVU1669
 6355 01e8 0499     		ldr	r1, [sp, #16]
 6356 01ea ACEB0103 		sub	r3, ip, r1
 230:../../libDaisy//src/hid/disp/display.h ****         int_fast16_t error  = deltaX - deltaY;
 6357              		.loc 3 230 42 view .LVU1670
 6358 01ee 6145     		cmp	r1, ip
 228:../../libDaisy//src/hid/disp/display.h ****         int_fast16_t signX  = ((x1 < x2) ? 1 : -1);
 6359              		.loc 3 228 22 view .LVU1671
 6360 01f0 83EAE374 		eor	r4, r3, r3, asr #31
 6361 01f4 A4EBE374 		sub	r4, r4, r3, asr #31
 6362 01f8 2346     		mov	r3, r4
 6363 01fa 0794     		str	r4, [sp, #28]
 6364              	.LVL456:
 230:../../libDaisy//src/hid/disp/display.h ****         int_fast16_t error  = deltaX - deltaY;
 6365              		.loc 3 230 42 view .LVU1672
 6366 01fc C0F0F780 		bcc	.L389
 6367              	.LVL457:
 6368              	.LBB1490:
 6369              	.LBB1491:
 6370              	.LBB1492:
 354:../../libDaisy//src/dev/oled_ssd130x.h ****             return;
 6371              		.loc 4 354 28 view .LVU1673
ARM GAS  /var/folders/1y/_321xjh9623c014x9_qw12rr0000gn/T//ccXuncwa.s 			page 173


 6372 0200 BCF13F0F 		cmp	ip, #63
 354:../../libDaisy//src/dev/oled_ssd130x.h ****             return;
 6373              		.loc 4 354 9 view .LVU1674
 6374 0204 0899     		ldr	r1, [sp, #32]
 6375              	.LBE1492:
 6376              	.LBE1491:
 6377              	.LBE1490:
 231:../../libDaisy//src/hid/disp/display.h ****         int_fast16_t error2;
 6378              		.loc 3 231 22 view .LVU1675
 6379 0206 C4F1000A 		rsb	r10, r4, #0
 6380              	.LVL458:
 6381              	.LBB1501:
 6382              	.LBI1490:
  42:../../libDaisy//src/hid/disp/oled_display.h ****     {
 6383              		.loc 1 42 10 is_stmt 1 view .LVU1676
 6384              	.LBB1497:
 6385              	.LBI1491:
 352:../../libDaisy//src/dev/oled_ssd130x.h ****     {
 6386              		.loc 4 352 10 view .LVU1677
 6387              	.LBB1493:
 354:../../libDaisy//src/dev/oled_ssd130x.h ****             return;
 6388              		.loc 4 354 28 is_stmt 0 view .LVU1678
 6389 020a 94BF     		ite	ls
 6390 020c 0023     		movls	r3, #0
 6391              	.LVL459:
 354:../../libDaisy//src/dev/oled_ssd130x.h ****             return;
 6392              		.loc 4 354 28 view .LVU1679
 6393 020e 0123     		movhi	r3, #1
 6394 0210 0A93     		str	r3, [sp, #40]
 354:../../libDaisy//src/dev/oled_ssd130x.h ****             return;
 6395              		.loc 4 354 9 view .LVU1680
 6396 0212 0029     		cmp	r1, #0
 6397 0214 40F0FA80 		bne	.L420
 6398 0218 002B     		cmp	r3, #0
 6399 021a 40F0F780 		bne	.L420
 6400              	.LBE1493:
 6401              	.LBE1497:
 6402              	.LBE1501:
 230:../../libDaisy//src/hid/disp/display.h ****         int_fast16_t error  = deltaX - deltaY;
 6403              		.loc 3 230 42 view .LVU1681
 6404 021e 4FF0FF33 		mov	r3, #-1
 6405 0222 0893     		str	r3, [sp, #32]
 6406              	.LVL460:
 6407              	.L415:
 6408              	.LBB1502:
 6409              	.LBB1498:
 6410              	.LBB1494:
 357:../../libDaisy//src/dev/oled_ssd130x.h ****         else
 6411              		.loc 4 357 28 view .LVU1682
 6412 0224 4FEADC03 		lsr	r3, ip, #3
 357:../../libDaisy//src/dev/oled_ssd130x.h ****         else
 6413              		.loc 4 357 48 view .LVU1683
 6414 0228 0124     		movs	r4, #1
 6415              	.LVL461:
 357:../../libDaisy//src/dev/oled_ssd130x.h ****         else
 6416              		.loc 4 357 54 view .LVU1684
 6417 022a 0CF00701 		and	r1, ip, #7
ARM GAS  /var/folders/1y/_321xjh9623c014x9_qw12rr0000gn/T//ccXuncwa.s 			page 174


 357:../../libDaisy//src/dev/oled_ssd130x.h ****         else
 6418              		.loc 4 357 42 view .LVU1685
 6419 022e 06EBC313 		add	r3, r6, r3, lsl #7
 357:../../libDaisy//src/dev/oled_ssd130x.h ****         else
 6420              		.loc 4 357 48 view .LVU1686
 6421 0232 04FA01F1 		lsl	r1, r4, r1
 357:../../libDaisy//src/dev/oled_ssd130x.h ****         else
 6422              		.loc 4 357 42 view .LVU1687
 6423 0236 2B44     		add	r3, r3, r5
 6424 0238 93F82444 		ldrb	r4, [r3, #1060]	@ zero_extendqisi2
 6425 023c 2143     		orrs	r1, r1, r4
 6426 023e 83F82414 		strb	r1, [r3, #1060]
 6427 0242 0023     		movs	r3, #0
 6428 0244 0A93     		str	r3, [sp, #40]
 6429              	.L390:
 6430              	.LVL462:
 357:../../libDaisy//src/dev/oled_ssd130x.h ****         else
 6431              		.loc 4 357 42 view .LVU1688
 6432              	.LBE1494:
 6433              	.LBE1498:
 6434              	.LBE1502:
 239:../../libDaisy//src/hid/disp/display.h ****         {
 6435              		.loc 3 239 26 is_stmt 1 view .LVU1689
 6436 0246 049B     		ldr	r3, [sp, #16]
 6437 0248 6345     		cmp	r3, ip
 6438 024a 00F0EC80 		beq	.L463
 6439              	.L392:
 6440              	.LVL463:
 230:../../libDaisy//src/hid/disp/display.h ****         int_fast16_t error  = deltaX - deltaY;
 6441              		.loc 3 230 42 is_stmt 0 view .LVU1690
 6442 024e D646     		mov	lr, r10
 6443              	.LBE1489:
 6444              	.LBE1488:
 6445              	.LBE1550:
 298:Dubby.cpp     ****             display.DrawRect(submenuBoxBounding[i][0], submenuBoxBounding[i][1], submenuBoxBounding
 6446              		.loc 2 298 29 view .LVU1691
 6447 0250 0499     		ldr	r1, [sp, #16]
 6448 0252 3446     		mov	r4, r6
 6449              	.L394:
 6450              	.LVL464:
 6451              	.LBB1551:
 6452              	.LBB1514:
 6453              	.LBB1511:
 6454              	.LBB1503:
 6455              	.LBI1503:
  42:../../libDaisy//src/hid/disp/oled_display.h ****     {
 6456              		.loc 1 42 10 is_stmt 1 view .LVU1692
 6457              	.LBB1504:
 6458              	.LBI1504:
 352:../../libDaisy//src/dev/oled_ssd130x.h ****     {
 6459              		.loc 4 352 10 view .LVU1693
 6460              	.LBB1505:
 357:../../libDaisy//src/dev/oled_ssd130x.h ****         else
 6461              		.loc 4 357 48 is_stmt 0 view .LVU1694
 6462 0254 4FF00109 		mov	r9, #1
 357:../../libDaisy//src/dev/oled_ssd130x.h ****         else
 6463              		.loc 4 357 28 view .LVU1695
ARM GAS  /var/folders/1y/_321xjh9623c014x9_qw12rr0000gn/T//ccXuncwa.s 			page 175


 6464 0258 CB08     		lsrs	r3, r1, #3
 357:../../libDaisy//src/dev/oled_ssd130x.h ****         else
 6465              		.loc 4 357 54 view .LVU1696
 6466 025a 01F00708 		and	r8, r1, #7
 354:../../libDaisy//src/dev/oled_ssd130x.h ****             return;
 6467              		.loc 4 354 9 view .LVU1697
 6468 025e 7F2C     		cmp	r4, #127
 357:../../libDaisy//src/dev/oled_ssd130x.h ****         else
 6469              		.loc 4 357 42 view .LVU1698
 6470 0260 04EBC313 		add	r3, r4, r3, lsl #7
 6471              	.LBE1505:
 6472              	.LBE1504:
 6473              	.LBE1503:
 242:../../libDaisy//src/hid/disp/display.h ****             if(error2 > -deltaY)
 6474              		.loc 3 242 20 view .LVU1699
 6475 0264 0EFA09FB 		lsl	fp, lr, r9
 6476              	.LVL465:
 6477              	.LBB1508:
 6478              	.LBB1507:
 6479              	.LBB1506:
 357:../../libDaisy//src/dev/oled_ssd130x.h ****         else
 6480              		.loc 4 357 48 view .LVU1700
 6481 0268 09FA08F8 		lsl	r8, r9, r8
 354:../../libDaisy//src/dev/oled_ssd130x.h ****             return;
 6482              		.loc 4 354 9 view .LVU1701
 6483 026c 08D8     		bhi	.L395
 6484 026e 3F29     		cmp	r1, #63
 357:../../libDaisy//src/dev/oled_ssd130x.h ****         else
 6485              		.loc 4 357 42 view .LVU1702
 6486 0270 2B44     		add	r3, r3, r5
 354:../../libDaisy//src/dev/oled_ssd130x.h ****             return;
 6487              		.loc 4 354 9 view .LVU1703
 6488 0272 05D8     		bhi	.L395
 357:../../libDaisy//src/dev/oled_ssd130x.h ****         else
 6489              		.loc 4 357 42 view .LVU1704
 6490 0274 93F82494 		ldrb	r9, [r3, #1060]	@ zero_extendqisi2
 6491 0278 48EA0908 		orr	r8, r8, r9
 6492 027c 83F82484 		strb	r8, [r3, #1060]
 6493              	.L395:
 357:../../libDaisy//src/dev/oled_ssd130x.h ****         else
 6494              		.loc 4 357 42 view .LVU1705
 6495              	.LBE1506:
 6496              	.LBE1507:
 6497              	.LBE1508:
 243:../../libDaisy//src/hid/disp/display.h ****             {
 6498              		.loc 3 243 13 view .LVU1706
 6499 0280 BAEB4E0F 		cmp	r10, lr, lsl #1
 6500 0284 03DA     		bge	.L396
 245:../../libDaisy//src/hid/disp/display.h ****                 x1 += signX;
 6501              		.loc 3 245 23 view .LVU1707
 6502 0286 079B     		ldr	r3, [sp, #28]
 246:../../libDaisy//src/hid/disp/display.h ****             }
 6503              		.loc 3 246 20 view .LVU1708
 6504 0288 013C     		subs	r4, r4, #1
 6505              	.LVL466:
 245:../../libDaisy//src/hid/disp/display.h ****                 x1 += signX;
 6506              		.loc 3 245 23 view .LVU1709
ARM GAS  /var/folders/1y/_321xjh9623c014x9_qw12rr0000gn/T//ccXuncwa.s 			page 176


 6507 028a AEEB030E 		sub	lr, lr, r3
 6508              	.LVL467:
 6509              	.L396:
 249:../../libDaisy//src/hid/disp/display.h ****             {
 6510              		.loc 3 249 13 view .LVU1710
 6511 028e BBF1000F 		cmp	fp, #0
 6512 0292 01D0     		beq	.L397
 252:../../libDaisy//src/hid/disp/display.h ****             }
 6513              		.loc 3 252 20 view .LVU1711
 6514 0294 089B     		ldr	r3, [sp, #32]
 6515 0296 1944     		add	r1, r1, r3
 6516              	.LVL468:
 6517              	.L397:
 239:../../libDaisy//src/hid/disp/display.h ****         {
 6518              		.loc 3 239 26 is_stmt 1 view .LVU1712
 6519 0298 A642     		cmp	r6, r4
 6520 029a DBD1     		bne	.L394
 239:../../libDaisy//src/hid/disp/display.h ****         {
 6521              		.loc 3 239 26 is_stmt 0 view .LVU1713
 6522 029c 8C45     		cmp	ip, r1
 6523 029e D9D1     		bne	.L394
 6524 02a0 4FF0000B 		mov	fp, #0
 6525              	.LVL469:
 6526              	.L391:
 239:../../libDaisy//src/hid/disp/display.h ****         {
 6527              		.loc 3 239 26 view .LVU1714
 6528              	.LBE1511:
 6529              	.LBE1514:
 6530              	.LBB1515:
 6531              	.LBI1515:
 221:../../libDaisy//src/hid/disp/display.h ****                   uint_fast8_t y1,
 6532              		.loc 3 221 10 is_stmt 1 view .LVU1715
 6533              	.LBB1516:
 227:../../libDaisy//src/hid/disp/display.h ****         int_fast16_t deltaY = abs((int_fast16_t)y2 - (int_fast16_t)y1);
 6534              		.loc 3 227 52 is_stmt 0 view .LVU1716
 6535 02a4 A7EB0608 		sub	r8, r7, r6
 229:../../libDaisy//src/hid/disp/display.h ****         int_fast16_t signY  = ((y1 < y2) ? 1 : -1);
 6536              		.loc 3 229 42 view .LVU1717
 6537 02a8 B742     		cmp	r7, r6
 6538 02aa 8CBF     		ite	hi
 6539 02ac 0126     		movhi	r6, #1
 6540 02ae 4FF0FF36 		movls	r6, #-1
 6541              	.LBB1517:
 6542              	.LBB1518:
 6543              	.LBB1519:
 354:../../libDaisy//src/dev/oled_ssd130x.h ****             return;
 6544              		.loc 4 354 9 view .LVU1718
 6545 02b2 0A9B     		ldr	r3, [sp, #40]
 6546              	.LBE1519:
 6547              	.LBE1518:
 6548              	.LBE1517:
 227:../../libDaisy//src/hid/disp/display.h ****         int_fast16_t deltaY = abs((int_fast16_t)y2 - (int_fast16_t)y1);
 6549              		.loc 3 227 22 view .LVU1719
 6550 02b4 B8F1000F 		cmp	r8, #0
 6551 02b8 B8BF     		it	lt
 6552 02ba C8F10008 		rsblt	r8, r8, #0
 6553              	.LVL470:
ARM GAS  /var/folders/1y/_321xjh9623c014x9_qw12rr0000gn/T//ccXuncwa.s 			page 177


 6554              	.LBB1522:
 6555              	.LBI1517:
  42:../../libDaisy//src/hid/disp/oled_display.h ****     {
 6556              		.loc 1 42 10 is_stmt 1 view .LVU1720
 6557              	.LBB1521:
 6558              	.LBI1518:
 352:../../libDaisy//src/dev/oled_ssd130x.h ****     {
 6559              		.loc 4 352 10 view .LVU1721
 6560              	.LBB1520:
 354:../../libDaisy//src/dev/oled_ssd130x.h ****             return;
 6561              		.loc 4 354 14 is_stmt 0 view .LVU1722
 6562 02be 7F2F     		cmp	r7, #127
 6563 02c0 94BF     		ite	ls
 6564 02c2 4FF0000A 		movls	r10, #0
 6565 02c6 4FF0010A 		movhi	r10, #1
 354:../../libDaisy//src/dev/oled_ssd130x.h ****             return;
 6566              		.loc 4 354 9 view .LVU1723
 6567 02ca 8BB9     		cbnz	r3, .L399
 6568 02cc BAF1000F 		cmp	r10, #0
 6569 02d0 0ED1     		bne	.L399
 357:../../libDaisy//src/dev/oled_ssd130x.h ****         else
 6570              		.loc 4 357 28 view .LVU1724
 6571 02d2 4FEADC03 		lsr	r3, ip, #3
 357:../../libDaisy//src/dev/oled_ssd130x.h ****         else
 6572              		.loc 4 357 48 view .LVU1725
 6573 02d6 0124     		movs	r4, #1
 357:../../libDaisy//src/dev/oled_ssd130x.h ****         else
 6574              		.loc 4 357 54 view .LVU1726
 6575 02d8 0CF00701 		and	r1, ip, #7
 357:../../libDaisy//src/dev/oled_ssd130x.h ****         else
 6576              		.loc 4 357 42 view .LVU1727
 6577 02dc 07EBC313 		add	r3, r7, r3, lsl #7
 357:../../libDaisy//src/dev/oled_ssd130x.h ****         else
 6578              		.loc 4 357 48 view .LVU1728
 6579 02e0 04FA01F1 		lsl	r1, r4, r1
 357:../../libDaisy//src/dev/oled_ssd130x.h ****         else
 6580              		.loc 4 357 42 view .LVU1729
 6581 02e4 2B44     		add	r3, r3, r5
 6582 02e6 93F82444 		ldrb	r4, [r3, #1060]	@ zero_extendqisi2
 6583 02ea 2143     		orrs	r1, r1, r4
 6584 02ec 83F82414 		strb	r1, [r3, #1060]
 6585              	.L399:
 6586              	.LVL471:
 357:../../libDaisy//src/dev/oled_ssd130x.h ****         else
 6587              		.loc 4 357 42 view .LVU1730
 6588              	.LBE1520:
 6589              	.LBE1521:
 6590              	.LBE1522:
 239:../../libDaisy//src/hid/disp/display.h ****         {
 6591              		.loc 3 239 26 is_stmt 1 view .LVU1731
 6592 02f0 0B9B     		ldr	r3, [sp, #44]
 6593 02f2 0BBB     		cbnz	r3, .L400
 227:../../libDaisy//src/hid/disp/display.h ****         int_fast16_t deltaY = abs((int_fast16_t)y2 - (int_fast16_t)y1);
 6594              		.loc 3 227 22 is_stmt 0 view .LVU1732
 6595 02f4 C646     		mov	lr, r8
 6596              	.LBE1516:
 6597              	.LBE1515:
ARM GAS  /var/folders/1y/_321xjh9623c014x9_qw12rr0000gn/T//ccXuncwa.s 			page 178


 6598              	.LBE1551:
 298:Dubby.cpp     ****             display.DrawRect(submenuBoxBounding[i][0], submenuBoxBounding[i][1], submenuBoxBounding
 6599              		.loc 2 298 29 view .LVU1733
 6600 02f6 6446     		mov	r4, ip
 6601              	.LVL472:
 6602              	.L401:
 6603              	.LBB1552:
 6604              	.LBB1527:
 6605              	.LBB1526:
 6606              	.LBB1523:
 6607              	.LBI1523:
  42:../../libDaisy//src/hid/disp/oled_display.h ****     {
 6608              		.loc 1 42 10 is_stmt 1 view .LVU1734
 6609              	.LBB1524:
 6610              	.LBI1524:
 352:../../libDaisy//src/dev/oled_ssd130x.h ****     {
 6611              		.loc 4 352 10 view .LVU1735
 6612              	.LBB1525:
 357:../../libDaisy//src/dev/oled_ssd130x.h ****         else
 6613              		.loc 4 357 28 is_stmt 0 view .LVU1736
 6614 02f8 E308     		lsrs	r3, r4, #3
 357:../../libDaisy//src/dev/oled_ssd130x.h ****         else
 6615              		.loc 4 357 54 view .LVU1737
 6616 02fa 04F00701 		and	r1, r4, #7
 357:../../libDaisy//src/dev/oled_ssd130x.h ****         else
 6617              		.loc 4 357 48 view .LVU1738
 6618 02fe 4FF00109 		mov	r9, #1
 354:../../libDaisy//src/dev/oled_ssd130x.h ****             return;
 6619              		.loc 4 354 9 view .LVU1739
 6620 0302 7F28     		cmp	r0, #127
 357:../../libDaisy//src/dev/oled_ssd130x.h ****         else
 6621              		.loc 4 357 42 view .LVU1740
 6622 0304 00EBC313 		add	r3, r0, r3, lsl #7
 357:../../libDaisy//src/dev/oled_ssd130x.h ****         else
 6623              		.loc 4 357 48 view .LVU1741
 6624 0308 09FA01F1 		lsl	r1, r9, r1
 354:../../libDaisy//src/dev/oled_ssd130x.h ****             return;
 6625              		.loc 4 354 9 view .LVU1742
 6626 030c 08D8     		bhi	.L403
 354:../../libDaisy//src/dev/oled_ssd130x.h ****             return;
 6627              		.loc 4 354 9 view .LVU1743
 6628 030e 3F2C     		cmp	r4, #63
 357:../../libDaisy//src/dev/oled_ssd130x.h ****         else
 6629              		.loc 4 357 42 view .LVU1744
 6630 0310 2B44     		add	r3, r3, r5
 354:../../libDaisy//src/dev/oled_ssd130x.h ****             return;
 6631              		.loc 4 354 9 view .LVU1745
 6632 0312 05D8     		bhi	.L403
 357:../../libDaisy//src/dev/oled_ssd130x.h ****         else
 6633              		.loc 4 357 42 view .LVU1746
 6634 0314 93F82494 		ldrb	r9, [r3, #1060]	@ zero_extendqisi2
 6635 0318 41EA0901 		orr	r1, r1, r9
 6636 031c 83F82414 		strb	r1, [r3, #1060]
 6637              	.L403:
 357:../../libDaisy//src/dev/oled_ssd130x.h ****         else
 6638              		.loc 4 357 42 view .LVU1747
 6639              	.LBE1525:
ARM GAS  /var/folders/1y/_321xjh9623c014x9_qw12rr0000gn/T//ccXuncwa.s 			page 179


 6640              	.LBE1524:
 6641              	.LBE1523:
 243:../../libDaisy//src/hid/disp/display.h ****             {
 6642              		.loc 3 243 13 view .LVU1748
 6643 0320 5FEA4E03 		lsls	r3, lr, #1
 246:../../libDaisy//src/hid/disp/display.h ****             }
 6644              		.loc 3 246 20 view .LVU1749
 6645 0324 18BF     		it	ne
 6646 0326 8019     		addne	r0, r0, r6
 6647              	.LVL473:
 249:../../libDaisy//src/hid/disp/display.h ****             {
 6648              		.loc 3 249 13 view .LVU1750
 6649 0328 9845     		cmp	r8, r3
 6650 032a 01DD     		ble	.L405
 251:../../libDaisy//src/hid/disp/display.h ****                 y1 += signY;
 6651              		.loc 3 251 23 view .LVU1751
 6652 032c C644     		add	lr, lr, r8
 6653              	.LVL474:
 252:../../libDaisy//src/hid/disp/display.h ****             }
 6654              		.loc 3 252 20 view .LVU1752
 6655 032e 013C     		subs	r4, r4, #1
 6656              	.LVL475:
 6657              	.L405:
 239:../../libDaisy//src/hid/disp/display.h ****         {
 6658              		.loc 3 239 26 is_stmt 1 view .LVU1753
 6659 0330 8742     		cmp	r7, r0
 6660 0332 E1D1     		bne	.L401
 239:../../libDaisy//src/hid/disp/display.h ****         {
 6661              		.loc 3 239 26 is_stmt 0 view .LVU1754
 6662 0334 A445     		cmp	ip, r4
 6663 0336 DFD1     		bne	.L401
 6664              	.LVL476:
 6665              	.L400:
 239:../../libDaisy//src/hid/disp/display.h ****         {
 6666              		.loc 3 239 26 view .LVU1755
 6667              	.LBE1526:
 6668              	.LBE1527:
 6669              	.LBB1528:
 6670              	.LBI1528:
 221:../../libDaisy//src/hid/disp/display.h ****                   uint_fast8_t y1,
 6671              		.loc 3 221 10 is_stmt 1 view .LVU1756
 6672              	.LBB1529:
 228:../../libDaisy//src/hid/disp/display.h ****         int_fast16_t signX  = ((x1 < x2) ? 1 : -1);
 6673              		.loc 3 228 52 is_stmt 0 view .LVU1757
 6674 0338 0499     		ldr	r1, [sp, #16]
 6675              	.LBB1530:
 6676              	.LBB1531:
 6677              	.LBB1532:
 354:../../libDaisy//src/dev/oled_ssd130x.h ****             return;
 6678              		.loc 4 354 9 view .LVU1758
 6679 033a 099B     		ldr	r3, [sp, #36]
 6680              	.LBE1532:
 6681              	.LBE1531:
 6682              	.LBE1530:
 228:../../libDaisy//src/hid/disp/display.h ****         int_fast16_t signX  = ((x1 < x2) ? 1 : -1);
 6683              		.loc 3 228 52 view .LVU1759
 6684 033c A1EB0C08 		sub	r8, r1, ip
ARM GAS  /var/folders/1y/_321xjh9623c014x9_qw12rr0000gn/T//ccXuncwa.s 			page 180


 230:../../libDaisy//src/hid/disp/display.h ****         int_fast16_t error  = deltaX - deltaY;
 6685              		.loc 3 230 42 view .LVU1760
 6686 0340 6145     		cmp	r1, ip
 6687 0342 8CBF     		ite	hi
 6688 0344 4FF0010C 		movhi	ip, #1
 6689 0348 4FF0FF3C 		movls	ip, #-1
 228:../../libDaisy//src/hid/disp/display.h ****         int_fast16_t signX  = ((x1 < x2) ? 1 : -1);
 6690              		.loc 3 228 22 view .LVU1761
 6691 034c B8F1000F 		cmp	r8, #0
 6692 0350 B8BF     		it	lt
 6693 0352 C8F10008 		rsblt	r8, r8, #0
 6694              	.LVL477:
 231:../../libDaisy//src/hid/disp/display.h ****         int_fast16_t error2;
 6695              		.loc 3 231 22 view .LVU1762
 6696 0356 C8F1000E 		rsb	lr, r8, #0
 6697              	.LVL478:
 6698              	.LBB1535:
 6699              	.LBI1530:
  42:../../libDaisy//src/hid/disp/oled_display.h ****     {
 6700              		.loc 1 42 10 is_stmt 1 view .LVU1763
 6701              	.LBB1534:
 6702              	.LBI1531:
 352:../../libDaisy//src/dev/oled_ssd130x.h ****     {
 6703              		.loc 4 352 10 view .LVU1764
 6704              	.LBB1533:
 354:../../libDaisy//src/dev/oled_ssd130x.h ****             return;
 6705              		.loc 4 354 9 is_stmt 0 view .LVU1765
 6706 035a 83B9     		cbnz	r3, .L407
 6707 035c BAF1000F 		cmp	r10, #0
 6708 0360 0DD1     		bne	.L407
 357:../../libDaisy//src/dev/oled_ssd130x.h ****         else
 6709              		.loc 4 357 28 view .LVU1766
 6710 0362 CB08     		lsrs	r3, r1, #3
 357:../../libDaisy//src/dev/oled_ssd130x.h ****         else
 6711              		.loc 4 357 48 view .LVU1767
 6712 0364 0120     		movs	r0, #1
 357:../../libDaisy//src/dev/oled_ssd130x.h ****         else
 6713              		.loc 4 357 54 view .LVU1768
 6714 0366 01F00701 		and	r1, r1, #7
 357:../../libDaisy//src/dev/oled_ssd130x.h ****         else
 6715              		.loc 4 357 42 view .LVU1769
 6716 036a 07EBC313 		add	r3, r7, r3, lsl #7
 357:../../libDaisy//src/dev/oled_ssd130x.h ****         else
 6717              		.loc 4 357 48 view .LVU1770
 6718 036e 00FA01F1 		lsl	r1, r0, r1
 357:../../libDaisy//src/dev/oled_ssd130x.h ****         else
 6719              		.loc 4 357 42 view .LVU1771
 6720 0372 2B44     		add	r3, r3, r5
 6721 0374 93F82404 		ldrb	r0, [r3, #1060]	@ zero_extendqisi2
 6722 0378 0143     		orrs	r1, r1, r0
 6723 037a 83F82414 		strb	r1, [r3, #1060]
 6724              	.L407:
 6725              	.LVL479:
 357:../../libDaisy//src/dev/oled_ssd130x.h ****         else
 6726              		.loc 4 357 42 view .LVU1772
 6727              	.LBE1533:
 6728              	.LBE1534:
ARM GAS  /var/folders/1y/_321xjh9623c014x9_qw12rr0000gn/T//ccXuncwa.s 			page 181


 6729              	.LBE1535:
 239:../../libDaisy//src/hid/disp/display.h ****         {
 6730              		.loc 3 239 26 is_stmt 1 view .LVU1773
 6731 037e BBF1000F 		cmp	fp, #0
 6732 0382 7FF47DAE 		bne	.L379
 6733 0386 7046     		mov	r0, lr
 6734              	.LBE1529:
 6735              	.LBE1528:
 6736              	.LBE1552:
 298:Dubby.cpp     ****             display.DrawRect(submenuBoxBounding[i][0], submenuBoxBounding[i][1], submenuBoxBounding
 6737              		.loc 2 298 29 is_stmt 0 view .LVU1774
 6738 0388 3946     		mov	r1, r7
 6739              	.LVL480:
 6740              	.L408:
 6741              	.LBB1553:
 6742              	.LBB1543:
 6743              	.LBB1542:
 6744              	.LBB1536:
 6745              	.LBI1536:
  42:../../libDaisy//src/hid/disp/oled_display.h ****     {
 6746              		.loc 1 42 10 is_stmt 1 view .LVU1775
 6747              	.LBB1537:
 6748              	.LBI1537:
 352:../../libDaisy//src/dev/oled_ssd130x.h ****     {
 6749              		.loc 4 352 10 view .LVU1776
 6750              	.LBB1538:
 357:../../libDaisy//src/dev/oled_ssd130x.h ****         else
 6751              		.loc 4 357 48 is_stmt 0 view .LVU1777
 6752 038a 0124     		movs	r4, #1
 357:../../libDaisy//src/dev/oled_ssd130x.h ****         else
 6753              		.loc 4 357 28 view .LVU1778
 6754 038c D308     		lsrs	r3, r2, #3
 357:../../libDaisy//src/dev/oled_ssd130x.h ****         else
 6755              		.loc 4 357 54 view .LVU1779
 6756 038e 02F00709 		and	r9, r2, #7
 354:../../libDaisy//src/dev/oled_ssd130x.h ****             return;
 6757              		.loc 4 354 9 view .LVU1780
 6758 0392 7F29     		cmp	r1, #127
 6759              	.LBE1538:
 6760              	.LBE1537:
 6761              	.LBE1536:
 242:../../libDaisy//src/hid/disp/display.h ****             if(error2 > -deltaY)
 6762              		.loc 3 242 20 view .LVU1781
 6763 0394 00FA04F6 		lsl	r6, r0, r4
 6764              	.LVL481:
 6765              	.LBB1541:
 6766              	.LBB1540:
 6767              	.LBB1539:
 357:../../libDaisy//src/dev/oled_ssd130x.h ****         else
 6768              		.loc 4 357 42 view .LVU1782
 6769 0398 01EBC313 		add	r3, r1, r3, lsl #7
 357:../../libDaisy//src/dev/oled_ssd130x.h ****         else
 6770              		.loc 4 357 48 view .LVU1783
 6771 039c 04FA09F4 		lsl	r4, r4, r9
 354:../../libDaisy//src/dev/oled_ssd130x.h ****             return;
 6772              		.loc 4 354 9 view .LVU1784
 6773 03a0 08D8     		bhi	.L410
ARM GAS  /var/folders/1y/_321xjh9623c014x9_qw12rr0000gn/T//ccXuncwa.s 			page 182


 354:../../libDaisy//src/dev/oled_ssd130x.h ****             return;
 6774              		.loc 4 354 9 view .LVU1785
 6775 03a2 3F2A     		cmp	r2, #63
 357:../../libDaisy//src/dev/oled_ssd130x.h ****         else
 6776              		.loc 4 357 42 view .LVU1786
 6777 03a4 2B44     		add	r3, r3, r5
 354:../../libDaisy//src/dev/oled_ssd130x.h ****             return;
 6778              		.loc 4 354 9 view .LVU1787
 6779 03a6 05D8     		bhi	.L410
 357:../../libDaisy//src/dev/oled_ssd130x.h ****         else
 6780              		.loc 4 357 42 view .LVU1788
 6781 03a8 93F82494 		ldrb	r9, [r3, #1060]	@ zero_extendqisi2
 6782 03ac 44EA0904 		orr	r4, r4, r9
 6783 03b0 83F82444 		strb	r4, [r3, #1060]
 6784              	.L410:
 357:../../libDaisy//src/dev/oled_ssd130x.h ****         else
 6785              		.loc 4 357 42 view .LVU1789
 6786              	.LBE1539:
 6787              	.LBE1540:
 6788              	.LBE1541:
 243:../../libDaisy//src/hid/disp/display.h ****             {
 6789              		.loc 3 243 13 view .LVU1790
 6790 03b4 BEEB400F 		cmp	lr, r0, lsl #1
 6791 03b8 02DA     		bge	.L411
 246:../../libDaisy//src/hid/disp/display.h ****             }
 6792              		.loc 3 246 20 view .LVU1791
 6793 03ba 0139     		subs	r1, r1, #1
 6794              	.LVL482:
 245:../../libDaisy//src/hid/disp/display.h ****                 x1 += signX;
 6795              		.loc 3 245 23 view .LVU1792
 6796 03bc A0EB0800 		sub	r0, r0, r8
 6797              	.LVL483:
 6798              	.L411:
 249:../../libDaisy//src/hid/disp/display.h ****             {
 6799              		.loc 3 249 13 view .LVU1793
 6800 03c0 06B1     		cbz	r6, .L412
 252:../../libDaisy//src/hid/disp/display.h ****             }
 6801              		.loc 3 252 20 view .LVU1794
 6802 03c2 6244     		add	r2, r2, ip
 6803              	.LVL484:
 6804              	.L412:
 239:../../libDaisy//src/hid/disp/display.h ****         {
 6805              		.loc 3 239 26 is_stmt 1 view .LVU1795
 6806 03c4 8F42     		cmp	r7, r1
 6807 03c6 E0D1     		bne	.L408
 239:../../libDaisy//src/hid/disp/display.h ****         {
 6808              		.loc 3 239 26 is_stmt 0 view .LVU1796
 6809 03c8 049B     		ldr	r3, [sp, #16]
 6810 03ca 9342     		cmp	r3, r2
 6811 03cc DDD1     		bne	.L408
 6812 03ce 57E6     		b	.L379
 6813              	.LVL485:
 6814              	.L380:
 239:../../libDaisy//src/hid/disp/display.h ****         {
 6815              		.loc 3 239 26 view .LVU1797
 6816              	.LBE1542:
 6817              	.LBE1543:
ARM GAS  /var/folders/1y/_321xjh9623c014x9_qw12rr0000gn/T//ccXuncwa.s 			page 183


 6818              	.LBB1544:
 6819              	.LBB1483:
 6820              	.LBB1479:
  42:../../libDaisy//src/hid/disp/oled_display.h ****     {
 6821              		.loc 1 42 10 is_stmt 1 view .LVU1798
 6822              	.LBB1474:
 352:../../libDaisy//src/dev/oled_ssd130x.h ****     {
 6823              		.loc 4 352 10 view .LVU1799
 6824              	.LBB1472:
 354:../../libDaisy//src/dev/oled_ssd130x.h ****             return;
 6825              		.loc 4 354 28 is_stmt 0 view .LVU1800
 6826 03d0 0499     		ldr	r1, [sp, #16]
 354:../../libDaisy//src/dev/oled_ssd130x.h ****             return;
 6827              		.loc 4 354 14 view .LVU1801
 6828 03d2 7F2E     		cmp	r6, #127
 6829 03d4 94BF     		ite	ls
 6830 03d6 0023     		movls	r3, #0
 6831              	.LVL486:
 354:../../libDaisy//src/dev/oled_ssd130x.h ****             return;
 6832              		.loc 4 354 14 view .LVU1802
 6833 03d8 0123     		movhi	r3, #1
 354:../../libDaisy//src/dev/oled_ssd130x.h ****             return;
 6834              		.loc 4 354 28 view .LVU1803
 6835 03da 3F29     		cmp	r1, #63
 354:../../libDaisy//src/dev/oled_ssd130x.h ****             return;
 6836              		.loc 4 354 14 view .LVU1804
 6837 03dc 0893     		str	r3, [sp, #32]
 354:../../libDaisy//src/dev/oled_ssd130x.h ****             return;
 6838              		.loc 4 354 28 view .LVU1805
 6839 03de 94BF     		ite	ls
 6840 03e0 0021     		movls	r1, #0
 6841 03e2 0121     		movhi	r1, #1
 6842 03e4 0991     		str	r1, [sp, #36]
 354:../../libDaisy//src/dev/oled_ssd130x.h ****             return;
 6843              		.loc 4 354 9 view .LVU1806
 6844 03e6 C3B9     		cbnz	r3, .L426
 6845 03e8 B9B9     		cbnz	r1, .L426
 6846              	.LBE1472:
 6847              	.LBE1474:
 6848              	.LBE1479:
 229:../../libDaisy//src/hid/disp/display.h ****         int_fast16_t signY  = ((y1 < y2) ? 1 : -1);
 6849              		.loc 3 229 42 view .LVU1807
 6850 03ea A346     		mov	fp, r4
 6851 03ec C0E6     		b	.L416
 6852              	.LVL487:
 6853              	.L389:
 229:../../libDaisy//src/hid/disp/display.h ****         int_fast16_t signY  = ((y1 < y2) ? 1 : -1);
 6854              		.loc 3 229 42 view .LVU1808
 6855              	.LBE1483:
 6856              	.LBE1544:
 6857              	.LBB1545:
 6858              	.LBB1512:
 231:../../libDaisy//src/hid/disp/display.h ****         int_fast16_t error2;
 6859              		.loc 3 231 22 view .LVU1809
 6860 03ee 079B     		ldr	r3, [sp, #28]
 6861              	.LVL488:
 6862              	.LBB1509:
ARM GAS  /var/folders/1y/_321xjh9623c014x9_qw12rr0000gn/T//ccXuncwa.s 			page 184


 6863              	.LBB1499:
 6864              	.LBB1495:
 354:../../libDaisy//src/dev/oled_ssd130x.h ****             return;
 6865              		.loc 4 354 28 view .LVU1810
 6866 03f0 BCF13F0F 		cmp	ip, #63
 354:../../libDaisy//src/dev/oled_ssd130x.h ****             return;
 6867              		.loc 4 354 9 view .LVU1811
 6868 03f4 0899     		ldr	r1, [sp, #32]
 6869              	.LVL489:
 354:../../libDaisy//src/dev/oled_ssd130x.h ****             return;
 6870              		.loc 4 354 9 view .LVU1812
 6871              	.LBE1495:
 6872              	.LBE1499:
 6873              	.LBE1509:
 231:../../libDaisy//src/hid/disp/display.h ****         int_fast16_t error2;
 6874              		.loc 3 231 22 view .LVU1813
 6875 03f6 C3F1000A 		rsb	r10, r3, #0
 6876              	.LVL490:
 6877              	.LBB1510:
  42:../../libDaisy//src/hid/disp/oled_display.h ****     {
 6878              		.loc 1 42 10 is_stmt 1 view .LVU1814
 6879              	.LBB1500:
 352:../../libDaisy//src/dev/oled_ssd130x.h ****     {
 6880              		.loc 4 352 10 view .LVU1815
 6881              	.LBB1496:
 354:../../libDaisy//src/dev/oled_ssd130x.h ****             return;
 6882              		.loc 4 354 28 is_stmt 0 view .LVU1816
 6883 03fa 94BF     		ite	ls
 6884 03fc 0023     		movls	r3, #0
 6885 03fe 0123     		movhi	r3, #1
 6886 0400 0A93     		str	r3, [sp, #40]
 354:../../libDaisy//src/dev/oled_ssd130x.h ****             return;
 6887              		.loc 4 354 9 view .LVU1817
 6888 0402 39B9     		cbnz	r1, .L425
 6889 0404 33B9     		cbnz	r3, .L425
 6890              	.LBE1496:
 6891              	.LBE1500:
 6892              	.LBE1510:
 230:../../libDaisy//src/hid/disp/display.h ****         int_fast16_t error  = deltaX - deltaY;
 6893              		.loc 3 230 42 view .LVU1818
 6894 0406 0123     		movs	r3, #1
 6895 0408 0893     		str	r3, [sp, #32]
 6896 040a 0BE7     		b	.L415
 6897              	.LVL491:
 6898              	.L420:
 230:../../libDaisy//src/hid/disp/display.h ****         int_fast16_t error  = deltaX - deltaY;
 6899              		.loc 3 230 42 view .LVU1819
 6900 040c 4FF0FF33 		mov	r3, #-1
 6901 0410 0893     		str	r3, [sp, #32]
 6902 0412 18E7     		b	.L390
 6903              	.LVL492:
 6904              	.L425:
 230:../../libDaisy//src/hid/disp/display.h ****         int_fast16_t error  = deltaX - deltaY;
 6905              		.loc 3 230 42 view .LVU1820
 6906 0414 0123     		movs	r3, #1
 6907 0416 0893     		str	r3, [sp, #32]
 6908 0418 19E7     		b	.L392
ARM GAS  /var/folders/1y/_321xjh9623c014x9_qw12rr0000gn/T//ccXuncwa.s 			page 185


 6909              	.LVL493:
 6910              	.L426:
 230:../../libDaisy//src/hid/disp/display.h ****         int_fast16_t error  = deltaX - deltaY;
 6911              		.loc 3 230 42 view .LVU1821
 6912              	.LBE1512:
 6913              	.LBE1545:
 6914              	.LBB1546:
 6915              	.LBB1484:
 229:../../libDaisy//src/hid/disp/display.h ****         int_fast16_t signY  = ((y1 < y2) ? 1 : -1);
 6916              		.loc 3 229 42 view .LVU1822
 6917 041a 4FF0010B 		mov	fp, #1
 6918 041e BCE6     		b	.L383
 6919              	.LVL494:
 6920              	.L462:
 239:../../libDaisy//src/hid/disp/display.h ****         {
 6921              		.loc 3 239 19 view .LVU1823
 6922 0420 0123     		movs	r3, #1
 6923 0422 0B93     		str	r3, [sp, #44]
 6924 0424 E0E6     		b	.L382
 6925              	.LVL495:
 6926              	.L463:
 239:../../libDaisy//src/hid/disp/display.h ****         {
 6927              		.loc 3 239 19 view .LVU1824
 6928              	.LBE1484:
 6929              	.LBE1546:
 6930              	.LBB1547:
 6931              	.LBB1513:
 239:../../libDaisy//src/hid/disp/display.h ****         {
 6932              		.loc 3 239 33 view .LVU1825
 6933 0426 4FF0010B 		mov	fp, #1
 6934 042a 3BE7     		b	.L391
 6935              	.LBE1513:
 6936              	.LBE1547:
 6937              	.LBE1553:
 6938              	.LBE1574:
 6939              		.cfi_endproc
 6940              	.LFE2588:
 6942              		.section	.text._ZN5daisy5Dubby13UpdateSubmenuEv,"ax",%progbits
 6943              		.align	1
 6944              		.p2align 2,,3
 6945              		.global	_ZN5daisy5Dubby13UpdateSubmenuEv
 6946              		.syntax unified
 6947              		.thumb
 6948              		.thumb_func
 6950              	_ZN5daisy5Dubby13UpdateSubmenuEv:
 6951              	.LVL496:
 6952              	.LFB2585:
 233:Dubby.cpp     **** {
 6953              		.loc 2 233 1 is_stmt 1 view -0
 6954              		.cfi_startproc
 6955              		@ args = 0, pretend = 0, frame = 8
 6956              		@ frame_needed = 0, uses_anonymous_args = 0
 234:Dubby.cpp     ****     switch(menuItemSelected) 
 6957              		.loc 2 234 5 view .LVU1827
 234:Dubby.cpp     ****     switch(menuItemSelected) 
 6958              		.loc 2 234 12 is_stmt 0 view .LVU1828
 6959 0000 90F85830 		ldrb	r3, [r0, #88]	@ zero_extendqisi2
ARM GAS  /var/folders/1y/_321xjh9623c014x9_qw12rr0000gn/T//ccXuncwa.s 			page 186


 233:Dubby.cpp     **** {
 6960              		.loc 2 233 1 view .LVU1829
 6961 0004 2DE9F041 		push	{r4, r5, r6, r7, r8, lr}
 6962              		.cfi_def_cfa_offset 24
 6963              		.cfi_offset 4, -24
 6964              		.cfi_offset 5, -20
 6965              		.cfi_offset 6, -16
 6966              		.cfi_offset 7, -12
 6967              		.cfi_offset 8, -8
 6968              		.cfi_offset 14, -4
 6969 0008 0746     		mov	r7, r0
 6970 000a 82B0     		sub	sp, sp, #8
 6971              		.cfi_def_cfa_offset 32
 234:Dubby.cpp     ****     switch(menuItemSelected) 
 6972              		.loc 2 234 5 view .LVU1830
 6973 000c 002B     		cmp	r3, #0
 6974 000e 46D0     		beq	.L467
 6975 0010 022B     		cmp	r3, #2
 6976 0012 01D1     		bne	.L469
 242:Dubby.cpp     ****         case MENU3:
 6977              		.loc 2 242 9 is_stmt 1 view .LVU1831
 243:Dubby.cpp     ****             DisplayPreferencesMenu();
 6978              		.loc 2 243 13 view .LVU1832
 243:Dubby.cpp     ****             DisplayPreferencesMenu();
 6979              		.loc 2 243 35 is_stmt 0 view .LVU1833
 6980 0014 FFF7FEFF 		bl	_ZN5daisy5Dubby22DisplayPreferencesMenuEv
 6981              	.LVL497:
 244:Dubby.cpp     ****             break;
 6982              		.loc 2 244 13 is_stmt 1 view .LVU1834
 6983              	.L469:
 6984              	.LBB1590:
 6985              	.LBB1591:
 6986              	.LBB1592:
 6987              	.LBB1593:
 6988              	.LBB1594:
 124:../../libDaisy//src/dev/oled_ssd130x.h ****         spi_.BlockingTransmit(&cmd, 1);
 6989              		.loc 4 124 24 is_stmt 0 view .LVU1835
 6990 0018 07F58366 		add	r6, r7, #1048
 6991 001c 07F58465 		add	r5, r7, #1056
 125:../../libDaisy//src/dev/oled_ssd130x.h ****     };
 6992              		.loc 4 125 30 view .LVU1836
 6993 0020 B024     		movs	r4, #176
 6994 0022 07F22447 		addw	r7, r7, #1060
 6995              	.LVL498:
 6996              	.L470:
 125:../../libDaisy//src/dev/oled_ssd130x.h ****     };
 6997              		.loc 4 125 30 view .LVU1837
 6998 0026 4FF00008 		mov	r8, #0
 124:../../libDaisy//src/dev/oled_ssd130x.h ****         spi_.BlockingTransmit(&cmd, 1);
 6999              		.loc 4 124 23 view .LVU1838
 7000 002a 2846     		mov	r0, r5
 7001 002c 8DF80740 		strb	r4, [sp, #7]
 7002              	.LVL499:
 124:../../libDaisy//src/dev/oled_ssd130x.h ****         spi_.BlockingTransmit(&cmd, 1);
 7003              		.loc 4 124 23 view .LVU1839
 7004              	.LBE1594:
 7005              	.LBI1593:
ARM GAS  /var/folders/1y/_321xjh9623c014x9_qw12rr0000gn/T//ccXuncwa.s 			page 187


 122:../../libDaisy//src/dev/oled_ssd130x.h ****     {
 7006              		.loc 4 122 10 is_stmt 1 view .LVU1840
 7007              	.LBB1595:
 124:../../libDaisy//src/dev/oled_ssd130x.h ****         spi_.BlockingTransmit(&cmd, 1);
 7008              		.loc 4 124 9 view .LVU1841
 7009              	.LBE1595:
 7010              	.LBE1593:
 7011              		.loc 4 383 22 is_stmt 0 view .LVU1842
 7012 0030 0134     		adds	r4, r4, #1
 7013              	.LVL500:
 7014              	.LBB1598:
 7015              	.LBB1596:
 124:../../libDaisy//src/dev/oled_ssd130x.h ****         spi_.BlockingTransmit(&cmd, 1);
 7016              		.loc 4 124 23 view .LVU1843
 7017 0032 4146     		mov	r1, r8
 7018 0034 FFF7FEFF 		bl	dsy_gpio_write
 7019              	.LVL501:
 125:../../libDaisy//src/dev/oled_ssd130x.h ****     };
 7020              		.loc 4 125 9 is_stmt 1 view .LVU1844
 125:../../libDaisy//src/dev/oled_ssd130x.h ****     };
 7021              		.loc 4 125 30 is_stmt 0 view .LVU1845
 7022 0038 6423     		movs	r3, #100
 7023 003a 0122     		movs	r2, #1
 7024 003c 0DF10701 		add	r1, sp, #7
 7025 0040 3046     		mov	r0, r6
 7026              	.LBE1596:
 7027              	.LBE1598:
 7028              		.loc 4 383 22 view .LVU1846
 7029 0042 E4B2     		uxtb	r4, r4
 7030              	.LBB1599:
 7031              	.LBB1597:
 125:../../libDaisy//src/dev/oled_ssd130x.h ****     };
 7032              		.loc 4 125 30 view .LVU1847
 7033 0044 FFF7FEFF 		bl	_ZN5daisy9SpiHandle16BlockingTransmitEPhjm
 7034              	.LVL502:
 125:../../libDaisy//src/dev/oled_ssd130x.h ****     };
 7035              		.loc 4 125 30 view .LVU1848
 7036              	.LBE1597:
 7037              	.LBE1599:
 7038              	.LBB1600:
 7039              	.LBB1601:
 124:../../libDaisy//src/dev/oled_ssd130x.h ****         spi_.BlockingTransmit(&cmd, 1);
 7040              		.loc 4 124 23 view .LVU1849
 7041 0048 4146     		mov	r1, r8
 7042 004a 2846     		mov	r0, r5
 7043 004c 8DF80780 		strb	r8, [sp, #7]
 7044              	.LVL503:
 124:../../libDaisy//src/dev/oled_ssd130x.h ****         spi_.BlockingTransmit(&cmd, 1);
 7045              		.loc 4 124 23 view .LVU1850
 7046              	.LBE1601:
 7047              	.LBI1600:
 122:../../libDaisy//src/dev/oled_ssd130x.h ****     {
 7048              		.loc 4 122 10 is_stmt 1 view .LVU1851
 7049              	.LBB1602:
 124:../../libDaisy//src/dev/oled_ssd130x.h ****         spi_.BlockingTransmit(&cmd, 1);
 7050              		.loc 4 124 9 view .LVU1852
 124:../../libDaisy//src/dev/oled_ssd130x.h ****         spi_.BlockingTransmit(&cmd, 1);
ARM GAS  /var/folders/1y/_321xjh9623c014x9_qw12rr0000gn/T//ccXuncwa.s 			page 188


 7051              		.loc 4 124 23 is_stmt 0 view .LVU1853
 7052 0050 FFF7FEFF 		bl	dsy_gpio_write
 7053              	.LVL504:
 125:../../libDaisy//src/dev/oled_ssd130x.h ****     };
 7054              		.loc 4 125 9 is_stmt 1 view .LVU1854
 125:../../libDaisy//src/dev/oled_ssd130x.h ****     };
 7055              		.loc 4 125 30 is_stmt 0 view .LVU1855
 7056 0054 0122     		movs	r2, #1
 7057 0056 6423     		movs	r3, #100
 7058 0058 0DF10701 		add	r1, sp, #7
 7059 005c 3046     		mov	r0, r6
 7060 005e FFF7FEFF 		bl	_ZN5daisy9SpiHandle16BlockingTransmitEPhjm
 7061              	.LVL505:
 125:../../libDaisy//src/dev/oled_ssd130x.h ****     };
 7062              		.loc 4 125 30 view .LVU1856
 7063 0062 1023     		movs	r3, #16
 7064              	.LBE1602:
 7065              	.LBE1600:
 7066              	.LBB1603:
 7067              	.LBB1604:
 124:../../libDaisy//src/dev/oled_ssd130x.h ****         spi_.BlockingTransmit(&cmd, 1);
 7068              		.loc 4 124 23 view .LVU1857
 7069 0064 4146     		mov	r1, r8
 7070 0066 2846     		mov	r0, r5
 7071 0068 8DF80730 		strb	r3, [sp, #7]
 7072              	.LVL506:
 124:../../libDaisy//src/dev/oled_ssd130x.h ****         spi_.BlockingTransmit(&cmd, 1);
 7073              		.loc 4 124 23 view .LVU1858
 7074              	.LBE1604:
 7075              	.LBI1603:
 122:../../libDaisy//src/dev/oled_ssd130x.h ****     {
 7076              		.loc 4 122 10 is_stmt 1 view .LVU1859
 7077              	.LBB1605:
 124:../../libDaisy//src/dev/oled_ssd130x.h ****         spi_.BlockingTransmit(&cmd, 1);
 7078              		.loc 4 124 9 view .LVU1860
 124:../../libDaisy//src/dev/oled_ssd130x.h ****         spi_.BlockingTransmit(&cmd, 1);
 7079              		.loc 4 124 23 is_stmt 0 view .LVU1861
 7080 006c FFF7FEFF 		bl	dsy_gpio_write
 7081              	.LVL507:
 125:../../libDaisy//src/dev/oled_ssd130x.h ****     };
 7082              		.loc 4 125 9 is_stmt 1 view .LVU1862
 125:../../libDaisy//src/dev/oled_ssd130x.h ****     };
 7083              		.loc 4 125 30 is_stmt 0 view .LVU1863
 7084 0070 6423     		movs	r3, #100
 7085 0072 0122     		movs	r2, #1
 7086 0074 0DF10701 		add	r1, sp, #7
 7087 0078 3046     		mov	r0, r6
 7088 007a FFF7FEFF 		bl	_ZN5daisy9SpiHandle16BlockingTransmitEPhjm
 7089              	.LVL508:
 125:../../libDaisy//src/dev/oled_ssd130x.h ****     };
 7090              		.loc 4 125 30 view .LVU1864
 7091              	.LBE1605:
 7092              	.LBE1603:
 7093              	.LBB1606:
 7094              	.LBI1606:
 128:../../libDaisy//src/dev/oled_ssd130x.h ****     {
 7095              		.loc 4 128 10 is_stmt 1 view .LVU1865
ARM GAS  /var/folders/1y/_321xjh9623c014x9_qw12rr0000gn/T//ccXuncwa.s 			page 189


 7096              	.LBB1607:
 130:../../libDaisy//src/dev/oled_ssd130x.h ****         spi_.BlockingTransmit(buff, size);
 7097              		.loc 4 130 9 view .LVU1866
 130:../../libDaisy//src/dev/oled_ssd130x.h ****         spi_.BlockingTransmit(buff, size);
 7098              		.loc 4 130 23 is_stmt 0 view .LVU1867
 7099 007e 0121     		movs	r1, #1
 7100 0080 2846     		mov	r0, r5
 7101 0082 FFF7FEFF 		bl	dsy_gpio_write
 7102              	.LVL509:
 131:../../libDaisy//src/dev/oled_ssd130x.h ****     };
 7103              		.loc 4 131 9 is_stmt 1 view .LVU1868
 131:../../libDaisy//src/dev/oled_ssd130x.h ****     };
 7104              		.loc 4 131 30 is_stmt 0 view .LVU1869
 7105 0086 8022     		movs	r2, #128
 7106 0088 3946     		mov	r1, r7
 7107 008a 6423     		movs	r3, #100
 7108 008c 3046     		mov	r0, r6
 7109              	.LBE1607:
 7110              	.LBE1606:
 7111              		.loc 4 383 22 view .LVU1870
 7112 008e 1744     		add	r7, r7, r2
 7113              	.LVL510:
 7114              	.LBB1609:
 7115              	.LBB1608:
 131:../../libDaisy//src/dev/oled_ssd130x.h ****     };
 7116              		.loc 4 131 30 view .LVU1871
 7117 0090 FFF7FEFF 		bl	_ZN5daisy9SpiHandle16BlockingTransmitEPhjm
 7118              	.LVL511:
 131:../../libDaisy//src/dev/oled_ssd130x.h ****     };
 7119              		.loc 4 131 30 view .LVU1872
 7120              	.LBE1608:
 7121              	.LBE1609:
 7122              		.loc 4 383 9 is_stmt 1 view .LVU1873
 7123              		.loc 4 383 22 view .LVU1874
 7124 0094 B82C     		cmp	r4, #184
 7125 0096 C6D1     		bne	.L470
 7126              	.LBE1592:
 7127              	.LBE1591:
 7128              	.LBE1590:
 250:Dubby.cpp     **** }
 7129              		.loc 2 250 1 is_stmt 0 view .LVU1875
 7130 0098 02B0     		add	sp, sp, #8
 7131              		.cfi_remember_state
 7132              		.cfi_def_cfa_offset 24
 7133              		@ sp needed
 7134 009a BDE8F081 		pop	{r4, r5, r6, r7, r8, pc}
 7135              	.LVL512:
 7136              	.L467:
 7137              		.cfi_restore_state
 236:Dubby.cpp     ****         case MENU1:
 7138              		.loc 2 236 9 is_stmt 1 view .LVU1876
 237:Dubby.cpp     ****             RenderScope();
 7139              		.loc 2 237 13 view .LVU1877
 7140              	.LBB1610:
 7141              	.LBI1610:
 261:Dubby.cpp     **** void Dubby::RenderScope()
 7142              		.loc 2 261 6 view .LVU1878
ARM GAS  /var/folders/1y/_321xjh9623c014x9_qw12rr0000gn/T//ccXuncwa.s 			page 190


 7143              	.LBB1611:
 263:Dubby.cpp     ****     if(seed.system.GetNow() - screen_update_last_ > screen_update_period_)
 7144              		.loc 2 263 5 view .LVU1879
 7145              	.LBB1612:
 263:Dubby.cpp     ****     if(seed.system.GetNow() - screen_update_last_ > screen_update_period_)
 7146              		.loc 2 263 26 is_stmt 0 view .LVU1880
 7147 009e FFF7FEFF 		bl	_ZN5daisy6System6GetNowEv
 7148              	.LVL513:
 263:Dubby.cpp     ****     if(seed.system.GetNow() - screen_update_last_ > screen_update_period_)
 7149              		.loc 2 263 29 view .LVU1881
 7150 00a2 D7F82C28 		ldr	r2, [r7, #2092]
 263:Dubby.cpp     ****     if(seed.system.GetNow() - screen_update_last_ > screen_update_period_)
 7151              		.loc 2 263 5 view .LVU1882
 7152 00a6 D7F83038 		ldr	r3, [r7, #2096]
 263:Dubby.cpp     ****     if(seed.system.GetNow() - screen_update_last_ > screen_update_period_)
 7153              		.loc 2 263 29 view .LVU1883
 7154 00aa 801A     		subs	r0, r0, r2
 263:Dubby.cpp     ****     if(seed.system.GetNow() - screen_update_last_ > screen_update_period_)
 7155              		.loc 2 263 5 view .LVU1884
 7156 00ac 9842     		cmp	r0, r3
 7157 00ae B3D9     		bls	.L469
 7158              	.LBE1612:
 7159 00b0 3846     		mov	r0, r7
 7160 00b2 FFF7FEFF 		bl	_ZN5daisy5Dubby11RenderScopeEv.part.0
 7161              	.LVL514:
 7162 00b6 AFE7     		b	.L469
 7163              	.LBE1611:
 7164              	.LBE1610:
 7165              		.cfi_endproc
 7166              	.LFE2585:
 7168              		.section	.text._ZN5daisy5Dubby10UpdateMenuEib,"ax",%progbits
 7169              		.align	1
 7170              		.p2align 2,,3
 7171              		.global	_ZN5daisy5Dubby10UpdateMenuEib
 7172              		.syntax unified
 7173              		.thumb
 7174              		.thumb_func
 7176              	_ZN5daisy5Dubby10UpdateMenuEib:
 7177              	.LVL515:
 7178              	.LFB2581:
 180:Dubby.cpp     **** {
 7179              		.loc 2 180 1 is_stmt 1 view -0
 7180              		.cfi_startproc
 7181              		@ args = 0, pretend = 0, frame = 8
 7182              		@ frame_needed = 0, uses_anonymous_args = 0
 181:Dubby.cpp     ****     if ((menuItemSelected >= 0 && increment == 1 && menuItemSelected < 2) || (increment != 1 && men
 7183              		.loc 2 181 5 view .LVU1886
 7184 0000 0129     		cmp	r1, #1
 181:Dubby.cpp     ****     if ((menuItemSelected >= 0 && increment == 1 && menuItemSelected < 2) || (increment != 1 && men
 7185              		.loc 2 181 53 is_stmt 0 view .LVU1887
 7186 0002 90F85830 		ldrb	r3, [r0, #88]	@ zero_extendqisi2
 180:Dubby.cpp     **** {
 7187              		.loc 2 180 1 view .LVU1888
 7188 0006 2DE9F041 		push	{r4, r5, r6, r7, r8, lr}
 7189              		.cfi_def_cfa_offset 24
 7190              		.cfi_offset 4, -24
 7191              		.cfi_offset 5, -20
ARM GAS  /var/folders/1y/_321xjh9623c014x9_qw12rr0000gn/T//ccXuncwa.s 			page 191


 7192              		.cfi_offset 6, -16
 7193              		.cfi_offset 7, -12
 7194              		.cfi_offset 8, -8
 7195              		.cfi_offset 14, -4
 7196 000a 0746     		mov	r7, r0
 7197 000c 82B0     		sub	sp, sp, #8
 7198              		.cfi_def_cfa_offset 32
 180:Dubby.cpp     **** {
 7199              		.loc 2 180 1 view .LVU1889
 7200 000e 1446     		mov	r4, r2
 181:Dubby.cpp     ****     if ((menuItemSelected >= 0 && increment == 1 && menuItemSelected < 2) || (increment != 1 && men
 7201              		.loc 2 181 5 view .LVU1890
 7202 0010 54D0     		beq	.L485
 181:Dubby.cpp     ****     if ((menuItemSelected >= 0 && increment == 1 && menuItemSelected < 2) || (increment != 1 && men
 7203              		.loc 2 181 94 discriminator 4 view .LVU1891
 7204 0012 002B     		cmp	r3, #0
 7205 0014 54D1     		bne	.L475
 7206              	.L476:
 7207 0016 07F22448 		addw	r8, r7, #1060
 7208              	.LBB1628:
 7209              	.LBB1629:
 7210              	.LBB1630:
 366:../../libDaisy//src/dev/oled_ssd130x.h ****         }
 7211              		.loc 4 366 24 view .LVU1892
 7212 001a 4FF48062 		mov	r2, #1024
 7213              	.LVL516:
 366:../../libDaisy//src/dev/oled_ssd130x.h ****         }
 7214              		.loc 4 366 24 view .LVU1893
 7215 001e 0021     		movs	r1, #0
 7216              	.LVL517:
 366:../../libDaisy//src/dev/oled_ssd130x.h ****         }
 7217              		.loc 4 366 24 view .LVU1894
 7218 0020 4046     		mov	r0, r8
 7219              	.LVL518:
 366:../../libDaisy//src/dev/oled_ssd130x.h ****         }
 7220              		.loc 4 366 24 view .LVU1895
 7221 0022 FFF7FEFF 		bl	memset
 7222              	.LVL519:
 7223              	.LBE1630:
 7224              	.LBE1629:
 7225              	.LBE1628:
 186:Dubby.cpp     ****     if (higlight) HightlightMenuItem();
 7226              		.loc 2 186 5 is_stmt 1 view .LVU1896
 186:Dubby.cpp     ****     if (higlight) HightlightMenuItem();
 7227              		.loc 2 186 37 is_stmt 0 view .LVU1897
 7228 0026 3846     		mov	r0, r7
 186:Dubby.cpp     ****     if (higlight) HightlightMenuItem();
 7229              		.loc 2 186 5 view .LVU1898
 7230 0028 002C     		cmp	r4, #0
 7231 002a 44D0     		beq	.L477
 7232              	.LVL520:
 186:Dubby.cpp     ****     if (higlight) HightlightMenuItem();
 7233              		.loc 2 186 19 is_stmt 1 discriminator 1 view .LVU1899
 186:Dubby.cpp     ****     if (higlight) HightlightMenuItem();
 7234              		.loc 2 186 37 is_stmt 0 discriminator 1 view .LVU1900
 7235 002c FFF7FEFF 		bl	_ZN5daisy5Dubby18HightlightMenuItemEv
 7236              	.LVL521:
ARM GAS  /var/folders/1y/_321xjh9623c014x9_qw12rr0000gn/T//ccXuncwa.s 			page 192


 7237              	.L478:
 189:Dubby.cpp     ****     UpdateSubmenu();
 7238              		.loc 2 189 5 is_stmt 1 view .LVU1901
 189:Dubby.cpp     ****     UpdateSubmenu();
 7239              		.loc 2 189 18 is_stmt 0 view .LVU1902
 7240 0030 3846     		mov	r0, r7
 7241              	.LBB1631:
 7242              	.LBB1632:
 7243              	.LBB1633:
 7244              	.LBB1634:
 7245              	.LBB1635:
 124:../../libDaisy//src/dev/oled_ssd130x.h ****         spi_.BlockingTransmit(&cmd, 1);
 7246              		.loc 4 124 24 view .LVU1903
 7247 0032 07F58366 		add	r6, r7, #1048
 7248 0036 07F58465 		add	r5, r7, #1056
 125:../../libDaisy//src/dev/oled_ssd130x.h ****     };
 7249              		.loc 4 125 30 view .LVU1904
 7250 003a B024     		movs	r4, #176
 7251              	.LBE1635:
 7252              	.LBE1634:
 7253              	.LBE1633:
 7254              	.LBE1632:
 7255              	.LBE1631:
 189:Dubby.cpp     ****     UpdateSubmenu();
 7256              		.loc 2 189 18 view .LVU1905
 7257 003c FFF7FEFF 		bl	_ZN5daisy5Dubby13UpdateSubmenuEv
 7258              	.LVL522:
 191:Dubby.cpp     ****     display.Update();
 7259              		.loc 2 191 5 is_stmt 1 view .LVU1906
 7260              	.LBB1655:
 7261              	.LBI1631:
  45:../../libDaisy//src/hid/disp/oled_display.h ****     }
  46:../../libDaisy//src/hid/disp/oled_display.h **** 
  47:../../libDaisy//src/hid/disp/oled_display.h ****     /** 
  48:../../libDaisy//src/hid/disp/oled_display.h ****     Writes the current display buffer to the OLED device using SPI or I2C depending on 
  49:../../libDaisy//src/hid/disp/oled_display.h ****     how the object was initialized.
  50:../../libDaisy//src/hid/disp/oled_display.h ****     */
  51:../../libDaisy//src/hid/disp/oled_display.h ****     void Update() override { driver_.Update(); }
 7262              		.loc 1 51 10 view .LVU1907
 7263              	.LBB1654:
 7264              	.LBI1632:
 373:../../libDaisy//src/dev/oled_ssd130x.h ****     {
 7265              		.loc 4 373 10 view .LVU1908
 7266              	.LBB1653:
 7267              		.loc 4 383 22 view .LVU1909
 7268              	.L479:
 7269              		.loc 4 383 22 is_stmt 0 view .LVU1910
 7270 0040 0027     		movs	r7, #0
 7271              	.LBB1640:
 7272              	.LBB1636:
 124:../../libDaisy//src/dev/oled_ssd130x.h ****         spi_.BlockingTransmit(&cmd, 1);
 7273              		.loc 4 124 23 view .LVU1911
 7274 0042 2846     		mov	r0, r5
 7275 0044 8DF80740 		strb	r4, [sp, #7]
 7276              	.LVL523:
 124:../../libDaisy//src/dev/oled_ssd130x.h ****         spi_.BlockingTransmit(&cmd, 1);
 7277              		.loc 4 124 23 view .LVU1912
ARM GAS  /var/folders/1y/_321xjh9623c014x9_qw12rr0000gn/T//ccXuncwa.s 			page 193


 7278              	.LBE1636:
 7279              	.LBI1634:
 122:../../libDaisy//src/dev/oled_ssd130x.h ****     {
 7280              		.loc 4 122 10 is_stmt 1 view .LVU1913
 7281              	.LBB1637:
 124:../../libDaisy//src/dev/oled_ssd130x.h ****         spi_.BlockingTransmit(&cmd, 1);
 7282              		.loc 4 124 9 view .LVU1914
 7283              	.LBE1637:
 7284              	.LBE1640:
 7285              		.loc 4 383 22 is_stmt 0 view .LVU1915
 7286 0048 0134     		adds	r4, r4, #1
 7287              	.LVL524:
 7288              	.LBB1641:
 7289              	.LBB1638:
 124:../../libDaisy//src/dev/oled_ssd130x.h ****         spi_.BlockingTransmit(&cmd, 1);
 7290              		.loc 4 124 23 view .LVU1916
 7291 004a 3946     		mov	r1, r7
 7292 004c FFF7FEFF 		bl	dsy_gpio_write
 7293              	.LVL525:
 125:../../libDaisy//src/dev/oled_ssd130x.h ****     };
 7294              		.loc 4 125 9 is_stmt 1 view .LVU1917
 125:../../libDaisy//src/dev/oled_ssd130x.h ****     };
 7295              		.loc 4 125 30 is_stmt 0 view .LVU1918
 7296 0050 6423     		movs	r3, #100
 7297 0052 0122     		movs	r2, #1
 7298 0054 0DF10701 		add	r1, sp, #7
 7299 0058 3046     		mov	r0, r6
 7300              	.LBE1638:
 7301              	.LBE1641:
 7302              		.loc 4 383 22 view .LVU1919
 7303 005a E4B2     		uxtb	r4, r4
 7304              	.LBB1642:
 7305              	.LBB1639:
 125:../../libDaisy//src/dev/oled_ssd130x.h ****     };
 7306              		.loc 4 125 30 view .LVU1920
 7307 005c FFF7FEFF 		bl	_ZN5daisy9SpiHandle16BlockingTransmitEPhjm
 7308              	.LVL526:
 125:../../libDaisy//src/dev/oled_ssd130x.h ****     };
 7309              		.loc 4 125 30 view .LVU1921
 7310              	.LBE1639:
 7311              	.LBE1642:
 7312              	.LBB1643:
 7313              	.LBB1644:
 124:../../libDaisy//src/dev/oled_ssd130x.h ****         spi_.BlockingTransmit(&cmd, 1);
 7314              		.loc 4 124 23 view .LVU1922
 7315 0060 3946     		mov	r1, r7
 7316 0062 2846     		mov	r0, r5
 7317 0064 8DF80770 		strb	r7, [sp, #7]
 7318              	.LVL527:
 124:../../libDaisy//src/dev/oled_ssd130x.h ****         spi_.BlockingTransmit(&cmd, 1);
 7319              		.loc 4 124 23 view .LVU1923
 7320              	.LBE1644:
 7321              	.LBI1643:
 122:../../libDaisy//src/dev/oled_ssd130x.h ****     {
 7322              		.loc 4 122 10 is_stmt 1 view .LVU1924
 7323              	.LBB1645:
 124:../../libDaisy//src/dev/oled_ssd130x.h ****         spi_.BlockingTransmit(&cmd, 1);
ARM GAS  /var/folders/1y/_321xjh9623c014x9_qw12rr0000gn/T//ccXuncwa.s 			page 194


 7324              		.loc 4 124 9 view .LVU1925
 124:../../libDaisy//src/dev/oled_ssd130x.h ****         spi_.BlockingTransmit(&cmd, 1);
 7325              		.loc 4 124 23 is_stmt 0 view .LVU1926
 7326 0068 FFF7FEFF 		bl	dsy_gpio_write
 7327              	.LVL528:
 125:../../libDaisy//src/dev/oled_ssd130x.h ****     };
 7328              		.loc 4 125 9 is_stmt 1 view .LVU1927
 125:../../libDaisy//src/dev/oled_ssd130x.h ****     };
 7329              		.loc 4 125 30 is_stmt 0 view .LVU1928
 7330 006c 0122     		movs	r2, #1
 7331 006e 6423     		movs	r3, #100
 7332 0070 0DF10701 		add	r1, sp, #7
 7333 0074 3046     		mov	r0, r6
 7334 0076 FFF7FEFF 		bl	_ZN5daisy9SpiHandle16BlockingTransmitEPhjm
 7335              	.LVL529:
 125:../../libDaisy//src/dev/oled_ssd130x.h ****     };
 7336              		.loc 4 125 30 view .LVU1929
 7337 007a 1023     		movs	r3, #16
 7338              	.LBE1645:
 7339              	.LBE1643:
 7340              	.LBB1646:
 7341              	.LBB1647:
 124:../../libDaisy//src/dev/oled_ssd130x.h ****         spi_.BlockingTransmit(&cmd, 1);
 7342              		.loc 4 124 23 view .LVU1930
 7343 007c 3946     		mov	r1, r7
 7344 007e 2846     		mov	r0, r5
 7345 0080 8DF80730 		strb	r3, [sp, #7]
 7346              	.LVL530:
 124:../../libDaisy//src/dev/oled_ssd130x.h ****         spi_.BlockingTransmit(&cmd, 1);
 7347              		.loc 4 124 23 view .LVU1931
 7348              	.LBE1647:
 7349              	.LBI1646:
 122:../../libDaisy//src/dev/oled_ssd130x.h ****     {
 7350              		.loc 4 122 10 is_stmt 1 view .LVU1932
 7351              	.LBB1648:
 124:../../libDaisy//src/dev/oled_ssd130x.h ****         spi_.BlockingTransmit(&cmd, 1);
 7352              		.loc 4 124 9 view .LVU1933
 124:../../libDaisy//src/dev/oled_ssd130x.h ****         spi_.BlockingTransmit(&cmd, 1);
 7353              		.loc 4 124 23 is_stmt 0 view .LVU1934
 7354 0084 FFF7FEFF 		bl	dsy_gpio_write
 7355              	.LVL531:
 125:../../libDaisy//src/dev/oled_ssd130x.h ****     };
 7356              		.loc 4 125 9 is_stmt 1 view .LVU1935
 125:../../libDaisy//src/dev/oled_ssd130x.h ****     };
 7357              		.loc 4 125 30 is_stmt 0 view .LVU1936
 7358 0088 6423     		movs	r3, #100
 7359 008a 0122     		movs	r2, #1
 7360 008c 0DF10701 		add	r1, sp, #7
 7361 0090 3046     		mov	r0, r6
 7362 0092 FFF7FEFF 		bl	_ZN5daisy9SpiHandle16BlockingTransmitEPhjm
 7363              	.LVL532:
 125:../../libDaisy//src/dev/oled_ssd130x.h ****     };
 7364              		.loc 4 125 30 view .LVU1937
 7365              	.LBE1648:
 7366              	.LBE1646:
 7367              	.LBB1649:
 7368              	.LBI1649:
ARM GAS  /var/folders/1y/_321xjh9623c014x9_qw12rr0000gn/T//ccXuncwa.s 			page 195


 128:../../libDaisy//src/dev/oled_ssd130x.h ****     {
 7369              		.loc 4 128 10 is_stmt 1 view .LVU1938
 7370              	.LBB1650:
 130:../../libDaisy//src/dev/oled_ssd130x.h ****         spi_.BlockingTransmit(buff, size);
 7371              		.loc 4 130 9 view .LVU1939
 130:../../libDaisy//src/dev/oled_ssd130x.h ****         spi_.BlockingTransmit(buff, size);
 7372              		.loc 4 130 23 is_stmt 0 view .LVU1940
 7373 0096 0121     		movs	r1, #1
 7374 0098 2846     		mov	r0, r5
 7375 009a FFF7FEFF 		bl	dsy_gpio_write
 7376              	.LVL533:
 131:../../libDaisy//src/dev/oled_ssd130x.h ****     };
 7377              		.loc 4 131 9 is_stmt 1 view .LVU1941
 131:../../libDaisy//src/dev/oled_ssd130x.h ****     };
 7378              		.loc 4 131 30 is_stmt 0 view .LVU1942
 7379 009e 8022     		movs	r2, #128
 7380 00a0 4146     		mov	r1, r8
 7381 00a2 6423     		movs	r3, #100
 7382 00a4 3046     		mov	r0, r6
 7383              	.LBE1650:
 7384              	.LBE1649:
 7385              		.loc 4 383 22 view .LVU1943
 7386 00a6 9044     		add	r8, r8, r2
 7387              	.LVL534:
 7388              	.LBB1652:
 7389              	.LBB1651:
 131:../../libDaisy//src/dev/oled_ssd130x.h ****     };
 7390              		.loc 4 131 30 view .LVU1944
 7391 00a8 FFF7FEFF 		bl	_ZN5daisy9SpiHandle16BlockingTransmitEPhjm
 7392              	.LVL535:
 131:../../libDaisy//src/dev/oled_ssd130x.h ****     };
 7393              		.loc 4 131 30 view .LVU1945
 7394              	.LBE1651:
 7395              	.LBE1652:
 7396              		.loc 4 383 9 is_stmt 1 view .LVU1946
 7397              		.loc 4 383 22 view .LVU1947
 7398 00ac B82C     		cmp	r4, #184
 7399 00ae C7D1     		bne	.L479
 7400              	.LBE1653:
 7401              	.LBE1654:
 7402              	.LBE1655:
 192:Dubby.cpp     **** }
 7403              		.loc 2 192 1 is_stmt 0 view .LVU1948
 7404 00b0 02B0     		add	sp, sp, #8
 7405              		.cfi_remember_state
 7406              		.cfi_def_cfa_offset 24
 7407              		@ sp needed
 7408 00b2 BDE8F081 		pop	{r4, r5, r6, r7, r8, pc}
 7409              	.LVL536:
 7410              	.L477:
 7411              		.cfi_restore_state
 187:Dubby.cpp     ****     else ReleaseMenu();
 7412              		.loc 2 187 10 is_stmt 1 view .LVU1949
 187:Dubby.cpp     ****     else ReleaseMenu();
 7413              		.loc 2 187 21 is_stmt 0 view .LVU1950
 7414 00b6 FFF7FEFF 		bl	_ZN5daisy5Dubby11ReleaseMenuEv
 7415              	.LVL537:
ARM GAS  /var/folders/1y/_321xjh9623c014x9_qw12rr0000gn/T//ccXuncwa.s 			page 196


 187:Dubby.cpp     ****     else ReleaseMenu();
 7416              		.loc 2 187 21 view .LVU1951
 7417 00ba B9E7     		b	.L478
 7418              	.LVL538:
 7419              	.L485:
 181:Dubby.cpp     ****     if ((menuItemSelected >= 0 && increment == 1 && menuItemSelected < 2) || (increment != 1 && men
 7420              		.loc 2 181 50 discriminator 1 view .LVU1952
 7421 00bc 012B     		cmp	r3, #1
 7422 00be AAD8     		bhi	.L476
 7423              	.L475:
 182:Dubby.cpp     ****         menuItemSelected = (MenuItems)(menuItemSelected + increment);
 7424              		.loc 2 182 9 is_stmt 1 view .LVU1953
 182:Dubby.cpp     ****         menuItemSelected = (MenuItems)(menuItemSelected + increment);
 7425              		.loc 2 182 57 is_stmt 0 view .LVU1954
 7426 00c0 0B44     		add	r3, r3, r1
 182:Dubby.cpp     ****         menuItemSelected = (MenuItems)(menuItemSelected + increment);
 7427              		.loc 2 182 26 view .LVU1955
 7428 00c2 87F85830 		strb	r3, [r7, #88]
 7429 00c6 A6E7     		b	.L476
 7430              		.cfi_endproc
 7431              	.LFE2581:
 7433              		.section	.text._ZN5daisy5Dubby21UpdatePreferencesMenuEi,"ax",%progbits
 7434              		.align	1
 7435              		.p2align 2,,3
 7436              		.global	_ZN5daisy5Dubby21UpdatePreferencesMenuEi
 7437              		.syntax unified
 7438              		.thumb
 7439              		.thumb_func
 7441              	_ZN5daisy5Dubby21UpdatePreferencesMenuEi:
 7442              	.LVL539:
 7443              	.LFB2589:
 305:Dubby.cpp     **** {
 7444              		.loc 2 305 1 is_stmt 1 view -0
 7445              		.cfi_startproc
 7446              		@ args = 0, pretend = 0, frame = 0
 7447              		@ frame_needed = 0, uses_anonymous_args = 0
 7448              		@ link register save eliminated.
 306:Dubby.cpp     ****     if (((preferencesMenuItemSelected >= 0 && increment == 1 && preferencesMenuItemSelected < PREFE
 7449              		.loc 2 306 5 view .LVU1957
 7450 0000 0129     		cmp	r1, #1
 306:Dubby.cpp     ****     if (((preferencesMenuItemSelected >= 0 && increment == 1 && preferencesMenuItemSelected < PREFE
 7451              		.loc 2 306 65 is_stmt 0 view .LVU1958
 7452 0002 90F85930 		ldrb	r3, [r0, #89]	@ zero_extendqisi2
 306:Dubby.cpp     ****     if (((preferencesMenuItemSelected >= 0 && increment == 1 && preferencesMenuItemSelected < PREFE
 7453              		.loc 2 306 5 view .LVU1959
 7454 0006 06D0     		beq	.L493
 306:Dubby.cpp     ****     if (((preferencesMenuItemSelected >= 0 && increment == 1 && preferencesMenuItemSelected < PREFE
 7455              		.loc 2 306 140 discriminator 4 view .LVU1960
 7456 0008 23B1     		cbz	r3, .L486
 7457              	.L488:
 7458              	.LVL540:
 7459              	.LBB1658:
 7460              	.LBI1658:
 304:Dubby.cpp     **** void Dubby::UpdatePreferencesMenu(int increment) 
 7461              		.loc 2 304 6 is_stmt 1 view .LVU1961
 7462              	.LBB1659:
 308:Dubby.cpp     ****         preferencesMenuItemSelected = (PreferenesMenuItems)(preferencesMenuItemSelected + increment
ARM GAS  /var/folders/1y/_321xjh9623c014x9_qw12rr0000gn/T//ccXuncwa.s 			page 197


 7463              		.loc 2 308 9 view .LVU1962
 308:Dubby.cpp     ****         preferencesMenuItemSelected = (PreferenesMenuItems)(preferencesMenuItemSelected + increment
 7464              		.loc 2 308 89 is_stmt 0 view .LVU1963
 7465 000a 1944     		add	r1, r1, r3
 7466              	.LVL541:
 308:Dubby.cpp     ****         preferencesMenuItemSelected = (PreferenesMenuItems)(preferencesMenuItemSelected + increment
 7467              		.loc 2 308 37 view .LVU1964
 7468 000c 80F85910 		strb	r1, [r0, #89]
 310:Dubby.cpp     ****         DisplayPreferencesMenu();
 7469              		.loc 2 310 9 is_stmt 1 view .LVU1965
 310:Dubby.cpp     ****         DisplayPreferencesMenu();
 7470              		.loc 2 310 31 is_stmt 0 view .LVU1966
 7471 0010 FFF7FEBF 		b	_ZN5daisy5Dubby22DisplayPreferencesMenuEv
 7472              	.LVL542:
 7473              	.L486:
 310:Dubby.cpp     ****         DisplayPreferencesMenu();
 7474              		.loc 2 310 31 view .LVU1967
 7475              	.LBE1659:
 7476              	.LBE1658:
 312:Dubby.cpp     **** }
 7477              		.loc 2 312 1 view .LVU1968
 7478 0014 7047     		bx	lr
 7479              	.L493:
 306:Dubby.cpp     ****     if (((preferencesMenuItemSelected >= 0 && increment == 1 && preferencesMenuItemSelected < PREFE
 7480              		.loc 2 306 62 discriminator 1 view .LVU1969
 7481 0016 022B     		cmp	r3, #2
 7482 0018 F7D9     		bls	.L488
 7483 001a 7047     		bx	lr
 7484              		.cfi_endproc
 7485              	.LFE2589:
 7487              		.section	.rodata._ZN5daisy5Dubby17ResetToBootloaderEv.str1.4,"aMS",%progbits,1
 7488              		.align	2
 7489              	.LC15:
 7490 0000 4649524D 		.ascii	"FIRMWARE UPDATE\000"
 7490      57415245 
 7490      20555044 
 7490      41544500 
 7491              		.section	.text._ZN5daisy5Dubby17ResetToBootloaderEv,"ax",%progbits
 7492              		.align	1
 7493              		.p2align 2,,3
 7494              		.global	_ZN5daisy5Dubby17ResetToBootloaderEv
 7495              		.syntax unified
 7496              		.thumb
 7497              		.thumb_func
 7499              	_ZN5daisy5Dubby17ResetToBootloaderEv:
 7500              	.LVL543:
 7501              	.LFB2590:
 315:Dubby.cpp     **** {
 7502              		.loc 2 315 1 is_stmt 1 view -0
 7503              		.cfi_startproc
 7504              		@ args = 0, pretend = 0, frame = 8
 7505              		@ frame_needed = 0, uses_anonymous_args = 0
 316:Dubby.cpp     ****     DrawBitmap(1);
 7506              		.loc 2 316 5 view .LVU1971
 315:Dubby.cpp     **** {
 7507              		.loc 2 315 1 is_stmt 0 view .LVU1972
 7508 0000 2DE9F041 		push	{r4, r5, r6, r7, r8, lr}
ARM GAS  /var/folders/1y/_321xjh9623c014x9_qw12rr0000gn/T//ccXuncwa.s 			page 198


 7509              		.cfi_def_cfa_offset 24
 7510              		.cfi_offset 4, -24
 7511              		.cfi_offset 5, -20
 7512              		.cfi_offset 6, -16
 7513              		.cfi_offset 7, -12
 7514              		.cfi_offset 8, -8
 7515              		.cfi_offset 14, -4
 316:Dubby.cpp     ****     DrawBitmap(1);
 7516              		.loc 2 316 15 view .LVU1973
 7517 0004 0121     		movs	r1, #1
 315:Dubby.cpp     **** {
 7518              		.loc 2 315 1 view .LVU1974
 7519 0006 84B0     		sub	sp, sp, #16
 7520              		.cfi_def_cfa_offset 40
 315:Dubby.cpp     **** {
 7521              		.loc 2 315 1 view .LVU1975
 7522 0008 0546     		mov	r5, r0
 7523              	.LBB1682:
 7524              	.LBB1683:
 173:../../libDaisy//src/hid/disp/display.h ****         currentY_ = (y >= Height()) ? Height() - 1 : y;
 7525              		.loc 3 173 19 view .LVU1976
 7526 000a 294C     		ldr	r4, .L498
 7527              	.LBE1683:
 7528              	.LBE1682:
 316:Dubby.cpp     ****     DrawBitmap(1);
 7529              		.loc 2 316 15 view .LVU1977
 7530 000c FFF7FEFF 		bl	_ZN5daisy5Dubby10DrawBitmapEi
 7531              	.LVL544:
 318:Dubby.cpp     ****     display.SetCursor(20, 55);
 7532              		.loc 2 318 5 is_stmt 1 view .LVU1978
 7533              	.LBB1686:
 7534              	.LBI1682:
 171:../../libDaisy//src/hid/disp/display.h ****     {
 7535              		.loc 3 171 10 view .LVU1979
 7536              	.LBB1684:
 173:../../libDaisy//src/hid/disp/display.h ****         currentY_ = (y >= Height()) ? Height() - 1 : y;
 7537              		.loc 3 173 9 view .LVU1980
 174:../../libDaisy//src/hid/disp/display.h ****     }
 7538              		.loc 3 174 9 view .LVU1981
 7539              	.LBE1684:
 7540              	.LBE1686:
 319:Dubby.cpp     ****     display.WriteString("FIRMWARE UPDATE", Font_6x8, true);
 7541              		.loc 2 319 24 is_stmt 0 view .LVU1982
 7542 0010 0120     		movs	r0, #1
 7543 0012 284B     		ldr	r3, .L498+4
 7544              	.LBB1687:
 7545              	.LBB1688:
 7546              	.LBB1689:
 7547              	.LBB1690:
 7548              	.LBB1691:
 124:../../libDaisy//src/dev/oled_ssd130x.h ****         spi_.BlockingTransmit(&cmd, 1);
 7549              		.loc 4 124 24 view .LVU1983
 7550 0014 05F58367 		add	r7, r5, #1048
 7551              	.LBE1691:
 7552              	.LBE1690:
 7553              	.LBE1689:
 7554              	.LBE1688:
ARM GAS  /var/folders/1y/_321xjh9623c014x9_qw12rr0000gn/T//ccXuncwa.s 			page 199


 7555              	.LBE1687:
 7556              	.LBB1715:
 7557              	.LBB1685:
 173:../../libDaisy//src/hid/disp/display.h ****         currentY_ = (y >= Height()) ? Height() - 1 : y;
 7558              		.loc 3 173 19 view .LVU1984
 7559 0018 C5F81444 		str	r4, [r5, #1044]
 7560              	.LVL545:
 173:../../libDaisy//src/hid/disp/display.h ****         currentY_ = (y >= Height()) ? Height() - 1 : y;
 7561              		.loc 3 173 19 view .LVU1985
 7562              	.LBE1685:
 7563              	.LBE1715:
 319:Dubby.cpp     ****     display.WriteString("FIRMWARE UPDATE", Font_6x8, true);
 7564              		.loc 2 319 5 is_stmt 1 view .LVU1986
 7565              	.LBB1716:
 7566              	.LBB1713:
 7567              	.LBB1711:
 7568              	.LBB1697:
 7569              	.LBB1692:
 124:../../libDaisy//src/dev/oled_ssd130x.h ****         spi_.BlockingTransmit(&cmd, 1);
 7570              		.loc 4 124 24 is_stmt 0 view .LVU1987
 7571 001c 05F58466 		add	r6, r5, #1056
 125:../../libDaisy//src/dev/oled_ssd130x.h ****     };
 7572              		.loc 4 125 30 view .LVU1988
 7573 0020 B024     		movs	r4, #176
 7574              	.LBE1692:
 7575              	.LBE1697:
 7576              	.LBE1711:
 7577              	.LBE1713:
 7578              	.LBE1716:
 319:Dubby.cpp     ****     display.WriteString("FIRMWARE UPDATE", Font_6x8, true);
 7579              		.loc 2 319 24 view .LVU1989
 7580 0022 2549     		ldr	r1, .L498+8
 7581 0024 0CCB     		ldm	r3, {r2, r3}
 7582 0026 0090     		str	r0, [sp]
 7583 0028 05F58260 		add	r0, r5, #1040
 7584 002c 05F22445 		addw	r5, r5, #1060
 7585              	.LVL546:
 319:Dubby.cpp     ****     display.WriteString("FIRMWARE UPDATE", Font_6x8, true);
 7586              		.loc 2 319 24 view .LVU1990
 7587 0030 FFF7FEFF 		bl	_ZN5daisy25OneBitGraphicsDisplayImplINS_11OledDisplayINS_13SSD130xDriverILj128ELj64ENS_24SSD130
 7588              	.LVL547:
 321:Dubby.cpp     ****     display.Update();
 7589              		.loc 2 321 5 is_stmt 1 view .LVU1991
 7590              	.LBB1717:
 7591              	.LBI1687:
 7592              		.loc 1 51 10 view .LVU1992
 7593              	.LBB1714:
 7594              	.LBI1688:
 373:../../libDaisy//src/dev/oled_ssd130x.h ****     {
 7595              		.loc 4 373 10 view .LVU1993
 7596              	.LBB1712:
 7597              		.loc 4 383 22 view .LVU1994
 7598              	.L495:
 7599              		.loc 4 383 22 is_stmt 0 view .LVU1995
 7600 0034 4FF00008 		mov	r8, #0
 7601              	.LBB1698:
 7602              	.LBB1693:
ARM GAS  /var/folders/1y/_321xjh9623c014x9_qw12rr0000gn/T//ccXuncwa.s 			page 200


 124:../../libDaisy//src/dev/oled_ssd130x.h ****         spi_.BlockingTransmit(&cmd, 1);
 7603              		.loc 4 124 23 view .LVU1996
 7604 0038 3046     		mov	r0, r6
 7605 003a 8DF80F40 		strb	r4, [sp, #15]
 7606              	.LVL548:
 124:../../libDaisy//src/dev/oled_ssd130x.h ****         spi_.BlockingTransmit(&cmd, 1);
 7607              		.loc 4 124 23 view .LVU1997
 7608              	.LBE1693:
 7609              	.LBI1690:
 122:../../libDaisy//src/dev/oled_ssd130x.h ****     {
 7610              		.loc 4 122 10 is_stmt 1 view .LVU1998
 7611              	.LBB1694:
 124:../../libDaisy//src/dev/oled_ssd130x.h ****         spi_.BlockingTransmit(&cmd, 1);
 7612              		.loc 4 124 9 view .LVU1999
 7613              	.LBE1694:
 7614              	.LBE1698:
 7615              		.loc 4 383 22 is_stmt 0 view .LVU2000
 7616 003e 0134     		adds	r4, r4, #1
 7617              	.LVL549:
 7618              	.LBB1699:
 7619              	.LBB1695:
 124:../../libDaisy//src/dev/oled_ssd130x.h ****         spi_.BlockingTransmit(&cmd, 1);
 7620              		.loc 4 124 23 view .LVU2001
 7621 0040 4146     		mov	r1, r8
 7622 0042 FFF7FEFF 		bl	dsy_gpio_write
 7623              	.LVL550:
 125:../../libDaisy//src/dev/oled_ssd130x.h ****     };
 7624              		.loc 4 125 9 is_stmt 1 view .LVU2002
 125:../../libDaisy//src/dev/oled_ssd130x.h ****     };
 7625              		.loc 4 125 30 is_stmt 0 view .LVU2003
 7626 0046 6423     		movs	r3, #100
 7627 0048 0122     		movs	r2, #1
 7628 004a 0DF10F01 		add	r1, sp, #15
 7629 004e 3846     		mov	r0, r7
 7630              	.LBE1695:
 7631              	.LBE1699:
 7632              		.loc 4 383 22 view .LVU2004
 7633 0050 E4B2     		uxtb	r4, r4
 7634              	.LBB1700:
 7635              	.LBB1696:
 125:../../libDaisy//src/dev/oled_ssd130x.h ****     };
 7636              		.loc 4 125 30 view .LVU2005
 7637 0052 FFF7FEFF 		bl	_ZN5daisy9SpiHandle16BlockingTransmitEPhjm
 7638              	.LVL551:
 125:../../libDaisy//src/dev/oled_ssd130x.h ****     };
 7639              		.loc 4 125 30 view .LVU2006
 7640              	.LBE1696:
 7641              	.LBE1700:
 7642              	.LBB1701:
 7643              	.LBB1702:
 124:../../libDaisy//src/dev/oled_ssd130x.h ****         spi_.BlockingTransmit(&cmd, 1);
 7644              		.loc 4 124 23 view .LVU2007
 7645 0056 4146     		mov	r1, r8
 7646 0058 3046     		mov	r0, r6
 7647 005a 8DF80F80 		strb	r8, [sp, #15]
 7648              	.LVL552:
 124:../../libDaisy//src/dev/oled_ssd130x.h ****         spi_.BlockingTransmit(&cmd, 1);
ARM GAS  /var/folders/1y/_321xjh9623c014x9_qw12rr0000gn/T//ccXuncwa.s 			page 201


 7649              		.loc 4 124 23 view .LVU2008
 7650              	.LBE1702:
 7651              	.LBI1701:
 122:../../libDaisy//src/dev/oled_ssd130x.h ****     {
 7652              		.loc 4 122 10 is_stmt 1 view .LVU2009
 7653              	.LBB1703:
 124:../../libDaisy//src/dev/oled_ssd130x.h ****         spi_.BlockingTransmit(&cmd, 1);
 7654              		.loc 4 124 9 view .LVU2010
 124:../../libDaisy//src/dev/oled_ssd130x.h ****         spi_.BlockingTransmit(&cmd, 1);
 7655              		.loc 4 124 23 is_stmt 0 view .LVU2011
 7656 005e FFF7FEFF 		bl	dsy_gpio_write
 7657              	.LVL553:
 125:../../libDaisy//src/dev/oled_ssd130x.h ****     };
 7658              		.loc 4 125 9 is_stmt 1 view .LVU2012
 125:../../libDaisy//src/dev/oled_ssd130x.h ****     };
 7659              		.loc 4 125 30 is_stmt 0 view .LVU2013
 7660 0062 0122     		movs	r2, #1
 7661 0064 6423     		movs	r3, #100
 7662 0066 0DF10F01 		add	r1, sp, #15
 7663 006a 3846     		mov	r0, r7
 7664 006c FFF7FEFF 		bl	_ZN5daisy9SpiHandle16BlockingTransmitEPhjm
 7665              	.LVL554:
 125:../../libDaisy//src/dev/oled_ssd130x.h ****     };
 7666              		.loc 4 125 30 view .LVU2014
 7667 0070 1023     		movs	r3, #16
 7668              	.LBE1703:
 7669              	.LBE1701:
 7670              	.LBB1704:
 7671              	.LBB1705:
 124:../../libDaisy//src/dev/oled_ssd130x.h ****         spi_.BlockingTransmit(&cmd, 1);
 7672              		.loc 4 124 23 view .LVU2015
 7673 0072 4146     		mov	r1, r8
 7674 0074 3046     		mov	r0, r6
 7675 0076 8DF80F30 		strb	r3, [sp, #15]
 7676              	.LVL555:
 124:../../libDaisy//src/dev/oled_ssd130x.h ****         spi_.BlockingTransmit(&cmd, 1);
 7677              		.loc 4 124 23 view .LVU2016
 7678              	.LBE1705:
 7679              	.LBI1704:
 122:../../libDaisy//src/dev/oled_ssd130x.h ****     {
 7680              		.loc 4 122 10 is_stmt 1 view .LVU2017
 7681              	.LBB1706:
 124:../../libDaisy//src/dev/oled_ssd130x.h ****         spi_.BlockingTransmit(&cmd, 1);
 7682              		.loc 4 124 9 view .LVU2018
 124:../../libDaisy//src/dev/oled_ssd130x.h ****         spi_.BlockingTransmit(&cmd, 1);
 7683              		.loc 4 124 23 is_stmt 0 view .LVU2019
 7684 007a FFF7FEFF 		bl	dsy_gpio_write
 7685              	.LVL556:
 125:../../libDaisy//src/dev/oled_ssd130x.h ****     };
 7686              		.loc 4 125 9 is_stmt 1 view .LVU2020
 125:../../libDaisy//src/dev/oled_ssd130x.h ****     };
 7687              		.loc 4 125 30 is_stmt 0 view .LVU2021
 7688 007e 6423     		movs	r3, #100
 7689 0080 0122     		movs	r2, #1
 7690 0082 0DF10F01 		add	r1, sp, #15
 7691 0086 3846     		mov	r0, r7
 7692 0088 FFF7FEFF 		bl	_ZN5daisy9SpiHandle16BlockingTransmitEPhjm
ARM GAS  /var/folders/1y/_321xjh9623c014x9_qw12rr0000gn/T//ccXuncwa.s 			page 202


 7693              	.LVL557:
 125:../../libDaisy//src/dev/oled_ssd130x.h ****     };
 7694              		.loc 4 125 30 view .LVU2022
 7695              	.LBE1706:
 7696              	.LBE1704:
 7697              	.LBB1707:
 7698              	.LBI1707:
 128:../../libDaisy//src/dev/oled_ssd130x.h ****     {
 7699              		.loc 4 128 10 is_stmt 1 view .LVU2023
 7700              	.LBB1708:
 130:../../libDaisy//src/dev/oled_ssd130x.h ****         spi_.BlockingTransmit(buff, size);
 7701              		.loc 4 130 9 view .LVU2024
 130:../../libDaisy//src/dev/oled_ssd130x.h ****         spi_.BlockingTransmit(buff, size);
 7702              		.loc 4 130 23 is_stmt 0 view .LVU2025
 7703 008c 0121     		movs	r1, #1
 7704 008e 3046     		mov	r0, r6
 7705 0090 FFF7FEFF 		bl	dsy_gpio_write
 7706              	.LVL558:
 131:../../libDaisy//src/dev/oled_ssd130x.h ****     };
 7707              		.loc 4 131 9 is_stmt 1 view .LVU2026
 131:../../libDaisy//src/dev/oled_ssd130x.h ****     };
 7708              		.loc 4 131 30 is_stmt 0 view .LVU2027
 7709 0094 8022     		movs	r2, #128
 7710 0096 2946     		mov	r1, r5
 7711 0098 6423     		movs	r3, #100
 7712 009a 3846     		mov	r0, r7
 7713              	.LBE1708:
 7714              	.LBE1707:
 7715              		.loc 4 383 22 view .LVU2028
 7716 009c 1544     		add	r5, r5, r2
 7717              	.LVL559:
 7718              	.LBB1710:
 7719              	.LBB1709:
 131:../../libDaisy//src/dev/oled_ssd130x.h ****     };
 7720              		.loc 4 131 30 view .LVU2029
 7721 009e FFF7FEFF 		bl	_ZN5daisy9SpiHandle16BlockingTransmitEPhjm
 7722              	.LVL560:
 131:../../libDaisy//src/dev/oled_ssd130x.h ****     };
 7723              		.loc 4 131 30 view .LVU2030
 7724              	.LBE1709:
 7725              	.LBE1710:
 7726              		.loc 4 383 9 is_stmt 1 view .LVU2031
 7727              		.loc 4 383 22 view .LVU2032
 7728 00a2 B82C     		cmp	r4, #184
 7729 00a4 C6D1     		bne	.L495
 7730              	.LVL561:
 7731              		.loc 4 383 22 is_stmt 0 view .LVU2033
 7732              	.LBE1712:
 7733              	.LBE1714:
 7734              	.LBE1717:
 323:Dubby.cpp     ****     System::ResetToBootloader();
 7735              		.loc 2 323 5 is_stmt 1 view .LVU2034
 324:Dubby.cpp     **** }
 7736              		.loc 2 324 1 is_stmt 0 view .LVU2035
 7737 00a6 04B0     		add	sp, sp, #16
 7738              		.cfi_def_cfa_offset 24
 7739              		@ sp needed
ARM GAS  /var/folders/1y/_321xjh9623c014x9_qw12rr0000gn/T//ccXuncwa.s 			page 203


 7740 00a8 BDE8F041 		pop	{r4, r5, r6, r7, r8, lr}
 7741              		.cfi_restore 14
 7742              		.cfi_restore 8
 7743              		.cfi_restore 7
 7744              		.cfi_restore 6
 7745              		.cfi_restore 5
 7746              		.cfi_restore 4
 7747              		.cfi_def_cfa_offset 0
 7748              	.LVL562:
 323:Dubby.cpp     ****     System::ResetToBootloader();
 7749              		.loc 2 323 30 view .LVU2036
 7750 00ac FFF7FEBF 		b	_ZN5daisy6System17ResetToBootloaderEv
 7751              	.LVL563:
 7752              	.L499:
 7753              		.align	2
 7754              	.L498:
 7755 00b0 14003700 		.word	3604500
 7756 00b4 00000000 		.word	Font_6x8
 7757 00b8 00000000 		.word	.LC15
 7758              		.cfi_endproc
 7759              	.LFE2590:
 7761              		.section	.text._ZN5daisy5Dubby13UpdateDisplayEv,"ax",%progbits
 7762              		.align	1
 7763              		.p2align 2,,3
 7764              		.global	_ZN5daisy5Dubby13UpdateDisplayEv
 7765              		.syntax unified
 7766              		.thumb
 7767              		.thumb_func
 7769              	_ZN5daisy5Dubby13UpdateDisplayEv:
 7770              	.LVL564:
 7771              	.LFB2578:
 108:Dubby.cpp     **** {
 7772              		.loc 2 108 1 is_stmt 1 view -0
 7773              		.cfi_startproc
 7774              		@ args = 0, pretend = 0, frame = 0
 7775              		@ frame_needed = 0, uses_anonymous_args = 0
 109:Dubby.cpp     ****     if (encoder.TimeHeldMs() > 300) 
 7776              		.loc 2 109 5 view .LVU2038
 108:Dubby.cpp     **** {
 7777              		.loc 2 108 1 is_stmt 0 view .LVU2039
 7778 0000 38B5     		push	{r3, r4, r5, lr}
 7779              		.cfi_def_cfa_offset 16
 7780              		.cfi_offset 3, -16
 7781              		.cfi_offset 4, -12
 7782              		.cfi_offset 5, -8
 7783              		.cfi_offset 14, -4
 7784              	.LBB1759:
 7785              	.LBB1760:
 7786              	.LBB1761:
 7787              		.file 12 "../../libDaisy//src/hid/switch.h"
   1:../../libDaisy//src/hid/switch.h **** #pragma once
   2:../../libDaisy//src/hid/switch.h **** #ifndef DSY_SWITCH_H
   3:../../libDaisy//src/hid/switch.h **** #define DSY_SWITCH_H
   4:../../libDaisy//src/hid/switch.h **** #include "daisy_core.h"
   5:../../libDaisy//src/hid/switch.h **** #include "per/gpio.h"
   6:../../libDaisy//src/hid/switch.h **** #include "sys/system.h"
   7:../../libDaisy//src/hid/switch.h **** 
ARM GAS  /var/folders/1y/_321xjh9623c014x9_qw12rr0000gn/T//ccXuncwa.s 			page 204


   8:../../libDaisy//src/hid/switch.h **** namespace daisy
   9:../../libDaisy//src/hid/switch.h **** {
  10:../../libDaisy//src/hid/switch.h **** /** 
  11:../../libDaisy//src/hid/switch.h ****     Generic Class for handling momentary/latching switches \n 
  12:../../libDaisy//src/hid/switch.h ****     Inspired/influenced by Mutable Instruments (pichenettes) Switch classes
  13:../../libDaisy//src/hid/switch.h ****     @author Stephen Hensley
  14:../../libDaisy//src/hid/switch.h ****     @date December 2019
  15:../../libDaisy//src/hid/switch.h ****     @ingroup controls
  16:../../libDaisy//src/hid/switch.h **** */
  17:../../libDaisy//src/hid/switch.h **** class Switch
  18:../../libDaisy//src/hid/switch.h **** {
  19:../../libDaisy//src/hid/switch.h ****   public:
  20:../../libDaisy//src/hid/switch.h ****     /** Specifies the expected behavior of the switch */
  21:../../libDaisy//src/hid/switch.h ****     enum Type
  22:../../libDaisy//src/hid/switch.h ****     {
  23:../../libDaisy//src/hid/switch.h ****         TYPE_TOGGLE,    /**< & */
  24:../../libDaisy//src/hid/switch.h ****         TYPE_MOMENTARY, /**< & */
  25:../../libDaisy//src/hid/switch.h ****     };
  26:../../libDaisy//src/hid/switch.h ****     /** Specifies whether the pressed is HIGH or LOW. */
  27:../../libDaisy//src/hid/switch.h ****     enum Polarity
  28:../../libDaisy//src/hid/switch.h ****     {
  29:../../libDaisy//src/hid/switch.h ****         POLARITY_NORMAL,   /**< & */
  30:../../libDaisy//src/hid/switch.h ****         POLARITY_INVERTED, /**< & */
  31:../../libDaisy//src/hid/switch.h ****     };
  32:../../libDaisy//src/hid/switch.h **** 
  33:../../libDaisy//src/hid/switch.h ****     /** Specifies whether to use built-in Pull Up/Down resistors to hold button at a given state wh
  34:../../libDaisy//src/hid/switch.h ****     enum Pull
  35:../../libDaisy//src/hid/switch.h ****     {
  36:../../libDaisy//src/hid/switch.h ****         PULL_UP,   /**< & */
  37:../../libDaisy//src/hid/switch.h ****         PULL_DOWN, /**< & */
  38:../../libDaisy//src/hid/switch.h ****         PULL_NONE, /**< & */
  39:../../libDaisy//src/hid/switch.h ****     };
  40:../../libDaisy//src/hid/switch.h **** 
  41:../../libDaisy//src/hid/switch.h ****     Switch() {}
  42:../../libDaisy//src/hid/switch.h ****     ~Switch() {}
  43:../../libDaisy//src/hid/switch.h **** 
  44:../../libDaisy//src/hid/switch.h ****     /** 
  45:../../libDaisy//src/hid/switch.h ****     Initializes the switch object with a given port/pin combo.
  46:../../libDaisy//src/hid/switch.h ****     \param pin port/pin object to tell the switch which hardware pin to use.
  47:../../libDaisy//src/hid/switch.h ****     \param update_rate Does nothing. Backwards compatibility until next breaking update.
  48:../../libDaisy//src/hid/switch.h ****     \param t switch type -- Default: TYPE_MOMENTARY
  49:../../libDaisy//src/hid/switch.h ****     \param pol switch polarity -- Default: POLARITY_INVERTED
  50:../../libDaisy//src/hid/switch.h ****     \param pu switch pull up/down -- Default: PULL_UP
  51:../../libDaisy//src/hid/switch.h ****     */
  52:../../libDaisy//src/hid/switch.h ****     void
  53:../../libDaisy//src/hid/switch.h ****     Init(dsy_gpio_pin pin, float update_rate, Type t, Polarity pol, Pull pu);
  54:../../libDaisy//src/hid/switch.h **** 
  55:../../libDaisy//src/hid/switch.h ****     /**
  56:../../libDaisy//src/hid/switch.h ****        Simplified Init.
  57:../../libDaisy//src/hid/switch.h ****        \param pin port/pin object to tell the switch which hardware pin to use.
  58:../../libDaisy//src/hid/switch.h ****        \param update_rate Left for backwards compatibility until next breaking change.
  59:../../libDaisy//src/hid/switch.h ****     */
  60:../../libDaisy//src/hid/switch.h ****     void Init(dsy_gpio_pin pin, float update_rate = 0.f);
  61:../../libDaisy//src/hid/switch.h **** 
  62:../../libDaisy//src/hid/switch.h ****     /** 
  63:../../libDaisy//src/hid/switch.h ****     Called at update_rate to debounce and handle timing for the switch.
  64:../../libDaisy//src/hid/switch.h ****     In order for events not to be missed, its important that the Edge/Pressed checks
ARM GAS  /var/folders/1y/_321xjh9623c014x9_qw12rr0000gn/T//ccXuncwa.s 			page 205


  65:../../libDaisy//src/hid/switch.h ****     be made at the same rate as the debounce function is being called.
  66:../../libDaisy//src/hid/switch.h ****     */
  67:../../libDaisy//src/hid/switch.h ****     void Debounce();
  68:../../libDaisy//src/hid/switch.h **** 
  69:../../libDaisy//src/hid/switch.h ****     /** \return true if a button was just pressed. */
  70:../../libDaisy//src/hid/switch.h ****     inline bool RisingEdge() const { return updated_ ? state_ == 0x7f : false; }
  71:../../libDaisy//src/hid/switch.h **** 
  72:../../libDaisy//src/hid/switch.h ****     /** \return true if the button was just released */
  73:../../libDaisy//src/hid/switch.h ****     inline bool FallingEdge() const
  74:../../libDaisy//src/hid/switch.h ****     {
  75:../../libDaisy//src/hid/switch.h ****         return updated_ ? state_ == 0x80 : false;
  76:../../libDaisy//src/hid/switch.h ****     }
  77:../../libDaisy//src/hid/switch.h **** 
  78:../../libDaisy//src/hid/switch.h ****     /** \return true if the button is held down (or if the toggle is on) */
  79:../../libDaisy//src/hid/switch.h ****     inline bool Pressed() const { return state_ == 0xff; }
  80:../../libDaisy//src/hid/switch.h **** 
  81:../../libDaisy//src/hid/switch.h ****     /** \return true if the button is held down, without debouncing */
  82:../../libDaisy//src/hid/switch.h ****     inline bool RawState()
  83:../../libDaisy//src/hid/switch.h ****     {
  84:../../libDaisy//src/hid/switch.h ****         return flip_ ? !dsy_gpio_read(&hw_gpio_) : dsy_gpio_read(&hw_gpio_);
  85:../../libDaisy//src/hid/switch.h ****     }
  86:../../libDaisy//src/hid/switch.h **** 
  87:../../libDaisy//src/hid/switch.h ****     /** \return the time in milliseconds that the button has been held (or toggle has been on) */
  88:../../libDaisy//src/hid/switch.h ****     inline float TimeHeldMs() const
  89:../../libDaisy//src/hid/switch.h ****     {
  90:../../libDaisy//src/hid/switch.h ****         return Pressed() ? System::GetNow() - rising_edge_time_ : 0;
 7788              		.loc 12 90 26 view .LVU2040
 7789 0002 90F80631 		ldrb	r3, [r0, #262]	@ zero_extendqisi2
 7790              	.LBE1761:
 7791              	.LBE1760:
 7792              	.LBE1759:
 108:Dubby.cpp     **** {
 7793              		.loc 2 108 1 view .LVU2041
 7794 0006 0446     		mov	r4, r0
 7795              	.LVL565:
 7796              	.LBB1774:
 7797              	.LBI1759:
 7798              		.file 13 "../../libDaisy//src/hid/encoder.h"
   1:../../libDaisy//src/hid/encoder.h **** #pragma once
   2:../../libDaisy//src/hid/encoder.h **** #ifndef DSY_ENCODER_H
   3:../../libDaisy//src/hid/encoder.h **** #define DSY_ENCODER_H
   4:../../libDaisy//src/hid/encoder.h **** #include "daisy_core.h"
   5:../../libDaisy//src/hid/encoder.h **** #include "per/gpio.h"
   6:../../libDaisy//src/hid/encoder.h **** #include "hid/switch.h"
   7:../../libDaisy//src/hid/encoder.h **** 
   8:../../libDaisy//src/hid/encoder.h **** namespace daisy
   9:../../libDaisy//src/hid/encoder.h **** {
  10:../../libDaisy//src/hid/encoder.h **** /** 
  11:../../libDaisy//src/hid/encoder.h ****     @brief Generic Class for handling Quadrature Encoders \n 
  12:../../libDaisy//src/hid/encoder.h ****     Inspired/influenced by Mutable Instruments (pichenettes) Encoder classes
  13:../../libDaisy//src/hid/encoder.h ****     @author Stephen Hensley
  14:../../libDaisy//src/hid/encoder.h ****     @date December 2019
  15:../../libDaisy//src/hid/encoder.h ****     @ingroup controls
  16:../../libDaisy//src/hid/encoder.h **** */
  17:../../libDaisy//src/hid/encoder.h **** class Encoder
  18:../../libDaisy//src/hid/encoder.h **** {
  19:../../libDaisy//src/hid/encoder.h ****   public:
ARM GAS  /var/folders/1y/_321xjh9623c014x9_qw12rr0000gn/T//ccXuncwa.s 			page 206


  20:../../libDaisy//src/hid/encoder.h ****     Encoder() {}
  21:../../libDaisy//src/hid/encoder.h ****     ~Encoder() {}
  22:../../libDaisy//src/hid/encoder.h **** 
  23:../../libDaisy//src/hid/encoder.h ****     /** Initializes the encoder with the specified hardware pins.
  24:../../libDaisy//src/hid/encoder.h ****      * Update rate is to be deprecated in a future release
  25:../../libDaisy//src/hid/encoder.h ****      */
  26:../../libDaisy//src/hid/encoder.h ****     void Init(dsy_gpio_pin a,
  27:../../libDaisy//src/hid/encoder.h ****               dsy_gpio_pin b,
  28:../../libDaisy//src/hid/encoder.h ****               dsy_gpio_pin click,
  29:../../libDaisy//src/hid/encoder.h ****               float        update_rate = 0.f);
  30:../../libDaisy//src/hid/encoder.h ****     /** Called at update_rate to debounce and handle timing for the switch.
  31:../../libDaisy//src/hid/encoder.h ****      * In order for events not to be missed, its important that the Edge/Pressed checks be made at 
  32:../../libDaisy//src/hid/encoder.h ****      */
  33:../../libDaisy//src/hid/encoder.h ****     void Debounce();
  34:../../libDaisy//src/hid/encoder.h **** 
  35:../../libDaisy//src/hid/encoder.h ****     /** Returns +1 if the encoder was turned clockwise, -1 if it was turned counter-clockwise, or 0
  36:../../libDaisy//src/hid/encoder.h ****     inline int32_t Increment() const { return updated_ ? inc_ : 0; }
  37:../../libDaisy//src/hid/encoder.h **** 
  38:../../libDaisy//src/hid/encoder.h ****     /** Returns true if the encoder was just pressed. */
  39:../../libDaisy//src/hid/encoder.h ****     inline bool RisingEdge() const { return sw_.RisingEdge(); }
  40:../../libDaisy//src/hid/encoder.h **** 
  41:../../libDaisy//src/hid/encoder.h ****     /** Returns true if the encoder was just released. */
  42:../../libDaisy//src/hid/encoder.h ****     inline bool FallingEdge() const { return sw_.FallingEdge(); }
  43:../../libDaisy//src/hid/encoder.h **** 
  44:../../libDaisy//src/hid/encoder.h ****     /** Returns true while the encoder is held down.*/
  45:../../libDaisy//src/hid/encoder.h ****     inline bool Pressed() const { return sw_.Pressed(); }
  46:../../libDaisy//src/hid/encoder.h **** 
  47:../../libDaisy//src/hid/encoder.h ****     /** Returns the time in milliseconds that the encoder has been held down. */
  48:../../libDaisy//src/hid/encoder.h ****     inline float TimeHeldMs() const { return sw_.TimeHeldMs(); }
 7799              		.loc 13 48 18 is_stmt 1 view .LVU2042
 7800              	.LBE1774:
 7801              		.loc 13 48 39 view .LVU2043
 7802              	.LBB1775:
 7803              	.LBB1771:
 7804              	.LBI1760:
  88:../../libDaisy//src/hid/switch.h ****     {
 7805              		.loc 12 88 18 view .LVU2044
 7806              	.LBB1768:
 7807              		.loc 12 90 9 view .LVU2045
 7808              	.LBB1762:
 7809              	.LBI1762:
  79:../../libDaisy//src/hid/switch.h **** 
 7810              		.loc 12 79 17 view .LVU2046
 7811              	.LBB1763:
  79:../../libDaisy//src/hid/switch.h **** 
 7812              		.loc 12 79 35 view .LVU2047
  79:../../libDaisy//src/hid/switch.h **** 
 7813              		.loc 12 79 35 is_stmt 0 view .LVU2048
 7814              	.LBE1763:
 7815              	.LBE1762:
 7816              		.loc 12 90 26 view .LVU2049
 7817 0008 FF2B     		cmp	r3, #255
 7818 000a 0CD0     		beq	.L571
 7819              	.LVL566:
 7820              		.loc 12 90 26 view .LVU2050
 7821              	.LBE1768:
 7822              	.LBE1771:
ARM GAS  /var/folders/1y/_321xjh9623c014x9_qw12rr0000gn/T//ccXuncwa.s 			page 207


 7823              	.LBE1775:
 120:Dubby.cpp     ****     switch(menuItemSelected) 
 7824              		.loc 2 120 5 is_stmt 1 view .LVU2051
 120:Dubby.cpp     ****     switch(menuItemSelected) 
 7825              		.loc 2 120 12 is_stmt 0 view .LVU2052
 7826 000c 90F85830 		ldrb	r3, [r0, #88]	@ zero_extendqisi2
 120:Dubby.cpp     ****     switch(menuItemSelected) 
 7827              		.loc 2 120 5 view .LVU2053
 7828 0010 012B     		cmp	r3, #1
 7829 0012 59D0     		beq	.L506
 7830 0014 022B     		cmp	r3, #2
 7831 0016 00F09580 		beq	.L512
 7832 001a 002B     		cmp	r3, #0
 7833 001c 47D0     		beq	.L525
 7834              	.LVL567:
 7835              	.L519:
 136:Dubby.cpp     ****     if (encoder.TimeHeldMs() < 300 && menuActive)
 7836              		.loc 2 136 36 discriminator 1 view .LVU2054
 7837 001e 94F82838 		ldrb	r3, [r4, #2088]	@ zero_extendqisi2
 7838 0022 CBBB     		cbnz	r3, .L523
 143:Dubby.cpp     **** }
 7839              		.loc 2 143 1 view .LVU2055
 7840 0024 38BD     		pop	{r3, r4, r5, pc}
 7841              	.LVL568:
 7842              	.L571:
 7843              	.LBB1776:
 7844              	.LBB1772:
 7845              	.LBB1769:
 7846              	.LBB1764:
 7847              	.LBI1764:
  88:../../libDaisy//src/hid/switch.h ****     {
 7848              		.loc 12 88 18 is_stmt 1 view .LVU2056
 7849              	.LBB1765:
 7850              		.loc 12 90 42 is_stmt 0 view .LVU2057
 7851 0026 FFF7FEFF 		bl	_ZN5daisy6System6GetNowEv
 7852              	.LVL569:
 7853              		.loc 12 90 45 view .LVU2058
 7854 002a 07EE900A 		vmov	s15, r0	@ int
 7855              		.loc 12 90 26 view .LVU2059
 7856 002e D4ED426A 		vldr.32	s13, [r4, #264]
 7857              		.loc 12 90 45 view .LVU2060
 7858 0032 F8EE677A 		vcvt.f32.u32	s15, s15
 7859              	.LBE1765:
 7860              	.LBE1764:
 7861              	.LBE1769:
 7862              	.LBE1772:
 7863              	.LBE1776:
 109:Dubby.cpp     ****     if (encoder.TimeHeldMs() > 300) 
 7864              		.loc 2 109 5 view .LVU2061
 7865 0036 9FED547A 		vldr.32	s14, .L578
 7866              	.LBB1777:
 7867              	.LBB1773:
 7868              	.LBB1770:
 7869              	.LBB1767:
 7870              	.LBB1766:
 7871              		.loc 12 90 26 view .LVU2062
 7872 003a 77EEE67A 		vsub.f32	s15, s15, s13
ARM GAS  /var/folders/1y/_321xjh9623c014x9_qw12rr0000gn/T//ccXuncwa.s 			page 208


 7873              	.LBE1766:
 7874              	.LBE1767:
 7875              	.LBE1770:
 7876              	.LBE1773:
 7877              	.LBE1777:
 109:Dubby.cpp     ****     if (encoder.TimeHeldMs() > 300) 
 7878              		.loc 2 109 5 view .LVU2063
 7879 003e F4EEC77A 		vcmpe.f32	s15, s14
 7880 0042 F1EE10FA 		vmrs	APSR_nzcv, FPSCR
 7881 0046 0ADD     		ble	.L503
 111:Dubby.cpp     ****         if (!menuActive) 
 7882              		.loc 2 111 9 is_stmt 1 view .LVU2064
 7883 0048 94F82838 		ldrb	r3, [r4, #2088]	@ zero_extendqisi2
 7884 004c 002B     		cmp	r3, #0
 7885 004e 51D0     		beq	.L572
 117:Dubby.cpp     ****         if (encoder.Increment()) UpdateMenu(encoder.Increment(), true);
 7886              		.loc 2 117 9 view .LVU2065
 7887              	.LVL570:
 7888              	.LBB1778:
 7889              	.LBI1778:
  36:../../libDaisy//src/hid/encoder.h **** 
 7890              		.loc 13 36 20 view .LVU2066
 7891              	.LBB1779:
  36:../../libDaisy//src/hid/encoder.h **** 
 7892              		.loc 13 36 40 view .LVU2067
  36:../../libDaisy//src/hid/encoder.h **** 
 7893              		.loc 13 36 56 is_stmt 0 view .LVU2068
 7894 0050 94F8F830 		ldrb	r3, [r4, #248]	@ zero_extendqisi2
 7895 0054 1BB1     		cbz	r3, .L503
 7896              	.LVL571:
 7897              	.L574:
  36:../../libDaisy//src/hid/encoder.h **** 
 7898              		.loc 13 36 56 view .LVU2069
 7899 0056 D4F81811 		ldr	r1, [r4, #280]
  36:../../libDaisy//src/hid/encoder.h **** 
 7900              		.loc 13 36 56 view .LVU2070
 7901              	.LBE1779:
 7902              	.LBE1778:
 117:Dubby.cpp     ****         if (encoder.Increment()) UpdateMenu(encoder.Increment(), true);
 7903              		.loc 2 117 9 view .LVU2071
 7904 005a 0029     		cmp	r1, #0
 7905 005c 55D1     		bne	.L573
 7906              	.L503:
 120:Dubby.cpp     ****     switch(menuItemSelected) 
 7907              		.loc 2 120 5 is_stmt 1 view .LVU2072
 120:Dubby.cpp     ****     switch(menuItemSelected) 
 7908              		.loc 2 120 12 is_stmt 0 view .LVU2073
 7909 005e 94F85830 		ldrb	r3, [r4, #88]	@ zero_extendqisi2
 120:Dubby.cpp     ****     switch(menuItemSelected) 
 7910              		.loc 2 120 5 view .LVU2074
 7911 0062 012B     		cmp	r3, #1
 7912 0064 30D0     		beq	.L506
 7913 0066 022B     		cmp	r3, #2
 7914 0068 54D0     		beq	.L507
 7915 006a 03B3     		cbz	r3, .L525
 7916              	.L508:
 136:Dubby.cpp     ****     if (encoder.TimeHeldMs() < 300 && menuActive)
ARM GAS  /var/folders/1y/_321xjh9623c014x9_qw12rr0000gn/T//ccXuncwa.s 			page 209


 7917              		.loc 2 136 5 is_stmt 1 view .LVU2075
 7918              	.LVL572:
 7919              	.LBB1781:
 7920              	.LBI1781:
 7921              		.loc 13 48 18 view .LVU2076
 7922              	.LBE1781:
 7923              		.loc 13 48 39 view .LVU2077
 7924              	.LBB1800:
 7925              	.LBB1782:
 7926              	.LBI1782:
  88:../../libDaisy//src/hid/switch.h ****     {
 7927              		.loc 12 88 18 view .LVU2078
 7928              	.LBB1783:
 7929              		.loc 12 90 9 view .LVU2079
 7930              	.LBB1784:
 7931              	.LBI1784:
  79:../../libDaisy//src/hid/switch.h **** 
 7932              		.loc 12 79 17 view .LVU2080
 7933              	.LBB1785:
  79:../../libDaisy//src/hid/switch.h **** 
 7934              		.loc 12 79 35 view .LVU2081
  79:../../libDaisy//src/hid/switch.h **** 
 7935              		.loc 12 79 35 is_stmt 0 view .LVU2082
 7936              	.LBE1785:
 7937              	.LBE1784:
 7938              		.loc 12 90 26 view .LVU2083
 7939 006c 94F80631 		ldrb	r3, [r4, #262]	@ zero_extendqisi2
 7940 0070 FF2B     		cmp	r3, #255
 7941 0072 D4D1     		bne	.L519
 7942              	.LVL573:
 7943              	.L518:
 7944              	.LBB1788:
 7945              	.LBI1788:
  88:../../libDaisy//src/hid/switch.h ****     {
 7946              		.loc 12 88 18 is_stmt 1 view .LVU2084
 7947              	.LBB1789:
 7948              		.loc 12 90 42 is_stmt 0 view .LVU2085
 7949 0074 FFF7FEFF 		bl	_ZN5daisy6System6GetNowEv
 7950              	.LVL574:
 7951              		.loc 12 90 45 view .LVU2086
 7952 0078 07EE900A 		vmov	s15, r0	@ int
 7953              		.loc 12 90 26 view .LVU2087
 7954 007c D4ED426A 		vldr.32	s13, [r4, #264]
 7955              		.loc 12 90 45 view .LVU2088
 7956 0080 F8EE677A 		vcvt.f32.u32	s15, s15
 7957              	.LBE1789:
 7958              	.LBE1788:
 7959              	.LBE1783:
 7960              	.LBE1782:
 7961              	.LBE1800:
 136:Dubby.cpp     ****     if (encoder.TimeHeldMs() < 300 && menuActive)
 7962              		.loc 2 136 36 view .LVU2089
 7963 0084 9FED407A 		vldr.32	s14, .L578
 7964              	.LBB1801:
 7965              	.LBB1797:
 7966              	.LBB1794:
 7967              	.LBB1791:
ARM GAS  /var/folders/1y/_321xjh9623c014x9_qw12rr0000gn/T//ccXuncwa.s 			page 210


 7968              	.LBB1790:
 7969              		.loc 12 90 26 view .LVU2090
 7970 0088 77EEE67A 		vsub.f32	s15, s15, s13
 7971              	.LBE1790:
 7972              	.LBE1791:
 7973              	.LBE1794:
 7974              	.LBE1797:
 7975              	.LBE1801:
 136:Dubby.cpp     ****     if (encoder.TimeHeldMs() < 300 && menuActive)
 7976              		.loc 2 136 36 view .LVU2091
 7977 008c F4EEC77A 		vcmpe.f32	s15, s14
 7978 0090 F1EE10FA 		vmrs	APSR_nzcv, FPSCR
 7979 0094 C3D4     		bmi	.L519
 143:Dubby.cpp     **** }
 7980              		.loc 2 143 1 view .LVU2092
 7981 0096 38BD     		pop	{r3, r4, r5, pc}
 7982              	.LVL575:
 7983              	.L523:
 138:Dubby.cpp     ****         menuActive = false;
 7984              		.loc 2 138 9 is_stmt 1 view .LVU2093
 138:Dubby.cpp     ****         menuActive = false;
 7985              		.loc 2 138 20 is_stmt 0 view .LVU2094
 7986 0098 0023     		movs	r3, #0
 140:Dubby.cpp     ****         ReleaseMenu();
 7987              		.loc 2 140 20 view .LVU2095
 7988 009a 2046     		mov	r0, r4
 138:Dubby.cpp     ****         menuActive = false;
 7989              		.loc 2 138 20 view .LVU2096
 7990 009c 84F82838 		strb	r3, [r4, #2088]
 140:Dubby.cpp     ****         ReleaseMenu();
 7991              		.loc 2 140 9 is_stmt 1 view .LVU2097
 140:Dubby.cpp     ****         ReleaseMenu();
 7992              		.loc 2 140 20 is_stmt 0 view .LVU2098
 7993 00a0 FFF7FEFF 		bl	_ZN5daisy5Dubby11ReleaseMenuEv
 7994              	.LVL576:
 141:Dubby.cpp     ****         UpdateSubmenu();
 7995              		.loc 2 141 9 is_stmt 1 view .LVU2099
 141:Dubby.cpp     ****         UpdateSubmenu();
 7996              		.loc 2 141 22 is_stmt 0 view .LVU2100
 7997 00a4 2046     		mov	r0, r4
 143:Dubby.cpp     **** }
 7998              		.loc 2 143 1 view .LVU2101
 7999 00a6 BDE83840 		pop	{r3, r4, r5, lr}
 8000              		.cfi_remember_state
 8001              		.cfi_restore 14
 8002              		.cfi_restore 5
 8003              		.cfi_restore 4
 8004              		.cfi_restore 3
 8005              		.cfi_def_cfa_offset 0
 8006              	.LVL577:
 141:Dubby.cpp     ****         UpdateSubmenu();
 8007              		.loc 2 141 22 view .LVU2102
 8008 00aa FFF7FEBF 		b	_ZN5daisy5Dubby13UpdateSubmenuEv
 8009              	.LVL578:
 8010              	.L525:
 8011              		.cfi_restore_state
 122:Dubby.cpp     ****         case MENU1:
ARM GAS  /var/folders/1y/_321xjh9623c014x9_qw12rr0000gn/T//ccXuncwa.s 			page 211


 8012              		.loc 2 122 9 is_stmt 1 view .LVU2103
 123:Dubby.cpp     ****             RenderScope();
 8013              		.loc 2 123 13 view .LVU2104
 8014              	.LBB1802:
 8015              	.LBI1802:
 261:Dubby.cpp     **** void Dubby::RenderScope()
 8016              		.loc 2 261 6 view .LVU2105
 8017              	.LBB1803:
 263:Dubby.cpp     ****     if(seed.system.GetNow() - screen_update_last_ > screen_update_period_)
 8018              		.loc 2 263 5 view .LVU2106
 8019              	.LBB1804:
 263:Dubby.cpp     ****     if(seed.system.GetNow() - screen_update_last_ > screen_update_period_)
 8020              		.loc 2 263 26 is_stmt 0 view .LVU2107
 8021 00ae FFF7FEFF 		bl	_ZN5daisy6System6GetNowEv
 8022              	.LVL579:
 263:Dubby.cpp     ****     if(seed.system.GetNow() - screen_update_last_ > screen_update_period_)
 8023              		.loc 2 263 29 view .LVU2108
 8024 00b2 D4F82C28 		ldr	r2, [r4, #2092]
 263:Dubby.cpp     ****     if(seed.system.GetNow() - screen_update_last_ > screen_update_period_)
 8025              		.loc 2 263 5 view .LVU2109
 8026 00b6 D4F83038 		ldr	r3, [r4, #2096]
 263:Dubby.cpp     ****     if(seed.system.GetNow() - screen_update_last_ > screen_update_period_)
 8027              		.loc 2 263 29 view .LVU2110
 8028 00ba 801A     		subs	r0, r0, r2
 263:Dubby.cpp     ****     if(seed.system.GetNow() - screen_update_last_ > screen_update_period_)
 8029              		.loc 2 263 5 view .LVU2111
 8030 00bc 9842     		cmp	r0, r3
 8031 00be D5D9     		bls	.L508
 8032              	.LBE1804:
 8033 00c0 2046     		mov	r0, r4
 8034 00c2 FFF7FEFF 		bl	_ZN5daisy5Dubby11RenderScopeEv.part.0
 8035              	.LVL580:
 8036 00c6 D1E7     		b	.L508
 8037              	.LVL581:
 8038              	.L506:
 263:Dubby.cpp     ****     if(seed.system.GetNow() - screen_update_last_ > screen_update_period_)
 8039              		.loc 2 263 5 view .LVU2112
 8040              	.LBE1803:
 8041              	.LBE1802:
 125:Dubby.cpp     ****         case MENU2:
 8042              		.loc 2 125 9 is_stmt 1 view .LVU2113
 126:Dubby.cpp     ****             UpdateMixerPane();
 8043              		.loc 2 126 13 view .LVU2114
 8044              	.LBB1805:
 8045              	.LBI1805:
 223:Dubby.cpp     **** void Dubby::UpdateMixerPane() 
 8046              		.loc 2 223 6 view .LVU2115
 8047              	.LBE1805:
 225:Dubby.cpp     ****     if(seed.system.GetNow() - screen_update_last_ > screen_update_period_)
 8048              		.loc 2 225 5 view .LVU2116
 8049              	.LBB1811:
 8050              	.LBB1806:
 225:Dubby.cpp     ****     if(seed.system.GetNow() - screen_update_last_ > screen_update_period_)
 8051              		.loc 2 225 26 is_stmt 0 view .LVU2117
 8052 00c8 FFF7FEFF 		bl	_ZN5daisy6System6GetNowEv
 8053              	.LVL582:
 225:Dubby.cpp     ****     if(seed.system.GetNow() - screen_update_last_ > screen_update_period_)
ARM GAS  /var/folders/1y/_321xjh9623c014x9_qw12rr0000gn/T//ccXuncwa.s 			page 212


 8054              		.loc 2 225 29 view .LVU2118
 8055 00cc D4F82C28 		ldr	r2, [r4, #2092]
 225:Dubby.cpp     ****     if(seed.system.GetNow() - screen_update_last_ > screen_update_period_)
 8056              		.loc 2 225 5 view .LVU2119
 8057 00d0 D4F83038 		ldr	r3, [r4, #2096]
 225:Dubby.cpp     ****     if(seed.system.GetNow() - screen_update_last_ > screen_update_period_)
 8058              		.loc 2 225 29 view .LVU2120
 8059 00d4 801A     		subs	r0, r0, r2
 225:Dubby.cpp     ****     if(seed.system.GetNow() - screen_update_last_ > screen_update_period_)
 8060              		.loc 2 225 5 view .LVU2121
 8061 00d6 9842     		cmp	r0, r3
 8062 00d8 C8D9     		bls	.L508
 8063              	.LVL583:
 225:Dubby.cpp     ****     if(seed.system.GetNow() - screen_update_last_ > screen_update_period_)
 8064              		.loc 2 225 5 view .LVU2122
 8065              	.LBE1806:
 8066              	.LBB1807:
 8067              	.LBI1807:
 223:Dubby.cpp     **** void Dubby::UpdateMixerPane() 
 8068              		.loc 2 223 6 is_stmt 1 view .LVU2123
 8069              	.LBB1808:
 227:Dubby.cpp     ****         screen_update_last_ = seed.system.GetNow();
 8070              		.loc 2 227 9 view .LVU2124
 8071              	.LBB1809:
 228:Dubby.cpp     ****         for (int i = 0; i < 4; i++) UpdateBar(i);
 8072              		.loc 2 228 18 is_stmt 0 view .LVU2125
 8073 00da 0025     		movs	r5, #0
 8074              	.LBE1809:
 227:Dubby.cpp     ****         screen_update_last_ = seed.system.GetNow();
 8075              		.loc 2 227 49 view .LVU2126
 8076 00dc FFF7FEFF 		bl	_ZN5daisy6System6GetNowEv
 8077              	.LVL584:
 227:Dubby.cpp     ****         screen_update_last_ = seed.system.GetNow();
 8078              		.loc 2 227 29 view .LVU2127
 8079 00e0 C4F82C08 		str	r0, [r4, #2092]
 228:Dubby.cpp     ****         for (int i = 0; i < 4; i++) UpdateBar(i);
 8080              		.loc 2 228 9 is_stmt 1 view .LVU2128
 8081              	.LVL585:
 8082              	.LBB1810:
 228:Dubby.cpp     ****         for (int i = 0; i < 4; i++) UpdateBar(i);
 8083              		.loc 2 228 27 view .LVU2129
 8084              	.L511:
 228:Dubby.cpp     ****         for (int i = 0; i < 4; i++) UpdateBar(i);
 8085              		.loc 2 228 37 view .LVU2130
 228:Dubby.cpp     ****         for (int i = 0; i < 4; i++) UpdateBar(i);
 8086              		.loc 2 228 46 is_stmt 0 view .LVU2131
 8087 00e4 2946     		mov	r1, r5
 228:Dubby.cpp     ****         for (int i = 0; i < 4; i++) UpdateBar(i);
 8088              		.loc 2 228 9 view .LVU2132
 8089 00e6 0135     		adds	r5, r5, #1
 8090              	.LVL586:
 228:Dubby.cpp     ****         for (int i = 0; i < 4; i++) UpdateBar(i);
 8091              		.loc 2 228 46 view .LVU2133
 8092 00e8 2046     		mov	r0, r4
 8093 00ea FFF7FEFF 		bl	_ZN5daisy5Dubby9UpdateBarEi
 8094              	.LVL587:
 228:Dubby.cpp     ****         for (int i = 0; i < 4; i++) UpdateBar(i);
ARM GAS  /var/folders/1y/_321xjh9623c014x9_qw12rr0000gn/T//ccXuncwa.s 			page 213


 8095              		.loc 2 228 9 is_stmt 1 view .LVU2134
 228:Dubby.cpp     ****         for (int i = 0; i < 4; i++) UpdateBar(i);
 8096              		.loc 2 228 27 view .LVU2135
 8097 00ee 042D     		cmp	r5, #4
 8098 00f0 F8D1     		bne	.L511
 8099 00f2 BBE7     		b	.L508
 8100              	.LVL588:
 8101              	.L572:
 228:Dubby.cpp     ****         for (int i = 0; i < 4; i++) UpdateBar(i);
 8102              		.loc 2 228 27 is_stmt 0 view .LVU2136
 8103              	.LBE1810:
 8104              	.LBE1808:
 8105              	.LBE1807:
 8106              	.LBE1811:
 113:Dubby.cpp     ****             HightlightMenuItem();
 8107              		.loc 2 113 13 is_stmt 1 view .LVU2137
 113:Dubby.cpp     ****             HightlightMenuItem();
 8108              		.loc 2 113 31 is_stmt 0 view .LVU2138
 8109 00f4 2046     		mov	r0, r4
 8110 00f6 FFF7FEFF 		bl	_ZN5daisy5Dubby18HightlightMenuItemEv
 8111              	.LVL589:
 114:Dubby.cpp     ****             menuActive = true;
 8112              		.loc 2 114 13 is_stmt 1 view .LVU2139
 114:Dubby.cpp     ****             menuActive = true;
 8113              		.loc 2 114 24 is_stmt 0 view .LVU2140
 8114 00fa 0123     		movs	r3, #1
 8115 00fc 84F82838 		strb	r3, [r4, #2088]
 117:Dubby.cpp     ****         if (encoder.Increment()) UpdateMenu(encoder.Increment(), true);
 8116              		.loc 2 117 9 is_stmt 1 view .LVU2141
 8117              	.LVL590:
 8118              	.LBB1812:
  36:../../libDaisy//src/hid/encoder.h **** 
 8119              		.loc 13 36 20 view .LVU2142
 8120              	.LBB1780:
  36:../../libDaisy//src/hid/encoder.h **** 
 8121              		.loc 13 36 40 view .LVU2143
  36:../../libDaisy//src/hid/encoder.h **** 
 8122              		.loc 13 36 56 is_stmt 0 view .LVU2144
 8123 0100 94F8F830 		ldrb	r3, [r4, #248]	@ zero_extendqisi2
 8124 0104 002B     		cmp	r3, #0
 8125 0106 AAD0     		beq	.L503
 8126 0108 A5E7     		b	.L574
 8127              	.LVL591:
 8128              	.L573:
  36:../../libDaisy//src/hid/encoder.h **** 
 8129              		.loc 13 36 56 view .LVU2145
 8130              	.LBE1780:
 8131              	.LBE1812:
 117:Dubby.cpp     ****         if (encoder.Increment()) UpdateMenu(encoder.Increment(), true);
 8132              		.loc 2 117 34 is_stmt 1 view .LVU2146
  36:../../libDaisy//src/hid/encoder.h **** 
 8133              		.loc 13 36 40 view .LVU2147
 117:Dubby.cpp     ****         if (encoder.Increment()) UpdateMenu(encoder.Increment(), true);
 8134              		.loc 2 117 44 is_stmt 0 view .LVU2148
 8135 010a 0122     		movs	r2, #1
 8136 010c 2046     		mov	r0, r4
 8137 010e FFF7FEFF 		bl	_ZN5daisy5Dubby10UpdateMenuEib
ARM GAS  /var/folders/1y/_321xjh9623c014x9_qw12rr0000gn/T//ccXuncwa.s 			page 214


 8138              	.LVL592:
 8139 0112 A4E7     		b	.L503
 8140              	.L507:
 128:Dubby.cpp     ****         case MENU3:
 8141              		.loc 2 128 9 is_stmt 1 view .LVU2149
 129:Dubby.cpp     ****             if (encoder.Pressed() && preferencesMenuItemSelected == OPTION4) ResetToBootloader();
 8142              		.loc 2 129 13 view .LVU2150
 8143              	.LVL593:
 8144              	.LBB1813:
 8145              	.LBI1813:
  45:../../libDaisy//src/hid/encoder.h **** 
 8146              		.loc 13 45 17 view .LVU2151
 8147              	.LBE1813:
  45:../../libDaisy//src/hid/encoder.h **** 
 8148              		.loc 13 45 35 view .LVU2152
 8149              	.LBB1816:
 8150              	.LBB1814:
 8151              	.LBI1814:
  79:../../libDaisy//src/hid/switch.h **** 
 8152              		.loc 12 79 17 view .LVU2153
 8153              	.LBB1815:
  79:../../libDaisy//src/hid/switch.h **** 
 8154              		.loc 12 79 35 view .LVU2154
  79:../../libDaisy//src/hid/switch.h **** 
 8155              		.loc 12 79 35 is_stmt 0 view .LVU2155
 8156              	.LBE1815:
 8157              	.LBE1814:
 8158              	.LBE1816:
 129:Dubby.cpp     ****             if (encoder.Pressed() && preferencesMenuItemSelected == OPTION4) ResetToBootloader();
 8159              		.loc 2 129 35 view .LVU2156
 8160 0114 94F80631 		ldrb	r3, [r4, #262]	@ zero_extendqisi2
 8161 0118 FF2B     		cmp	r3, #255
 8162 011a 13D1     		bne	.L512
 129:Dubby.cpp     ****             if (encoder.Pressed() && preferencesMenuItemSelected == OPTION4) ResetToBootloader();
 8163              		.loc 2 129 35 discriminator 1 view .LVU2157
 8164 011c 94F85930 		ldrb	r3, [r4, #89]	@ zero_extendqisi2
 8165 0120 032B     		cmp	r3, #3
 8166 0122 21D0     		beq	.L575
 130:Dubby.cpp     ****             if (encoder.Increment() && !menuActive) UpdatePreferencesMenu(encoder.Increment());
 8167              		.loc 2 130 13 is_stmt 1 view .LVU2158
 8168              	.LVL594:
 8169              	.LBB1817:
 8170              	.LBI1817:
  36:../../libDaisy//src/hid/encoder.h **** 
 8171              		.loc 13 36 20 view .LVU2159
 8172              	.LBB1818:
  36:../../libDaisy//src/hid/encoder.h **** 
 8173              		.loc 13 36 40 view .LVU2160
  36:../../libDaisy//src/hid/encoder.h **** 
 8174              		.loc 13 36 56 is_stmt 0 view .LVU2161
 8175 0124 94F8F830 		ldrb	r3, [r4, #248]	@ zero_extendqisi2
 8176 0128 002B     		cmp	r3, #0
 8177 012a A3D0     		beq	.L518
 8178              	.LVL595:
 8179              	.L524:
  36:../../libDaisy//src/hid/encoder.h **** 
 8180              		.loc 13 36 56 view .LVU2162
ARM GAS  /var/folders/1y/_321xjh9623c014x9_qw12rr0000gn/T//ccXuncwa.s 			page 215


 8181 012c D4F81831 		ldr	r3, [r4, #280]
  36:../../libDaisy//src/hid/encoder.h **** 
 8182              		.loc 13 36 56 view .LVU2163
 8183              	.LBE1818:
 8184              	.LBE1817:
 130:Dubby.cpp     ****             if (encoder.Increment() && !menuActive) UpdatePreferencesMenu(encoder.Increment());
 8185              		.loc 2 130 37 view .LVU2164
 8186 0130 002B     		cmp	r3, #0
 8187 0132 9BD0     		beq	.L508
 130:Dubby.cpp     ****             if (encoder.Increment() && !menuActive) UpdatePreferencesMenu(encoder.Increment());
 8188              		.loc 2 130 37 discriminator 1 view .LVU2165
 8189 0134 94F82828 		ldrb	r2, [r4, #2088]	@ zero_extendqisi2
 8190 0138 52B1     		cbz	r2, .L576
 136:Dubby.cpp     ****     if (encoder.TimeHeldMs() < 300 && menuActive)
 8191              		.loc 2 136 5 is_stmt 1 view .LVU2166
 8192              	.LVL596:
 8193              	.LBB1821:
 8194              		.loc 13 48 18 view .LVU2167
 8195              	.LBE1821:
 8196              		.loc 13 48 39 view .LVU2168
 8197              	.LBB1822:
 8198              	.LBB1798:
  88:../../libDaisy//src/hid/switch.h ****     {
 8199              		.loc 12 88 18 view .LVU2169
 8200              	.LBB1795:
 8201              		.loc 12 90 9 view .LVU2170
 8202              	.LBB1792:
  79:../../libDaisy//src/hid/switch.h **** 
 8203              		.loc 12 79 17 view .LVU2171
 8204              	.LBB1786:
  79:../../libDaisy//src/hid/switch.h **** 
 8205              		.loc 12 79 35 view .LVU2172
  79:../../libDaisy//src/hid/switch.h **** 
 8206              		.loc 12 79 35 is_stmt 0 view .LVU2173
 8207              	.LBE1786:
 8208              	.LBE1792:
 8209              		.loc 12 90 26 view .LVU2174
 8210 013a 94F80631 		ldrb	r3, [r4, #262]	@ zero_extendqisi2
 8211 013e FF2B     		cmp	r3, #255
 8212 0140 AAD1     		bne	.L523
 8213 0142 97E7     		b	.L518
 8214              	.LVL597:
 8215              	.L512:
 8216              		.loc 12 90 26 view .LVU2175
 8217              	.LBE1795:
 8218              	.LBE1798:
 8219              	.LBE1822:
 130:Dubby.cpp     ****             if (encoder.Increment() && !menuActive) UpdatePreferencesMenu(encoder.Increment());
 8220              		.loc 2 130 13 is_stmt 1 view .LVU2176
 8221              	.LBB1823:
  36:../../libDaisy//src/hid/encoder.h **** 
 8222              		.loc 13 36 20 view .LVU2177
 8223              	.LBB1819:
  36:../../libDaisy//src/hid/encoder.h **** 
 8224              		.loc 13 36 40 view .LVU2178
  36:../../libDaisy//src/hid/encoder.h **** 
 8225              		.loc 13 36 56 is_stmt 0 view .LVU2179
ARM GAS  /var/folders/1y/_321xjh9623c014x9_qw12rr0000gn/T//ccXuncwa.s 			page 216


 8226 0144 94F8F830 		ldrb	r3, [r4, #248]	@ zero_extendqisi2
 8227 0148 002B     		cmp	r3, #0
 8228 014a 3FF468AF 		beq	.L519
 8229 014e EDE7     		b	.L524
 8230              	.LVL598:
 8231              	.L576:
  36:../../libDaisy//src/hid/encoder.h **** 
 8232              		.loc 13 36 56 view .LVU2180
 8233              	.LBE1819:
 8234              	.LBE1823:
 130:Dubby.cpp     ****             if (encoder.Increment() && !menuActive) UpdatePreferencesMenu(encoder.Increment());
 8235              		.loc 2 130 53 is_stmt 1 view .LVU2181
  36:../../libDaisy//src/hid/encoder.h **** 
 8236              		.loc 13 36 40 view .LVU2182
 8237              	.LBB1824:
 8238              	.LBI1824:
 304:Dubby.cpp     **** void Dubby::UpdatePreferencesMenu(int increment) 
 8239              		.loc 2 304 6 view .LVU2183
 8240              	.LBB1825:
 306:Dubby.cpp     ****     if (((preferencesMenuItemSelected >= 0 && increment == 1 && preferencesMenuItemSelected < PREFE
 8241              		.loc 2 306 5 view .LVU2184
 8242 0150 012B     		cmp	r3, #1
 306:Dubby.cpp     ****     if (((preferencesMenuItemSelected >= 0 && increment == 1 && preferencesMenuItemSelected < PREFE
 8243              		.loc 2 306 65 is_stmt 0 view .LVU2185
 8244 0152 94F85920 		ldrb	r2, [r4, #89]	@ zero_extendqisi2
 306:Dubby.cpp     ****     if (((preferencesMenuItemSelected >= 0 && increment == 1 && preferencesMenuItemSelected < PREFE
 8245              		.loc 2 306 5 view .LVU2186
 8246 0156 0FD0     		beq	.L577
 306:Dubby.cpp     ****     if (((preferencesMenuItemSelected >= 0 && increment == 1 && preferencesMenuItemSelected < PREFE
 8247              		.loc 2 306 140 view .LVU2187
 8248 0158 82B1     		cbz	r2, .L517
 8249              	.L516:
 8250              	.LVL599:
 8251              	.LBB1826:
 8252              	.LBI1826:
 304:Dubby.cpp     **** void Dubby::UpdatePreferencesMenu(int increment) 
 8253              		.loc 2 304 6 is_stmt 1 view .LVU2188
 8254              	.LBB1827:
 308:Dubby.cpp     ****         preferencesMenuItemSelected = (PreferenesMenuItems)(preferencesMenuItemSelected + increment
 8255              		.loc 2 308 9 view .LVU2189
 308:Dubby.cpp     ****         preferencesMenuItemSelected = (PreferenesMenuItems)(preferencesMenuItemSelected + increment
 8256              		.loc 2 308 89 is_stmt 0 view .LVU2190
 8257 015a 1344     		add	r3, r3, r2
 8258              	.LVL600:
 310:Dubby.cpp     ****         DisplayPreferencesMenu();
 8259              		.loc 2 310 31 view .LVU2191
 8260 015c 2046     		mov	r0, r4
 308:Dubby.cpp     ****         preferencesMenuItemSelected = (PreferenesMenuItems)(preferencesMenuItemSelected + increment
 8261              		.loc 2 308 37 view .LVU2192
 8262 015e 84F85930 		strb	r3, [r4, #89]
 310:Dubby.cpp     ****         DisplayPreferencesMenu();
 8263              		.loc 2 310 9 is_stmt 1 view .LVU2193
 310:Dubby.cpp     ****         DisplayPreferencesMenu();
 8264              		.loc 2 310 31 is_stmt 0 view .LVU2194
 8265 0162 FFF7FEFF 		bl	_ZN5daisy5Dubby22DisplayPreferencesMenuEv
 8266              	.LVL601:
 312:Dubby.cpp     **** }
ARM GAS  /var/folders/1y/_321xjh9623c014x9_qw12rr0000gn/T//ccXuncwa.s 			page 217


 8267              		.loc 2 312 1 view .LVU2195
 8268 0166 81E7     		b	.L508
 8269              	.LVL602:
 8270              	.L575:
 312:Dubby.cpp     **** }
 8271              		.loc 2 312 1 view .LVU2196
 8272              	.LBE1827:
 8273              	.LBE1826:
 8274              	.LBE1825:
 8275              	.LBE1824:
 129:Dubby.cpp     ****             if (encoder.Pressed() && preferencesMenuItemSelected == OPTION4) ResetToBootloader();
 8276              		.loc 2 129 78 is_stmt 1 view .LVU2197
 129:Dubby.cpp     ****             if (encoder.Pressed() && preferencesMenuItemSelected == OPTION4) ResetToBootloader();
 8277              		.loc 2 129 95 is_stmt 0 view .LVU2198
 8278 0168 2046     		mov	r0, r4
 8279 016a FFF7FEFF 		bl	_ZN5daisy5Dubby17ResetToBootloaderEv
 8280              	.LVL603:
 130:Dubby.cpp     ****             if (encoder.Increment() && !menuActive) UpdatePreferencesMenu(encoder.Increment());
 8281              		.loc 2 130 13 is_stmt 1 view .LVU2199
 8282              	.LBB1829:
  36:../../libDaisy//src/hid/encoder.h **** 
 8283              		.loc 13 36 20 view .LVU2200
 8284              	.LBB1820:
  36:../../libDaisy//src/hid/encoder.h **** 
 8285              		.loc 13 36 40 view .LVU2201
  36:../../libDaisy//src/hid/encoder.h **** 
 8286              		.loc 13 36 56 is_stmt 0 view .LVU2202
 8287 016e 94F8F830 		ldrb	r3, [r4, #248]	@ zero_extendqisi2
 8288 0172 002B     		cmp	r3, #0
 8289 0174 DAD1     		bne	.L524
 8290 0176 79E7     		b	.L508
 8291              	.LVL604:
 8292              	.L577:
  36:../../libDaisy//src/hid/encoder.h **** 
 8293              		.loc 13 36 56 view .LVU2203
 8294              	.LBE1820:
 8295              	.LBE1829:
 8296              	.LBB1830:
 8297              	.LBB1828:
 306:Dubby.cpp     ****     if (((preferencesMenuItemSelected >= 0 && increment == 1 && preferencesMenuItemSelected < PREFE
 8298              		.loc 2 306 62 view .LVU2204
 8299 0178 022A     		cmp	r2, #2
 8300 017a EED9     		bls	.L516
 8301              	.L517:
 8302              	.LVL605:
 306:Dubby.cpp     ****     if (((preferencesMenuItemSelected >= 0 && increment == 1 && preferencesMenuItemSelected < PREFE
 8303              		.loc 2 306 62 view .LVU2205
 8304              	.LBE1828:
 8305              	.LBE1830:
 136:Dubby.cpp     ****     if (encoder.TimeHeldMs() < 300 && menuActive)
 8306              		.loc 2 136 5 is_stmt 1 view .LVU2206
 8307              	.LBB1831:
 8308              		.loc 13 48 18 view .LVU2207
 8309              	.LBE1831:
 8310              		.loc 13 48 39 view .LVU2208
 8311              	.LBB1832:
 8312              	.LBB1799:
ARM GAS  /var/folders/1y/_321xjh9623c014x9_qw12rr0000gn/T//ccXuncwa.s 			page 218


  88:../../libDaisy//src/hid/switch.h ****     {
 8313              		.loc 12 88 18 view .LVU2209
 8314              	.LBB1796:
 8315              		.loc 12 90 9 view .LVU2210
 8316              	.LBB1793:
  79:../../libDaisy//src/hid/switch.h **** 
 8317              		.loc 12 79 17 view .LVU2211
 8318              	.LBB1787:
  79:../../libDaisy//src/hid/switch.h **** 
 8319              		.loc 12 79 35 view .LVU2212
  79:../../libDaisy//src/hid/switch.h **** 
 8320              		.loc 12 79 35 is_stmt 0 view .LVU2213
 8321              	.LBE1787:
 8322              	.LBE1793:
 8323              		.loc 12 90 26 view .LVU2214
 8324 017c 94F80631 		ldrb	r3, [r4, #262]	@ zero_extendqisi2
 8325 0180 FF2B     		cmp	r3, #255
 8326 0182 3FF477AF 		beq	.L518
 8327              	.LBE1796:
 8328              	.LBE1799:
 8329              	.LBE1832:
 143:Dubby.cpp     **** }
 8330              		.loc 2 143 1 view .LVU2215
 8331 0186 38BD     		pop	{r3, r4, r5, pc}
 8332              	.LVL606:
 8333              	.L579:
 143:Dubby.cpp     **** }
 8334              		.loc 2 143 1 view .LVU2216
 8335              		.align	2
 8336              	.L578:
 8337 0188 00009643 		.word	1133903872
 8338              		.cfi_endproc
 8339              	.LFE2578:
 8341              		.section	.text._ZN5daisy13SSD130xDriverILj128ELj64ENS_24SSD130x4WireSpiTransportEE4InitENS2_6Confi
 8342              		.align	1
 8343              		.p2align 2,,3
 8344              		.weak	_ZN5daisy13SSD130xDriverILj128ELj64ENS_24SSD130x4WireSpiTransportEE4InitENS2_6ConfigE
 8345              		.syntax unified
 8346              		.thumb
 8347              		.thumb_func
 8349              	_ZN5daisy13SSD130xDriverILj128ELj64ENS_24SSD130x4WireSpiTransportEE4InitENS2_6ConfigE:
 8350              	.LVL607:
 8351              	.LFB2640:
 253:../../libDaisy//src/dev/oled_ssd130x.h ****     {
 8352              		.loc 4 253 10 is_stmt 1 view -0
 8353              		.cfi_startproc
 8354              		@ args = 48, pretend = 16, frame = 8
 8355              		@ frame_needed = 0, uses_anonymous_args = 0
 253:../../libDaisy//src/dev/oled_ssd130x.h ****     {
 8356              		.loc 4 253 10 is_stmt 0 view .LVU2218
 8357 0000 84B0     		sub	sp, sp, #16
 8358              		.cfi_def_cfa_offset 16
 8359 0002 2DE9F041 		push	{r4, r5, r6, r7, r8, lr}
 8360              		.cfi_def_cfa_offset 40
 8361              		.cfi_offset 4, -40
 8362              		.cfi_offset 5, -36
 8363              		.cfi_offset 6, -32
ARM GAS  /var/folders/1y/_321xjh9623c014x9_qw12rr0000gn/T//ccXuncwa.s 			page 219


 8364              		.cfi_offset 7, -28
 8365              		.cfi_offset 8, -24
 8366              		.cfi_offset 14, -20
 8367 0006 82B0     		sub	sp, sp, #8
 8368              		.cfi_def_cfa_offset 48
 8369              	.LBB1881:
 8370              	.LBB1882:
 106:../../libDaisy//src/dev/oled_ssd130x.h ****         pin_dc_.pin  = config.pin_config.dc;
 8371              		.loc 4 106 22 view .LVU2219
 8372 0008 0125     		movs	r5, #1
 107:../../libDaisy//src/dev/oled_ssd130x.h ****         dsy_gpio_init(&pin_dc_);
 8373              		.loc 4 107 22 view .LVU2220
 8374 000a 0646     		mov	r6, r0
 8375              	.LBE1882:
 8376              	.LBE1881:
 253:../../libDaisy//src/dev/oled_ssd130x.h ****     {
 8377              		.loc 4 253 10 view .LVU2221
 8378 000c 0446     		mov	r4, r0
 8379              	.LVL608:
 8380              	.LBB1886:
 8381              	.LBI1881:
 103:../../libDaisy//src/dev/oled_ssd130x.h ****     {
 8382              		.loc 4 103 10 is_stmt 1 view .LVU2222
 8383              	.LBB1883:
 106:../../libDaisy//src/dev/oled_ssd130x.h ****         pin_dc_.pin  = config.pin_config.dc;
 8384              		.loc 4 106 9 view .LVU2223
 8385              	.LBE1883:
 8386              	.LBE1886:
 253:../../libDaisy//src/dev/oled_ssd130x.h ****     {
 8387              		.loc 4 253 10 is_stmt 0 view .LVU2224
 8388 000e 0DF12408 		add	r8, sp, #36
 8389              	.LBB1887:
 8390              	.LBB1884:
 106:../../libDaisy//src/dev/oled_ssd130x.h ****         pin_dc_.pin  = config.pin_config.dc;
 8391              		.loc 4 106 22 view .LVU2225
 8392 0012 8572     		strb	r5, [r0, #10]
 107:../../libDaisy//src/dev/oled_ssd130x.h ****         dsy_gpio_init(&pin_dc_);
 8393              		.loc 4 107 9 is_stmt 1 view .LVU2226
 110:../../libDaisy//src/dev/oled_ssd130x.h ****         dsy_gpio_init(&pin_reset_);
 8394              		.loc 4 110 25 is_stmt 0 view .LVU2227
 8395 0014 2746     		mov	r7, r4
 8396              	.LBE1884:
 8397              	.LBE1887:
 253:../../libDaisy//src/dev/oled_ssd130x.h ****     {
 8398              		.loc 4 253 10 view .LVU2228
 8399 0016 88E80E00 		stm	r8, {r1, r2, r3}
 8400              	.LBB1888:
 8401              	.LBB1885:
 107:../../libDaisy//src/dev/oled_ssd130x.h ****         dsy_gpio_init(&pin_dc_);
 8402              		.loc 4 107 22 view .LVU2229
 8403 001a BDF84C30 		ldrh	r3, [sp, #76]
 8404 001e 26F8083F 		strh	r3, [r6, #8]!	@ movhi
 108:../../libDaisy//src/dev/oled_ssd130x.h ****         pin_reset_.mode = DSY_GPIO_MODE_OUTPUT_PP;
 8405              		.loc 4 108 9 is_stmt 1 view .LVU2230
 108:../../libDaisy//src/dev/oled_ssd130x.h ****         pin_reset_.mode = DSY_GPIO_MODE_OUTPUT_PP;
 8406              		.loc 4 108 22 is_stmt 0 view .LVU2231
 8407 0022 3046     		mov	r0, r6
ARM GAS  /var/folders/1y/_321xjh9623c014x9_qw12rr0000gn/T//ccXuncwa.s 			page 220


 8408              	.LVL609:
 108:../../libDaisy//src/dev/oled_ssd130x.h ****         pin_reset_.mode = DSY_GPIO_MODE_OUTPUT_PP;
 8409              		.loc 4 108 22 view .LVU2232
 8410 0024 FFF7FEFF 		bl	dsy_gpio_init
 8411              	.LVL610:
 109:../../libDaisy//src/dev/oled_ssd130x.h ****         pin_reset_.pin  = config.pin_config.reset;
 8412              		.loc 4 109 9 is_stmt 1 view .LVU2233
 110:../../libDaisy//src/dev/oled_ssd130x.h ****         dsy_gpio_init(&pin_reset_);
 8413              		.loc 4 110 25 is_stmt 0 view .LVU2234
 8414 0028 BDF84E30 		ldrh	r3, [sp, #78]
 109:../../libDaisy//src/dev/oled_ssd130x.h ****         pin_reset_.pin  = config.pin_config.reset;
 8415              		.loc 4 109 25 view .LVU2235
 8416 002c A571     		strb	r5, [r4, #6]
 110:../../libDaisy//src/dev/oled_ssd130x.h ****         dsy_gpio_init(&pin_reset_);
 8417              		.loc 4 110 9 is_stmt 1 view .LVU2236
 110:../../libDaisy//src/dev/oled_ssd130x.h ****         dsy_gpio_init(&pin_reset_);
 8418              		.loc 4 110 25 is_stmt 0 view .LVU2237
 8419 002e 27F8043F 		strh	r3, [r7, #4]!	@ movhi
 111:../../libDaisy//src/dev/oled_ssd130x.h **** 
 8420              		.loc 4 111 9 is_stmt 1 view .LVU2238
 111:../../libDaisy//src/dev/oled_ssd130x.h **** 
 8421              		.loc 4 111 22 is_stmt 0 view .LVU2239
 8422 0032 3846     		mov	r0, r7
 8423 0034 FFF7FEFF 		bl	dsy_gpio_init
 8424              	.LVL611:
 114:../../libDaisy//src/dev/oled_ssd130x.h **** 
 8425              		.loc 4 114 9 is_stmt 1 view .LVU2240
 114:../../libDaisy//src/dev/oled_ssd130x.h **** 
 8426              		.loc 4 114 18 is_stmt 0 view .LVU2241
 8427 0038 4146     		mov	r1, r8
 8428 003a 2046     		mov	r0, r4
 8429 003c FFF7FEFF 		bl	_ZN5daisy9SpiHandle4InitERKNS0_6ConfigE
 8430              	.LVL612:
 117:../../libDaisy//src/dev/oled_ssd130x.h ****         System::Delay(10);
 8431              		.loc 4 117 9 is_stmt 1 view .LVU2242
 117:../../libDaisy//src/dev/oled_ssd130x.h ****         System::Delay(10);
 8432              		.loc 4 117 23 is_stmt 0 view .LVU2243
 8433 0040 0021     		movs	r1, #0
 8434 0042 3846     		mov	r0, r7
 8435 0044 FFF7FEFF 		bl	dsy_gpio_write
 8436              	.LVL613:
 118:../../libDaisy//src/dev/oled_ssd130x.h ****         dsy_gpio_write(&pin_reset_, 1);
 8437              		.loc 4 118 9 is_stmt 1 view .LVU2244
 118:../../libDaisy//src/dev/oled_ssd130x.h ****         dsy_gpio_write(&pin_reset_, 1);
 8438              		.loc 4 118 22 is_stmt 0 view .LVU2245
 8439 0048 0A20     		movs	r0, #10
 8440 004a FFF7FEFF 		bl	_ZN5daisy6System5DelayEm
 8441              	.LVL614:
 119:../../libDaisy//src/dev/oled_ssd130x.h ****         System::Delay(10);
 8442              		.loc 4 119 9 is_stmt 1 view .LVU2246
 119:../../libDaisy//src/dev/oled_ssd130x.h ****         System::Delay(10);
 8443              		.loc 4 119 23 is_stmt 0 view .LVU2247
 8444 004e 2946     		mov	r1, r5
 8445 0050 3846     		mov	r0, r7
 8446 0052 FFF7FEFF 		bl	dsy_gpio_write
 8447              	.LVL615:
 120:../../libDaisy//src/dev/oled_ssd130x.h ****     };
ARM GAS  /var/folders/1y/_321xjh9623c014x9_qw12rr0000gn/T//ccXuncwa.s 			page 221


 8448              		.loc 4 120 9 is_stmt 1 view .LVU2248
 120:../../libDaisy//src/dev/oled_ssd130x.h ****     };
 8449              		.loc 4 120 22 is_stmt 0 view .LVU2249
 8450 0056 0A20     		movs	r0, #10
 8451 0058 FFF7FEFF 		bl	_ZN5daisy6System5DelayEm
 8452              	.LVL616:
 120:../../libDaisy//src/dev/oled_ssd130x.h ****     };
 8453              		.loc 4 120 22 view .LVU2250
 8454 005c AE23     		movs	r3, #174
 8455              	.LBE1885:
 8456              	.LBE1888:
 8457              	.LBB1889:
 8458              	.LBB1890:
 124:../../libDaisy//src/dev/oled_ssd130x.h ****         spi_.BlockingTransmit(&cmd, 1);
 8459              		.loc 4 124 23 view .LVU2251
 8460 005e 3046     		mov	r0, r6
 8461 0060 0021     		movs	r1, #0
 8462 0062 8DF80730 		strb	r3, [sp, #7]
 8463              	.LVL617:
 124:../../libDaisy//src/dev/oled_ssd130x.h ****         spi_.BlockingTransmit(&cmd, 1);
 8464              		.loc 4 124 23 view .LVU2252
 8465              	.LBE1890:
 8466              	.LBI1889:
 122:../../libDaisy//src/dev/oled_ssd130x.h ****     {
 8467              		.loc 4 122 10 is_stmt 1 view .LVU2253
 8468              	.LBB1891:
 124:../../libDaisy//src/dev/oled_ssd130x.h ****         spi_.BlockingTransmit(&cmd, 1);
 8469              		.loc 4 124 9 view .LVU2254
 124:../../libDaisy//src/dev/oled_ssd130x.h ****         spi_.BlockingTransmit(&cmd, 1);
 8470              		.loc 4 124 23 is_stmt 0 view .LVU2255
 8471 0066 FFF7FEFF 		bl	dsy_gpio_write
 8472              	.LVL618:
 125:../../libDaisy//src/dev/oled_ssd130x.h ****     };
 8473              		.loc 4 125 9 is_stmt 1 view .LVU2256
 125:../../libDaisy//src/dev/oled_ssd130x.h ****     };
 8474              		.loc 4 125 30 is_stmt 0 view .LVU2257
 8475 006a 2A46     		mov	r2, r5
 8476 006c 0DF10701 		add	r1, sp, #7
 8477 0070 6423     		movs	r3, #100
 8478 0072 2046     		mov	r0, r4
 8479 0074 FFF7FEFF 		bl	_ZN5daisy9SpiHandle16BlockingTransmitEPhjm
 8480              	.LVL619:
 125:../../libDaisy//src/dev/oled_ssd130x.h ****     };
 8481              		.loc 4 125 30 view .LVU2258
 8482 0078 D523     		movs	r3, #213
 8483              	.LBE1891:
 8484              	.LBE1889:
 8485              	.LBB1892:
 8486              	.LBB1893:
 124:../../libDaisy//src/dev/oled_ssd130x.h ****         spi_.BlockingTransmit(&cmd, 1);
 8487              		.loc 4 124 23 view .LVU2259
 8488 007a 3046     		mov	r0, r6
 8489 007c 0021     		movs	r1, #0
 8490 007e 8DF80730 		strb	r3, [sp, #7]
 8491              	.LVL620:
 124:../../libDaisy//src/dev/oled_ssd130x.h ****         spi_.BlockingTransmit(&cmd, 1);
 8492              		.loc 4 124 23 view .LVU2260
ARM GAS  /var/folders/1y/_321xjh9623c014x9_qw12rr0000gn/T//ccXuncwa.s 			page 222


 8493              	.LBE1893:
 8494              	.LBI1892:
 122:../../libDaisy//src/dev/oled_ssd130x.h ****     {
 8495              		.loc 4 122 10 is_stmt 1 view .LVU2261
 8496              	.LBB1894:
 124:../../libDaisy//src/dev/oled_ssd130x.h ****         spi_.BlockingTransmit(&cmd, 1);
 8497              		.loc 4 124 9 view .LVU2262
 124:../../libDaisy//src/dev/oled_ssd130x.h ****         spi_.BlockingTransmit(&cmd, 1);
 8498              		.loc 4 124 23 is_stmt 0 view .LVU2263
 8499 0082 FFF7FEFF 		bl	dsy_gpio_write
 8500              	.LVL621:
 125:../../libDaisy//src/dev/oled_ssd130x.h ****     };
 8501              		.loc 4 125 9 is_stmt 1 view .LVU2264
 125:../../libDaisy//src/dev/oled_ssd130x.h ****     };
 8502              		.loc 4 125 30 is_stmt 0 view .LVU2265
 8503 0086 2A46     		mov	r2, r5
 8504 0088 0DF10701 		add	r1, sp, #7
 8505 008c 6423     		movs	r3, #100
 8506 008e 2046     		mov	r0, r4
 8507 0090 FFF7FEFF 		bl	_ZN5daisy9SpiHandle16BlockingTransmitEPhjm
 8508              	.LVL622:
 125:../../libDaisy//src/dev/oled_ssd130x.h ****     };
 8509              		.loc 4 125 30 view .LVU2266
 8510 0094 8023     		movs	r3, #128
 8511              	.LBE1894:
 8512              	.LBE1892:
 8513              	.LBB1895:
 8514              	.LBB1896:
 124:../../libDaisy//src/dev/oled_ssd130x.h ****         spi_.BlockingTransmit(&cmd, 1);
 8515              		.loc 4 124 23 view .LVU2267
 8516 0096 3046     		mov	r0, r6
 8517 0098 0021     		movs	r1, #0
 8518 009a 8DF80730 		strb	r3, [sp, #7]
 8519              	.LVL623:
 124:../../libDaisy//src/dev/oled_ssd130x.h ****         spi_.BlockingTransmit(&cmd, 1);
 8520              		.loc 4 124 23 view .LVU2268
 8521              	.LBE1896:
 8522              	.LBI1895:
 122:../../libDaisy//src/dev/oled_ssd130x.h ****     {
 8523              		.loc 4 122 10 is_stmt 1 view .LVU2269
 8524              	.LBB1897:
 124:../../libDaisy//src/dev/oled_ssd130x.h ****         spi_.BlockingTransmit(&cmd, 1);
 8525              		.loc 4 124 9 view .LVU2270
 124:../../libDaisy//src/dev/oled_ssd130x.h ****         spi_.BlockingTransmit(&cmd, 1);
 8526              		.loc 4 124 23 is_stmt 0 view .LVU2271
 8527 009e FFF7FEFF 		bl	dsy_gpio_write
 8528              	.LVL624:
 125:../../libDaisy//src/dev/oled_ssd130x.h ****     };
 8529              		.loc 4 125 9 is_stmt 1 view .LVU2272
 125:../../libDaisy//src/dev/oled_ssd130x.h ****     };
 8530              		.loc 4 125 30 is_stmt 0 view .LVU2273
 8531 00a2 2A46     		mov	r2, r5
 8532 00a4 0DF10701 		add	r1, sp, #7
 8533 00a8 6423     		movs	r3, #100
 8534 00aa 2046     		mov	r0, r4
 8535 00ac FFF7FEFF 		bl	_ZN5daisy9SpiHandle16BlockingTransmitEPhjm
 8536              	.LVL625:
ARM GAS  /var/folders/1y/_321xjh9623c014x9_qw12rr0000gn/T//ccXuncwa.s 			page 223


 125:../../libDaisy//src/dev/oled_ssd130x.h ****     };
 8537              		.loc 4 125 30 view .LVU2274
 8538 00b0 A823     		movs	r3, #168
 8539              	.LBE1897:
 8540              	.LBE1895:
 8541              	.LBB1898:
 8542              	.LBB1899:
 124:../../libDaisy//src/dev/oled_ssd130x.h ****         spi_.BlockingTransmit(&cmd, 1);
 8543              		.loc 4 124 23 view .LVU2275
 8544 00b2 3046     		mov	r0, r6
 8545 00b4 0021     		movs	r1, #0
 8546 00b6 8DF80730 		strb	r3, [sp, #7]
 8547              	.LVL626:
 124:../../libDaisy//src/dev/oled_ssd130x.h ****         spi_.BlockingTransmit(&cmd, 1);
 8548              		.loc 4 124 23 view .LVU2276
 8549              	.LBE1899:
 8550              	.LBI1898:
 122:../../libDaisy//src/dev/oled_ssd130x.h ****     {
 8551              		.loc 4 122 10 is_stmt 1 view .LVU2277
 8552              	.LBB1900:
 124:../../libDaisy//src/dev/oled_ssd130x.h ****         spi_.BlockingTransmit(&cmd, 1);
 8553              		.loc 4 124 9 view .LVU2278
 124:../../libDaisy//src/dev/oled_ssd130x.h ****         spi_.BlockingTransmit(&cmd, 1);
 8554              		.loc 4 124 23 is_stmt 0 view .LVU2279
 8555 00ba FFF7FEFF 		bl	dsy_gpio_write
 8556              	.LVL627:
 125:../../libDaisy//src/dev/oled_ssd130x.h ****     };
 8557              		.loc 4 125 9 is_stmt 1 view .LVU2280
 125:../../libDaisy//src/dev/oled_ssd130x.h ****     };
 8558              		.loc 4 125 30 is_stmt 0 view .LVU2281
 8559 00be 2A46     		mov	r2, r5
 8560 00c0 0DF10701 		add	r1, sp, #7
 8561 00c4 6423     		movs	r3, #100
 8562 00c6 2046     		mov	r0, r4
 8563 00c8 FFF7FEFF 		bl	_ZN5daisy9SpiHandle16BlockingTransmitEPhjm
 8564              	.LVL628:
 125:../../libDaisy//src/dev/oled_ssd130x.h ****     };
 8565              		.loc 4 125 30 view .LVU2282
 8566 00cc 3F23     		movs	r3, #63
 8567              	.LBE1900:
 8568              	.LBE1898:
 8569              	.LBB1901:
 8570              	.LBB1902:
 124:../../libDaisy//src/dev/oled_ssd130x.h ****         spi_.BlockingTransmit(&cmd, 1);
 8571              		.loc 4 124 23 view .LVU2283
 8572 00ce 3046     		mov	r0, r6
 8573 00d0 0021     		movs	r1, #0
 8574 00d2 8DF80730 		strb	r3, [sp, #7]
 8575              	.LVL629:
 124:../../libDaisy//src/dev/oled_ssd130x.h ****         spi_.BlockingTransmit(&cmd, 1);
 8576              		.loc 4 124 23 view .LVU2284
 8577              	.LBE1902:
 8578              	.LBI1901:
 122:../../libDaisy//src/dev/oled_ssd130x.h ****     {
 8579              		.loc 4 122 10 is_stmt 1 view .LVU2285
 8580              	.LBB1903:
 124:../../libDaisy//src/dev/oled_ssd130x.h ****         spi_.BlockingTransmit(&cmd, 1);
ARM GAS  /var/folders/1y/_321xjh9623c014x9_qw12rr0000gn/T//ccXuncwa.s 			page 224


 8581              		.loc 4 124 9 view .LVU2286
 124:../../libDaisy//src/dev/oled_ssd130x.h ****         spi_.BlockingTransmit(&cmd, 1);
 8582              		.loc 4 124 23 is_stmt 0 view .LVU2287
 8583 00d6 FFF7FEFF 		bl	dsy_gpio_write
 8584              	.LVL630:
 125:../../libDaisy//src/dev/oled_ssd130x.h ****     };
 8585              		.loc 4 125 9 is_stmt 1 view .LVU2288
 125:../../libDaisy//src/dev/oled_ssd130x.h ****     };
 8586              		.loc 4 125 30 is_stmt 0 view .LVU2289
 8587 00da 2A46     		mov	r2, r5
 8588 00dc 0DF10701 		add	r1, sp, #7
 8589 00e0 6423     		movs	r3, #100
 8590 00e2 2046     		mov	r0, r4
 8591 00e4 FFF7FEFF 		bl	_ZN5daisy9SpiHandle16BlockingTransmitEPhjm
 8592              	.LVL631:
 125:../../libDaisy//src/dev/oled_ssd130x.h ****     };
 8593              		.loc 4 125 30 view .LVU2290
 8594 00e8 DA23     		movs	r3, #218
 8595              	.LBE1903:
 8596              	.LBE1901:
 8597              	.LBB1904:
 8598              	.LBB1905:
 124:../../libDaisy//src/dev/oled_ssd130x.h ****         spi_.BlockingTransmit(&cmd, 1);
 8599              		.loc 4 124 23 view .LVU2291
 8600 00ea 3046     		mov	r0, r6
 8601 00ec 0021     		movs	r1, #0
 8602 00ee 8DF80730 		strb	r3, [sp, #7]
 8603              	.LVL632:
 124:../../libDaisy//src/dev/oled_ssd130x.h ****         spi_.BlockingTransmit(&cmd, 1);
 8604              		.loc 4 124 23 view .LVU2292
 8605              	.LBE1905:
 8606              	.LBI1904:
 122:../../libDaisy//src/dev/oled_ssd130x.h ****     {
 8607              		.loc 4 122 10 is_stmt 1 view .LVU2293
 8608              	.LBB1906:
 124:../../libDaisy//src/dev/oled_ssd130x.h ****         spi_.BlockingTransmit(&cmd, 1);
 8609              		.loc 4 124 9 view .LVU2294
 124:../../libDaisy//src/dev/oled_ssd130x.h ****         spi_.BlockingTransmit(&cmd, 1);
 8610              		.loc 4 124 23 is_stmt 0 view .LVU2295
 8611 00f2 FFF7FEFF 		bl	dsy_gpio_write
 8612              	.LVL633:
 125:../../libDaisy//src/dev/oled_ssd130x.h ****     };
 8613              		.loc 4 125 9 is_stmt 1 view .LVU2296
 125:../../libDaisy//src/dev/oled_ssd130x.h ****     };
 8614              		.loc 4 125 30 is_stmt 0 view .LVU2297
 8615 00f6 2A46     		mov	r2, r5
 8616 00f8 0DF10701 		add	r1, sp, #7
 8617 00fc 6423     		movs	r3, #100
 8618 00fe 2046     		mov	r0, r4
 8619 0100 FFF7FEFF 		bl	_ZN5daisy9SpiHandle16BlockingTransmitEPhjm
 8620              	.LVL634:
 125:../../libDaisy//src/dev/oled_ssd130x.h ****     };
 8621              		.loc 4 125 30 view .LVU2298
 8622 0104 1223     		movs	r3, #18
 8623              	.LBE1906:
 8624              	.LBE1904:
 8625              	.LBB1907:
ARM GAS  /var/folders/1y/_321xjh9623c014x9_qw12rr0000gn/T//ccXuncwa.s 			page 225


 8626              	.LBB1908:
 124:../../libDaisy//src/dev/oled_ssd130x.h ****         spi_.BlockingTransmit(&cmd, 1);
 8627              		.loc 4 124 23 view .LVU2299
 8628 0106 3046     		mov	r0, r6
 8629 0108 0021     		movs	r1, #0
 8630 010a 8DF80730 		strb	r3, [sp, #7]
 8631              	.LVL635:
 124:../../libDaisy//src/dev/oled_ssd130x.h ****         spi_.BlockingTransmit(&cmd, 1);
 8632              		.loc 4 124 23 view .LVU2300
 8633              	.LBE1908:
 8634              	.LBI1907:
 122:../../libDaisy//src/dev/oled_ssd130x.h ****     {
 8635              		.loc 4 122 10 is_stmt 1 view .LVU2301
 8636              	.LBB1909:
 124:../../libDaisy//src/dev/oled_ssd130x.h ****         spi_.BlockingTransmit(&cmd, 1);
 8637              		.loc 4 124 9 view .LVU2302
 124:../../libDaisy//src/dev/oled_ssd130x.h ****         spi_.BlockingTransmit(&cmd, 1);
 8638              		.loc 4 124 23 is_stmt 0 view .LVU2303
 8639 010e FFF7FEFF 		bl	dsy_gpio_write
 8640              	.LVL636:
 125:../../libDaisy//src/dev/oled_ssd130x.h ****     };
 8641              		.loc 4 125 9 is_stmt 1 view .LVU2304
 125:../../libDaisy//src/dev/oled_ssd130x.h ****     };
 8642              		.loc 4 125 30 is_stmt 0 view .LVU2305
 8643 0112 2A46     		mov	r2, r5
 8644 0114 0DF10701 		add	r1, sp, #7
 8645 0118 6423     		movs	r3, #100
 8646 011a 2046     		mov	r0, r4
 8647 011c FFF7FEFF 		bl	_ZN5daisy9SpiHandle16BlockingTransmitEPhjm
 8648              	.LVL637:
 125:../../libDaisy//src/dev/oled_ssd130x.h ****     };
 8649              		.loc 4 125 30 view .LVU2306
 8650              	.LBE1909:
 8651              	.LBE1907:
 8652              	.LBB1910:
 8653              	.LBB1911:
 124:../../libDaisy//src/dev/oled_ssd130x.h ****         spi_.BlockingTransmit(&cmd, 1);
 8654              		.loc 4 124 23 view .LVU2307
 8655 0120 0021     		movs	r1, #0
 8656 0122 D323     		movs	r3, #211
 8657 0124 3046     		mov	r0, r6
 8658 0126 0F46     		mov	r7, r1
 8659 0128 8DF80730 		strb	r3, [sp, #7]
 8660              	.LVL638:
 124:../../libDaisy//src/dev/oled_ssd130x.h ****         spi_.BlockingTransmit(&cmd, 1);
 8661              		.loc 4 124 23 view .LVU2308
 8662              	.LBE1911:
 8663              	.LBI1910:
 122:../../libDaisy//src/dev/oled_ssd130x.h ****     {
 8664              		.loc 4 122 10 is_stmt 1 view .LVU2309
 8665              	.LBB1912:
 124:../../libDaisy//src/dev/oled_ssd130x.h ****         spi_.BlockingTransmit(&cmd, 1);
 8666              		.loc 4 124 9 view .LVU2310
 124:../../libDaisy//src/dev/oled_ssd130x.h ****         spi_.BlockingTransmit(&cmd, 1);
 8667              		.loc 4 124 23 is_stmt 0 view .LVU2311
 8668 012c FFF7FEFF 		bl	dsy_gpio_write
 8669              	.LVL639:
ARM GAS  /var/folders/1y/_321xjh9623c014x9_qw12rr0000gn/T//ccXuncwa.s 			page 226


 125:../../libDaisy//src/dev/oled_ssd130x.h ****     };
 8670              		.loc 4 125 9 is_stmt 1 view .LVU2312
 125:../../libDaisy//src/dev/oled_ssd130x.h ****     };
 8671              		.loc 4 125 30 is_stmt 0 view .LVU2313
 8672 0130 2A46     		mov	r2, r5
 8673 0132 6423     		movs	r3, #100
 8674 0134 0DF10701 		add	r1, sp, #7
 8675 0138 2046     		mov	r0, r4
 8676 013a FFF7FEFF 		bl	_ZN5daisy9SpiHandle16BlockingTransmitEPhjm
 8677              	.LVL640:
 125:../../libDaisy//src/dev/oled_ssd130x.h ****     };
 8678              		.loc 4 125 30 view .LVU2314
 8679              	.LBE1912:
 8680              	.LBE1910:
 8681              	.LBB1913:
 8682              	.LBB1914:
 124:../../libDaisy//src/dev/oled_ssd130x.h ****         spi_.BlockingTransmit(&cmd, 1);
 8683              		.loc 4 124 23 view .LVU2315
 8684 013e 3946     		mov	r1, r7
 8685 0140 3046     		mov	r0, r6
 8686 0142 8DF80770 		strb	r7, [sp, #7]
 8687              	.LVL641:
 124:../../libDaisy//src/dev/oled_ssd130x.h ****         spi_.BlockingTransmit(&cmd, 1);
 8688              		.loc 4 124 23 view .LVU2316
 8689              	.LBE1914:
 8690              	.LBI1913:
 122:../../libDaisy//src/dev/oled_ssd130x.h ****     {
 8691              		.loc 4 122 10 is_stmt 1 view .LVU2317
 8692              	.LBB1915:
 124:../../libDaisy//src/dev/oled_ssd130x.h ****         spi_.BlockingTransmit(&cmd, 1);
 8693              		.loc 4 124 9 view .LVU2318
 124:../../libDaisy//src/dev/oled_ssd130x.h ****         spi_.BlockingTransmit(&cmd, 1);
 8694              		.loc 4 124 23 is_stmt 0 view .LVU2319
 8695 0146 FFF7FEFF 		bl	dsy_gpio_write
 8696              	.LVL642:
 125:../../libDaisy//src/dev/oled_ssd130x.h ****     };
 8697              		.loc 4 125 9 is_stmt 1 view .LVU2320
 125:../../libDaisy//src/dev/oled_ssd130x.h ****     };
 8698              		.loc 4 125 30 is_stmt 0 view .LVU2321
 8699 014a 2A46     		mov	r2, r5
 8700 014c 0DF10701 		add	r1, sp, #7
 8701 0150 6423     		movs	r3, #100
 8702 0152 2046     		mov	r0, r4
 8703 0154 FFF7FEFF 		bl	_ZN5daisy9SpiHandle16BlockingTransmitEPhjm
 8704              	.LVL643:
 125:../../libDaisy//src/dev/oled_ssd130x.h ****     };
 8705              		.loc 4 125 30 view .LVU2322
 8706 0158 4023     		movs	r3, #64
 8707              	.LBE1915:
 8708              	.LBE1913:
 8709              	.LBB1916:
 8710              	.LBB1917:
 124:../../libDaisy//src/dev/oled_ssd130x.h ****         spi_.BlockingTransmit(&cmd, 1);
 8711              		.loc 4 124 23 view .LVU2323
 8712 015a 3946     		mov	r1, r7
 8713 015c 3046     		mov	r0, r6
 8714 015e 8DF80730 		strb	r3, [sp, #7]
ARM GAS  /var/folders/1y/_321xjh9623c014x9_qw12rr0000gn/T//ccXuncwa.s 			page 227


 8715              	.LVL644:
 124:../../libDaisy//src/dev/oled_ssd130x.h ****         spi_.BlockingTransmit(&cmd, 1);
 8716              		.loc 4 124 23 view .LVU2324
 8717              	.LBE1917:
 8718              	.LBI1916:
 122:../../libDaisy//src/dev/oled_ssd130x.h ****     {
 8719              		.loc 4 122 10 is_stmt 1 view .LVU2325
 8720              	.LBB1918:
 124:../../libDaisy//src/dev/oled_ssd130x.h ****         spi_.BlockingTransmit(&cmd, 1);
 8721              		.loc 4 124 9 view .LVU2326
 124:../../libDaisy//src/dev/oled_ssd130x.h ****         spi_.BlockingTransmit(&cmd, 1);
 8722              		.loc 4 124 23 is_stmt 0 view .LVU2327
 8723 0162 FFF7FEFF 		bl	dsy_gpio_write
 8724              	.LVL645:
 125:../../libDaisy//src/dev/oled_ssd130x.h ****     };
 8725              		.loc 4 125 9 is_stmt 1 view .LVU2328
 125:../../libDaisy//src/dev/oled_ssd130x.h ****     };
 8726              		.loc 4 125 30 is_stmt 0 view .LVU2329
 8727 0166 2A46     		mov	r2, r5
 8728 0168 0DF10701 		add	r1, sp, #7
 8729 016c 6423     		movs	r3, #100
 8730 016e 2046     		mov	r0, r4
 8731 0170 FFF7FEFF 		bl	_ZN5daisy9SpiHandle16BlockingTransmitEPhjm
 8732              	.LVL646:
 125:../../libDaisy//src/dev/oled_ssd130x.h ****     };
 8733              		.loc 4 125 30 view .LVU2330
 8734 0174 A623     		movs	r3, #166
 8735              	.LBE1918:
 8736              	.LBE1916:
 8737              	.LBB1919:
 8738              	.LBB1920:
 124:../../libDaisy//src/dev/oled_ssd130x.h ****         spi_.BlockingTransmit(&cmd, 1);
 8739              		.loc 4 124 23 view .LVU2331
 8740 0176 3946     		mov	r1, r7
 8741 0178 3046     		mov	r0, r6
 8742 017a 8DF80730 		strb	r3, [sp, #7]
 8743              	.LVL647:
 124:../../libDaisy//src/dev/oled_ssd130x.h ****         spi_.BlockingTransmit(&cmd, 1);
 8744              		.loc 4 124 23 view .LVU2332
 8745              	.LBE1920:
 8746              	.LBI1919:
 122:../../libDaisy//src/dev/oled_ssd130x.h ****     {
 8747              		.loc 4 122 10 is_stmt 1 view .LVU2333
 8748              	.LBB1921:
 124:../../libDaisy//src/dev/oled_ssd130x.h ****         spi_.BlockingTransmit(&cmd, 1);
 8749              		.loc 4 124 9 view .LVU2334
 124:../../libDaisy//src/dev/oled_ssd130x.h ****         spi_.BlockingTransmit(&cmd, 1);
 8750              		.loc 4 124 23 is_stmt 0 view .LVU2335
 8751 017e FFF7FEFF 		bl	dsy_gpio_write
 8752              	.LVL648:
 125:../../libDaisy//src/dev/oled_ssd130x.h ****     };
 8753              		.loc 4 125 9 is_stmt 1 view .LVU2336
 125:../../libDaisy//src/dev/oled_ssd130x.h ****     };
 8754              		.loc 4 125 30 is_stmt 0 view .LVU2337
 8755 0182 2A46     		mov	r2, r5
 8756 0184 0DF10701 		add	r1, sp, #7
 8757 0188 6423     		movs	r3, #100
ARM GAS  /var/folders/1y/_321xjh9623c014x9_qw12rr0000gn/T//ccXuncwa.s 			page 228


 8758 018a 2046     		mov	r0, r4
 8759 018c FFF7FEFF 		bl	_ZN5daisy9SpiHandle16BlockingTransmitEPhjm
 8760              	.LVL649:
 125:../../libDaisy//src/dev/oled_ssd130x.h ****     };
 8761              		.loc 4 125 30 view .LVU2338
 8762 0190 A423     		movs	r3, #164
 8763              	.LBE1921:
 8764              	.LBE1919:
 8765              	.LBB1922:
 8766              	.LBB1923:
 124:../../libDaisy//src/dev/oled_ssd130x.h ****         spi_.BlockingTransmit(&cmd, 1);
 8767              		.loc 4 124 23 view .LVU2339
 8768 0192 3946     		mov	r1, r7
 8769 0194 3046     		mov	r0, r6
 8770 0196 8DF80730 		strb	r3, [sp, #7]
 8771              	.LVL650:
 124:../../libDaisy//src/dev/oled_ssd130x.h ****         spi_.BlockingTransmit(&cmd, 1);
 8772              		.loc 4 124 23 view .LVU2340
 8773              	.LBE1923:
 8774              	.LBI1922:
 122:../../libDaisy//src/dev/oled_ssd130x.h ****     {
 8775              		.loc 4 122 10 is_stmt 1 view .LVU2341
 8776              	.LBB1924:
 124:../../libDaisy//src/dev/oled_ssd130x.h ****         spi_.BlockingTransmit(&cmd, 1);
 8777              		.loc 4 124 9 view .LVU2342
 124:../../libDaisy//src/dev/oled_ssd130x.h ****         spi_.BlockingTransmit(&cmd, 1);
 8778              		.loc 4 124 23 is_stmt 0 view .LVU2343
 8779 019a FFF7FEFF 		bl	dsy_gpio_write
 8780              	.LVL651:
 125:../../libDaisy//src/dev/oled_ssd130x.h ****     };
 8781              		.loc 4 125 9 is_stmt 1 view .LVU2344
 125:../../libDaisy//src/dev/oled_ssd130x.h ****     };
 8782              		.loc 4 125 30 is_stmt 0 view .LVU2345
 8783 019e 2A46     		mov	r2, r5
 8784 01a0 0DF10701 		add	r1, sp, #7
 8785 01a4 6423     		movs	r3, #100
 8786 01a6 2046     		mov	r0, r4
 8787 01a8 FFF7FEFF 		bl	_ZN5daisy9SpiHandle16BlockingTransmitEPhjm
 8788              	.LVL652:
 125:../../libDaisy//src/dev/oled_ssd130x.h ****     };
 8789              		.loc 4 125 30 view .LVU2346
 8790 01ac 8D23     		movs	r3, #141
 8791              	.LBE1924:
 8792              	.LBE1922:
 8793              	.LBB1925:
 8794              	.LBB1926:
 124:../../libDaisy//src/dev/oled_ssd130x.h ****         spi_.BlockingTransmit(&cmd, 1);
 8795              		.loc 4 124 23 view .LVU2347
 8796 01ae 3946     		mov	r1, r7
 8797 01b0 3046     		mov	r0, r6
 8798 01b2 8DF80730 		strb	r3, [sp, #7]
 8799              	.LVL653:
 124:../../libDaisy//src/dev/oled_ssd130x.h ****         spi_.BlockingTransmit(&cmd, 1);
 8800              		.loc 4 124 23 view .LVU2348
 8801              	.LBE1926:
 8802              	.LBI1925:
 122:../../libDaisy//src/dev/oled_ssd130x.h ****     {
ARM GAS  /var/folders/1y/_321xjh9623c014x9_qw12rr0000gn/T//ccXuncwa.s 			page 229


 8803              		.loc 4 122 10 is_stmt 1 view .LVU2349
 8804              	.LBB1927:
 124:../../libDaisy//src/dev/oled_ssd130x.h ****         spi_.BlockingTransmit(&cmd, 1);
 8805              		.loc 4 124 9 view .LVU2350
 124:../../libDaisy//src/dev/oled_ssd130x.h ****         spi_.BlockingTransmit(&cmd, 1);
 8806              		.loc 4 124 23 is_stmt 0 view .LVU2351
 8807 01b6 FFF7FEFF 		bl	dsy_gpio_write
 8808              	.LVL654:
 125:../../libDaisy//src/dev/oled_ssd130x.h ****     };
 8809              		.loc 4 125 9 is_stmt 1 view .LVU2352
 125:../../libDaisy//src/dev/oled_ssd130x.h ****     };
 8810              		.loc 4 125 30 is_stmt 0 view .LVU2353
 8811 01ba 2A46     		mov	r2, r5
 8812 01bc 0DF10701 		add	r1, sp, #7
 8813 01c0 6423     		movs	r3, #100
 8814 01c2 2046     		mov	r0, r4
 8815 01c4 FFF7FEFF 		bl	_ZN5daisy9SpiHandle16BlockingTransmitEPhjm
 8816              	.LVL655:
 125:../../libDaisy//src/dev/oled_ssd130x.h ****     };
 8817              		.loc 4 125 30 view .LVU2354
 8818 01c8 1423     		movs	r3, #20
 8819              	.LBE1927:
 8820              	.LBE1925:
 8821              	.LBB1928:
 8822              	.LBB1929:
 124:../../libDaisy//src/dev/oled_ssd130x.h ****         spi_.BlockingTransmit(&cmd, 1);
 8823              		.loc 4 124 23 view .LVU2355
 8824 01ca 3946     		mov	r1, r7
 8825 01cc 3046     		mov	r0, r6
 8826 01ce 8DF80730 		strb	r3, [sp, #7]
 8827              	.LVL656:
 124:../../libDaisy//src/dev/oled_ssd130x.h ****         spi_.BlockingTransmit(&cmd, 1);
 8828              		.loc 4 124 23 view .LVU2356
 8829              	.LBE1929:
 8830              	.LBI1928:
 122:../../libDaisy//src/dev/oled_ssd130x.h ****     {
 8831              		.loc 4 122 10 is_stmt 1 view .LVU2357
 8832              	.LBB1930:
 124:../../libDaisy//src/dev/oled_ssd130x.h ****         spi_.BlockingTransmit(&cmd, 1);
 8833              		.loc 4 124 9 view .LVU2358
 124:../../libDaisy//src/dev/oled_ssd130x.h ****         spi_.BlockingTransmit(&cmd, 1);
 8834              		.loc 4 124 23 is_stmt 0 view .LVU2359
 8835 01d2 FFF7FEFF 		bl	dsy_gpio_write
 8836              	.LVL657:
 125:../../libDaisy//src/dev/oled_ssd130x.h ****     };
 8837              		.loc 4 125 9 is_stmt 1 view .LVU2360
 125:../../libDaisy//src/dev/oled_ssd130x.h ****     };
 8838              		.loc 4 125 30 is_stmt 0 view .LVU2361
 8839 01d6 2A46     		mov	r2, r5
 8840 01d8 0DF10701 		add	r1, sp, #7
 8841 01dc 6423     		movs	r3, #100
 8842 01de 2046     		mov	r0, r4
 8843 01e0 FFF7FEFF 		bl	_ZN5daisy9SpiHandle16BlockingTransmitEPhjm
 8844              	.LVL658:
 125:../../libDaisy//src/dev/oled_ssd130x.h ****     };
 8845              		.loc 4 125 30 view .LVU2362
 8846 01e4 A123     		movs	r3, #161
ARM GAS  /var/folders/1y/_321xjh9623c014x9_qw12rr0000gn/T//ccXuncwa.s 			page 230


 8847              	.LBE1930:
 8848              	.LBE1928:
 8849              	.LBB1931:
 8850              	.LBB1932:
 124:../../libDaisy//src/dev/oled_ssd130x.h ****         spi_.BlockingTransmit(&cmd, 1);
 8851              		.loc 4 124 23 view .LVU2363
 8852 01e6 3946     		mov	r1, r7
 8853 01e8 3046     		mov	r0, r6
 8854 01ea 8DF80730 		strb	r3, [sp, #7]
 8855              	.LVL659:
 124:../../libDaisy//src/dev/oled_ssd130x.h ****         spi_.BlockingTransmit(&cmd, 1);
 8856              		.loc 4 124 23 view .LVU2364
 8857              	.LBE1932:
 8858              	.LBI1931:
 122:../../libDaisy//src/dev/oled_ssd130x.h ****     {
 8859              		.loc 4 122 10 is_stmt 1 view .LVU2365
 8860              	.LBB1933:
 124:../../libDaisy//src/dev/oled_ssd130x.h ****         spi_.BlockingTransmit(&cmd, 1);
 8861              		.loc 4 124 9 view .LVU2366
 124:../../libDaisy//src/dev/oled_ssd130x.h ****         spi_.BlockingTransmit(&cmd, 1);
 8862              		.loc 4 124 23 is_stmt 0 view .LVU2367
 8863 01ee FFF7FEFF 		bl	dsy_gpio_write
 8864              	.LVL660:
 125:../../libDaisy//src/dev/oled_ssd130x.h ****     };
 8865              		.loc 4 125 9 is_stmt 1 view .LVU2368
 125:../../libDaisy//src/dev/oled_ssd130x.h ****     };
 8866              		.loc 4 125 30 is_stmt 0 view .LVU2369
 8867 01f2 2A46     		mov	r2, r5
 8868 01f4 0DF10701 		add	r1, sp, #7
 8869 01f8 6423     		movs	r3, #100
 8870 01fa 2046     		mov	r0, r4
 8871 01fc FFF7FEFF 		bl	_ZN5daisy9SpiHandle16BlockingTransmitEPhjm
 8872              	.LVL661:
 125:../../libDaisy//src/dev/oled_ssd130x.h ****     };
 8873              		.loc 4 125 30 view .LVU2370
 8874 0200 C823     		movs	r3, #200
 8875              	.LBE1933:
 8876              	.LBE1931:
 8877              	.LBB1934:
 8878              	.LBB1935:
 124:../../libDaisy//src/dev/oled_ssd130x.h ****         spi_.BlockingTransmit(&cmd, 1);
 8879              		.loc 4 124 23 view .LVU2371
 8880 0202 3946     		mov	r1, r7
 8881 0204 3046     		mov	r0, r6
 8882 0206 8DF80730 		strb	r3, [sp, #7]
 8883              	.LVL662:
 124:../../libDaisy//src/dev/oled_ssd130x.h ****         spi_.BlockingTransmit(&cmd, 1);
 8884              		.loc 4 124 23 view .LVU2372
 8885              	.LBE1935:
 8886              	.LBI1934:
 122:../../libDaisy//src/dev/oled_ssd130x.h ****     {
 8887              		.loc 4 122 10 is_stmt 1 view .LVU2373
 8888              	.LBB1936:
 124:../../libDaisy//src/dev/oled_ssd130x.h ****         spi_.BlockingTransmit(&cmd, 1);
 8889              		.loc 4 124 9 view .LVU2374
 124:../../libDaisy//src/dev/oled_ssd130x.h ****         spi_.BlockingTransmit(&cmd, 1);
 8890              		.loc 4 124 23 is_stmt 0 view .LVU2375
ARM GAS  /var/folders/1y/_321xjh9623c014x9_qw12rr0000gn/T//ccXuncwa.s 			page 231


 8891 020a FFF7FEFF 		bl	dsy_gpio_write
 8892              	.LVL663:
 125:../../libDaisy//src/dev/oled_ssd130x.h ****     };
 8893              		.loc 4 125 9 is_stmt 1 view .LVU2376
 125:../../libDaisy//src/dev/oled_ssd130x.h ****     };
 8894              		.loc 4 125 30 is_stmt 0 view .LVU2377
 8895 020e 2A46     		mov	r2, r5
 8896 0210 0DF10701 		add	r1, sp, #7
 8897 0214 6423     		movs	r3, #100
 8898 0216 2046     		mov	r0, r4
 8899 0218 FFF7FEFF 		bl	_ZN5daisy9SpiHandle16BlockingTransmitEPhjm
 8900              	.LVL664:
 125:../../libDaisy//src/dev/oled_ssd130x.h ****     };
 8901              		.loc 4 125 30 view .LVU2378
 8902 021c 8123     		movs	r3, #129
 8903              	.LBE1936:
 8904              	.LBE1934:
 8905              	.LBB1937:
 8906              	.LBB1938:
 124:../../libDaisy//src/dev/oled_ssd130x.h ****         spi_.BlockingTransmit(&cmd, 1);
 8907              		.loc 4 124 23 view .LVU2379
 8908 021e 3946     		mov	r1, r7
 8909 0220 3046     		mov	r0, r6
 8910 0222 8DF80730 		strb	r3, [sp, #7]
 8911              	.LVL665:
 124:../../libDaisy//src/dev/oled_ssd130x.h ****         spi_.BlockingTransmit(&cmd, 1);
 8912              		.loc 4 124 23 view .LVU2380
 8913              	.LBE1938:
 8914              	.LBI1937:
 122:../../libDaisy//src/dev/oled_ssd130x.h ****     {
 8915              		.loc 4 122 10 is_stmt 1 view .LVU2381
 8916              	.LBB1939:
 124:../../libDaisy//src/dev/oled_ssd130x.h ****         spi_.BlockingTransmit(&cmd, 1);
 8917              		.loc 4 124 9 view .LVU2382
 124:../../libDaisy//src/dev/oled_ssd130x.h ****         spi_.BlockingTransmit(&cmd, 1);
 8918              		.loc 4 124 23 is_stmt 0 view .LVU2383
 8919 0226 FFF7FEFF 		bl	dsy_gpio_write
 8920              	.LVL666:
 125:../../libDaisy//src/dev/oled_ssd130x.h ****     };
 8921              		.loc 4 125 9 is_stmt 1 view .LVU2384
 125:../../libDaisy//src/dev/oled_ssd130x.h ****     };
 8922              		.loc 4 125 30 is_stmt 0 view .LVU2385
 8923 022a 2A46     		mov	r2, r5
 8924 022c 0DF10701 		add	r1, sp, #7
 8925 0230 6423     		movs	r3, #100
 8926 0232 2046     		mov	r0, r4
 8927 0234 FFF7FEFF 		bl	_ZN5daisy9SpiHandle16BlockingTransmitEPhjm
 8928              	.LVL667:
 125:../../libDaisy//src/dev/oled_ssd130x.h ****     };
 8929              		.loc 4 125 30 view .LVU2386
 8930 0238 8F23     		movs	r3, #143
 8931              	.LBE1939:
 8932              	.LBE1937:
 8933              	.LBB1940:
 8934              	.LBB1941:
 124:../../libDaisy//src/dev/oled_ssd130x.h ****         spi_.BlockingTransmit(&cmd, 1);
 8935              		.loc 4 124 23 view .LVU2387
ARM GAS  /var/folders/1y/_321xjh9623c014x9_qw12rr0000gn/T//ccXuncwa.s 			page 232


 8936 023a 3946     		mov	r1, r7
 8937 023c 3046     		mov	r0, r6
 8938 023e 8DF80730 		strb	r3, [sp, #7]
 8939              	.LVL668:
 124:../../libDaisy//src/dev/oled_ssd130x.h ****         spi_.BlockingTransmit(&cmd, 1);
 8940              		.loc 4 124 23 view .LVU2388
 8941              	.LBE1941:
 8942              	.LBI1940:
 122:../../libDaisy//src/dev/oled_ssd130x.h ****     {
 8943              		.loc 4 122 10 is_stmt 1 view .LVU2389
 8944              	.LBB1942:
 124:../../libDaisy//src/dev/oled_ssd130x.h ****         spi_.BlockingTransmit(&cmd, 1);
 8945              		.loc 4 124 9 view .LVU2390
 124:../../libDaisy//src/dev/oled_ssd130x.h ****         spi_.BlockingTransmit(&cmd, 1);
 8946              		.loc 4 124 23 is_stmt 0 view .LVU2391
 8947 0242 FFF7FEFF 		bl	dsy_gpio_write
 8948              	.LVL669:
 125:../../libDaisy//src/dev/oled_ssd130x.h ****     };
 8949              		.loc 4 125 9 is_stmt 1 view .LVU2392
 125:../../libDaisy//src/dev/oled_ssd130x.h ****     };
 8950              		.loc 4 125 30 is_stmt 0 view .LVU2393
 8951 0246 2A46     		mov	r2, r5
 8952 0248 0DF10701 		add	r1, sp, #7
 8953 024c 6423     		movs	r3, #100
 8954 024e 2046     		mov	r0, r4
 8955 0250 FFF7FEFF 		bl	_ZN5daisy9SpiHandle16BlockingTransmitEPhjm
 8956              	.LVL670:
 125:../../libDaisy//src/dev/oled_ssd130x.h ****     };
 8957              		.loc 4 125 30 view .LVU2394
 8958 0254 D923     		movs	r3, #217
 8959              	.LBE1942:
 8960              	.LBE1940:
 8961              	.LBB1943:
 8962              	.LBB1944:
 124:../../libDaisy//src/dev/oled_ssd130x.h ****         spi_.BlockingTransmit(&cmd, 1);
 8963              		.loc 4 124 23 view .LVU2395
 8964 0256 3946     		mov	r1, r7
 8965 0258 3046     		mov	r0, r6
 8966 025a 8DF80730 		strb	r3, [sp, #7]
 8967              	.LVL671:
 124:../../libDaisy//src/dev/oled_ssd130x.h ****         spi_.BlockingTransmit(&cmd, 1);
 8968              		.loc 4 124 23 view .LVU2396
 8969              	.LBE1944:
 8970              	.LBI1943:
 122:../../libDaisy//src/dev/oled_ssd130x.h ****     {
 8971              		.loc 4 122 10 is_stmt 1 view .LVU2397
 8972              	.LBB1945:
 124:../../libDaisy//src/dev/oled_ssd130x.h ****         spi_.BlockingTransmit(&cmd, 1);
 8973              		.loc 4 124 9 view .LVU2398
 124:../../libDaisy//src/dev/oled_ssd130x.h ****         spi_.BlockingTransmit(&cmd, 1);
 8974              		.loc 4 124 23 is_stmt 0 view .LVU2399
 8975 025e FFF7FEFF 		bl	dsy_gpio_write
 8976              	.LVL672:
 125:../../libDaisy//src/dev/oled_ssd130x.h ****     };
 8977              		.loc 4 125 9 is_stmt 1 view .LVU2400
 125:../../libDaisy//src/dev/oled_ssd130x.h ****     };
 8978              		.loc 4 125 30 is_stmt 0 view .LVU2401
ARM GAS  /var/folders/1y/_321xjh9623c014x9_qw12rr0000gn/T//ccXuncwa.s 			page 233


 8979 0262 2A46     		mov	r2, r5
 8980 0264 0DF10701 		add	r1, sp, #7
 8981 0268 6423     		movs	r3, #100
 8982 026a 2046     		mov	r0, r4
 8983 026c FFF7FEFF 		bl	_ZN5daisy9SpiHandle16BlockingTransmitEPhjm
 8984              	.LVL673:
 125:../../libDaisy//src/dev/oled_ssd130x.h ****     };
 8985              		.loc 4 125 30 view .LVU2402
 8986 0270 2523     		movs	r3, #37
 8987              	.LBE1945:
 8988              	.LBE1943:
 8989              	.LBB1946:
 8990              	.LBB1947:
 124:../../libDaisy//src/dev/oled_ssd130x.h ****         spi_.BlockingTransmit(&cmd, 1);
 8991              		.loc 4 124 23 view .LVU2403
 8992 0272 3946     		mov	r1, r7
 8993 0274 3046     		mov	r0, r6
 8994 0276 8DF80730 		strb	r3, [sp, #7]
 8995              	.LVL674:
 124:../../libDaisy//src/dev/oled_ssd130x.h ****         spi_.BlockingTransmit(&cmd, 1);
 8996              		.loc 4 124 23 view .LVU2404
 8997              	.LBE1947:
 8998              	.LBI1946:
 122:../../libDaisy//src/dev/oled_ssd130x.h ****     {
 8999              		.loc 4 122 10 is_stmt 1 view .LVU2405
 9000              	.LBB1948:
 124:../../libDaisy//src/dev/oled_ssd130x.h ****         spi_.BlockingTransmit(&cmd, 1);
 9001              		.loc 4 124 9 view .LVU2406
 124:../../libDaisy//src/dev/oled_ssd130x.h ****         spi_.BlockingTransmit(&cmd, 1);
 9002              		.loc 4 124 23 is_stmt 0 view .LVU2407
 9003 027a FFF7FEFF 		bl	dsy_gpio_write
 9004              	.LVL675:
 125:../../libDaisy//src/dev/oled_ssd130x.h ****     };
 9005              		.loc 4 125 9 is_stmt 1 view .LVU2408
 125:../../libDaisy//src/dev/oled_ssd130x.h ****     };
 9006              		.loc 4 125 30 is_stmt 0 view .LVU2409
 9007 027e 2A46     		mov	r2, r5
 9008 0280 0DF10701 		add	r1, sp, #7
 9009 0284 6423     		movs	r3, #100
 9010 0286 2046     		mov	r0, r4
 9011 0288 FFF7FEFF 		bl	_ZN5daisy9SpiHandle16BlockingTransmitEPhjm
 9012              	.LVL676:
 125:../../libDaisy//src/dev/oled_ssd130x.h ****     };
 9013              		.loc 4 125 30 view .LVU2410
 9014 028c DB23     		movs	r3, #219
 9015              	.LBE1948:
 9016              	.LBE1946:
 9017              	.LBB1949:
 9018              	.LBB1950:
 124:../../libDaisy//src/dev/oled_ssd130x.h ****         spi_.BlockingTransmit(&cmd, 1);
 9019              		.loc 4 124 23 view .LVU2411
 9020 028e 3946     		mov	r1, r7
 9021 0290 3046     		mov	r0, r6
 9022 0292 8DF80730 		strb	r3, [sp, #7]
 9023              	.LVL677:
 124:../../libDaisy//src/dev/oled_ssd130x.h ****         spi_.BlockingTransmit(&cmd, 1);
 9024              		.loc 4 124 23 view .LVU2412
ARM GAS  /var/folders/1y/_321xjh9623c014x9_qw12rr0000gn/T//ccXuncwa.s 			page 234


 9025              	.LBE1950:
 9026              	.LBI1949:
 122:../../libDaisy//src/dev/oled_ssd130x.h ****     {
 9027              		.loc 4 122 10 is_stmt 1 view .LVU2413
 9028              	.LBB1951:
 124:../../libDaisy//src/dev/oled_ssd130x.h ****         spi_.BlockingTransmit(&cmd, 1);
 9029              		.loc 4 124 9 view .LVU2414
 124:../../libDaisy//src/dev/oled_ssd130x.h ****         spi_.BlockingTransmit(&cmd, 1);
 9030              		.loc 4 124 23 is_stmt 0 view .LVU2415
 9031 0296 FFF7FEFF 		bl	dsy_gpio_write
 9032              	.LVL678:
 125:../../libDaisy//src/dev/oled_ssd130x.h ****     };
 9033              		.loc 4 125 9 is_stmt 1 view .LVU2416
 125:../../libDaisy//src/dev/oled_ssd130x.h ****     };
 9034              		.loc 4 125 30 is_stmt 0 view .LVU2417
 9035 029a 2A46     		mov	r2, r5
 9036 029c 0DF10701 		add	r1, sp, #7
 9037 02a0 6423     		movs	r3, #100
 9038 02a2 2046     		mov	r0, r4
 9039 02a4 FFF7FEFF 		bl	_ZN5daisy9SpiHandle16BlockingTransmitEPhjm
 9040              	.LVL679:
 125:../../libDaisy//src/dev/oled_ssd130x.h ****     };
 9041              		.loc 4 125 30 view .LVU2418
 9042 02a8 3423     		movs	r3, #52
 9043              	.LBE1951:
 9044              	.LBE1949:
 9045              	.LBB1952:
 9046              	.LBB1953:
 124:../../libDaisy//src/dev/oled_ssd130x.h ****         spi_.BlockingTransmit(&cmd, 1);
 9047              		.loc 4 124 23 view .LVU2419
 9048 02aa 3946     		mov	r1, r7
 9049 02ac 3046     		mov	r0, r6
 9050 02ae 8DF80730 		strb	r3, [sp, #7]
 9051              	.LVL680:
 124:../../libDaisy//src/dev/oled_ssd130x.h ****         spi_.BlockingTransmit(&cmd, 1);
 9052              		.loc 4 124 23 view .LVU2420
 9053              	.LBE1953:
 9054              	.LBI1952:
 122:../../libDaisy//src/dev/oled_ssd130x.h ****     {
 9055              		.loc 4 122 10 is_stmt 1 view .LVU2421
 9056              	.LBB1954:
 124:../../libDaisy//src/dev/oled_ssd130x.h ****         spi_.BlockingTransmit(&cmd, 1);
 9057              		.loc 4 124 9 view .LVU2422
 124:../../libDaisy//src/dev/oled_ssd130x.h ****         spi_.BlockingTransmit(&cmd, 1);
 9058              		.loc 4 124 23 is_stmt 0 view .LVU2423
 9059 02b2 FFF7FEFF 		bl	dsy_gpio_write
 9060              	.LVL681:
 125:../../libDaisy//src/dev/oled_ssd130x.h ****     };
 9061              		.loc 4 125 9 is_stmt 1 view .LVU2424
 125:../../libDaisy//src/dev/oled_ssd130x.h ****     };
 9062              		.loc 4 125 30 is_stmt 0 view .LVU2425
 9063 02b6 2A46     		mov	r2, r5
 9064 02b8 0DF10701 		add	r1, sp, #7
 9065 02bc 6423     		movs	r3, #100
 9066 02be 2046     		mov	r0, r4
 9067 02c0 FFF7FEFF 		bl	_ZN5daisy9SpiHandle16BlockingTransmitEPhjm
 9068              	.LVL682:
ARM GAS  /var/folders/1y/_321xjh9623c014x9_qw12rr0000gn/T//ccXuncwa.s 			page 235


 125:../../libDaisy//src/dev/oled_ssd130x.h ****     };
 9069              		.loc 4 125 30 view .LVU2426
 9070 02c4 AF23     		movs	r3, #175
 9071              	.LBE1954:
 9072              	.LBE1952:
 9073              	.LBB1955:
 9074              	.LBB1956:
 124:../../libDaisy//src/dev/oled_ssd130x.h ****         spi_.BlockingTransmit(&cmd, 1);
 9075              		.loc 4 124 23 view .LVU2427
 9076 02c6 3946     		mov	r1, r7
 9077 02c8 3046     		mov	r0, r6
 9078 02ca 8DF80730 		strb	r3, [sp, #7]
 9079              	.LVL683:
 124:../../libDaisy//src/dev/oled_ssd130x.h ****         spi_.BlockingTransmit(&cmd, 1);
 9080              		.loc 4 124 23 view .LVU2428
 9081              	.LBE1956:
 9082              	.LBI1955:
 122:../../libDaisy//src/dev/oled_ssd130x.h ****     {
 9083              		.loc 4 122 10 is_stmt 1 view .LVU2429
 9084              	.LBB1957:
 124:../../libDaisy//src/dev/oled_ssd130x.h ****         spi_.BlockingTransmit(&cmd, 1);
 9085              		.loc 4 124 9 view .LVU2430
 124:../../libDaisy//src/dev/oled_ssd130x.h ****         spi_.BlockingTransmit(&cmd, 1);
 9086              		.loc 4 124 23 is_stmt 0 view .LVU2431
 9087 02ce FFF7FEFF 		bl	dsy_gpio_write
 9088              	.LVL684:
 125:../../libDaisy//src/dev/oled_ssd130x.h ****     };
 9089              		.loc 4 125 9 is_stmt 1 view .LVU2432
 125:../../libDaisy//src/dev/oled_ssd130x.h ****     };
 9090              		.loc 4 125 30 is_stmt 0 view .LVU2433
 9091 02d2 6423     		movs	r3, #100
 9092 02d4 2A46     		mov	r2, r5
 9093 02d6 0DF10701 		add	r1, sp, #7
 9094 02da 2046     		mov	r0, r4
 9095 02dc FFF7FEFF 		bl	_ZN5daisy9SpiHandle16BlockingTransmitEPhjm
 9096              	.LVL685:
 125:../../libDaisy//src/dev/oled_ssd130x.h ****     };
 9097              		.loc 4 125 30 view .LVU2434
 9098              	.LBE1957:
 9099              	.LBE1955:
 347:../../libDaisy//src/dev/oled_ssd130x.h **** 
 9100              		.loc 4 347 5 view .LVU2435
 9101 02e0 02B0     		add	sp, sp, #8
 9102              		.cfi_def_cfa_offset 40
 9103              		@ sp needed
 9104 02e2 BDE8F041 		pop	{r4, r5, r6, r7, r8, lr}
 9105              		.cfi_restore 14
 9106              		.cfi_restore 8
 9107              		.cfi_restore 7
 9108              		.cfi_restore 6
 9109              		.cfi_restore 5
 9110              		.cfi_restore 4
 9111              		.cfi_def_cfa_offset 16
 9112              	.LVL686:
 347:../../libDaisy//src/dev/oled_ssd130x.h **** 
 9113              		.loc 4 347 5 view .LVU2436
 9114 02e6 04B0     		add	sp, sp, #16
ARM GAS  /var/folders/1y/_321xjh9623c014x9_qw12rr0000gn/T//ccXuncwa.s 			page 236


 9115              		.cfi_def_cfa_offset 0
 9116 02e8 7047     		bx	lr
 9117              		.cfi_endproc
 9118              	.LFE2640:
 9120 02ea 00BF     		.section	.text._ZN5daisy5Dubby11InitDisplayEv,"ax",%progbits
 9121              		.align	1
 9122              		.p2align 2,,3
 9123              		.global	_ZN5daisy5Dubby11InitDisplayEv
 9124              		.syntax unified
 9125              		.thumb
 9126              		.thumb_func
 9128              	_ZN5daisy5Dubby11InitDisplayEv:
 9129              	.LVL687:
 9130              	.LFB2571:
  98:Dubby.cpp     **** {
 9131              		.loc 2 98 1 is_stmt 1 view -0
 9132              		.cfi_startproc
 9133              		@ args = 0, pretend = 0, frame = 88
 9134              		@ frame_needed = 0, uses_anonymous_args = 0
 100:Dubby.cpp     ****     OledDisplay<SSD130x4WireSpi128x64Driver>::Config disp_cfg;
 9135              		.loc 2 100 5 view .LVU2438
  98:Dubby.cpp     **** {
 9136              		.loc 2 98 1 is_stmt 0 view .LVU2439
 9137 0000 F0B5     		push	{r4, r5, r6, r7, lr}
 9138              		.cfi_def_cfa_offset 20
 9139              		.cfi_offset 4, -20
 9140              		.cfi_offset 5, -16
 9141              		.cfi_offset 6, -12
 9142              		.cfi_offset 7, -8
 9143              		.cfi_offset 14, -4
 9144              	.LBB1970:
 9145              	.LBB1971:
 9146              	.LBB1972:
 9147              	.LBB1973:
  71:../../libDaisy//src/dev/oled_ssd130x.h ****             // Initialize using defaults
 9148              		.loc 4 71 9 view .LVU2440
 9149 0002 40F60632 		movw	r2, #2822
 9150              	.LBE1973:
 9151              	.LBE1972:
 9152              	.LBE1971:
 9153              	.LBE1970:
  98:Dubby.cpp     **** {
 9154              		.loc 2 98 1 view .LVU2441
 9155 0006 9FB0     		sub	sp, sp, #124
 9156              		.cfi_def_cfa_offset 144
 9157              	.LVL688:
 9158              	.LBB1988:
 9159              	.LBI1970:
  20:../../libDaisy//src/hid/disp/oled_display.h ****     {
 9160              		.loc 1 20 12 is_stmt 1 view .LVU2442
 9161              	.LBB1984:
 9162              	.LBI1971:
 248:../../libDaisy//src/dev/oled_ssd130x.h ****     {
 9163              		.loc 4 248 12 view .LVU2443
 9164              	.LBB1980:
 9165              	.LBI1972:
  70:../../libDaisy//src/dev/oled_ssd130x.h ****         {
ARM GAS  /var/folders/1y/_321xjh9623c014x9_qw12rr0000gn/T//ccXuncwa.s 			page 237


 9166              		.loc 4 70 9 view .LVU2444
 9167              	.LBB1976:
 9168              	.LBB1974:
 9169              	.LBI1974:
 9170              		.file 14 "../../libDaisy//src/per/spi.h"
   1:../../libDaisy//src/per/spi.h **** #pragma once
   2:../../libDaisy//src/per/spi.h **** #ifndef DSY_SPI_H
   3:../../libDaisy//src/per/spi.h **** #define DSY_SPI_H
   4:../../libDaisy//src/per/spi.h **** 
   5:../../libDaisy//src/per/spi.h **** #include "daisy_core.h"
   6:../../libDaisy//src/per/spi.h **** 
   7:../../libDaisy//src/per/spi.h **** /* TODO:
   8:../../libDaisy//src/per/spi.h **** - Add documentation
   9:../../libDaisy//src/per/spi.h **** - Add IT
  10:../../libDaisy//src/per/spi.h **** */
  11:../../libDaisy//src/per/spi.h **** 
  12:../../libDaisy//src/per/spi.h **** namespace daisy
  13:../../libDaisy//src/per/spi.h **** {
  14:../../libDaisy//src/per/spi.h **** /** @addtogroup serial
  15:../../libDaisy//src/per/spi.h **** @{
  16:../../libDaisy//src/per/spi.h **** */
  17:../../libDaisy//src/per/spi.h **** 
  18:../../libDaisy//src/per/spi.h **** /**  Handler for serial peripheral interface */
  19:../../libDaisy//src/per/spi.h **** class SpiHandle
  20:../../libDaisy//src/per/spi.h **** {
  21:../../libDaisy//src/per/spi.h ****   public:
  22:../../libDaisy//src/per/spi.h ****     struct Config
  23:../../libDaisy//src/per/spi.h ****     {
  24:../../libDaisy//src/per/spi.h ****         enum class Peripheral
  25:../../libDaisy//src/per/spi.h ****         {
  26:../../libDaisy//src/per/spi.h ****             SPI_1,
  27:../../libDaisy//src/per/spi.h ****             SPI_2,
  28:../../libDaisy//src/per/spi.h ****             SPI_3,
  29:../../libDaisy//src/per/spi.h ****             SPI_4,
  30:../../libDaisy//src/per/spi.h ****             SPI_5,
  31:../../libDaisy//src/per/spi.h ****             SPI_6,
  32:../../libDaisy//src/per/spi.h ****         };
  33:../../libDaisy//src/per/spi.h **** 
  34:../../libDaisy//src/per/spi.h ****         enum class Mode
  35:../../libDaisy//src/per/spi.h ****         {
  36:../../libDaisy//src/per/spi.h ****             MASTER,
  37:../../libDaisy//src/per/spi.h ****             SLAVE,
  38:../../libDaisy//src/per/spi.h ****         };
  39:../../libDaisy//src/per/spi.h **** 
  40:../../libDaisy//src/per/spi.h ****         enum class Direction
  41:../../libDaisy//src/per/spi.h ****         {
  42:../../libDaisy//src/per/spi.h ****             TWO_LINES,
  43:../../libDaisy//src/per/spi.h ****             TWO_LINES_TX_ONLY,
  44:../../libDaisy//src/per/spi.h ****             TWO_LINES_RX_ONLY,
  45:../../libDaisy//src/per/spi.h ****             ONE_LINE,
  46:../../libDaisy//src/per/spi.h ****         };
  47:../../libDaisy//src/per/spi.h **** 
  48:../../libDaisy//src/per/spi.h ****         enum class ClockPolarity
  49:../../libDaisy//src/per/spi.h ****         {
  50:../../libDaisy//src/per/spi.h ****             LOW,
  51:../../libDaisy//src/per/spi.h ****             HIGH,
  52:../../libDaisy//src/per/spi.h ****         };
ARM GAS  /var/folders/1y/_321xjh9623c014x9_qw12rr0000gn/T//ccXuncwa.s 			page 238


  53:../../libDaisy//src/per/spi.h **** 
  54:../../libDaisy//src/per/spi.h ****         enum class ClockPhase
  55:../../libDaisy//src/per/spi.h ****         {
  56:../../libDaisy//src/per/spi.h ****             ONE_EDGE,
  57:../../libDaisy//src/per/spi.h ****             TWO_EDGE,
  58:../../libDaisy//src/per/spi.h ****         };
  59:../../libDaisy//src/per/spi.h **** 
  60:../../libDaisy//src/per/spi.h ****         enum class NSS
  61:../../libDaisy//src/per/spi.h ****         {
  62:../../libDaisy//src/per/spi.h ****             SOFT,
  63:../../libDaisy//src/per/spi.h ****             HARD_INPUT,
  64:../../libDaisy//src/per/spi.h ****             HARD_OUTPUT,
  65:../../libDaisy//src/per/spi.h ****         };
  66:../../libDaisy//src/per/spi.h **** 
  67:../../libDaisy//src/per/spi.h ****         enum class BaudPrescaler
  68:../../libDaisy//src/per/spi.h ****         {
  69:../../libDaisy//src/per/spi.h ****             PS_2,
  70:../../libDaisy//src/per/spi.h ****             PS_4,
  71:../../libDaisy//src/per/spi.h ****             PS_8,
  72:../../libDaisy//src/per/spi.h ****             PS_16,
  73:../../libDaisy//src/per/spi.h ****             PS_32,
  74:../../libDaisy//src/per/spi.h ****             PS_64,
  75:../../libDaisy//src/per/spi.h ****             PS_128,
  76:../../libDaisy//src/per/spi.h ****             PS_256,
  77:../../libDaisy//src/per/spi.h ****         };
  78:../../libDaisy//src/per/spi.h **** 
  79:../../libDaisy//src/per/spi.h ****         struct
  80:../../libDaisy//src/per/spi.h ****         {
  81:../../libDaisy//src/per/spi.h ****             dsy_gpio_pin sclk; /**< & */
  82:../../libDaisy//src/per/spi.h ****             dsy_gpio_pin miso; /**< & */
  83:../../libDaisy//src/per/spi.h ****             dsy_gpio_pin mosi; /**< & */
  84:../../libDaisy//src/per/spi.h ****             dsy_gpio_pin nss;  /**< & */
  85:../../libDaisy//src/per/spi.h ****         } pin_config;
  86:../../libDaisy//src/per/spi.h **** 
  87:../../libDaisy//src/per/spi.h ****         Config()
 9171              		.loc 14 87 9 view .LVU2445
 9172              	.LBE1974:
 9173              	.LBE1976:
 9174              	.LBE1980:
 9175              	.LBE1984:
 9176              	.LBE1988:
  88:../../libDaisy//src/per/spi.h ****         {
  89:../../libDaisy//src/per/spi.h ****             // user must specify periph, mode, direction, nss, and pin_config
  90:../../libDaisy//src/per/spi.h ****             datasize       = 8;
 9177              		.loc 14 90 13 view .LVU2446
  91:../../libDaisy//src/per/spi.h ****             clock_polarity = ClockPolarity::LOW;
 9178              		.loc 14 91 13 view .LVU2447
  92:../../libDaisy//src/per/spi.h ****             clock_phase    = ClockPhase::ONE_EDGE;
 9179              		.loc 14 92 13 view .LVU2448
  93:../../libDaisy//src/per/spi.h ****             baud_prescaler = BaudPrescaler::PS_8;
 9180              		.loc 14 93 13 view .LVU2449
  73:../../libDaisy//src/dev/oled_ssd130x.h ****         }
 9181              		.loc 4 73 13 view .LVU2450
 9182              	.LBB1989:
 9183              	.LBB1985:
 9184              	.LBB1981:
 9185              	.LBB1977:
ARM GAS  /var/folders/1y/_321xjh9623c014x9_qw12rr0000gn/T//ccXuncwa.s 			page 239


 9186              	.LBB1975:
 9187              	.LBI1975:
  81:../../libDaisy//src/dev/oled_ssd130x.h ****         {
 9188              		.loc 4 81 14 view .LVU2451
 9189              	.LBE1975:
 9190              	.LBE1977:
 9191              	.LBE1981:
 9192              	.LBE1985:
 9193              	.LBE1989:
  84:../../libDaisy//src/dev/oled_ssd130x.h ****             spi_config.mode   = SpiHandle::Config::Mode::MASTER;
 9194              		.loc 4 84 13 view .LVU2452
  85:../../libDaisy//src/dev/oled_ssd130x.h ****             spi_config.direction
 9195              		.loc 4 85 13 view .LVU2453
  86:../../libDaisy//src/dev/oled_ssd130x.h ****                 = SpiHandle::Config::Direction::TWO_LINES_TX_ONLY;
 9196              		.loc 4 86 13 view .LVU2454
  88:../../libDaisy//src/dev/oled_ssd130x.h ****             spi_config.clock_polarity = SpiHandle::Config::ClockPolarity::LOW;
 9197              		.loc 4 88 13 view .LVU2455
  89:../../libDaisy//src/dev/oled_ssd130x.h ****             spi_config.clock_phase    = SpiHandle::Config::ClockPhase::ONE_EDGE;
 9198              		.loc 4 89 13 view .LVU2456
  90:../../libDaisy//src/dev/oled_ssd130x.h ****             spi_config.nss            = SpiHandle::Config::NSS::HARD_OUTPUT;
 9199              		.loc 4 90 13 view .LVU2457
  91:../../libDaisy//src/dev/oled_ssd130x.h ****             spi_config.baud_prescaler = SpiHandle::Config::BaudPrescaler::PS_8;
 9200              		.loc 4 91 13 view .LVU2458
  92:../../libDaisy//src/dev/oled_ssd130x.h ****             // SPI pin config
 9201              		.loc 4 92 13 view .LVU2459
  94:../../libDaisy//src/dev/oled_ssd130x.h ****             spi_config.pin_config.miso = {DSY_GPIOX, 0};
 9202              		.loc 4 94 13 view .LVU2460
  95:../../libDaisy//src/dev/oled_ssd130x.h ****             spi_config.pin_config.mosi = {DSY_GPIOB, 5};
 9203              		.loc 4 95 13 view .LVU2461
  96:../../libDaisy//src/dev/oled_ssd130x.h ****             spi_config.pin_config.nss  = {DSY_GPIOG, 10};
 9204              		.loc 4 96 13 view .LVU2462
  97:../../libDaisy//src/dev/oled_ssd130x.h ****             // SSD130x control pin config
 9205              		.loc 4 97 13 view .LVU2463
 9206              	.LBB1990:
 9207              	.LBB1986:
 9208              	.LBB1982:
 9209              	.LBB1978:
  71:../../libDaisy//src/dev/oled_ssd130x.h ****             // Initialize using defaults
 9210              		.loc 4 71 9 is_stmt 0 view .LVU2464
 9211 0008 1F4B     		ldr	r3, .L584
 9212              	.LBE1978:
 9213              	.LBE1982:
 9214              	.LBE1986:
 9215              	.LBE1990:
  98:Dubby.cpp     **** {
 9216              		.loc 2 98 1 view .LVU2465
 9217 000a 0646     		mov	r6, r0
 101:Dubby.cpp     ****     disp_cfg.driver_config.transport_config.pin_config.dc    = seed.GetPin(9);
 9218              		.loc 2 101 77 view .LVU2466
 9219 000c 0920     		movs	r0, #9
 9220              	.LVL689:
 9221              	.LBB1991:
 9222              	.LBB1992:
  25:../../libDaisy//src/hid/disp/oled_display.h **** 
 9223              		.loc 1 25 44 view .LVU2467
 9224 000e 16AD     		add	r5, sp, #88
 9225 0010 6C46     		mov	r4, sp
ARM GAS  /var/folders/1y/_321xjh9623c014x9_qw12rr0000gn/T//ccXuncwa.s 			page 240


 9226              	.LBE1992:
 9227              	.LBE1991:
 9228              	.LBB1995:
 9229              	.LBB1987:
 9230              	.LBB1983:
 9231              	.LBB1979:
  71:../../libDaisy//src/dev/oled_ssd130x.h ****             // Initialize using defaults
 9232              		.loc 4 71 9 view .LVU2468
 9233 0012 CDE90823 		strd	r2, r3, [sp, #32]
 9234              	.LBE1979:
 9235              	.LBE1983:
 9236              	.LBE1987:
 9237              	.LBE1995:
  99:../../libDaisy//src/dev/oled_ssd130x.h ****             pin_config.reset = {DSY_GPIOB, 15};
 9238              		.loc 4 99 13 is_stmt 1 view .LVU2469
 100:../../libDaisy//src/dev/oled_ssd130x.h ****         }
 9239              		.loc 4 100 13 view .LVU2470
 9240              	.LVL690:
 101:Dubby.cpp     ****     disp_cfg.driver_config.transport_config.pin_config.dc    = seed.GetPin(9);
 9241              		.loc 2 101 5 view .LVU2471
 101:Dubby.cpp     ****     disp_cfg.driver_config.transport_config.pin_config.dc    = seed.GetPin(9);
 9242              		.loc 2 101 77 is_stmt 0 view .LVU2472
 9243 0016 FFF7FEFF 		bl	_ZN5daisy9DaisySeed6GetPinEh
 9244              	.LVL691:
 9245 001a 0346     		mov	r3, r0	@ movhi
 102:Dubby.cpp     ****     disp_cfg.driver_config.transport_config.pin_config.reset = seed.GetPin(31);
 9246              		.loc 2 102 78 view .LVU2473
 9247 001c 1F20     		movs	r0, #31
 101:Dubby.cpp     ****     disp_cfg.driver_config.transport_config.pin_config.dc    = seed.GetPin(9);
 9248              		.loc 2 101 77 view .LVU2474
 9249 001e ADF84830 		strh	r3, [sp, #72]	@ movhi
 102:Dubby.cpp     ****     disp_cfg.driver_config.transport_config.pin_config.reset = seed.GetPin(31);
 9250              		.loc 2 102 5 is_stmt 1 view .LVU2475
 102:Dubby.cpp     ****     disp_cfg.driver_config.transport_config.pin_config.reset = seed.GetPin(31);
 9251              		.loc 2 102 78 is_stmt 0 view .LVU2476
 9252 0022 FFF7FEFF 		bl	_ZN5daisy9DaisySeed6GetPinEh
 9253              	.LVL692:
 9254 0026 0222     		movs	r2, #2
 9255 0028 0B21     		movs	r1, #11
 9256 002a 0023     		movs	r3, #0
 9257 002c 0DF1200E 		add	lr, sp, #32
 9258 0030 ADF82210 		strh	r1, [sp, #34]	@ movhi
 9259 0034 0121     		movs	r1, #1
 9260 0036 ADF84A00 		strh	r0, [sp, #74]	@ movhi
 104:Dubby.cpp     ****     display.Init(disp_cfg);
 9261              		.loc 2 104 5 is_stmt 1 view .LVU2477
 9262              	.LVL693:
 104:Dubby.cpp     ****     display.Init(disp_cfg);
 9263              		.loc 2 104 5 is_stmt 0 view .LVU2478
 9264 003a 0DF14C0C 		add	ip, sp, #76
 9265 003e 0A93     		str	r3, [sp, #40]
 9266              	.LBB1996:
 9267              	.LBB1993:
  25:../../libDaisy//src/hid/disp/oled_display.h **** 
 9268              		.loc 1 25 44 view .LVU2479
 9269 0040 6746     		mov	r7, ip
 9270 0042 CDE91022 		strd	r2, r2, [sp, #64]
ARM GAS  /var/folders/1y/_321xjh9623c014x9_qw12rr0000gn/T//ccXuncwa.s 			page 241


 9271 0046 0822     		movs	r2, #8
 9272 0048 CDE90E33 		strd	r3, r3, [sp, #56]
 9273 004c CDE90B31 		strd	r3, r1, [sp, #44]
 9274 0050 0D92     		str	r2, [sp, #52]
 9275 0052 BEE80F00 		ldmia	lr!, {r0, r1, r2, r3}
 9276 0056 ACE80F00 		stmia	ip!, {r0, r1, r2, r3}
 9277 005a BEE80F00 		ldmia	lr!, {r0, r1, r2, r3}
 9278 005e ACE80F00 		stmia	ip!, {r0, r1, r2, r3}
 9279 0062 9EE80700 		ldm	lr, {r0, r1, r2}
 9280 0066 8CE80700 		stm	ip, {r0, r1, r2}
 9281              	.LBE1993:
 9282              	.LBI1991:
  25:../../libDaisy//src/hid/disp/oled_display.h **** 
 9283              		.loc 1 25 10 is_stmt 1 view .LVU2480
 9284              	.LBB1994:
  25:../../libDaisy//src/hid/disp/oled_display.h **** 
 9285              		.loc 1 25 44 is_stmt 0 view .LVU2481
 9286 006a 0FCD     		ldmia	r5!, {r0, r1, r2, r3}
 9287 006c 0FC4     		stmia	r4!, {r0, r1, r2, r3}
 9288 006e 95E80F00 		ldm	r5, {r0, r1, r2, r3}
 9289 0072 84E80F00 		stm	r4, {r0, r1, r2, r3}
 9290 0076 06F58360 		add	r0, r6, #1048
 9291 007a 97E80E00 		ldm	r7, {r1, r2, r3}
 9292 007e FFF7FEFF 		bl	_ZN5daisy13SSD130xDriverILj128ELj64ENS_24SSD130x4WireSpiTransportEE4InitENS2_6ConfigE
 9293              	.LVL694:
  25:../../libDaisy//src/hid/disp/oled_display.h **** 
 9294              		.loc 1 25 44 view .LVU2482
 9295              	.LBE1994:
 9296              	.LBE1996:
 105:Dubby.cpp     **** }
 9297              		.loc 2 105 1 view .LVU2483
 9298 0082 1FB0     		add	sp, sp, #124
 9299              		.cfi_def_cfa_offset 20
 9300              		@ sp needed
 9301 0084 F0BD     		pop	{r4, r5, r6, r7, pc}
 9302              	.LVL695:
 9303              	.L585:
 105:Dubby.cpp     **** }
 9304              		.loc 2 105 1 view .LVU2484
 9305 0086 00BF     		.align	2
 9306              	.L584:
 9307 0088 0105060A 		.word	168166657
 9308              		.cfi_endproc
 9309              	.LFE2571:
 9311              		.section	.text._ZN5daisy5Dubby4InitEv,"ax",%progbits
 9312              		.align	1
 9313              		.p2align 2,,3
 9314              		.global	_ZN5daisy5Dubby4InitEv
 9315              		.syntax unified
 9316              		.thumb
 9317              		.thumb_func
 9319              	_ZN5daisy5Dubby4InitEv:
 9320              	.LVL696:
 9321              	.LFB2568:
  37:Dubby.cpp     **** {
 9322              		.loc 2 37 1 is_stmt 1 view -0
 9323              		.cfi_startproc
ARM GAS  /var/folders/1y/_321xjh9623c014x9_qw12rr0000gn/T//ccXuncwa.s 			page 242


 9324              		@ args = 0, pretend = 0, frame = 16
 9325              		@ frame_needed = 0, uses_anonymous_args = 0
  38:Dubby.cpp     ****     InitControls();
 9326              		.loc 2 38 5 view .LVU2486
  37:Dubby.cpp     **** {
 9327              		.loc 2 37 1 is_stmt 0 view .LVU2487
 9328 0000 30B5     		push	{r4, r5, lr}
 9329              		.cfi_def_cfa_offset 12
 9330              		.cfi_offset 4, -12
 9331              		.cfi_offset 5, -8
 9332              		.cfi_offset 14, -4
 9333 0002 0546     		mov	r5, r0
 9334 0004 85B0     		sub	sp, sp, #20
 9335              		.cfi_def_cfa_offset 32
  38:Dubby.cpp     ****     InitControls();
 9336              		.loc 2 38 17 view .LVU2488
 9337 0006 FFF7FEFF 		bl	_ZN5daisy5Dubby12InitControlsEv
 9338              	.LVL697:
  39:Dubby.cpp     ****     InitGates();
 9339              		.loc 2 39 5 is_stmt 1 view .LVU2489
  39:Dubby.cpp     ****     InitGates();
 9340              		.loc 2 39 14 is_stmt 0 view .LVU2490
 9341 000a 2846     		mov	r0, r5
 9342 000c FFF7FEFF 		bl	_ZN5daisy5Dubby9InitGatesEv
 9343              	.LVL698:
  41:Dubby.cpp     ****     screen_update_period_ = 17; // roughly 60Hz
 9344              		.loc 2 41 5 is_stmt 1 view .LVU2491
  41:Dubby.cpp     ****     screen_update_period_ = 17; // roughly 60Hz
 9345              		.loc 2 41 27 is_stmt 0 view .LVU2492
 9346 0010 1123     		movs	r3, #17
 9347 0012 C5F83038 		str	r3, [r5, #2096]
  42:Dubby.cpp     ****     screen_update_last_   = seed.system.GetNow();
 9348              		.loc 2 42 5 is_stmt 1 view .LVU2493
  42:Dubby.cpp     ****     screen_update_last_   = seed.system.GetNow();
 9349              		.loc 2 42 47 is_stmt 0 view .LVU2494
 9350 0016 FFF7FEFF 		bl	_ZN5daisy6System6GetNowEv
 9351              	.LVL699:
 9352 001a 2B46     		mov	r3, r5
  42:Dubby.cpp     ****     screen_update_last_   = seed.system.GetNow();
 9353              		.loc 2 42 27 view .LVU2495
 9354 001c 0122     		movs	r2, #1
 9355 001e C5F82C08 		str	r0, [r5, #2092]
  44:Dubby.cpp     ****     for (int i = 0; i < 5; i++) 
 9356              		.loc 2 44 5 is_stmt 1 view .LVU2496
 9357              	.LVL700:
 9358              	.LBB2000:
  44:Dubby.cpp     ****     for (int i = 0; i < 5; i++) 
 9359              		.loc 2 44 23 view .LVU2497
 9360              	.L587:
  46:Dubby.cpp     ****         submenuBoxBounding[i][0] = SUBMENU_X_START;
 9361              		.loc 2 46 9 discriminator 2 view .LVU2498
  47:Dubby.cpp     ****         submenuBoxBounding[i][1] = SUBMENU_Y_START + i * 10;
 9362              		.loc 2 47 34 is_stmt 0 discriminator 2 view .LVU2499
 9363 0022 C3F8A820 		str	r2, [r3, #168]
  46:Dubby.cpp     ****         submenuBoxBounding[i][0] = SUBMENU_X_START;
 9364              		.loc 2 46 34 discriminator 2 view .LVU2500
 9365 0026 0124     		movs	r4, #1
ARM GAS  /var/folders/1y/_321xjh9623c014x9_qw12rr0000gn/T//ccXuncwa.s 			page 243


 9366 0028 0A32     		adds	r2, r2, #10
  48:Dubby.cpp     ****         submenuBoxBounding[i][2] = SUBMENU_X_END;
 9367              		.loc 2 48 34 discriminator 2 view .LVU2501
 9368 002a 3F21     		movs	r1, #63
  46:Dubby.cpp     ****         submenuBoxBounding[i][0] = SUBMENU_X_START;
 9369              		.loc 2 46 34 discriminator 2 view .LVU2502
 9370 002c C3F8A440 		str	r4, [r3, #164]
  47:Dubby.cpp     ****         submenuBoxBounding[i][1] = SUBMENU_Y_START + i * 10;
 9371              		.loc 2 47 9 is_stmt 1 discriminator 2 view .LVU2503
  48:Dubby.cpp     ****         submenuBoxBounding[i][2] = SUBMENU_X_END;
 9372              		.loc 2 48 9 discriminator 2 view .LVU2504
  44:Dubby.cpp     ****     for (int i = 0; i < 5; i++) 
 9373              		.loc 2 44 23 is_stmt 0 discriminator 2 view .LVU2505
 9374 0030 1033     		adds	r3, r3, #16
 9375 0032 332A     		cmp	r2, #51
  49:Dubby.cpp     ****         submenuBoxBounding[i][3] = SUBMENU_Y_END + i * 10;
 9376              		.loc 2 49 34 discriminator 2 view .LVU2506
 9377 0034 C3E92712 		strd	r1, r2, [r3, #156]
  44:Dubby.cpp     ****     for (int i = 0; i < 5; i++) 
 9378              		.loc 2 44 5 is_stmt 1 discriminator 2 view .LVU2507
  44:Dubby.cpp     ****     for (int i = 0; i < 5; i++) 
 9379              		.loc 2 44 23 discriminator 2 view .LVU2508
 9380 0038 F3D1     		bne	.L587
 9381              	.LBE2000:
  52:Dubby.cpp     ****     InitDisplay();
 9382              		.loc 2 52 5 view .LVU2509
  52:Dubby.cpp     ****     InitDisplay();
 9383              		.loc 2 52 16 is_stmt 0 view .LVU2510
 9384 003a 2846     		mov	r0, r5
 9385 003c FFF7FEFF 		bl	_ZN5daisy5Dubby11InitDisplayEv
 9386              	.LVL701:
  53:Dubby.cpp     ****     InitEncoder();
 9387              		.loc 2 53 5 is_stmt 1 view .LVU2511
 9388              	.LBB2001:
 9389              	.LBI2001:
 326:Dubby.cpp     **** void Dubby::InitEncoder()
 9390              		.loc 2 326 6 view .LVU2512
 9391              	.LBB2002:
 328:Dubby.cpp     ****     encoder.Init(seed.GetPin(PIN_ENC_A),
 9392              		.loc 2 328 5 view .LVU2513
 328:Dubby.cpp     ****     encoder.Init(seed.GetPin(PIN_ENC_A),
 9393              		.loc 2 328 17 is_stmt 0 view .LVU2514
 9394 0040 0620     		movs	r0, #6
 9395 0042 FFF7FEFF 		bl	_ZN5daisy9DaisySeed6GetPinEh
 9396              	.LVL702:
 9397 0046 0346     		mov	r3, r0	@ movhi
 9398 0048 0520     		movs	r0, #5
 9399 004a ADF80430 		strh	r3, [sp, #4]	@ movhi
 9400 004e FFF7FEFF 		bl	_ZN5daisy9DaisySeed6GetPinEh
 9401              	.LVL703:
 9402 0052 0346     		mov	r3, r0	@ movhi
 9403 0054 0420     		movs	r0, #4
 9404 0056 ADF80830 		strh	r3, [sp, #8]	@ movhi
 9405 005a FFF7FEFF 		bl	_ZN5daisy9DaisySeed6GetPinEh
 9406              	.LVL704:
 9407 005e ADF80C00 		strh	r0, [sp, #12]	@ movhi
 9408 0062 05F1F400 		add	r0, r5, #244
ARM GAS  /var/folders/1y/_321xjh9623c014x9_qw12rr0000gn/T//ccXuncwa.s 			page 244


 9409 0066 9FED060A 		vldr.32	s0, .L590
 9410 006a 039B     		ldr	r3, [sp, #12]
 9411 006c DDE90112 		ldrd	r1, r2, [sp, #4]
 9412 0070 FFF7FEFF 		bl	_ZN5daisy7Encoder4InitE12dsy_gpio_pinS1_S1_f
 9413              	.LVL705:
 328:Dubby.cpp     ****     encoder.Init(seed.GetPin(PIN_ENC_A),
 9414              		.loc 2 328 17 view .LVU2515
 9415              	.LBE2002:
 9416              	.LBE2001:
  54:Dubby.cpp     ****     InitAudio();
 9417              		.loc 2 54 5 is_stmt 1 view .LVU2516
  54:Dubby.cpp     ****     InitAudio();
 9418              		.loc 2 54 14 is_stmt 0 view .LVU2517
 9419 0074 2846     		mov	r0, r5
  55:Dubby.cpp     **** }
 9420              		.loc 2 55 1 view .LVU2518
 9421 0076 05B0     		add	sp, sp, #20
 9422              		.cfi_def_cfa_offset 12
 9423              		@ sp needed
 9424 0078 BDE83040 		pop	{r4, r5, lr}
 9425              		.cfi_restore 14
 9426              		.cfi_restore 5
 9427              		.cfi_restore 4
 9428              		.cfi_def_cfa_offset 0
 9429              	.LVL706:
  54:Dubby.cpp     ****     InitAudio();
 9430              		.loc 2 54 14 view .LVU2519
 9431 007c FFF7FEBF 		b	_ZN5daisy5Dubby9InitAudioEv
 9432              	.LVL707:
 9433              	.L591:
  54:Dubby.cpp     ****     InitAudio();
 9434              		.loc 2 54 14 view .LVU2520
 9435              		.align	2
 9436              	.L590:
 9437 0080 00000000 		.word	0
 9438              		.cfi_endproc
 9439              	.LFE2568:
 9441              		.section	.rodata
 9442              		.align	2
 9443              		.set	.LANCHOR1,. + 0
 9444              	.LC5:
 9445 0000 04       		.byte	4
 9446 0001 06       		.byte	6
 9447 0002 0000     		.space	2
 9448              	.LC6:
 9449 0004 04       		.byte	4
 9450 0005 03       		.byte	3
 9451 0006 0000     		.space	2
 9452              	.LC7:
 9453 0008 04       		.byte	4
 9454 0009 04       		.byte	4
 9455 000a 0000     		.space	2
 9456              	.LC8:
 9457 000c 04       		.byte	4
 9458 000d 02       		.byte	2
 9459 000e 0000     		.space	2
 9460              	.LC9:
ARM GAS  /var/folders/1y/_321xjh9623c014x9_qw12rr0000gn/T//ccXuncwa.s 			page 245


 9461 0010 04       		.byte	4
 9462 0011 05       		.byte	5
 9463 0012 0000     		.space	2
 9464              	.LC10:
 9465 0014 01       		.byte	1
 9466 0015 08       		.byte	8
 9467 0016 0000     		.space	2
 9468              	.LC11:
 9469 0018 01       		.byte	1
 9470 0019 09       		.byte	9
 9471 001a 0000     		.space	2
 9472              	.LC12:
 9473 001c 06       		.byte	6
 9474 001d 09       		.byte	9
 9475 001e 0000     		.space	2
 9476              	.LC13:
 9477 0020 03       		.byte	3
 9478 0021 0B       		.byte	11
 9479              		.section	.rodata._ZL7bitmaps,"a"
 9480              		.align	2
 9481              		.set	.LANCHOR0,. + 0
 9484              	_ZL7bitmaps:
 9485 0000 00000000 		.ascii	"\000\000\000\000\000\000\000\000\000\000\000\000\000"
 9485      00000000 
 9485      00000000 
 9485      00
 9486 000d 00000000 		.ascii	"\000\000\000\000\000\000\000\000\000\000\004\000\000"
 9486      00000000 
 9486      00000400 
 9486      00
 9487 001a 00000000 		.ascii	"\000\000\000\000\000\000\000\000\000\000\000\000\000"
 9487      00000000 
 9487      00000000 
 9487      00
 9488 0027 FE000000 		.ascii	"\376\000\000\000\000\000\000\000\000\000\000\000\000"
 9488      00000000 
 9488      00000000 
 9488      00
 9489 0034 000007FF 		.ascii	"\000\000\007\377\000\000\000\000\000\000\000\000\000"
 9489      00000000 
 9489      00000000 
 9489      00
 9490 0041 00000000 		.ascii	"\000\000\000\000\000\037\377\200\000\000\000\000\000"
 9490      001FFF80 
 9490      00000000 
 9490      00
 9491 004e 00000000 		.ascii	"\000\000\000\000\000\000\000\000?\377\300\000\000\000"
 9491      00000000 
 9491      3FFFC000 
 9491      0000
 9492 005c 00000000 		.ascii	"\000\000\000\000\000\000\000\000\000\000?\377\340\000"
 9492      00000000 
 9492      00003FFF 
 9492      E000
 9493 006a 00000000 		.ascii	"\000\000\000\000\000\000\000\000\000\000\000\000?\377"
 9493      00000000 
 9493      00000000 
ARM GAS  /var/folders/1y/_321xjh9623c014x9_qw12rr0000gn/T//ccXuncwa.s 			page 246


 9493      3FFF
 9494 0078 F0000000 		.ascii	"\360\000\000\000\000\000\000\000\000\000\000\000\000"
 9494      00000000 
 9494      00000000 
 9494      00
 9495 0085 003FFFF8 		.ascii	"\000?\377\370\000\000\000\000\000\000\000\000\000\000"
 9495      00000000 
 9495      00000000 
 9495      0000
 9496 0093 0000007F 		.ascii	"\000\000\000\177\377\370\000\000\000\000\000\000\000"
 9496      FFF80000 
 9496      00000000 
 9496      00
 9497 00a0 00000000 		.ascii	"\000\000\000\000\000\000\177\377\370\000\000\000\000"
 9497      00007FFF 
 9497      F8000000 
 9497      00
 9498 00ad 00000000 		.ascii	"\000\000\000\000\000\000\000\000\000\177\377\370\000"
 9498      00000000 
 9498      007FFFF8 
 9498      00
 9499 00ba 00000000 		.ascii	"\000\000\000\000\000\000\000\000\000\000\000\000\177"
 9499      00000000 
 9499      00000000 
 9499      7F
 9500 00c7 FFF80000 		.ascii	"\377\370\000\000\000\000\000\000\000\000\000\000\000"
 9500      00000000 
 9500      00000000 
 9500      00
 9501 00d4 0000FFFF 		.ascii	"\000\000\377\377\360\000\000\000\000\000\000\000\000"
 9501      F0000000 
 9501      00000000 
 9501      00
 9502 00e1 00000000 		.ascii	"\000\000\000\000\000\377\377\360\000\000\000\000\000"
 9502      00FFFFF0 
 9502      00000000 
 9502      00
 9503 00ee 00000000 		.ascii	"\000\000\000\000\000\000\000\000\177\377\360\000\000"
 9503      00000000 
 9503      7FFFF000 
 9503      00
 9504 00fb 00000000 		.ascii	"\000\000\000\000\000\000\000\000\000\000\006?\377\360"
 9504      00000000 
 9504      0000063F 
 9504      FFF0
 9505 0109 00000000 		.ascii	"\000\000\000\000\000\000\000\000\000\000\000\000??\377"
 9505      00000000 
 9505      00000000 
 9505      3F3FFF
 9506 0118 E0000000 		.ascii	"\340\000\000\000\000\000\000\000\000\000\000\000\007"
 9506      00000000 
 9506      00000000 
 9506      07
 9507 0125 FFCFFFE0 		.ascii	"\377\317\377\340\000\000\000\000\000\000\000\000\000"
 9507      00000000 
 9507      00000000 
 9507      00
ARM GAS  /var/folders/1y/_321xjh9623c014x9_qw12rr0000gn/T//ccXuncwa.s 			page 247


 9508 0132 00000FFF 		.ascii	"\000\000\017\377\307\377\340\000\000\000\000\000\000"
 9508      C7FFE000 
 9508      00000000 
 9508      00
 9509 013f 00000000 		.ascii	"\000\000\000\000\000\037\377\343\376\000\000\000\000"
 9509      001FFFE3 
 9509      FE000000 
 9509      00
 9510 014c 00000000 		.ascii	"\000\000\000\000\000\000\000\000\037\377\361\360\000"
 9510      00000000 
 9510      1FFFF1F0 
 9510      00
 9511 0159 00000000 		.ascii	"\000\000\000\000\000\000\000\000\000\000\000\037\377"
 9511      00000000 
 9511      0000001F 
 9511      FF
 9512 0166 F8000000 		.ascii	"\370\000\000\000\000\000\000\000\000\000\000\000\000"
 9512      00000000 
 9512      00000000 
 9512      00
 9513 0173 001FFFFC 		.ascii	"\000\037\377\374\000\000\000\000\000\000\000\000\000"
 9513      00000000 
 9513      00000000 
 9513      00
 9514 0180 00000000 		.ascii	"\000\000\000\000?\377\376\000\000\000\000\000\000\000"
 9514      3FFFFE00 
 9514      00000000 
 9514      0000
 9515 018e 00000000 		.ascii	"\000\000\000\000\000\000?\377\376\000\000\000\000\000"
 9515      00003FFF 
 9515      FE000000 
 9515      0000
 9516 019c 00000000 		.ascii	"\000\000\000\000\000\000\000\000?\377\374\000\000\000"
 9516      00000000 
 9516      3FFFFC00 
 9516      0000
 9517 01aa 00000000 		.ascii	"\000\000\000\000\000\000\000\000\000\000?\377\374\000"
 9517      00000000 
 9517      00003FFF 
 9517      FC00
 9518 01b8 00000700 		.ascii	"\000\000\007\000\000\000\000\000\000\000\000\000?\377"
 9518      00000000 
 9518      00000000 
 9518      3FFF
 9519 01c6 FC000000 		.ascii	"\374\000\000\000\177\200\000\000\000\000\000\000\000"
 9519      7F800000 
 9519      00000000 
 9519      00
 9520 01d3 003FFFF8 		.ascii	"\000?\377\370\000\000\007\377\340\000\000\000\000\000"
 9520      000007FF 
 9520      E0000000 
 9520      0000
 9521 01e1 0000003F 		.ascii	"\000\000\000?\377\370\000\000\017\377\360\000\000\000"
 9521      FFF80000 
 9521      0FFFF000 
 9521      0000
 9522 01ef 00000000 		.ascii	"\000\000\000\000\000\037\377\370\000\000\017\377\370"
ARM GAS  /var/folders/1y/_321xjh9623c014x9_qw12rr0000gn/T//ccXuncwa.s 			page 248


 9522      001FFFF8 
 9522      00000FFF 
 9522      F8
 9523 01fc 00000000 		.ascii	"\000\000\000\000\000\000\000\000\017\377\370\000\000"
 9523      00000000 
 9523      0FFFF800 
 9523      00
 9524 0209 0FFFFC00 		.ascii	"\017\377\374\000\000\000\000\000\000\000\000\007\377"
 9524      00000000 
 9524      00000007 
 9524      FF
 9525 0216 F000000F 		.ascii	"\360\000\000\017\377\374\000\000\000\000\000\000\000"
 9525      FFFC0000 
 9525      00000000 
 9525      00
 9526 0223 0003FFF0 		.ascii	"\000\003\377\360\000\000\037\377\376\000\000\000\000"
 9526      00001FFF 
 9526      FE000000 
 9526      00
 9527 0230 00000000 		.ascii	"\000\000\000\000\001\377\000\000\000\037\377\376\000"
 9527      01FF0000 
 9527      001FFFFE 
 9527      00
 9528 023d 00000000 		.ascii	"\000\000\000\000\000\000\000\000\370\030\000\000\037"
 9528      00000000 
 9528      F8180000 
 9528      1F
 9529 024a FFFE0000 		.ascii	"\377\376\000\000\000\000\000\000\000\000\000\000\374"
 9529      00000000 
 9529      00000000 
 9529      FC
 9530 0257 00003FFF 		.ascii	"\000\000?\377\376\000\000\000\000\000\000\000\000\000"
 9530      FE000000 
 9530      00000000 
 9530      0000
 9531 0265 07FE0000 		.ascii	"\007\376\000\000?\377\374\000\000\000\000\000\000\000"
 9531      3FFFFC00 
 9531      00000000 
 9531      0000
 9532 0273 00003FFF 		.ascii	"\000\000?\377\000\000?\377\374\000\000\000\000\000\000"
 9532      00003FFF 
 9532      FC000000 
 9532      000000
 9533 0282 0000007F 		.ascii	"\000\000\000\177\377\200\000?\377\374\000\000\000\000"
 9533      FF80003F 
 9533      FFFC0000 
 9533      0000
 9534 0290 00000000 		.ascii	"\000\000\000\000\000\177\377\300\000\037\377\374\000"
 9534      007FFFC0 
 9534      001FFFFC 
 9534      00
 9535 029d 00000000 		.ascii	"\000\000\000\000\000\000\000\000\177\377\340\007\317"
 9535      00000000 
 9535      7FFFE007 
 9535      CF
 9536 02aa FFFC0000 		.ascii	"\377\374\000\000\000\000\000\000\000\000\000\377\377"
 9536      00000000 
ARM GAS  /var/folders/1y/_321xjh9623c014x9_qw12rr0000gn/T//ccXuncwa.s 			page 249


 9536      000000FF 
 9536      FF
 9537 02b7 F03FE7FF 		.ascii	"\360?\347\377\370\000\000\000\000\000\000\000\000\000"
 9537      F8000000 
 9537      00000000 
 9537      0000
 9538 02c5 FFFFF3FF 		.ascii	"\377\377\363\377\363\377\370\000\000\000\000\000\000"
 9538      F3FFF800 
 9538      00000000 
 9538      00
 9539 02d2 000000FF 		.ascii	"\000\000\000\377\377\367\377\371\377\360\000\000\000"
 9539      FFF7FFF9 
 9539      FFF00000 
 9539      00
 9540 02df 00000000 		.ascii	"\000\000\000\000\000\000\377\377\367\377\374\376\000"
 9540      0000FFFF 
 9540      F7FFFCFE 
 9540      00
 9541 02ec 00000000 		.ascii	"\000\000\000\000\000\000\000\000\001\377\377\367\377"
 9541      00000000 
 9541      01FFFFF7 
 9541      FF
 9542 02f9 FE700000 		.ascii	"\376p\000\000\000\000\000\000\000\000\000\001\377\377"
 9542      00000000 
 9542      00000001 
 9542      FFFF
 9543 0307 E7FFFF00 		.ascii	"\347\377\377\000\000\000\000\000\000\000\000\000\000"
 9543      00000000 
 9543      00000000 
 9543      00
 9544 0314 01FFFFE7 		.ascii	"\001\377\377\347\377\377\200\000\000\000\000\000\000"
 9544      FFFF8000 
 9544      00000000 
 9544      00
 9545 0321 00000001 		.ascii	"\000\000\000\001\377\377\357\377\377\000\000\000\000"
 9545      FFFFEFFF 
 9545      FF000000 
 9545      00
 9546 032e 00000000 		.ascii	"\000\000\000\000\000\000\000\377\377\317\377\377\000"
 9546      000000FF 
 9546      FFCFFFFF 
 9546      00
 9547 033b 00000000 		.ascii	"\000\000\000\000\000\000\000\000\000\000\177\377\317"
 9547      00000000 
 9547      00007FFF 
 9547      CF
 9548 0348 FFFF0000 		.ascii	"\377\377\000\000\000\000\000\000\000\000\000\000\000"
 9548      00000000 
 9548      00000000 
 9548      00
 9549 0355 3FFFDFFF 		.ascii	"?\377\337\377\377\000\000\000\000\000\000\000\000\000"
 9549      FF000000 
 9549      00000000 
 9549      0000
 9550 0363 00001FFF 		.ascii	"\000\000\037\377\237\377\376\000\000\000\000\000\000"
 9550      9FFFFE00 
 9550      00000000 
ARM GAS  /var/folders/1y/_321xjh9623c014x9_qw12rr0000gn/T//ccXuncwa.s 			page 250


 9550      00
 9551 0370 00000000 		.ascii	"\000\000\000\000\000\017\376\037\377\376\000\000\000"
 9551      000FFE1F 
 9551      FFFE0000 
 9551      00
 9552 037d 00000000 		.ascii	"\000\000\000\000\000\000\000\000\007\300\007\377\376"
 9552      00000000 
 9552      07C007FF 
 9552      FE
 9553 038a 00000000 		.ascii	"\000\000\000\000\000\000\000\000\000\000\000\000\000"
 9553      00000000 
 9553      00000000 
 9553      00
 9554 0397 07FFFC00 		.ascii	"\007\377\374\000\000\000\000\000\000\000\000\000\000"
 9554      00000000 
 9554      00000000 
 9554      00
 9555 03a4 00000003 		.ascii	"\000\000\000\003\377\374\000\000\000\000\000\000\000"
 9555      FFFC0000 
 9555      00000000 
 9555      00
 9556 03b1 00000000 		.ascii	"\000\000\000\000\000\000\001\377\374\000\000\000\000"
 9556      000001FF 
 9556      FC000000 
 9556      00
 9557 03be 00000000 		.ascii	"\000\000\000\000\000\000\000\000\000\000\377\360\000"
 9557      00000000 
 9557      0000FFF0 
 9557      00
 9558 03cb 00000000 		.ascii	"\000\000\000\000\000\000\000\000\000\000\000\000\000"
 9558      00000000 
 9558      00000000 
 9558      00
 9559 03d8 7F800000 		.ascii	"\177\200\000\000\000\000\000\000\000\000\000\000\000"
 9559      00000000 
 9559      00000000 
 9559      00
 9560 03e5 00000010 		.ascii	"\000\000\000\020\000\000\000\000\000\000\000\000\000"
 9560      00000000 
 9560      00000000 
 9560      00
 9561 03f2 00000000 		.ascii	"\000\000\000\000\000\000\000\000\000\000\000\000\000"
 9561      00000000 
 9561      00000000 
 9561      00
 9562 03ff 00       		.ascii	"\000"
 9563 0400 00000000 		.ascii	"\000\000\000\000\000\000\000\000\000\000\000\000\000"
 9563      00000000 
 9563      00000000 
 9563      00
 9564 040d 00000000 		.ascii	"\000\000\000\000\000\000\000\000\000\000\000\000\000"
 9564      00000000 
 9564      00000000 
 9564      00
 9565 041a 00000000 		.ascii	"\000\000\000\000\000\000\000\000\000\000\000\000\000"
 9565      00000000 
 9565      00000000 
ARM GAS  /var/folders/1y/_321xjh9623c014x9_qw12rr0000gn/T//ccXuncwa.s 			page 251


 9565      00
 9566 0427 00000000 		.ascii	"\000\000\000\000\000\000\000\000\000\000\000\000\000"
 9566      00000000 
 9566      00000000 
 9566      00
 9567 0434 0001FC00 		.ascii	"\000\001\374\000\000?\200\000\000\000\000\000\000\000"
 9567      003F8000 
 9567      00000000 
 9567      0000
 9568 0442 00000007 		.ascii	"\000\000\000\007\377\000\000\377\300\000\000\000\000"
 9568      FF0000FF 
 9568      C0000000 
 9568      00
 9569 044f 00000000 		.ascii	"\000\000\000\000\000\000\017\377\000\000\377\300\000"
 9569      00000FFF 
 9569      0000FFC0 
 9569      00
 9570 045c 00000000 		.ascii	"\000\000\000\000\000\000\000\000\000\036\007\300\003"
 9570      00000000 
 9570      001E07C0 
 9570      03
 9571 0469 E3C00000 		.ascii	"\343\300\000\000\000\000\000\000\000\000\000\000<\001"
 9571      00000000 
 9571      00000000 
 9571      3C01
 9572 0477 E0078780 		.ascii	"\340\007\207\200\000\000\000\000\000\000\000\000\000"
 9572      00000000 
 9572      00000000 
 9572      00
 9573 0484 003830E0 		.ascii	"\00080\340\007\016\034\000\000\000\000\000\000\000\000"
 9573      070E1C00 
 9573      00000000 
 9573      000000
 9574 0493 000071F8 		.ascii	"\000\000q\370\340\007\014>\000\000\000\000\000\000\000"
 9574      E0070C3E 
 9574      00000000 
 9574      000000
 9575 04a2 00000071 		.ascii	"\000\000\000q\374p\016\014>\000\000\000\000\000\000"
 9575      FC700E0C 
 9575      3E000000 
 9575      000000
 9576 04b1 00000000 		.ascii	"\000\000\000\000s\236p\016\014~\000\000\000\000\000"
 9576      739E700E 
 9576      0C7E0000 
 9576      000000
 9577 04c0 00000000 		.ascii	"\000\000\000\000\000s\216p\016\017\356\000\000\000\000"
 9577      00738E70 
 9577      0E0FEE00 
 9577      000000
 9578 04cf 00000000 		.ascii	"\000\000\000\000\000\000s\334p\016\007\316\000\000\000"
 9578      000073DC 
 9578      700E07CE 
 9578      000000
 9579 04de 00000000 		.ascii	"\000\000\000\000\000\000\000q\374p\016\000\016\000\000"
 9579      00000071 
 9579      FC700E00 
 9579      0E0000
ARM GAS  /var/folders/1y/_321xjh9623c014x9_qw12rr0000gn/T//ccXuncwa.s 			page 252


 9580 04ed 00000000 		.ascii	"\000\000\000\000\000\000\000\000y\374x\036\000\036\000"
 9580      00000000 
 9580      79FC781E 
 9580      001E00
 9581 04fc 00000000 		.ascii	"\000\000\000\000\000\000\000\000\0008`<<\000\034\000"
 9581      00000000 
 9581      0038603C 
 9581      3C001C00 
 9582 050c 00000000 		.ascii	"\000\000\000\000\000\000\000\000\000<\000\036x\000<"
 9582      00000000 
 9582      003C001E 
 9582      78003C
 9583 051b 00000000 		.ascii	"\000\000\000\000\000\000\000\000\000\000\017\000\017"
 9583      00000000 
 9583      00000F00 
 9583      0F
 9584 0528 F000F000 		.ascii	"\360\000\360\000\000\000\000\000\000\000\000\000\000"
 9584      00000000 
 9584      00000000 
 9584      00
 9585 0535 0FFC07E0 		.ascii	"\017\374\007\340?\360\000\000\000\000\000\000\000\000"
 9585      3FF00000 
 9585      00000000 
 9585      0000
 9586 0543 000007FE 		.ascii	"\000\000\007\376\003\300\177\340\000\000\000\000\000"
 9586      03C07FE0 
 9586      00000000 
 9586      00
 9587 0550 00000000 		.ascii	"\000\000\000\000\000\000\377\007\200\377\000\000\000"
 9587      0000FF07 
 9587      80FF0000 
 9587      00
 9588 055d 00000000 		.ascii	"\000\000\000\000\000\000\000\000\000\007\217\001\340"
 9588      00000000 
 9588      00078F01 
 9588      E0
 9589 056a 00000000 		.ascii	"\000\000\000\000\000\000\000\000\000\000\000\000\003"
 9589      00000000 
 9589      00000000 
 9589      03
 9590 0577 DE03C000 		.ascii	"\336\003\300\000\000\000\000\000\000\000\000\000\000"
 9590      00000000 
 9590      00000000 
 9590      00
 9591 0584 000001FC 		.ascii	"\000\000\001\374\007\200\000\000\000\000\000\000\000"
 9591      07800000 
 9591      00000000 
 9591      00
 9592 0591 00000000 		.ascii	"\000\000\000\000\000\000\370\017\000\000\000\000\000"
 9592      0000F80F 
 9592      00000000 
 9592      00
 9593 059e 00000000 		.ascii	"\000\000\000\000\000\000\000\000\000\360\037\000\000"
 9593      00000000 
 9593      00F01F00 
 9593      00
 9594 05ab 00000000 		.ascii	"\000\000\000\000\000\000\000\000\000\000\000\001\340"
ARM GAS  /var/folders/1y/_321xjh9623c014x9_qw12rr0000gn/T//ccXuncwa.s 			page 253


 9594      00000000 
 9594      00000001 
 9594      E0
 9595 05b8 3F800000 		.ascii	"?\200\000\000\000\000\000\000\000\000\000\000\000\000"
 9595      00000000 
 9595      00000000 
 9595      0000
 9596 05c6 03C07BC0 		.ascii	"\003\300{\300\000\000\000\000\000\000\000\000\000\000"
 9596      00000000 
 9596      00000000 
 9596      0000
 9597 05d4 00000780 		.ascii	"\000\000\007\200\361\340\000\000\000\000\000\000\000"
 9597      F1E00000 
 9597      00000000 
 9597      00
 9598 05e1 00000000 		.ascii	"\000\000\000\000\000\377\001\340\377\000\000\000\000"
 9598      00FF01E0 
 9598      FF000000 
 9598      00
 9599 05ee 00000000 		.ascii	"\000\000\000\000\000\000\000\007\376\003\300\177\300"
 9599      00000007 
 9599      FE03C07F 
 9599      C0
 9600 05fb 00000000 		.ascii	"\000\000\000\000\000\000\000\000\000\000\017\374\007"
 9600      00000000 
 9600      00000FFC 
 9600      07
 9601 0608 E03FF000 		.ascii	"\340?\360\000\000\000\000\000\000\000\000\000\000\017"
 9601      00000000 
 9601      00000000 
 9601      000F
 9602 0616 000FF000 		.ascii	"\000\017\360\000\360\000\000\000\000\000\000\000\000"
 9602      F0000000 
 9602      00000000 
 9602      00
 9603 0623 00003C00 		.ascii	"\000\000<\000\036x\000<\000\000\000\000\000\000\000"
 9603      1E78003C 
 9603      00000000 
 9603      000000
 9604 0632 00000038 		.ascii	"\000\000\0008\000<<\002\034\000\000\000\000\000\000"
 9604      003C3C02 
 9604      1C000000 
 9604      000000
 9605 0641 00000000 		.ascii	"\000\000\000\000x\000x\036\037\036\000\000\000\000\000"
 9605      7800781E 
 9605      1F1E0000 
 9605      000000
 9606 0650 00000000 		.ascii	"\000\000\000\000\000q\300p\016?\216\000\000\000\000"
 9606      0071C070 
 9606      0E3F8E00 
 9606      000000
 9607 065f 00000000 		.ascii	"\000\000\000\000\000\000s\340p\016?\316\000\000\000"
 9607      000073E0 
 9607      700E3FCE 
 9607      000000
 9608 066e 00000000 		.ascii	"\000\000\000\000\000\000\000w\360p\0161\316\000\000"
 9608      00000077 
ARM GAS  /var/folders/1y/_321xjh9623c014x9_qw12rr0000gn/T//ccXuncwa.s 			page 254


 9608      F0700E31 
 9608      CE0000
 9609 067d 00000000 		.ascii	"\000\000\000\000\000\000\000\000~8p\016y\316\000\000"
 9609      00000000 
 9609      7E38700E 
 9609      79CE0000 
 9610 068d 00000000 		.ascii	"\000\000\000\000\000\000\000\000|8p\016?\216\000\000"
 9610      00000000 
 9610      7C38700E 
 9610      3F8E0000 
 9611 069d 00000000 		.ascii	"\000\000\000\000\000\000\000\000|8\340\007\037\216\000"
 9611      00000000 
 9611      7C38E007 
 9611      1F8E00
 9612 06ac 00000000 		.ascii	"\000\000\000\000\000\000\000\000\0008p\340\007\016\034"
 9612      00000000 
 9612      003870E0 
 9612      070E1C
 9613 06bb 00000000 		.ascii	"\000\000\000\000\000\000\000\000\000\000\001\341\340"
 9613      00000000 
 9613      000001E1 
 9613      E0
 9614 06c8 03803C00 		.ascii	"\003\200<\000\000\000\000\000\000\000\000\000\000\003"
 9614      00000000 
 9614      00000000 
 9614      0003
 9615 06d6 C7C003E0 		.ascii	"\307\300\003\340x\000\000\000\000\000\000\000\000\000"
 9615      78000000 
 9615      00000000 
 9615      0000
 9616 06e4 0003FF00 		.ascii	"\000\003\377\000\000\377\360\000\000\000\000\000\000"
 9616      00FFF000 
 9616      00000000 
 9616      00
 9617 06f1 00000000 		.ascii	"\000\000\000\000\003\377\000\000\377\340\000\000\000"
 9617      03FF0000 
 9617      FFE00000 
 9617      00
 9618 06fe 00000000 		.ascii	"\000\000\000\000\000\000\000\001\374\000\000?\200\000"
 9618      00000001 
 9618      FC00003F 
 9618      8000
 9619 070c 00000000 		.ascii	"\000\000\000\000\000\000\000\000\000\000\000\000\000"
 9619      00000000 
 9619      00000000 
 9619      00
 9620 0719 00000000 		.ascii	"\000\000\000\000\000\000\000\000\000\000\000\000\000"
 9620      00000000 
 9620      00000000 
 9620      00
 9621 0726 00000000 		.ascii	"\000\000\000\000\000\000\000\000\000\000\000\000\000"
 9621      00000000 
 9621      00000000 
 9621      00
 9622 0733 00000000 		.ascii	"\000\000\000\000\000\000\000\000\000\000\000\000\000"
 9622      00000000 
 9622      00000000 
ARM GAS  /var/folders/1y/_321xjh9623c014x9_qw12rr0000gn/T//ccXuncwa.s 			page 255


 9622      00
 9623 0740 00000000 		.ascii	"\000\000\000\000\000\000\000\000\000\000\000\000\000"
 9623      00000000 
 9623      00000000 
 9623      00
 9624 074d 00000000 		.ascii	"\000\000\000\000\000\000\000\000\000\000\000\000\000"
 9624      00000000 
 9624      00000000 
 9624      00
 9625 075a 00000000 		.ascii	"\000\000\000\000\000\000\000\000\000\000\000\000\000"
 9625      00000000 
 9625      00000000 
 9625      00
 9626 0767 00000000 		.ascii	"\000\000\000\000\000\000\000\000\000\000\000\000\000"
 9626      00000000 
 9626      00000000 
 9626      00
 9627 0774 00000000 		.ascii	"\000\000\000\000\000\000\000\000\000\000\000\000\000"
 9627      00000000 
 9627      00000000 
 9627      00
 9628 0781 00000000 		.ascii	"\000\000\000\000\000\000\000\000\000\000\000\000\000"
 9628      00000000 
 9628      00000000 
 9628      00
 9629 078e 00000000 		.ascii	"\000\000\000\000\000\000\000\000\000\000\000\000\000"
 9629      00000000 
 9629      00000000 
 9629      00
 9630 079b 00000000 		.ascii	"\000\000\000\000\000\000\000\000\000\000\000\000\000"
 9630      00000000 
 9630      00000000 
 9630      00
 9631 07a8 00000000 		.ascii	"\000\000\000\000\000\000\000\000\000\000\000\000\000"
 9631      00000000 
 9631      00000000 
 9631      00
 9632 07b5 00000000 		.ascii	"\000\000\000\000\000\000\000\000\000\000\000\000\000"
 9632      00000000 
 9632      00000000 
 9632      00
 9633 07c2 00000000 		.ascii	"\000\000\000\000\000\000\000\000\000\000\000\000\000"
 9633      00000000 
 9633      00000000 
 9633      00
 9634 07cf 00000000 		.ascii	"\000\000\000\000\000\000\000\000\000\000\000\000\000"
 9634      00000000 
 9634      00000000 
 9634      00
 9635 07dc 00000000 		.ascii	"\000\000\000\000\000\000\000\000\000\000\000\000\000"
 9635      00000000 
 9635      00000000 
 9635      00
 9636 07e9 00000000 		.ascii	"\000\000\000\000\000\000\000\000\000\000\000\000\000"
 9636      00000000 
 9636      00000000 
 9636      00
ARM GAS  /var/folders/1y/_321xjh9623c014x9_qw12rr0000gn/T//ccXuncwa.s 			page 256


 9637 07f6 00000000 		.ascii	"\000\000\000\000\000\000\000\000\000\000"
 9637      00000000 
 9637      0000
 9638              		.text
 9639              	.Letext0:
 9640              		.file 15 "/Library/DaisyToolchain/0.2.0/arm/arm-none-eabi/include/machine/_default_types.h"
 9641              		.file 16 "/Library/DaisyToolchain/0.2.0/arm/arm-none-eabi/include/sys/_stdint.h"
 9642              		.file 17 "/Library/DaisyToolchain/0.2.0/arm/arm-none-eabi/include/stdint.h"
 9643              		.file 18 "../../libDaisy//Drivers/CMSIS/Device/ST/STM32H7xx/Include/stm32h750xx.h"
 9644              		.file 19 "/Library/DaisyToolchain/0.2.0/arm/lib/gcc/arm-none-eabi/10.3.1/include/stddef.h"
 9645              		.file 20 "/Library/DaisyToolchain/0.2.0/arm/arm-none-eabi/include/c++/10.3.1/cmath"
 9646              		.file 21 "/Library/DaisyToolchain/0.2.0/arm/arm-none-eabi/include/c++/10.3.1/cstdlib"
 9647              		.file 22 "/Library/DaisyToolchain/0.2.0/arm/arm-none-eabi/include/c++/10.3.1/cstdint"
 9648              		.file 23 "/Library/DaisyToolchain/0.2.0/arm/arm-none-eabi/include/c++/10.3.1/type_traits"
 9649              		.file 24 "/Library/DaisyToolchain/0.2.0/arm/arm-none-eabi/include/c++/10.3.1/debug/debug.h"
 9650              		.file 25 "/Library/DaisyToolchain/0.2.0/arm/arm-none-eabi/include/c++/10.3.1/arm-none-eabi/thumb/v
 9651              		.file 26 "/Library/DaisyToolchain/0.2.0/arm/arm-none-eabi/include/c++/10.3.1/bits/algorithmfwd.h"
 9652              		.file 27 "/Library/DaisyToolchain/0.2.0/arm/arm-none-eabi/include/c++/10.3.1/bits/exception_ptr.h"
 9653              		.file 28 "/Library/DaisyToolchain/0.2.0/arm/arm-none-eabi/include/c++/10.3.1/bits/stl_pair.h"
 9654              		.file 29 "/Library/DaisyToolchain/0.2.0/arm/arm-none-eabi/include/c++/10.3.1/cstdarg"
 9655              		.file 30 "/Library/DaisyToolchain/0.2.0/arm/arm-none-eabi/include/c++/10.3.1/cstdio"
 9656              		.file 31 "/Library/DaisyToolchain/0.2.0/arm/arm-none-eabi/include/c++/10.3.1/cstring"
 9657              		.file 32 "/Library/DaisyToolchain/0.2.0/arm/arm-none-eabi/include/c++/10.3.1/bits/predefined_ops.h
 9658              		.file 33 "/Library/DaisyToolchain/0.2.0/arm/arm-none-eabi/include/sys/_types.h"
 9659              		.file 34 "/Library/DaisyToolchain/0.2.0/arm/arm-none-eabi/include/sys/reent.h"
 9660              		.file 35 "/Library/DaisyToolchain/0.2.0/arm/arm-none-eabi/include/sys/lock.h"
 9661              		.file 36 "/Library/DaisyToolchain/0.2.0/arm/arm-none-eabi/include/math.h"
 9662              		.file 37 "/Library/DaisyToolchain/0.2.0/arm/arm-none-eabi/include/stdlib.h"
 9663              		.file 38 "/Library/DaisyToolchain/0.2.0/arm/arm-none-eabi/include/c++/10.3.1/math.h"
 9664              		.file 39 "/Library/DaisyToolchain/0.2.0/arm/arm-none-eabi/include/c++/10.3.1/stdlib.h"
 9665              		.file 40 "../../libDaisy//src/daisy_core.h"
 9666              		.file 41 "../../libDaisy//src/per/tim.h"
 9667              		.file 42 "../../libDaisy//src/sys/system.h"
 9668              		.file 43 "../../libDaisy//src/per/qspi.h"
 9669              		.file 44 "../../libDaisy//src/per/dac.h"
 9670              		.file 45 "../../libDaisy//src/per/adc.h"
 9671              		.file 46 "../../libDaisy//src/hid/usb.h"
 9672              		.file 47 "../../libDaisy//src/hid/gatein.h"
 9673              		.file 48 "../../libDaisy//src/hid/disp/graphics_common.h"
 9674              		.file 49 "../../libDaisy//src/util/wav_format.h"
 9675              		.file 50 "../../libDaisy//src/dev/max11300.h"
 9676              		.file 51 "../../libDaisy//src/daisy_seed.h"
 9677              		.file 52 "Dubby.h"
 9678              		.file 53 "../../libDaisy//src/per/gpio.h"
 9679              		.file 54 "../../libDaisy//src/dev/sdram.h"
 9680              		.file 55 "/Library/DaisyToolchain/0.2.0/arm/lib/gcc/arm-none-eabi/10.3.1/include/stdarg.h"
 9681              		.file 56 "/Library/DaisyToolchain/0.2.0/arm/arm-none-eabi/include/stdio.h"
 9682              		.file 57 "../../libDaisy//src/util/oled_fonts.h"
 9683              		.file 58 "/Library/DaisyToolchain/0.2.0/arm/arm-none-eabi/include/string.h"
 9684              		.file 59 "../../libDaisy//src/dev/sr_595.h"
 9685              		.file 60 "./bitmaps/bmps.h"
 9686              		.file 61 "<built-in>"
ARM GAS  /var/folders/1y/_321xjh9623c014x9_qw12rr0000gn/T//ccXuncwa.s 			page 257


DEFINED SYMBOLS
                            *ABS*:0000000000000000 Dubby.cpp
/var/folders/1y/_321xjh9623c014x9_qw12rr0000gn/T//ccXuncwa.s:19     .text._ZNK5daisy11OledDisplayINS_13SSD130xDriverILj128ELj64ENS_24SSD130x4WireSpiTransportEEEE6HeightEv:0000000000000000 $t
/var/folders/1y/_321xjh9623c014x9_qw12rr0000gn/T//ccXuncwa.s:26     .text._ZNK5daisy11OledDisplayINS_13SSD130xDriverILj128ELj64ENS_24SSD130x4WireSpiTransportEEEE6HeightEv:0000000000000000 _ZNK5daisy11OledDisplayINS_13SSD130xDriverILj128ELj64ENS_24SSD130x4WireSpiTransportEEEE6HeightEv
/var/folders/1y/_321xjh9623c014x9_qw12rr0000gn/T//ccXuncwa.s:44     .text._ZNK5daisy11OledDisplayINS_13SSD130xDriverILj128ELj64ENS_24SSD130x4WireSpiTransportEEEE5WidthEv:0000000000000000 $t
/var/folders/1y/_321xjh9623c014x9_qw12rr0000gn/T//ccXuncwa.s:51     .text._ZNK5daisy11OledDisplayINS_13SSD130xDriverILj128ELj64ENS_24SSD130x4WireSpiTransportEEEE5WidthEv:0000000000000000 _ZNK5daisy11OledDisplayINS_13SSD130xDriverILj128ELj64ENS_24SSD130x4WireSpiTransportEEEE5WidthEv
/var/folders/1y/_321xjh9623c014x9_qw12rr0000gn/T//ccXuncwa.s:68     .text._ZN5daisy5Dubby11RenderScopeEv.part.0:0000000000000000 $t
/var/folders/1y/_321xjh9623c014x9_qw12rr0000gn/T//ccXuncwa.s:74     .text._ZN5daisy5Dubby11RenderScopeEv.part.0:0000000000000000 _ZN5daisy5Dubby11RenderScopeEv.part.0
/var/folders/1y/_321xjh9623c014x9_qw12rr0000gn/T//ccXuncwa.s:667    .text._ZN5daisy5Dubby11RenderScopeEv.part.0:00000000000001e4 $d
/var/folders/1y/_321xjh9623c014x9_qw12rr0000gn/T//ccXuncwa.s:677    .text._ZN5daisy5Dubby12InitControlsEv:0000000000000000 $t
/var/folders/1y/_321xjh9623c014x9_qw12rr0000gn/T//ccXuncwa.s:684    .text._ZN5daisy5Dubby12InitControlsEv:0000000000000000 _ZN5daisy5Dubby12InitControlsEv
/var/folders/1y/_321xjh9623c014x9_qw12rr0000gn/T//ccXuncwa.s:843    .text._ZN5daisy5Dubby12InitControlsEv:00000000000000d4 $d
/var/folders/1y/_321xjh9623c014x9_qw12rr0000gn/T//ccXuncwa.s:848    .text._ZN5daisy5Dubby9InitGatesEv:0000000000000000 $t
/var/folders/1y/_321xjh9623c014x9_qw12rr0000gn/T//ccXuncwa.s:855    .text._ZN5daisy5Dubby9InitGatesEv:0000000000000000 _ZN5daisy5Dubby9InitGatesEv
/var/folders/1y/_321xjh9623c014x9_qw12rr0000gn/T//ccXuncwa.s:961    .text._ZN5daisy5Dubby10DrawBitmapEi:0000000000000000 $t
/var/folders/1y/_321xjh9623c014x9_qw12rr0000gn/T//ccXuncwa.s:968    .text._ZN5daisy5Dubby10DrawBitmapEi:0000000000000000 _ZN5daisy5Dubby10DrawBitmapEi
/var/folders/1y/_321xjh9623c014x9_qw12rr0000gn/T//ccXuncwa.s:1399   .text._ZN5daisy5Dubby10DrawBitmapEi:0000000000000124 $d
/var/folders/1y/_321xjh9623c014x9_qw12rr0000gn/T//ccXuncwa.s:1412   .text._ZN5daisy5Dubby8DrawLogoEv:0000000000000000 $t
/var/folders/1y/_321xjh9623c014x9_qw12rr0000gn/T//ccXuncwa.s:1419   .text._ZN5daisy5Dubby8DrawLogoEv:0000000000000000 _ZN5daisy5Dubby8DrawLogoEv
/var/folders/1y/_321xjh9623c014x9_qw12rr0000gn/T//ccXuncwa.s:1437   .text._ZN5daisy5Dubby9UpdateBarEi:0000000000000000 $t
/var/folders/1y/_321xjh9623c014x9_qw12rr0000gn/T//ccXuncwa.s:1444   .text._ZN5daisy5Dubby9UpdateBarEi:0000000000000000 _ZN5daisy5Dubby9UpdateBarEi
/var/folders/1y/_321xjh9623c014x9_qw12rr0000gn/T//ccXuncwa.s:2489   .text._ZN5daisy5Dubby9UpdateBarEi:0000000000000384 $d
/var/folders/1y/_321xjh9623c014x9_qw12rr0000gn/T//ccXuncwa.s:2502   .text._ZN5daisy5Dubby9UpdateBarEi:0000000000000388 $t
/var/folders/1y/_321xjh9623c014x9_qw12rr0000gn/T//ccXuncwa.s:2634   .text._ZN5daisy5Dubby15UpdateMixerPaneEv:0000000000000000 $t
/var/folders/1y/_321xjh9623c014x9_qw12rr0000gn/T//ccXuncwa.s:2641   .text._ZN5daisy5Dubby15UpdateMixerPaneEv:0000000000000000 _ZN5daisy5Dubby15UpdateMixerPaneEv
/var/folders/1y/_321xjh9623c014x9_qw12rr0000gn/T//ccXuncwa.s:2719   .text._ZN5daisy5Dubby11RenderScopeEv:0000000000000000 $t
/var/folders/1y/_321xjh9623c014x9_qw12rr0000gn/T//ccXuncwa.s:2726   .text._ZN5daisy5Dubby11RenderScopeEv:0000000000000000 _ZN5daisy5Dubby11RenderScopeEv
/var/folders/1y/_321xjh9623c014x9_qw12rr0000gn/T//ccXuncwa.s:2774   .text._ZN5daisy5Dubby11InitEncoderEv:0000000000000000 $t
/var/folders/1y/_321xjh9623c014x9_qw12rr0000gn/T//ccXuncwa.s:2781   .text._ZN5daisy5Dubby11InitEncoderEv:0000000000000000 _ZN5daisy5Dubby11InitEncoderEv
/var/folders/1y/_321xjh9623c014x9_qw12rr0000gn/T//ccXuncwa.s:2834   .text._ZN5daisy5Dubby11InitEncoderEv:0000000000000040 $d
/var/folders/1y/_321xjh9623c014x9_qw12rr0000gn/T//ccXuncwa.s:2839   .text._ZN5daisy5Dubby18ProcessAllControlsEv:0000000000000000 $t
/var/folders/1y/_321xjh9623c014x9_qw12rr0000gn/T//ccXuncwa.s:2846   .text._ZN5daisy5Dubby18ProcessAllControlsEv:0000000000000000 _ZN5daisy5Dubby18ProcessAllControlsEv
/var/folders/1y/_321xjh9623c014x9_qw12rr0000gn/T//ccXuncwa.s:2922   .text._ZN5daisy5Dubby21ProcessAnalogControlsEv:0000000000000000 $t
/var/folders/1y/_321xjh9623c014x9_qw12rr0000gn/T//ccXuncwa.s:2929   .text._ZN5daisy5Dubby21ProcessAnalogControlsEv:0000000000000000 _ZN5daisy5Dubby21ProcessAnalogControlsEv
/var/folders/1y/_321xjh9623c014x9_qw12rr0000gn/T//ccXuncwa.s:2972   .text._ZN5daisy5Dubby22ProcessDigitalControlsEv:0000000000000000 $t
/var/folders/1y/_321xjh9623c014x9_qw12rr0000gn/T//ccXuncwa.s:2979   .text._ZN5daisy5Dubby22ProcessDigitalControlsEv:0000000000000000 _ZN5daisy5Dubby22ProcessDigitalControlsEv
/var/folders/1y/_321xjh9623c014x9_qw12rr0000gn/T//ccXuncwa.s:2999   .text._ZN5daisy5Dubby12GetKnobValueENS0_4CtrlE:0000000000000000 $t
/var/folders/1y/_321xjh9623c014x9_qw12rr0000gn/T//ccXuncwa.s:3006   .text._ZN5daisy5Dubby12GetKnobValueENS0_4CtrlE:0000000000000000 _ZN5daisy5Dubby12GetKnobValueENS0_4CtrlE
/var/folders/1y/_321xjh9623c014x9_qw12rr0000gn/T//ccXuncwa.s:3033   .text._ZN5daisy5Dubby9InitAudioEv:0000000000000000 $t
/var/folders/1y/_321xjh9623c014x9_qw12rr0000gn/T//ccXuncwa.s:3040   .text._ZN5daisy5Dubby9InitAudioEv:0000000000000000 _ZN5daisy5Dubby9InitAudioEv
/var/folders/1y/_321xjh9623c014x9_qw12rr0000gn/T//ccXuncwa.s:3380   .text._ZN5daisy5Dubby9InitAudioEv:0000000000000108 $d
/var/folders/1y/_321xjh9623c014x9_qw12rr0000gn/T//ccXuncwa.s:3386   .rodata._ZN5daisy5Dubby14GetTextForEnumENS0_9MenuTypesEi.str1.4:0000000000000000 $d
/var/folders/1y/_321xjh9623c014x9_qw12rr0000gn/T//ccXuncwa.s:3390   .text._ZN5daisy5Dubby14GetTextForEnumENS0_9MenuTypesEi:0000000000000000 $t
/var/folders/1y/_321xjh9623c014x9_qw12rr0000gn/T//ccXuncwa.s:3397   .text._ZN5daisy5Dubby14GetTextForEnumENS0_9MenuTypesEi:0000000000000000 _ZN5daisy5Dubby14GetTextForEnumENS0_9MenuTypesEi
/var/folders/1y/_321xjh9623c014x9_qw12rr0000gn/T//ccXuncwa.s:3438   .text._ZN5daisy5Dubby14GetTextForEnumENS0_9MenuTypesEi:0000000000000018 $d
/var/folders/1y/_321xjh9623c014x9_qw12rr0000gn/T//ccXuncwa.s:3443   .text._ZN5daisy25OneBitGraphicsDisplayImplINS_11OledDisplayINS_13SSD130xDriverILj128ELj64ENS_24SSD130x4WireSpiTransportEEEEEE11WriteStringEPKc7FontDefb:0000000000000000 $t
/var/folders/1y/_321xjh9623c014x9_qw12rr0000gn/T//ccXuncwa.s:3450   .text._ZN5daisy25OneBitGraphicsDisplayImplINS_11OledDisplayINS_13SSD130xDriverILj128ELj64ENS_24SSD130x4WireSpiTransportEEEEEE11WriteStringEPKc7FontDefb:0000000000000000 _ZN5daisy25OneBitGraphicsDisplayImplINS_11OledDisplayINS_13SSD130xDriverILj128ELj64ENS_24SSD130x4WireSpiTransportEEEEEE11WriteStringEPKc7FontDefb
/var/folders/1y/_321xjh9623c014x9_qw12rr0000gn/T//ccXuncwa.s:3907   .text._ZN5daisy25OneBitGraphicsDisplayImplINS_11OledDisplayINS_13SSD130xDriverILj128ELj64ENS_24SSD130x4WireSpiTransportEEEEEE11WriteStringEPKc7FontDefb:00000000000001b8 $d
/var/folders/1y/_321xjh9623c014x9_qw12rr0000gn/T//ccXuncwa.s:3917   .text._ZN5daisy5Dubby18HightlightMenuItemEv:0000000000000000 $t
/var/folders/1y/_321xjh9623c014x9_qw12rr0000gn/T//ccXuncwa.s:3924   .text._ZN5daisy5Dubby18HightlightMenuItemEv:0000000000000000 _ZN5daisy5Dubby18HightlightMenuItemEv
/var/folders/1y/_321xjh9623c014x9_qw12rr0000gn/T//ccXuncwa.s:4607   .text._ZN5daisy5Dubby18HightlightMenuItemEv:00000000000001ec $d
/var/folders/1y/_321xjh9623c014x9_qw12rr0000gn/T//ccXuncwa.s:4612   .text._ZN5daisy5Dubby11ReleaseMenuEv:0000000000000000 $t
/var/folders/1y/_321xjh9623c014x9_qw12rr0000gn/T//ccXuncwa.s:4619   .text._ZN5daisy5Dubby11ReleaseMenuEv:0000000000000000 _ZN5daisy5Dubby11ReleaseMenuEv
/var/folders/1y/_321xjh9623c014x9_qw12rr0000gn/T//ccXuncwa.s:5752   .text._ZN5daisy5Dubby11ReleaseMenuEv:0000000000000430 $d
/var/folders/1y/_321xjh9623c014x9_qw12rr0000gn/T//ccXuncwa.s:5760   .text._ZN5daisy5Dubby22DisplayPreferencesMenuEv:0000000000000000 $t
/var/folders/1y/_321xjh9623c014x9_qw12rr0000gn/T//ccXuncwa.s:5767   .text._ZN5daisy5Dubby22DisplayPreferencesMenuEv:0000000000000000 _ZN5daisy5Dubby22DisplayPreferencesMenuEv
/var/folders/1y/_321xjh9623c014x9_qw12rr0000gn/T//ccXuncwa.s:6150   .text._ZN5daisy5Dubby22DisplayPreferencesMenuEv:0000000000000124 $d
ARM GAS  /var/folders/1y/_321xjh9623c014x9_qw12rr0000gn/T//ccXuncwa.s 			page 258


/var/folders/1y/_321xjh9623c014x9_qw12rr0000gn/T//ccXuncwa.s:6157   .text._ZN5daisy5Dubby22DisplayPreferencesMenuEv:0000000000000128 $t
/var/folders/1y/_321xjh9623c014x9_qw12rr0000gn/T//ccXuncwa.s:6943   .text._ZN5daisy5Dubby13UpdateSubmenuEv:0000000000000000 $t
/var/folders/1y/_321xjh9623c014x9_qw12rr0000gn/T//ccXuncwa.s:6950   .text._ZN5daisy5Dubby13UpdateSubmenuEv:0000000000000000 _ZN5daisy5Dubby13UpdateSubmenuEv
/var/folders/1y/_321xjh9623c014x9_qw12rr0000gn/T//ccXuncwa.s:7169   .text._ZN5daisy5Dubby10UpdateMenuEib:0000000000000000 $t
/var/folders/1y/_321xjh9623c014x9_qw12rr0000gn/T//ccXuncwa.s:7176   .text._ZN5daisy5Dubby10UpdateMenuEib:0000000000000000 _ZN5daisy5Dubby10UpdateMenuEib
/var/folders/1y/_321xjh9623c014x9_qw12rr0000gn/T//ccXuncwa.s:7434   .text._ZN5daisy5Dubby21UpdatePreferencesMenuEi:0000000000000000 $t
/var/folders/1y/_321xjh9623c014x9_qw12rr0000gn/T//ccXuncwa.s:7441   .text._ZN5daisy5Dubby21UpdatePreferencesMenuEi:0000000000000000 _ZN5daisy5Dubby21UpdatePreferencesMenuEi
/var/folders/1y/_321xjh9623c014x9_qw12rr0000gn/T//ccXuncwa.s:7488   .rodata._ZN5daisy5Dubby17ResetToBootloaderEv.str1.4:0000000000000000 $d
/var/folders/1y/_321xjh9623c014x9_qw12rr0000gn/T//ccXuncwa.s:7492   .text._ZN5daisy5Dubby17ResetToBootloaderEv:0000000000000000 $t
/var/folders/1y/_321xjh9623c014x9_qw12rr0000gn/T//ccXuncwa.s:7499   .text._ZN5daisy5Dubby17ResetToBootloaderEv:0000000000000000 _ZN5daisy5Dubby17ResetToBootloaderEv
/var/folders/1y/_321xjh9623c014x9_qw12rr0000gn/T//ccXuncwa.s:7755   .text._ZN5daisy5Dubby17ResetToBootloaderEv:00000000000000b0 $d
/var/folders/1y/_321xjh9623c014x9_qw12rr0000gn/T//ccXuncwa.s:7762   .text._ZN5daisy5Dubby13UpdateDisplayEv:0000000000000000 $t
/var/folders/1y/_321xjh9623c014x9_qw12rr0000gn/T//ccXuncwa.s:7769   .text._ZN5daisy5Dubby13UpdateDisplayEv:0000000000000000 _ZN5daisy5Dubby13UpdateDisplayEv
/var/folders/1y/_321xjh9623c014x9_qw12rr0000gn/T//ccXuncwa.s:8337   .text._ZN5daisy5Dubby13UpdateDisplayEv:0000000000000188 $d
/var/folders/1y/_321xjh9623c014x9_qw12rr0000gn/T//ccXuncwa.s:8342   .text._ZN5daisy13SSD130xDriverILj128ELj64ENS_24SSD130x4WireSpiTransportEE4InitENS2_6ConfigE:0000000000000000 $t
/var/folders/1y/_321xjh9623c014x9_qw12rr0000gn/T//ccXuncwa.s:8349   .text._ZN5daisy13SSD130xDriverILj128ELj64ENS_24SSD130x4WireSpiTransportEE4InitENS2_6ConfigE:0000000000000000 _ZN5daisy13SSD130xDriverILj128ELj64ENS_24SSD130x4WireSpiTransportEE4InitENS2_6ConfigE
/var/folders/1y/_321xjh9623c014x9_qw12rr0000gn/T//ccXuncwa.s:9121   .text._ZN5daisy5Dubby11InitDisplayEv:0000000000000000 $t
/var/folders/1y/_321xjh9623c014x9_qw12rr0000gn/T//ccXuncwa.s:9128   .text._ZN5daisy5Dubby11InitDisplayEv:0000000000000000 _ZN5daisy5Dubby11InitDisplayEv
/var/folders/1y/_321xjh9623c014x9_qw12rr0000gn/T//ccXuncwa.s:9307   .text._ZN5daisy5Dubby11InitDisplayEv:0000000000000088 $d
/var/folders/1y/_321xjh9623c014x9_qw12rr0000gn/T//ccXuncwa.s:9312   .text._ZN5daisy5Dubby4InitEv:0000000000000000 $t
/var/folders/1y/_321xjh9623c014x9_qw12rr0000gn/T//ccXuncwa.s:9319   .text._ZN5daisy5Dubby4InitEv:0000000000000000 _ZN5daisy5Dubby4InitEv
/var/folders/1y/_321xjh9623c014x9_qw12rr0000gn/T//ccXuncwa.s:9437   .text._ZN5daisy5Dubby4InitEv:0000000000000080 $d
/var/folders/1y/_321xjh9623c014x9_qw12rr0000gn/T//ccXuncwa.s:9442   .rodata:0000000000000000 $d
/var/folders/1y/_321xjh9623c014x9_qw12rr0000gn/T//ccXuncwa.s:9480   .rodata._ZL7bitmaps:0000000000000000 $d
/var/folders/1y/_321xjh9623c014x9_qw12rr0000gn/T//ccXuncwa.s:9484   .rodata._ZL7bitmaps:0000000000000000 _ZL7bitmaps

UNDEFINED SYMBOLS
_ZN5daisy6System6GetNowEv
dsy_gpio_write
_ZN5daisy9SpiHandle16BlockingTransmitEPhjm
_ZN5daisy9DaisySeed6GetPinEh
_ZN5daisy16AdcChannelConfig10InitSingleE12dsy_gpio_pin
_ZN5daisy9AdcHandle4InitEPNS_16AdcChannelConfigEjNS0_12OverSamplingE
_ZNK5daisy9AdcHandle6GetPtrEh
_ZNK5daisy9DaisySeed17AudioCallbackRateEv
_ZN5daisy13AnalogControl4InitEPtfbbf
_ZN5daisy9AdcHandle5StartEv
_ZN5daisy6GateIn4InitEP12dsy_gpio_pinb
memset
_ZN5daisy7Encoder4InitE12dsy_gpio_pinS1_S1_f
_ZN5daisy13AnalogControl7ProcessEv
_ZN5daisy7Encoder8DebounceEv
_ZN5daisy9DaisySeed17CheckBoardVersionEv
_ZN5daisy9I2CHandle4InitERKNS0_6ConfigE
_ZN5daisy7Pcm30604InitENS_9I2CHandleE
_ZN5daisy9SaiHandle4InitERKNS0_6ConfigE
_ZN5daisy11AudioHandle4InitERKNS0_6ConfigENS_9SaiHandleES4_
Font_6x8
_ZN5daisy6System17ResetToBootloaderEv
dsy_gpio_init
_ZN5daisy9SpiHandle4InitERKNS0_6ConfigE
_ZN5daisy6System5DelayEm
